ARM GAS  /tmp/ccXIQxh3.s 			page 1


   1              		.cpu cortex-m0
   2              		.fpu softvfp
   3              		.eabi_attribute 20, 1
   4              		.eabi_attribute 21, 1
   5              		.eabi_attribute 23, 3
   6              		.eabi_attribute 24, 1
   7              		.eabi_attribute 25, 1
   8              		.eabi_attribute 26, 1
   9              		.eabi_attribute 30, 6
  10              		.eabi_attribute 34, 0
  11              		.eabi_attribute 18, 4
  12              		.code	16
  13              		.file	"chcore_v6m.c"
  14              		.text
  15              	.Ltext0:
  16              		.section	.gnu.lto_.inline.f7f69e3b7e01b2d2,"",%progbits
  17 0000 789C6362 		.ascii	"x\234cb`b\300\006:\2404\033\003\003\0133\003\003\023"
  17      6062C006 
  17      3AA0341B 
  17      03030B33 
  17      030313
  18 0013 CB073D06 		.ascii	"\313\007=\006\026\210ZF\014\021&\006\026\036 \311\264"
  18      16885A46 
  18      0C112606 
  18      161E20C9 
  18      B4
  19 0024 401EAE86 		.ascii	"@\036\256\206\013H0c\027fa\340\024\004\012\363l\310"
  19      0B483063 
  19      176661E0 
  19      14040AF3 
  19      6CC8
  20 0036 45116665 		.ascii	"E\021fe\020R\006\012K=\270\305\0107\227\033&\311\000"
  20      1052060A 
  20      4B3DB8C5 
  20      0837971B 
  20      26C900
  21 0049 0066DA08 		.ascii	"\000f\332\010L"
  21      4C
  22              		.text
  23              		.section	.gnu.lto_port_lock.f7f69e3b7e01b2d2,"",%progbits
  24 0000 789C6362 		.ascii	"x\234cb`b@\007\"@<\035\210\253A\034f\006F\240\012F&"
  24      60624007 
  24      22403C1D 
  24      88AB411C 
  24      660646A0 
  25 0017 46462087 		.ascii	"FF \207\221\241\236\211\261>\222\021\254l=\323\201\007"
  25      91A19E89 
  25      B13E9211 
  25      AC6C3DD3 
  25      8107
  26 0029 FFFFAFDB 		.ascii	"\377\377\257\3332m\331\035\306\233L 1V\206\226\206\206"
  26      326DD91D 
  26      C69B4C20 
  26      31568696 
  26      8686
  27 003b 090A0C0C 		.ascii	"\011\012\014\014\311`\025!`2\024\244\237\371\034C\343"
  27      C9601521 
ARM GAS  /tmp/ccXIQxh3.s 			page 2


  27      603214A4 
  27      9FF91C43 
  27      E3
  28 004c C7B71FAE 		.ascii	"\307\267\037\2561\302\225\200\031\015\007\272\317\265"
  28      31C29580 
  28      190D07BA 
  28      CFB5
  29 005a B2323024 		.ascii	"\26220$2.\004\312$3B\014\006Z\223\315\014q\227\034C"
  29      322E04CA 
  29      2433420C 
  29      065A93CD 
  29      0C71971C 
  30 006f C9DC8619 		.ascii	"\311\334\206\031\016\231P\011\206\213\014\215\017\346"
  30      0E995009 
  30      868B0C8D 
  30      0FE6
  31 007d 6A4394C3 		.ascii	"jC\224\303@\010H\033H\265\221~F~n\252~jZ\252\276sFf"
  31      4008481B 
  31      48B5917E 
  31      467E6EAA 
  31      7E6A5AAA 
  32 0095 52A67FB0 		.ascii	"R\246\177\260~~\261~Q\211~A~QI\261\276c\220\257\263"
  32      7E7EB17E 
  32      51897E41 
  32      7E5149B1 
  32      BE6390AF 
  33 00aa 6F857E72 		.ascii	"o\205~rFr~Qj|\231Y\256^\006\203)V-\251\025%\372\316"
  33      46727E51 
  33      6A7C9959 
  33      AE5E0683 
  33      29562DA9 
  34 00c2 BEC19EC1 		.ascii	"\276\301\236\301\372\231y\3119\245)\251\372`-\311\271"
  34      FA9979C9 
  34      39A529A9 
  34      FA602DC9 
  34      B9
  35 00d3 6EA579C9 		.ascii	"n\245y\311@]\034\311\005\305\231)\012\231\014\354\271"
  35      405D1CC9 
  35      05C59929 
  35      0A990CEC 
  35      B9
  36 00e4 A9B9F945 		.ascii	"\251\271\371E\225\014\000?\304L\322"
  36      950C003F 
  36      C44CD2
  37              		.text
  38              		.section	.gnu.lto_port_unlock.f7f69e3b7e01b2d2,"",%progbits
  39 0000 789C6362 		.ascii	"x\234cb`b@\007\"@<\035\210\253A\034f\006F\240\012F&"
  39      60624007 
  39      22403C1D 
  39      88AB411C 
  39      660646A0 
  40 0017 46462087 		.ascii	"FF \207\221\241\236\211\261>\222\021\254l=\323\201\007"
  40      91A19E89 
  40      B13E9211 
  40      AC6C3DD3 
  40      8107
  41 0029 FFFFAFBB 		.ascii	"\377\377\257\2736m\371\033\306[L 1V\206\226\206\206"
ARM GAS  /tmp/ccXIQxh3.s 			page 3


  41      366DF91B 
  41      C65B4C20 
  41      31568696 
  41      8686
  42 003b 090A0C0C 		.ascii	"\011\012\014\014\311`\025!`2\024\244\237\371\034C\343"
  42      C9601521 
  42      603214A4 
  42      9FF91C43 
  42      E3
  43 004c C7B7BBAE 		.ascii	"\307\267\273\2561\302\225\200\031\015\007N_\373\312"
  43      31C29580 
  43      190D074E 
  43      5FFBCA
  44 005b CCC090C8 		.ascii	"\314\300\220\310\270\020(\223\314\0101\030hM63\304]"
  44      B8102893 
  44      CC083118 
  44      684D3633 
  44      C45D
  45 006d 720C2573 		.ascii	"r\014%s\033f8dB%\030.24>X\247\015Q\016\003! m \325F"
  45      1B663864 
  45      4225182E 
  45      32343E58 
  45      A70D510E 
  46 0088 FA19F9B9 		.ascii	"\372\031\371\271\251\372\251i\251\372\316\031\231I\231"
  46      A9FAA969 
  46      A9FACE19 
  46      994999
  47 0097 FEC1FAF9 		.ascii	"\376\301\372\371\305\372E%\372\005\371E%\305\372\216"
  47      C5FA4525 
  47      FA05F945 
  47      25C5FA8E 
  48 00a7 41BECEBE 		.ascii	"A\276\316\276\025\372\311\031\311\371E\251\361ef\271"
  48      15FAC919 
  48      C9F945A9 
  48      F16566B9 
  49 00b7 7A190CA6 		.ascii	"z\031\014\246X\265\244V\224\350;\373\006{\006\353g\346"
  49      58B5A456 
  49      94E83BFB 
  49      067B06EB 
  49      67E6
  50 00c9 25E794A6 		.ascii	"%\347\224\246\244\352\203\265$\347\272\225\346%\003"
  50      A4EA83B5 
  50      24E7BA95 
  50      E62503
  51 00d8 75712417 		.ascii	"uq$\027\024g\246*d2\260\347\246\346\346\027U2\000\000"
  51      1467A62A 
  51      6432B0E7 
  51      A6E6E617 
  51      55320000 
  52 00ec DC484D98 		.ascii	"\334HM\230"
  53              		.text
  54              		.section	.gnu.lto_port_lock_from_isr.f7f69e3b7e01b2d2,"",%progbits
  55 0000 789C6362 		.ascii	"x\234cb`b@\007\"@\\\006\304& \0163\003#P\005#\023##"
  55      60624007 
  55      22405C06 
  55      C426200E 
  55      33032350 
ARM GAS  /tmp/ccXIQxh3.s 			page 4


  56 0019 90C3C850 		.ascii	"\220\303\310P\317\304X\037\311\010V\266\236\351\300"
  56      CFC4581F 
  56      C90856B6 
  56      9EE9C0
  57 0028 83FFFFD7 		.ascii	"\203\377\377\327\375\272\266\256\207\361\016\023H\214"
  57      FDBAB6AE 
  57      87F10E13 
  57      488C
  58 0036 95A1A5A1 		.ascii	"\225\241\245\241a\202\002\003C2XE\010\230\014\005\351"
  58      61820203 
  58      43325845 
  58      08980C05 
  58      E9
  59 0047 673ECFD0 		.ascii	"g>\317\320\374`\1777{\"\343BFV\240`5\303\257\206\216"
  59      FC607F37 
  59      7B22E342 
  59      4656A060 
  59      35C3AF86 
  60 005c 06814C46 		.ascii	"\006\201LF\240R\210i\231 \372\"C\343\203\023\3320E\020"
  60      A0528869 
  60      9920FA22 
  60      43E38313 
  60      DA304510 
  61 0070 10029200 		.ascii	"\020\002\222\0009\322H?#?7U?5-U\3379#3)\323?X?\277X"
  61      39D2483F 
  61      233F3755 
  61      3F352D55 
  61      DF392333 
  62 008b BFA844BF 		.ascii	"\277\250D\277 \277\250\244X\3371\310\327\331\267B?9"
  62      20BFA8A4 
  62      58DF31C8 
  62      D7D9B742 
  62      3F39
  63 009d 2339BF28 		.ascii	"#9\277(5\276\314,W/\203\001\000\210\376-%"
  63      35BECC2C 
  63      572F8301 
  63      0088FE2D 
  63      25
  64              		.text
  65              		.section	.gnu.lto_port_unlock_from_isr.f7f69e3b7e01b2d2,"",%progbits
  66 0000 789C6362 		.ascii	"x\234cb`b@\007\"@\\\006\304& \0163\003#P\005#\023##"
  66      60624007 
  66      22405C06 
  66      C426200E 
  66      33032350 
  67 0019 90C3C850 		.ascii	"\220\303\310P\317\304X\037\311\010V\266\236\351\300"
  67      CFC4581F 
  67      C90856B6 
  67      9EE9C0
  68 0028 83FFFFD7 		.ascii	"\203\377\377\327\315\273\276~\015\343]&\220\030+CKC"
  68      CDBBBE7E 
  68      0DE35D26 
  68      90182B43 
  68      4B43
  69 003a C3040506 		.ascii	"\303\004\005\006\206d\260\212\0200\031\012\322\317|"
  69      8664B08A 
  69      1030190A 
ARM GAS  /tmp/ccXIQxh3.s 			page 5


  69      D2CF7C
  70 0049 9EA1F9C1 		.ascii	"\236\241\371\301\315\323\354\211\214\013\031Y\201\202"
  70      CDD3EC89 
  70      8C0B1959 
  70      8182
  71 0057 D50CBF1A 		.ascii	"\325\014\277\032:\032\0042\031\201J!\246e\202\350\213"
  71      3A1A0432 
  71      19814A21 
  71      A66582E8 
  71      8B
  72 0068 0C8D0F6E 		.ascii	"\014\215\017ni\303\024A@\010H\002\344H#\375\214\374"
  72      69C31441 
  72      40084802 
  72      E44823FD 
  72      8CFC
  73 007a DC54FDD4 		.ascii	"\334T\375\324\264T}\347\214\314\244L\377`\375\374b\375"
  73      B4547DE7 
  73      8CCCA44C 
  73      FF60FDFC 
  73      62FD
  74 008c A212FD82 		.ascii	"\242\022\375\202\374\242\222b}\307 _g\337\012\375\344"
  74      FCA29262 
  74      7DC7205F 
  74      67DF0AFD 
  74      E4
  75 009d 8CE4FCA2 		.ascii	"\214\344\374\242\324\3702\263\\\275\014\006\000\223"
  75      D4F832B3 
  75      5CBD0C06 
  75      0093
  76 00ab 062D58   		.ascii	"\006-X"
  77              		.text
  78              		.section	.gnu.lto_NMI_Handler.f7f69e3b7e01b2d2,"",%progbits
  79 0000 789C8D52 		.ascii	"x\234\215ROH\024a\024\177\357\233q\307\014\263\253\030"
  79      4F481461 
  79      147FEF9B 
  79      71C70CB3 
  79      AB18
  80 0012 B518DEC4 		.ascii	"\265\030\336\304\221\300N\005\205\020tX\014\327\240"
  80      91C04E05 
  80      85107458 
  80      0CD7A0
  81 0021 4EB18DE3 		.ascii	"N\261\215\343\356\220\272\313\354l\011Q\373\255+\266"
  81      EE90BACB 
  81      EC6C0951 
  81      FBAD2BB6 
  82 0031 E6168B06 		.ascii	"\346\026\213\006\375\261RC\023\"\251\350 D\330F\021"
  82      FDB15243 
  82      1322A9E8 
  82      2044D846 
  82      11
  83 0042 89697809 		.ascii	"\211ix\011\242\016\213^\202H\222.Q\321\364\276\031G"
  83      A20E8B5E 
  83      8248922E 
  83      51D1F4BE 
  83      1947
  84 0054 4D82F6C1 		.ascii	"M\202\366\301\356o\336\237\337{o~\363\0300\330lU\364"
  84      EE6FDE9F 
ARM GAS  /tmp/ccXIQxh3.s 			page 6


  84      DF7B6F7E 
  84      F31830D8 
  84      6C55F4
  85 0067 7B22013C 		.ascii	"{\"\001<\026\216\014H\025\310\220\002(!R\010!\311$L"
  85      168E0C48 
  85      15C89002 
  85      28215208 
  85      21C9244C 
  86 007b 1E17CFA0 		.ascii	"\036\027\317\240T\303(\347\003\205\361\305O\312\365"
  86      54C328E7 
  86      0385F1C5 
  86      4FCAF5
  87 008a 2BF99E11 		.ascii	"+\371\236\021\376\313\266\021\015\221\324\020\216\321"
  87      FECBB611 
  87      0D91D410 
  87      8ED1
  88 0098 13FA1D60 		.ascii	"\023\372\035`\362\337c\\b\376Q\357\345\312\213#\335"
  88      F2DF635C 
  88      62FE51EF 
  88      E5CA8B23 
  88      DD
  89 00a9 39FE9B78 		.ascii	"9\376\233xDc\320\200\3051\007_]\255\344\353L\211\301"
  89      4463D080 
  89      C531075F 
  89      5DADE4EB 
  89      4C89C1
  90 00bc BEA29837 		.ascii	"\276\242\2307\362?\337g\313r\251\014\267\355\244\201"
  90      F23FDF67 
  90      CB72A90C 
  90      B7EDA481 
  91 00cc 72718B16 		.ascii	"rq\213\026\006{\227\337\341@\232\277\316\365\344i\340"
  91      067B97DF 
  91      E1409ABF 
  91      CEF5E469 
  91      E0
  92 00dd 2E623238 		.ascii	".b28S\344\304g\037fF\221\017\360\324W\333\256(~\346"
  92      53E4C467 
  92      1F664691 
  92      0FF0D457 
  92      DBAE287E 
  93 00f2 F8F0EC46 		.ascii	"\370\360\354F\026\203\363\377\233\367\200\345\013\266"
  93      1683F3FF 
  93      9BF780E5 
  93      0BB6
  94 0100 9DB9F02D 		.ascii	"\235\271\360-\213[\020\034=C8\206\325 \255\242Lx\207"
  94      8B5B101C 
  94      3D433886 
  94      D520ADA2 
  94      4C7887
  95 0113 B0847082 		.ascii	"\260\204p\202\320GE\262B\316=rJ\011\357\022\222\225"
  95      D04745B2 
  95      42CE3D72 
  95      4A09EF12 
  95      9295
  96 0125 400FE739 		.ascii	"@\017\3479\277Kr\326%kq\376\217\212\223\220\346!\265"
  96      BF4B72D6 
  96      256B71FE 
ARM GAS  /tmp/ccXIQxh3.s 			page 7


  96      8F8A9390 
  96      E621B5
  97 0138 D2F762AA 		.ascii	"\322\367b\252j\255p\302)t\\\236\237}\271P\341\365\012"
  97      6AAD70C2 
  97      29745C9E 
  97      9F7DB950 
  97      E1F50A
  98 014b E17D2CA1 		.ascii	"\341},\241\016\016\231\316\007.\3215\211\026\356\361"
  98      0E0E99CE 
  98      072ED135 
  98      8916EEF1 
  99 015b ED8421BC 		.ascii	"\355\204!\274\305\257\0350\250\210,\354\002\314A\367"
  99      C5AF1D30 
  99      A8882CEC 
  99      02CC41F7 
 100 016b CCD3C5EF 		.ascii	"\314\323\305\357_|!\234\244P\030}^\206\026\240k\224"
 100      5F7C219C 
 100      A450187D 
 100      5E8616A0 
 100      6B94
 101 017d 6621550A 		.ascii	"f!U\012\320\212n\355\355\032A-\2452\227\372q,{\316\035"
 101      D08A6EED 
 101      ED1A412D 
 101      A53297FA 
 101      712C7BCE 
 102 0192 1C46A484 		.ascii	"\034F\244\204\023\375\234\236F/\310\302b\2419H\367\247"
 102      13FD9C9E 
 102      462FC8C2 
 102      62A13948 
 102      F7A7
 103 01a4 A7B28A17 		.ascii	"\247\262\212\027\225(\341\350\352w\333.\247\227\262"
 103      9528E1E8 
 103      EA77DB2E 
 103      A797B2
 104 01b3 3BBCA41C 		.ascii	";\274\244\034\026\203\327\206)a\361!\347\241{\245oi"
 104      1683D786 
 104      2961F121 
 104      E7A17BA5 
 104      6F69
 105 01c5 DAD3614D 		.ascii	"\332\323aM\201\3767\317%W\325u\005\230+\000\302\360"
 105      81FE37CF 
 105      2557D575 
 105      05982B00 
 105      C2F0
 106 01d7 26052657 		.ascii	"&\005&W\025\360\271\012(\260!\367p\243:\000o!]\030Z"
 106      15F0B90A 
 106      28B021F7 
 106      70A33A00 
 106      6F215D18 
 107 01ec DAEAB604 		.ascii	"\332\352\266\0048\013?x\206o7P\321\304rd\206x\331\005"
 107      380B3F78 
 107      866F3750 
 107      D1C47264 
 107      8678D905 
 108 0200 48156EEE 		.ascii	"H\025n\356\366\212\\k\021/,\232\356Q#\321\016]\325\333"
 108      F68A5C6B 
 108      112F2C9A 
ARM GAS  /tmp/ccXIQxh3.s 			page 8


 108      EE5123D1 
 108      0E5DD5DB 
 109 0214 74B53162 		.ascii	"t\2651b\2344\232\202j4\256\232\226\032\213\232V\\=\330"
 109      9C349A82 
 109      6A34AE9A 
 109      961A8B9A 
 109      565C3DD8 
 110 0228 1C680C74 		.ascii	"\034h\014t\251ZD\213\232\372\211\323{;\3524\360iVW\254"
 110      A95A448B 
 110      9AFA89D3 
 110      7B3BEA34 
 110      F0695657 
 111 023d AE5E16D0 		.ascii	"\256^\026\320\360O\272\336e\251\215\201\340\341\240"
 111      F04FBADE 
 111      65A98D81 
 111      E0E1A0
 112 024c 6A746AED 		.ascii	"jtj\355\211V]u\350Z\307\241D\247V\027\001\237\251\307"
 112      89565D75 
 112      E85AC7A1 
 112      44A75617 
 112      019FA9C7 
 113 0260 13EDD636 		.ascii	"\023\355\3266+\032kj;bF\265\240\025\322N\225\007\232"
 113      2B1A6B6A 
 113      3B6246B5 
 113      A015D24E 
 113      95079A
 114 0273 83FE9AFA 		.ascii	"\203\376\232\372Z\177,\036+\003i\277\011\345\201`\263"
 114      5A7F2C1E 
 114      2B0369BF 
 114      09E58160 
 114      B3
 115 0284 F06A295C 		.ascii	"\360j)\\\006\314\004)\036\203?\035\241\016\261"
 115      06CC0429 
 115      1E833F1D 
 115      A10EB1
 116              		.text
 117              		.section	.gnu.lto__port_irq_epilogue.f7f69e3b7e01b2d2,"",%progbits
 118 0000 789CA554 		.ascii	"x\234\245T[H\024a\024>g\376\231Y]\323\242\227\220\300"
 118      5B481461 
 118      143E67FE 
 118      99595DD3 
 118      A29790C0 
 119 0014 16410812 		.ascii	"\026A\010\022'\213\352\245\240\020\202\036\026\303-"
 119      278BEAA5 
 119      A010821E 
 119      16C32D
 120 0023 287A886D 		.ascii	"(z\210m\\\327\311\313.\273k\031A\376\353J\246\026+f"
 120      5CD7C9CB 
 120      2EBB6B19 
 120      41FEEB4A 
 120      A6162B66 
 121 0037 A076B340 		.ascii	"\240v\263@\354\202e\364P\320m%$E,\"\210\240\036\266"
 121      EC8265F4 
 121      50D06D25 
 121      24452C22 
 121      88A01EB6 
 122 004b 7A09ECE6 		.ascii	"z\011\354\346\223\221\321v\376\231\335u\023#\251\037"
ARM GAS  /tmp/ccXIQxh3.s 			page 9


 122      9391D176 
 122      FE99DD75 
 122      1323A91F 
 123 005b 9CE339E7 		.ascii	"\234\3439\347\377\316\371\316\345_\011$\230\177\312"
 123      FFCEF9CE 
 123      E55F0924 
 123      987FCA
 124 006a E8AF4601 		.ascii	"\350\257F\001\270-\224,@\272\201\222\304\000\270d\243"
 124      B82D942C 
 124      40BA8192 
 124      C400B864 
 124      A3
 125 007b 8FCC5026 		.ascii	"\217\314P&\213,)\302\242\012\213\202\344@\325\374\332"
 125      8B2C29C2 
 125      A20A8B82 
 125      E440D5FC 
 125      DA
 126 008c 100986D0 		.ascii	"\020\011\206\320$1YQm\330\264\027\3158\205p\211\363"
 126      24315951 
 126      6DD8B417 
 126      CD388570 
 126      89F3
 127 009e AEF8E8EC 		.ascii	"\256\370\350\354+\245\267;\326\322\317\177$\022\210"
 127      2BA5B73B 
 127      D6D2CF7F 
 127      241288
 128 00ad 8670EA08 		.ascii	"\206p\352\010{\350?t\230B\222\177\247c\001c\263\255"
 128      7BE83F74 
 128      9842927F 
 128      A7630163 
 128      B3AD
 129 00bf D1FCF6FE 		.ascii	"\321\374\366\376\346N\376\223p\004\223`\003.\016\331"
 129      E64EFE93 
 129      70049360 
 129      032E0ED9 
 130 00cf DB3EB0A2 		.ascii	"\333>\260\242=\316SH6\2270\313\202\341\202\260\027O"
 130      3DCE5348 
 130      369730CB 
 130      82E182B0 
 130      174F
 131 00e1 CEE5F3B9 		.ascii	"\316\345\363\271\204\262\004\233\027\225\260/\366\240"
 131      84B2049B 
 131      1795B02F 
 131      F6A0
 132 00ef 75E212F2 		.ascii	"u\342\022\362.\036\376\232H,5PY\\\205\361\323\307?\277"
 132      2E1EFE9A 
 132      482C3550 
 132      595C85F1 
 132      D3C73FBF 
 133 0103 C4AE081F 		.ascii	"\304\256\010\037\353l\211Q\312U\204\224\340\360\"s>"
 133      EB6C8951 
 133      CA558494 
 133      E0F02273 
 133      3E
 134 0114 7A3DFE2F 		.ascii	"z=\376/9Gg\2063\213\244\204\307\376\226\360\246\024"
 134      39476786 
 134      338BA484 
ARM GAS  /tmp/ccXIQxh3.s 			page 10


 134      C7FE96F0 
 134      A614
 135 0126 8B27121F 		.ascii	"\213'\022\037\332\006\317`\016b\235\230\004\215\203"
 135      DA06CF60 
 135      0E629D98 
 135      048D83
 136 0135 811B07B0 		.ascii	"\201\033\007\260\020\344\244TH^&\251\222\223\331H\271"
 136      10E4A454 
 136      485E26A9 
 136      9293D948 
 136      B9
 137 0146 424A1629 		.ascii	"BJ\026)J6)\327I\261\223\034$IG\201\026\316;\035&g:\273"
 137      4A3629D7 
 137      49B1931C 
 137      24494781 
 137      16CE3B1D 
 138 015e CCEF6EB1 		.ascii	"\314\357n\261xl\014Z>\216<oen\034\242\242\274\210\202"
 138      786C0C5A 
 138      3E8E3C6F 
 138      656E1CA2 
 138      A2BC8882 
 139 0172 923A9DA0 		.ascii	"\222:\235\240*38\355\026Se\317 \022\237z\237\223\214"
 139      2A3338ED 
 139      165365CF 
 139      20129F7A 
 139      9F938C
 140 0185 66F100B0 		.ascii	"f\361\000\260\220\3469\012\337\371\011\276\314@\233"
 140      90E6390A 
 140      DFF909BE 
 140      CC409B
 141 0194 8ED6D00D 		.ascii	"\216\326\320\015\332\001x\012\341\351\266\307wV\246"
 141      DA01780A 
 141      E1E9B6C7 
 141      7756A6
 142 01a3 81574CA0 		.ascii	"\201WL\240\251\362X\307\314\255\234\024S7\336\240X:"
 142      A9F258C7 
 142      CCAD9C14 
 142      5337DEA0 
 142      583A
 143 01b5 5A8F8642 		.ascii	"Z\217\206B\234\242\304\202\246\365\214\012\340,\236"
 143      9CA2C482 
 143      A6F58C0A 
 143      E02C9E
 144 01c4 E73D5B0D 		.ascii	"\347=[\015\314\026\252W<\010:\223\320<~\377\335\267"
 144      CC16AA57 
 144      3C083A93 
 144      D03C7EFF 
 144      DDB7
 145 01d6 4FAA1B87 		.ascii	"O\252\033\207\315\"\262R\036\"N\335e\023\020&\032\225"
 145      CD22B252 
 145      1E224EDD 
 145      65131026 
 145      1A95
 146 01e8 8213DDBD 		.ascii	"\202\023\335\275P$\240v\257\240&\240o\356F\367Y\211"
 146      5024A076 
 146      AFA026A0 
 146      6FEE46F7 
ARM GAS  /tmp/ccXIQxh3.s 			page 11


 146      5989
 147 01fa BD2891C3 		.ascii	"\275(\221\303\264NE\016\246l\314+\370LB\244#2\025\315"
 147      B44E450E 
 147      A66CCC2B 
 147      F84C42A4 
 147      233215CD 
 148 020e 4F596572 		.ascii	"OYer\230\343\213'{E\240\317\221\231hA\352\202\342\025"
 148      98E38B27 
 148      7B45A0CF 
 148      91996841 
 148      EA82E215 
 149 0222 B9D3F9B2 		.ascii	"\271\323\371\262\275\242KO\241y\272\355\375\303\225"
 149      BDA24B4F 
 149      A179BAED 
 149      FDC395
 150 0231 E989249B 		.ascii	"\351\211$\2330\361\363-\263\3066\327\004f\365\000\341"
 150      30F1F32D 
 150      B3C636D7 
 150      0466F500 
 150      E1
 151 0242 E2BC260C 		.ascii	"\342\274&\014%\233`\267\232 z\221\366\015g6\310L\177"
 151      259B60B7 
 151      9A207A91 
 151      F60D6736 
 151      C84C7F
 152 0255 B7E7F288 		.ascii	"\267\347\362\210d\305\\\003\327(\031_o`\316Y\350#\362"
 152      64C55C03 
 152      D728195F 
 152      6F60CE59 
 152      E823F2
 153 0268 4B88A328 		.ascii	"K\210\243(\302Z\301\003\311\207j\256\000\335\243\376"
 153      C25AC103 
 153      C9876AAE 
 153      00DDA3FE 
 154 0278 8098F9C9 		.ascii	"\200\230\371\311\321\345\251\242\324\364\210s\365$\312"
 154      D1E5A9A2 
 154      D4F48873 
 154      F524CA
 155 0287 C03C00B1 		.ascii	"\300<\000\261F\341\322\364\255=\326\357@\346\002Q\361"
 155      46E1D2F4 
 155      AD3DD6EF 
 155      40E60251 
 155      F1
 156 0298 8CD87C8F 		.ascii	"\214\330|\217\334\353^\375\033\233M\177d\203\031K\305"
 156      DCEB5EFD 
 156      1B9B4D7F 
 156      6483194B 
 156      C5
 157 02a9 8F985BA5 		.ascii	"\217\230[\245dDTS\021\277\374OD5#\"-\015{\016\341\370"
 157      64445453 
 157      11BFFC4F 
 157      44352322 
 157      2D0D7B0E 
 158 02bf D5A28CA5 		.ascii	"\325\242\214\2456\037\014\001E\203\327i\325\276:\217"
 158      361F0C01 
 158      4583D769 
 158      D5BE3A8F 
ARM GAS  /tmp/ccXIQxh3.s 			page 12


 159 02cf E6A9F268 		.ascii	"\346\251\362he\325\306\001\243\334\245\371\202Z \244"
 159      65D5C601 
 159      A3DCA5F9 
 159      825A20A4 
 160 02df F97D8150 		.ascii	"\371}\201PP\333V\341,s6jz\265\356\013x\366\037\332X"
 160      50DB56E1 
 160      2C73366A 
 160      7AB5EE0B 
 160      78F61FDA 
 161 02f4 57A283AA 		.ascii	"W\242\203\252\207\032\375%\245\262\020\033\026\204{"
 161      871AFD25 
 161      A5B2101B 
 161      16847B
 162 0303 1A435A99 		.ascii	"\032CZ\231\323\265\303\245\031\365zmC\245G3\341z\335"
 162      D3B5C3A5 
 162      19F57A6D 
 162      43A54733 
 162      E17ADD
 163 0316 F6867ABD 		.ascii	"\366\206z\275\244\032\324\200'\330P\033\312\013\371"
 163      A41AD480 
 163      27D8501B 
 163      CA0BF9
 164 0325 FCE5553B 		.ascii	"\374\345U;\003>\335\025r\3535\271\316\012\227\243hm"
 164      033EDD15 
 164      72EB35B9 
 164      CE0A97A3 
 164      686D
 165 0337 B1C31FF4 		.ascii	"\261\303\037\364\333\201m\011@\256\323U!\264b2\333A"
 165      DB816D09 
 165      40AED355 
 165      21B46232 
 165      DB41
 166 0349 0A000BFA 		.ascii	"\012\000\013\372\341\027\271zs\352"
 166      E117B97A 
 166      73EA
 167              		.text
 168              		.section	.gnu.lto_.symbol_nodes.f7f69e3b7e01b2d2,"",%progbits
 169 0000 789C4DC7 		.ascii	"x\234M\307\273\015\302@\020\006\341\331]\037\270\013"
 169      BB0DC240 
 169      1006E1D9 
 169      5D1FB80B 
 170 0010 673CCAA2 		.ascii	"g<\312\242\222\337\020\200C\022\032\200\2142(\200\220"
 170      92DF1080 
 170      43121A80 
 170      8C322880 
 170      90
 171 0021 98029CF3 		.ascii	"\230\002\234\363\222\020B>\3117\311\350s\23439\237\011"
 171      9210423E 
 171      C937C9E8 
 171      739C3339 
 171      9F09
 172 0033 F657900E 		.ascii	"\366W\220\016\335\312\347\262B\013y\241\245\242\320"
 172      DDCAE7B2 
 172      420B79A1 
 172      A5A2D0
 173 0042 035599B7 		.ascii	"\003U\231\267\316\374\211\322H{\243\311\300vm\366A\323"
 173      CEFC89D2 
ARM GAS  /tmp/ccXIQxh3.s 			page 13


 173      487BA3C9 
 173      C0766DF6 
 173      41D3
 174 0054 512F5467 		.ascii	"Q/Tg\265\026\016\233\373\327\"lx\025\\\266}\023\311"
 174      B5160E9B 
 174      FBD7226C 
 174      78155CB6 
 174      7D13C9
 175 0067 39FE9D6A 		.ascii	"9\376\235jN\273\276\341\007\177\0016I"
 175      4EBBBEE1 
 175      077F0136 
 175      49
 176              		.text
 177              		.section	.gnu.lto_.refs.f7f69e3b7e01b2d2,"",%progbits
 178 0000 789C6362 		.ascii	"x\234cb`b`g\200\000&V&6&v\006\000\001&\000$"
 178      60626067 
 178      80002656 
 178      26362676 
 178      06000126 
 179              		.text
 180              		.section	.gnu.lto_.decls.f7f69e3b7e01b2d2,"",%progbits
 181 0000 789C9557 		.ascii	"x\234\225Wol\024E\024\237\331;\333\236w\224R\205\034"
 181      6F6C1445 
 181      149FD93B 
 181      DB9E7794 
 181      52851C
 182 0013 1F0C47A2 		.ascii	"\037\014G\242&\222\310I\011\306O\2406A\370PhhH\374\266"
 182      2692C849 
 182      09C64FA0 
 182      3641F850 
 182      686848FC 
 183 0028 D9EE6DB9 		.ascii	"\331\356m\271\015\367\217\335=)\237\234\026*\304`r "
 183      0DF78FDD 
 183      3D299F9C 
 183      162AC460 
 183      7220
 184 003a 4431118E 		.ascii	"D1\021\216\277RR\204\324@$A\2706B\233\326\230R\241|"
 184      BF525284 
 184      D4402441 
 184      B836429B 
 184      D69852A1 
 185 004f C0841323 		.ascii	"\300\204\023#\012\376\201Z\252\025\014\347\314\356\316"
 185      0AFE815A 
 185      AA150CE7 
 185      CCEECE
 186 005e FEBB5DBC 		.ascii	"\376\273]\274\233\344\365fg\336\373\375\336{3\363f\312"
 186      9BE4F566 
 186      67DEFBFD 
 186      DE7B33F3 
 186      66CA
 187 0070 00061421 		.ascii	"\000\006\024!\000%\334\356\316\002`'\003@-\000`90[\000"
 187      0025DCEE 
 187      CE026027 
 187      03402D00 
 187      6039305B 
 188 0085 CB412CC7 		.ascii	"\313A,\307\260\364b\351\303r\012K?\226\363X.`)\200\362"
 188      B0F462E9 
ARM GAS  /tmp/ccXIQxh3.s 			page 14


 188      C3720A4B 
 188      3F96F358 
 188      2E602980 
 189 009a 466C3034 		.ascii	"Fl04\270\254\1773\372\330\250\213\3561\027]26\346\242"
 189      B8AC7F33 
 189      FAD8A88B 
 189      EE31175D 
 189      3236E6A2 
 190 00ae DBABCF5F 		.ascii	"\333\253\317_\305r\310\242\337\253\343;[\237\207~\237"
 190      C572C8A2 
 190      DFABE33B 
 190      5B9F877E 
 190      9F
 191 00bf CEE16C24 		.ascii	"\316\341l$6\0223\311C=\226\020\226kX\356`\271\207e\322"
 191      361233C9 
 191      433D9610 
 191      966B58EE 
 191      60B98765 
 192 00d4 81E5D76D 		.ascii	"\201\345\327m\246\260\314\350\270$\026\355\217\331H"
 192      A6B0CCE8 
 192      B82416ED 
 192      8FD948
 193 00e3 BE663B70 		.ascii	"\276f;p\007-\330+,\270\224\347\014\226\011\002\205\261"
 193      072DD82B 
 193      2CB894E7 
 193      0C960902 
 193      85B1
 194 00f5 0674BF7F 		.ascii	"\006t\277\177\306\362\223\216\323\257\307M\271\013\300"
 194      C6F2938E 
 194      D3AFC74D 
 194      B90BC0
 195 0104 5C13A27B 		.ascii	"\\\023\242{\216\374:\374X\000\366\243\302X\361\322\355"
 195      8EFC3AFC 
 195      5800F6A3 
 195      C258F1D2 
 195      ED
 196 0115 5BCC3E54 		.ascii	"[\314>T\330\206\360\322#\030\231\007\366\"\334\362\357"
 196      D886F0D2 
 196      23189907 
 196      F622DCF2 
 196      EF
 197 0126 2104150E 		.ascii	"!\004\025\016.\237\013\336\206\034\254\017\200\210\332"
 197      2E9F0BDE 
 197      861CAC0F 
 197      8088DA
 198 0135 0905D438 		.ascii	"\011\005\3248\001\340\340!8O\357\255\367\321l.\203`"
 198      01E0E021 
 198      384FEFAD 
 198      F7D16C2E 
 198      8360
 199 0147 11E8C5F6 		.ascii	"\021\350\305\3669\204n-pI*\000/\202\243\204\000\035"
 199      39846E2D 
 199      70492A00 
 199      2F82A384 
 199      001D
 200 0159 473E159E 		.ascii	"G>\025\236\000\034\2046]\016\036\206L\271\253\205\211"
 200      001C8436 
ARM GAS  /tmp/ccXIQxh3.s 			page 15


 200      5D0E1E86 
 200      4CB9AB85 
 200      89
 201 016a 8950AEAB 		.ascii	"\211P\256\253X*\035\3107h\364\014X\011\261\366\021\270"
 201      582A1DC8 
 201      3768F40C 
 201      5809B1F6 
 201      11B8
 202 017c E889F0C7 		.ascii	"\350\211\360\307\234\360\237\271\302?,\207_W\011|\257"
 202      9CF09FB9 
 202      C23F2C87 
 202      5F57097C 
 202      AF
 203 018d 13FE842B 		.ascii	"\023\376\204+\374\376\353e\360B%\360}N\370\223\345\360"
 203      FCFEEB65 
 203      F04225F0 
 203      7D4EF893 
 203      E5F0
 204 019f F942717A 		.ascii	"\371Bqz\350B\215\271\216\200R\234\204\225p\234rr\234"
 204      E8428DB9 
 204      8E80529C 
 204      8495709C 
 204      72729C
 205 01b2 76E3289C 		.ascii	"v\343(\234\037\322C\250b\233|\241o\023\237\272\021A"
 205      1FD243A8 
 205      629B7CA1 
 205      6F139FBA 
 205      1141
 206 01c4 10BC8F50 		.ascii	"\020\274\217P71\\5\\\357i\370\0028\202\367Pqj\364\366"
 206      37315C35 
 206      5CEF69F8 
 206      023882F7 
 206      50716AF4 
 207 01d9 24ECC214 		.ascii	"$\354\302\024\034<\003\203\030\340\027G4\034\\\021\264"
 207      1C3C0383 
 207      18E01747 
 207      341C5C11 
 207      B4
 208 01ea 3B8EBF2D 		.ascii	";\216\277-\012\346\336\004d{N:\314\237\007\207\021\332"
 208      0AE6DE04 
 208      647B4E3A 
 208      CC9F0787 
 208      11DA
 209 01fc 5D9CDE7E 		.ascii	"]\234\336~\357 \334\263\025\255\2424\333\030\242\327"
 209      EF20DCB3 
 209      15ADA234 
 209      DB18A2D7 
 210 020c 8F93E2E6 		.ascii	"\217\223\342\346\234\246ef\362\003\324\323\000\215T"
 210      9CA66566 
 210      F203D4D3 
 210      008D54
 211 021b F63B53F9 		.ascii	"\366;S\371ey*\213\271b\317\211A\270\017\015\222\345"
 211      65792A8B 
 211      B962CF89 
 211      41B80F0D 
 211      92E5
 212 022d 7AD758AC 		.ascii	"z\327X\254\355\214s\2614\210\257\334 \012\343\343;\021"
ARM GAS  /tmp/ccXIQxh3.s 			page 16


 212      ED8C73B1 
 212      3488AFDC 
 212      200AE3E3 
 212      3B11
 213 023f 54D76301 		.ascii	"T\327c\001\005\370\324\003\340\242\253\017\343\037~"
 213      05F8D403 
 213      E0A2AB0F 
 213      E31F7E
 214 024e 1F367CB0 		.ascii	"\0376|\260\255h\035\330NV\251\330\203\272\340&@\263"
 214      AD681DD8 
 214      4E56A9D8 
 214      83BAE026 
 214      40B3
 215 0260 5047B300 		.ascii	"PG\263\000\351\022\221s\316pp\020\326a\362\033\316\012"
 215      E9129173 
 215      CE707010 
 215      D661F21B 
 215      CE0A
 216 0272 63F21305 		.ascii	"c\362\023\005\322\210\275\326\247=\010<w\316\200K\201"
 216      D288BDD6 
 216      A73D083C 
 216      77CE804B 
 216      81
 217 0283 F9C123C0 		.ascii	"\371\301#\300K\366\000\347\200\034\011&\3621\306\335"
 217      4BF600E7 
 217      801C0926 
 217      F231C6DD 
 218 0293 A1467214 		.ascii	"\241Fr\024\205\303\377\037\310\020\014`\222G\336\201"
 218      85C3FF1F 
 218      C8100C60 
 218      9247DE81 
 219 02a3 10051A88 		.ascii	"\020\005\032\210\326\247\275\222\031\311k\024\276V\267"
 219      D6A7BD92 
 219      19C96B14 
 219      BE56B7
 220 02b2 BA0CE7A8 		.ascii	"\272\014\347\250=\325\031dl~\254\341\025\373\210\205"
 220      3DD51964 
 220      6C7EACE1 
 220      15FB8885 
 221 02c2 2714303B 		.ascii	"'\0240;5\226\025\304\305{\327'\327\367\302\217\266\242"
 221      359615C4 
 221      C57BD727 
 221      D7F7C28F 
 221      B6A2
 222 02d4 6174BF54 		.ascii	"at\277T\232\235\337\301\320\215p\326g\315\223z\366\030"
 222      9A9DDFC1 
 222      D08D70D6 
 222      67CD937A 
 222      F618
 223 02e6 F0B5CF88 		.ascii	"\360\265\317\210\313\255\010\214:w\3567\256u\354,-\223"
 223      CBAD088C 
 223      3A77EE37 
 223      AE75EC2C 
 223      2D93
 224 02f8 859C9FD2 		.ascii	"\205\234\237\322\215\227\323q\360[\323\334\215n\314"
 224      8D97D371 
 224      F05BD3DC 
ARM GAS  /tmp/ccXIQxh3.s 			page 17


 224      8D6ECC
 225 0307 4977C54E 		.ascii	"Iw\305N\347\250\024\204\310+[Wa\320\325\252\021\354"
 225      E7A81484 
 225      C82B5B57 
 225      61D0D5AA 
 225      11EC
 226 0319 52B7C170 		.ascii	"R\267\301p\275\2616\210\241\306\021@rrS\365|\0026\352"
 226      BDB13688 
 226      A1C61140 
 226      727253F5 
 226      7C0236EA 
 227 032d FE6BBBA1 		.ascii	"\376k\273\241x\364\363\001\210P\2356\003\\\266\234\336"
 227      78F4F301 
 227      88509D36 
 227      035CB69C 
 227      DE
 228 033e 16823CA6 		.ascii	"\026\202<\246+L\217\354\231\217\362\203F\235\372\325"
 228      2B4C8FEC 
 228      998FF283 
 228      469DFAD5 
 229 034e 407573D9 		.ascii	"@us\331XT\272\302\365\001\007\336_#\241\034G\301\376"
 229      5854BAC2 
 229      F50107DE 
 229      5F23A11C 
 229      47C1FE
 230 0361 A81A2C62 		.ascii	"\250\032,b\003\233\261\202MV\002V\347\355\331C+\330"
 230      039BB182 
 230      4D560256 
 230      E7EDD943 
 230      2BD8
 231 0373 83AAC1EC 		.ascii	"\203\252\301\354\236\375k\005\373\273\022\260\006o\317"
 231      9EFD6B05 
 231      FBBB12B0 
 231      066FCF
 232 0382 1E5BC11E 		.ascii	"\036[\301\036U\015f\367,7j\001\353\366W\000\026\366"
 232      550D66F7 
 232      2C376A01 
 232      EBF65700 
 232      16F6
 233 0394 F66CB715 		.ascii	"\366l\267\025\254\247j\260\210c\317y\235\202k\346)\320"
 233      ACA76AB0 
 233      8863CF79 
 233      9D826BE6 
 233      29D0
 234 03a6 AB9E760A 		.ascii	"\253\236v\012\334-\364+\366\314\255\261p\037B\370Ir"
 234      DC2DF42B 
 234      F6CCADB1 
 234      701F42F8 
 234      4972
 235 03b8 47AD7DC7 		.ascii	"G\255}\307\375\366\002[9\322w?\016\207\317\251H\277"
 235      FDF6025B 
 235      39D2773F 
 235      0E87CFA9 
 235      48BF
 236 03ca A94837FD 		.ascii	"\251H7\375\316\273\2726`\015C\375\246\012\004\2566`"
 236      CEBBBA36 
 236      600D43FD 
ARM GAS  /tmp/ccXIQxh3.s 			page 18


 236      A60A04AE 
 236      3660
 237 03dc 76C83F22 		.ascii	"v\310?\"\263A\265\352f\331\327j\262\356m\230z\353\323"
 237      B341B5EA 
 237      66D9D76A 
 237      B2EE6D98 
 237      7AEBD3
 238 03ef 91EE555D 		.ascii	"\221\356U]\217\357{\324cZ\261t\346\374\353\016\352\006"
 238      8FEF7BD4 
 238      635AB174 
 238      E6FCEB0E 
 238      EA06
 239 0401 BB220727 		.ascii	"\273\"\007'\253\246\376\323\203\232\326r\343*\370}\302"
 239      ABA6FED3 
 239      839AD672 
 239      E32AF87D 
 239      C2
 240 0412 7615389E 		.ascii	"v\0258\236hw\2407\305\003\227\233\366\256\277\202\222"
 240      6877A037 
 240      C503979B 
 240      F6AEBF82 
 240      92
 241 0423 DE8DFA8F 		.ascii	"\336\215\372\217\243\200\006N\346\247<\236L:\372\264"
 241      A380064E 
 241      E6A73C9E 
 241      4C3AFAB4 
 242 0433 EB853275 		.ascii	"\353\2052u\343<.\236\335\205R\351\"Z\350\257\374e\371"
 242      E33C2E9E 
 242      DD8552E9 
 242      225AE8AF 
 242      FC65F9
 243 0446 8FFD65A9 		.ascii	"\217\375e\251y\341x\361=xb\024\332\373\017\235\273\034"
 243      79E178F1 
 243      3D786214 
 243      DAFB0F9D 
 243      BB1C
 244 0458 CA417A00 		.ascii	"\312Az\000\036\253\0263\236o?-Tz\243Mu\265\206\215\033"
 244      1EAB1633 
 244      9E6F3F2D 
 244      547AA34D 
 244      75B5868D 
 245 046d 6DC679A3 		.ascii	"m\306y\243=\262\307\033\001\007\360A)\\\271\201\"\021"
 245      3DB2C71B 
 245      0107F041 
 245      295CB981 
 245      2211
 246 047f F7A7B7E3 		.ascii	"\367\247\267\343\316\033x\302\235\327\305\004\355\270"
 246      CE1B78C2 
 246      9DD7C504 
 246      EDB8
 247 048d 08ED68F0 		.ascii	"\010\355h\360x\2056E\343\351\244\020\025:\204hs\\l\027"
 247      78853645 
 247      E3E9A410 
 247      153A8468 
 247      735C6C17 
 248 04a1 D7B645D3 		.ascii	"\327\266E\323rTR\242\231\264\244\310\3217\326\2654\267"
 248      725452A2 
ARM GAS  /tmp/ccXIQxh3.s 			page 19


 248      99B4A4C8 
 248      D137D6B5 
 248      34B7
 249 04b3 7446F938 		.ascii	"tF\3718\237\226\004\366\235W\223\213\343 @\246\330D"
 249      9F9604F6 
 249      9D57938B 
 249      E32040A6 
 249      D844
 250 04c5 9ADF58F3 		.ascii	"\232\337X\363\326\232\365\221f\020T\007\262)2\324hL"
 250      D69AF591 
 250      66105407 
 250      B22932D4 
 250      684C
 251 04d7 B21D523A 		.ascii	"\262\035R:\311\212\262\364\254e\332\030\254\232\227"
 251      C98AB2F4 
 251      AC65DA18 
 251      AC9A97
 252 04e6 07C1352D 		.ascii	"\007\3015-\253\331U\\*\226\020\244\305U\230c\227\353"
 252      ABD9555C 
 252      2A9610A4 
 252      C5559863 
 252      97EB
 253 04f8 24610327 		.ascii	"$a\003'%Y\245\221U\235\021\245M\254\220\021\023\351"
 253      2559A591 
 253      559D11A5 
 253      4DAC9011 
 253      13E9
 254 050a 0D598149 		.ascii	"\015Y\201IHs\265Qy\263\250\360q\303\305g\264Q\241ST"
 254      4873B551 
 254      79B3A8F0 
 254      71C3C567 
 254      B451A153 
 255 051f 8CB197BC 		.ascii	"\214\261\227\274x\305\024\237\310\306\004L)\363\361"
 255      78C5149F 
 255      C8C6044C 
 255      29F3F1
 256 052e 18A67C8A 		.ascii	"\030\246|\212}3\235N\314\347\343m||\265\334*\011B2\243"
 256      7D339D4E 
 256      CCE7E36D 
 256      7C7CB5DC 
 256      2A094232 
 257 0543 88E9D43A 		.ascii	"\210\351\324:aSV\224\204\230\237\217s\3222W8\241S\211"
 257      61535694 
 257      84989F8F 
 257      73D23257 
 257      38A15389 
 258 0557 36B7B4AD 		.ascii	"6\267\264\255n3QI\026\370\344\312l\212\307\320\263X"
 258      6E335149 
 258      16F8E4CA 
 258      6C8AC7D0 
 258      B358
 259 0569 3626CA5C 		.ascii	"6&\312\\{B \201\314\342\022\233\271-2+\246\022bJ\010"
 259      7B422081 
 259      CCE2129B 
 259      B92D322B 
 259      A612624A 
 260 057e B1AC90A2 		.ascii	"\261\254\220\242SA=\000\205W:\031\351\025FZ\302HM\214"
ARM GAS  /tmp/ccXIQxh3.s 			page 20


 260      53413D00 
 260      85573A19 
 260      E915465A 
 260      C2484D8C 
 261 0592 B4D4272D 		.ascii	"\264\324'-i\252IH\254\022\2171\031\336\337\231\221\245"
 261      69AA4948 
 261      AC128F31 
 261      19DEDF99 
 261      91A5
 262 05a4 E7A25959 		.ascii	"\347\242YY2\370R\302\346\204\330\036\225\225\230\230"
 262      32F852C2 
 262      E684D81E 
 262      95959898 
 263 05b4 5248FEB2 		.ascii	"RH\376\262\370wi\023\253\274\354\246\226\344\3708\246"
 263      F8776913 
 263      ABBCECA6 
 263      96E4F838 
 263      A6
 264 05c5 8EB231A1 		.ascii	"\216\2621\241\203\313&\024V\331\222\021dl\3664\313R"
 264      83CB2614 
 264      56D99211 
 264      646CF634 
 264      CB52
 265 05d7 C300CB6E 		.ascii	"\303\000\313n\020\024\266\265\255\025\367d\255W\257"
 265      1014B6B5 
 265      AD15F764 
 265      AD57AF
 266 05e6 A4336B3B 		.ascii	"\2443k;Z\2454\337\246p\374\306\377\000@q\271\274"
 266      5AA534DF 
 266      A670FCC6 
 266      FF004071 
 266      B9BC
 267              		.text
 268              		.section	.gnu.lto_.symtab.f7f69e3b7e01b2d2,"",%progbits
 269 0000 4E4D495F 		.ascii	"NMI_Handler\000\000\000\000\000\000\000\000\000\000"
 269      48616E64 
 269      6C657200 
 269      00000000 
 269      00000000 
 270 0015 0000AF00 		.ascii	"\000\000\257\000\000\000_port_irq_epilogue\000\000\000"
 270      00005F70 
 270      6F72745F 
 270      6972715F 
 270      6570696C 
 271 0030 00000000 		.ascii	"\000\000\000\000\000\000\000\000\000\262\000\000\000"
 271      00000000 
 271      00B20000 
 271      00
 272 003d 5F706F72 		.ascii	"_port_switch_from_isr\000\000\002\000\000\000\000\000"
 272      745F7377 
 272      69746368 
 272      5F66726F 
 272      6D5F6973 
 273 005a 00000000 		.ascii	"\000\000\000\000\274\000\000\000_port_exit_from_isr"
 273      BC000000 
 273      5F706F72 
 273      745F6578 
ARM GAS  /tmp/ccXIQxh3.s 			page 21


 273      69745F66 
 274 0075 00000200 		.ascii	"\000\000\002\000\000\000\000\000\000\000\000\000\276"
 274      00000000 
 274      00000000 
 274      BE
 275 0082 00000063 		.ascii	"\000\000\000chSchIsPreemptionRequired\000\000\002\000"
 275      68536368 
 275      49735072 
 275      65656D70 
 275      74696F6E 
 276 00a2 00000000 		.ascii	"\000\000\000\000\000\000\000\000\300\000\000\000"
 276      00000000 
 276      C0000000 
 277              		.text
 278              		.section	.gnu.lto_.opts,"",%progbits
 279 0000 272D6D63 		.ascii	"'-mcpu=cortex-m0' '-mno-thumb-interwork' '-mthumb' "
 279      70753D63 
 279      6F727465 
 279      782D6D30 
 279      2720272D 
 280 0033 272D6767 		.ascii	"'-ggdb' '-O0' '-fomit-frame-pointer' '-falign-funct"
 280      64622720 
 280      272D4F30 
 280      2720272D 
 280      666F6D69 
 281 0066 696F6E73 		.ascii	"ions=16' '-ffunction-sections' '-fdata-sections' '-"
 281      3D313627 
 281      20272D66 
 281      66756E63 
 281      74696F6E 
 282 0099 666E6F2D 		.ascii	"fno-common' '-flto'\000"
 282      636F6D6D 
 282      6F6E2720 
 282      272D666C 
 282      746F2700 
 283              		.text
 284              		.cfi_sections	.debug_frame
 285              		.section	.text.port_lock,"ax",%progbits
 286              		.align	2
 287              		.p2align 4,,15
 288              		.code	16
 289              		.thumb_func
 290              		.type	port_lock, %function
 291              	port_lock:
 292              	.LFB38:
 293              		.file 1 "/home/efe/ChibiOS/os/rt/ports/ARMCMx/chcore_v6m.h"
 294              		.loc 1 330 0
 295              		.cfi_startproc
 296              	.LBB15:
 297              	.LBB16:
 298              		.file 2 "/home/efe/ChibiOS/os/ext/CMSIS/include/core_cmFunc.h"
 299              		.loc 2 344 0
 300              	@ 344 "/home/efe/ChibiOS/os/ext/CMSIS/include/core_cmFunc.h" 1
 301 0000 72B6     		cpsid i
 302              	@ 0 "" 2
 303              		.code	16
 304              	.LBE16:
ARM GAS  /tmp/ccXIQxh3.s 			page 22


 305              	.LBE15:
 306              		.loc 1 333 0
 307              		@ sp needed
 308 0002 7047     		bx	lr
 309              		.cfi_endproc
 310              	.LFE38:
 311              		.size	port_lock, .-port_lock
 312 0004 C046C046 		.section	.text.port_unlock,"ax",%progbits
 312      C046C046 
 312      C046C046 
 313              		.align	2
 314              		.p2align 4,,15
 315              		.code	16
 316              		.thumb_func
 317              		.type	port_unlock, %function
 318              	port_unlock:
 319              	.LFB39:
 320              		.loc 1 339 0
 321              		.cfi_startproc
 322              	.LBB17:
 323              	.LBB18:
 324              		.loc 2 333 0
 325              	@ 333 "/home/efe/ChibiOS/os/ext/CMSIS/include/core_cmFunc.h" 1
 326 0000 62B6     		cpsie i
 327              	@ 0 "" 2
 328              		.code	16
 329              	.LBE18:
 330              	.LBE17:
 331              		.loc 1 342 0
 332              		@ sp needed
 333 0002 7047     		bx	lr
 334              		.cfi_endproc
 335              	.LFE39:
 336              		.size	port_unlock, .-port_unlock
 337 0004 C046C046 		.section	.text.port_lock_from_isr,"ax",%progbits
 337      C046C046 
 337      C046C046 
 338              		.align	2
 339              		.p2align 4,,15
 340              		.code	16
 341              		.thumb_func
 342              		.type	port_lock_from_isr, %function
 343              	port_lock_from_isr:
 344              	.LFB40:
 345              		.loc 1 349 0
 346              		.cfi_startproc
 347 0000 08B5     		push	{r3, lr}
 348              		.cfi_def_cfa_offset 8
 349              		.cfi_offset 3, -8
 350              		.cfi_offset 14, -4
 351              		.loc 1 351 0
 352 0002 FFF7FEFF 		bl	port_lock
 353              		.loc 1 352 0
 354              		@ sp needed
 355 0006 08BD     		pop	{r3, pc}
 356              		.cfi_endproc
 357              	.LFE40:
ARM GAS  /tmp/ccXIQxh3.s 			page 23


 358              		.size	port_lock_from_isr, .-port_lock_from_isr
 359 0008 C046C046 		.section	.text.port_unlock_from_isr,"ax",%progbits
 359      C046C046 
 360              		.align	2
 361              		.p2align 4,,15
 362              		.code	16
 363              		.thumb_func
 364              		.type	port_unlock_from_isr, %function
 365              	port_unlock_from_isr:
 366              	.LFB41:
 367              		.loc 1 359 0
 368              		.cfi_startproc
 369 0000 08B5     		push	{r3, lr}
 370              		.cfi_def_cfa_offset 8
 371              		.cfi_offset 3, -8
 372              		.cfi_offset 14, -4
 373              		.loc 1 361 0
 374 0002 FFF7FEFF 		bl	port_unlock
 375              		.loc 1 362 0
 376              		@ sp needed
 377 0006 08BD     		pop	{r3, pc}
 378              		.cfi_endproc
 379              	.LFE41:
 380              		.size	port_unlock_from_isr, .-port_unlock_from_isr
 381 0008 C046C046 		.section	.text.NMI_Handler,"ax",%progbits
 381      C046C046 
 382              		.align	2
 383              		.p2align 4,,15
 384              		.global	NMI_Handler
 385              		.code	16
 386              		.thumb_func
 387              		.type	NMI_Handler, %function
 388              	NMI_Handler:
 389              	.LFB119:
 390              		.file 3 "/home/efe/ChibiOS/os/rt/ports/ARMCMx/chcore_v6m.c"
 391              		.loc 3 61 0
 392              		.cfi_startproc
 393 0000 10B5     		push	{r4, lr}
 394              		.cfi_def_cfa_offset 8
 395              		.cfi_offset 4, -8
 396              		.cfi_offset 14, -4
 397 0002 82B0     		sub	sp, sp, #8
 398              		.cfi_def_cfa_offset 16
 399              	.LBB19:
 400              	.LBB20:
 401              		.loc 2 430 0
 402              	@ 430 "/home/efe/ChibiOS/os/ext/CMSIS/include/core_cmFunc.h" 1
 403 0004 EFF30983 		MRS r3, psp
 404              	
 405              	@ 0 "" 2
 406              		.code	16
 407 0008 1C1C     		mov	r4, r3
 408              		.loc 2 431 0
 409 000a 231C     		mov	r3, r4
 410              	.LBE20:
 411              	.LBE19:
 412              		.loc 3 65 0
ARM GAS  /tmp/ccXIQxh3.s 			page 24


 413 000c 0193     		str	r3, [sp, #4]
 414              		.loc 3 69 0
 415 000e 019B     		ldr	r3, [sp, #4]
 416 0010 2033     		add	r3, r3, #32
 417 0012 0193     		str	r3, [sp, #4]
 418              		.loc 3 72 0
 419 0014 019B     		ldr	r3, [sp, #4]
 420 0016 0093     		str	r3, [sp]
 421              	.LBB21:
 422              	.LBB22:
 423              		.loc 2 443 0
 424 0018 009B     		ldr	r3, [sp]
 425              	@ 443 "/home/efe/ChibiOS/os/ext/CMSIS/include/core_cmFunc.h" 1
 426 001a 83F30988 		MSR psp, r3
 427              	
 428              	@ 0 "" 2
 429              		.code	16
 430              	.LBE22:
 431              	.LBE21:
 432              		.loc 3 75 0
 433 001e FFF7FEFF 		bl	port_unlock_from_isr
 434              		.loc 3 76 0
 435 0022 02B0     		add	sp, sp, #8
 436              		@ sp needed
 437 0024 10BD     		pop	{r4, pc}
 438              		.cfi_endproc
 439              	.LFE119:
 440              		.size	NMI_Handler, .-NMI_Handler
 441 0026 C046C046 		.section	.text._port_irq_epilogue,"ax",%progbits
 441      C046C046 
 441      C046
 442              		.align	2
 443              		.p2align 4,,15
 444              		.global	_port_irq_epilogue
 445              		.code	16
 446              		.thumb_func
 447              		.type	_port_irq_epilogue, %function
 448              	_port_irq_epilogue:
 449              	.LFB120:
 450              		.loc 3 110 0
 451              		.cfi_startproc
 452 0000 10B5     		push	{r4, lr}
 453              		.cfi_def_cfa_offset 8
 454              		.cfi_offset 4, -8
 455              		.cfi_offset 14, -4
 456 0002 84B0     		sub	sp, sp, #16
 457              		.cfi_def_cfa_offset 24
 458 0004 0190     		str	r0, [sp, #4]
 459              		.loc 3 112 0
 460 0006 019B     		ldr	r3, [sp, #4]
 461 0008 1A1C     		mov	r2, r3
 462 000a 0F32     		add	r2, r2, #15
 463 000c 1ED0     		beq	.L7
 464              	.LBB23:
 465              		.loc 3 115 0
 466 000e FFF7FEFF 		bl	port_lock_from_isr
 467              	.LBB24:
ARM GAS  /tmp/ccXIQxh3.s 			page 25


 468              	.LBB25:
 469              		.loc 2 430 0
 470              	@ 430 "/home/efe/ChibiOS/os/ext/CMSIS/include/core_cmFunc.h" 1
 471 0012 EFF30983 		MRS r3, psp
 472              	
 473              	@ 0 "" 2
 474              		.code	16
 475 0016 1C1C     		mov	r4, r3
 476              		.loc 2 431 0
 477 0018 231C     		mov	r3, r4
 478              	.LBE25:
 479              	.LBE24:
 480              		.loc 3 118 0
 481 001a 0393     		str	r3, [sp, #12]
 482              		.loc 3 122 0
 483 001c 039B     		ldr	r3, [sp, #12]
 484 001e 203B     		sub	r3, r3, #32
 485 0020 0393     		str	r3, [sp, #12]
 486              		.loc 3 125 0
 487 0022 039B     		ldr	r3, [sp, #12]
 488 0024 0293     		str	r3, [sp, #8]
 489              	.LBB26:
 490              	.LBB27:
 491              		.loc 2 443 0
 492 0026 029B     		ldr	r3, [sp, #8]
 493              	@ 443 "/home/efe/ChibiOS/os/ext/CMSIS/include/core_cmFunc.h" 1
 494 0028 83F30988 		MSR psp, r3
 495              	
 496              	@ 0 "" 2
 497              		.code	16
 498              	.LBE27:
 499              	.LBE26:
 500              		.loc 3 128 0
 501 002c 039B     		ldr	r3, [sp, #12]
 502 002e 8022     		mov	r2, #128
 503 0030 5204     		lsl	r2, r2, #17
 504 0032 DA61     		str	r2, [r3, #28]
 505              		.loc 3 132 0
 506 0034 FFF7FEFF 		bl	chSchIsPreemptionRequired
 507 0038 031C     		mov	r3, r0
 508 003a 002B     		cmp	r3, #0
 509 003c 03D0     		beq	.L10
 510              		.loc 3 134 0
 511 003e 039B     		ldr	r3, [sp, #12]
 512 0040 034A     		ldr	r2, .L11
 513 0042 9A61     		str	r2, [r3, #24]
 514 0044 02E0     		b	.L7
 515              	.L10:
 516              		.loc 3 139 0
 517 0046 039B     		ldr	r3, [sp, #12]
 518 0048 024A     		ldr	r2, .L11+4
 519 004a 9A61     		str	r2, [r3, #24]
 520              	.L7:
 521              	.LBE23:
 522              		.loc 3 145 0
 523 004c 04B0     		add	sp, sp, #16
 524              		@ sp needed
ARM GAS  /tmp/ccXIQxh3.s 			page 26


 525 004e 10BD     		pop	{r4, pc}
 526              	.L12:
 527              		.align	2
 528              	.L11:
 529 0050 00000000 		.word	_port_switch_from_isr
 530 0054 00000000 		.word	_port_exit_from_isr
 531              		.cfi_endproc
 532              	.LFE120:
 533              		.size	_port_irq_epilogue, .-_port_irq_epilogue
 534 0058 C046C046 		.text
 534      C046C046 
 535              	.Letext0:
 536              		.file 4 "/usr/include/newlib/machine/_default_types.h"
 537              		.file 5 "/usr/include/newlib/stdint.h"
 538              		.file 6 "/home/efe/ChibiOS/os/rt/ports/ARMCMx/compilers/GCC/chtypes.h"
 539              		.file 7 "/home/efe/ChibiOS/os/rt/include/chsystypes.h"
 540              		.file 8 "/home/efe/ChibiOS/os/rt/include/chschd.h"
 541              		.file 9 "/home/efe/ChibiOS/os/rt/ports/ARMCMx/chcore.h"
 542              		.file 10 "/home/efe/ChibiOS/os/rt/include/chsem.h"
 543              		.file 11 "/home/efe/ChibiOS/os/rt/include/chmtx.h"