ARM GAS  /tmp/ccqvO4gW.s 			page 1


   1              		.syntax unified
   2              		.cpu cortex-m4
   3              		.fpu softvfp
   4              		.eabi_attribute 20, 1
   5              		.eabi_attribute 21, 1
   6              		.eabi_attribute 23, 3
   7              		.eabi_attribute 24, 1
   8              		.eabi_attribute 25, 1
   9              		.eabi_attribute 26, 1
  10              		.eabi_attribute 30, 6
  11              		.eabi_attribute 34, 1
  12              		.eabi_attribute 18, 4
  13              		.thumb
  14              		.file	"chdynamic.c"
  15              		.text
  16              	.Ltext0:
  17              		.cfi_sections	.debug_frame
  18              		.section	.text.port_lock,"ax",%progbits
  19              		.align	2
  20              		.p2align 4,,15
  21              		.thumb
  22              		.thumb_func
  23              		.type	port_lock, %function
  24              	port_lock:
  25              	.LFB127:
  26              		.file 1 "/home/efe/ChibiOS/os/rt/ports/ARMCMx/chcore_v7m.h"
  27              		.loc 1 456 0
  28              		.cfi_startproc
  29              		@ args = 0, pretend = 0, frame = 8
  30              		@ frame_needed = 0, uses_anonymous_args = 0
  31              		@ link register save eliminated.
  32 0000 82B0     		sub	sp, sp, #8
  33              		.cfi_def_cfa_offset 8
  34 0002 2023     		movs	r3, #32
  35 0004 0193     		str	r3, [sp, #4]
  36              	.LBB6:
  37              	.LBB7:
  38              		.file 2 "/home/efe/ChibiOS/os/ext/CMSIS/include/core_cmFunc.h"
  39              		.loc 2 548 0
  40 0006 019B     		ldr	r3, [sp, #4]
  41              	@ 548 "/home/efe/ChibiOS/os/ext/CMSIS/include/core_cmFunc.h" 1
  42 0008 83F31188 		MSR basepri, r3
  43              	@ 0 "" 2
  44              		.thumb
  45              	.LBE7:
  46              	.LBE6:
  47              		.loc 1 463 0
  48 000c 02B0     		add	sp, sp, #8
  49              		@ sp needed
  50 000e 7047     		bx	lr
  51              		.cfi_endproc
  52              	.LFE127:
  53              		.size	port_lock, .-port_lock
  54              		.section	.text.port_unlock,"ax",%progbits
  55              		.align	2
  56              		.p2align 4,,15
  57              		.thumb
ARM GAS  /tmp/ccqvO4gW.s 			page 2


  58              		.thumb_func
  59              		.type	port_unlock, %function
  60              	port_unlock:
  61              	.LFB128:
  62              		.loc 1 470 0
  63              		.cfi_startproc
  64              		@ args = 0, pretend = 0, frame = 8
  65              		@ frame_needed = 0, uses_anonymous_args = 0
  66              		@ link register save eliminated.
  67 0000 82B0     		sub	sp, sp, #8
  68              		.cfi_def_cfa_offset 8
  69 0002 0023     		movs	r3, #0
  70 0004 0193     		str	r3, [sp, #4]
  71              	.LBB8:
  72              	.LBB9:
  73              		.loc 2 548 0
  74 0006 019B     		ldr	r3, [sp, #4]
  75              	@ 548 "/home/efe/ChibiOS/os/ext/CMSIS/include/core_cmFunc.h" 1
  76 0008 83F31188 		MSR basepri, r3
  77              	@ 0 "" 2
  78              		.thumb
  79              	.LBE9:
  80              	.LBE8:
  81              		.loc 1 477 0
  82 000c 02B0     		add	sp, sp, #8
  83              		@ sp needed
  84 000e 7047     		bx	lr
  85              		.cfi_endproc
  86              	.LFE128:
  87              		.size	port_unlock, .-port_unlock
  88              		.section	.text.chSysLock,"ax",%progbits
  89              		.align	2
  90              		.p2align 4,,15
  91              		.thumb
  92              		.thumb_func
  93              		.type	chSysLock, %function
  94              	chSysLock:
  95              	.LFB167:
  96              		.file 3 "/home/efe/ChibiOS/os/rt/include/chsys.h"
  97              		.loc 3 346 0
  98              		.cfi_startproc
  99              		@ args = 0, pretend = 0, frame = 0
 100              		@ frame_needed = 0, uses_anonymous_args = 0
 101 0000 08B5     		push	{r3, lr}
 102              		.cfi_def_cfa_offset 8
 103              		.cfi_offset 3, -8
 104              		.cfi_offset 14, -4
 105              		.loc 3 348 0
 106 0002 FFF7FEFF 		bl	port_lock
 107              		.loc 3 351 0
 108 0006 08BD     		pop	{r3, pc}
 109              		.cfi_endproc
 110              	.LFE167:
 111              		.size	chSysLock, .-chSysLock
 112 0008 AFF30080 		.section	.text.chSysUnlock,"ax",%progbits
 112      AFF30080 
 113              		.align	2
ARM GAS  /tmp/ccqvO4gW.s 			page 3


 114              		.p2align 4,,15
 115              		.thumb
 116              		.thumb_func
 117              		.type	chSysUnlock, %function
 118              	chSysUnlock:
 119              	.LFB168:
 120              		.loc 3 358 0
 121              		.cfi_startproc
 122              		@ args = 0, pretend = 0, frame = 0
 123              		@ frame_needed = 0, uses_anonymous_args = 0
 124 0000 08B5     		push	{r3, lr}
 125              		.cfi_def_cfa_offset 8
 126              		.cfi_offset 3, -8
 127              		.cfi_offset 14, -4
 128              		.loc 3 371 0
 129 0002 FFF7FEFF 		bl	port_unlock
 130              		.loc 3 372 0
 131 0006 08BD     		pop	{r3, pc}
 132              		.cfi_endproc
 133              	.LFE168:
 134              		.size	chSysUnlock, .-chSysUnlock
 135 0008 AFF30080 		.section	.text.chThdAddRef,"ax",%progbits
 135      AFF30080 
 136              		.align	2
 137              		.p2align 4,,15
 138              		.global	chThdAddRef
 139              		.thumb
 140              		.thumb_func
 141              		.type	chThdAddRef, %function
 142              	chThdAddRef:
 143              	.LFB240:
 144              		.file 4 "/home/efe/ChibiOS/os/rt/src/chdynamic.c"
 145              		.loc 4 68 0
 146              		.cfi_startproc
 147              		@ args = 0, pretend = 0, frame = 8
 148              		@ frame_needed = 0, uses_anonymous_args = 0
 149 0000 00B5     		push	{lr}
 150              		.cfi_def_cfa_offset 4
 151              		.cfi_offset 14, -4
 152 0002 83B0     		sub	sp, sp, #12
 153              		.cfi_def_cfa_offset 16
 154 0004 0190     		str	r0, [sp, #4]
 155              		.loc 4 70 0
 156 0006 FFF7FEFF 		bl	chSysLock
 157              		.loc 4 72 0
 158 000a 019B     		ldr	r3, [sp, #4]
 159 000c 9B7F     		ldrb	r3, [r3, #30]	@ zero_extendqisi2
 160 000e 0133     		adds	r3, r3, #1
 161 0010 DAB2     		uxtb	r2, r3
 162 0012 019B     		ldr	r3, [sp, #4]
 163 0014 9A77     		strb	r2, [r3, #30]
 164              		.loc 4 73 0
 165 0016 FFF7FEFF 		bl	chSysUnlock
 166              		.loc 4 75 0
 167 001a 019B     		ldr	r3, [sp, #4]
 168              		.loc 4 76 0
 169 001c 1846     		mov	r0, r3
ARM GAS  /tmp/ccqvO4gW.s 			page 4


 170 001e 03B0     		add	sp, sp, #12
 171              		@ sp needed
 172 0020 5DF804FB 		ldr	pc, [sp], #4
 173              		.cfi_endproc
 174              	.LFE240:
 175              		.size	chThdAddRef, .-chThdAddRef
 176 0024 AFF30080 		.section	.text.chThdRelease,"ax",%progbits
 176      AFF30080 
 176      AFF30080 
 177              		.align	2
 178              		.p2align 4,,15
 179              		.global	chThdRelease
 180              		.thumb
 181              		.thumb_func
 182              		.type	chThdRelease, %function
 183              	chThdRelease:
 184              	.LFB241:
 185              		.loc 4 91 0
 186              		.cfi_startproc
 187              		@ args = 0, pretend = 0, frame = 16
 188              		@ frame_needed = 0, uses_anonymous_args = 0
 189 0000 00B5     		push	{lr}
 190              		.cfi_def_cfa_offset 4
 191              		.cfi_offset 14, -4
 192 0002 85B0     		sub	sp, sp, #20
 193              		.cfi_def_cfa_offset 24
 194 0004 0190     		str	r0, [sp, #4]
 195              		.loc 4 94 0
 196 0006 FFF7FEFF 		bl	chSysLock
 197              		.loc 4 96 0
 198 000a 019B     		ldr	r3, [sp, #4]
 199 000c 9B7F     		ldrb	r3, [r3, #30]	@ zero_extendqisi2
 200 000e 013B     		subs	r3, r3, #1
 201 0010 DAB2     		uxtb	r2, r3
 202 0012 019B     		ldr	r3, [sp, #4]
 203 0014 9A77     		strb	r2, [r3, #30]
 204              		.loc 4 97 0
 205 0016 019B     		ldr	r3, [sp, #4]
 206 0018 9B7F     		ldrb	r3, [r3, #30]
 207 001a 8DF80F30 		strb	r3, [sp, #15]
 208              		.loc 4 98 0
 209 001e FFF7FEFF 		bl	chSysUnlock
 210              		.loc 4 103 0
 211 0022 9DF80F30 		ldrb	r3, [sp, #15]	@ zero_extendqisi2
 212 0026 002B     		cmp	r3, #0
 213 0028 2BD1     		bne	.L7
 214              		.loc 4 103 0 is_stmt 0 discriminator 1
 215 002a 019B     		ldr	r3, [sp, #4]
 216 002c 1B7F     		ldrb	r3, [r3, #28]	@ zero_extendqisi2
 217 002e 0F2B     		cmp	r3, #15
 218 0030 27D1     		bne	.L7
 219              		.loc 4 104 0 is_stmt 1
 220 0032 019B     		ldr	r3, [sp, #4]
 221 0034 5B7F     		ldrb	r3, [r3, #29]	@ zero_extendqisi2
 222 0036 03F00303 		and	r3, r3, #3
 223 003a 012B     		cmp	r3, #1
 224 003c 02D0     		beq	.L10
ARM GAS  /tmp/ccqvO4gW.s 			page 5


 225 003e 022B     		cmp	r3, #2
 226 0040 0ED0     		beq	.L11
 227              		.loc 4 124 0
 228 0042 1EE0     		b	.L7
 229              	.L10:
 230              		.loc 4 108 0
 231 0044 019B     		ldr	r3, [sp, #4]
 232 0046 5B69     		ldr	r3, [r3, #20]
 233 0048 019A     		ldr	r2, [sp, #4]
 234 004a 1269     		ldr	r2, [r2, #16]
 235 004c 1A61     		str	r2, [r3, #16]
 236 004e 019B     		ldr	r3, [sp, #4]
 237 0050 1B69     		ldr	r3, [r3, #16]
 238 0052 019A     		ldr	r2, [sp, #4]
 239 0054 5269     		ldr	r2, [r2, #20]
 240 0056 5A61     		str	r2, [r3, #20]
 241              		.loc 4 110 0
 242 0058 0198     		ldr	r0, [sp, #4]
 243 005a FFF7FEFF 		bl	chHeapFree
 244              		.loc 4 111 0
 245 005e 10E0     		b	.L7
 246              	.L11:
 247              		.loc 4 116 0
 248 0060 019B     		ldr	r3, [sp, #4]
 249 0062 5B69     		ldr	r3, [r3, #20]
 250 0064 019A     		ldr	r2, [sp, #4]
 251 0066 1269     		ldr	r2, [r2, #16]
 252 0068 1A61     		str	r2, [r3, #16]
 253 006a 019B     		ldr	r3, [sp, #4]
 254 006c 1B69     		ldr	r3, [r3, #16]
 255 006e 019A     		ldr	r2, [sp, #4]
 256 0070 5269     		ldr	r2, [r2, #20]
 257 0072 5A61     		str	r2, [r3, #20]
 258              		.loc 4 118 0
 259 0074 019B     		ldr	r3, [sp, #4]
 260 0076 1B6C     		ldr	r3, [r3, #64]
 261 0078 1846     		mov	r0, r3
 262 007a 0199     		ldr	r1, [sp, #4]
 263 007c FFF7FEFF 		bl	chPoolFree
 264              		.loc 4 119 0
 265 0080 00BF     		nop
 266              	.L7:
 267              		.loc 4 127 0
 268 0082 05B0     		add	sp, sp, #20
 269              		@ sp needed
 270 0084 5DF804FB 		ldr	pc, [sp], #4
 271              		.cfi_endproc
 272              	.LFE241:
 273              		.size	chThdRelease, .-chThdRelease
 274 0088 AFF30080 		.section	.text.chThdCreateFromHeap,"ax",%progbits
 274      AFF30080 
 275              		.align	2
 276              		.p2align 4,,15
 277              		.global	chThdCreateFromHeap
 278              		.thumb
 279              		.thumb_func
 280              		.type	chThdCreateFromHeap, %function
ARM GAS  /tmp/ccqvO4gW.s 			page 6


 281              	chThdCreateFromHeap:
 282              	.LFB242:
 283              		.loc 4 153 0
 284              		.cfi_startproc
 285              		@ args = 4, pretend = 0, frame = 24
 286              		@ frame_needed = 0, uses_anonymous_args = 0
 287 0000 00B5     		push	{lr}
 288              		.cfi_def_cfa_offset 4
 289              		.cfi_offset 14, -4
 290 0002 89B0     		sub	sp, sp, #36
 291              		.cfi_def_cfa_offset 40
 292 0004 0590     		str	r0, [sp, #20]
 293 0006 0491     		str	r1, [sp, #16]
 294 0008 0392     		str	r2, [sp, #12]
 295 000a 0293     		str	r3, [sp, #8]
 296              		.loc 4 157 0
 297 000c 0598     		ldr	r0, [sp, #20]
 298 000e 0499     		ldr	r1, [sp, #16]
 299 0010 FFF7FEFF 		bl	chHeapAlloc
 300 0014 0790     		str	r0, [sp, #28]
 301              		.loc 4 158 0
 302 0016 079B     		ldr	r3, [sp, #28]
 303 0018 002B     		cmp	r3, #0
 304 001a 01D1     		bne	.L13
 305              		.loc 4 159 0
 306 001c 0023     		movs	r3, #0
 307 001e 14E0     		b	.L14
 308              	.L13:
 309              		.loc 4 171 0
 310 0020 FFF7FEFF 		bl	chSysLock
 311              		.loc 4 172 0
 312 0024 0A9B     		ldr	r3, [sp, #40]
 313 0026 0093     		str	r3, [sp]
 314 0028 0798     		ldr	r0, [sp, #28]
 315 002a 0499     		ldr	r1, [sp, #16]
 316 002c 039A     		ldr	r2, [sp, #12]
 317 002e 029B     		ldr	r3, [sp, #8]
 318 0030 FFF7FEFF 		bl	chThdCreateI
 319 0034 0690     		str	r0, [sp, #24]
 320              		.loc 4 173 0
 321 0036 069B     		ldr	r3, [sp, #24]
 322 0038 0122     		movs	r2, #1
 323 003a 5A77     		strb	r2, [r3, #29]
 324              		.loc 4 174 0
 325 003c 0698     		ldr	r0, [sp, #24]
 326 003e 0021     		movs	r1, #0
 327 0040 FFF7FEFF 		bl	chSchWakeupS
 328              		.loc 4 175 0
 329 0044 FFF7FEFF 		bl	chSysUnlock
 330              		.loc 4 177 0
 331 0048 069B     		ldr	r3, [sp, #24]
 332              	.L14:
 333              		.loc 4 178 0
 334 004a 1846     		mov	r0, r3
 335 004c 09B0     		add	sp, sp, #36
 336              		@ sp needed
 337 004e 5DF804FB 		ldr	pc, [sp], #4
ARM GAS  /tmp/ccqvO4gW.s 			page 7


 338              		.cfi_endproc
 339              	.LFE242:
 340              		.size	chThdCreateFromHeap, .-chThdCreateFromHeap
 341 0052 00BFAFF3 		.section	.text.chThdCreateFromMemoryPool,"ax",%progbits
 341      0080AFF3 
 341      0080AFF3 
 341      0080
 342              		.align	2
 343              		.p2align 4,,15
 344              		.global	chThdCreateFromMemoryPool
 345              		.thumb
 346              		.thumb_func
 347              		.type	chThdCreateFromMemoryPool, %function
 348              	chThdCreateFromMemoryPool:
 349              	.LFB243:
 350              		.loc 4 205 0
 351              		.cfi_startproc
 352              		@ args = 0, pretend = 0, frame = 24
 353              		@ frame_needed = 0, uses_anonymous_args = 0
 354 0000 00B5     		push	{lr}
 355              		.cfi_def_cfa_offset 4
 356              		.cfi_offset 14, -4
 357 0002 89B0     		sub	sp, sp, #36
 358              		.cfi_def_cfa_offset 40
 359 0004 0590     		str	r0, [sp, #20]
 360 0006 0491     		str	r1, [sp, #16]
 361 0008 0392     		str	r2, [sp, #12]
 362 000a 0293     		str	r3, [sp, #8]
 363              		.loc 4 211 0
 364 000c 0598     		ldr	r0, [sp, #20]
 365 000e FFF7FEFF 		bl	chPoolAlloc
 366 0012 0790     		str	r0, [sp, #28]
 367              		.loc 4 212 0
 368 0014 079B     		ldr	r3, [sp, #28]
 369 0016 002B     		cmp	r3, #0
 370 0018 01D1     		bne	.L16
 371              		.loc 4 213 0
 372 001a 0023     		movs	r3, #0
 373 001c 19E0     		b	.L17
 374              	.L16:
 375              		.loc 4 225 0
 376 001e FFF7FEFF 		bl	chSysLock
 377              		.loc 4 226 0
 378 0022 059B     		ldr	r3, [sp, #20]
 379 0024 5B68     		ldr	r3, [r3, #4]
 380 0026 029A     		ldr	r2, [sp, #8]
 381 0028 0092     		str	r2, [sp]
 382 002a 0798     		ldr	r0, [sp, #28]
 383 002c 1946     		mov	r1, r3
 384 002e 049A     		ldr	r2, [sp, #16]
 385 0030 039B     		ldr	r3, [sp, #12]
 386 0032 FFF7FEFF 		bl	chThdCreateI
 387 0036 0690     		str	r0, [sp, #24]
 388              		.loc 4 227 0
 389 0038 069B     		ldr	r3, [sp, #24]
 390 003a 0222     		movs	r2, #2
 391 003c 5A77     		strb	r2, [r3, #29]
ARM GAS  /tmp/ccqvO4gW.s 			page 8


 392              		.loc 4 228 0
 393 003e 069B     		ldr	r3, [sp, #24]
 394 0040 059A     		ldr	r2, [sp, #20]
 395 0042 1A64     		str	r2, [r3, #64]
 396              		.loc 4 229 0
 397 0044 0698     		ldr	r0, [sp, #24]
 398 0046 0021     		movs	r1, #0
 399 0048 FFF7FEFF 		bl	chSchWakeupS
 400              		.loc 4 230 0
 401 004c FFF7FEFF 		bl	chSysUnlock
 402              		.loc 4 232 0
 403 0050 069B     		ldr	r3, [sp, #24]
 404              	.L17:
 405              		.loc 4 233 0
 406 0052 1846     		mov	r0, r3
 407 0054 09B0     		add	sp, sp, #36
 408              		@ sp needed
 409 0056 5DF804FB 		ldr	pc, [sp], #4
 410              		.cfi_endproc
 411              	.LFE243:
 412              		.size	chThdCreateFromMemoryPool, .-chThdCreateFromMemoryPool
 413 005a 00BFAFF3 		.text
 413      0080
 414              	.Letext0:
 415              		.file 5 "/usr/lib/gcc/arm-none-eabi/4.8/include/stddef.h"
 416              		.file 6 "/usr/include/newlib/machine/_default_types.h"
 417              		.file 7 "/usr/include/newlib/stdint.h"
 418              		.file 8 "/home/efe/ChibiOS/os/rt/ports/ARMCMx/compilers/GCC/chtypes.h"
 419              		.file 9 "/home/efe/ChibiOS/os/rt/include/chsystypes.h"
 420              		.file 10 "/home/efe/ChibiOS/os/rt/include/chschd.h"
 421              		.file 11 "/home/efe/ChibiOS/os/rt/ports/ARMCMx/chcore.h"
 422              		.file 12 "/home/efe/ChibiOS/os/rt/include/chtm.h"
 423              		.file 13 "/home/efe/ChibiOS/os/rt/include/chsem.h"
 424              		.file 14 "/home/efe/ChibiOS/os/rt/include/chmtx.h"
 425              		.file 15 "/home/efe/ChibiOS/os/rt/include/chthreads.h"
 426              		.file 16 "/home/efe/ChibiOS/os/rt/include/chmemcore.h"
 427              		.file 17 "/home/efe/ChibiOS/os/rt/include/chheap.h"
 428              		.file 18 "/home/efe/ChibiOS/os/rt/include/chmempools.h"
 429              		.file 19 "/home/efe/ChibiOS/os/ext/CMSIS/include/core_cm4.h"