ARM GAS  /tmp/cc1s04CF.s 			page 1


   1              		.syntax unified
   2              		.cpu cortex-m4
   3              		.fpu softvfp
   4              		.eabi_attribute 20, 1
   5              		.eabi_attribute 21, 1
   6              		.eabi_attribute 23, 3
   7              		.eabi_attribute 24, 1
   8              		.eabi_attribute 25, 1
   9              		.eabi_attribute 26, 1
  10              		.eabi_attribute 30, 6
  11              		.eabi_attribute 34, 1
  12              		.eabi_attribute 18, 4
  13              		.thumb
  14              		.file	"chheap.c"
  15              		.text
  16              	.Ltext0:
  17              		.cfi_sections	.debug_frame
  18              		.section	.bss.default_heap,"aw",%nobits
  19              		.align	3
  20              		.type	default_heap, %object
  21              		.size	default_heap, 32
  22              	default_heap:
  23 0000 00000000 		.space	32
  23      00000000 
  23      00000000 
  23      00000000 
  23      00000000 
  24              		.section	.text._heap_init,"ax",%progbits
  25              		.align	2
  26              		.p2align 4,,15
  27              		.global	_heap_init
  28              		.thumb
  29              		.thumb_func
  30              		.type	_heap_init, %function
  31              	_heap_init:
  32              	.LFB240:
  33              		.file 1 "/home/efe/ChibiOS/os/rt/src/chheap.c"
  34              		.loc 1 91 0
  35              		.cfi_startproc
  36              		@ args = 0, pretend = 0, frame = 0
  37              		@ frame_needed = 0, uses_anonymous_args = 0
  38 0000 08B5     		push	{r3, lr}
  39              		.cfi_def_cfa_offset 8
  40              		.cfi_offset 3, -8
  41              		.cfi_offset 14, -4
  42              		.loc 1 93 0
  43 0002 064B     		ldr	r3, .L2
  44 0004 064A     		ldr	r2, .L2+4
  45 0006 1A60     		str	r2, [r3]
  46              		.loc 1 94 0
  47 0008 044B     		ldr	r3, .L2
  48 000a 0022     		movs	r2, #0
  49 000c 9A60     		str	r2, [r3, #8]
  50              		.loc 1 95 0
  51 000e 034B     		ldr	r3, .L2
  52 0010 0022     		movs	r2, #0
  53 0012 DA60     		str	r2, [r3, #12]
ARM GAS  /tmp/cc1s04CF.s 			page 2


  54              		.loc 1 97 0
  55 0014 0348     		ldr	r0, .L2+8
  56 0016 FFF7FEFF 		bl	chMtxObjectInit
  57              		.loc 1 101 0
  58 001a 08BD     		pop	{r3, pc}
  59              	.L3:
  60              		.align	2
  61              	.L2:
  62 001c 00000000 		.word	default_heap
  63 0020 00000000 		.word	chCoreAlloc
  64 0024 10000000 		.word	default_heap+16
  65              		.cfi_endproc
  66              	.LFE240:
  67              		.size	_heap_init, .-_heap_init
  68 0028 AFF30080 		.section	.text.chHeapObjectInit,"ax",%progbits
  68      AFF30080 
  69              		.align	2
  70              		.p2align 4,,15
  71              		.global	chHeapObjectInit
  72              		.thumb
  73              		.thumb_func
  74              		.type	chHeapObjectInit, %function
  75              	chHeapObjectInit:
  76              	.LFB241:
  77              		.loc 1 114 0
  78              		.cfi_startproc
  79              		@ args = 0, pretend = 0, frame = 24
  80              		@ frame_needed = 0, uses_anonymous_args = 0
  81 0000 00B5     		push	{lr}
  82              		.cfi_def_cfa_offset 4
  83              		.cfi_offset 14, -4
  84 0002 87B0     		sub	sp, sp, #28
  85              		.cfi_def_cfa_offset 32
  86 0004 0390     		str	r0, [sp, #12]
  87 0006 0291     		str	r1, [sp, #8]
  88 0008 0192     		str	r2, [sp, #4]
  89              		.loc 1 115 0
  90 000a 029B     		ldr	r3, [sp, #8]
  91 000c 0593     		str	r3, [sp, #20]
  92              		.loc 1 119 0
  93 000e 039B     		ldr	r3, [sp, #12]
  94 0010 0022     		movs	r2, #0
  95 0012 1A60     		str	r2, [r3]
  96              		.loc 1 120 0
  97 0014 039B     		ldr	r3, [sp, #12]
  98 0016 059A     		ldr	r2, [sp, #20]
  99 0018 9A60     		str	r2, [r3, #8]
 100              		.loc 1 121 0
 101 001a 039B     		ldr	r3, [sp, #12]
 102 001c 0022     		movs	r2, #0
 103 001e DA60     		str	r2, [r3, #12]
 104              		.loc 1 122 0
 105 0020 059B     		ldr	r3, [sp, #20]
 106 0022 0022     		movs	r2, #0
 107 0024 1A60     		str	r2, [r3]
 108              		.loc 1 123 0
 109 0026 019B     		ldr	r3, [sp, #4]
ARM GAS  /tmp/cc1s04CF.s 			page 3


 110 0028 A3F10802 		sub	r2, r3, #8
 111 002c 059B     		ldr	r3, [sp, #20]
 112 002e 5A60     		str	r2, [r3, #4]
 113              		.loc 1 125 0
 114 0030 039B     		ldr	r3, [sp, #12]
 115 0032 1033     		adds	r3, r3, #16
 116 0034 1846     		mov	r0, r3
 117 0036 FFF7FEFF 		bl	chMtxObjectInit
 118              		.loc 1 129 0
 119 003a 07B0     		add	sp, sp, #28
 120              		@ sp needed
 121 003c 5DF804FB 		ldr	pc, [sp], #4
 122              		.cfi_endproc
 123              	.LFE241:
 124              		.size	chHeapObjectInit, .-chHeapObjectInit
 125              		.section	.text.chHeapAlloc,"ax",%progbits
 126              		.align	2
 127              		.p2align 4,,15
 128              		.global	chHeapAlloc
 129              		.thumb
 130              		.thumb_func
 131              		.type	chHeapAlloc, %function
 132              	chHeapAlloc:
 133              	.LFB242:
 134              		.loc 1 147 0
 135              		.cfi_startproc
 136              		@ args = 0, pretend = 0, frame = 24
 137              		@ frame_needed = 0, uses_anonymous_args = 0
 138 0000 00B5     		push	{lr}
 139              		.cfi_def_cfa_offset 4
 140              		.cfi_offset 14, -4
 141 0002 87B0     		sub	sp, sp, #28
 142              		.cfi_def_cfa_offset 32
 143 0004 0190     		str	r0, [sp, #4]
 144 0006 0091     		str	r1, [sp]
 145              		.loc 1 150 0
 146 0008 019B     		ldr	r3, [sp, #4]
 147 000a 002B     		cmp	r3, #0
 148 000c 01D1     		bne	.L6
 149              		.loc 1 151 0
 150 000e 374B     		ldr	r3, .L14
 151 0010 0193     		str	r3, [sp, #4]
 152              	.L6:
 153              		.loc 1 154 0
 154 0012 009B     		ldr	r3, [sp]
 155 0014 0733     		adds	r3, r3, #7
 156 0016 23F00703 		bic	r3, r3, #7
 157 001a 0093     		str	r3, [sp]
 158              		.loc 1 155 0
 159 001c 019B     		ldr	r3, [sp, #4]
 160 001e 0833     		adds	r3, r3, #8
 161 0020 0593     		str	r3, [sp, #20]
 162              		.loc 1 157 0
 163 0022 019B     		ldr	r3, [sp, #4]
 164 0024 1033     		adds	r3, r3, #16
 165 0026 1846     		mov	r0, r3
 166 0028 FFF7FEFF 		bl	chMtxLock
ARM GAS  /tmp/cc1s04CF.s 			page 4


 167              		.loc 1 158 0
 168 002c 36E0     		b	.L7
 169              	.L12:
 170              		.loc 1 159 0
 171 002e 059B     		ldr	r3, [sp, #20]
 172 0030 1B68     		ldr	r3, [r3]
 173 0032 0493     		str	r3, [sp, #16]
 174              		.loc 1 160 0
 175 0034 049B     		ldr	r3, [sp, #16]
 176 0036 5A68     		ldr	r2, [r3, #4]
 177 0038 009B     		ldr	r3, [sp]
 178 003a 9A42     		cmp	r2, r3
 179 003c 2CD3     		bcc	.L8
 180              		.loc 1 161 0
 181 003e 049B     		ldr	r3, [sp, #16]
 182 0040 5A68     		ldr	r2, [r3, #4]
 183 0042 009B     		ldr	r3, [sp]
 184 0044 0833     		adds	r3, r3, #8
 185 0046 9A42     		cmp	r2, r3
 186 0048 04D2     		bcs	.L9
 187              		.loc 1 165 0
 188 004a 049B     		ldr	r3, [sp, #16]
 189 004c 1A68     		ldr	r2, [r3]
 190 004e 059B     		ldr	r3, [sp, #20]
 191 0050 1A60     		str	r2, [r3]
 192 0052 16E0     		b	.L10
 193              	.L9:
 194              		.loc 1 170 0
 195 0054 009B     		ldr	r3, [sp]
 196 0056 0833     		adds	r3, r3, #8
 197 0058 049A     		ldr	r2, [sp, #16]
 198 005a 1344     		add	r3, r3, r2
 199 005c 0393     		str	r3, [sp, #12]
 200              		.loc 1 172 0
 201 005e 049B     		ldr	r3, [sp, #16]
 202 0060 1A68     		ldr	r2, [r3]
 203 0062 039B     		ldr	r3, [sp, #12]
 204 0064 1A60     		str	r2, [r3]
 205              		.loc 1 173 0
 206 0066 049B     		ldr	r3, [sp, #16]
 207 0068 5A68     		ldr	r2, [r3, #4]
 208 006a 009B     		ldr	r3, [sp]
 209 006c D31A     		subs	r3, r2, r3
 210 006e A3F10802 		sub	r2, r3, #8
 211 0072 039B     		ldr	r3, [sp, #12]
 212 0074 5A60     		str	r2, [r3, #4]
 213              		.loc 1 174 0
 214 0076 059B     		ldr	r3, [sp, #20]
 215 0078 039A     		ldr	r2, [sp, #12]
 216 007a 1A60     		str	r2, [r3]
 217              		.loc 1 175 0
 218 007c 049B     		ldr	r3, [sp, #16]
 219 007e 009A     		ldr	r2, [sp]
 220 0080 5A60     		str	r2, [r3, #4]
 221              	.L10:
 222              		.loc 1 177 0
 223 0082 049B     		ldr	r3, [sp, #16]
ARM GAS  /tmp/cc1s04CF.s 			page 5


 224 0084 019A     		ldr	r2, [sp, #4]
 225 0086 1A60     		str	r2, [r3]
 226              		.loc 1 178 0
 227 0088 019B     		ldr	r3, [sp, #4]
 228 008a 1033     		adds	r3, r3, #16
 229 008c 1846     		mov	r0, r3
 230 008e FFF7FEFF 		bl	chMtxUnlock
 231              		.loc 1 181 0
 232 0092 049B     		ldr	r3, [sp, #16]
 233 0094 0833     		adds	r3, r3, #8
 234 0096 24E0     		b	.L11
 235              	.L8:
 236              		.loc 1 184 0
 237 0098 049B     		ldr	r3, [sp, #16]
 238 009a 0593     		str	r3, [sp, #20]
 239              	.L7:
 240              		.loc 1 158 0 discriminator 1
 241 009c 059B     		ldr	r3, [sp, #20]
 242 009e 1B68     		ldr	r3, [r3]
 243 00a0 002B     		cmp	r3, #0
 244 00a2 C4D1     		bne	.L12
 245              		.loc 1 186 0
 246 00a4 019B     		ldr	r3, [sp, #4]
 247 00a6 1033     		adds	r3, r3, #16
 248 00a8 1846     		mov	r0, r3
 249 00aa FFF7FEFF 		bl	chMtxUnlock
 250              		.loc 1 190 0
 251 00ae 019B     		ldr	r3, [sp, #4]
 252 00b0 1B68     		ldr	r3, [r3]
 253 00b2 002B     		cmp	r3, #0
 254 00b4 14D0     		beq	.L13
 255              		.loc 1 191 0
 256 00b6 019B     		ldr	r3, [sp, #4]
 257 00b8 1B68     		ldr	r3, [r3]
 258 00ba 009A     		ldr	r2, [sp]
 259 00bc 0832     		adds	r2, r2, #8
 260 00be 1046     		mov	r0, r2
 261 00c0 9847     		blx	r3
 262 00c2 0490     		str	r0, [sp, #16]
 263              		.loc 1 192 0
 264 00c4 049B     		ldr	r3, [sp, #16]
 265 00c6 002B     		cmp	r3, #0
 266 00c8 0AD0     		beq	.L13
 267              		.loc 1 193 0
 268 00ca 049B     		ldr	r3, [sp, #16]
 269 00cc 019A     		ldr	r2, [sp, #4]
 270 00ce 1A60     		str	r2, [r3]
 271              		.loc 1 194 0
 272 00d0 049B     		ldr	r3, [sp, #16]
 273 00d2 009A     		ldr	r2, [sp]
 274 00d4 5A60     		str	r2, [r3, #4]
 275              		.loc 1 195 0
 276 00d6 049B     		ldr	r3, [sp, #16]
 277 00d8 0833     		adds	r3, r3, #8
 278 00da 0493     		str	r3, [sp, #16]
 279              		.loc 1 198 0
 280 00dc 049B     		ldr	r3, [sp, #16]
ARM GAS  /tmp/cc1s04CF.s 			page 6


 281 00de 00E0     		b	.L11
 282              	.L13:
 283              		.loc 1 203 0
 284 00e0 0023     		movs	r3, #0
 285              	.L11:
 286              		.loc 1 204 0
 287 00e2 1846     		mov	r0, r3
 288 00e4 07B0     		add	sp, sp, #28
 289              		@ sp needed
 290 00e6 5DF804FB 		ldr	pc, [sp], #4
 291              	.L15:
 292 00ea 00BF     		.align	2
 293              	.L14:
 294 00ec 00000000 		.word	default_heap
 295              		.cfi_endproc
 296              	.LFE242:
 297              		.size	chHeapAlloc, .-chHeapAlloc
 298              		.section	.text.chHeapFree,"ax",%progbits
 299              		.align	2
 300              		.p2align 4,,15
 301              		.global	chHeapFree
 302              		.thumb
 303              		.thumb_func
 304              		.type	chHeapFree, %function
 305              	chHeapFree:
 306              	.LFB243:
 307              		.loc 1 213 0
 308              		.cfi_startproc
 309              		@ args = 0, pretend = 0, frame = 24
 310              		@ frame_needed = 0, uses_anonymous_args = 0
 311 0000 00B5     		push	{lr}
 312              		.cfi_def_cfa_offset 4
 313              		.cfi_offset 14, -4
 314 0002 87B0     		sub	sp, sp, #28
 315              		.cfi_def_cfa_offset 32
 316 0004 0190     		str	r0, [sp, #4]
 317              		.loc 1 220 0
 318 0006 019B     		ldr	r3, [sp, #4]
 319 0008 083B     		subs	r3, r3, #8
 320 000a 0493     		str	r3, [sp, #16]
 321              		.loc 1 222 0
 322 000c 049B     		ldr	r3, [sp, #16]
 323 000e 1B68     		ldr	r3, [r3]
 324 0010 0393     		str	r3, [sp, #12]
 325              		.loc 1 223 0
 326 0012 039B     		ldr	r3, [sp, #12]
 327 0014 0833     		adds	r3, r3, #8
 328 0016 0593     		str	r3, [sp, #20]
 329              		.loc 1 225 0
 330 0018 039B     		ldr	r3, [sp, #12]
 331 001a 1033     		adds	r3, r3, #16
 332 001c 1846     		mov	r0, r3
 333 001e FFF7FEFF 		bl	chMtxLock
 334              	.L23:
 335              		.loc 1 229 0
 336 0022 039B     		ldr	r3, [sp, #12]
 337 0024 03F10802 		add	r2, r3, #8
ARM GAS  /tmp/cc1s04CF.s 			page 7


 338 0028 059B     		ldr	r3, [sp, #20]
 339 002a 9A42     		cmp	r2, r3
 340 002c 03D0     		beq	.L17
 341              		.loc 1 229 0 is_stmt 0 discriminator 2
 342 002e 049A     		ldr	r2, [sp, #16]
 343 0030 059B     		ldr	r3, [sp, #20]
 344 0032 9A42     		cmp	r2, r3
 345 0034 3ED9     		bls	.L18
 346              	.L17:
 347              		.loc 1 230 0 is_stmt 1 discriminator 1
 348 0036 059B     		ldr	r3, [sp, #20]
 349 0038 1B68     		ldr	r3, [r3]
 350              		.loc 1 229 0 discriminator 1
 351 003a 002B     		cmp	r3, #0
 352 003c 04D0     		beq	.L19
 353              		.loc 1 230 0
 354 003e 059B     		ldr	r3, [sp, #20]
 355 0040 1A68     		ldr	r2, [r3]
 356 0042 049B     		ldr	r3, [sp, #16]
 357 0044 9A42     		cmp	r2, r3
 358 0046 35D9     		bls	.L18
 359              	.L19:
 360              		.loc 1 232 0
 361 0048 059B     		ldr	r3, [sp, #20]
 362 004a 1A68     		ldr	r2, [r3]
 363 004c 049B     		ldr	r3, [sp, #16]
 364 004e 1A60     		str	r2, [r3]
 365              		.loc 1 233 0
 366 0050 059B     		ldr	r3, [sp, #20]
 367 0052 049A     		ldr	r2, [sp, #16]
 368 0054 1A60     		str	r2, [r3]
 369              		.loc 1 235 0
 370 0056 049B     		ldr	r3, [sp, #16]
 371 0058 5B68     		ldr	r3, [r3, #4]
 372 005a 0833     		adds	r3, r3, #8
 373 005c 049A     		ldr	r2, [sp, #16]
 374 005e 1A44     		add	r2, r2, r3
 375 0060 049B     		ldr	r3, [sp, #16]
 376 0062 1B68     		ldr	r3, [r3]
 377 0064 9A42     		cmp	r2, r3
 378 0066 0ED1     		bne	.L20
 379              		.loc 1 237 0
 380 0068 049B     		ldr	r3, [sp, #16]
 381 006a 5A68     		ldr	r2, [r3, #4]
 382 006c 049B     		ldr	r3, [sp, #16]
 383 006e 1B68     		ldr	r3, [r3]
 384 0070 5B68     		ldr	r3, [r3, #4]
 385 0072 1344     		add	r3, r3, r2
 386 0074 03F10802 		add	r2, r3, #8
 387 0078 049B     		ldr	r3, [sp, #16]
 388 007a 5A60     		str	r2, [r3, #4]
 389              		.loc 1 238 0
 390 007c 049B     		ldr	r3, [sp, #16]
 391 007e 1B68     		ldr	r3, [r3]
 392 0080 1A68     		ldr	r2, [r3]
 393 0082 049B     		ldr	r3, [sp, #16]
 394 0084 1A60     		str	r2, [r3]
ARM GAS  /tmp/cc1s04CF.s 			page 8


 395              	.L20:
 396              		.loc 1 240 0
 397 0086 059B     		ldr	r3, [sp, #20]
 398 0088 5B68     		ldr	r3, [r3, #4]
 399 008a 0833     		adds	r3, r3, #8
 400 008c 059A     		ldr	r2, [sp, #20]
 401 008e 1A44     		add	r2, r2, r3
 402 0090 049B     		ldr	r3, [sp, #16]
 403 0092 9A42     		cmp	r2, r3
 404 0094 0DD1     		bne	.L21
 405              		.loc 1 242 0
 406 0096 059B     		ldr	r3, [sp, #20]
 407 0098 5A68     		ldr	r2, [r3, #4]
 408 009a 049B     		ldr	r3, [sp, #16]
 409 009c 5B68     		ldr	r3, [r3, #4]
 410 009e 1344     		add	r3, r3, r2
 411 00a0 03F10802 		add	r2, r3, #8
 412 00a4 059B     		ldr	r3, [sp, #20]
 413 00a6 5A60     		str	r2, [r3, #4]
 414              		.loc 1 243 0
 415 00a8 049B     		ldr	r3, [sp, #16]
 416 00aa 1A68     		ldr	r2, [r3]
 417 00ac 059B     		ldr	r3, [sp, #20]
 418 00ae 1A60     		str	r2, [r3]
 419              		.loc 1 245 0
 420 00b0 04E0     		b	.L22
 421              	.L21:
 422 00b2 03E0     		b	.L22
 423              	.L18:
 424              		.loc 1 247 0
 425 00b4 059B     		ldr	r3, [sp, #20]
 426 00b6 1B68     		ldr	r3, [r3]
 427 00b8 0593     		str	r3, [sp, #20]
 428              		.loc 1 248 0
 429 00ba B2E7     		b	.L23
 430              	.L22:
 431              		.loc 1 249 0
 432 00bc 039B     		ldr	r3, [sp, #12]
 433 00be 1033     		adds	r3, r3, #16
 434 00c0 1846     		mov	r0, r3
 435 00c2 FFF7FEFF 		bl	chMtxUnlock
 436              		.loc 1 251 0
 437 00c6 00BF     		nop
 438              		.loc 1 252 0
 439 00c8 07B0     		add	sp, sp, #28
 440              		@ sp needed
 441 00ca 5DF804FB 		ldr	pc, [sp], #4
 442              		.cfi_endproc
 443              	.LFE243:
 444              		.size	chHeapFree, .-chHeapFree
 445 00ce 00BF     		.section	.text.chHeapStatus,"ax",%progbits
 446              		.align	2
 447              		.p2align 4,,15
 448              		.global	chHeapStatus
 449              		.thumb
 450              		.thumb_func
 451              		.type	chHeapStatus, %function
ARM GAS  /tmp/cc1s04CF.s 			page 9


 452              	chHeapStatus:
 453              	.LFB244:
 454              		.loc 1 267 0
 455              		.cfi_startproc
 456              		@ args = 0, pretend = 0, frame = 24
 457              		@ frame_needed = 0, uses_anonymous_args = 0
 458 0000 00B5     		push	{lr}
 459              		.cfi_def_cfa_offset 4
 460              		.cfi_offset 14, -4
 461 0002 87B0     		sub	sp, sp, #28
 462              		.cfi_def_cfa_offset 32
 463 0004 0190     		str	r0, [sp, #4]
 464 0006 0091     		str	r1, [sp]
 465              		.loc 1 271 0
 466 0008 019B     		ldr	r3, [sp, #4]
 467 000a 002B     		cmp	r3, #0
 468 000c 01D1     		bne	.L26
 469              		.loc 1 272 0
 470 000e 174B     		ldr	r3, .L31
 471 0010 0193     		str	r3, [sp, #4]
 472              	.L26:
 473              		.loc 1 275 0
 474 0012 019B     		ldr	r3, [sp, #4]
 475 0014 1033     		adds	r3, r3, #16
 476 0016 1846     		mov	r0, r3
 477 0018 FFF7FEFF 		bl	chMtxLock
 478              		.loc 1 276 0
 479 001c 0023     		movs	r3, #0
 480 001e 0393     		str	r3, [sp, #12]
 481              		.loc 1 277 0
 482 0020 0023     		movs	r3, #0
 483 0022 0493     		str	r3, [sp, #16]
 484              		.loc 1 278 0
 485 0024 019B     		ldr	r3, [sp, #4]
 486 0026 0833     		adds	r3, r3, #8
 487 0028 0593     		str	r3, [sp, #20]
 488              		.loc 1 279 0
 489 002a 0BE0     		b	.L27
 490              	.L28:
 491              		.loc 1 280 0
 492 002c 059B     		ldr	r3, [sp, #20]
 493 002e 1B68     		ldr	r3, [r3]
 494 0030 5B68     		ldr	r3, [r3, #4]
 495 0032 039A     		ldr	r2, [sp, #12]
 496 0034 1344     		add	r3, r3, r2
 497 0036 0393     		str	r3, [sp, #12]
 498              		.loc 1 281 0
 499 0038 049B     		ldr	r3, [sp, #16]
 500 003a 0133     		adds	r3, r3, #1
 501 003c 0493     		str	r3, [sp, #16]
 502              		.loc 1 282 0
 503 003e 059B     		ldr	r3, [sp, #20]
 504 0040 1B68     		ldr	r3, [r3]
 505 0042 0593     		str	r3, [sp, #20]
 506              	.L27:
 507              		.loc 1 279 0 discriminator 1
 508 0044 059B     		ldr	r3, [sp, #20]
ARM GAS  /tmp/cc1s04CF.s 			page 10


 509 0046 1B68     		ldr	r3, [r3]
 510 0048 002B     		cmp	r3, #0
 511 004a EFD1     		bne	.L28
 512              		.loc 1 284 0
 513 004c 009B     		ldr	r3, [sp]
 514 004e 002B     		cmp	r3, #0
 515 0050 02D0     		beq	.L29
 516              		.loc 1 285 0
 517 0052 009B     		ldr	r3, [sp]
 518 0054 039A     		ldr	r2, [sp, #12]
 519 0056 1A60     		str	r2, [r3]
 520              	.L29:
 521              		.loc 1 287 0
 522 0058 019B     		ldr	r3, [sp, #4]
 523 005a 1033     		adds	r3, r3, #16
 524 005c 1846     		mov	r0, r3
 525 005e FFF7FEFF 		bl	chMtxUnlock
 526              		.loc 1 289 0
 527 0062 049B     		ldr	r3, [sp, #16]
 528              		.loc 1 290 0
 529 0064 1846     		mov	r0, r3
 530 0066 07B0     		add	sp, sp, #28
 531              		@ sp needed
 532 0068 5DF804FB 		ldr	pc, [sp], #4
 533              	.L32:
 534              		.align	2
 535              	.L31:
 536 006c 00000000 		.word	default_heap
 537              		.cfi_endproc
 538              	.LFE244:
 539              		.size	chHeapStatus, .-chHeapStatus
 540              		.text
 541              	.Letext0:
 542              		.file 2 "/usr/lib/gcc/arm-none-eabi/4.8/include/stddef.h"
 543              		.file 3 "/usr/include/newlib/machine/_default_types.h"
 544              		.file 4 "/usr/include/newlib/stdint.h"
 545              		.file 5 "/home/efe/ChibiOS/os/rt/ports/ARMCMx/compilers/GCC/chtypes.h"
 546              		.file 6 "/home/efe/ChibiOS/os/rt/include/chsystypes.h"
 547              		.file 7 "/home/efe/ChibiOS/os/rt/include/chschd.h"
 548              		.file 8 "/home/efe/ChibiOS/os/rt/ports/ARMCMx/chcore.h"
 549              		.file 9 "/home/efe/ChibiOS/os/rt/ports/ARMCMx/chcore_v7m.h"
 550              		.file 10 "/home/efe/ChibiOS/os/rt/include/chtm.h"
 551              		.file 11 "/home/efe/ChibiOS/os/rt/include/chsem.h"
 552              		.file 12 "/home/efe/ChibiOS/os/rt/include/chmtx.h"
 553              		.file 13 "/home/efe/ChibiOS/os/rt/include/chmemcore.h"
 554              		.file 14 "/home/efe/ChibiOS/os/rt/include/chheap.h"
 555              		.file 15 "/home/efe/ChibiOS/os/ext/CMSIS/include/core_cm4.h"