ARM GAS  /tmp/ccOkO5Hx.s 			page 1


   1              		.cpu cortex-m0
   2              		.fpu softvfp
   3              		.eabi_attribute 20, 1
   4              		.eabi_attribute 21, 1
   5              		.eabi_attribute 23, 3
   6              		.eabi_attribute 24, 1
   7              		.eabi_attribute 25, 1
   8              		.eabi_attribute 26, 1
   9              		.eabi_attribute 30, 6
  10              		.eabi_attribute 34, 0
  11              		.eabi_attribute 18, 4
  12              		.code	16
  13              		.file	"chheap.c"
  14              		.text
  15              	.Ltext0:
  16              		.section	.gnu.lto_.inline.d6c0548b9766465a,"",%progbits
  17 0000 789C6362 		.ascii	"x\234cb`b\300\006&CiV\006\006\016\001\006\006&\216\011"
  17      6062C006 
  17      26436956 
  17      06060E01 
  17      0606268E 
  18 0015 7E0C2C10 		.ascii	"~\014,\020\265L\334@\202\231\201[\030\310\344k\250E"
  18      B54CDC40 
  18      8299815B 
  18      18C8E46B 
  18      A845
  19 0027 11666130 		.ascii	"\021fa0\275\015b\007\\h`E\221@\020\254\202`c\215\016"
  19      BD0D6207 
  19      5C686045 
  19      914010AC 
  19      8260638D 
  20 003c 83042226 		.ascii	"\203\004\"&\354\307\242\216\215AD\025\310\224\331\360"
  20      ECC7A28E 
  20      8D414415 
  20      C894D9F0 
  21 004c 8A115392 		.ascii	"\212\021S\222\001\000T\035\012\317"
  21      0100541D 
  21      0ACF
  22              		.text
  23              		.section	.gnu.lto__heap_init.d6c0548b9766465a,"",%progbits
  24 0000 789C6362 		.ascii	"x\234cb`b@\007\"@\374\236\221\201A\035\304af`\004\252"
  24      60624007 
  24      2240FC9E 
  24      9181411D 
  24      C4616660 
  25 0016 60646204 		.ascii	"`db\004\012002\32431\326G2\202\225\255g:\360\340\377"
  25      0A303032 
  25      D43331D6 
  25      47328295 
  25      AD673AF0 
  26 002c FF75DF8E 		.ascii	"\377u\337\216M\277\3038\207\011$\306\312\320\322\320"
  26      4DBFC338 
  26      870924C6 
  26      CAD0D2D0 
  27 003c 30418181 		.ascii	"0A\201\201!\031\254\"\004L\206\202\3643\237eh\372\325"
  27      2119AC22 
  27      044C8682 
ARM GAS  /tmp/ccOkO5Hx.s 			page 2


  27      F4339F65 
  27      68FAD5
  28 004f FCBDD73A 		.ascii	"\374\275\327:\221q!#+\2036\303\252\006 \260\317dd\230"
  28      91712123 
  28      2B8336C3 
  28      AA0620B0 
  28      CF646498 
  29 0063 CD30ABB1 		.ascii	"\3150\253\261\241A \223\221\261\232\341WC\007\210\305"
  29      A1412093 
  29      91B19AE1 
  29      57430788 
  29      C5
  30 0074 940BD618 		.ascii	"\224\013\326\030\301\230\311\010q\\\022\304B\006\210"
  30      C198C908 
  30      715C12C4 
  30      420688
  31 0083 8A86EA4C 		.ascii	"\212\206\352LF\346dF\210\030\320\334\0357\336\037`A"
  31      46E66446 
  31      8818D0DC 
  31      1D37DE1F 
  31      6041
  32 0095 31B73493 		.ascii	"1\2674\223\221\005\312,\314dd\2052c3\031\331\020\026"
  32      9105CA2C 
  32      CC646485 
  32      32633319 
  32      D91016
  33 00a8 B3136731 		.ascii	"\263\023g1#\224\206\361\231\2414\013\003L%\013\314\031"
  33      239486F1 
  33      99A1340B 
  33      034C250B 
  33      CC19
  34 00ba 3FDE7F60 		.ascii	"?\336\177`Fq\006\320n\016j\332\315\012\267\223\003\304"
  34      467106D0 
  34      6E0E6ADA 
  34      CD0AB793 
  34      03C4
  35 00cc 38CFD0F2 		.ascii	"8\317\320\362\340\344a.\210\225\260\300\001\232\304"
  35      E0E4612E 
  35      8895B0C0 
  35      019AC4
  36 00db 990CD501 		.ascii	"\231\014\325\001\022\341\310d\344\202Z<\021\250\221"
  36      12E1C864 
  36      E4825A3C 
  36      11A891
  37 00ea 1B684B12 		.ascii	"\033hK\022#\033X\032\2521\223\221\207\201\341\"C\343"
  37      231B581A 
  37      AA319391 
  37      8781E122 
  37      43E3
  38 00fc 83B3CA30 		.ascii	"\203\263\3120\243  \004\344\000\220I\252\372\031\371"
  38      A3202004 
  38      E4009049 
  38      AAFA19F9 
  39 010c B9A9FAA9 		.ascii	"\271\251\372\251i\251\372\316\031\231I\231\376\301\372"
  39      69A9FACE 
  39      19994999 
  39      FEC1FA
ARM GAS  /tmp/ccOkO5Hx.s 			page 3


  40 011b F9C5FA45 		.ascii	"\371\305\372E%\372\305E\311\372\311\031\031\251\211"
  40      25FAC545 
  40      C9FAC919 
  40      19A989
  41 012a 057AC90C 		.ascii	"\005z\311\014\000\023]\200\207"
  41      00135D80 
  41      87
  42              		.text
  43              		.section	.gnu.lto_chHeapObjectInit.d6c0548b9766465a,"",%progbits
  44 0000 789CB552 		.ascii	"x\234\265R\317K\033A\024~of'\251\246\277\256\342E\004"
  44      CF4B1B41 
  44      147E6F66 
  44      27A9A6BF 
  44      AEE24504 
  45 0014 415A9AD5 		.ascii	"AZ\232\325C\373\017\364\017(\242\202\036\223%\356\316"
  45      43FB0FF4 
  45      0F28A282 
  45      1E9325EE 
  45      CE
  46 0025 2128A6BD 		.ascii	"!(\246\275\324\203S#hKA\021j\245z\260\207R\225B\241"
  46      D4835323 
  46      684B4111 
  46      6AA57AB0 
  46      87529542 
  47 003a F4904B61 		.ascii	"\364\220Kao\245\024\321\236\332c\216\275\2657CR2}\263"
  47      6FA514D1 
  47      9EDA638E 
  47      BDB53743 
  47      52327DB3 
  48 004e 3B71BB22 		.ascii	";q\273\"m@\372`\347\275\231y\337\373\276\367f\03108"
  48      6D40FA60 
  48      E7BD9979 
  48      DFFBBEF7 
  48      66193038 
  49 0062 6BFDF4DD 		.ascii	"k\375\364\335q\000F\314\306\001\244\014d\310i\345\210"
  49      710046CC 
  49      C601A40C 
  49      64C869E5 
  49      88
  50 0073 7484B0C8 		.ascii	"t\204\260\3108.N\233\030\262\203\360R\251\215\372\253"
  50      382E4E9B 
  50      18B283F0 
  50      52A98DFA 
  50      AB
  51 0084 D656DF93 		.ascii	"\326V\337\223\335\245u\325\326\032%R\331a\004\017a\212"
  51      DDA575D5 
  51      D61A2552 
  51      D961040F 
  51      618A
  52 0096 36381039 		.ascii	"68\0209\346\244yb\244z\267\247zv\325/\255\2714\025\377"
  52      E6A47962 
  52      A47AB7A7 
  52      7A76D52F 
  52      ADB93415 
  53 00ab 17263CF9 		.ascii	"\027&<\371\270\231R\330%\254\265\362\354O\030\357\022"
  53      B89952D8 
  53      25ACB5F2 
ARM GAS  /tmp/ccOkO5Hx.s 			page 4


  53      EC4F18EF 
  53      12
  54 00bc F675E579 		.ascii	"\366u\345y\237J`\016\203\374\277\346QFx\313\302\272"
  54      9F4A600E 
  54      83FCBFE6 
  54      514678CB 
  54      C2BA
  55 00ce D66F3EBC 		.ascii	"\326o>\274\177\272\203{,\213XF\032\177\001_\343 p\332"
  55      7FBA837B 
  55      2C8B5846 
  55      1A7F015F 
  55      E32070DA 
  56 00e2 3087162E 		.ascii	"0\207\026.\200\344g \022\003\002\226\225Z\037\210s\312"
  56      80E46720 
  56      12030296 
  56      955A1F88 
  56      73CA
  57 00f4 B62DB289 		.ascii	"\266-\262\211h\2354\257\307\017a\351s\243\371\223\025"
  57      689D34AF 
  57      C70F61E9 
  57      73A3F993 
  57      15
  58 0105 701F05F8 		.ascii	"p\037\005\370\310\374\350!\243{\036\337\327\032\255"
  58      C8FCE821 
  58      A37B1EDF 
  58      D71AAD
  59 0114 EFF6FE26 		.ascii	"\357\366\376&\034(\262Q\211b\033^\220\320\214\217\334"
  59      1C28B251 
  59      89621B5E 
  59      90D08C8F 
  59      DC
  60 0125 08CE4690 		.ascii	"\010\316F\220\242\205\232\023a\002B\177\332j\037\363"
  60      A2859A13 
  60      6102427F 
  60      DA6A1FF3 
  61 0135 147A9A7A 		.ascii	"\024z\232z\266\341\244\304K6\034\223\330\223\224\357"
  61      B6E1A4C4 
  61      4B361C93 
  61      D89394EF 
  62 0145 3DBF3C5A 		.ascii	"=\277<Z\317\254\347\326\307\343\362\315\271\021\\k\207"
  62      CFACE7D6 
  62      C7E3F2CD 
  62      B9115C6B 
  62      87
  63 0156 694AE2C9 		.ascii	"iJ\342\311]\204G\234\266\225\263m\325\276\265\303\364"
  63      5D84479C 
  63      B695B36D 
  63      D5BEB5C3 
  63      F4
  64 0167 506E276D 		.ascii	"Pn'm\215&m\345\210.\346\350%y\246\202\363\327\036N3"
  64      8D266DE5 
  64      882EE6E8 
  64      2579A682 
  64      F3D71E4E 
  65 017c 0EA1BA5A 		.ascii	"\016\241\272Z\375\261v\253\3630\302G'\022\320\320Z_"
  65      FDB176AB 
  65      F330C247 
ARM GAS  /tmp/ccOkO5Hx.s 			page 5


  65      2712D0D0 
  65      5A5F
  66 018e B3B33DCE 		.ascii	"\263\263=\316\236}\227\\\327\274\302\316LD\245\232\325"
  66      9E7D975C 
  66      D7BCC2CE 
  66      4C44A59A 
  66      D5
  67 019f 93B51B1D 		.ascii	"\223\265\033\035\256\314\002<\244_\310\226\252H\274"
  67      AECC023C 
  67      A45FC896 
  67      AA48BC
  68 01ae 7CFE9832 		.ascii	"|\376\2302\311\037z\004\313\241\305\003,@S\255\252\353"
  68      C91F7A04 
  68      CBA1C503 
  68      2C4053AD 
  68      AAEB
  69 01c0 12AF7876 		.ascii	"\022\257xv\224TS\342U\200/\360\250\376x\250\223\027"
  69      945453E2 
  69      55802FF0 
  69      A8FE78A8 
  69      9317
  70 01d2 DB84C931 		.ascii	"\333\204\3111\252\206\334`\266\\rK3%\367n \213\362\336"
  70      AA86DC60 
  70      B65C724B 
  70      3325F76E 
  70      208BF2DE 
  71 01e6 B83B5B71 		.ascii	"\270;[q\347\357\273\225y\317\365\202\240T\230\313{ "
  71      E7EFBB95 
  71      79CFF582 
  71      A05498CB 
  71      7B20
  72 01f8 8A0F66F2 		.ascii	"\212\017f\362#,\230\373\015\316\273\373C"
  72      232C98FB 
  72      0DCEBBFB 
  72      43
  73              		.text
  74              		.section	.gnu.lto_chHeapAlloc.d6c0548b9766465a,"",%progbits
  75 0000 789CC556 		.ascii	"x\234\305V\335O\034U\024\277\367\316\354\367'P>\226"
  75      DD4F1C55 
  75      14BFF7CE 
  75      ECF72750 
  75      3E96
  76 0012 AF529226 		.ascii	"\257R\222&F\222\256Mc\014i\032\037\374\003\324T\222"
  76      4692AE4D 
  76      630C691A 
  76      1FFC03D4 
  76      5492
  77 0024 FA2650BA 		.ascii	"\372&P\272L\")\005}\221\007f\273< \333XZA*5\332\276"
  77      4C222905 
  77      7D910766 
  77      BB3C20DB 
  77      585A412A 
  78 003b 198D92D0 		.ascii	"\031\215\222\320\020\250%\262$m\002\2354\225\007\"\020"
  78      10A825B2 
  78      246D029D 
  78      34950722 
  78      10
ARM GAS  /tmp/ccOkO5Hx.s 			page 6


  79 004c 9B967ED8 		.ascii	"\233\226~\330\207\032\2651\246\024K\307s\356\334\231"
  79      871AB531 
  79      A6144BC7 
  79      73EEDC99 
  80 005c 9DC55586 		.ascii	"\235\305U\206\265\306I8s\271\347\234\3379\277s\317="
  80      B5C64938 
  80      73B9E79C 
  80      DF39BF73 
  80      CF3D
  81 006e B38C30B2 		.ascii	"\263\2140\262\371\031\205?5B\310\013\370O\021\241`A"
  81      F919853F 
  81      3542C80B 
  81      F84F11A1 
  81      6041
  82 0080 19936093 		.ascii	"\031\223`\223\311 d\211\302\213\3124\000\322\305\334"
  82      C9206489 
  82      C28BCA34 
  82      00D2C5DC 
  83 0090 B8EFC77D 		.ascii	"\270\357\307}7\363\340\332\213k\017\365\201\326\313"
  83      37F3E0DA 
  83      8B6B0FF5 
  83      81D6CB
  84 009f A58F4641 		.ascii	"\245\217FA\372\271}\200\271\320&\2106A\026\302u\004"
  84      FAB97D80 
  84      B9D02688 
  84      364116C2 
  84      7504
  85 00b1 D72116B6 		.ascii	"\327!\026\266\326an\037\3412J)$AI/\223d\227\333\343"
  85      D6616E1F 
  85      E1324A29 
  85      2441492F 
  85      936497DB 
  86 00c6 F5F903C1 		.ascii	"\365\371\003\301P8\022\245\275o\242\202\224\326\223"
  86      503812A5 
  86      BD6FA282 
  86      94D693
  87 00d5 F3AA7AFA 		.ascii	"\363\252z\372\326\225\257\027\350\307C\231\276s\352"
  87      D695AF17 
  87      E8C74399 
  87      BE73EA
  88 00e4 135DA754 		.ascii	"\023]\247TAe+%\207`E\353\370\013s\267?\206c\346\217"
  88      41652B25 
  88      876045EB 
  88      F80B73B7 
  88      3F8663E6 
  89 00f9 ABF3E7A9 		.ascii	"\253\363\347\251zZM\376\252\353\021\205J\016\335N\245"
  89      7A5A4DFE 
  89      AAEB1185 
  89      4A0EDD4E 
  89      A5
  90 010a 4FC606CE 		.ascii	"O\306\006\316\035\037T\237B8\347\321>L\017\025\340\246"
  90      1D1F549F 
  90      4238E7D1 
  90      3E4C0F15 
  90      E0A6
  91 011c 6EDC7D6D 		.ascii	"n\334}mN\355\313\350\372\313\316C\235\325>\263\207\222"
  91      4EEDCBE8 
ARM GAS  /tmp/ccOkO5Hx.s 			page 7


  91      FACBCE43 
  91      9DD53EB3 
  91      8792
  92 012e 1DBA4D68 		.ascii	"\035\272MhWr\013\311\034:^,,\336\245\364\247\205TD\277"
  92      57720BC9 
  92      1C3A5E2C 
  92      2CDEA5F4 
  92      A7855444 
  93 0143 B7ED8AA8 		.ascii	"\267\355\212\250\343\237\253>NKr^\305EM\333~{\214fV"
  93      E39FAB3E 
  93      4E4B725E 
  93      C5454DDB 
  93      7E7B8C66 
  94 0158 B413FEC1 		.ascii	"\264\023\376\301d\277\252\353\275\012u9\214\265qu\250"
  94      64BFAAEB 
  94      BD0A7539 
  94      8CB57175 
  94      A8
  95 0169 900AFEAE 		.ascii	"\220\012\376\256\025\324\301\033\351\017\354\321\334"
  95      15D4C11B 
  95      E90FECD1 
  95      DC
  96 0176 0EDD74ED 		.ascii	"\016\335t\355d\001n\352\243\002:xy`$\246\332\352\301"
  96      64016EEA 
  96      A3023A78 
  96      796024A6 
  96      DAEAC1
  97 0189 C873D461 		.ascii	"\310s\324a\264\303V0\360jp\350u\252\315\356\265g+\257"
  97      B4C35630 
  97      F06A70E8 
  97      75AACDEE 
  97      B5672BAF 
  98 019d 3196B9A5 		.ascii	"1\226\271\245\353\323\213Sw>\241%\365\224tP\230\245"
  98      EBD38B53 
  98      773EA125 
  98      F5947450 
  98      98A5
  99 01af CDF402AD 		.ascii	"\315\364\002\255'\022\201S\227)\354\270p\333\015+\352"
  99      27128153 
  99      9729ECB8 
  99      70DB0D2B 
  99      EA
 100 01c0 813DE285 		.ascii	"\201=\342\205\177a&\032V~\330\221\002 \344 \354L\300"
 100      7F61261A 
 100      567ED891 
 100      0220E420 
 100      EC4CC0
 101 01d3 4E086DC2 		.ascii	"N\010m\302(\"(\242\250+\002\301\212\301`\022\014Jpg"
 101      282228A2 
 101      A82B02C1 
 101      8AC16012 
 101      0C4A7067 
 102 01e7 07EA4A51 		.ascii	"\007\352JQ\224\241(G\230\012\214\030\023\300\225\270"
 102      94A12847 
 102      980A8C18 
 102      13C095B8 
 103 01f7 5305C25D 		.ascii	"S\005\302]\215\242\006\255jE\210\235\342]\207\016\273"
ARM GAS  /tmp/ccOkO5Hx.s 			page 8


 103      8DA206AD 
 103      6A45889D 
 103      E25D870E 
 103      BB
 104 0208 08EF4EC8 		.ascii	"\010\357N\310\262OU\007\353\014oCo\304\343'\005\317"
 104      B24F5507 
 104      EB0C6F43 
 104      6FC4E327 
 104      05CF
 105 021a 1B5C36E1 		.ascii	"\033\\6\3410\220\346\310\345\373\2637\006\244fz\021"
 105      3090E6C8 
 105      E5FBB337 
 105      06A4667A 
 105      11
 106 022b 9C1354C6 		.ascii	"\234\023T\306\342x\354\225i\302&\224\256\221\343\353"
 106      E278EC95 
 106      69C22694 
 106      AE91E3EB 
 107 023b A999E12A 		.ascii	"\251\231\341*\323\316\325C\326\325~U\335\017\326\035"
 107      D3CED543 
 107      D6D57E55 
 107      DD0FD61D 
 108 024b 94D9AC65 		.ascii	"\224\331\254en\235\352O=\030\2564\255=\011\352F`/\""
 108      6E9DEA4F 
 108      3D18AE34 
 108      AD3D09EA 
 108      46602F22 
 109 025f 83F252AA 		.ascii	"\203\362R\252\305TyA\313Uk:t<WC\244_\206\335\246\201"
 109      C5547941 
 109      CB556B3A 
 109      743C5743 
 109      A45F86DD 
 110 0275 0F23C1B3 		.ascii	"\017#\301\263\027\212\325@\276\300\345\001\205\372\316"
 110      178AD540 
 110      BEC0E501 
 110      85FACE
 111 0284 9251F0F2 		.ascii	"\222Q\360\362'(\315f\334Bmys\234G\303\0263\177\017y"
 111      2728CD66 
 111      DC426D79 
 111      739C47C3 
 111      16337F0F 
 112 0299 0F2AD940 		.ascii	"\017*\331@\236Wh \277\267\315\375:\221\015GB\014\246"
 112      9E576820 
 112      BFB7CDFD 
 112      3A910D47 
 112      420CA6
 113 02ac 5185065B 		.ascii	"Q\205\006[\205\005\200)4\204\253eB\241f\014\204Kz\262"
 113      85058029 
 113      3484AB65 
 113      42A1660C 
 113      844B7AB2 
 114 02c0 F836F277 		.ascii	"\3706\362w\031\325ZY\033\233\245f\354\240H\374`\226"
 114      19D55A59 
 114      1B9BA566 
 114      ECA048FC 
 114      6096
 115 02d2 03F46558 		.ascii	"\003\364eX,\033\025\0321\022\362%(;dL\013\236\020\023"
ARM GAS  /tmp/ccOkO5Hx.s 			page 9


 115      2C1B151A 
 115      3112F225 
 115      283B644C 
 115      0B9E1013 
 116 02e6 6F49BCE5 		.ascii	"oI\274\345,\267\2253\343\017-\374\020g\345\025x/\331"
 116      2CB79533 
 116      E30F2DFC 
 116      1067E515 
 116      782FD9
 117 02f9 F182F9F0 		.ascii	"\361\202\371\360\\\002g\216\364\335O\356\265P\3404\354"
 117      5C02678E 
 117      F4DD4FEE 
 117      B550E034 
 117      EC
 118 030a E7EE164C 		.ascii	"\347\356\026L\246\306g\231i\023\316\211\264\337q$\336"
 118      A6C66799 
 118      6913CE89 
 118      B4DF7124 
 118      DE
 119 031b 11EB56C2 		.ascii	"\021\353V\302\021\010\305O\335\313\263\270|/\371\242"
 119      1108C54F 
 119      DDCBB3B8 
 119      7C2FF9A2 
 120 032b 1501B4F6 		.ascii	"\025\001\264\366,<f\026\027\036[g\031\345Y\230\245\354"
 120      2C3C6616 
 120      171E5B67 
 120      19E55998 
 120      A5EC
 121 033d C996F2DD 		.ascii	"\311\226\362\335-\023\312S\312\371\357\002\006\260\000"
 121      2D13CA53 
 121      CAF9EF02 
 121      06B000
 122 034c 793DA7D3 		.ascii	"y=\247\323\302\371\252\352\340\224\022\370\223\307\240"
 122      C2F9AAEA 
 122      E09412F8 
 122      93C7A0
 123 035b E0B5AEC4 		.ascii	"\340\265\256\304Gi\213C\221(\001\376\304\302\362\244"
 123      47698B43 
 123      912801FE 
 123      C4C2F2A4 
 124 036b 535DA6AA 		.ascii	"S]\246\252\030r\007\003q\316\223Y\336%\3777\357b'\274"
 124      18720703 
 124      71CE9359 
 124      DE25FF37 
 124      EF6227BC 
 125 037f 4B8CC4A7 		.ascii	"K\214\304\247&W\255\304w\344\264M\367v\332\346\375\324"
 125      2657ADC4 
 125      77E4B44D 
 125      F776DAE6 
 125      FDD4
 126 0391 530BA614 		.ascii	"S\013\246\024\220x\223b5\255\3352Pl\036!\363\203\271"
 126      90789362 
 126      35ADDD32 
 126      506C1E21 
 126      F383B9
 127 03a4 DC0EFCCD 		.ascii	"\334\016\374\315\365\310K\310%\210\224\031PK\223\017"
 127      F5C84BC8 
ARM GAS  /tmp/ccOkO5Hx.s 			page 10


 127      25889419 
 127      504B930F 
 128 03b4 D97FD220 		.ascii	"\331\177\322 \305\034_[\233\\e\216\222\375\207RYW\267"
 128      C51C5F5B 
 128      9B5C658E 
 128      92FD8752 
 128      5957B7
 129 03c7 097FA5E3 		.ascii	"\011\177\245\343\205\321\246\276\371+\254';r\314\264"
 129      85D1A6BE 
 129      F92BAC27 
 129      3B72CCB4 
 130 03d7 F7396E1D 		.ascii	"\3679n\035\267\210D\305p\375r\304c\036A\371\263\030"
 130      B78844C5 
 130      70FD72C4 
 130      631E41F9 
 130      B318
 131 03e9 AE4CE097 		.ascii	"\256L\340\227\363\341\312\257\304D\271\031\241B$\307"
 131      F3E1CAAF 
 131      C444B919 
 131      A14224C7 
 132 03f9 CC11D544 		.ascii	"\314\021\325D\375\006\321\3713\337f'm\014\314L}@L\216"
 132      FD06D1F9 
 132      33DF6627 
 132      6D0CCC4C 
 132      7D404C8E 
 133 040d A5B1796B 		.ascii	"\245\261yk~\005rn\320\277\032\3020<\177J\356\263\200"
 133      7E05726E 
 133      D0BF1AC2 
 133      303C7F4A 
 133      EEB380
 134 0420 B32EFC59 		.ascii	"\263.\374Y&\014\276]\362\364\367\220x\314\177\342\346"
 134      260CBE5D 
 134      F2F4F790 
 134      78CC7FE2 
 134      E6
 135 0431 5B9851D0 		.ascii	"[\230Q\320\374\222>\030\261\272\267\362Y\226\256R\224"
 135      FC923E18 
 135      B1BAB7F2 
 135      5996AE52 
 135      94
 136 0442 0E48CFAC 		.ascii	"\016H\317\254ZE\251\342\340\321\374\340\036;\235\220"
 136      5A45A9E2 
 136      E0D1FCE0 
 136      1E3B9D90 
 137 0452 E5822651 		.ascii	"\345\202&Qb{\232\020\331\370\262\315<\266\240\253\235"
 137      627B9A10 
 137      D9F8B2CD 
 137      3CB6A0AB 
 137      9D
 138 0463 40F3D9F7 		.ascii	"@\363\331\367\263\345Sc\037\376\327I_\246\302\324\324"
 138      B3E55363 
 138      1FFED749 
 138      5FA6C2D4 
 138      D4
 139 0474 0220D2A8 		.ascii	"\002 \322\250Qp\372aF\263\203aK\271\251\302\230R\330"
 139      5170FA61 
 139      46B38361 
ARM GAS  /tmp/ccOkO5Hx.s 			page 11


 139      4BB9A9C2 
 139      9852D8
 140 0487 ECF5DBDB 		.ascii	"\354\365\333\333\357\365Z\347\275\256-\335^\310\305"
 140      EFF55AE7 
 140      BDAE2DDD 
 140      5EC8C5
 141 0496 6FCC5ED1 		.ascii	"o\314^\321\255AmW\224w\365W\325&\247\235\302C|\004`"
 141      AD416D57 
 141      9477F557 
 141      D526A79D 
 141      C2437C04 
 142 04ab D6DC6934 		.ascii	"\326\334i4uu\2406yF\014\236Sk?\306L\365.\364seK\001"
 142      7575A036 
 142      79460C9E 
 142      536B3FC6 
 142      4CF52EF4 
 143 04c3 87256924 		.ascii	"\207%i$\011@\207\221\305\002_&\014B\313D\202\033\344"
 143      09408791 
 143      C5025F26 
 143      0C42CB44 
 143      821BE4
 144 04d6 FBE14635 		.ascii	"\373\341F5\300\206\357\036\003\357\310\364oA\374)\010"
 144      C086EF1E 
 144      03EFC8F4 
 144      6F41FC29 
 144      08
 145 04e7 0431CDDD 		.ascii	"\0041\315\335\361\366\243\035m\361\266#m\361W\332\225"
 145      F1F6A31D 
 145      6DF1B623 
 145      6DF157DA 
 145      95
 146 04f8 16E5D583 		.ascii	"\026\345\325\203\361\243\335\361\256w\342\335]\255\361"
 146      F1A3DDF1 
 146      AE77E2DD 
 146      5DADF1
 147 0507 D6F6F6B6 		.ascii	"\326\366\366\266\346\316=\255\204\035\353d\355\235\354"
 147      E6CE3DAD 
 147      841DEB64 
 147      ED9DEC
 148 0516 48E79F56 		.ascii	"H\347\237V\316\\\314"
 148      CE5CCC
 149              		.text
 150              		.section	.gnu.lto_chHeapFree.d6c0548b9766465a,"",%progbits
 151 0000 789CCD58 		.ascii	"x\234\315XKh\035U\030>\377\231\231\373~\345\235\264"
 151      4B681D55 
 151      183EFF99 
 151      99FB7EE5 
 151      9DB4
 152 0012 CD8382A0 		.ascii	"\315\203\202\240\006z)E\244\210t\241\033WZ\332@]iz\033"
 152      067A2945 
 152      A48874A1 
 152      1B575ADA 
 152      405D697A 
 153 0027 935984A6 		.ascii	"\223Y\204\246\215\"\232E\347\336tQ,&\241Zc\033\362\350"
 153      8D229A45 
 153      E7DE7451 
 153      2C26A15A 
ARM GAS  /tmp/ccOkO5Hx.s 			page 12


 153      631BF2E8 
 154 003b 4214376A 		.ascii	"B\0247j]\264\"\2457\324E\243\224\333 b\023\024\033\250"
 154      5DB422A5 
 154      37D445A3 
 154      94DB2062 
 154      13141BA8 
 155 004f 56571683 		.ascii	"VW\026\203I\232\246\216\377?s\346\025b\356\314%H\007"
 155      499AA68E 
 155      FF3F73E6 
 155      1562EECC 
 155      254807
 156 0062 EE7FFE33 		.ascii	"\356\177\3763\347\374\337\377>s\270\234q\266\3769\217"
 156      E7FCDFFF 
 156      3E73B89C 
 156      71B6FE39 
 156      8F
 157 0073 BFE7AB19 		.ascii	"\277\347\253\031\333C\223*\006\270\0038HH%\220\221\312"
 157      DB43932A 
 157      06B80338 
 157      48482590 
 157      91CA
 158 0085 A0205578 		.ascii	"\240 Ux\2301\215\207\220\310!\223O\021\037\346Q\342"
 158      98318D87 
 158      90C82193 
 158      4F111FE6 
 158      51E2
 159 0097 23C4474C 		.ascii	"#\304GL\336x\037\3451\342\343\304\307\000\007\210\363"
 159      DE781FE5 
 159      31E2E3C4 
 159      C7000788 
 159      F3
 160 00a8 04BD49D2 		.ascii	"\004\275I\322\233\004\340\000IH#M\031Z\322\220A\232"
 160      9B04E000 
 160      4948234D 
 160      195AD290 
 160      419A
 161 00ba 01402380 		.ascii	"\001@#\200\235\340\222\254\204\302\221h,\236H\246\322"
 161      9DE092AC 
 161      84C29168 
 161      2C9E48A6 
 161      D2
 162 00cb 1938F132 		.ascii	"\0318\3612-\260\266\235\354\202\246\235\271\375\321"
 162      2DB0B69D 
 162      EC82A69D 
 162      B9FDD1
 163 00da 5FE79ADE 		.ascii	"_\347\232\336\231*\214h\377\350:\250\264\224\003v\010"
 163      992A8C68 
 163      FFE83AA8 
 163      B4940376 
 163      08
 164 00eb 39683306 		.ascii	"9h3\006.{}4\305\212\243\245o/\200vF\313\337\323\365"
 164      2E7B7D34 
 164      C58AA3A5 
 164      6F2F8076 
 164      46CBDFD3 
 165 0100 B44A3EFA 		.ascii	"\264J>\372\021\323.~\242E\247\2645]\227T\212N`\031\331"
 165      11D32E7E 
ARM GAS  /tmp/ccOkO5Hx.s 			page 13


 165      A245A7B4 
 165      355D9754 
 165      8A4E6019 
 166 0115 A77963A5 		.ascii	"\247yc\245\367\335^\371\025\033\037>[\201\230\366\375"
 166      F7DD5EF9 
 166      151B1F3E 
 166      5B8198F6 
 166      FD
 167 0126 AF2F5DD7 		.ascii	"\257/]\327N\026u}\237\177U_\224&*\261\360R\351]\267"
 167      4E16757D 
 167      9F7F555F 
 167      94262AB1 
 167      F052E95D 
 168 013b D8231677 		.ascii	"\330#\026wM\277\023<\022_\017\177P\211K\017\203\253"
 168      4DBF133C 
 168      125F0F7F 
 168      50894B0F 
 168      83AB
 169 014d D2C65D89 		.ascii	"\322\306]\211\362\253g\356Np\031w\350|\312\024\257\224"
 169      F2AB67EE 
 169      4E701977 
 169      E87CCA14 
 169      AF94
 170 015f 262BA9BD 		.ascii	"&+\251\275/+\250\275\331\341\241G\270\210\212?TV\020"
 170      2F2BA8BD 
 170      D9E1A147 
 170      B8888A3F 
 170      545610
 171 0172 F72B48D4 		.ascii	"\367+H\324\377\225\334\037+Jnq\2614\343>e\231O\261\237"
 171      FF95DC1F 
 171      2B4A6E71 
 171      B134E33E 
 171      65994FB1 
 172 0187 87469B34 		.ascii	"\207F\2334\2276\316\036\007\177\276-\037q\212\211\263"
 172      9736CE1E 
 172      077FBE2D 
 172      1F718A89 
 172      B3
 173 0198 767F52C5 		.ascii	"v\177R\305_\206\316\272\365)\234\355*'\331\013\3543"
 173      5F86CEBA 
 173      F5299CED 
 173      2A27D90B 
 173      EC33
 174 01aa 5EBCADEB 		.ascii	"^\274\255\353?\375\375\373\302\032\324\264\001\353\204"
 174      3FFDFDFB 
 174      C21AD4B4 
 174      01EB84
 175 01b9 2BB09371 		.ascii	"+\260\223q\350\005\014k'\\\305\211\214\3434\216\212"
 175      E8050C6B 
 175      275CC589 
 175      8CE3348E 
 175      8A
 176 01ca 580C310C 		.ascii	"X\0141\014B\030\211\034!\022%\022#\022G\"%\220\340G"
 176      4218891C 
 176      21122512 
 176      23124722 
 176      2590E047 
ARM GAS  /tmp/ccOkO5Hx.s 			page 14


 177 01de 11A72922 		.ascii	"\021\247)\"iz\227!\256\212\270j\"5Dj\351]\035\221z\232"
 177      697A9721 
 177      AE8AB86A 
 177      2235446A 
 177      E95D1D91 
 178 01f4 36905823 		.ascii	"6\220X#M\233h\272\215\310v\";\2104\323B\013\351m\025"
 178      4D9B68BA 
 178      8DC87622 
 178      3B8834D3 
 178      420BE96D 
 179 0209 46E0A3B0 		.ascii	"F\340\243\260\223\2326\322f\316MSMC{E\216\3609((v\212"
 179      939A36D2 
 179      66CE4D53 
 179      4D437B45 
 179      8EF03928 
 180 0220 D4418522 		.ascii	"\324A\205\"\335`\203\247\007\027\307C\235p\015/\002"
 180      DD6083A7 
 180      0717C743 
 180      9D700D2F 
 180      02
 181 0231 DD207503 		.ascii	"\335 u\0037b\263\242czq\363\015V\230\277\365\347\014"
 181      3762B3A2 
 181      637A71F3 
 181      0D5698BF 
 181      F5E70C
 182 0244 581BE476 		.ascii	"X\033\344v\366\251\206O\007\306T\260\373U\010\011\366"
 182      F6A9864F 
 182      07C654B0 
 182      FB550809 
 182      F6
 183 0255 1915C263 		.ascii	"\031\025\302c\354<\002D\020\353\220YV\370\034\006&F"
 183      EC3C0244 
 183      10EB9059 
 183      56F81C06 
 183      2646
 184 0267 10A37553 		.ascii	"\020\243uSA\374\325A\3351@\031`\253\204\264[\265U=\213"
 184      41FCD541 
 184      DD314019 
 184      60AB84B4 
 184      5BB5553D 
 185 027c 68266814 		.ascii	"h&h\024\365\023\250\"@$'y\006\316\307\023\222\205\023"
 185      F513A822 
 185      40242779 
 185      06CEC713 
 185      928513
 186 028f 1A606F63 		.ascii	"\032`oc\200\332\331\223*\3046\226v\245\277\304dS\220"
 186      80DAD993 
 186      2AC43696 
 186      76A5BFC4 
 186      645390
 187 02a2 31D27F4A 		.ascii	"1\322\177J\313\250\020\317\011c\021L\205\204\271\261"
 187      CBA810CF 
 187      0963114C 
 187      8584B9B1 
 188 02b2 83A450ED 		.ascii	"\203\244P\355\034\003\264UZ[n\354\206\326\324\332\303"
 188      1C03B455 
 188      5A5B6EEC 
ARM GAS  /tmp/ccOkO5Hx.s 			page 15


 188      86D6D4DA 
 188      C3
 189 02c3 57694931 		.ascii	"WiI1\002\212v\\\232x\302\262#l\330a\271\362\212\037"
 189      028A765C 
 189      9A78C2B2 
 189      236CD861 
 189      B9F28A1F 
 190 02d7 57AEB36F 		.ascii	"W\256\263o\356\346w\333\000\335\302\014\241\037\357"
 190      EEE677DB 
 190      00DDC20C 
 190      A11FEF
 191 02e6 6812EEF8 		.ascii	"h\022\356\370-\377\036\270\222\346\331\0226\355\230"
 191      2DFF1EB8 
 191      92E6D912 
 191      36ED98
 192 02f5 BFB538CB 		.ascii	"\277\2658\313\255=\021#\022r\231\224\301f)S\\\366M\217"
 192      AD3D1123 
 192      12729994 
 192      C1662953 
 192      5CF64D8F 
 193 0309 95B236B4 		.ascii	"\225\2626\264#d\233\020\261M\230\261S\033\365\230p\025"
 193      23649B10 
 193      B14D98B1 
 193      531BF598 
 193      7015
 194 031b 1C1BBE82 		.ascii	"\034\033\276\202J\214p\207\000\303)\271\365G\205\376"
 194      4A8C7087 
 194      00C329B9 
 194      F54785FE 
 195 032b 0F97FEB0 		.ascii	"\017\227\376\260K\"\346\321\377\246\243\376X`\355\010"
 195      4B22E6D1 
 195      FFA6A3FE 
 195      5860ED08 
 196 033b 3D331237 		.ascii	"=3\0227\201\235*\265\240\367:\320{|7\204\"j-f\242_^"
 196      819D2AB5 
 196      A0F73AD0 
 196      7B7C3784 
 196      226A2D66 
 197 0352 5AE041F1 		.ascii	"Z\340A\361}\230n\204\211\002\263\2624g\007/n\004&i\320"
 197      7D986E84 
 197      8902B3B2 
 197      3467072F 
 197      6E042669 
 198 0367 32D686EC 		.ascii	"2\326\206\354\000\014\236\262\003\233@\010\343\320\210"
 198      000C9EB2 
 198      039B4008 
 198      E3D088
 199 0376 982BA7ED 		.ascii	"\230+\247\355\225\244Q\234\011S\345\275\264\365:\345"
 199      95A4519C 
 199      0953E5BD 
 199      B4F53AE5 
 200 0386 C9C480E3 		.ascii	"\311\304\200\343\316\033\001\303%\232\345)\227\276\224"
 200      CE1B01C3 
 200      259AE529 
 200      97BE94
 201 0395 BB0C62A2 		.ascii	"\273\014b\242\014.//\330\235\2206ue\014\217\005\347"
 201      0C2E2F2F 
ARM GAS  /tmp/ccOkO5Hx.s 			page 16


 201      D89D9036 
 201      75650C8F 
 201      05E7
 202 03a7 DBEBC2FC 		.ascii	"\333\353\302\374M\333\213\214\307\213\267\034/\372\003"
 202      4DDB8B8C 
 202      C78BB71C 
 202      2FFA03
 203 03b6 7B6100D7 		.ascii	"{a\000\327X\300UV>\014\264QOsd\312ee\360\242\235\327"
 203      58C05556 
 203      3E0CB451 
 203      4F7364CA 
 203      6565F0A2 
 204 03cc 6A7416D1 		.ascii	"jt\026\321\326e\253\006\027\010$if\253\360\202\273\314"
 204      D665AB06 
 204      17082469 
 204      66ABF082 
 204      BBCC
 205 03de 82470501 		.ascii	"\202G\005\001\305Wb\371\276\255\243v\353\022L\320\237"
 205      C55762F9 
 205      BEADA376 
 205      EB124CD0 
 205      9F
 206 03ef D75BC075 		.ascii	"\327[\300u\036\340I\327\031r\316\023\246Z\277]|\323"
 206      1EE049D7 
 206      1972CE13 
 206      A65ABF5D 
 206      7CD3
 207 0401 DBC5FB3D 		.ascii	"\333\305\373=\237\035\013\373\351\300]\\gU`\334:\210"
 207      9F1D0BFB 
 207      E9C05D5C 
 207      675560DC 
 207      3A88
 208 0413 5617ECBC 		.ascii	"V\027\354\274\324o\330o\033v\357\206\375\326\200\020"
 208      D46FD86F 
 208      1B76EF86 
 208      FDD68010 
 209 0423 1BF71B7E 		.ascii	"\033\367\033~\215\360\273\324\260\276-\032\327\235\216"
 209      8DF0BBD4 
 209      B0BE2D1A 
 209      D79D8E
 210 0432 09EB745E 		.ascii	"\011\353t^u\332\242i\323\002(c\\a~\304n\213m\236\352"
 210      75DAA269 
 210      D3022863 
 210      5C617EC4 
 210      6E8B6D9E 
 211 0447 2DDF0BFF 		.ascii	"-\337\013\377Q\274\333\321$\004[\347\372\016\\\010Z"
 211      51BCDBD1 
 211      24045BE7 
 211      FA0E5C08 
 211      5A
 212 0458 BC9BD88E 		.ascii	"\274\233\330\216\200\3428\\u\212\267yK\213\267\202\012"
 212      80E2385C 
 212      758AB779 
 212      4B8BB782 
 212      0A
 213 0469 F3758E37 		.ascii	"\363u\2167\233\013\007\351\277\026\274\314\245DJW\036"
 213      9B0B07E9 
ARM GAS  /tmp/ccOkO5Hx.s 			page 17


 213      BF16BCCC 
 213      A5444A57 
 213      1E
 214 047a 4CDB216C 		.ascii	"L\333!l\025\340\007\034\225\373\034\225{\003\177\365"
 214      15E0071C 
 214      95FB1C95 
 214      7B037FF5 
 215 048a CCE2495B 		.ascii	"\314\342I[\267\234\273\223v\310Z\266\342\266\305\205"
 215      B79CBB93 
 215      76C85AB6 
 215      E2B6C585 
 216 049a 672DAEDB 		.ascii	"g-\256\333V\006\225}\307\362\230\355#\264>\313\362S"
 216      5606957D 
 216      C7F298ED 
 216      23B43ECB 
 216      F253
 217 04ac 0FC296B0 		.ascii	"\017\302\226\260\025\001\264\223d\037\313\366\034\355"
 217      1501B493 
 217      641FCBF6 
 217      1CED
 218 04ba EDCA76BD 		.ascii	"\355\312v\275\326\225}\256G=\254\276x {\264?{\374\365"
 218      D6957DAE 
 218      473DACBE 
 218      78207BB4 
 218      3F7BFCF5 
 219 04ce 6CFFF15C 		.ascii	"l\377\361\\6\327\323\323\325\331\267+\307\370\261>\336"
 219      36D7D3D3 
 219      D5D9B72B 
 219      C7F8B13E 
 219      DE
 220 04df D3A7D0AC 		.ascii	"\323\247\320\254\357_\\\234\340\213"
 220      EF5F5C9C 
 220      E08B
 221              		.text
 222              		.section	.gnu.lto_chHeapStatus.d6c0548b9766465a,"",%progbits
 223 0000 789CAD55 		.ascii	"x\234\255U\315KTQ\024?\347\276\217\371\322\361\263\305"
 223      CD4B5451 
 223      143FE7BE 
 223      8FF9D2F1 
 223      B3C5
 224 0012 D0468420 		.ascii	"\320F\204 \224zT\253\210p\321\037P\241\003\266)\306"
 224      947A54AB 
 224      8870D11F 
 224      50A103B6 
 224      29C6
 225 0024 719A798B 		.ascii	"q\232y\213I\323V\272\360\2153\013\011\003\231\032F\254"
 225      49D356BA 
 225      F08D330B 
 225      0903991A 
 225      46AC
 226 0036 45125239 		.ascii	"E\022R9\245\320\3120h\014\027jDe\233\214 \351\003\011"
 226      A5D0CA30 
 226      680C176A 
 226      44659B8C 
 226      20E90309 
 227 004a 5CE42228 		.ascii	"\\\344\"(\027\275\316}\357\335\231g\010M\037\017\346"
 227      17BDCE7D 
ARM GAS  /tmp/ccOkO5Hx.s 			page 18


 227      EFDD9967 
 227      084D1F0F 
 227      E6
 228 005b 9EFBEE39 		.ascii	"\236\373\3569\347\367\273\347\367\316a\0300\370\365"
 228      E7F7BBE7 
 228      F7CE6118 
 228      30F8F5
 229 006a 394BBF2D 		.ascii	"9K\277-\025@\343/\001@\212@\306$\000\203\311\264\310"
 229      1540E32F 
 229      01408A40 
 229      C6240083 
 229      C9B4C8
 230 007d 12924119 		.ascii	"\022\222A\031)\004\025kU\231\302\275\036\356\3650/\337"
 230      2904156B 
 230      5599C2BD 
 230      1EEEF530 
 230      2FDF
 231 008f FBF8DE8B 		.ascii	"\373\370\336\213d\320\207~Z\375\210\004\2070\304$YQ"
 231      64D0877E 
 231      5AFD8804 
 231      8730C424 
 231      5951
 232 00a1 3D5E9F1F 		.ascii	"=^\237\037\207\316\360#\3605\303\244ad\327?MO\204.\337"
 232      87CEF023 
 232      F035C3A4 
 232      6164D73F 
 232      4D4F842E 
 233 00b6 1C1E337E 		.ascii	"\034\0363~\230&\352\334\025E\350\244\0356Y\206\263\273"
 233      9826EADC 
 233      1545E8A4 
 233      1D365986 
 233      B3BB
 234 00c8 1F3BADB8 		.ascii	"\037;\255\270\225\315\271\323\244\312\322\214\257\037"
 234      95CDB9D3 
 234      A4CAD28C 
 234      AF1F
 235 00d6 4F2D1999 		.ascii	"O-\031\231\242i\266\351\274\236\212\250\336\255^\373"
 235      A269B6E9 
 235      BC9E8AA8 
 235      DEAD5EFB 
 236 00e6 0BAAA2B9 		.ascii	"\013\252\242\271\272<\211D\231\372b\2325\225\0266Q\314"
 236      BA3C8944 
 236      99FA629A 
 236      35951636 
 236      51CC
 237 00f8 BE1AF58F 		.ascii	"\276\032\365\217\245F\014\323\034\322Q\251\220\353a"
 237      A5460CD3 
 237      1CD251A9 
 237      90EB61
 238 0107 361F325C 		.ascii	"6\0372\\Wd\260\037+\313\234\317^qg*\014Z+\3134\346\273"
 238      5764B01F 
 238      2BCB9CCF 
 238      5E71672A 
 238      0C5A2BCB 
 239 011e 4B4A52D6 		.ascii	"KJR\326\201\337e\315\262\342\272i>\272\372\371\303\012"
 239      81DF65CD 
 239      B2E2BA69 
ARM GAS  /tmp/ccOkO5Hx.s 			page 19


 239      3EBAFAF9 
 239      C30A
 240 0130 36362224 		.ascii	"66\"$\221\2320\202\267\261\031$\262w\311\312d\013d\025"
 240      919A3082 
 240      B7B11924 
 240      B277C9CA 
 240      640B6415 
 241 0144 24A7CA23 		.ascii	"$\247\312#<@\302y\235c\237\023\346w\322\002\344\224"
 241      3C40C279 
 241      9D639F13 
 241      E677D202 
 241      E494
 242 0156 AAF8524D 		.ascii	"\252\370RM\213\034t\302j\234\260Z'\254\216\320\260\236"
 242      8B1C74C2 
 242      6A9CB05A 
 242      27AC8ED0 
 242      B09E
 243 0168 033580A5 		.ascii	"\0035\200\245((\2201\214\261&\333m\007\333\251\226\332"
 243      28289031 
 243      8CB126DB 
 243      6D07DBA9 
 243      96DA
 244 017a F474586B 		.ascii	"\364tXk\230\317\200\264\004\213\033\013\217\263R\004"
 244      98CF80B4 
 244      048B1B0B 
 244      8FB35204 
 245 018a EF53721C 		.ascii	"\357Sr\034\025^\234\352\256,\314[Bz\006\303\333\351"
 245      155E9CEA 
 245      AE2CCC5B 
 245      427A06C3 
 245      DBE9
 246 019c 5B537B45 		.ascii	"[S{E\234:\010\333\306\210a\034\243\350$2W\264,\242g"
 246      9C3A08DB 
 246      C688611C 
 246      A3E82432 
 246      57B42CA2 
 247 01b1 A74AA89E 		.ascii	"\247J\250\236A\030\240\033\266B\213\216\236\3530A\034"
 247      4118A01B 
 247      B6428B8E 
 247      9EEB3041 
 247      1C
 248 01c2 DE386299 		.ascii	"\3368b\231\253\013]\214\317A\266\023\001l\226Z\035}"
 248      AB0B5D8C 
 248      CF41B613 
 248      016C965A 
 248      1D7D
 249 01d4 51B44308 		.ascii	"Q\264C\010L\347\263G\024s\343\205\303\202\301\313\261"
 249      4CE7B347 
 249      1473E385 
 249      C382C1CB 
 249      B1
 250 01e5 7886E598 		.ascii	"x\206\345\230+\264\010\207\317\355\330N\317O\251\302"
 250      2BB40887 
 250      CFEDD84E 
 250      CF4FA9C2 
 251 01f5 E3E7E0F4 		.ascii	"\343\347\340\364\034\"\211[a\232o\217\353\030\330\375"
 251      1C22895B 
ARM GAS  /tmp/ccOkO5Hx.s 			page 20


 251      619A6F8F 
 251      EB18D8FD 
 252 0205 7AEEFBC1 		.ascii	"z\356\373\301\032 )\305hQ\245\321\\\222W\255\330U\277"
 252      1A2029C5 
 252      6851A5D1 
 252      5C9257AD 
 252      D855BF
 253 0218 199F5965 		.ascii	"\031\237Ye\202\240\312\252W`\237\326\371\201\265%\321"
 253      82A0CAAA 
 253      57609FD6 
 253      F981B525 
 253      D1
 254 0229 AA6D9A40 		.ascii	"\252m\232@\034Y\247=u\026\015s\254x\027]\306\241_\004"
 254      1C59A73D 
 254      75160D73 
 254      AC78175D 
 254      C6A15F04 
 255 023d 0570B505 		.ascii	"\005p\265\005\2548h\347\334hU\273\241)%\224\364H\272"
 255      AC3868E7 
 255      DC6855BB 
 255      A1292594 
 255      F448BA
 256 0250 4BA00409 		.ascii	"K\240\004\011(\316\031\254\343\215\26205q\224,\325\320"
 256      28CE19AC 
 256      E38DB230 
 256      3571942C 
 256      D5D0
 257 0262 617E3DF3 		.ascii	"a~=\363\004\205\263\326am/W\326V\256\354\350\037Wf7"
 257      0485B3D6 
 257      616D2F57 
 257      D656AEEC 
 257      E81F5766 
 258 0277 8DEAC8F7 		.ascii	"\215\352\310\367\255\260R\222/\260C\276\177\"Y\202\314"
 258      ADB05292 
 258      2FB043BE 
 258      7F225982 
 258      CC
 259 0288 66EA4809 		.ascii	"f\352H\011\270\234\342|NF\335 o\346BT\236r/\037Y\003"
 259      B89CE27C 
 259      4E46DD20 
 259      6FE64254 
 259      9E722F1F 
 260 029e 891A477E 		.ascii	"\211\032G~\233\333Cb(7\362\2415\220\251\305\344\305"
 260      9BDB4362 
 260      2837F2A1 
 260      3590A9C5 
 260      E4C5
 261 02b0 1C7DF2A0 		.ascii	"\034}\362\2402\232\217\360;{\254\361\311l.|/\217O\035"
 261      329A8FF0 
 261      3B7BACF1 
 261      C96C2E7C 
 261      2F8F4F1D 
 262 02c4 870EEE1C 		.ascii	"\207\016\356\034\037\257]\333\362\334\354{GE\272|\212"
 262      1FAF5DDB 
 262      F2DCEC7B 
 262      4745BA7C 
 262      8A
ARM GAS  /tmp/ccOkO5Hx.s 			page 21


 263 02d5 EA0890C4 		.ascii	"\352\010\220\304;R\342\342\302a\376\037cO\221Y\236\242"
 263      3B52E2E2 
 263      C261FE1F 
 263      634F9159 
 263      9EA2
 264 02e7 FAFF3145 		.ascii	"\372\3771E\314a\252\027S\264|\347AI\362\206\270\320"
 264      CC61AA17 
 264      53B47CE7 
 264      4149F286 
 264      B8D0
 265 02f9 25CCBDD2 		.ascii	"%\314\275\322SH\321\355\273\371\341K(\265@\203\035\322"
 265      5348D1ED 
 265      BBF9E14B 
 265      28B54083 
 265      1DD2
 266 030b C18782C3 		.ascii	"\301\207\202\303\355\323\022=\311\230\026;\037\323N"
 266      EDD3123D 
 266      C998163B 
 266      1FD34E
 267 031a 24F42EFD 		.ascii	"$\364.\375d\273\326\323\257\365]\322\372\373\242Z4\221"
 267      64BBD6D3 
 267      AFF55DD2 
 267      FAFBA25A 
 267      3491
 268 032c 88457A0F 		.ascii	"\210Ez\017F\201]\354\305\013\254\177\340'\211\250\201"
 268      46815DEC 
 268      C50BAC7F 
 268      E02789A8 
 268      81
 269 033d C8       		.ascii	"\310"
 270              		.text
 271              		.section	.gnu.lto_.symbol_nodes.d6c0548b9766465a,"",%progbits
 272 0000 789C4DCC 		.ascii	"x\234M\314;\016\202P\020\205\341\177\356\003.\253`\251"
 272      3B0E8250 
 272      1085E17F 
 272      EE032EAB 
 272      60A9
 273 0012 032131C6 		.ascii	"\003!1\306\302\030M\334\200K\241\2671\261\261\321\320"
 273      C2184DDC 
 273      804BA1B7 
 273      31B1B1D1 
 273      D0
 274 0023 D2FB265E 		.ascii	"\322\373&^\002\021\246\373\346\234\031\203\341\3028"
 274      0211A6FB 
 274      E69C1983 
 274      E1C238
 275 0032 E681C2E6 		.ascii	"\346\201\302\346\010\252\347\245\370;$j\345\213\312"
 275      08AAE7A5 
 275      F83B246A 
 275      E58BCA
 276 0041 B02D4A31 		.ascii	"\260-J1O\324L\035\363B\355\214o\324\315\370A\375D\351"
 276      4FD44C1D 
 276      F342ED8C 
 276      6FD4CDF8 
 276      41FD44E9 
 277 0055 D064FC54 		.ascii	"\320d\374T\210\224\242\351\244B4\374eIi\256\235X\233"
 277      8894A2E9 
ARM GAS  /tmp/ccOkO5Hx.s 			page 22


 277      A44234FC 
 277      654969AE 
 277      9D589B
 278 0068 522DDADC 		.ascii	"R-\332\334\272\214\372\026\355\002\315\272w\340\260"
 278      BA8CFA16 
 278      ED02CDBA 
 278      77E0B0
 279 0077 6D73E738 		.ascii	"ms\3478\355\"}F\325\307>P\357\243\223l8Obm\325\346\374"
 279      ED227D46 
 279      D5C73E50 
 279      EFA3936C 
 279      384F626D 
 280 008e 0099BA46 		.ascii	"\000\231\272F\005"
 280      05
 281              		.text
 282              		.section	.gnu.lto_.refs.d6c0548b9766465a,"",%progbits
 283 0000 789C6362 		.ascii	"x\234cb`b\020e\200\000V\006FF&&F \000\022,@\314\306"
 283      60621065 
 283      80005606 
 283      46462626 
 283      46200012 
 284 0018 C4C80000 		.ascii	"\304\310\000\000\004\212\000>"
 284      048A003E 
 285              		.text
 286              		.section	.gnu.lto_.decls.d6c0548b9766465a,"",%progbits
 287 0000 789CBD5A 		.ascii	"x\234\275Z\177p\024E\026\356\236\315\356f\223\010\210"
 287      7F701445 
 287      16EE9ECD 
 287      EE669308 
 287      88
 288 0011 A5172DAF 		.ascii	"\245\027-\257X\257\364\212\363\204ET\204*O\264\250R"
 288      58AFF48A 
 288      F3844554 
 288      842A4FB4 
 288      A852
 289 0023 ACF3C7DD 		.ascii	"\254\363\307\335YV\371\337\336\262\031\262\253\311\356"
 289      5956F9DF 
 289      DEB219B2 
 289      ABC9EE
 290 0032 DEEC44E0 		.ascii	"\336\354D\340\252\256\234$\032\300p\030\203\374RH\002"
 290      AAAE9C24 
 290      1AC07018 
 290      83FC5248 
 290      02
 291 0043 081A4FBC 		.ascii	"\010\032O\274\240(\020\016\030Qb\024\205\010\222\300"
 291      A028100E 
 291      18516214 
 291      850892C0 
 292 0053 99E81A94 		.ascii	"\231\350\032\224\310AA\224CQ8s\257{zvg:3\331\331\345"
 292      C8414194 
 292      43513873 
 292      AF7B7A76 
 292      673A33D9 
 293 0069 BCA9F44C 		.ascii	"\274\251\364L\317l\367\327\337\373\372\365\353\356\311"
 293      CF6CF7D7 
 293      DFFBFAF5 
 293      EBEEC9
ARM GAS  /tmp/ccOkO5Hx.s 			page 23


 294 0078 08484057 		.ascii	"\010H@W\273\020\032\202\343\351\353\021\022\335\010"
 294      BB101A82 
 294      E3E9EB11 
 294      12DD08
 295 0087 791042B7 		.ascii	"y\020B\267\243\314\341\203\264\006\322\006H\033!\325"
 295      A3CCE183 
 295      B406D206 
 295      481B21D5 
 296 0097 6284EA21 		.ascii	"b\204\352!5BZ\005\251\005\322ZH\360\207^\300\310t\220"
 296      35425A05 
 296      A905D25A 
 296      48F0875E 
 296      C0C87490 
 297 00ab 7A9740DA 		.ascii	"z\227@\332\012i\023\2446H\333!\035\204\324\005\351C"
 297      0A6913A4 
 297      3648DB21 
 297      1D84D405 
 297      E943
 298 00bd 483B21B5 		.ascii	"H;!\265\022|\250;\007R\037\344W\303\325\013\327-\220"
 298      127CA83B 
 298      07521FE4 
 298      57C3D50B 
 298      D72D90
 299 00d0 7640FA00 		.ascii	"v@\372\000\322~H\007 \035\206\324\013\311e\340\265\312"
 299      D27E4807 
 299      201D86D4 
 299      0BC965E0 
 299      B5CA
 300 00e2 A67DC277 		.ascii	"\246}\302w4$0\013\215\202T\202\2646\016r\234x.}\214"
 300      3424300B 
 300      8D825482 
 300      B4360E72 
 300      9C782E7D 
 301 00f7 8F131E02 		.ascii	"\217\023\036\002k\207p(\200\353\213p}\034\322_ Us|\210"
 301      6B877028 
 301      80EB8B70 
 301      7D1CD25F 
 301      2055737C 
 302 010c 76636DF8 		.ascii	"vcm\370Lg\332\2641\016;\031?#\027\235'\341\376\"\244"
 302      4C67DAB4 
 302      310E3B19 
 302      3F23179D 
 302      27E1FE22 
 303 0121 42C6ABD7 		.ascii	"B\306\253\327\202\333!\306\333\305\332]\313\372\212"
 303      82DB21C6 
 303      DBC5DA5D 
 303      CBFA8A
 304 0130 705C00D7 		.ascii	"p\\\000\327\205X\323k#\307\221\364\355(\306K\347\350"
 304      8558D36B 
 304      23C791F4 
 304      ED28C64B 
 304      E7E8
 305 0142 667DC66B 		.ascii	"f}\306k\305\363#\274\275\006.\207\014\374t^.\326\206"
 305      C5F323BC 
 305      BD062E87 
 305      0CFC745E 
 305      2ED686
ARM GAS  /tmp/ccOkO5Hx.s 			page 24


 306 0155 CE87DCBF 		.ascii	"\316\207\334\277\012\327\247!\275\316q!>6\232\343r\220"
 306      0AD7A721 
 306      BDCE7121 
 306      3E369AE3 
 306      7290
 307 0167 F169657C 		.ascii	"\361ie|\372\030\017\235\303N\003\307eX\363\347^\233"
 307      FA180F9D 
 307      C34E03C7 
 307      6558F3E7 
 307      5E9B
 308 0179 FE73B136 		.ascii	"\376s\2616\214\332\254\200\353J\246\315f\216\3178\324"
 308      8CDAAC80 
 308      EB4AA6CD 
 308      668ECF38 
 308      D4
 309 018a A4B4A8A9 		.ascii	"\244\264\250\251/O\265]\251\264\324\250CC\273\356@W"
 309      2F4FB55D 
 309      A9B4D4A8 
 309      4343BBEE 
 309      4057
 310 019c A0A50A1C 		.ascii	"\240\245\012\034-u\212\202\345\020\276\375r\3640\016"
 310      2D758A82 
 310      E510BEFD 
 310      72F4300E 
 311 01ac E1513EE4 		.ascii	"\341Q>\344\247\231\022\037EE(\204\327\342+X\356!\227"
 311      A799121F 
 311      45452884 
 311      D7E22B58 
 311      EE2197
 312 01bf 8627A0F1 		.ascii	"\206'\240\361\030]\217Z\241~\203\242\364_\205\254\216"
 312      185D8F5A 
 312      A17E83A2 
 312      F45F85AC 
 312      8E
 313 01d0 5FA2F5A4 		.ascii	"_\242\365\244\001\345%\305E\341\011\300\032<\316X$\204"
 313      01E525C5 
 313      45E109C0 
 313      1A3CCE58 
 313      2484
 314 01e2 D7618127 		.ascii	"\327a\201'\232jH\235m]|\345Je\367\023\312\320\320\343"
 314      9A6A489D 
 314      6D5D7CE5 
 314      4A65F713 
 314      CAD0D0E3 
 315 01f6 3CD1E9C5 		.ascii	"<\321\351\305\266D_dD]\324\271!\002,P\224\032Rqf'\364"
 315      B6445F64 
 315      445DD4B9 
 315      21022C50 
 315      941A5271 
 316 020d 8255ADEB 		.ascii	"\202U\255\353\320\013`B\252y~\367\031\\\003\370!\334"
 316      D00B6042 
 316      AA797EF7 
 316      195C03F8 
 316      21DC
 317 021f 8A7D507B 		.ascii	"\212}P{\005\306\200\367\002\276>M\324\3553\023\207{"
 317      05C680F7 
 317      02BE3E4D 
ARM GAS  /tmp/ccOkO5Hx.s 			page 25


 317      D4ED3313 
 317      877B
 318 0231 BD00C1A3 		.ascii	"\275\000\301\243?\263\014\211J\243\215rQ\305\2329H\035"
 318      3FB30C89 
 318      4AA38D72 
 318      51C59A39 
 318      481D
 319 0243 E895E10A 		.ascii	"\350\225\341\012@W\355\371!\257\256z\325\254@1z*\243"
 319      4057EDF9 
 319      21AFAE7A 
 319      D5AC4031 
 319      7A2AA3
 320 0256 C058F40C 		.ascii	"\300X\364\014A\361/8\212\323b(\202\216\340\317\250\261"
 320      41F12F38 
 320      8AD36228 
 320      828EE0CF 
 320      A8B1
 321 0268 A57EE76D 		.ascii	"\245~\347m\212R\030\302\233\360X\3009\304\021\317\216"
 321      8A5218C2 
 321      9BF058C0 
 321      39C411CF 
 321      8E
 322 0279 23A0A3B4 		.ascii	"#\240\243\264\316f\250\257\325\244\310\212\272\253\256"
 322      CE66A8AF 
 322      D5A4C88A 
 322      BAABAE
 323 0288 4429D09E 		.ascii	"D)\320\236#\0131\330q\015j\001\326\352G\035\253@\202"
 323      230B31D8 
 323      710D6A01 
 323      D6EA471D 
 323      AB4082
 324 029b DDD86484 		.ascii	"\335\330d\204\326\311#t\345\331m{\005J~+T\024\320i\216"
 324      D6C92374 
 324      E5D96D7B 
 324      054A7E2B 
 324      5414D069 
 325 02b0 BC4330C2 		.ascii	"\274C0\302n;\000Xs\034\366\233\200.\244\015\266\202"
 325      6E3B0058 
 325      731CF69B 
 325      802EA40D 
 325      B682
 326 02c2 6359ED60 		.ascii	"cY\355`\005\214\306*\240\371\241g\360\272ZeA\255\347"
 326      058CC62A 
 326      A0F9A167 
 326      F0BA5A65 
 326      41ADE7
 327 02d5 32D448F4 		.ascii	"2\324H\364U=F\201\357\3201\012is\363\005\322\334N|\231"
 327      553D4681 
 327      EFD0310A 
 327      6973F305 
 327      D2DC4E7C 
 328 02ea 59DF251D 		.ascii	"Y\337%\035.\277\3668\273\274K\353\236\276JiYT\312F\211"
 328      2EBFF638 
 328      BBBC4BEB 
 328      9EBE4A69 
 328      5954CA46 
 329 02ff 5AA72CC0 		.ascii	"Z\247,\300\325\233\256\266n\221\211\333s\340\324\032"
ARM GAS  /tmp/ccOkO5Hx.s 			page 26


 329      D59BAEB6 
 329      6E9189DB 
 329      73E0D41A 
 330 030f 364E76D3 		.ascii	"6Nv\323q\262[0\313\233\013\330\366e\373\337b`{(\330"
 330      71B25B30 
 330      CB9B0BD8 
 330      F665FBDF 
 330      62607B28 
 331 0324 898B003B 		.ascii	"\211\213\000;\322\323\367\014\256\245`\235\024l\255"
 331      D2D3F70C 
 331      AEA5609D 
 331      146CAD
 332 0333 8B1FC13E 		.ascii	"\213\037\301>n\004\373\314#\330\347\313d\206\364\303"
 332      6E04FBCC 
 332      23D8E7CB 
 332      6486F4C3 
 333 0343 1C477FD2 		.ascii	"\034G\177\322:\002\332\350\322;\325\312P\007>\264\367"
 333      3A02DAE8 
 333      D23BD5CA 
 333      50073EB4 
 333      F7
 334 0354 83DF572B 		.ascii	"\203\337W+\352\023.6B[\3560\204=\023\026\241\365!?8"
 334      EA132E36 
 334      425BEE30 
 334      843D1316 
 334      A1F5213F 
 335 0369 977760BF 		.ascii	"\227w`\277\3668\233\363(js\307^\2544\2260Wm\361\330"
 335      F6389BF3 
 335      286A73C7 
 335      5EAC3496 
 335      30576DF1 
 336 037e C55782D4 		.ascii	"\305W\202\324\305{\351\312\016\301\257=\316\356\245"
 336      C57BE9CA 
 336      0EC1AF3D 
 336      CEEEA5
 337 038d CFD7ADB6 		.ascii	"\317\327\255\266\012\002\006\221\206\265w\020\012\263"
 337      0A020691 
 337      86B57710 
 337      0AB3
 338 039b 4340AF53 		.ascii	"C@\257SM\273l\212g\323\264F]\325Q\322\020\012\3416\032"
 338      4DBB6C8A 
 338      67D3B446 
 338      5DD551D2 
 338      100AE136 
 339 03b0 4CB6E60B 		.ascii	"L\266\346\013\226>\004\264\203b|\230g\240\250Q7\261"
 339      963E04B4 
 339      83627C98 
 339      67A0A851 
 339      37B1
 340 03c2 A8A8CF54 		.ascii	"\250\250\317T\273r\306\363\017\343\364N\276\216g\300"
 340      BB72C6F3 
 340      0FE3F44E 
 340      BE8E67C0 
 341 03d2 E8707101 		.ascii	"\350pq\001\320\012\243\320\316.E=|WCH\237Y\014\336\244"
 341      D00AA3D0 
 341      CE2E453D 
 341      7C574348 
ARM GAS  /tmp/ccOkO5Hx.s 			page 27


 341      9F590CDE 
 342 03e7 60BDEE18 		.ascii	"`\275\356\030\224\036\354\355MS\3104\322G\247\247o]"
 342      941EECED 
 342      4D53C834 
 342      D247A7A7 
 342      6F5D
 343 03f9 D6D3932D 		.ascii	"\326\323\223-\210\200~\244UR\374\0008\023\362kO\263"
 343      88807EA4 
 343      5552FC00 
 343      3813F26B 
 343      4FB3
 344 040b FBFFD92F 		.ascii	"\373\377\331/}\340\376\026MY\305\246\346~\365\252\367"
 344      7DE0FE16 
 344      4D59C5A6 
 344      E67EF5AA 
 344      F7
 345 041c 14654C08 		.ascii	"\024eL\010\177A\031\277Q`\311\330~\270\012h\017\255"
 345      7F4119BF 
 345      5160C9D8 
 345      7EB80A68 
 345      0FAD
 346 042e 32C0314E 		.ascii	"2\3001N\365\035;7q\005E\036p4\245~]o1\232\254\004s\351"
 346      F51D3B37 
 346      7105451E 
 346      7034A57E 
 346      5D6F319A 
 347 0446 CD4FCA98 		.ascii	"\315O\312\230\321\324\177\316Kg\326\223\324\012\305"
 347      D1D47FCE 
 347      4B67D693 
 347      D40AC5
 348 0455 9D5D7713 		.ascii	"\235]w\023\214\200\026\322*\247\207[\3215U\263\342\264"
 348      8C8016D2 
 348      2AA7875B 
 348      D13555B3 
 348      E2B4
 349 0467 232B962F 		.ascii	"#+\226/^\315\206\300\011:,\227\244a\363\033R\317\355"
 349      5ECD86C0 
 349      093A2C97 
 349      A461F31B 
 349      52CFED
 350 047a A3635C03 		.ascii	"\243c\\\003{.g0\277\011\254y\2376>\235/>\227\234PKw"
 350      7B2E6730 
 350      BF09AC79 
 350      9F363E9D 
 350      2F3E979C 
 351 0491 50F3BFA3 		.ascii	"P\363\277\243#\3723\267\3454\350\000i\373\262=\372\214"
 351      23FA33B7 
 351      E534E800 
 351      69FBB23D 
 351      FA8C
 352 04a3 FA03851A 		.ascii	"\372\003\205\032\310\033\352H\317;\372|\372\037\012"
 352      C81BEA48 
 352      CF3BFA7C 
 352      FA1F0A
 353 04b2 35E8E6E7 		.ascii	"5\350\346\347S/7\237z\315\363\234\327\227\311\260\025"
 353      532F379F 
 353      7ACDF39C 
ARM GAS  /tmp/ccOkO5Hx.s 			page 28


 353      D797C9B0 
 353      15
 354 04c3 F14F5B5C 		.ascii	"\361O[\\@\347\235\364\235}\014J\365\036S\247\2554N\240"
 354      40E79DF4 
 354      9D7D0C4A 
 354      F51E53A7 
 354      AD344EA0 
 355 04d7 B6F39A80 		.ascii	"\266\363\232\200j<\244\255\032\201\363\345\236\003\037"
 355      6A3CA4AD 
 355      1A81F3E5 
 355      9E031F
 356 04e6 D4E06AAA 		.ascii	"\324\340j\252\033\371-\2733\277\361\376rGC\262%\275"
 356      1BF92DBB 
 356      33BFF1FE 
 356      724743B2 
 356      25BD
 357 04f8 C2BE96B6 		.ascii	"\302\276\226\266\377\024m\177>\337~\3377\251\033\264"
 357      FF146D7F 
 357      3EDF7EDF 
 357      37A91BB4 
 358 0508 B134DF51 		.ascii	"\2614\337Q\363\317\357}\326j~\265\331b\244\227\201\307"
 358      F3CFEF7D 
 358      D66A7EB5 
 358      D962A497 
 358      81C7
 359 051a BE6646D6 		.ascii	"\276fF\326\013d\320\274\347\341\235cz\261\2611zoZ/\037"
 359      0B64D0BC 
 359      E7E19D63 
 359      7AB1B131 
 359      7A6F5A2F 
 360 052f 48D3CF6B 		.ascii	"H\323\317k\314\202\235\2037\264\276\246(\013=:\207C"
 360      CC829D83 
 360      37B4BEA6 
 360      280B3D3A 
 360      8743
 361 0541 3923FA4D 		.ascii	"9#\372MJ4\355\245Q@\003;\354\004\314\326\223j\3246#"
 361      4A34EDA5 
 361      5140033B 
 361      EC04CCD6 
 361      936AD436 
 362 0556 586FCE60 		.ascii	"Xo\316`ff\257\031\301RN\300\306\3303\333l\004;\2323"
 362      6666AF19 
 362      C1524EC0 
 362      C6D833DB 
 362      6C043B9A 
 363 056b 9899D99B 		.ascii	"\230\231\331\233F\260cN\300J\355\231m5\202\035\317\031"
 363      46B0634E 
 363      C04AED99 
 363      6D35821D 
 363      CF19
 364 057d CCCCACDD 		.ascii	"\314\314\254\335\010v\322\011\230\337\202Y\372\260["
 364      0876D209 
 364      98DF8259 
 364      FAB05B
 365 058c 6BD60986 		.ascii	"k\326\011\206\265\346\351tH\310\177yx\306\223k\0103"
 365      B5E6E974 
 365      48C87F79 
ARM GAS  /tmp/ccOkO5Hx.s 			page 29


 365      78C6936B 
 365      0833
 366 059e D94DE6D2 		.ascii	"\331M\346\322i\355l\\h\023\332\367N\020Gp\2307\215\263"
 366      69ED6C5C 
 366      6813DAF7 
 366      4E104770 
 366      98378DB3 
 367 05b2 63B53757 		.ascii	"c\2657W0s\267|L\300L\261\206MI\251\365j\351\212L\264"
 367      3073B77C 
 367      4CC04CB1 
 367      864D49A9 
 367      F56AE98A 
 368 05c8 2BD4B1C8 		.ascii	"+\324\261\310fJ\013m\015\212\"\244\013+\245\245\326"
 368      664A0B6D 
 368      0D8A22A4 
 368      0B2BA5A5 
 368      D6
 369 05d9 6543F825 		.ascii	"eC\370%\341:8\267\012\2764\013-\257\347\264\275\326"
 369      E13A38B7 
 369      0ABE340B 
 369      2DAFE7B4 
 369      BDD6
 370 05eb 422FF78A 		.ascii	"B/\367\212L?\262U\265\363\204\015FOX\354D\246\021\206"
 370      4C3FB255 
 370      B5F3840D 
 370      464F58EC 
 370      44A61186 
 371 05ff C2F97DAB 		.ascii	"\302\371}\253~\246\244Tl\260wDq\310\"\342\253\0366_"
 371      7EA6A454 
 371      6CB07744 
 371      71C822E2 
 371      AB1E365F 
 372 0613 6F14C87C 		.ascii	"o\024\310|\275\324k9\365;\200\332\276l\343\257\351:"
 372      BDD46B39 
 372      F53B80DA 
 372      BE6CE3AF 
 372      E93A
 373 0625 AF8D0235 		.ascii	"\257\215\0025\345\015t\244\247i*\005z\235\002m\360\362"
 373      E50D74A4 
 373      A7692A05 
 373      7A9D026D 
 373      F0F2
 374 0637 9304E656 		.ascii	"\223\004\346V\020\330<\307c_&3lW\375?,+\2406\276\277"
 374      10D83CC7 
 374      635F2633 
 374      6C57FD3F 
 374      2C2BA036 
 375 064d 4CE6648D 		.ascii	"L\346d\21560\352:o\333\366\252\242\324zr\351\261\224"
 375      3630EA3A 
 375      6FDBF6AA 
 375      A2D47A72 
 375      E9B194
 376 0660 DE635BA9 		.ascii	"\336c[\251>[\207\351\323&\344&\220\200\324\234\015\031"
 376      3E5B87E9 
 376      D326E426 
 376      9080D49C 
 376      0D19
ARM GAS  /tmp/ccOkO5Hx.s 			page 30


 377 0672 6F30842C 		.ascii	"o0\204,\305;\357\337F\303\207\243\255\375\016\201\333"
 377      C53BEFDF 
 377      46C387A3 
 377      ADFD0E81 
 377      DB
 378 0683 DA9FDD4F 		.ascii	"\332\237\335O\336!\220\307\331\367PK\016\030V\312\212"
 378      DE2190C7 
 378      D9F7504B 
 378      0E1856CA 
 378      8A
 379 0694 B3957227 		.ascii	"\263\225r'[)\253T\261N+\327t\202\324\262\275\373r\262"
 379      5B29AB54 
 379      B14E2BD7 
 379      7482D4B2 
 379      BDFB72B2 
 380 06a8 837C9BC2 		.ascii	"\203|\233\302\354\313\027\006<|\227\346\341\035\024"
 380      ECCB1706 
 380      3C7C97E6 
 380      E11D14
 381 06b7 A87B580F 		.ascii	"\250{X\017z\270\016\364\230;\020nIK\347\350+\240\307"
 381      7AB80EF4 
 381      983B106E 
 381      494BE7E8 
 381      2BA0C7
 382 06ca D91372E3 		.ascii	"\331\023r\343E\377\367z\260\264\240\364I\347\345\263"
 382      45FFF77A 
 382      B0B4A0F4 
 382      49E7E5B3 
 383 06da 2623CEA3 		.ascii	"&#\316\243\336\263\215\315=Z\007\015\\\024b\215\272"
 383      DEB38DCD 
 383      3D5A070D 
 383      5C14628D 
 383      BA
 384 06eb AB51DFE9 		.ascii	"\253Q\337\351M'\263\317\340E\302\365\036\340g\037n\331"
 384      4D27B3CF 
 384      E045C2F5 
 384      1EE0671F 
 384      6ED9
 385 06fd 7BD22662 		.ascii	"{\322&b\2477\362\251\322W\250\377u\321u\305w\303\372"
 385      A737F2A9 
 385      D257A8FF 
 385      75D175C5 
 385      77C3FA
 386 0710 FB04E6D6 		.ascii	"\373\004\346\326\275'\314/\212\355\006\322~\343\354"
 386      BD27CC2F 
 386      8AED06D2 
 386      7EE3EC
 387 071f F154E145 		.ascii	"\361T\341E\231\011\3750\370[m\015\220mS\361G\035\255"
 387      9909FD30 
 387      F85B6D0D 
 387      906D53F1 
 387      471DAD
 388 0732 8436DC40 		.ascii	"\2046\334@\033\356\346\367\024\347\327~^\307\266\225"
 388      1BEEE6F7 
 388      14E7D77E 
 388      5EC7B695 
 389 0742 DD0E3615 		.ascii	"\335\0166\025\212\372\011};\242\277\356\350H\243\262"
ARM GAS  /tmp/ccOkO5Hx.s 			page 31


 389      8AFA097D 
 389      3BA2BFEE 
 389      E848A3B2 
 390 0752 564DEF36 		.ascii	"VM\3576\262\272\225\372\251\3309)\227\030\361\025\213"
 390      B2BA95FA 
 390      A9D83929 
 390      9718F115 
 390      8B
 391 0763 11BDDAE0 		.ascii	"\021\275\332\340.\344\373\350m>\252\3464H>\346\255q"
 391      2EE4FBE8 
 391      6D3EAAE6 
 391      34483EE6 
 391      AD71
 392 0775 BA33481F 		.ascii	"\2723H\037v>p\310\350\003\377\274h\0378w\257\205\017"
 392      763E70C8 
 392      E803FFBC 
 392      681F3877 
 392      AF850F
 393 0788 68EFB7EC 		.ascii	"h\357\267\354\030\364\033\031|\236/\003\224\301\370"
 393      18F41B19 
 393      7C9E2F03 
 393      94C1F8
 394 0797 AAD0C13A 		.ascii	"\252\320\301:\310o\337\365}\007\265)\"\353~<=@;\257"
 394      C86FDFF5 
 394      7D07B529 
 394      22EB7E3C 
 394      3D403BAF 
 395 07ab ECA49D7F 		.ascii	"\354\244\235\177L \256w\222\353|\007\373\372\363\264"
 395      4C20AE77 
 395      92EB7C07 
 395      FBFAF3B4 
 396 07bb CAF161FB 		.ascii	"\312\361a\373\352c*{\323v\334\321\276\372`\275\361\035"
 396      EA632A7B 
 396      D376DCD1 
 396      BEFA60BD 
 396      F11D
 397 07cd 55089F   		.ascii	"U\010\237"
 398 07d0 C10283CD 		.ascii	"\301\002\203\315WM\303a\344\007\015\320\005\357I\341"
 398      574DC361 
 398      E4070DD0 
 398      05EF49E1 
 399 07e0 1AA3F2F5 		.ascii	"\032\243\362\365\276\\\225\367\233\370\267w\323U\177"
 399      BE5C95F7 
 399      9BF8B777 
 399      D3557F
 400 07ef 3F8D734B 		.ascii	"?\215sK\235\200\215\267uF\365`\267\376\316Z{\303\325"
 400      9D808DB7 
 400      7546F560 
 400      B7FECE5A 
 400      7BC3D5
 401 0802 9C339E7F 		.ascii	"\2343\236\177$12/\024C\370kL\304\370\006_\003\347\177"
 401      2431322F 
 401      1443F86B 
 401      4CC4F806 
 401      5F03E77F 
 402 0816 D3F3B7F4 		.ascii	"\323\363\267\364\\-\220\363\032z^G\317\353\351\371\025"
 402      5C2D90F3 
ARM GAS  /tmp/ccOkO5Hx.s 			page 32


 402      1A7A5E47 
 402      CFEBE9F9 
 402      15
 403 0827 7ADE42CF 		.ascii	"z\336B\317\377\240\347/\351\371\024=\017\032E\265\033"
 403      FFA0E72F 
 403      E9F9143D 
 403      0F1A45B5 
 403      1B
 404 0838 355C88D7 		.ascii	"5\\\210\327\373z \357\367\221g8\3379\2333\336\210r\015"
 404      FB7A20EF 
 404      F7916738 
 404      DF399B33 
 404      DE88720D 
 405 084c 18E43A4E 		.ascii	"\030\344:N\345\372\027\225\350\033\263\007\275\354\323"
 405      E5FA1795 
 405      E81BB307 
 405      BDECD3
 406 085b 5F92E713 		.ascii	"_\222\347\023\266kR\355M;Moi_\343\361\234\006N\246\312"
 406      B66B52ED 
 406      4D3B4D6F 
 406      695FE3F1 
 406      9C064EA6 
 407 0870 059806B8 		.ascii	"\005\230\006\270X\3267B,\373\316\030\313\332sn{D\005"
 407      58D63742 
 407      2CFBCE18 
 407      CBDA736E 
 407      7B4405
 408 0883 530605FB 		.ascii	"S\006\005\373\251\202G5\207\243N\363\255Y\307\267|\334"
 408      A9824735 
 408      87A34EF3 
 408      AD59C7B7 
 408      7CDC
 409 0895 3F46CCFF 		.ascii	"?F\314\377\2150d\235\015\375\315\206\306\337\244\215"
 409      8D30649D 
 409      0DFDCD86 
 409      C6DFA48D 
 410 08a5 6FA18DEF 		.ascii	"o\241\215\357\240\347^\354\300c\3332\253\024\366\241"
 410      A0E75EEC 
 410      C063DB32 
 410      AB14F6A1 
 411 08b5 80FEC22E 		.ascii	"\200\376\302.}\333\252\355\315\270o\030\336\365\231"
 411      7DDBAAED 
 411      CDB86F18 
 411      DEF599
 412 08c4 E3E9B568 		.ascii	"\343\351\265h\235\2424\246\366\3740X\260RQ\013\364\377"
 412      9DA234A6 
 412      F6FC3058 
 412      B052510B 
 412      F4FF
 413 08d6 931DA6C5 		.ascii	"\223\035\246\3056\342q\226\014X\373Z]\245G\234\311V"
 413      36E27196 
 413      0C58FB5A 
 413      5DA5479C 
 413      C956
 414 08e8 779F66A9 		.ascii	"w\237f\2515=Si\210Tj\245\273\241#tp\330\327b\206\260"
 414      353D5369 
 414      88546AA5 
ARM GAS  /tmp/ccOkO5Hx.s 			page 33


 414      BBA12374 
 414      70D8D762 
 415 08fe 8F51FEAA 		.ascii	"\217Q\376\252<9\006\247\277F\331\310\177\215rA\260\370"
 415      3C3906A7 
 415      BF46D9C8 
 415      7F8D7241 
 415      B0F8
 416 0910 1643ED79 		.ascii	"\026C\355y\237\374\263S\27104T[\220\303\327(O\270L\337"
 416      9FFCB353 
 416      B9303454 
 416      5B90C3D7 
 416      284FB84C 
 417 0925 62686667 		.ascii	"bhfg\021\270\337R`e)\261\267\215\006\203\037\005bo\255"
 417      11B8DF52 
 417      606529B1 
 417      B78D0683 
 417      1F05626F 
 418 093a CB89B61F 		.ascii	"\313\211\266\037\3612\331W3\312T\243\374\275\356\311"
 418      F132D957 
 418      33CA54A3 
 418      FCBDEEC9 
 419 094a 3105CC27 		.ascii	"1\005\314'\354k1;\347\273\254D\373d\261\275h#|\300\262"
 419      EC6B313B 
 419      E7BBAC44 
 419      FB64B1BD 
 419      68237CC0 
 420 095f 88178DBE 		.ascii	"\210\027\215\27686it\312Z\243\317\312tG\372\236\026"
 420      38366974 
 420      CA5AA3CF 
 420      CA7447FA 
 420      9E16
 421 0971 A8B7B555 		.ascii	"\250\267\265UsuK\217 \225L\036\261\330\322\270-\215"
 421      73754B8F 
 421      20954C1E 
 421      B1D8D2B8 
 421      2D8D
 422 0983 8B6CBFCE 		.ascii	"\213l\277\316!J\332Y\267d\004\227\340b\333H0\313\\\305"
 422      214ADA59 
 422      B7640497 
 422      E062DB48 
 422      30CB5CC5 
 423 0997 26922679 		.ascii	"&\222&y\316[\313\263\222w\241FG.D\207'iO@\013\212\360"
 423      CE5BCBB3 
 423      9277A146 
 423      472E4487 
 423      27694F40 
 424 09ae 88D5182B 		.ascii	"\210\325\030+\346B\233\276\370\335L\335\255\354k1\003"
 424      E6429BBE 
 424      F8DD4CDD 
 424      ADEC6B31 
 424      03
 425 09bf 960F5739 		.ascii	"\226\017W9\325\220j\377t\000\333}\0056\202\013\255\346"
 425      D5906AFF 
 425      7400DB7D 
 425      0536820B 
 425      ADE6
 426 09d1 45265301 		.ascii	"E&S\001'\322\342\"\353\217\261\232\255\210\250[\337"
ARM GAS  /tmp/ccOkO5Hx.s 			page 34


 426      27D2E222 
 426      EB8FB19A 
 426      AD88A85B 
 426      DF
 427 09e2 5DA4E086 		.ascii	"]\244\340\206\352\324\320\3208\015^@M6\000k,\001\332"
 427      EAD4D0D0 
 427      380D5E40 
 427      4D36006B 
 427      2C01DA
 428 09f5 8603BC6C 		.ascii	"\206\003\274l\003\260\316\014\360\013\264FQ\273RO\016"
 428      03B0CE0C 
 428      F00BB446 
 428      51BB524F 
 428      0E
 429 0a06 0C0AD58A 		.ascii	"\014\012\325\212\012+P\3609<N\3774ks\032D\237[L\337"
 429      0A2B50F0 
 429      393C4EFF 
 429      346B731A 
 429      449F5B4C 
 430 0a1b 6111BCF5 		.ascii	"a\021\274\365\031<\316\303\010\017;\0157d<\2140\350"
 430      193CCEC3 
 430      080F3B0D 
 430      37643C8C 
 430      30E8
 431 0a2d EA523F79 		.ascii	"\352R?yw\241\202\225:\245zphh\364\245\250\201n%W\220"
 431      77A18295 
 431      3AA57A70 
 431      6868F4A5 
 431      A8816E25 
 432 0a43 4FA884B4 		.ascii	"O\250\204\264\243.H\317l\227\322\252\306b\255\366\305"
 432      A32E48CF 
 432      6C97D2AA 
 432      C662ADF6 
 432      C5
 433 0a54 E0479796 		.ascii	"\340G\227\2263m\363h\011;\202/\2732/iK|\210\233G\021"
 433      336DF368 
 433      093B822F 
 433      BB322F69 
 433      4B7C889B 
 434 0a6a 578A4CC3 		.ascii	"W\212L\303E\334\354\302\263\020\320\373E\230\325#\031"
 434      45DCECC2 
 434      B310D0FB 
 434      4598D523 
 434      19
 435 0a7b 3F6A265B 		.ascii	"?j&[\220m\373\024\277?\035\037j\215\361\201)sf_ve\036"
 435      906DFB14 
 435      BF3F1D1F 
 435      6A8DF181 
 435      2973665F 
 436 0a92 D6DB2A1E 		.ascii	"\326\333*\036I\030\256\024\214\304\234u\331d\243K\221"
 436      4918AE14 
 436      8CC49C75 
 436      D964A34B 
 436      91
 437 0aa3 4917BD14 		.ascii	"I\027\275\024d\377\346\022\314\301\222#\001\263\271"
 437      64FFE612 
 437      CCC19223 
ARM GAS  /tmp/ccOkO5Hx.s 			page 35


 437      01B3B9
 438 0ab2 952CDFEF 		.ascii	"\225,\337\3577\312b\012\233\254\304\263K\024AH\227h"
 438      37CA620A 
 438      9BACC4B3 
 438      4B144148 
 438      9768
 439 0ac4 3405D6EB 		.ascii	"4\005\326\353\002\221x\245\030\020g\213\201\031\221"
 439      029178A5 
 439      1810678B 
 439      811991
 440 0ad3 E8ACE803 		.ascii	"\350\254\350\003\017\006\342\311\200$\007\222R8\020"
 440      0F06E2C9 
 440      80240792 
 440      523810
 441 0ae2 8E44C450 		.ascii	"\216D\304Pbb\030\025\005I&\030\215Ee\317\335\367?\344"
 441      62621815 
 441      05492618 
 441      8D4565CF 
 441      DDF73FE4 
 442 0af6 9F816EB0 		.ascii	"\237\201n\260\253\027\215\205+\252\312D\250[)V\206\343"
 442      AB178D85 
 442      2BAACA44 
 442      A85B2956 
 442      86E3
 443 0b08 92383182 		.ascii	"\22281\202&\005\252\222R\240\":+P\036\016\007BR\345"
 443      2605AA92 
 443      52A0223A 
 443      2B501E0E 
 443      074252E5 
 444 0b1c 84583C26 		.ascii	"\204X<&N\020C\263\242\201\233'NM\327I\312ee\342l\250"
 444      4E1043B3 
 444      A2819B27 
 444      4E4DD749 
 444      CA6565E2 
 445 0b32 E04946FF 		.ascii	"\340IF\377,\006\345\342pd\006 \334YQ\021\017\377*{\203"
 445      2C06E5E2 
 445      70640620 
 445      DC595111 
 445      0FFF2A7B 
 446 0b47 946C045D 		.ascii	"\224l\004]\002\015\307\245y\032e\271\330pW\002\371r"
 446      020DC7A5 
 446      791A65B9 
 446      D8705702 
 446      F972
 447 0b59 519E5D15 		.ascii	"Q\236]\025\013\007\345\242H0!\305\037\213\226\211R1"
 447      0B07E5A2 
 447      483021C5 
 447      1F8B9689 
 447      5231
 448 0b6b 2D0A27C8 		.ascii	"-\012'\310O\264k'\021\227\344d\340\316?\3347\343\276"
 448      4FB46B27 
 448      1197E464 
 448      E0CE3FDC 
 448      37E3BE
 449 0b7e B9D01833 		.ascii	"\271\320\0303\255()?\032\252\210\226\307\202\362\317"
 449      AD28293F 
 449      1AAA8896 
ARM GAS  /tmp/ccOkO5Hx.s 			page 36


 449      C782F2CF 
 450 0b8e A9953A9D 		.ascii	"\251\225:\235\2308\207\030\014&Ec2\024,\254\202\353"
 450      98388718 
 450      0C264563 
 450      32142CAC 
 450      82EB
 451 0ba0 949B83F2 		.ascii	"\224\233\203\362\004\253b\225\241p$\032\023\003A\260"
 451      04AB6295 
 451      A170241A 
 451      130341B0 
 452 0bb0 3F545521 		.ascii	"?TU!\007\345y\0111I\360\203A\275\242\233\266S\020\023"
 452      07E57909 
 452      3149F083 
 452      41BDA29B 
 452      B6531013 
 453 0bc4 E7CA0584 		.ascii	"\347\312\005\2040\256* 2\341\210'\022\234-\211\342x"
 453      30AE2A20 
 453      32E18827 
 453      129C2D89 
 453      E278
 454 0bd6 075D22CF 		.ascii	"\007]\"\317\005Loe\225,\316\015\312\205\341H\220f'd"
 454      054C6F65 
 454      952CCE0D 
 454      CA85E148 
 454      90662764 
 455 0bea AF999C97 		.ascii	"\257\231\234\227\324)\215\226#\022H\225\014\376\251"
 455      D4298D96 
 455      23124895 
 455      0CFEA9
 456 0bf9 4AAC825E 		.ascii	"J\254\202^\032\0030\246G\016\272*\031\216\224\021Q\264"
 456      1A0330A6 
 456      470EBA2A 
 456      198E9411 
 456      51B4
 457 0c0b 7A41D997 		.ascii	"zA\331\227\306\360$\202\304B\270$$\361\261\3378\353"
 457      C6F02482 
 457      C442B824 
 457      24F1B1DF 
 457      38EB
 458 0c1d 8D786522 		.ascii	"\215xe\"Z!J\311\300\3353f\000\272\316\324+'\244h\034"
 458      5A214AC9 
 458      C0DD3366 
 458      00BACED4 
 458      2B27A468 
 459 0c32 0C2512DE 		.ascii	"\014%\022\3364\031\372\\S\223di\003\321\2707\034\217"
 459      3419FA5C 
 459      53936469 
 459      03D1B837 
 459      1C8F
 460 0c44 81027231 		.ascii	"\201\002r1\001\004\007\227\303\362\334\3119\270@\360"
 460      01040797 
 460      C3F2DCC9 
 460      39B840F0 
 461 0c54 B12995C4 		.ascii	"\261)\225\304\020I,\007\277\016\312\2024U\220\246\271"
 461      10492C07 
 461      BF0ECA82 
 461      345590A6 
ARM GAS  /tmp/ccOkO5Hx.s 			page 37


 461      B9
 462 0c65 A41B2741 		.ascii	"\244\033'A\272Q\220n\026\244[\004i\212 \335*TH\360\350"
 462      BA51906E 
 462      16A45B04 
 462      698A20DD 
 462      2A5448F0 
 463 0c7a 26772208 		.ascii	"&w\"\010Mx\211\225sD\011\256\361\012\360\272\202p$$"
 463      4D788995 
 463      734409AE 
 463      F10AF0BA 
 463      82702424 
 464 0c8e 11D34395 		.ascii	"\021\323C\225b\241\234\224C2\010\353%\\\247\2028\032"
 464      62A19C94 
 464      433208EB 
 464      255CA782 
 464      381A
 465 0ca0 6BC84171 		.ascii	"k\310Aq\372\233W\256\214\227\211\364~vE\250<\351\256"
 465      FA9B57AE 
 465      8C9789F4 
 465      7E7645A8 
 465      3CE9AE
 466 0cb3 4C96C31D 		.ascii	"L\226\303\0353\015\312\353FJe\363\340\247BqnT\016C\015"
 466      330DCAEB 
 466      464A65F3 
 466      E0A74271 
 466      6E540E43 
 467 0cc8 CF1C393E 		.ascii	"\317\0349>\353\221\304X&\273\004&Jb,\014H\3569\262,"
 467      EB91C458 
 467      26BB0426 
 467      4A622C0C 
 467      48EE39B2 
 468 0cdd 254AA01B 		.ascii	"%J\240\033\222be(\021\001\323\034\370\023\224%2\263"
 468      92626528 
 468      1101D31C 
 468      F8139425 
 468      32B3
 469 0cef 7E778763 		.ascii	"~w\207c\340\270\356d\020\256\320\022\374\230\200\013"
 469      E0B8EE64 
 469      10AED012 
 469      FC98800B 
 470 0cff F85CC295 		.ascii	"\370\\\302\225\010V\215\322}\244\"\232\204b\243\015"
 470      08568DD2 
 470      7DA4229A 
 470      8462A30D 
 471 0d0f 5E439EF8 		.ascii	"^C\236\370\022\3019\241\250\034\215\225C\016\352\220"
 471      12C139A1 
 471      A81C8D95 
 471      430EEA90 
 472 0d1f 674509A0 		.ascii	"gE\011\240\030\252\240\375T\251\265\001\327\370\234"
 472      18AAA0FD 
 472      54A9B501 
 472      D7F89C
 473 0d2e 9828792A 		.ascii	"\230(y*\251\233\270#\244,x\340L\030\020\017\314zD\014"
 473      A99BB823 
 473      A42C78E0 
 473      4C18100F 
 473      CC7A440C 
ARM GAS  /tmp/ccOkO5Hx.s 			page 38


 474 0d42 CBF74090 		.ascii	"\313\367@\220r\223\361\221p\315\252\232]\254\375DCH"
 474      7293F191 
 474      70CDAA9A 
 474      5DACFD44 
 474      4348
 475 0d54 9196BF0B 		.ascii	"\221\226\277\013\306\012&\246\222\233\007A\316\252\244"
 475      C60A26A6 
 475      929B0741 
 475      CEAAA4
 476 0d63 9B0CA404 		.ascii	"\233\014\244\004P\272O\236\233A)\246\367\017\305\240"
 476      50BA4F9E 
 476      9B4129A6 
 476      F70FC5A0 
 477 0d73 EAA33E9A 		.ascii	"\352\243>\232\277\027r%\372\020%m\024\006\2034\232\004"
 477      BF177225 
 477      FA10256D 
 477      14068334 
 477      9A04
 478 0d85 2FD13313 		.ascii	"/\3213\023o\231|\353-\306\273i\223\377\013]\320%\207"
 478      6F997CEB 
 478      2DC6BB69 
 478      93FF0B5D 
 478      D02587
 479              		.text
 480              		.section	.gnu.lto_.symtab.d6c0548b9766465a,"",%progbits
 481 0000 5F686561 		.ascii	"_heap_init\000\000\000\000\000\000\000\000\000\000\000"
 481      705F696E 
 481      69740000 
 481      00000000 
 481      00000000 
 482 0015 00A10000 		.ascii	"\000\241\000\000\000chHeapObjectInit\000\000\000\000"
 482      00636848 
 482      6561704F 
 482      626A6563 
 482      74496E69 
 483 002e 00000000 		.ascii	"\000\000\000\000\000\000\000\000\255\000\000\000chH"
 483      00000000 
 483      AD000000 
 483      636848
 484 003d 65617041 		.ascii	"eapAlloc\000\000\000\000\000\000\000\000\000\000\000"
 484      6C6C6F63 
 484      00000000 
 484      00000000 
 484      000000
 485 0050 00830100 		.ascii	"\000\203\001\000\000chHeapFree\000\000\000\000\000\000"
 485      00636848 
 485      65617046 
 485      72656500 
 485      00000000 
 486 0065 00000000 		.ascii	"\000\000\000\000\000\000\213\001\000\000chHeapStatu"
 486      00008B01 
 486      00006368 
 486      48656170 
 486      53746174 
 487 007a 73000000 		.ascii	"s\000\000\000\000\000\000\000\000\000\000\000\000\222"
 487      00000000 
 487      00000000 
ARM GAS  /tmp/ccOkO5Hx.s 			page 39


 487      0092
 488 0088 01000063 		.ascii	"\001\000\000chCoreAlloc\000\000\002\000\000\000\000"
 488      68436F72 
 488      65416C6C 
 488      6F630000 
 488      02000000 
 489 009d 00000000 		.ascii	"\000\000\000\000\000\246\000\000\000chMtxObjectInit"
 489      00A60000 
 489      0063684D 
 489      74784F62 
 489      6A656374 
 490 00b5 00000200 		.ascii	"\000\000\002\000\000\000\000\000\000\000\000\000\234"
 490      00000000 
 490      00000000 
 490      9C
 491 00c2 01000063 		.ascii	"\001\000\000chMtxUnlock\000\000\002\000\000\000\000"
 491      684D7478 
 491      556E6C6F 
 491      636B0000 
 491      02000000 
 492 00d7 00000000 		.ascii	"\000\000\000\000\000\240\001\000\000chMtxLock\000\000"
 492      00A00100 
 492      0063684D 
 492      74784C6F 
 492      636B0000 
 493 00eb 02000000 		.ascii	"\002\000\000\000\000\000\000\000\000\000\242\001\000"
 493      00000000 
 493      0000A201 
 493      00
 494 00f8 00       		.ascii	"\000"
 495              		.text
 496              		.section	.gnu.lto_.opts,"",%progbits
 497 0000 272D6D63 		.ascii	"'-mcpu=cortex-m0' '-mno-thumb-interwork' '-mthumb' "
 497      70753D63 
 497      6F727465 
 497      782D6D30 
 497      2720272D 
 498 0033 272D6767 		.ascii	"'-ggdb' '-O0' '-fomit-frame-pointer' '-falign-funct"
 498      64622720 
 498      272D4F30 
 498      2720272D 
 498      666F6D69 
 499 0066 696F6E73 		.ascii	"ions=16' '-ffunction-sections' '-fdata-sections' '-"
 499      3D313627 
 499      20272D66 
 499      66756E63 
 499      74696F6E 
 500 0099 666E6F2D 		.ascii	"fno-common' '-flto'\000"
 500      636F6D6D 
 500      6F6E2720 
 500      272D666C 
 500      746F2700 
 501              		.text
 502              		.cfi_sections	.debug_frame
 503              		.section	.bss.default_heap,"aw",%nobits
 504              		.align	3
 505              		.type	default_heap, %object
ARM GAS  /tmp/ccOkO5Hx.s 			page 40


 506              		.size	default_heap, 32
 507              	default_heap:
 508 0000 00000000 		.space	32
 508      00000000 
 508      00000000 
 508      00000000 
 508      00000000 
 509              		.section	.text._heap_init,"ax",%progbits
 510              		.align	2
 511              		.p2align 4,,15
 512              		.global	_heap_init
 513              		.code	16
 514              		.thumb_func
 515              		.type	_heap_init, %function
 516              	_heap_init:
 517              	.LFB119:
 518              		.file 1 "/home/efe/ChibiOS/os/rt/src/chheap.c"
 519              		.loc 1 91 0
 520              		.cfi_startproc
 521 0000 08B5     		push	{r3, lr}
 522              		.cfi_def_cfa_offset 8
 523              		.cfi_offset 3, -8
 524              		.cfi_offset 14, -4
 525              		.loc 1 93 0
 526 0002 074B     		ldr	r3, .L2
 527 0004 074A     		ldr	r2, .L2+4
 528 0006 1A60     		str	r2, [r3]
 529              		.loc 1 94 0
 530 0008 054B     		ldr	r3, .L2
 531 000a 0022     		mov	r2, #0
 532 000c 9A60     		str	r2, [r3, #8]
 533              		.loc 1 95 0
 534 000e 044B     		ldr	r3, .L2
 535 0010 0022     		mov	r2, #0
 536 0012 DA60     		str	r2, [r3, #12]
 537              		.loc 1 97 0
 538 0014 044B     		ldr	r3, .L2+8
 539 0016 181C     		mov	r0, r3
 540 0018 FFF7FEFF 		bl	chMtxObjectInit
 541              		.loc 1 101 0
 542              		@ sp needed
 543 001c 08BD     		pop	{r3, pc}
 544              	.L3:
 545 001e C046     		.align	2
 546              	.L2:
 547 0020 00000000 		.word	default_heap
 548 0024 00000000 		.word	chCoreAlloc
 549 0028 10000000 		.word	default_heap+16
 550              		.cfi_endproc
 551              	.LFE119:
 552              		.size	_heap_init, .-_heap_init
 553 002c C046C046 		.section	.text.chHeapObjectInit,"ax",%progbits
 554              		.align	2
 555              		.p2align 4,,15
 556              		.global	chHeapObjectInit
 557              		.code	16
 558              		.thumb_func
ARM GAS  /tmp/ccOkO5Hx.s 			page 41


 559              		.type	chHeapObjectInit, %function
 560              	chHeapObjectInit:
 561              	.LFB120:
 562              		.loc 1 114 0
 563              		.cfi_startproc
 564 0000 00B5     		push	{lr}
 565              		.cfi_def_cfa_offset 4
 566              		.cfi_offset 14, -4
 567 0002 87B0     		sub	sp, sp, #28
 568              		.cfi_def_cfa_offset 32
 569 0004 0390     		str	r0, [sp, #12]
 570 0006 0291     		str	r1, [sp, #8]
 571 0008 0192     		str	r2, [sp, #4]
 572              		.loc 1 115 0
 573 000a 029B     		ldr	r3, [sp, #8]
 574 000c 0593     		str	r3, [sp, #20]
 575              		.loc 1 119 0
 576 000e 039B     		ldr	r3, [sp, #12]
 577 0010 0022     		mov	r2, #0
 578 0012 1A60     		str	r2, [r3]
 579              		.loc 1 120 0
 580 0014 039B     		ldr	r3, [sp, #12]
 581 0016 059A     		ldr	r2, [sp, #20]
 582 0018 9A60     		str	r2, [r3, #8]
 583              		.loc 1 121 0
 584 001a 039B     		ldr	r3, [sp, #12]
 585 001c 0022     		mov	r2, #0
 586 001e DA60     		str	r2, [r3, #12]
 587              		.loc 1 122 0
 588 0020 059B     		ldr	r3, [sp, #20]
 589 0022 0022     		mov	r2, #0
 590 0024 1A60     		str	r2, [r3]
 591              		.loc 1 123 0
 592 0026 019B     		ldr	r3, [sp, #4]
 593 0028 1A1C     		mov	r2, r3
 594 002a 083A     		sub	r2, r2, #8
 595 002c 059B     		ldr	r3, [sp, #20]
 596 002e 5A60     		str	r2, [r3, #4]
 597              		.loc 1 125 0
 598 0030 039B     		ldr	r3, [sp, #12]
 599 0032 1033     		add	r3, r3, #16
 600 0034 181C     		mov	r0, r3
 601 0036 FFF7FEFF 		bl	chMtxObjectInit
 602              		.loc 1 129 0
 603 003a 07B0     		add	sp, sp, #28
 604              		@ sp needed
 605 003c 00BD     		pop	{pc}
 606              		.cfi_endproc
 607              	.LFE120:
 608              		.size	chHeapObjectInit, .-chHeapObjectInit
 609 003e C046     		.section	.text.chHeapAlloc,"ax",%progbits
 610              		.align	2
 611              		.p2align 4,,15
 612              		.global	chHeapAlloc
 613              		.code	16
 614              		.thumb_func
 615              		.type	chHeapAlloc, %function
ARM GAS  /tmp/ccOkO5Hx.s 			page 42


 616              	chHeapAlloc:
 617              	.LFB121:
 618              		.loc 1 147 0
 619              		.cfi_startproc
 620 0000 00B5     		push	{lr}
 621              		.cfi_def_cfa_offset 4
 622              		.cfi_offset 14, -4
 623 0002 87B0     		sub	sp, sp, #28
 624              		.cfi_def_cfa_offset 32
 625 0004 0190     		str	r0, [sp, #4]
 626 0006 0091     		str	r1, [sp]
 627              		.loc 1 150 0
 628 0008 019B     		ldr	r3, [sp, #4]
 629 000a 002B     		cmp	r3, #0
 630 000c 01D1     		bne	.L6
 631              		.loc 1 151 0
 632 000e 374B     		ldr	r3, .L14
 633 0010 0193     		str	r3, [sp, #4]
 634              	.L6:
 635              		.loc 1 154 0
 636 0012 009B     		ldr	r3, [sp]
 637 0014 0733     		add	r3, r3, #7
 638 0016 0722     		mov	r2, #7
 639 0018 9343     		bic	r3, r2
 640 001a 0093     		str	r3, [sp]
 641              		.loc 1 155 0
 642 001c 019B     		ldr	r3, [sp, #4]
 643 001e 0833     		add	r3, r3, #8
 644 0020 0593     		str	r3, [sp, #20]
 645              		.loc 1 157 0
 646 0022 019B     		ldr	r3, [sp, #4]
 647 0024 1033     		add	r3, r3, #16
 648 0026 181C     		mov	r0, r3
 649 0028 FFF7FEFF 		bl	chMtxLock
 650              		.loc 1 158 0
 651 002c 36E0     		b	.L7
 652              	.L12:
 653              		.loc 1 159 0
 654 002e 059B     		ldr	r3, [sp, #20]
 655 0030 1B68     		ldr	r3, [r3]
 656 0032 0493     		str	r3, [sp, #16]
 657              		.loc 1 160 0
 658 0034 049B     		ldr	r3, [sp, #16]
 659 0036 5A68     		ldr	r2, [r3, #4]
 660 0038 009B     		ldr	r3, [sp]
 661 003a 9A42     		cmp	r2, r3
 662 003c 2CD3     		bcc	.L8
 663              		.loc 1 161 0
 664 003e 049B     		ldr	r3, [sp, #16]
 665 0040 5A68     		ldr	r2, [r3, #4]
 666 0042 009B     		ldr	r3, [sp]
 667 0044 0833     		add	r3, r3, #8
 668 0046 9A42     		cmp	r2, r3
 669 0048 04D2     		bcs	.L9
 670              		.loc 1 165 0
 671 004a 049B     		ldr	r3, [sp, #16]
 672 004c 1A68     		ldr	r2, [r3]
ARM GAS  /tmp/ccOkO5Hx.s 			page 43


 673 004e 059B     		ldr	r3, [sp, #20]
 674 0050 1A60     		str	r2, [r3]
 675 0052 16E0     		b	.L10
 676              	.L9:
 677              		.loc 1 170 0
 678 0054 009B     		ldr	r3, [sp]
 679 0056 0833     		add	r3, r3, #8
 680 0058 049A     		ldr	r2, [sp, #16]
 681 005a D318     		add	r3, r2, r3
 682 005c 0393     		str	r3, [sp, #12]
 683              		.loc 1 172 0
 684 005e 049B     		ldr	r3, [sp, #16]
 685 0060 1A68     		ldr	r2, [r3]
 686 0062 039B     		ldr	r3, [sp, #12]
 687 0064 1A60     		str	r2, [r3]
 688              		.loc 1 173 0
 689 0066 049B     		ldr	r3, [sp, #16]
 690 0068 5A68     		ldr	r2, [r3, #4]
 691 006a 009B     		ldr	r3, [sp]
 692 006c D31A     		sub	r3, r2, r3
 693 006e 1A1C     		mov	r2, r3
 694 0070 083A     		sub	r2, r2, #8
 695 0072 039B     		ldr	r3, [sp, #12]
 696 0074 5A60     		str	r2, [r3, #4]
 697              		.loc 1 174 0
 698 0076 059B     		ldr	r3, [sp, #20]
 699 0078 039A     		ldr	r2, [sp, #12]
 700 007a 1A60     		str	r2, [r3]
 701              		.loc 1 175 0
 702 007c 049B     		ldr	r3, [sp, #16]
 703 007e 009A     		ldr	r2, [sp]
 704 0080 5A60     		str	r2, [r3, #4]
 705              	.L10:
 706              		.loc 1 177 0
 707 0082 049B     		ldr	r3, [sp, #16]
 708 0084 019A     		ldr	r2, [sp, #4]
 709 0086 1A60     		str	r2, [r3]
 710              		.loc 1 178 0
 711 0088 019B     		ldr	r3, [sp, #4]
 712 008a 1033     		add	r3, r3, #16
 713 008c 181C     		mov	r0, r3
 714 008e FFF7FEFF 		bl	chMtxUnlock
 715              		.loc 1 181 0
 716 0092 049B     		ldr	r3, [sp, #16]
 717 0094 0833     		add	r3, r3, #8
 718 0096 25E0     		b	.L11
 719              	.L8:
 720              		.loc 1 184 0
 721 0098 049B     		ldr	r3, [sp, #16]
 722 009a 0593     		str	r3, [sp, #20]
 723              	.L7:
 724              		.loc 1 158 0 discriminator 1
 725 009c 059B     		ldr	r3, [sp, #20]
 726 009e 1B68     		ldr	r3, [r3]
 727 00a0 002B     		cmp	r3, #0
 728 00a2 C4D1     		bne	.L12
 729              		.loc 1 186 0
ARM GAS  /tmp/ccOkO5Hx.s 			page 44


 730 00a4 019B     		ldr	r3, [sp, #4]
 731 00a6 1033     		add	r3, r3, #16
 732 00a8 181C     		mov	r0, r3
 733 00aa FFF7FEFF 		bl	chMtxUnlock
 734              		.loc 1 190 0
 735 00ae 019B     		ldr	r3, [sp, #4]
 736 00b0 1B68     		ldr	r3, [r3]
 737 00b2 002B     		cmp	r3, #0
 738 00b4 15D0     		beq	.L13
 739              		.loc 1 191 0
 740 00b6 019B     		ldr	r3, [sp, #4]
 741 00b8 1B68     		ldr	r3, [r3]
 742 00ba 009A     		ldr	r2, [sp]
 743 00bc 0832     		add	r2, r2, #8
 744 00be 101C     		mov	r0, r2
 745 00c0 9847     		blx	r3
 746 00c2 031C     		mov	r3, r0
 747 00c4 0493     		str	r3, [sp, #16]
 748              		.loc 1 192 0
 749 00c6 049B     		ldr	r3, [sp, #16]
 750 00c8 002B     		cmp	r3, #0
 751 00ca 0AD0     		beq	.L13
 752              		.loc 1 193 0
 753 00cc 049B     		ldr	r3, [sp, #16]
 754 00ce 019A     		ldr	r2, [sp, #4]
 755 00d0 1A60     		str	r2, [r3]
 756              		.loc 1 194 0
 757 00d2 049B     		ldr	r3, [sp, #16]
 758 00d4 009A     		ldr	r2, [sp]
 759 00d6 5A60     		str	r2, [r3, #4]
 760              		.loc 1 195 0
 761 00d8 049B     		ldr	r3, [sp, #16]
 762 00da 0833     		add	r3, r3, #8
 763 00dc 0493     		str	r3, [sp, #16]
 764              		.loc 1 198 0
 765 00de 049B     		ldr	r3, [sp, #16]
 766 00e0 00E0     		b	.L11
 767              	.L13:
 768              		.loc 1 203 0
 769 00e2 0023     		mov	r3, #0
 770              	.L11:
 771              		.loc 1 204 0
 772 00e4 181C     		mov	r0, r3
 773 00e6 07B0     		add	sp, sp, #28
 774              		@ sp needed
 775 00e8 00BD     		pop	{pc}
 776              	.L15:
 777 00ea C046     		.align	2
 778              	.L14:
 779 00ec 00000000 		.word	default_heap
 780              		.cfi_endproc
 781              	.LFE121:
 782              		.size	chHeapAlloc, .-chHeapAlloc
 783              		.section	.text.chHeapFree,"ax",%progbits
 784              		.align	2
 785              		.p2align 4,,15
 786              		.global	chHeapFree
ARM GAS  /tmp/ccOkO5Hx.s 			page 45


 787              		.code	16
 788              		.thumb_func
 789              		.type	chHeapFree, %function
 790              	chHeapFree:
 791              	.LFB122:
 792              		.loc 1 213 0
 793              		.cfi_startproc
 794 0000 00B5     		push	{lr}
 795              		.cfi_def_cfa_offset 4
 796              		.cfi_offset 14, -4
 797 0002 87B0     		sub	sp, sp, #28
 798              		.cfi_def_cfa_offset 32
 799 0004 0190     		str	r0, [sp, #4]
 800              		.loc 1 220 0
 801 0006 019B     		ldr	r3, [sp, #4]
 802 0008 083B     		sub	r3, r3, #8
 803 000a 0493     		str	r3, [sp, #16]
 804              		.loc 1 222 0
 805 000c 049B     		ldr	r3, [sp, #16]
 806 000e 1B68     		ldr	r3, [r3]
 807 0010 0393     		str	r3, [sp, #12]
 808              		.loc 1 223 0
 809 0012 039B     		ldr	r3, [sp, #12]
 810 0014 0833     		add	r3, r3, #8
 811 0016 0593     		str	r3, [sp, #20]
 812              		.loc 1 225 0
 813 0018 039B     		ldr	r3, [sp, #12]
 814 001a 1033     		add	r3, r3, #16
 815 001c 181C     		mov	r0, r3
 816 001e FFF7FEFF 		bl	chMtxLock
 817              	.L23:
 818              		.loc 1 229 0
 819 0022 039B     		ldr	r3, [sp, #12]
 820 0024 1A1C     		mov	r2, r3
 821 0026 0832     		add	r2, r2, #8
 822 0028 059B     		ldr	r3, [sp, #20]
 823 002a 9A42     		cmp	r2, r3
 824 002c 03D0     		beq	.L17
 825              		.loc 1 229 0 is_stmt 0 discriminator 2
 826 002e 049A     		ldr	r2, [sp, #16]
 827 0030 059B     		ldr	r3, [sp, #20]
 828 0032 9A42     		cmp	r2, r3
 829 0034 3ED9     		bls	.L18
 830              	.L17:
 831              		.loc 1 230 0 is_stmt 1 discriminator 1
 832 0036 059B     		ldr	r3, [sp, #20]
 833 0038 1B68     		ldr	r3, [r3]
 834              		.loc 1 229 0 discriminator 1
 835 003a 002B     		cmp	r3, #0
 836 003c 04D0     		beq	.L19
 837              		.loc 1 230 0
 838 003e 059B     		ldr	r3, [sp, #20]
 839 0040 1A68     		ldr	r2, [r3]
 840 0042 049B     		ldr	r3, [sp, #16]
 841 0044 9A42     		cmp	r2, r3
 842 0046 35D9     		bls	.L18
 843              	.L19:
ARM GAS  /tmp/ccOkO5Hx.s 			page 46


 844              		.loc 1 232 0
 845 0048 059B     		ldr	r3, [sp, #20]
 846 004a 1A68     		ldr	r2, [r3]
 847 004c 049B     		ldr	r3, [sp, #16]
 848 004e 1A60     		str	r2, [r3]
 849              		.loc 1 233 0
 850 0050 059B     		ldr	r3, [sp, #20]
 851 0052 049A     		ldr	r2, [sp, #16]
 852 0054 1A60     		str	r2, [r3]
 853              		.loc 1 235 0
 854 0056 049B     		ldr	r3, [sp, #16]
 855 0058 5B68     		ldr	r3, [r3, #4]
 856 005a 0833     		add	r3, r3, #8
 857 005c 049A     		ldr	r2, [sp, #16]
 858 005e D218     		add	r2, r2, r3
 859 0060 049B     		ldr	r3, [sp, #16]
 860 0062 1B68     		ldr	r3, [r3]
 861 0064 9A42     		cmp	r2, r3
 862 0066 0ED1     		bne	.L20
 863              		.loc 1 237 0
 864 0068 049B     		ldr	r3, [sp, #16]
 865 006a 5A68     		ldr	r2, [r3, #4]
 866 006c 049B     		ldr	r3, [sp, #16]
 867 006e 1B68     		ldr	r3, [r3]
 868 0070 5B68     		ldr	r3, [r3, #4]
 869 0072 D318     		add	r3, r2, r3
 870 0074 1A1C     		mov	r2, r3
 871 0076 0832     		add	r2, r2, #8
 872 0078 049B     		ldr	r3, [sp, #16]
 873 007a 5A60     		str	r2, [r3, #4]
 874              		.loc 1 238 0
 875 007c 049B     		ldr	r3, [sp, #16]
 876 007e 1B68     		ldr	r3, [r3]
 877 0080 1A68     		ldr	r2, [r3]
 878 0082 049B     		ldr	r3, [sp, #16]
 879 0084 1A60     		str	r2, [r3]
 880              	.L20:
 881              		.loc 1 240 0
 882 0086 059B     		ldr	r3, [sp, #20]
 883 0088 5B68     		ldr	r3, [r3, #4]
 884 008a 0833     		add	r3, r3, #8
 885 008c 059A     		ldr	r2, [sp, #20]
 886 008e D218     		add	r2, r2, r3
 887 0090 049B     		ldr	r3, [sp, #16]
 888 0092 9A42     		cmp	r2, r3
 889 0094 0DD1     		bne	.L21
 890              		.loc 1 242 0
 891 0096 059B     		ldr	r3, [sp, #20]
 892 0098 5A68     		ldr	r2, [r3, #4]
 893 009a 049B     		ldr	r3, [sp, #16]
 894 009c 5B68     		ldr	r3, [r3, #4]
 895 009e D318     		add	r3, r2, r3
 896 00a0 1A1C     		mov	r2, r3
 897 00a2 0832     		add	r2, r2, #8
 898 00a4 059B     		ldr	r3, [sp, #20]
 899 00a6 5A60     		str	r2, [r3, #4]
 900              		.loc 1 243 0
ARM GAS  /tmp/ccOkO5Hx.s 			page 47


 901 00a8 049B     		ldr	r3, [sp, #16]
 902 00aa 1A68     		ldr	r2, [r3]
 903 00ac 059B     		ldr	r3, [sp, #20]
 904 00ae 1A60     		str	r2, [r3]
 905              		.loc 1 245 0
 906 00b0 04E0     		b	.L22
 907              	.L21:
 908 00b2 03E0     		b	.L22
 909              	.L18:
 910              		.loc 1 247 0
 911 00b4 059B     		ldr	r3, [sp, #20]
 912 00b6 1B68     		ldr	r3, [r3]
 913 00b8 0593     		str	r3, [sp, #20]
 914              		.loc 1 248 0
 915 00ba B2E7     		b	.L23
 916              	.L22:
 917              		.loc 1 249 0
 918 00bc 039B     		ldr	r3, [sp, #12]
 919 00be 1033     		add	r3, r3, #16
 920 00c0 181C     		mov	r0, r3
 921 00c2 FFF7FEFF 		bl	chMtxUnlock
 922              		.loc 1 251 0
 923 00c6 C046     		mov	r8, r8
 924              		.loc 1 252 0
 925 00c8 07B0     		add	sp, sp, #28
 926              		@ sp needed
 927 00ca 00BD     		pop	{pc}
 928              		.cfi_endproc
 929              	.LFE122:
 930              		.size	chHeapFree, .-chHeapFree
 931 00cc C046C046 		.section	.text.chHeapStatus,"ax",%progbits
 932              		.align	2
 933              		.p2align 4,,15
 934              		.global	chHeapStatus
 935              		.code	16
 936              		.thumb_func
 937              		.type	chHeapStatus, %function
 938              	chHeapStatus:
 939              	.LFB123:
 940              		.loc 1 267 0
 941              		.cfi_startproc
 942 0000 00B5     		push	{lr}
 943              		.cfi_def_cfa_offset 4
 944              		.cfi_offset 14, -4
 945 0002 87B0     		sub	sp, sp, #28
 946              		.cfi_def_cfa_offset 32
 947 0004 0190     		str	r0, [sp, #4]
 948 0006 0091     		str	r1, [sp]
 949              		.loc 1 271 0
 950 0008 019B     		ldr	r3, [sp, #4]
 951 000a 002B     		cmp	r3, #0
 952 000c 01D1     		bne	.L26
 953              		.loc 1 272 0
 954 000e 174B     		ldr	r3, .L31
 955 0010 0193     		str	r3, [sp, #4]
 956              	.L26:
 957              		.loc 1 275 0
ARM GAS  /tmp/ccOkO5Hx.s 			page 48


 958 0012 019B     		ldr	r3, [sp, #4]
 959 0014 1033     		add	r3, r3, #16
 960 0016 181C     		mov	r0, r3
 961 0018 FFF7FEFF 		bl	chMtxLock
 962              		.loc 1 276 0
 963 001c 0023     		mov	r3, #0
 964 001e 0393     		str	r3, [sp, #12]
 965              		.loc 1 277 0
 966 0020 0023     		mov	r3, #0
 967 0022 0493     		str	r3, [sp, #16]
 968              		.loc 1 278 0
 969 0024 019B     		ldr	r3, [sp, #4]
 970 0026 0833     		add	r3, r3, #8
 971 0028 0593     		str	r3, [sp, #20]
 972              		.loc 1 279 0
 973 002a 0BE0     		b	.L27
 974              	.L28:
 975              		.loc 1 280 0
 976 002c 059B     		ldr	r3, [sp, #20]
 977 002e 1B68     		ldr	r3, [r3]
 978 0030 5B68     		ldr	r3, [r3, #4]
 979 0032 039A     		ldr	r2, [sp, #12]
 980 0034 D318     		add	r3, r2, r3
 981 0036 0393     		str	r3, [sp, #12]
 982              		.loc 1 281 0
 983 0038 049B     		ldr	r3, [sp, #16]
 984 003a 0133     		add	r3, r3, #1
 985 003c 0493     		str	r3, [sp, #16]
 986              		.loc 1 282 0
 987 003e 059B     		ldr	r3, [sp, #20]
 988 0040 1B68     		ldr	r3, [r3]
 989 0042 0593     		str	r3, [sp, #20]
 990              	.L27:
 991              		.loc 1 279 0 discriminator 1
 992 0044 059B     		ldr	r3, [sp, #20]
 993 0046 1B68     		ldr	r3, [r3]
 994 0048 002B     		cmp	r3, #0
 995 004a EFD1     		bne	.L28
 996              		.loc 1 284 0
 997 004c 009B     		ldr	r3, [sp]
 998 004e 002B     		cmp	r3, #0
 999 0050 02D0     		beq	.L29
 1000              		.loc 1 285 0
 1001 0052 009B     		ldr	r3, [sp]
 1002 0054 039A     		ldr	r2, [sp, #12]
 1003 0056 1A60     		str	r2, [r3]
 1004              	.L29:
 1005              		.loc 1 287 0
 1006 0058 019B     		ldr	r3, [sp, #4]
 1007 005a 1033     		add	r3, r3, #16
 1008 005c 181C     		mov	r0, r3
 1009 005e FFF7FEFF 		bl	chMtxUnlock
 1010              		.loc 1 289 0
 1011 0062 049B     		ldr	r3, [sp, #16]
 1012              		.loc 1 290 0
 1013 0064 181C     		mov	r0, r3
 1014 0066 07B0     		add	sp, sp, #28
ARM GAS  /tmp/ccOkO5Hx.s 			page 49


 1015              		@ sp needed
 1016 0068 00BD     		pop	{pc}
 1017              	.L32:
 1018 006a C046     		.align	2
 1019              	.L31:
 1020 006c 00000000 		.word	default_heap
 1021              		.cfi_endproc
 1022              	.LFE123:
 1023              		.size	chHeapStatus, .-chHeapStatus
 1024              		.text
 1025              	.Letext0:
 1026              		.file 2 "/usr/lib/gcc/arm-none-eabi/4.8/include/stddef.h"
 1027              		.file 3 "/usr/include/newlib/machine/_default_types.h"
 1028              		.file 4 "/usr/include/newlib/stdint.h"
 1029              		.file 5 "/home/efe/ChibiOS/os/rt/ports/ARMCMx/compilers/GCC/chtypes.h"
 1030              		.file 6 "/home/efe/ChibiOS/os/rt/include/chsystypes.h"
 1031              		.file 7 "/home/efe/ChibiOS/os/rt/include/chschd.h"
 1032              		.file 8 "/home/efe/ChibiOS/os/rt/ports/ARMCMx/chcore.h"
 1033              		.file 9 "/home/efe/ChibiOS/os/rt/ports/ARMCMx/chcore_v6m.h"
 1034              		.file 10 "/home/efe/ChibiOS/os/rt/include/chsem.h"
 1035              		.file 11 "/home/efe/ChibiOS/os/rt/include/chmtx.h"
 1036              		.file 12 "/home/efe/ChibiOS/os/rt/include/chmemcore.h"
 1037              		.file 13 "/home/efe/ChibiOS/os/rt/include/chheap.h"
 1038              		.section	.debug_info,"",%progbits
 1039              	.Ldebug_info0:
 1040 0000 1A080000 		.4byte	0x81a
 1041 0004 0400     		.2byte	0x4
 1042 0006 00000000 		.4byte	.Ldebug_abbrev0
 1043 000a 04       		.byte	0x4
 1044 000b 01       		.uleb128 0x1
 1045 000c BC020000 		.4byte	.LASF112
 1046 0010 01       		.byte	0x1
 1047 0011 7A030000 		.4byte	.LASF113
 1048 0015 00000000 		.4byte	.Ldebug_ranges0+0
 1049 0019 00000000 		.4byte	0
 1050 001d 00000000 		.4byte	.Ldebug_line0
 1051 0021 02       		.uleb128 0x2
 1052 0022 04       		.byte	0x4
 1053 0023 05       		.byte	0x5
 1054 0024 696E7400 		.ascii	"int\000"
 1055 0028 03       		.uleb128 0x3
 1056 0029 A5010000 		.4byte	.LASF2
 1057 002d 02       		.byte	0x2
 1058 002e D4       		.byte	0xd4
 1059 002f 33000000 		.4byte	0x33
 1060 0033 04       		.uleb128 0x4
 1061 0034 04       		.byte	0x4
 1062 0035 07       		.byte	0x7
 1063 0036 60000000 		.4byte	.LASF0
 1064 003a 04       		.uleb128 0x4
 1065 003b 01       		.byte	0x1
 1066 003c 06       		.byte	0x6
 1067 003d 13050000 		.4byte	.LASF1
 1068 0041 03       		.uleb128 0x3
 1069 0042 52040000 		.4byte	.LASF3
 1070 0046 03       		.byte	0x3
 1071 0047 1D       		.byte	0x1d
ARM GAS  /tmp/ccOkO5Hx.s 			page 50


 1072 0048 4C000000 		.4byte	0x4c
 1073 004c 04       		.uleb128 0x4
 1074 004d 01       		.byte	0x1
 1075 004e 08       		.byte	0x8
 1076 004f BD040000 		.4byte	.LASF4
 1077 0053 04       		.uleb128 0x4
 1078 0054 02       		.byte	0x2
 1079 0055 05       		.byte	0x5
 1080 0056 EF030000 		.4byte	.LASF5
 1081 005a 03       		.uleb128 0x3
 1082 005b 60010000 		.4byte	.LASF6
 1083 005f 03       		.byte	0x3
 1084 0060 2B       		.byte	0x2b
 1085 0061 65000000 		.4byte	0x65
 1086 0065 04       		.uleb128 0x4
 1087 0066 02       		.byte	0x2
 1088 0067 07       		.byte	0x7
 1089 0068 1F050000 		.4byte	.LASF7
 1090 006c 03       		.uleb128 0x3
 1091 006d 81000000 		.4byte	.LASF8
 1092 0071 03       		.byte	0x3
 1093 0072 3F       		.byte	0x3f
 1094 0073 77000000 		.4byte	0x77
 1095 0077 04       		.uleb128 0x4
 1096 0078 04       		.byte	0x4
 1097 0079 05       		.byte	0x5
 1098 007a 17040000 		.4byte	.LASF9
 1099 007e 03       		.uleb128 0x3
 1100 007f CB040000 		.4byte	.LASF10
 1101 0083 03       		.byte	0x3
 1102 0084 41       		.byte	0x41
 1103 0085 89000000 		.4byte	0x89
 1104 0089 04       		.uleb128 0x4
 1105 008a 04       		.byte	0x4
 1106 008b 07       		.byte	0x7
 1107 008c 79040000 		.4byte	.LASF11
 1108 0090 04       		.uleb128 0x4
 1109 0091 08       		.byte	0x8
 1110 0092 05       		.byte	0x5
 1111 0093 68020000 		.4byte	.LASF12
 1112 0097 03       		.uleb128 0x3
 1113 0098 C7010000 		.4byte	.LASF13
 1114 009c 03       		.byte	0x3
 1115 009d 5B       		.byte	0x5b
 1116 009e A2000000 		.4byte	0xa2
 1117 00a2 04       		.uleb128 0x4
 1118 00a3 08       		.byte	0x8
 1119 00a4 07       		.byte	0x7
 1120 00a5 49010000 		.4byte	.LASF14
 1121 00a9 03       		.uleb128 0x3
 1122 00aa 25020000 		.4byte	.LASF15
 1123 00ae 04       		.byte	0x4
 1124 00af 2A       		.byte	0x2a
 1125 00b0 41000000 		.4byte	0x41
 1126 00b4 03       		.uleb128 0x3
 1127 00b5 DB030000 		.4byte	.LASF16
 1128 00b9 04       		.byte	0x4
ARM GAS  /tmp/ccOkO5Hx.s 			page 51


 1129 00ba 36       		.byte	0x36
 1130 00bb 5A000000 		.4byte	0x5a
 1131 00bf 03       		.uleb128 0x3
 1132 00c0 98040000 		.4byte	.LASF17
 1133 00c4 04       		.byte	0x4
 1134 00c5 41       		.byte	0x41
 1135 00c6 6C000000 		.4byte	0x6c
 1136 00ca 03       		.uleb128 0x3
 1137 00cb FF000000 		.4byte	.LASF18
 1138 00cf 04       		.byte	0x4
 1139 00d0 42       		.byte	0x42
 1140 00d1 7E000000 		.4byte	0x7e
 1141 00d5 03       		.uleb128 0x3
 1142 00d6 3D040000 		.4byte	.LASF19
 1143 00da 04       		.byte	0x4
 1144 00db 4E       		.byte	0x4e
 1145 00dc 97000000 		.4byte	0x97
 1146 00e0 03       		.uleb128 0x3
 1147 00e1 B7030000 		.4byte	.LASF20
 1148 00e5 05       		.byte	0x5
 1149 00e6 3C       		.byte	0x3c
 1150 00e7 A9000000 		.4byte	0xa9
 1151 00eb 03       		.uleb128 0x3
 1152 00ec 0C020000 		.4byte	.LASF21
 1153 00f0 05       		.byte	0x5
 1154 00f1 3D       		.byte	0x3d
 1155 00f2 A9000000 		.4byte	0xa9
 1156 00f6 03       		.uleb128 0x3
 1157 00f7 30010000 		.4byte	.LASF22
 1158 00fb 05       		.byte	0x5
 1159 00fc 40       		.byte	0x40
 1160 00fd CA000000 		.4byte	0xca
 1161 0101 03       		.uleb128 0x3
 1162 0102 86020000 		.4byte	.LASF23
 1163 0106 05       		.byte	0x5
 1164 0107 41       		.byte	0x41
 1165 0108 BF000000 		.4byte	0xbf
 1166 010c 03       		.uleb128 0x3
 1167 010d 6B010000 		.4byte	.LASF24
 1168 0111 05       		.byte	0x5
 1169 0112 45       		.byte	0x45
 1170 0113 BF000000 		.4byte	0xbf
 1171 0117 03       		.uleb128 0x3
 1172 0118 46000000 		.4byte	.LASF25
 1173 011c 06       		.byte	0x6
 1174 011d 35       		.byte	0x35
 1175 011e B4000000 		.4byte	0xb4
 1176 0122 03       		.uleb128 0x3
 1177 0123 90010000 		.4byte	.LASF26
 1178 0127 06       		.byte	0x6
 1179 0128 3F       		.byte	0x3f
 1180 0129 2D010000 		.4byte	0x12d
 1181 012d 05       		.uleb128 0x5
 1182 012e 49020000 		.4byte	.LASF41
 1183 0132 30       		.byte	0x30
 1184 0133 07       		.byte	0x7
 1185 0134 C2       		.byte	0xc2
ARM GAS  /tmp/ccOkO5Hx.s 			page 52


 1186 0135 DA010000 		.4byte	0x1da
 1187 0139 06       		.uleb128 0x6
 1188 013a 36040000 		.4byte	.LASF27
 1189 013e 07       		.byte	0x7
 1190 013f C3       		.byte	0xc3
 1191 0140 E5010000 		.4byte	0x1e5
 1192 0144 00       		.byte	0
 1193 0145 06       		.uleb128 0x6
 1194 0146 69040000 		.4byte	.LASF28
 1195 014a 07       		.byte	0x7
 1196 014b C5       		.byte	0xc5
 1197 014c E5010000 		.4byte	0x1e5
 1198 0150 04       		.byte	0x4
 1199 0151 06       		.uleb128 0x6
 1200 0152 3F000000 		.4byte	.LASF29
 1201 0156 07       		.byte	0x7
 1202 0157 C7       		.byte	0xc7
 1203 0158 F6000000 		.4byte	0xf6
 1204 015c 08       		.byte	0x8
 1205 015d 06       		.uleb128 0x6
 1206 015e 46040000 		.4byte	.LASF30
 1207 0162 07       		.byte	0x7
 1208 0163 C8       		.byte	0xc8
 1209 0164 09040000 		.4byte	0x409
 1210 0168 0C       		.byte	0xc
 1211 0169 06       		.uleb128 0x6
 1212 016a 71010000 		.4byte	.LASF31
 1213 016e 07       		.byte	0x7
 1214 016f CA       		.byte	0xca
 1215 0170 E5010000 		.4byte	0x1e5
 1216 0174 10       		.byte	0x10
 1217 0175 06       		.uleb128 0x6
 1218 0176 15020000 		.4byte	.LASF32
 1219 017a 07       		.byte	0x7
 1220 017b CB       		.byte	0xcb
 1221 017c E5010000 		.4byte	0x1e5
 1222 0180 14       		.byte	0x14
 1223 0181 06       		.uleb128 0x6
 1224 0182 D2010000 		.4byte	.LASF33
 1225 0186 07       		.byte	0x7
 1226 0187 D2       		.byte	0xd2
 1227 0188 53050000 		.4byte	0x553
 1228 018c 18       		.byte	0x18
 1229 018d 06       		.uleb128 0x6
 1230 018e 1D020000 		.4byte	.LASF34
 1231 0192 07       		.byte	0x7
 1232 0193 DD       		.byte	0xdd
 1233 0194 EB000000 		.4byte	0xeb
 1234 0198 1C       		.byte	0x1c
 1235 0199 06       		.uleb128 0x6
 1236 019a 9F020000 		.4byte	.LASF35
 1237 019e 07       		.byte	0x7
 1238 019f E1       		.byte	0xe1
 1239 01a0 E0000000 		.4byte	0xe0
 1240 01a4 1D       		.byte	0x1d
 1241 01a5 07       		.uleb128 0x7
 1242 01a6 705F7500 		.ascii	"p_u\000"
ARM GAS  /tmp/ccOkO5Hx.s 			page 53


 1243 01aa 07       		.byte	0x7
 1244 01ab 3101     		.2byte	0x131
 1245 01ad 9A040000 		.4byte	0x49a
 1246 01b1 20       		.byte	0x20
 1247 01b2 08       		.uleb128 0x8
 1248 01b3 20000000 		.4byte	.LASF36
 1249 01b7 07       		.byte	0x7
 1250 01b8 3601     		.2byte	0x136
 1251 01ba EB010000 		.4byte	0x1eb
 1252 01be 24       		.byte	0x24
 1253 01bf 08       		.uleb128 0x8
 1254 01c0 39020000 		.4byte	.LASF37
 1255 01c4 07       		.byte	0x7
 1256 01c5 4D01     		.2byte	0x14d
 1257 01c7 4D050000 		.4byte	0x54d
 1258 01cb 28       		.byte	0x28
 1259 01cc 08       		.uleb128 0x8
 1260 01cd E4030000 		.4byte	.LASF38
 1261 01d1 07       		.byte	0x7
 1262 01d2 5101     		.2byte	0x151
 1263 01d4 F6000000 		.4byte	0xf6
 1264 01d8 2C       		.byte	0x2c
 1265 01d9 00       		.byte	0
 1266 01da 03       		.uleb128 0x3
 1267 01db ED010000 		.4byte	.LASF39
 1268 01df 06       		.byte	0x6
 1269 01e0 44       		.byte	0x44
 1270 01e1 E5010000 		.4byte	0x1e5
 1271 01e5 09       		.uleb128 0x9
 1272 01e6 04       		.byte	0x4
 1273 01e7 22010000 		.4byte	0x122
 1274 01eb 03       		.uleb128 0x3
 1275 01ec 72000000 		.4byte	.LASF40
 1276 01f0 06       		.byte	0x6
 1277 01f1 49       		.byte	0x49
 1278 01f2 F6010000 		.4byte	0x1f6
 1279 01f6 05       		.uleb128 0x5
 1280 01f7 00000000 		.4byte	.LASF42
 1281 01fb 04       		.byte	0x4
 1282 01fc 07       		.byte	0x7
 1283 01fd B0       		.byte	0xb0
 1284 01fe 0F020000 		.4byte	0x20f
 1285 0202 06       		.uleb128 0x6
 1286 0203 36040000 		.4byte	.LASF27
 1287 0207 07       		.byte	0x7
 1288 0208 B1       		.byte	0xb1
 1289 0209 E5010000 		.4byte	0x1e5
 1290 020d 00       		.byte	0
 1291 020e 00       		.byte	0
 1292 020f 03       		.uleb128 0x3
 1293 0210 10000000 		.4byte	.LASF43
 1294 0214 06       		.byte	0x6
 1295 0215 50       		.byte	0x50
 1296 0216 1A020000 		.4byte	0x21a
 1297 021a 05       		.uleb128 0x5
 1298 021b C2000000 		.4byte	.LASF44
 1299 021f 08       		.byte	0x8
ARM GAS  /tmp/ccOkO5Hx.s 			page 54


 1300 0220 07       		.byte	0x7
 1301 0221 B7       		.byte	0xb7
 1302 0222 3F020000 		.4byte	0x23f
 1303 0226 06       		.uleb128 0x6
 1304 0227 36040000 		.4byte	.LASF27
 1305 022b 07       		.byte	0x7
 1306 022c B8       		.byte	0xb8
 1307 022d E5010000 		.4byte	0x1e5
 1308 0231 00       		.byte	0
 1309 0232 06       		.uleb128 0x6
 1310 0233 69040000 		.4byte	.LASF28
 1311 0237 07       		.byte	0x7
 1312 0238 B9       		.byte	0xb9
 1313 0239 E5010000 		.4byte	0x1e5
 1314 023d 04       		.byte	0x4
 1315 023e 00       		.byte	0
 1316 023f 03       		.uleb128 0x3
 1317 0240 8B040000 		.4byte	.LASF45
 1318 0244 06       		.byte	0x6
 1319 0245 57       		.byte	0x57
 1320 0246 4A020000 		.4byte	0x24a
 1321 024a 0A       		.uleb128 0xa
 1322 024b A5000000 		.4byte	.LASF46
 1323 024f 1C       		.byte	0x1c
 1324 0250 07       		.byte	0x7
 1325 0251 9001     		.2byte	0x190
 1326 0253 A6020000 		.4byte	0x2a6
 1327 0257 08       		.uleb128 0x8
 1328 0258 76020000 		.4byte	.LASF47
 1329 025c 07       		.byte	0x7
 1330 025d 9101     		.2byte	0x191
 1331 025f 0F020000 		.4byte	0x20f
 1332 0263 00       		.byte	0
 1333 0264 08       		.uleb128 0x8
 1334 0265 15010000 		.4byte	.LASF48
 1335 0269 07       		.byte	0x7
 1336 026a 9201     		.2byte	0x192
 1337 026c F6000000 		.4byte	0xf6
 1338 0270 08       		.byte	0x8
 1339 0271 08       		.uleb128 0x8
 1340 0272 32050000 		.4byte	.LASF49
 1341 0276 07       		.byte	0x7
 1342 0277 9401     		.2byte	0x194
 1343 0279 09040000 		.4byte	0x409
 1344 027d 0C       		.byte	0xc
 1345 027e 08       		.uleb128 0x8
 1346 027f 7E020000 		.4byte	.LASF50
 1347 0283 07       		.byte	0x7
 1348 0284 9701     		.2byte	0x197
 1349 0286 E5010000 		.4byte	0x1e5
 1350 028a 10       		.byte	0x10
 1351 028b 08       		.uleb128 0x8
 1352 028c 72030000 		.4byte	.LASF51
 1353 0290 07       		.byte	0x7
 1354 0291 9801     		.2byte	0x198
 1355 0293 E5010000 		.4byte	0x1e5
 1356 0297 14       		.byte	0x14
ARM GAS  /tmp/ccOkO5Hx.s 			page 55


 1357 0298 08       		.uleb128 0x8
 1358 0299 05040000 		.4byte	.LASF52
 1359 029d 07       		.byte	0x7
 1360 029e 9B01     		.2byte	0x19b
 1361 02a0 E5010000 		.4byte	0x1e5
 1362 02a4 18       		.byte	0x18
 1363 02a5 00       		.byte	0
 1364 02a6 03       		.uleb128 0x3
 1365 02a7 D3000000 		.4byte	.LASF53
 1366 02ab 06       		.byte	0x6
 1367 02ac 5C       		.byte	0x5c
 1368 02ad B1020000 		.4byte	0x2b1
 1369 02b1 09       		.uleb128 0x9
 1370 02b2 04       		.byte	0x4
 1371 02b3 B7020000 		.4byte	0x2b7
 1372 02b7 0B       		.uleb128 0xb
 1373 02b8 C2020000 		.4byte	0x2c2
 1374 02bc 0C       		.uleb128 0xc
 1375 02bd C2020000 		.4byte	0x2c2
 1376 02c1 00       		.byte	0
 1377 02c2 0D       		.uleb128 0xd
 1378 02c3 04       		.byte	0x4
 1379 02c4 03       		.uleb128 0x3
 1380 02c5 A7020000 		.4byte	.LASF54
 1381 02c9 06       		.byte	0x6
 1382 02ca 61       		.byte	0x61
 1383 02cb CF020000 		.4byte	0x2cf
 1384 02cf 0A       		.uleb128 0xa
 1385 02d0 38010000 		.4byte	.LASF55
 1386 02d4 14       		.byte	0x14
 1387 02d5 07       		.byte	0x7
 1388 02d6 6B01     		.2byte	0x16b
 1389 02d8 1E030000 		.4byte	0x31e
 1390 02dc 08       		.uleb128 0x8
 1391 02dd EC040000 		.4byte	.LASF56
 1392 02e1 07       		.byte	0x7
 1393 02e2 6C01     		.2byte	0x16c
 1394 02e4 65050000 		.4byte	0x565
 1395 02e8 00       		.byte	0
 1396 02e9 08       		.uleb128 0x8
 1397 02ea 4B050000 		.4byte	.LASF57
 1398 02ee 07       		.byte	0x7
 1399 02ef 6D01     		.2byte	0x16d
 1400 02f1 65050000 		.4byte	0x565
 1401 02f5 04       		.byte	0x4
 1402 02f6 08       		.uleb128 0x8
 1403 02f7 E4010000 		.4byte	.LASF58
 1404 02fb 07       		.byte	0x7
 1405 02fc 6E01     		.2byte	0x16e
 1406 02fe 17010000 		.4byte	0x117
 1407 0302 08       		.byte	0x8
 1408 0303 08       		.uleb128 0x8
 1409 0304 43050000 		.4byte	.LASF59
 1410 0308 07       		.byte	0x7
 1411 0309 6F01     		.2byte	0x16f
 1412 030b A6020000 		.4byte	0x2a6
 1413 030f 0C       		.byte	0xc
ARM GAS  /tmp/ccOkO5Hx.s 			page 56


 1414 0310 08       		.uleb128 0x8
 1415 0311 1C010000 		.4byte	.LASF60
 1416 0315 07       		.byte	0x7
 1417 0316 7101     		.2byte	0x171
 1418 0318 C2020000 		.4byte	0x2c2
 1419 031c 10       		.byte	0x10
 1420 031d 00       		.byte	0
 1421 031e 03       		.uleb128 0x3
 1422 031f D6040000 		.4byte	.LASF61
 1423 0323 06       		.byte	0x6
 1424 0324 66       		.byte	0x66
 1425 0325 29030000 		.4byte	0x329
 1426 0329 0A       		.uleb128 0xa
 1427 032a 79010000 		.4byte	.LASF62
 1428 032e 0C       		.byte	0xc
 1429 032f 07       		.byte	0x7
 1430 0330 7B01     		.2byte	0x17b
 1431 0332 6B030000 		.4byte	0x36b
 1432 0336 08       		.uleb128 0x8
 1433 0337 EC040000 		.4byte	.LASF56
 1434 033b 07       		.byte	0x7
 1435 033c 7C01     		.2byte	0x17c
 1436 033e 65050000 		.4byte	0x565
 1437 0342 00       		.byte	0
 1438 0343 08       		.uleb128 0x8
 1439 0344 4B050000 		.4byte	.LASF57
 1440 0348 07       		.byte	0x7
 1441 0349 7E01     		.2byte	0x17e
 1442 034b 65050000 		.4byte	0x565
 1443 034f 04       		.byte	0x4
 1444 0350 08       		.uleb128 0x8
 1445 0351 E4010000 		.4byte	.LASF58
 1446 0355 07       		.byte	0x7
 1447 0356 8001     		.2byte	0x180
 1448 0358 17010000 		.4byte	0x117
 1449 035c 08       		.byte	0x8
 1450 035d 08       		.uleb128 0x8
 1451 035e 00020000 		.4byte	.LASF63
 1452 0362 07       		.byte	0x7
 1453 0363 8801     		.2byte	0x188
 1454 0365 17010000 		.4byte	0x117
 1455 0369 0A       		.byte	0xa
 1456 036a 00       		.byte	0
 1457 036b 03       		.uleb128 0x3
 1458 036c 59020000 		.4byte	.LASF64
 1459 0370 06       		.byte	0x6
 1460 0371 6B       		.byte	0x6b
 1461 0372 76030000 		.4byte	0x376
 1462 0376 0A       		.uleb128 0xa
 1463 0377 E2000000 		.4byte	.LASF65
 1464 037b 04       		.byte	0x4
 1465 037c 07       		.byte	0x7
 1466 037d A201     		.2byte	0x1a2
 1467 037f 91030000 		.4byte	0x391
 1468 0383 08       		.uleb128 0x8
 1469 0384 AD030000 		.4byte	.LASF66
 1470 0388 07       		.byte	0x7
ARM GAS  /tmp/ccOkO5Hx.s 			page 57


 1471 0389 AA01     		.2byte	0x1aa
 1472 038b 6B050000 		.4byte	0x56b
 1473 038f 00       		.byte	0
 1474 0390 00       		.byte	0
 1475 0391 03       		.uleb128 0x3
 1476 0392 F4040000 		.4byte	.LASF67
 1477 0396 06       		.byte	0x6
 1478 0397 70       		.byte	0x70
 1479 0398 9C030000 		.4byte	0x39c
 1480 039c 0E       		.uleb128 0xe
 1481 039d 2C040000 		.4byte	.LASF68
 1482 03a1 2801     		.2byte	0x128
 1483 03a3 07       		.byte	0x7
 1484 03a4 C201     		.2byte	0x1c2
 1485 03a6 EC030000 		.4byte	0x3ec
 1486 03aa 08       		.uleb128 0x8
 1487 03ab 4C040000 		.4byte	.LASF69
 1488 03af 07       		.byte	0x7
 1489 03b0 C601     		.2byte	0x1c6
 1490 03b2 3F020000 		.4byte	0x23f
 1491 03b6 00       		.byte	0
 1492 03b7 08       		.uleb128 0x8
 1493 03b8 9E000000 		.4byte	.LASF70
 1494 03bc 07       		.byte	0x7
 1495 03bd CA01     		.2byte	0x1ca
 1496 03bf 1E030000 		.4byte	0x31e
 1497 03c3 1C       		.byte	0x1c
 1498 03c4 07       		.uleb128 0x7
 1499 03c5 64626700 		.ascii	"dbg\000"
 1500 03c9 07       		.byte	0x7
 1501 03ca CE01     		.2byte	0x1ce
 1502 03cc 6B030000 		.4byte	0x36b
 1503 03d0 28       		.byte	0x28
 1504 03d1 08       		.uleb128 0x8
 1505 03d2 BF030000 		.4byte	.LASF71
 1506 03d6 07       		.byte	0x7
 1507 03d7 D201     		.2byte	0x1d2
 1508 03d9 22010000 		.4byte	0x122
 1509 03dd 2C       		.byte	0x2c
 1510 03de 08       		.uleb128 0x8
 1511 03df B3000000 		.4byte	.LASF72
 1512 03e3 07       		.byte	0x7
 1513 03e4 E301     		.2byte	0x1e3
 1514 03e6 70050000 		.4byte	0x570
 1515 03ea 60       		.byte	0x60
 1516 03eb 00       		.byte	0
 1517 03ec 04       		.uleb128 0x4
 1518 03ed 04       		.byte	0x4
 1519 03ee 07       		.byte	0x7
 1520 03ef 70040000 		.4byte	.LASF73
 1521 03f3 03       		.uleb128 0x3
 1522 03f4 36000000 		.4byte	.LASF74
 1523 03f8 08       		.byte	0x8
 1524 03f9 65       		.byte	0x65
 1525 03fa C2020000 		.4byte	0x2c2
 1526 03fe 03       		.uleb128 0x3
 1527 03ff 38050000 		.4byte	.LASF75
ARM GAS  /tmp/ccOkO5Hx.s 			page 58


 1528 0403 08       		.byte	0x8
 1529 0404 6D       		.byte	0x6d
 1530 0405 D5000000 		.4byte	0xd5
 1531 0409 05       		.uleb128 0x5
 1532 040a 97020000 		.4byte	.LASF76
 1533 040e 04       		.byte	0x4
 1534 040f 08       		.byte	0x8
 1535 0410 89       		.byte	0x89
 1536 0411 22040000 		.4byte	0x422
 1537 0415 0F       		.uleb128 0xf
 1538 0416 72313300 		.ascii	"r13\000"
 1539 041a 08       		.byte	0x8
 1540 041b 8A       		.byte	0x8a
 1541 041c 94040000 		.4byte	0x494
 1542 0420 00       		.byte	0
 1543 0421 00       		.byte	0
 1544 0422 05       		.uleb128 0x5
 1545 0423 20040000 		.4byte	.LASF77
 1546 0427 24       		.byte	0x24
 1547 0428 09       		.byte	0x9
 1548 0429 A4       		.byte	0xa4
 1549 042a 94040000 		.4byte	0x494
 1550 042e 0F       		.uleb128 0xf
 1551 042f 723800   		.ascii	"r8\000"
 1552 0432 09       		.byte	0x9
 1553 0433 A5       		.byte	0xa5
 1554 0434 F3030000 		.4byte	0x3f3
 1555 0438 00       		.byte	0
 1556 0439 0F       		.uleb128 0xf
 1557 043a 723900   		.ascii	"r9\000"
 1558 043d 09       		.byte	0x9
 1559 043e A6       		.byte	0xa6
 1560 043f F3030000 		.4byte	0x3f3
 1561 0443 04       		.byte	0x4
 1562 0444 0F       		.uleb128 0xf
 1563 0445 72313000 		.ascii	"r10\000"
 1564 0449 09       		.byte	0x9
 1565 044a A7       		.byte	0xa7
 1566 044b F3030000 		.4byte	0x3f3
 1567 044f 08       		.byte	0x8
 1568 0450 0F       		.uleb128 0xf
 1569 0451 72313100 		.ascii	"r11\000"
 1570 0455 09       		.byte	0x9
 1571 0456 A8       		.byte	0xa8
 1572 0457 F3030000 		.4byte	0x3f3
 1573 045b 0C       		.byte	0xc
 1574 045c 0F       		.uleb128 0xf
 1575 045d 723400   		.ascii	"r4\000"
 1576 0460 09       		.byte	0x9
 1577 0461 A9       		.byte	0xa9
 1578 0462 F3030000 		.4byte	0x3f3
 1579 0466 10       		.byte	0x10
 1580 0467 0F       		.uleb128 0xf
 1581 0468 723500   		.ascii	"r5\000"
 1582 046b 09       		.byte	0x9
 1583 046c AA       		.byte	0xaa
 1584 046d F3030000 		.4byte	0x3f3
ARM GAS  /tmp/ccOkO5Hx.s 			page 59


 1585 0471 14       		.byte	0x14
 1586 0472 0F       		.uleb128 0xf
 1587 0473 723600   		.ascii	"r6\000"
 1588 0476 09       		.byte	0x9
 1589 0477 AB       		.byte	0xab
 1590 0478 F3030000 		.4byte	0x3f3
 1591 047c 18       		.byte	0x18
 1592 047d 0F       		.uleb128 0xf
 1593 047e 723700   		.ascii	"r7\000"
 1594 0481 09       		.byte	0x9
 1595 0482 AC       		.byte	0xac
 1596 0483 F3030000 		.4byte	0x3f3
 1597 0487 1C       		.byte	0x1c
 1598 0488 0F       		.uleb128 0xf
 1599 0489 6C7200   		.ascii	"lr\000"
 1600 048c 09       		.byte	0x9
 1601 048d AD       		.byte	0xad
 1602 048e F3030000 		.4byte	0x3f3
 1603 0492 20       		.byte	0x20
 1604 0493 00       		.byte	0
 1605 0494 09       		.uleb128 0x9
 1606 0495 04       		.byte	0x4
 1607 0496 22040000 		.4byte	0x422
 1608 049a 10       		.uleb128 0x10
 1609 049b 04       		.byte	0x4
 1610 049c 07       		.byte	0x7
 1611 049d FA       		.byte	0xfa
 1612 049e EB040000 		.4byte	0x4eb
 1613 04a2 11       		.uleb128 0x11
 1614 04a3 AC010000 		.4byte	.LASF78
 1615 04a7 07       		.byte	0x7
 1616 04a8 0101     		.2byte	0x101
 1617 04aa 01010000 		.4byte	0x101
 1618 04ae 11       		.uleb128 0x11
 1619 04af 67050000 		.4byte	.LASF79
 1620 04b3 07       		.byte	0x7
 1621 04b4 0801     		.2byte	0x108
 1622 04b6 01010000 		.4byte	0x101
 1623 04ba 11       		.uleb128 0x11
 1624 04bb 97000000 		.4byte	.LASF80
 1625 04bf 07       		.byte	0x7
 1626 04c0 0F01     		.2byte	0x10f
 1627 04c2 C2020000 		.4byte	0x2c2
 1628 04c6 11       		.uleb128 0x11
 1629 04c7 00050000 		.4byte	.LASF81
 1630 04cb 07       		.byte	0x7
 1631 04cc 1601     		.2byte	0x116
 1632 04ce EB040000 		.4byte	0x4eb
 1633 04d2 11       		.uleb128 0x11
 1634 04d3 A0040000 		.4byte	.LASF82
 1635 04d7 07       		.byte	0x7
 1636 04d8 1E01     		.2byte	0x11e
 1637 04da 16050000 		.4byte	0x516
 1638 04de 11       		.uleb128 0x11
 1639 04df 2A000000 		.4byte	.LASF83
 1640 04e3 07       		.byte	0x7
 1641 04e4 2701     		.2byte	0x127
ARM GAS  /tmp/ccOkO5Hx.s 			page 60


 1642 04e6 4D050000 		.4byte	0x54d
 1643 04ea 00       		.byte	0
 1644 04eb 09       		.uleb128 0x9
 1645 04ec 04       		.byte	0x4
 1646 04ed DA010000 		.4byte	0x1da
 1647 04f1 05       		.uleb128 0x5
 1648 04f2 23010000 		.4byte	.LASF84
 1649 04f6 0C       		.byte	0xc
 1650 04f7 0A       		.byte	0xa
 1651 04f8 34       		.byte	0x34
 1652 04f9 16050000 		.4byte	0x516
 1653 04fd 06       		.uleb128 0x6
 1654 04fe 58000000 		.4byte	.LASF85
 1655 0502 0A       		.byte	0xa
 1656 0503 35       		.byte	0x35
 1657 0504 0F020000 		.4byte	0x20f
 1658 0508 00       		.byte	0
 1659 0509 06       		.uleb128 0x6
 1660 050a DC000000 		.4byte	.LASF86
 1661 050e 0A       		.byte	0xa
 1662 050f 37       		.byte	0x37
 1663 0510 0C010000 		.4byte	0x10c
 1664 0514 08       		.byte	0x8
 1665 0515 00       		.byte	0
 1666 0516 09       		.uleb128 0x9
 1667 0517 04       		.byte	0x4
 1668 0518 F1040000 		.4byte	0x4f1
 1669 051c 05       		.uleb128 0x5
 1670 051d BE010000 		.4byte	.LASF87
 1671 0521 10       		.byte	0x10
 1672 0522 0B       		.byte	0xb
 1673 0523 39       		.byte	0x39
 1674 0524 4D050000 		.4byte	0x54d
 1675 0528 06       		.uleb128 0x6
 1676 0529 0F040000 		.4byte	.LASF88
 1677 052d 0B       		.byte	0xb
 1678 052e 3A       		.byte	0x3a
 1679 052f 0F020000 		.4byte	0x20f
 1680 0533 00       		.byte	0
 1681 0534 06       		.uleb128 0x6
 1682 0535 50000000 		.4byte	.LASF89
 1683 0539 0B       		.byte	0xb
 1684 053a 3C       		.byte	0x3c
 1685 053b E5010000 		.4byte	0x1e5
 1686 053f 08       		.byte	0x8
 1687 0540 06       		.uleb128 0x6
 1688 0541 06050000 		.4byte	.LASF90
 1689 0545 0B       		.byte	0xb
 1690 0546 3E       		.byte	0x3e
 1691 0547 8B050000 		.4byte	0x58b
 1692 054b 0C       		.byte	0xc
 1693 054c 00       		.byte	0
 1694 054d 09       		.uleb128 0x9
 1695 054e 04       		.byte	0x4
 1696 054f 1C050000 		.4byte	0x51c
 1697 0553 09       		.uleb128 0x9
 1698 0554 04       		.byte	0x4
ARM GAS  /tmp/ccOkO5Hx.s 			page 61


 1699 0555 59050000 		.4byte	0x559
 1700 0559 12       		.uleb128 0x12
 1701 055a 5E050000 		.4byte	0x55e
 1702 055e 04       		.uleb128 0x4
 1703 055f 01       		.byte	0x1
 1704 0560 08       		.byte	0x8
 1705 0561 31000000 		.4byte	.LASF91
 1706 0565 09       		.uleb128 0x9
 1707 0566 04       		.byte	0x4
 1708 0567 C4020000 		.4byte	0x2c4
 1709 056b 13       		.uleb128 0x13
 1710 056c 53050000 		.4byte	0x553
 1711 0570 14       		.uleb128 0x14
 1712 0571 FE030000 		.4byte	0x3fe
 1713 0575 80050000 		.4byte	0x580
 1714 0579 15       		.uleb128 0x15
 1715 057a EC030000 		.4byte	0x3ec
 1716 057e 18       		.byte	0x18
 1717 057f 00       		.byte	0
 1718 0580 03       		.uleb128 0x3
 1719 0581 A7040000 		.4byte	.LASF92
 1720 0585 0B       		.byte	0xb
 1721 0586 34       		.byte	0x34
 1722 0587 1C050000 		.4byte	0x51c
 1723 058b 09       		.uleb128 0x9
 1724 058c 04       		.byte	0x4
 1725 058d 80050000 		.4byte	0x580
 1726 0591 03       		.uleb128 0x3
 1727 0592 5C040000 		.4byte	.LASF93
 1728 0596 0C       		.byte	0xc
 1729 0597 36       		.byte	0x36
 1730 0598 9C050000 		.4byte	0x59c
 1731 059c 09       		.uleb128 0x9
 1732 059d 04       		.byte	0x4
 1733 059e A2050000 		.4byte	0x5a2
 1734 05a2 16       		.uleb128 0x16
 1735 05a3 C2020000 		.4byte	0x2c2
 1736 05a7 B1050000 		.4byte	0x5b1
 1737 05ab 0C       		.uleb128 0xc
 1738 05ac 28000000 		.4byte	0x28
 1739 05b0 00       		.byte	0
 1740 05b1 03       		.uleb128 0x3
 1741 05b2 9F030000 		.4byte	.LASF94
 1742 05b6 0D       		.byte	0xd
 1743 05b7 3C       		.byte	0x3c
 1744 05b8 BC050000 		.4byte	0x5bc
 1745 05bc 05       		.uleb128 0x5
 1746 05bd F9030000 		.4byte	.LASF95
 1747 05c1 20       		.byte	0x20
 1748 05c2 0D       		.byte	0xd
 1749 05c3 4F       		.byte	0x4f
 1750 05c4 ED050000 		.4byte	0x5ed
 1751 05c8 06       		.uleb128 0x6
 1752 05c9 D9010000 		.4byte	.LASF96
 1753 05cd 0D       		.byte	0xd
 1754 05ce 50       		.byte	0x50
 1755 05cf 91050000 		.4byte	0x591
ARM GAS  /tmp/ccOkO5Hx.s 			page 62


 1756 05d3 00       		.byte	0
 1757 05d4 06       		.uleb128 0x6
 1758 05d5 8B000000 		.4byte	.LASF97
 1759 05d9 0D       		.byte	0xd
 1760 05da 52       		.byte	0x52
 1761 05db 0C060000 		.4byte	0x60c
 1762 05df 08       		.byte	0x8
 1763 05e0 06       		.uleb128 0x6
 1764 05e1 53020000 		.4byte	.LASF98
 1765 05e5 0D       		.byte	0xd
 1766 05e6 54       		.byte	0x54
 1767 05e7 80050000 		.4byte	0x580
 1768 05eb 10       		.byte	0x10
 1769 05ec 00       		.byte	0
 1770 05ed 10       		.uleb128 0x10
 1771 05ee 04       		.byte	0x4
 1772 05ef 0D       		.byte	0xd
 1773 05f0 44       		.byte	0x44
 1774 05f1 0C060000 		.4byte	0x60c
 1775 05f5 17       		.uleb128 0x17
 1776 05f6 6D000000 		.4byte	.LASF99
 1777 05fa 0D       		.byte	0xd
 1778 05fb 45       		.byte	0x45
 1779 05fc 2D060000 		.4byte	0x62d
 1780 0600 17       		.uleb128 0x17
 1781 0601 92000000 		.4byte	.LASF100
 1782 0605 0D       		.byte	0xd
 1783 0606 46       		.byte	0x46
 1784 0607 33060000 		.4byte	0x633
 1785 060b 00       		.byte	0
 1786 060c 18       		.uleb128 0x18
 1787 060d 99010000 		.4byte	.LASF114
 1788 0611 08       		.byte	0x8
 1789 0612 0D       		.byte	0xd
 1790 0613 41       		.byte	0x41
 1791 0614 2D060000 		.4byte	0x62d
 1792 0618 17       		.uleb128 0x17
 1793 0619 61050000 		.4byte	.LASF101
 1794 061d 0D       		.byte	0xd
 1795 061e 42       		.byte	0x42
 1796 061f FE030000 		.4byte	0x3fe
 1797 0623 19       		.uleb128 0x19
 1798 0624 6800     		.ascii	"h\000"
 1799 0626 0D       		.byte	0xd
 1800 0627 49       		.byte	0x49
 1801 0628 39060000 		.4byte	0x639
 1802 062c 00       		.byte	0
 1803 062d 09       		.uleb128 0x9
 1804 062e 04       		.byte	0x4
 1805 062f 0C060000 		.4byte	0x60c
 1806 0633 09       		.uleb128 0x9
 1807 0634 04       		.byte	0x4
 1808 0635 B1050000 		.4byte	0x5b1
 1809 0639 1A       		.uleb128 0x1a
 1810 063a 08       		.byte	0x8
 1811 063b 0D       		.byte	0xd
 1812 063c 43       		.byte	0x43
ARM GAS  /tmp/ccOkO5Hx.s 			page 63


 1813 063d 58060000 		.4byte	0x658
 1814 0641 0F       		.uleb128 0xf
 1815 0642 7500     		.ascii	"u\000"
 1816 0644 0D       		.byte	0xd
 1817 0645 47       		.byte	0x47
 1818 0646 ED050000 		.4byte	0x5ed
 1819 064a 00       		.byte	0
 1820 064b 06       		.uleb128 0x6
 1821 064c B7020000 		.4byte	.LASF102
 1822 0650 0D       		.byte	0xd
 1823 0651 48       		.byte	0x48
 1824 0652 28000000 		.4byte	0x28
 1825 0656 04       		.byte	0x4
 1826 0657 00       		.byte	0
 1827 0658 1B       		.uleb128 0x1b
 1828 0659 B3010000 		.4byte	.LASF115
 1829 065d 01       		.byte	0x1
 1830 065e 5B       		.byte	0x5b
 1831 065f 00000000 		.4byte	.LFB119
 1832 0663 2C000000 		.4byte	.LFE119-.LFB119
 1833 0667 01       		.uleb128 0x1
 1834 0668 9C       		.byte	0x9c
 1835 0669 1C       		.uleb128 0x1c
 1836 066a CA030000 		.4byte	.LASF104
 1837 066e 01       		.byte	0x1
 1838 066f 72       		.byte	0x72
 1839 0670 00000000 		.4byte	.LFB120
 1840 0674 3E000000 		.4byte	.LFE120-.LFB120
 1841 0678 01       		.uleb128 0x1
 1842 0679 9C       		.byte	0x9c
 1843 067a BF060000 		.4byte	0x6bf
 1844 067e 1D       		.uleb128 0x1d
 1845 067f 0D050000 		.4byte	.LASF103
 1846 0683 01       		.byte	0x1
 1847 0684 72       		.byte	0x72
 1848 0685 33060000 		.4byte	0x633
 1849 0689 02       		.uleb128 0x2
 1850 068a 91       		.byte	0x91
 1851 068b 6C       		.sleb128 -20
 1852 068c 1E       		.uleb128 0x1e
 1853 068d 62756600 		.ascii	"buf\000"
 1854 0691 01       		.byte	0x1
 1855 0692 72       		.byte	0x72
 1856 0693 C2020000 		.4byte	0x2c2
 1857 0697 02       		.uleb128 0x2
 1858 0698 91       		.byte	0x91
 1859 0699 68       		.sleb128 -24
 1860 069a 1D       		.uleb128 0x1d
 1861 069b B7020000 		.4byte	.LASF102
 1862 069f 01       		.byte	0x1
 1863 06a0 72       		.byte	0x72
 1864 06a1 28000000 		.4byte	0x28
 1865 06a5 02       		.uleb128 0x2
 1866 06a6 91       		.byte	0x91
 1867 06a7 64       		.sleb128 -28
 1868 06a8 1F       		.uleb128 0x1f
 1869 06a9 687000   		.ascii	"hp\000"
ARM GAS  /tmp/ccOkO5Hx.s 			page 64


 1870 06ac 01       		.byte	0x1
 1871 06ad 73       		.byte	0x73
 1872 06ae 2D060000 		.4byte	0x62d
 1873 06b2 02       		.uleb128 0x2
 1874 06b3 91       		.byte	0x91
 1875 06b4 74       		.sleb128 -12
 1876 06b5 20       		.uleb128 0x20
 1877 06b6 AF040000 		.4byte	.LASF106
 1878 06ba CF060000 		.4byte	0x6cf
 1879 06be 00       		.byte	0
 1880 06bf 14       		.uleb128 0x14
 1881 06c0 5E050000 		.4byte	0x55e
 1882 06c4 CF060000 		.4byte	0x6cf
 1883 06c8 15       		.uleb128 0x15
 1884 06c9 EC030000 		.4byte	0x3ec
 1885 06cd 10       		.byte	0x10
 1886 06ce 00       		.byte	0
 1887 06cf 12       		.uleb128 0x12
 1888 06d0 BF060000 		.4byte	0x6bf
 1889 06d4 21       		.uleb128 0x21
 1890 06d5 2D020000 		.4byte	.LASF108
 1891 06d9 01       		.byte	0x1
 1892 06da 93       		.byte	0x93
 1893 06db C2020000 		.4byte	0x2c2
 1894 06df 00000000 		.4byte	.LFB121
 1895 06e3 F0000000 		.4byte	.LFE121-.LFB121
 1896 06e7 01       		.uleb128 0x1
 1897 06e8 9C       		.byte	0x9c
 1898 06e9 31070000 		.4byte	0x731
 1899 06ed 1D       		.uleb128 0x1d
 1900 06ee 0D050000 		.4byte	.LASF103
 1901 06f2 01       		.byte	0x1
 1902 06f3 93       		.byte	0x93
 1903 06f4 33060000 		.4byte	0x633
 1904 06f8 02       		.uleb128 0x2
 1905 06f9 91       		.byte	0x91
 1906 06fa 64       		.sleb128 -28
 1907 06fb 1D       		.uleb128 0x1d
 1908 06fc B7020000 		.4byte	.LASF102
 1909 0700 01       		.byte	0x1
 1910 0701 93       		.byte	0x93
 1911 0702 28000000 		.4byte	0x28
 1912 0706 02       		.uleb128 0x2
 1913 0707 91       		.byte	0x91
 1914 0708 60       		.sleb128 -32
 1915 0709 1F       		.uleb128 0x1f
 1916 070a 717000   		.ascii	"qp\000"
 1917 070d 01       		.byte	0x1
 1918 070e 94       		.byte	0x94
 1919 070f 2D060000 		.4byte	0x62d
 1920 0713 02       		.uleb128 0x2
 1921 0714 91       		.byte	0x91
 1922 0715 74       		.sleb128 -12
 1923 0716 1F       		.uleb128 0x1f
 1924 0717 687000   		.ascii	"hp\000"
 1925 071a 01       		.byte	0x1
 1926 071b 94       		.byte	0x94
ARM GAS  /tmp/ccOkO5Hx.s 			page 65


 1927 071c 2D060000 		.4byte	0x62d
 1928 0720 02       		.uleb128 0x2
 1929 0721 91       		.byte	0x91
 1930 0722 70       		.sleb128 -16
 1931 0723 1F       		.uleb128 0x1f
 1932 0724 667000   		.ascii	"fp\000"
 1933 0727 01       		.byte	0x1
 1934 0728 94       		.byte	0x94
 1935 0729 2D060000 		.4byte	0x62d
 1936 072d 02       		.uleb128 0x2
 1937 072e 91       		.byte	0x91
 1938 072f 6C       		.sleb128 -20
 1939 0730 00       		.byte	0
 1940 0731 1C       		.uleb128 0x1c
 1941 0732 8C020000 		.4byte	.LASF105
 1942 0736 01       		.byte	0x1
 1943 0737 D5       		.byte	0xd5
 1944 0738 00000000 		.4byte	.LFB122
 1945 073c CC000000 		.4byte	.LFE122-.LFB122
 1946 0740 01       		.uleb128 0x1
 1947 0741 9C       		.byte	0x9c
 1948 0742 84070000 		.4byte	0x784
 1949 0746 1E       		.uleb128 0x1e
 1950 0747 7000     		.ascii	"p\000"
 1951 0749 01       		.byte	0x1
 1952 074a D5       		.byte	0xd5
 1953 074b C2020000 		.4byte	0x2c2
 1954 074f 02       		.uleb128 0x2
 1955 0750 91       		.byte	0x91
 1956 0751 64       		.sleb128 -28
 1957 0752 1F       		.uleb128 0x1f
 1958 0753 717000   		.ascii	"qp\000"
 1959 0756 01       		.byte	0x1
 1960 0757 D6       		.byte	0xd6
 1961 0758 2D060000 		.4byte	0x62d
 1962 075c 02       		.uleb128 0x2
 1963 075d 91       		.byte	0x91
 1964 075e 74       		.sleb128 -12
 1965 075f 1F       		.uleb128 0x1f
 1966 0760 687000   		.ascii	"hp\000"
 1967 0763 01       		.byte	0x1
 1968 0764 D6       		.byte	0xd6
 1969 0765 2D060000 		.4byte	0x62d
 1970 0769 02       		.uleb128 0x2
 1971 076a 91       		.byte	0x91
 1972 076b 70       		.sleb128 -16
 1973 076c 22       		.uleb128 0x22
 1974 076d 0D050000 		.4byte	.LASF103
 1975 0771 01       		.byte	0x1
 1976 0772 D7       		.byte	0xd7
 1977 0773 33060000 		.4byte	0x633
 1978 0777 02       		.uleb128 0x2
 1979 0778 91       		.byte	0x91
 1980 0779 6C       		.sleb128 -20
 1981 077a 20       		.uleb128 0x20
 1982 077b 53050000 		.4byte	.LASF107
 1983 077f 94070000 		.4byte	0x794
ARM GAS  /tmp/ccOkO5Hx.s 			page 66


 1984 0783 00       		.byte	0
 1985 0784 14       		.uleb128 0x14
 1986 0785 5E050000 		.4byte	0x55e
 1987 0789 94070000 		.4byte	0x794
 1988 078d 15       		.uleb128 0x15
 1989 078e EC030000 		.4byte	0x3ec
 1990 0792 0A       		.byte	0xa
 1991 0793 00       		.byte	0
 1992 0794 12       		.uleb128 0x12
 1993 0795 84070000 		.4byte	0x784
 1994 0799 23       		.uleb128 0x23
 1995 079a 08010000 		.4byte	.LASF109
 1996 079e 01       		.byte	0x1
 1997 079f 0B01     		.2byte	0x10b
 1998 07a1 28000000 		.4byte	0x28
 1999 07a5 00000000 		.4byte	.LFB123
 2000 07a9 70000000 		.4byte	.LFE123-.LFB123
 2001 07ad 01       		.uleb128 0x1
 2002 07ae 9C       		.byte	0x9c
 2003 07af FB070000 		.4byte	0x7fb
 2004 07b3 24       		.uleb128 0x24
 2005 07b4 0D050000 		.4byte	.LASF103
 2006 07b8 01       		.byte	0x1
 2007 07b9 0B01     		.2byte	0x10b
 2008 07bb 33060000 		.4byte	0x633
 2009 07bf 02       		.uleb128 0x2
 2010 07c0 91       		.byte	0x91
 2011 07c1 64       		.sleb128 -28
 2012 07c2 24       		.uleb128 0x24
 2013 07c3 43020000 		.4byte	.LASF110
 2014 07c7 01       		.byte	0x1
 2015 07c8 0B01     		.2byte	0x10b
 2016 07ca FB070000 		.4byte	0x7fb
 2017 07ce 02       		.uleb128 0x2
 2018 07cf 91       		.byte	0x91
 2019 07d0 60       		.sleb128 -32
 2020 07d1 25       		.uleb128 0x25
 2021 07d2 717000   		.ascii	"qp\000"
 2022 07d5 01       		.byte	0x1
 2023 07d6 0C01     		.2byte	0x10c
 2024 07d8 2D060000 		.4byte	0x62d
 2025 07dc 02       		.uleb128 0x2
 2026 07dd 91       		.byte	0x91
 2027 07de 74       		.sleb128 -12
 2028 07df 25       		.uleb128 0x25
 2029 07e0 6E00     		.ascii	"n\000"
 2030 07e2 01       		.byte	0x1
 2031 07e3 0D01     		.2byte	0x10d
 2032 07e5 28000000 		.4byte	0x28
 2033 07e9 02       		.uleb128 0x2
 2034 07ea 91       		.byte	0x91
 2035 07eb 70       		.sleb128 -16
 2036 07ec 25       		.uleb128 0x25
 2037 07ed 737A00   		.ascii	"sz\000"
 2038 07f0 01       		.byte	0x1
 2039 07f1 0D01     		.2byte	0x10d
 2040 07f3 28000000 		.4byte	0x28
ARM GAS  /tmp/ccOkO5Hx.s 			page 67


 2041 07f7 02       		.uleb128 0x2
 2042 07f8 91       		.byte	0x91
 2043 07f9 6C       		.sleb128 -20
 2044 07fa 00       		.byte	0
 2045 07fb 09       		.uleb128 0x9
 2046 07fc 04       		.byte	0x4
 2047 07fd 28000000 		.4byte	0x28
 2048 0801 22       		.uleb128 0x22
 2049 0802 F2000000 		.4byte	.LASF111
 2050 0806 01       		.byte	0x1
 2051 0807 4C       		.byte	0x4c
 2052 0808 B1050000 		.4byte	0x5b1
 2053 080c 05       		.uleb128 0x5
 2054 080d 03       		.byte	0x3
 2055 080e 00000000 		.4byte	default_heap
 2056 0812 26       		.uleb128 0x26
 2057 0813 636800   		.ascii	"ch\000"
 2058 0816 07       		.byte	0x7
 2059 0817 0902     		.2byte	0x209
 2060 0819 91030000 		.4byte	0x391
 2061 081d 00       		.byte	0
 2062              		.section	.debug_abbrev,"",%progbits
 2063              	.Ldebug_abbrev0:
 2064 0000 01       		.uleb128 0x1
 2065 0001 11       		.uleb128 0x11
 2066 0002 01       		.byte	0x1
 2067 0003 25       		.uleb128 0x25
 2068 0004 0E       		.uleb128 0xe
 2069 0005 13       		.uleb128 0x13
 2070 0006 0B       		.uleb128 0xb
 2071 0007 03       		.uleb128 0x3
 2072 0008 0E       		.uleb128 0xe
 2073 0009 55       		.uleb128 0x55
 2074 000a 17       		.uleb128 0x17
 2075 000b 11       		.uleb128 0x11
 2076 000c 01       		.uleb128 0x1
 2077 000d 10       		.uleb128 0x10
 2078 000e 17       		.uleb128 0x17
 2079 000f 00       		.byte	0
 2080 0010 00       		.byte	0
 2081 0011 02       		.uleb128 0x2
 2082 0012 24       		.uleb128 0x24
 2083 0013 00       		.byte	0
 2084 0014 0B       		.uleb128 0xb
 2085 0015 0B       		.uleb128 0xb
 2086 0016 3E       		.uleb128 0x3e
 2087 0017 0B       		.uleb128 0xb
 2088 0018 03       		.uleb128 0x3
 2089 0019 08       		.uleb128 0x8
 2090 001a 00       		.byte	0
 2091 001b 00       		.byte	0
 2092 001c 03       		.uleb128 0x3
 2093 001d 16       		.uleb128 0x16
 2094 001e 00       		.byte	0
 2095 001f 03       		.uleb128 0x3
 2096 0020 0E       		.uleb128 0xe
 2097 0021 3A       		.uleb128 0x3a
ARM GAS  /tmp/ccOkO5Hx.s 			page 68


 2098 0022 0B       		.uleb128 0xb
 2099 0023 3B       		.uleb128 0x3b
 2100 0024 0B       		.uleb128 0xb
 2101 0025 49       		.uleb128 0x49
 2102 0026 13       		.uleb128 0x13
 2103 0027 00       		.byte	0
 2104 0028 00       		.byte	0
 2105 0029 04       		.uleb128 0x4
 2106 002a 24       		.uleb128 0x24
 2107 002b 00       		.byte	0
 2108 002c 0B       		.uleb128 0xb
 2109 002d 0B       		.uleb128 0xb
 2110 002e 3E       		.uleb128 0x3e
 2111 002f 0B       		.uleb128 0xb
 2112 0030 03       		.uleb128 0x3
 2113 0031 0E       		.uleb128 0xe
 2114 0032 00       		.byte	0
 2115 0033 00       		.byte	0
 2116 0034 05       		.uleb128 0x5
 2117 0035 13       		.uleb128 0x13
 2118 0036 01       		.byte	0x1
 2119 0037 03       		.uleb128 0x3
 2120 0038 0E       		.uleb128 0xe
 2121 0039 0B       		.uleb128 0xb
 2122 003a 0B       		.uleb128 0xb
 2123 003b 3A       		.uleb128 0x3a
 2124 003c 0B       		.uleb128 0xb
 2125 003d 3B       		.uleb128 0x3b
 2126 003e 0B       		.uleb128 0xb
 2127 003f 01       		.uleb128 0x1
 2128 0040 13       		.uleb128 0x13
 2129 0041 00       		.byte	0
 2130 0042 00       		.byte	0
 2131 0043 06       		.uleb128 0x6
 2132 0044 0D       		.uleb128 0xd
 2133 0045 00       		.byte	0
 2134 0046 03       		.uleb128 0x3
 2135 0047 0E       		.uleb128 0xe
 2136 0048 3A       		.uleb128 0x3a
 2137 0049 0B       		.uleb128 0xb
 2138 004a 3B       		.uleb128 0x3b
 2139 004b 0B       		.uleb128 0xb
 2140 004c 49       		.uleb128 0x49
 2141 004d 13       		.uleb128 0x13
 2142 004e 38       		.uleb128 0x38
 2143 004f 0B       		.uleb128 0xb
 2144 0050 00       		.byte	0
 2145 0051 00       		.byte	0
 2146 0052 07       		.uleb128 0x7
 2147 0053 0D       		.uleb128 0xd
 2148 0054 00       		.byte	0
 2149 0055 03       		.uleb128 0x3
 2150 0056 08       		.uleb128 0x8
 2151 0057 3A       		.uleb128 0x3a
 2152 0058 0B       		.uleb128 0xb
 2153 0059 3B       		.uleb128 0x3b
 2154 005a 05       		.uleb128 0x5
ARM GAS  /tmp/ccOkO5Hx.s 			page 69


 2155 005b 49       		.uleb128 0x49
 2156 005c 13       		.uleb128 0x13
 2157 005d 38       		.uleb128 0x38
 2158 005e 0B       		.uleb128 0xb
 2159 005f 00       		.byte	0
 2160 0060 00       		.byte	0
 2161 0061 08       		.uleb128 0x8
 2162 0062 0D       		.uleb128 0xd
 2163 0063 00       		.byte	0
 2164 0064 03       		.uleb128 0x3
 2165 0065 0E       		.uleb128 0xe
 2166 0066 3A       		.uleb128 0x3a
 2167 0067 0B       		.uleb128 0xb
 2168 0068 3B       		.uleb128 0x3b
 2169 0069 05       		.uleb128 0x5
 2170 006a 49       		.uleb128 0x49
 2171 006b 13       		.uleb128 0x13
 2172 006c 38       		.uleb128 0x38
 2173 006d 0B       		.uleb128 0xb
 2174 006e 00       		.byte	0
 2175 006f 00       		.byte	0
 2176 0070 09       		.uleb128 0x9
 2177 0071 0F       		.uleb128 0xf
 2178 0072 00       		.byte	0
 2179 0073 0B       		.uleb128 0xb
 2180 0074 0B       		.uleb128 0xb
 2181 0075 49       		.uleb128 0x49
 2182 0076 13       		.uleb128 0x13
 2183 0077 00       		.byte	0
 2184 0078 00       		.byte	0
 2185 0079 0A       		.uleb128 0xa
 2186 007a 13       		.uleb128 0x13
 2187 007b 01       		.byte	0x1
 2188 007c 03       		.uleb128 0x3
 2189 007d 0E       		.uleb128 0xe
 2190 007e 0B       		.uleb128 0xb
 2191 007f 0B       		.uleb128 0xb
 2192 0080 3A       		.uleb128 0x3a
 2193 0081 0B       		.uleb128 0xb
 2194 0082 3B       		.uleb128 0x3b
 2195 0083 05       		.uleb128 0x5
 2196 0084 01       		.uleb128 0x1
 2197 0085 13       		.uleb128 0x13
 2198 0086 00       		.byte	0
 2199 0087 00       		.byte	0
 2200 0088 0B       		.uleb128 0xb
 2201 0089 15       		.uleb128 0x15
 2202 008a 01       		.byte	0x1
 2203 008b 27       		.uleb128 0x27
 2204 008c 19       		.uleb128 0x19
 2205 008d 01       		.uleb128 0x1
 2206 008e 13       		.uleb128 0x13
 2207 008f 00       		.byte	0
 2208 0090 00       		.byte	0
 2209 0091 0C       		.uleb128 0xc
 2210 0092 05       		.uleb128 0x5
 2211 0093 00       		.byte	0
ARM GAS  /tmp/ccOkO5Hx.s 			page 70


 2212 0094 49       		.uleb128 0x49
 2213 0095 13       		.uleb128 0x13
 2214 0096 00       		.byte	0
 2215 0097 00       		.byte	0
 2216 0098 0D       		.uleb128 0xd
 2217 0099 0F       		.uleb128 0xf
 2218 009a 00       		.byte	0
 2219 009b 0B       		.uleb128 0xb
 2220 009c 0B       		.uleb128 0xb
 2221 009d 00       		.byte	0
 2222 009e 00       		.byte	0
 2223 009f 0E       		.uleb128 0xe
 2224 00a0 13       		.uleb128 0x13
 2225 00a1 01       		.byte	0x1
 2226 00a2 03       		.uleb128 0x3
 2227 00a3 0E       		.uleb128 0xe
 2228 00a4 0B       		.uleb128 0xb
 2229 00a5 05       		.uleb128 0x5
 2230 00a6 3A       		.uleb128 0x3a
 2231 00a7 0B       		.uleb128 0xb
 2232 00a8 3B       		.uleb128 0x3b
 2233 00a9 05       		.uleb128 0x5
 2234 00aa 01       		.uleb128 0x1
 2235 00ab 13       		.uleb128 0x13
 2236 00ac 00       		.byte	0
 2237 00ad 00       		.byte	0
 2238 00ae 0F       		.uleb128 0xf
 2239 00af 0D       		.uleb128 0xd
 2240 00b0 00       		.byte	0
 2241 00b1 03       		.uleb128 0x3
 2242 00b2 08       		.uleb128 0x8
 2243 00b3 3A       		.uleb128 0x3a
 2244 00b4 0B       		.uleb128 0xb
 2245 00b5 3B       		.uleb128 0x3b
 2246 00b6 0B       		.uleb128 0xb
 2247 00b7 49       		.uleb128 0x49
 2248 00b8 13       		.uleb128 0x13
 2249 00b9 38       		.uleb128 0x38
 2250 00ba 0B       		.uleb128 0xb
 2251 00bb 00       		.byte	0
 2252 00bc 00       		.byte	0
 2253 00bd 10       		.uleb128 0x10
 2254 00be 17       		.uleb128 0x17
 2255 00bf 01       		.byte	0x1
 2256 00c0 0B       		.uleb128 0xb
 2257 00c1 0B       		.uleb128 0xb
 2258 00c2 3A       		.uleb128 0x3a
 2259 00c3 0B       		.uleb128 0xb
 2260 00c4 3B       		.uleb128 0x3b
 2261 00c5 0B       		.uleb128 0xb
 2262 00c6 01       		.uleb128 0x1
 2263 00c7 13       		.uleb128 0x13
 2264 00c8 00       		.byte	0
 2265 00c9 00       		.byte	0
 2266 00ca 11       		.uleb128 0x11
 2267 00cb 0D       		.uleb128 0xd
 2268 00cc 00       		.byte	0
ARM GAS  /tmp/ccOkO5Hx.s 			page 71


 2269 00cd 03       		.uleb128 0x3
 2270 00ce 0E       		.uleb128 0xe
 2271 00cf 3A       		.uleb128 0x3a
 2272 00d0 0B       		.uleb128 0xb
 2273 00d1 3B       		.uleb128 0x3b
 2274 00d2 05       		.uleb128 0x5
 2275 00d3 49       		.uleb128 0x49
 2276 00d4 13       		.uleb128 0x13
 2277 00d5 00       		.byte	0
 2278 00d6 00       		.byte	0
 2279 00d7 12       		.uleb128 0x12
 2280 00d8 26       		.uleb128 0x26
 2281 00d9 00       		.byte	0
 2282 00da 49       		.uleb128 0x49
 2283 00db 13       		.uleb128 0x13
 2284 00dc 00       		.byte	0
 2285 00dd 00       		.byte	0
 2286 00de 13       		.uleb128 0x13
 2287 00df 35       		.uleb128 0x35
 2288 00e0 00       		.byte	0
 2289 00e1 49       		.uleb128 0x49
 2290 00e2 13       		.uleb128 0x13
 2291 00e3 00       		.byte	0
 2292 00e4 00       		.byte	0
 2293 00e5 14       		.uleb128 0x14
 2294 00e6 01       		.uleb128 0x1
 2295 00e7 01       		.byte	0x1
 2296 00e8 49       		.uleb128 0x49
 2297 00e9 13       		.uleb128 0x13
 2298 00ea 01       		.uleb128 0x1
 2299 00eb 13       		.uleb128 0x13
 2300 00ec 00       		.byte	0
 2301 00ed 00       		.byte	0
 2302 00ee 15       		.uleb128 0x15
 2303 00ef 21       		.uleb128 0x21
 2304 00f0 00       		.byte	0
 2305 00f1 49       		.uleb128 0x49
 2306 00f2 13       		.uleb128 0x13
 2307 00f3 2F       		.uleb128 0x2f
 2308 00f4 0B       		.uleb128 0xb
 2309 00f5 00       		.byte	0
 2310 00f6 00       		.byte	0
 2311 00f7 16       		.uleb128 0x16
 2312 00f8 15       		.uleb128 0x15
 2313 00f9 01       		.byte	0x1
 2314 00fa 27       		.uleb128 0x27
 2315 00fb 19       		.uleb128 0x19
 2316 00fc 49       		.uleb128 0x49
 2317 00fd 13       		.uleb128 0x13
 2318 00fe 01       		.uleb128 0x1
 2319 00ff 13       		.uleb128 0x13
 2320 0100 00       		.byte	0
 2321 0101 00       		.byte	0
 2322 0102 17       		.uleb128 0x17
 2323 0103 0D       		.uleb128 0xd
 2324 0104 00       		.byte	0
 2325 0105 03       		.uleb128 0x3
ARM GAS  /tmp/ccOkO5Hx.s 			page 72


 2326 0106 0E       		.uleb128 0xe
 2327 0107 3A       		.uleb128 0x3a
 2328 0108 0B       		.uleb128 0xb
 2329 0109 3B       		.uleb128 0x3b
 2330 010a 0B       		.uleb128 0xb
 2331 010b 49       		.uleb128 0x49
 2332 010c 13       		.uleb128 0x13
 2333 010d 00       		.byte	0
 2334 010e 00       		.byte	0
 2335 010f 18       		.uleb128 0x18
 2336 0110 17       		.uleb128 0x17
 2337 0111 01       		.byte	0x1
 2338 0112 03       		.uleb128 0x3
 2339 0113 0E       		.uleb128 0xe
 2340 0114 0B       		.uleb128 0xb
 2341 0115 0B       		.uleb128 0xb
 2342 0116 3A       		.uleb128 0x3a
 2343 0117 0B       		.uleb128 0xb
 2344 0118 3B       		.uleb128 0x3b
 2345 0119 0B       		.uleb128 0xb
 2346 011a 01       		.uleb128 0x1
 2347 011b 13       		.uleb128 0x13
 2348 011c 00       		.byte	0
 2349 011d 00       		.byte	0
 2350 011e 19       		.uleb128 0x19
 2351 011f 0D       		.uleb128 0xd
 2352 0120 00       		.byte	0
 2353 0121 03       		.uleb128 0x3
 2354 0122 08       		.uleb128 0x8
 2355 0123 3A       		.uleb128 0x3a
 2356 0124 0B       		.uleb128 0xb
 2357 0125 3B       		.uleb128 0x3b
 2358 0126 0B       		.uleb128 0xb
 2359 0127 49       		.uleb128 0x49
 2360 0128 13       		.uleb128 0x13
 2361 0129 00       		.byte	0
 2362 012a 00       		.byte	0
 2363 012b 1A       		.uleb128 0x1a
 2364 012c 13       		.uleb128 0x13
 2365 012d 01       		.byte	0x1
 2366 012e 0B       		.uleb128 0xb
 2367 012f 0B       		.uleb128 0xb
 2368 0130 3A       		.uleb128 0x3a
 2369 0131 0B       		.uleb128 0xb
 2370 0132 3B       		.uleb128 0x3b
 2371 0133 0B       		.uleb128 0xb
 2372 0134 01       		.uleb128 0x1
 2373 0135 13       		.uleb128 0x13
 2374 0136 00       		.byte	0
 2375 0137 00       		.byte	0
 2376 0138 1B       		.uleb128 0x1b
 2377 0139 2E       		.uleb128 0x2e
 2378 013a 00       		.byte	0
 2379 013b 3F       		.uleb128 0x3f
 2380 013c 19       		.uleb128 0x19
 2381 013d 03       		.uleb128 0x3
 2382 013e 0E       		.uleb128 0xe
ARM GAS  /tmp/ccOkO5Hx.s 			page 73


 2383 013f 3A       		.uleb128 0x3a
 2384 0140 0B       		.uleb128 0xb
 2385 0141 3B       		.uleb128 0x3b
 2386 0142 0B       		.uleb128 0xb
 2387 0143 27       		.uleb128 0x27
 2388 0144 19       		.uleb128 0x19
 2389 0145 11       		.uleb128 0x11
 2390 0146 01       		.uleb128 0x1
 2391 0147 12       		.uleb128 0x12
 2392 0148 06       		.uleb128 0x6
 2393 0149 40       		.uleb128 0x40
 2394 014a 18       		.uleb128 0x18
 2395 014b 9642     		.uleb128 0x2116
 2396 014d 19       		.uleb128 0x19
 2397 014e 00       		.byte	0
 2398 014f 00       		.byte	0
 2399 0150 1C       		.uleb128 0x1c
 2400 0151 2E       		.uleb128 0x2e
 2401 0152 01       		.byte	0x1
 2402 0153 3F       		.uleb128 0x3f
 2403 0154 19       		.uleb128 0x19
 2404 0155 03       		.uleb128 0x3
 2405 0156 0E       		.uleb128 0xe
 2406 0157 3A       		.uleb128 0x3a
 2407 0158 0B       		.uleb128 0xb
 2408 0159 3B       		.uleb128 0x3b
 2409 015a 0B       		.uleb128 0xb
 2410 015b 27       		.uleb128 0x27
 2411 015c 19       		.uleb128 0x19
 2412 015d 11       		.uleb128 0x11
 2413 015e 01       		.uleb128 0x1
 2414 015f 12       		.uleb128 0x12
 2415 0160 06       		.uleb128 0x6
 2416 0161 40       		.uleb128 0x40
 2417 0162 18       		.uleb128 0x18
 2418 0163 9642     		.uleb128 0x2116
 2419 0165 19       		.uleb128 0x19
 2420 0166 01       		.uleb128 0x1
 2421 0167 13       		.uleb128 0x13
 2422 0168 00       		.byte	0
 2423 0169 00       		.byte	0
 2424 016a 1D       		.uleb128 0x1d
 2425 016b 05       		.uleb128 0x5
 2426 016c 00       		.byte	0
 2427 016d 03       		.uleb128 0x3
 2428 016e 0E       		.uleb128 0xe
 2429 016f 3A       		.uleb128 0x3a
 2430 0170 0B       		.uleb128 0xb
 2431 0171 3B       		.uleb128 0x3b
 2432 0172 0B       		.uleb128 0xb
 2433 0173 49       		.uleb128 0x49
 2434 0174 13       		.uleb128 0x13
 2435 0175 02       		.uleb128 0x2
 2436 0176 18       		.uleb128 0x18
 2437 0177 00       		.byte	0
 2438 0178 00       		.byte	0
 2439 0179 1E       		.uleb128 0x1e
ARM GAS  /tmp/ccOkO5Hx.s 			page 74


 2440 017a 05       		.uleb128 0x5
 2441 017b 00       		.byte	0
 2442 017c 03       		.uleb128 0x3
 2443 017d 08       		.uleb128 0x8
 2444 017e 3A       		.uleb128 0x3a
 2445 017f 0B       		.uleb128 0xb
 2446 0180 3B       		.uleb128 0x3b
 2447 0181 0B       		.uleb128 0xb
 2448 0182 49       		.uleb128 0x49
 2449 0183 13       		.uleb128 0x13
 2450 0184 02       		.uleb128 0x2
 2451 0185 18       		.uleb128 0x18
 2452 0186 00       		.byte	0
 2453 0187 00       		.byte	0
 2454 0188 1F       		.uleb128 0x1f
 2455 0189 34       		.uleb128 0x34
 2456 018a 00       		.byte	0
 2457 018b 03       		.uleb128 0x3
 2458 018c 08       		.uleb128 0x8
 2459 018d 3A       		.uleb128 0x3a
 2460 018e 0B       		.uleb128 0xb
 2461 018f 3B       		.uleb128 0x3b
 2462 0190 0B       		.uleb128 0xb
 2463 0191 49       		.uleb128 0x49
 2464 0192 13       		.uleb128 0x13
 2465 0193 02       		.uleb128 0x2
 2466 0194 18       		.uleb128 0x18
 2467 0195 00       		.byte	0
 2468 0196 00       		.byte	0
 2469 0197 20       		.uleb128 0x20
 2470 0198 34       		.uleb128 0x34
 2471 0199 00       		.byte	0
 2472 019a 03       		.uleb128 0x3
 2473 019b 0E       		.uleb128 0xe
 2474 019c 49       		.uleb128 0x49
 2475 019d 13       		.uleb128 0x13
 2476 019e 34       		.uleb128 0x34
 2477 019f 19       		.uleb128 0x19
 2478 01a0 00       		.byte	0
 2479 01a1 00       		.byte	0
 2480 01a2 21       		.uleb128 0x21
 2481 01a3 2E       		.uleb128 0x2e
 2482 01a4 01       		.byte	0x1
 2483 01a5 3F       		.uleb128 0x3f
 2484 01a6 19       		.uleb128 0x19
 2485 01a7 03       		.uleb128 0x3
 2486 01a8 0E       		.uleb128 0xe
 2487 01a9 3A       		.uleb128 0x3a
 2488 01aa 0B       		.uleb128 0xb
 2489 01ab 3B       		.uleb128 0x3b
 2490 01ac 0B       		.uleb128 0xb
 2491 01ad 27       		.uleb128 0x27
 2492 01ae 19       		.uleb128 0x19
 2493 01af 49       		.uleb128 0x49
 2494 01b0 13       		.uleb128 0x13
 2495 01b1 11       		.uleb128 0x11
 2496 01b2 01       		.uleb128 0x1
ARM GAS  /tmp/ccOkO5Hx.s 			page 75


 2497 01b3 12       		.uleb128 0x12
 2498 01b4 06       		.uleb128 0x6
 2499 01b5 40       		.uleb128 0x40
 2500 01b6 18       		.uleb128 0x18
 2501 01b7 9642     		.uleb128 0x2116
 2502 01b9 19       		.uleb128 0x19
 2503 01ba 01       		.uleb128 0x1
 2504 01bb 13       		.uleb128 0x13
 2505 01bc 00       		.byte	0
 2506 01bd 00       		.byte	0
 2507 01be 22       		.uleb128 0x22
 2508 01bf 34       		.uleb128 0x34
 2509 01c0 00       		.byte	0
 2510 01c1 03       		.uleb128 0x3
 2511 01c2 0E       		.uleb128 0xe
 2512 01c3 3A       		.uleb128 0x3a
 2513 01c4 0B       		.uleb128 0xb
 2514 01c5 3B       		.uleb128 0x3b
 2515 01c6 0B       		.uleb128 0xb
 2516 01c7 49       		.uleb128 0x49
 2517 01c8 13       		.uleb128 0x13
 2518 01c9 02       		.uleb128 0x2
 2519 01ca 18       		.uleb128 0x18
 2520 01cb 00       		.byte	0
 2521 01cc 00       		.byte	0
 2522 01cd 23       		.uleb128 0x23
 2523 01ce 2E       		.uleb128 0x2e
 2524 01cf 01       		.byte	0x1
 2525 01d0 3F       		.uleb128 0x3f
 2526 01d1 19       		.uleb128 0x19
 2527 01d2 03       		.uleb128 0x3
 2528 01d3 0E       		.uleb128 0xe
 2529 01d4 3A       		.uleb128 0x3a
 2530 01d5 0B       		.uleb128 0xb
 2531 01d6 3B       		.uleb128 0x3b
 2532 01d7 05       		.uleb128 0x5
 2533 01d8 27       		.uleb128 0x27
 2534 01d9 19       		.uleb128 0x19
 2535 01da 49       		.uleb128 0x49
 2536 01db 13       		.uleb128 0x13
 2537 01dc 11       		.uleb128 0x11
 2538 01dd 01       		.uleb128 0x1
 2539 01de 12       		.uleb128 0x12
 2540 01df 06       		.uleb128 0x6
 2541 01e0 40       		.uleb128 0x40
 2542 01e1 18       		.uleb128 0x18
 2543 01e2 9642     		.uleb128 0x2116
 2544 01e4 19       		.uleb128 0x19
 2545 01e5 01       		.uleb128 0x1
 2546 01e6 13       		.uleb128 0x13
 2547 01e7 00       		.byte	0
 2548 01e8 00       		.byte	0
 2549 01e9 24       		.uleb128 0x24
 2550 01ea 05       		.uleb128 0x5
 2551 01eb 00       		.byte	0
 2552 01ec 03       		.uleb128 0x3
 2553 01ed 0E       		.uleb128 0xe
ARM GAS  /tmp/ccOkO5Hx.s 			page 76


 2554 01ee 3A       		.uleb128 0x3a
 2555 01ef 0B       		.uleb128 0xb
 2556 01f0 3B       		.uleb128 0x3b
 2557 01f1 05       		.uleb128 0x5
 2558 01f2 49       		.uleb128 0x49
 2559 01f3 13       		.uleb128 0x13
 2560 01f4 02       		.uleb128 0x2
 2561 01f5 18       		.uleb128 0x18
 2562 01f6 00       		.byte	0
 2563 01f7 00       		.byte	0
 2564 01f8 25       		.uleb128 0x25
 2565 01f9 34       		.uleb128 0x34
 2566 01fa 00       		.byte	0
 2567 01fb 03       		.uleb128 0x3
 2568 01fc 08       		.uleb128 0x8
 2569 01fd 3A       		.uleb128 0x3a
 2570 01fe 0B       		.uleb128 0xb
 2571 01ff 3B       		.uleb128 0x3b
 2572 0200 05       		.uleb128 0x5
 2573 0201 49       		.uleb128 0x49
 2574 0202 13       		.uleb128 0x13
 2575 0203 02       		.uleb128 0x2
 2576 0204 18       		.uleb128 0x18
 2577 0205 00       		.byte	0
 2578 0206 00       		.byte	0
 2579 0207 26       		.uleb128 0x26
 2580 0208 34       		.uleb128 0x34
 2581 0209 00       		.byte	0
 2582 020a 03       		.uleb128 0x3
 2583 020b 08       		.uleb128 0x8
 2584 020c 3A       		.uleb128 0x3a
 2585 020d 0B       		.uleb128 0xb
 2586 020e 3B       		.uleb128 0x3b
 2587 020f 05       		.uleb128 0x5
 2588 0210 49       		.uleb128 0x49
 2589 0211 13       		.uleb128 0x13
 2590 0212 3F       		.uleb128 0x3f
 2591 0213 19       		.uleb128 0x19
 2592 0214 3C       		.uleb128 0x3c
 2593 0215 19       		.uleb128 0x19
 2594 0216 00       		.byte	0
 2595 0217 00       		.byte	0
 2596 0218 00       		.byte	0
 2597              		.section	.debug_aranges,"",%progbits
 2598 0000 3C000000 		.4byte	0x3c
 2599 0004 0200     		.2byte	0x2
 2600 0006 00000000 		.4byte	.Ldebug_info0
 2601 000a 04       		.byte	0x4
 2602 000b 00       		.byte	0
 2603 000c 0000     		.2byte	0
 2604 000e 0000     		.2byte	0
 2605 0010 00000000 		.4byte	.LFB119
 2606 0014 2C000000 		.4byte	.LFE119-.LFB119
 2607 0018 00000000 		.4byte	.LFB120
 2608 001c 3E000000 		.4byte	.LFE120-.LFB120
 2609 0020 00000000 		.4byte	.LFB121
 2610 0024 F0000000 		.4byte	.LFE121-.LFB121
ARM GAS  /tmp/ccOkO5Hx.s 			page 77


 2611 0028 00000000 		.4byte	.LFB122
 2612 002c CC000000 		.4byte	.LFE122-.LFB122
 2613 0030 00000000 		.4byte	.LFB123
 2614 0034 70000000 		.4byte	.LFE123-.LFB123
 2615 0038 00000000 		.4byte	0
 2616 003c 00000000 		.4byte	0
 2617              		.section	.debug_ranges,"",%progbits
 2618              	.Ldebug_ranges0:
 2619 0000 00000000 		.4byte	.LFB119
 2620 0004 2C000000 		.4byte	.LFE119
 2621 0008 00000000 		.4byte	.LFB120
 2622 000c 3E000000 		.4byte	.LFE120
 2623 0010 00000000 		.4byte	.LFB121
 2624 0014 F0000000 		.4byte	.LFE121
 2625 0018 00000000 		.4byte	.LFB122
 2626 001c CC000000 		.4byte	.LFE122
 2627 0020 00000000 		.4byte	.LFB123
 2628 0024 70000000 		.4byte	.LFE123
 2629 0028 00000000 		.4byte	0
 2630 002c 00000000 		.4byte	0
 2631              		.section	.debug_line,"",%progbits
 2632              	.Ldebug_line0:
 2633 0000 6E020000 		.section	.debug_str,"MS",%progbits,1
 2633      0200AC01 
 2633      00000201 
 2633      FB0E0D00 
 2633      01010101 
 2634              	.LASF42:
 2635 0000 63685F74 		.ascii	"ch_threads_list\000"
 2635      68726561 
 2635      64735F6C 
 2635      69737400 
 2636              	.LASF43:
 2637 0010 74687265 		.ascii	"threads_queue_t\000"
 2637      6164735F 
 2637      71756575 
 2637      655F7400 
 2638              	.LASF36:
 2639 0020 705F7761 		.ascii	"p_waiting\000"
 2639      6974696E 
 2639      6700
 2640              	.LASF83:
 2641 002a 77746D74 		.ascii	"wtmtxp\000"
 2641      787000
 2642              	.LASF91:
 2643 0031 63686172 		.ascii	"char\000"
 2643      00
 2644              	.LASF74:
 2645 0036 72656761 		.ascii	"regarm_t\000"
 2645      726D5F74 
 2645      00
 2646              	.LASF29:
 2647 003f 705F7072 		.ascii	"p_prio\000"
 2647      696F00
 2648              	.LASF25:
 2649 0046 73797374 		.ascii	"systime_t\000"
 2649      696D655F 
ARM GAS  /tmp/ccOkO5Hx.s 			page 78


 2649      7400
 2650              	.LASF89:
 2651 0050 6D5F6F77 		.ascii	"m_owner\000"
 2651      6E657200 
 2652              	.LASF85:
 2653 0058 735F7175 		.ascii	"s_queue\000"
 2653      65756500 
 2654              	.LASF0:
 2655 0060 756E7369 		.ascii	"unsigned int\000"
 2655      676E6564 
 2655      20696E74 
 2655      00
 2656              	.LASF99:
 2657 006d 6E657874 		.ascii	"next\000"
 2657      00
 2658              	.LASF40:
 2659 0072 74687265 		.ascii	"threads_list_t\000"
 2659      6164735F 
 2659      6C697374 
 2659      5F7400
 2660              	.LASF8:
 2661 0081 5F5F696E 		.ascii	"__int32_t\000"
 2661      7433325F 
 2661      7400
 2662              	.LASF97:
 2663 008b 685F6672 		.ascii	"h_free\000"
 2663      656500
 2664              	.LASF100:
 2665 0092 68656170 		.ascii	"heap\000"
 2665      00
 2666              	.LASF80:
 2667 0097 77746F62 		.ascii	"wtobjp\000"
 2667      6A7000
 2668              	.LASF70:
 2669 009e 76746C69 		.ascii	"vtlist\000"
 2669      737400
 2670              	.LASF46:
 2671 00a5 63685F72 		.ascii	"ch_ready_list\000"
 2671      65616479 
 2671      5F6C6973 
 2671      7400
 2672              	.LASF72:
 2673 00b3 69646C65 		.ascii	"idle_thread_wa\000"
 2673      5F746872 
 2673      6561645F 
 2673      776100
 2674              	.LASF44:
 2675 00c2 63685F74 		.ascii	"ch_threads_queue\000"
 2675      68726561 
 2675      64735F71 
 2675      75657565 
 2675      00
 2676              	.LASF53:
 2677 00d3 76746675 		.ascii	"vtfunc_t\000"
 2677      6E635F74 
 2677      00
 2678              	.LASF86:
ARM GAS  /tmp/ccOkO5Hx.s 			page 79


 2679 00dc 735F636E 		.ascii	"s_cnt\000"
 2679      7400
 2680              	.LASF65:
 2681 00e2 63685F73 		.ascii	"ch_system_debug\000"
 2681      79737465 
 2681      6D5F6465 
 2681      62756700 
 2682              	.LASF111:
 2683 00f2 64656661 		.ascii	"default_heap\000"
 2683      756C745F 
 2683      68656170 
 2683      00
 2684              	.LASF18:
 2685 00ff 75696E74 		.ascii	"uint32_t\000"
 2685      33325F74 
 2685      00
 2686              	.LASF109:
 2687 0108 63684865 		.ascii	"chHeapStatus\000"
 2687      61705374 
 2687      61747573 
 2687      00
 2688              	.LASF48:
 2689 0115 725F7072 		.ascii	"r_prio\000"
 2689      696F00
 2690              	.LASF60:
 2691 011c 76745F70 		.ascii	"vt_par\000"
 2691      617200
 2692              	.LASF84:
 2693 0123 63685F73 		.ascii	"ch_semaphore\000"
 2693      656D6170 
 2693      686F7265 
 2693      00
 2694              	.LASF22:
 2695 0130 74707269 		.ascii	"tprio_t\000"
 2695      6F5F7400 
 2696              	.LASF55:
 2697 0138 63685F76 		.ascii	"ch_virtual_timer\000"
 2697      69727475 
 2697      616C5F74 
 2697      696D6572 
 2697      00
 2698              	.LASF14:
 2699 0149 6C6F6E67 		.ascii	"long long unsigned int\000"
 2699      206C6F6E 
 2699      6720756E 
 2699      7369676E 
 2699      65642069 
 2700              	.LASF6:
 2701 0160 5F5F7569 		.ascii	"__uint16_t\000"
 2701      6E743136 
 2701      5F7400
 2702              	.LASF24:
 2703 016b 636E745F 		.ascii	"cnt_t\000"
 2703      7400
 2704              	.LASF31:
 2705 0171 705F6E65 		.ascii	"p_newer\000"
 2705      77657200 
ARM GAS  /tmp/ccOkO5Hx.s 			page 80


 2706              	.LASF62:
 2707 0179 63685F76 		.ascii	"ch_virtual_timers_list\000"
 2707      69727475 
 2707      616C5F74 
 2707      696D6572 
 2707      735F6C69 
 2708              	.LASF26:
 2709 0190 74687265 		.ascii	"thread_t\000"
 2709      61645F74 
 2709      00
 2710              	.LASF114:
 2711 0199 68656170 		.ascii	"heap_header\000"
 2711      5F686561 
 2711      64657200 
 2712              	.LASF2:
 2713 01a5 73697A65 		.ascii	"size_t\000"
 2713      5F7400
 2714              	.LASF78:
 2715 01ac 7264796D 		.ascii	"rdymsg\000"
 2715      736700
 2716              	.LASF115:
 2717 01b3 5F686561 		.ascii	"_heap_init\000"
 2717      705F696E 
 2717      697400
 2718              	.LASF87:
 2719 01be 63685F6D 		.ascii	"ch_mutex\000"
 2719      75746578 
 2719      00
 2720              	.LASF13:
 2721 01c7 5F5F7569 		.ascii	"__uint64_t\000"
 2721      6E743634 
 2721      5F7400
 2722              	.LASF33:
 2723 01d2 705F6E61 		.ascii	"p_name\000"
 2723      6D6500
 2724              	.LASF96:
 2725 01d9 685F7072 		.ascii	"h_provider\000"
 2725      6F766964 
 2725      657200
 2726              	.LASF58:
 2727 01e4 76745F64 		.ascii	"vt_delta\000"
 2727      656C7461 
 2727      00
 2728              	.LASF39:
 2729 01ed 74687265 		.ascii	"thread_reference_t\000"
 2729      61645F72 
 2729      65666572 
 2729      656E6365 
 2729      5F7400
 2730              	.LASF63:
 2731 0200 76745F6C 		.ascii	"vt_lasttime\000"
 2731      61737474 
 2731      696D6500 
 2732              	.LASF21:
 2733 020c 74737461 		.ascii	"tstate_t\000"
 2733      74655F74 
 2733      00
ARM GAS  /tmp/ccOkO5Hx.s 			page 81


 2734              	.LASF32:
 2735 0215 705F6F6C 		.ascii	"p_older\000"
 2735      64657200 
 2736              	.LASF34:
 2737 021d 705F7374 		.ascii	"p_state\000"
 2737      61746500 
 2738              	.LASF15:
 2739 0225 75696E74 		.ascii	"uint8_t\000"
 2739      385F7400 
 2740              	.LASF108:
 2741 022d 63684865 		.ascii	"chHeapAlloc\000"
 2741      6170416C 
 2741      6C6F6300 
 2742              	.LASF37:
 2743 0239 705F6D74 		.ascii	"p_mtxlist\000"
 2743      786C6973 
 2743      7400
 2744              	.LASF110:
 2745 0243 73697A65 		.ascii	"sizep\000"
 2745      7000
 2746              	.LASF41:
 2747 0249 63685F74 		.ascii	"ch_thread\000"
 2747      68726561 
 2747      6400
 2748              	.LASF98:
 2749 0253 685F6D74 		.ascii	"h_mtx\000"
 2749      7800
 2750              	.LASF64:
 2751 0259 73797374 		.ascii	"system_debug_t\000"
 2751      656D5F64 
 2751      65627567 
 2751      5F7400
 2752              	.LASF12:
 2753 0268 6C6F6E67 		.ascii	"long long int\000"
 2753      206C6F6E 
 2753      6720696E 
 2753      7400
 2754              	.LASF47:
 2755 0276 725F7175 		.ascii	"r_queue\000"
 2755      65756500 
 2756              	.LASF50:
 2757 027e 725F6E65 		.ascii	"r_newer\000"
 2757      77657200 
 2758              	.LASF23:
 2759 0286 6D73675F 		.ascii	"msg_t\000"
 2759      7400
 2760              	.LASF105:
 2761 028c 63684865 		.ascii	"chHeapFree\000"
 2761      61704672 
 2761      656500
 2762              	.LASF76:
 2763 0297 636F6E74 		.ascii	"context\000"
 2763      65787400 
 2764              	.LASF35:
 2765 029f 705F666C 		.ascii	"p_flags\000"
 2765      61677300 
 2766              	.LASF54:
ARM GAS  /tmp/ccOkO5Hx.s 			page 82


 2767 02a7 76697274 		.ascii	"virtual_timer_t\000"
 2767      75616C5F 
 2767      74696D65 
 2767      725F7400 
 2768              	.LASF102:
 2769 02b7 73697A65 		.ascii	"size\000"
 2769      00
 2770              	.LASF112:
 2771 02bc 474E5520 		.ascii	"GNU C 4.8.4 20141219 (release) -mcpu=cortex-m0 -mno"
 2771      4320342E 
 2771      382E3420 
 2771      32303134 
 2771      31323139 
 2772 02ef 2D746875 		.ascii	"-thumb-interwork -mthumb -ggdb -O0 -fomit-frame-poi"
 2772      6D622D69 
 2772      6E746572 
 2772      776F726B 
 2772      202D6D74 
 2773 0322 6E746572 		.ascii	"nter -falign-functions=16 -ffunction-sections -fdat"
 2773      202D6661 
 2773      6C69676E 
 2773      2D66756E 
 2773      6374696F 
 2774 0355 612D7365 		.ascii	"a-sections -fno-common -flto\000"
 2774      6374696F 
 2774      6E73202D 
 2774      666E6F2D 
 2774      636F6D6D 
 2775              	.LASF51:
 2776 0372 725F6F6C 		.ascii	"r_older\000"
 2776      64657200 
 2777              	.LASF113:
 2778 037a 2F686F6D 		.ascii	"/home/efe/ChibiOS/os/rt/src/chheap.c\000"
 2778      652F6566 
 2778      652F4368 
 2778      6962694F 
 2778      532F6F73 
 2779              	.LASF94:
 2780 039f 6D656D6F 		.ascii	"memory_heap_t\000"
 2780      72795F68 
 2780      6561705F 
 2780      7400
 2781              	.LASF66:
 2782 03ad 70616E69 		.ascii	"panic_msg\000"
 2782      635F6D73 
 2782      6700
 2783              	.LASF20:
 2784 03b7 746D6F64 		.ascii	"tmode_t\000"
 2784      655F7400 
 2785              	.LASF71:
 2786 03bf 6D61696E 		.ascii	"mainthread\000"
 2786      74687265 
 2786      616400
 2787              	.LASF104:
 2788 03ca 63684865 		.ascii	"chHeapObjectInit\000"
 2788      61704F62 
 2788      6A656374 
ARM GAS  /tmp/ccOkO5Hx.s 			page 83


 2788      496E6974 
 2788      00
 2789              	.LASF16:
 2790 03db 75696E74 		.ascii	"uint16_t\000"
 2790      31365F74 
 2790      00
 2791              	.LASF38:
 2792 03e4 705F7265 		.ascii	"p_realprio\000"
 2792      616C7072 
 2792      696F00
 2793              	.LASF5:
 2794 03ef 73686F72 		.ascii	"short int\000"
 2794      7420696E 
 2794      7400
 2795              	.LASF95:
 2796 03f9 6D656D6F 		.ascii	"memory_heap\000"
 2796      72795F68 
 2796      65617000 
 2797              	.LASF52:
 2798 0405 725F6375 		.ascii	"r_current\000"
 2798      7272656E 
 2798      7400
 2799              	.LASF88:
 2800 040f 6D5F7175 		.ascii	"m_queue\000"
 2800      65756500 
 2801              	.LASF9:
 2802 0417 6C6F6E67 		.ascii	"long int\000"
 2802      20696E74 
 2802      00
 2803              	.LASF77:
 2804 0420 706F7274 		.ascii	"port_intctx\000"
 2804      5F696E74 
 2804      63747800 
 2805              	.LASF68:
 2806 042c 63685F73 		.ascii	"ch_system\000"
 2806      79737465 
 2806      6D00
 2807              	.LASF27:
 2808 0436 705F6E65 		.ascii	"p_next\000"
 2808      787400
 2809              	.LASF19:
 2810 043d 75696E74 		.ascii	"uint64_t\000"
 2810      36345F74 
 2810      00
 2811              	.LASF30:
 2812 0446 705F6374 		.ascii	"p_ctx\000"
 2812      7800
 2813              	.LASF69:
 2814 044c 726C6973 		.ascii	"rlist\000"
 2814      7400
 2815              	.LASF3:
 2816 0452 5F5F7569 		.ascii	"__uint8_t\000"
 2816      6E74385F 
 2816      7400
 2817              	.LASF93:
 2818 045c 6D656D67 		.ascii	"memgetfunc_t\000"
 2818      65746675 
ARM GAS  /tmp/ccOkO5Hx.s 			page 84


 2818      6E635F74 
 2818      00
 2819              	.LASF28:
 2820 0469 705F7072 		.ascii	"p_prev\000"
 2820      657600
 2821              	.LASF73:
 2822 0470 73697A65 		.ascii	"sizetype\000"
 2822      74797065 
 2822      00
 2823              	.LASF11:
 2824 0479 6C6F6E67 		.ascii	"long unsigned int\000"
 2824      20756E73 
 2824      69676E65 
 2824      6420696E 
 2824      7400
 2825              	.LASF45:
 2826 048b 72656164 		.ascii	"ready_list_t\000"
 2826      795F6C69 
 2826      73745F74 
 2826      00
 2827              	.LASF17:
 2828 0498 696E7433 		.ascii	"int32_t\000"
 2828      325F7400 
 2829              	.LASF82:
 2830 04a0 77747365 		.ascii	"wtsemp\000"
 2830      6D7000
 2831              	.LASF92:
 2832 04a7 6D757465 		.ascii	"mutex_t\000"
 2832      785F7400 
 2833              	.LASF106:
 2834 04af 5F5F6675 		.ascii	"__func__.5275\000"
 2834      6E635F5F 
 2834      2E353237 
 2834      3500
 2835              	.LASF4:
 2836 04bd 756E7369 		.ascii	"unsigned char\000"
 2836      676E6564 
 2836      20636861 
 2836      7200
 2837              	.LASF10:
 2838 04cb 5F5F7569 		.ascii	"__uint32_t\000"
 2838      6E743332 
 2838      5F7400
 2839              	.LASF61:
 2840 04d6 76697274 		.ascii	"virtual_timers_list_t\000"
 2840      75616C5F 
 2840      74696D65 
 2840      72735F6C 
 2840      6973745F 
 2841              	.LASF56:
 2842 04ec 76745F6E 		.ascii	"vt_next\000"
 2842      65787400 
 2843              	.LASF67:
 2844 04f4 63685F73 		.ascii	"ch_system_t\000"
 2844      79737465 
 2844      6D5F7400 
 2845              	.LASF81:
ARM GAS  /tmp/ccOkO5Hx.s 			page 85


 2846 0500 77747472 		.ascii	"wttrp\000"
 2846      7000
 2847              	.LASF90:
 2848 0506 6D5F6E65 		.ascii	"m_next\000"
 2848      787400
 2849              	.LASF103:
 2850 050d 68656170 		.ascii	"heapp\000"
 2850      7000
 2851              	.LASF1:
 2852 0513 7369676E 		.ascii	"signed char\000"
 2852      65642063 
 2852      68617200 
 2853              	.LASF7:
 2854 051f 73686F72 		.ascii	"short unsigned int\000"
 2854      7420756E 
 2854      7369676E 
 2854      65642069 
 2854      6E7400
 2855              	.LASF49:
 2856 0532 725F6374 		.ascii	"r_ctx\000"
 2856      7800
 2857              	.LASF75:
 2858 0538 73746B61 		.ascii	"stkalign_t\000"
 2858      6C69676E 
 2858      5F7400
 2859              	.LASF59:
 2860 0543 76745F66 		.ascii	"vt_func\000"
 2860      756E6300 
 2861              	.LASF57:
 2862 054b 76745F70 		.ascii	"vt_prev\000"
 2862      72657600 
 2863              	.LASF107:
 2864 0553 5F5F6675 		.ascii	"__func__.5292\000"
 2864      6E635F5F 
 2864      2E353239 
 2864      3200
 2865              	.LASF101:
 2866 0561 616C6967 		.ascii	"align\000"
 2866      6E00
 2867              	.LASF79:
 2868 0567 65786974 		.ascii	"exitcode\000"
 2868      636F6465 
 2868      00
 2869              		.comm	__gnu_lto_v1,1,1
 2870              		.ident	"GCC: (4.8.4-1+11-1) 4.8.4 20141219 (release)"
ARM GAS  /tmp/ccOkO5Hx.s 			page 86


DEFINED SYMBOLS
                            *ABS*:0000000000000000 chheap.c
     /tmp/ccOkO5Hx.s:504    .bss.default_heap:0000000000000000 $d
     /tmp/ccOkO5Hx.s:507    .bss.default_heap:0000000000000000 default_heap
     /tmp/ccOkO5Hx.s:510    .text._heap_init:0000000000000000 $t
     /tmp/ccOkO5Hx.s:516    .text._heap_init:0000000000000000 _heap_init
     /tmp/ccOkO5Hx.s:547    .text._heap_init:0000000000000020 $d
     /tmp/ccOkO5Hx.s:554    .text.chHeapObjectInit:0000000000000000 $t
     /tmp/ccOkO5Hx.s:560    .text.chHeapObjectInit:0000000000000000 chHeapObjectInit
     /tmp/ccOkO5Hx.s:610    .text.chHeapAlloc:0000000000000000 $t
     /tmp/ccOkO5Hx.s:616    .text.chHeapAlloc:0000000000000000 chHeapAlloc
     /tmp/ccOkO5Hx.s:779    .text.chHeapAlloc:00000000000000ec $d
     /tmp/ccOkO5Hx.s:784    .text.chHeapFree:0000000000000000 $t
     /tmp/ccOkO5Hx.s:790    .text.chHeapFree:0000000000000000 chHeapFree
     /tmp/ccOkO5Hx.s:932    .text.chHeapStatus:0000000000000000 $t
     /tmp/ccOkO5Hx.s:938    .text.chHeapStatus:0000000000000000 chHeapStatus
     /tmp/ccOkO5Hx.s:1020   .text.chHeapStatus:000000000000006c $d
                            *COM*:0000000000000001 __gnu_lto_v1
                     .debug_frame:0000000000000010 $d
     /tmp/ccOkO5Hx.s:553    .text._heap_init:000000000000002c $t

UNDEFINED SYMBOLS
chMtxObjectInit
chCoreAlloc
chMtxLock
chMtxUnlock
