ARM GAS  /tmp/ccmGK4Zp.s 			page 1


   1              		.syntax unified
   2              		.cpu cortex-m4
   3              		.fpu softvfp
   4              		.eabi_attribute 20, 1
   5              		.eabi_attribute 21, 1
   6              		.eabi_attribute 23, 3
   7              		.eabi_attribute 24, 1
   8              		.eabi_attribute 25, 1
   9              		.eabi_attribute 26, 1
  10              		.eabi_attribute 30, 6
  11              		.eabi_attribute 34, 1
  12              		.eabi_attribute 18, 4
  13              		.thumb
  14              		.file	"chmboxes.c"
  15              		.text
  16              	.Ltext0:
  17              		.cfi_sections	.debug_frame
  18              		.section	.text.port_lock,"ax",%progbits
  19              		.align	2
  20              		.p2align 4,,15
  21              		.thumb
  22              		.thumb_func
  23              		.type	port_lock, %function
  24              	port_lock:
  25              	.LFB127:
  26              		.file 1 "/home/efe/ChibiOS/os/rt/ports/ARMCMx/chcore_v7m.h"
  27              		.loc 1 456 0
  28              		.cfi_startproc
  29              		@ args = 0, pretend = 0, frame = 8
  30              		@ frame_needed = 0, uses_anonymous_args = 0
  31              		@ link register save eliminated.
  32 0000 82B0     		sub	sp, sp, #8
  33              		.cfi_def_cfa_offset 8
  34 0002 2023     		movs	r3, #32
  35 0004 0193     		str	r3, [sp, #4]
  36              	.LBB6:
  37              	.LBB7:
  38              		.file 2 "/home/efe/ChibiOS/os/ext/CMSIS/include/core_cmFunc.h"
  39              		.loc 2 548 0
  40 0006 019B     		ldr	r3, [sp, #4]
  41              	@ 548 "/home/efe/ChibiOS/os/ext/CMSIS/include/core_cmFunc.h" 1
  42 0008 83F31188 		MSR basepri, r3
  43              	@ 0 "" 2
  44              		.thumb
  45              	.LBE7:
  46              	.LBE6:
  47              		.loc 1 463 0
  48 000c 02B0     		add	sp, sp, #8
  49              		@ sp needed
  50 000e 7047     		bx	lr
  51              		.cfi_endproc
  52              	.LFE127:
  53              		.size	port_lock, .-port_lock
  54              		.section	.text.port_unlock,"ax",%progbits
  55              		.align	2
  56              		.p2align 4,,15
  57              		.thumb
ARM GAS  /tmp/ccmGK4Zp.s 			page 2


  58              		.thumb_func
  59              		.type	port_unlock, %function
  60              	port_unlock:
  61              	.LFB128:
  62              		.loc 1 470 0
  63              		.cfi_startproc
  64              		@ args = 0, pretend = 0, frame = 8
  65              		@ frame_needed = 0, uses_anonymous_args = 0
  66              		@ link register save eliminated.
  67 0000 82B0     		sub	sp, sp, #8
  68              		.cfi_def_cfa_offset 8
  69 0002 0023     		movs	r3, #0
  70 0004 0193     		str	r3, [sp, #4]
  71              	.LBB8:
  72              	.LBB9:
  73              		.loc 2 548 0
  74 0006 019B     		ldr	r3, [sp, #4]
  75              	@ 548 "/home/efe/ChibiOS/os/ext/CMSIS/include/core_cmFunc.h" 1
  76 0008 83F31188 		MSR basepri, r3
  77              	@ 0 "" 2
  78              		.thumb
  79              	.LBE9:
  80              	.LBE8:
  81              		.loc 1 477 0
  82 000c 02B0     		add	sp, sp, #8
  83              		@ sp needed
  84 000e 7047     		bx	lr
  85              		.cfi_endproc
  86              	.LFE128:
  87              		.size	port_unlock, .-port_unlock
  88              		.section	.text.chSysLock,"ax",%progbits
  89              		.align	2
  90              		.p2align 4,,15
  91              		.thumb
  92              		.thumb_func
  93              		.type	chSysLock, %function
  94              	chSysLock:
  95              	.LFB167:
  96              		.file 3 "/home/efe/ChibiOS/os/rt/include/chsys.h"
  97              		.loc 3 346 0
  98              		.cfi_startproc
  99              		@ args = 0, pretend = 0, frame = 0
 100              		@ frame_needed = 0, uses_anonymous_args = 0
 101 0000 08B5     		push	{r3, lr}
 102              		.cfi_def_cfa_offset 8
 103              		.cfi_offset 3, -8
 104              		.cfi_offset 14, -4
 105              		.loc 3 348 0
 106 0002 FFF7FEFF 		bl	port_lock
 107              		.loc 3 351 0
 108 0006 08BD     		pop	{r3, pc}
 109              		.cfi_endproc
 110              	.LFE167:
 111              		.size	chSysLock, .-chSysLock
 112 0008 AFF30080 		.section	.text.chSysUnlock,"ax",%progbits
 112      AFF30080 
 113              		.align	2
ARM GAS  /tmp/ccmGK4Zp.s 			page 3


 114              		.p2align 4,,15
 115              		.thumb
 116              		.thumb_func
 117              		.type	chSysUnlock, %function
 118              	chSysUnlock:
 119              	.LFB168:
 120              		.loc 3 358 0
 121              		.cfi_startproc
 122              		@ args = 0, pretend = 0, frame = 0
 123              		@ frame_needed = 0, uses_anonymous_args = 0
 124 0000 08B5     		push	{r3, lr}
 125              		.cfi_def_cfa_offset 8
 126              		.cfi_offset 3, -8
 127              		.cfi_offset 14, -4
 128              		.loc 3 371 0
 129 0002 FFF7FEFF 		bl	port_unlock
 130              		.loc 3 372 0
 131 0006 08BD     		pop	{r3, pc}
 132              		.cfi_endproc
 133              	.LFE168:
 134              		.size	chSysUnlock, .-chSysUnlock
 135 0008 AFF30080 		.section	.text.chSemFastWaitI,"ax",%progbits
 135      AFF30080 
 136              		.align	2
 137              		.p2align 4,,15
 138              		.thumb
 139              		.thumb_func
 140              		.type	chSemFastWaitI, %function
 141              	chSemFastWaitI:
 142              	.LFB200:
 143              		.file 4 "/home/efe/ChibiOS/os/rt/include/chsem.h"
 144              		.loc 4 118 0
 145              		.cfi_startproc
 146              		@ args = 0, pretend = 0, frame = 8
 147              		@ frame_needed = 0, uses_anonymous_args = 0
 148              		@ link register save eliminated.
 149 0000 82B0     		sub	sp, sp, #8
 150              		.cfi_def_cfa_offset 8
 151 0002 0190     		str	r0, [sp, #4]
 152              		.loc 4 122 0
 153 0004 019B     		ldr	r3, [sp, #4]
 154 0006 9B68     		ldr	r3, [r3, #8]
 155 0008 5A1E     		subs	r2, r3, #1
 156 000a 019B     		ldr	r3, [sp, #4]
 157 000c 9A60     		str	r2, [r3, #8]
 158              		.loc 4 123 0
 159 000e 02B0     		add	sp, sp, #8
 160              		@ sp needed
 161 0010 7047     		bx	lr
 162              		.cfi_endproc
 163              	.LFE200:
 164              		.size	chSemFastWaitI, .-chSemFastWaitI
 165 0012 00BFAFF3 		.section	.text.chSemGetCounterI,"ax",%progbits
 165      0080AFF3 
 165      0080AFF3 
 165      0080
 166              		.align	2
ARM GAS  /tmp/ccmGK4Zp.s 			page 4


 167              		.p2align 4,,15
 168              		.thumb
 169              		.thumb_func
 170              		.type	chSemGetCounterI, %function
 171              	chSemGetCounterI:
 172              	.LFB202:
 173              		.loc 4 149 0
 174              		.cfi_startproc
 175              		@ args = 0, pretend = 0, frame = 8
 176              		@ frame_needed = 0, uses_anonymous_args = 0
 177              		@ link register save eliminated.
 178 0000 82B0     		sub	sp, sp, #8
 179              		.cfi_def_cfa_offset 8
 180 0002 0190     		str	r0, [sp, #4]
 181              		.loc 4 153 0
 182 0004 019B     		ldr	r3, [sp, #4]
 183 0006 9B68     		ldr	r3, [r3, #8]
 184              		.loc 4 154 0
 185 0008 1846     		mov	r0, r3
 186 000a 02B0     		add	sp, sp, #8
 187              		@ sp needed
 188 000c 7047     		bx	lr
 189              		.cfi_endproc
 190              	.LFE202:
 191              		.size	chSemGetCounterI, .-chSemGetCounterI
 192 000e 00BF     		.section	.text.chMBObjectInit,"ax",%progbits
 193              		.align	2
 194              		.p2align 4,,15
 195              		.global	chMBObjectInit
 196              		.thumb
 197              		.thumb_func
 198              		.type	chMBObjectInit, %function
 199              	chMBObjectInit:
 200              	.LFB240:
 201              		.file 5 "/home/efe/ChibiOS/os/rt/src/chmboxes.c"
 202              		.loc 5 86 0
 203              		.cfi_startproc
 204              		@ args = 0, pretend = 0, frame = 16
 205              		@ frame_needed = 0, uses_anonymous_args = 0
 206 0000 00B5     		push	{lr}
 207              		.cfi_def_cfa_offset 4
 208              		.cfi_offset 14, -4
 209 0002 85B0     		sub	sp, sp, #20
 210              		.cfi_def_cfa_offset 24
 211 0004 0390     		str	r0, [sp, #12]
 212 0006 0291     		str	r1, [sp, #8]
 213 0008 0192     		str	r2, [sp, #4]
 214              		.loc 5 90 0
 215 000a 039B     		ldr	r3, [sp, #12]
 216 000c 029A     		ldr	r2, [sp, #8]
 217 000e 1A60     		str	r2, [r3]
 218              		.loc 5 91 0
 219 0010 039B     		ldr	r3, [sp, #12]
 220 0012 029A     		ldr	r2, [sp, #8]
 221 0014 DA60     		str	r2, [r3, #12]
 222              		.loc 5 92 0
 223 0016 039B     		ldr	r3, [sp, #12]
ARM GAS  /tmp/ccmGK4Zp.s 			page 5


 224 0018 029A     		ldr	r2, [sp, #8]
 225 001a 9A60     		str	r2, [r3, #8]
 226              		.loc 5 93 0
 227 001c 019B     		ldr	r3, [sp, #4]
 228 001e 9B00     		lsls	r3, r3, #2
 229 0020 029A     		ldr	r2, [sp, #8]
 230 0022 1A44     		add	r2, r2, r3
 231 0024 039B     		ldr	r3, [sp, #12]
 232 0026 5A60     		str	r2, [r3, #4]
 233              		.loc 5 94 0
 234 0028 039B     		ldr	r3, [sp, #12]
 235 002a 1C33     		adds	r3, r3, #28
 236 002c 1846     		mov	r0, r3
 237 002e 0199     		ldr	r1, [sp, #4]
 238 0030 FFF7FEFF 		bl	chSemObjectInit
 239              		.loc 5 95 0
 240 0034 039B     		ldr	r3, [sp, #12]
 241 0036 1033     		adds	r3, r3, #16
 242 0038 1846     		mov	r0, r3
 243 003a 0021     		movs	r1, #0
 244 003c FFF7FEFF 		bl	chSemObjectInit
 245              		.loc 5 96 0
 246 0040 05B0     		add	sp, sp, #20
 247              		@ sp needed
 248 0042 5DF804FB 		ldr	pc, [sp], #4
 249              		.cfi_endproc
 250              	.LFE240:
 251              		.size	chMBObjectInit, .-chMBObjectInit
 252 0046 00BFAFF3 		.section	.text.chMBReset,"ax",%progbits
 252      0080AFF3 
 252      0080
 253              		.align	2
 254              		.p2align 4,,15
 255              		.global	chMBReset
 256              		.thumb
 257              		.thumb_func
 258              		.type	chMBReset, %function
 259              	chMBReset:
 260              	.LFB241:
 261              		.loc 5 107 0
 262              		.cfi_startproc
 263              		@ args = 0, pretend = 0, frame = 8
 264              		@ frame_needed = 0, uses_anonymous_args = 0
 265 0000 00B5     		push	{lr}
 266              		.cfi_def_cfa_offset 4
 267              		.cfi_offset 14, -4
 268 0002 83B0     		sub	sp, sp, #12
 269              		.cfi_def_cfa_offset 16
 270 0004 0190     		str	r0, [sp, #4]
 271              		.loc 5 109 0
 272 0006 FFF7FEFF 		bl	chSysLock
 273              		.loc 5 110 0
 274 000a 0198     		ldr	r0, [sp, #4]
 275 000c FFF7FEFF 		bl	chMBResetI
 276              		.loc 5 111 0
 277 0010 FFF7FEFF 		bl	chSchRescheduleS
 278              		.loc 5 112 0
ARM GAS  /tmp/ccmGK4Zp.s 			page 6


 279 0014 FFF7FEFF 		bl	chSysUnlock
 280              		.loc 5 113 0
 281 0018 03B0     		add	sp, sp, #12
 282              		@ sp needed
 283 001a 5DF804FB 		ldr	pc, [sp], #4
 284              		.cfi_endproc
 285              	.LFE241:
 286              		.size	chMBReset, .-chMBReset
 287 001e 00BF     		.section	.text.chMBResetI,"ax",%progbits
 288              		.align	2
 289              		.p2align 4,,15
 290              		.global	chMBResetI
 291              		.thumb
 292              		.thumb_func
 293              		.type	chMBResetI, %function
 294              	chMBResetI:
 295              	.LFB242:
 296              		.loc 5 124 0
 297              		.cfi_startproc
 298              		@ args = 0, pretend = 0, frame = 8
 299              		@ frame_needed = 0, uses_anonymous_args = 0
 300 0000 00B5     		push	{lr}
 301              		.cfi_def_cfa_offset 4
 302              		.cfi_offset 14, -4
 303 0002 83B0     		sub	sp, sp, #12
 304              		.cfi_def_cfa_offset 16
 305 0004 0190     		str	r0, [sp, #4]
 306              		.loc 5 129 0
 307 0006 019B     		ldr	r3, [sp, #4]
 308 0008 1A68     		ldr	r2, [r3]
 309 000a 019B     		ldr	r3, [sp, #4]
 310 000c 9A60     		str	r2, [r3, #8]
 311              		.loc 5 130 0
 312 000e 019B     		ldr	r3, [sp, #4]
 313 0010 1A68     		ldr	r2, [r3]
 314 0012 019B     		ldr	r3, [sp, #4]
 315 0014 DA60     		str	r2, [r3, #12]
 316              		.loc 5 131 0
 317 0016 019B     		ldr	r3, [sp, #4]
 318 0018 03F11C02 		add	r2, r3, #28
 319 001c 019B     		ldr	r3, [sp, #4]
 320 001e 5B68     		ldr	r3, [r3, #4]
 321 0020 1946     		mov	r1, r3
 322 0022 019B     		ldr	r3, [sp, #4]
 323 0024 1B68     		ldr	r3, [r3]
 324 0026 CB1A     		subs	r3, r1, r3
 325 0028 9B10     		asrs	r3, r3, #2
 326 002a 1046     		mov	r0, r2
 327 002c 1946     		mov	r1, r3
 328 002e FFF7FEFF 		bl	chSemResetI
 329              		.loc 5 132 0
 330 0032 019B     		ldr	r3, [sp, #4]
 331 0034 1033     		adds	r3, r3, #16
 332 0036 1846     		mov	r0, r3
 333 0038 0021     		movs	r1, #0
 334 003a FFF7FEFF 		bl	chSemResetI
 335              		.loc 5 133 0
ARM GAS  /tmp/ccmGK4Zp.s 			page 7


 336 003e 03B0     		add	sp, sp, #12
 337              		@ sp needed
 338 0040 5DF804FB 		ldr	pc, [sp], #4
 339              		.cfi_endproc
 340              	.LFE242:
 341              		.size	chMBResetI, .-chMBResetI
 342 0044 AFF30080 		.section	.text.chMBPost,"ax",%progbits
 342      AFF30080 
 342      AFF30080 
 343              		.align	2
 344              		.p2align 4,,15
 345              		.global	chMBPost
 346              		.thumb
 347              		.thumb_func
 348              		.type	chMBPost, %function
 349              	chMBPost:
 350              	.LFB243:
 351              		.loc 5 154 0
 352              		.cfi_startproc
 353              		@ args = 0, pretend = 0, frame = 24
 354              		@ frame_needed = 0, uses_anonymous_args = 0
 355 0000 00B5     		push	{lr}
 356              		.cfi_def_cfa_offset 4
 357              		.cfi_offset 14, -4
 358 0002 87B0     		sub	sp, sp, #28
 359              		.cfi_def_cfa_offset 32
 360 0004 0390     		str	r0, [sp, #12]
 361 0006 0291     		str	r1, [sp, #8]
 362 0008 0192     		str	r2, [sp, #4]
 363              		.loc 5 157 0
 364 000a FFF7FEFF 		bl	chSysLock
 365              		.loc 5 158 0
 366 000e 0398     		ldr	r0, [sp, #12]
 367 0010 0299     		ldr	r1, [sp, #8]
 368 0012 019A     		ldr	r2, [sp, #4]
 369 0014 FFF7FEFF 		bl	chMBPostS
 370 0018 0590     		str	r0, [sp, #20]
 371              		.loc 5 159 0
 372 001a FFF7FEFF 		bl	chSysUnlock
 373              		.loc 5 161 0
 374 001e 059B     		ldr	r3, [sp, #20]
 375              		.loc 5 162 0
 376 0020 1846     		mov	r0, r3
 377 0022 07B0     		add	sp, sp, #28
 378              		@ sp needed
 379 0024 5DF804FB 		ldr	pc, [sp], #4
 380              		.cfi_endproc
 381              	.LFE243:
 382              		.size	chMBPost, .-chMBPost
 383 0028 AFF30080 		.section	.text.chMBPostS,"ax",%progbits
 383      AFF30080 
 384              		.align	2
 385              		.p2align 4,,15
 386              		.global	chMBPostS
 387              		.thumb
 388              		.thumb_func
 389              		.type	chMBPostS, %function
ARM GAS  /tmp/ccmGK4Zp.s 			page 8


 390              	chMBPostS:
 391              	.LFB244:
 392              		.loc 5 183 0
 393              		.cfi_startproc
 394              		@ args = 0, pretend = 0, frame = 24
 395              		@ frame_needed = 0, uses_anonymous_args = 0
 396 0000 00B5     		push	{lr}
 397              		.cfi_def_cfa_offset 4
 398              		.cfi_offset 14, -4
 399 0002 87B0     		sub	sp, sp, #28
 400              		.cfi_def_cfa_offset 32
 401 0004 0390     		str	r0, [sp, #12]
 402 0006 0291     		str	r1, [sp, #8]
 403 0008 0192     		str	r2, [sp, #4]
 404              		.loc 5 189 0
 405 000a 039B     		ldr	r3, [sp, #12]
 406 000c 1C33     		adds	r3, r3, #28
 407 000e 1846     		mov	r0, r3
 408 0010 0199     		ldr	r1, [sp, #4]
 409 0012 FFF7FEFF 		bl	chSemWaitTimeoutS
 410 0016 0590     		str	r0, [sp, #20]
 411              		.loc 5 190 0
 412 0018 059B     		ldr	r3, [sp, #20]
 413 001a 002B     		cmp	r3, #0
 414 001c 17D1     		bne	.L14
 415              		.loc 5 191 0
 416 001e 039B     		ldr	r3, [sp, #12]
 417 0020 9B68     		ldr	r3, [r3, #8]
 418 0022 191D     		adds	r1, r3, #4
 419 0024 039A     		ldr	r2, [sp, #12]
 420 0026 9160     		str	r1, [r2, #8]
 421 0028 029A     		ldr	r2, [sp, #8]
 422 002a 1A60     		str	r2, [r3]
 423              		.loc 5 192 0
 424 002c 039B     		ldr	r3, [sp, #12]
 425 002e 9A68     		ldr	r2, [r3, #8]
 426 0030 039B     		ldr	r3, [sp, #12]
 427 0032 5B68     		ldr	r3, [r3, #4]
 428 0034 9A42     		cmp	r2, r3
 429 0036 03D3     		bcc	.L15
 430              		.loc 5 193 0
 431 0038 039B     		ldr	r3, [sp, #12]
 432 003a 1A68     		ldr	r2, [r3]
 433 003c 039B     		ldr	r3, [sp, #12]
 434 003e 9A60     		str	r2, [r3, #8]
 435              	.L15:
 436              		.loc 5 195 0
 437 0040 039B     		ldr	r3, [sp, #12]
 438 0042 1033     		adds	r3, r3, #16
 439 0044 1846     		mov	r0, r3
 440 0046 FFF7FEFF 		bl	chSemSignalI
 441              		.loc 5 196 0
 442 004a FFF7FEFF 		bl	chSchRescheduleS
 443              	.L14:
 444              		.loc 5 199 0
 445 004e 059B     		ldr	r3, [sp, #20]
 446              		.loc 5 200 0
ARM GAS  /tmp/ccmGK4Zp.s 			page 9


 447 0050 1846     		mov	r0, r3
 448 0052 07B0     		add	sp, sp, #28
 449              		@ sp needed
 450 0054 5DF804FB 		ldr	pc, [sp], #4
 451              		.cfi_endproc
 452              	.LFE244:
 453              		.size	chMBPostS, .-chMBPostS
 454 0058 AFF30080 		.section	.text.chMBPostI,"ax",%progbits
 454      AFF30080 
 455              		.align	2
 456              		.p2align 4,,15
 457              		.global	chMBPostI
 458              		.thumb
 459              		.thumb_func
 460              		.type	chMBPostI, %function
 461              	chMBPostI:
 462              	.LFB245:
 463              		.loc 5 216 0
 464              		.cfi_startproc
 465              		@ args = 0, pretend = 0, frame = 8
 466              		@ frame_needed = 0, uses_anonymous_args = 0
 467 0000 00B5     		push	{lr}
 468              		.cfi_def_cfa_offset 4
 469              		.cfi_offset 14, -4
 470 0002 83B0     		sub	sp, sp, #12
 471              		.cfi_def_cfa_offset 16
 472 0004 0190     		str	r0, [sp, #4]
 473 0006 0091     		str	r1, [sp]
 474              		.loc 5 221 0
 475 0008 019B     		ldr	r3, [sp, #4]
 476 000a 1C33     		adds	r3, r3, #28
 477 000c 1846     		mov	r0, r3
 478 000e FFF7FEFF 		bl	chSemGetCounterI
 479 0012 0346     		mov	r3, r0
 480 0014 002B     		cmp	r3, #0
 481 0016 02DC     		bgt	.L18
 482              		.loc 5 222 0
 483 0018 4FF0FF33 		mov	r3, #-1
 484 001c 1BE0     		b	.L19
 485              	.L18:
 486              		.loc 5 225 0
 487 001e 019B     		ldr	r3, [sp, #4]
 488 0020 1C33     		adds	r3, r3, #28
 489 0022 1846     		mov	r0, r3
 490 0024 FFF7FEFF 		bl	chSemFastWaitI
 491              		.loc 5 226 0
 492 0028 019B     		ldr	r3, [sp, #4]
 493 002a 9B68     		ldr	r3, [r3, #8]
 494 002c 191D     		adds	r1, r3, #4
 495 002e 019A     		ldr	r2, [sp, #4]
 496 0030 9160     		str	r1, [r2, #8]
 497 0032 009A     		ldr	r2, [sp]
 498 0034 1A60     		str	r2, [r3]
 499              		.loc 5 227 0
 500 0036 019B     		ldr	r3, [sp, #4]
 501 0038 9A68     		ldr	r2, [r3, #8]
 502 003a 019B     		ldr	r3, [sp, #4]
ARM GAS  /tmp/ccmGK4Zp.s 			page 10


 503 003c 5B68     		ldr	r3, [r3, #4]
 504 003e 9A42     		cmp	r2, r3
 505 0040 03D3     		bcc	.L20
 506              		.loc 5 228 0
 507 0042 019B     		ldr	r3, [sp, #4]
 508 0044 1A68     		ldr	r2, [r3]
 509 0046 019B     		ldr	r3, [sp, #4]
 510 0048 9A60     		str	r2, [r3, #8]
 511              	.L20:
 512              		.loc 5 230 0
 513 004a 019B     		ldr	r3, [sp, #4]
 514 004c 1033     		adds	r3, r3, #16
 515 004e 1846     		mov	r0, r3
 516 0050 FFF7FEFF 		bl	chSemSignalI
 517              		.loc 5 232 0
 518 0054 0023     		movs	r3, #0
 519              	.L19:
 520              		.loc 5 233 0
 521 0056 1846     		mov	r0, r3
 522 0058 03B0     		add	sp, sp, #12
 523              		@ sp needed
 524 005a 5DF804FB 		ldr	pc, [sp], #4
 525              		.cfi_endproc
 526              	.LFE245:
 527              		.size	chMBPostI, .-chMBPostI
 528 005e 00BF     		.section	.text.chMBPostAhead,"ax",%progbits
 529              		.align	2
 530              		.p2align 4,,15
 531              		.global	chMBPostAhead
 532              		.thumb
 533              		.thumb_func
 534              		.type	chMBPostAhead, %function
 535              	chMBPostAhead:
 536              	.LFB246:
 537              		.loc 5 254 0
 538              		.cfi_startproc
 539              		@ args = 0, pretend = 0, frame = 24
 540              		@ frame_needed = 0, uses_anonymous_args = 0
 541 0000 00B5     		push	{lr}
 542              		.cfi_def_cfa_offset 4
 543              		.cfi_offset 14, -4
 544 0002 87B0     		sub	sp, sp, #28
 545              		.cfi_def_cfa_offset 32
 546 0004 0390     		str	r0, [sp, #12]
 547 0006 0291     		str	r1, [sp, #8]
 548 0008 0192     		str	r2, [sp, #4]
 549              		.loc 5 257 0
 550 000a FFF7FEFF 		bl	chSysLock
 551              		.loc 5 258 0
 552 000e 0398     		ldr	r0, [sp, #12]
 553 0010 0299     		ldr	r1, [sp, #8]
 554 0012 019A     		ldr	r2, [sp, #4]
 555 0014 FFF7FEFF 		bl	chMBPostAheadS
 556 0018 0590     		str	r0, [sp, #20]
 557              		.loc 5 259 0
 558 001a FFF7FEFF 		bl	chSysUnlock
 559              		.loc 5 261 0
ARM GAS  /tmp/ccmGK4Zp.s 			page 11


 560 001e 059B     		ldr	r3, [sp, #20]
 561              		.loc 5 262 0
 562 0020 1846     		mov	r0, r3
 563 0022 07B0     		add	sp, sp, #28
 564              		@ sp needed
 565 0024 5DF804FB 		ldr	pc, [sp], #4
 566              		.cfi_endproc
 567              	.LFE246:
 568              		.size	chMBPostAhead, .-chMBPostAhead
 569 0028 AFF30080 		.section	.text.chMBPostAheadS,"ax",%progbits
 569      AFF30080 
 570              		.align	2
 571              		.p2align 4,,15
 572              		.global	chMBPostAheadS
 573              		.thumb
 574              		.thumb_func
 575              		.type	chMBPostAheadS, %function
 576              	chMBPostAheadS:
 577              	.LFB247:
 578              		.loc 5 283 0
 579              		.cfi_startproc
 580              		@ args = 0, pretend = 0, frame = 24
 581              		@ frame_needed = 0, uses_anonymous_args = 0
 582 0000 00B5     		push	{lr}
 583              		.cfi_def_cfa_offset 4
 584              		.cfi_offset 14, -4
 585 0002 87B0     		sub	sp, sp, #28
 586              		.cfi_def_cfa_offset 32
 587 0004 0390     		str	r0, [sp, #12]
 588 0006 0291     		str	r1, [sp, #8]
 589 0008 0192     		str	r2, [sp, #4]
 590              		.loc 5 289 0
 591 000a 039B     		ldr	r3, [sp, #12]
 592 000c 1C33     		adds	r3, r3, #28
 593 000e 1846     		mov	r0, r3
 594 0010 0199     		ldr	r1, [sp, #4]
 595 0012 FFF7FEFF 		bl	chSemWaitTimeoutS
 596 0016 0590     		str	r0, [sp, #20]
 597              		.loc 5 290 0
 598 0018 059B     		ldr	r3, [sp, #20]
 599 001a 002B     		cmp	r3, #0
 600 001c 1AD1     		bne	.L24
 601              		.loc 5 291 0
 602 001e 039B     		ldr	r3, [sp, #12]
 603 0020 DB68     		ldr	r3, [r3, #12]
 604 0022 1A1F     		subs	r2, r3, #4
 605 0024 039B     		ldr	r3, [sp, #12]
 606 0026 DA60     		str	r2, [r3, #12]
 607 0028 039B     		ldr	r3, [sp, #12]
 608 002a DA68     		ldr	r2, [r3, #12]
 609 002c 039B     		ldr	r3, [sp, #12]
 610 002e 1B68     		ldr	r3, [r3]
 611 0030 9A42     		cmp	r2, r3
 612 0032 04D2     		bcs	.L25
 613              		.loc 5 292 0
 614 0034 039B     		ldr	r3, [sp, #12]
 615 0036 5B68     		ldr	r3, [r3, #4]
ARM GAS  /tmp/ccmGK4Zp.s 			page 12


 616 0038 1A1F     		subs	r2, r3, #4
 617 003a 039B     		ldr	r3, [sp, #12]
 618 003c DA60     		str	r2, [r3, #12]
 619              	.L25:
 620              		.loc 5 294 0
 621 003e 039B     		ldr	r3, [sp, #12]
 622 0040 DB68     		ldr	r3, [r3, #12]
 623 0042 029A     		ldr	r2, [sp, #8]
 624 0044 1A60     		str	r2, [r3]
 625              		.loc 5 295 0
 626 0046 039B     		ldr	r3, [sp, #12]
 627 0048 1033     		adds	r3, r3, #16
 628 004a 1846     		mov	r0, r3
 629 004c FFF7FEFF 		bl	chSemSignalI
 630              		.loc 5 296 0
 631 0050 FFF7FEFF 		bl	chSchRescheduleS
 632              	.L24:
 633              		.loc 5 299 0
 634 0054 059B     		ldr	r3, [sp, #20]
 635              		.loc 5 300 0
 636 0056 1846     		mov	r0, r3
 637 0058 07B0     		add	sp, sp, #28
 638              		@ sp needed
 639 005a 5DF804FB 		ldr	pc, [sp], #4
 640              		.cfi_endproc
 641              	.LFE247:
 642              		.size	chMBPostAheadS, .-chMBPostAheadS
 643 005e 00BF     		.section	.text.chMBPostAheadI,"ax",%progbits
 644              		.align	2
 645              		.p2align 4,,15
 646              		.global	chMBPostAheadI
 647              		.thumb
 648              		.thumb_func
 649              		.type	chMBPostAheadI, %function
 650              	chMBPostAheadI:
 651              	.LFB248:
 652              		.loc 5 316 0
 653              		.cfi_startproc
 654              		@ args = 0, pretend = 0, frame = 8
 655              		@ frame_needed = 0, uses_anonymous_args = 0
 656 0000 00B5     		push	{lr}
 657              		.cfi_def_cfa_offset 4
 658              		.cfi_offset 14, -4
 659 0002 83B0     		sub	sp, sp, #12
 660              		.cfi_def_cfa_offset 16
 661 0004 0190     		str	r0, [sp, #4]
 662 0006 0091     		str	r1, [sp]
 663              		.loc 5 321 0
 664 0008 019B     		ldr	r3, [sp, #4]
 665 000a 1C33     		adds	r3, r3, #28
 666 000c 1846     		mov	r0, r3
 667 000e FFF7FEFF 		bl	chSemGetCounterI
 668 0012 0346     		mov	r3, r0
 669 0014 002B     		cmp	r3, #0
 670 0016 02DC     		bgt	.L28
 671              		.loc 5 322 0
 672 0018 4FF0FF33 		mov	r3, #-1
ARM GAS  /tmp/ccmGK4Zp.s 			page 13


 673 001c 1EE0     		b	.L29
 674              	.L28:
 675              		.loc 5 324 0
 676 001e 019B     		ldr	r3, [sp, #4]
 677 0020 1C33     		adds	r3, r3, #28
 678 0022 1846     		mov	r0, r3
 679 0024 FFF7FEFF 		bl	chSemFastWaitI
 680              		.loc 5 325 0
 681 0028 019B     		ldr	r3, [sp, #4]
 682 002a DB68     		ldr	r3, [r3, #12]
 683 002c 1A1F     		subs	r2, r3, #4
 684 002e 019B     		ldr	r3, [sp, #4]
 685 0030 DA60     		str	r2, [r3, #12]
 686 0032 019B     		ldr	r3, [sp, #4]
 687 0034 DA68     		ldr	r2, [r3, #12]
 688 0036 019B     		ldr	r3, [sp, #4]
 689 0038 1B68     		ldr	r3, [r3]
 690 003a 9A42     		cmp	r2, r3
 691 003c 04D2     		bcs	.L30
 692              		.loc 5 326 0
 693 003e 019B     		ldr	r3, [sp, #4]
 694 0040 5B68     		ldr	r3, [r3, #4]
 695 0042 1A1F     		subs	r2, r3, #4
 696 0044 019B     		ldr	r3, [sp, #4]
 697 0046 DA60     		str	r2, [r3, #12]
 698              	.L30:
 699              		.loc 5 328 0
 700 0048 019B     		ldr	r3, [sp, #4]
 701 004a DB68     		ldr	r3, [r3, #12]
 702 004c 009A     		ldr	r2, [sp]
 703 004e 1A60     		str	r2, [r3]
 704              		.loc 5 329 0
 705 0050 019B     		ldr	r3, [sp, #4]
 706 0052 1033     		adds	r3, r3, #16
 707 0054 1846     		mov	r0, r3
 708 0056 FFF7FEFF 		bl	chSemSignalI
 709              		.loc 5 331 0
 710 005a 0023     		movs	r3, #0
 711              	.L29:
 712              		.loc 5 332 0
 713 005c 1846     		mov	r0, r3
 714 005e 03B0     		add	sp, sp, #12
 715              		@ sp needed
 716 0060 5DF804FB 		ldr	pc, [sp], #4
 717              		.cfi_endproc
 718              	.LFE248:
 719              		.size	chMBPostAheadI, .-chMBPostAheadI
 720 0064 AFF30080 		.section	.text.chMBFetch,"ax",%progbits
 720      AFF30080 
 720      AFF30080 
 721              		.align	2
 722              		.p2align 4,,15
 723              		.global	chMBFetch
 724              		.thumb
 725              		.thumb_func
 726              		.type	chMBFetch, %function
 727              	chMBFetch:
ARM GAS  /tmp/ccmGK4Zp.s 			page 14


 728              	.LFB249:
 729              		.loc 5 353 0
 730              		.cfi_startproc
 731              		@ args = 0, pretend = 0, frame = 24
 732              		@ frame_needed = 0, uses_anonymous_args = 0
 733 0000 00B5     		push	{lr}
 734              		.cfi_def_cfa_offset 4
 735              		.cfi_offset 14, -4
 736 0002 87B0     		sub	sp, sp, #28
 737              		.cfi_def_cfa_offset 32
 738 0004 0390     		str	r0, [sp, #12]
 739 0006 0291     		str	r1, [sp, #8]
 740 0008 0192     		str	r2, [sp, #4]
 741              		.loc 5 356 0
 742 000a FFF7FEFF 		bl	chSysLock
 743              		.loc 5 357 0
 744 000e 0398     		ldr	r0, [sp, #12]
 745 0010 0299     		ldr	r1, [sp, #8]
 746 0012 019A     		ldr	r2, [sp, #4]
 747 0014 FFF7FEFF 		bl	chMBFetchS
 748 0018 0590     		str	r0, [sp, #20]
 749              		.loc 5 358 0
 750 001a FFF7FEFF 		bl	chSysUnlock
 751              		.loc 5 360 0
 752 001e 059B     		ldr	r3, [sp, #20]
 753              		.loc 5 361 0
 754 0020 1846     		mov	r0, r3
 755 0022 07B0     		add	sp, sp, #28
 756              		@ sp needed
 757 0024 5DF804FB 		ldr	pc, [sp], #4
 758              		.cfi_endproc
 759              	.LFE249:
 760              		.size	chMBFetch, .-chMBFetch
 761 0028 AFF30080 		.section	.text.chMBFetchS,"ax",%progbits
 761      AFF30080 
 762              		.align	2
 763              		.p2align 4,,15
 764              		.global	chMBFetchS
 765              		.thumb
 766              		.thumb_func
 767              		.type	chMBFetchS, %function
 768              	chMBFetchS:
 769              	.LFB250:
 770              		.loc 5 382 0
 771              		.cfi_startproc
 772              		@ args = 0, pretend = 0, frame = 24
 773              		@ frame_needed = 0, uses_anonymous_args = 0
 774 0000 00B5     		push	{lr}
 775              		.cfi_def_cfa_offset 4
 776              		.cfi_offset 14, -4
 777 0002 87B0     		sub	sp, sp, #28
 778              		.cfi_def_cfa_offset 32
 779 0004 0390     		str	r0, [sp, #12]
 780 0006 0291     		str	r1, [sp, #8]
 781 0008 0192     		str	r2, [sp, #4]
 782              		.loc 5 388 0
 783 000a 039B     		ldr	r3, [sp, #12]
ARM GAS  /tmp/ccmGK4Zp.s 			page 15


 784 000c 1033     		adds	r3, r3, #16
 785 000e 1846     		mov	r0, r3
 786 0010 0199     		ldr	r1, [sp, #4]
 787 0012 FFF7FEFF 		bl	chSemWaitTimeoutS
 788 0016 0590     		str	r0, [sp, #20]
 789              		.loc 5 389 0
 790 0018 059B     		ldr	r3, [sp, #20]
 791 001a 002B     		cmp	r3, #0
 792 001c 18D1     		bne	.L34
 793              		.loc 5 390 0
 794 001e 039B     		ldr	r3, [sp, #12]
 795 0020 DB68     		ldr	r3, [r3, #12]
 796 0022 191D     		adds	r1, r3, #4
 797 0024 039A     		ldr	r2, [sp, #12]
 798 0026 D160     		str	r1, [r2, #12]
 799 0028 1A68     		ldr	r2, [r3]
 800 002a 029B     		ldr	r3, [sp, #8]
 801 002c 1A60     		str	r2, [r3]
 802              		.loc 5 391 0
 803 002e 039B     		ldr	r3, [sp, #12]
 804 0030 DA68     		ldr	r2, [r3, #12]
 805 0032 039B     		ldr	r3, [sp, #12]
 806 0034 5B68     		ldr	r3, [r3, #4]
 807 0036 9A42     		cmp	r2, r3
 808 0038 03D3     		bcc	.L35
 809              		.loc 5 392 0
 810 003a 039B     		ldr	r3, [sp, #12]
 811 003c 1A68     		ldr	r2, [r3]
 812 003e 039B     		ldr	r3, [sp, #12]
 813 0040 DA60     		str	r2, [r3, #12]
 814              	.L35:
 815              		.loc 5 394 0
 816 0042 039B     		ldr	r3, [sp, #12]
 817 0044 1C33     		adds	r3, r3, #28
 818 0046 1846     		mov	r0, r3
 819 0048 FFF7FEFF 		bl	chSemSignalI
 820              		.loc 5 395 0
 821 004c FFF7FEFF 		bl	chSchRescheduleS
 822              	.L34:
 823              		.loc 5 398 0
 824 0050 059B     		ldr	r3, [sp, #20]
 825              		.loc 5 399 0
 826 0052 1846     		mov	r0, r3
 827 0054 07B0     		add	sp, sp, #28
 828              		@ sp needed
 829 0056 5DF804FB 		ldr	pc, [sp], #4
 830              		.cfi_endproc
 831              	.LFE250:
 832              		.size	chMBFetchS, .-chMBFetchS
 833 005a 00BFAFF3 		.section	.text.chMBFetchI,"ax",%progbits
 833      0080
 834              		.align	2
 835              		.p2align 4,,15
 836              		.global	chMBFetchI
 837              		.thumb
 838              		.thumb_func
 839              		.type	chMBFetchI, %function
ARM GAS  /tmp/ccmGK4Zp.s 			page 16


 840              	chMBFetchI:
 841              	.LFB251:
 842              		.loc 5 415 0
 843              		.cfi_startproc
 844              		@ args = 0, pretend = 0, frame = 8
 845              		@ frame_needed = 0, uses_anonymous_args = 0
 846 0000 00B5     		push	{lr}
 847              		.cfi_def_cfa_offset 4
 848              		.cfi_offset 14, -4
 849 0002 83B0     		sub	sp, sp, #12
 850              		.cfi_def_cfa_offset 16
 851 0004 0190     		str	r0, [sp, #4]
 852 0006 0091     		str	r1, [sp]
 853              		.loc 5 420 0
 854 0008 019B     		ldr	r3, [sp, #4]
 855 000a 1033     		adds	r3, r3, #16
 856 000c 1846     		mov	r0, r3
 857 000e FFF7FEFF 		bl	chSemGetCounterI
 858 0012 0346     		mov	r3, r0
 859 0014 002B     		cmp	r3, #0
 860 0016 02DC     		bgt	.L38
 861              		.loc 5 421 0
 862 0018 4FF0FF33 		mov	r3, #-1
 863 001c 1CE0     		b	.L39
 864              	.L38:
 865              		.loc 5 423 0
 866 001e 019B     		ldr	r3, [sp, #4]
 867 0020 1033     		adds	r3, r3, #16
 868 0022 1846     		mov	r0, r3
 869 0024 FFF7FEFF 		bl	chSemFastWaitI
 870              		.loc 5 424 0
 871 0028 019B     		ldr	r3, [sp, #4]
 872 002a DB68     		ldr	r3, [r3, #12]
 873 002c 191D     		adds	r1, r3, #4
 874 002e 019A     		ldr	r2, [sp, #4]
 875 0030 D160     		str	r1, [r2, #12]
 876 0032 1A68     		ldr	r2, [r3]
 877 0034 009B     		ldr	r3, [sp]
 878 0036 1A60     		str	r2, [r3]
 879              		.loc 5 425 0
 880 0038 019B     		ldr	r3, [sp, #4]
 881 003a DA68     		ldr	r2, [r3, #12]
 882 003c 019B     		ldr	r3, [sp, #4]
 883 003e 5B68     		ldr	r3, [r3, #4]
 884 0040 9A42     		cmp	r2, r3
 885 0042 03D3     		bcc	.L40
 886              		.loc 5 426 0
 887 0044 019B     		ldr	r3, [sp, #4]
 888 0046 1A68     		ldr	r2, [r3]
 889 0048 019B     		ldr	r3, [sp, #4]
 890 004a DA60     		str	r2, [r3, #12]
 891              	.L40:
 892              		.loc 5 428 0
 893 004c 019B     		ldr	r3, [sp, #4]
 894 004e 1C33     		adds	r3, r3, #28
 895 0050 1846     		mov	r0, r3
 896 0052 FFF7FEFF 		bl	chSemSignalI
ARM GAS  /tmp/ccmGK4Zp.s 			page 17


 897              		.loc 5 430 0
 898 0056 0023     		movs	r3, #0
 899              	.L39:
 900              		.loc 5 431 0
 901 0058 1846     		mov	r0, r3
 902 005a 03B0     		add	sp, sp, #12
 903              		@ sp needed
 904 005c 5DF804FB 		ldr	pc, [sp], #4
 905              		.cfi_endproc
 906              	.LFE251:
 907              		.size	chMBFetchI, .-chMBFetchI
 908              		.text
 909              	.Letext0:
 910              		.file 6 "/usr/include/newlib/machine/_default_types.h"
 911              		.file 7 "/usr/include/newlib/stdint.h"
 912              		.file 8 "/home/efe/ChibiOS/os/rt/ports/ARMCMx/compilers/GCC/chtypes.h"
 913              		.file 9 "/home/efe/ChibiOS/os/rt/include/chsystypes.h"
 914              		.file 10 "/home/efe/ChibiOS/os/rt/include/chschd.h"
 915              		.file 11 "/home/efe/ChibiOS/os/rt/ports/ARMCMx/chcore.h"
 916              		.file 12 "/home/efe/ChibiOS/os/rt/include/chtm.h"
 917              		.file 13 "/home/efe/ChibiOS/os/rt/include/chmtx.h"
 918              		.file 14 "/home/efe/ChibiOS/os/rt/include/chmboxes.h"
 919              		.file 15 "/home/efe/ChibiOS/os/ext/CMSIS/include/core_cm4.h"