ARM GAS  /tmp/ccmGK4Zp.s 			page 1


   1              		.syntax unified
   2              		.cpu cortex-m4
   3              		.fpu softvfp
   4              		.eabi_attribute 20, 1
   5              		.eabi_attribute 21, 1
   6              		.eabi_attribute 23, 3
   7              		.eabi_attribute 24, 1
   8              		.eabi_attribute 25, 1
   9              		.eabi_attribute 26, 1
  10              		.eabi_attribute 30, 6
  11              		.eabi_attribute 34, 1
  12              		.eabi_attribute 18, 4
  13              		.thumb
  14              		.file	"chmboxes.c"
  15              		.text
  16              	.Ltext0:
  17              		.cfi_sections	.debug_frame
  18              		.section	.text.port_lock,"ax",%progbits
  19              		.align	2
  20              		.p2align 4,,15
  21              		.thumb
  22              		.thumb_func
  23              		.type	port_lock, %function
  24              	port_lock:
  25              	.LFB127:
  26              		.file 1 "/home/efe/ChibiOS/os/rt/ports/ARMCMx/chcore_v7m.h"
  27              		.loc 1 456 0
  28              		.cfi_startproc
  29              		@ args = 0, pretend = 0, frame = 8
  30              		@ frame_needed = 0, uses_anonymous_args = 0
  31              		@ link register save eliminated.
  32 0000 82B0     		sub	sp, sp, #8
  33              		.cfi_def_cfa_offset 8
  34 0002 2023     		movs	r3, #32
  35 0004 0193     		str	r3, [sp, #4]
  36              	.LBB6:
  37              	.LBB7:
  38              		.file 2 "/home/efe/ChibiOS/os/ext/CMSIS/include/core_cmFunc.h"
  39              		.loc 2 548 0
  40 0006 019B     		ldr	r3, [sp, #4]
  41              	@ 548 "/home/efe/ChibiOS/os/ext/CMSIS/include/core_cmFunc.h" 1
  42 0008 83F31188 		MSR basepri, r3
  43              	@ 0 "" 2
  44              		.thumb
  45              	.LBE7:
  46              	.LBE6:
  47              		.loc 1 463 0
  48 000c 02B0     		add	sp, sp, #8
  49              		@ sp needed
  50 000e 7047     		bx	lr
  51              		.cfi_endproc
  52              	.LFE127:
  53              		.size	port_lock, .-port_lock
  54              		.section	.text.port_unlock,"ax",%progbits
  55              		.align	2
  56              		.p2align 4,,15
  57              		.thumb
ARM GAS  /tmp/ccmGK4Zp.s 			page 2


  58              		.thumb_func
  59              		.type	port_unlock, %function
  60              	port_unlock:
  61              	.LFB128:
  62              		.loc 1 470 0
  63              		.cfi_startproc
  64              		@ args = 0, pretend = 0, frame = 8
  65              		@ frame_needed = 0, uses_anonymous_args = 0
  66              		@ link register save eliminated.
  67 0000 82B0     		sub	sp, sp, #8
  68              		.cfi_def_cfa_offset 8
  69 0002 0023     		movs	r3, #0
  70 0004 0193     		str	r3, [sp, #4]
  71              	.LBB8:
  72              	.LBB9:
  73              		.loc 2 548 0
  74 0006 019B     		ldr	r3, [sp, #4]
  75              	@ 548 "/home/efe/ChibiOS/os/ext/CMSIS/include/core_cmFunc.h" 1
  76 0008 83F31188 		MSR basepri, r3
  77              	@ 0 "" 2
  78              		.thumb
  79              	.LBE9:
  80              	.LBE8:
  81              		.loc 1 477 0
  82 000c 02B0     		add	sp, sp, #8
  83              		@ sp needed
  84 000e 7047     		bx	lr
  85              		.cfi_endproc
  86              	.LFE128:
  87              		.size	port_unlock, .-port_unlock
  88              		.section	.text.chSysLock,"ax",%progbits
  89              		.align	2
  90              		.p2align 4,,15
  91              		.thumb
  92              		.thumb_func
  93              		.type	chSysLock, %function
  94              	chSysLock:
  95              	.LFB167:
  96              		.file 3 "/home/efe/ChibiOS/os/rt/include/chsys.h"
  97              		.loc 3 346 0
  98              		.cfi_startproc
  99              		@ args = 0, pretend = 0, frame = 0
 100              		@ frame_needed = 0, uses_anonymous_args = 0
 101 0000 08B5     		push	{r3, lr}
 102              		.cfi_def_cfa_offset 8
 103              		.cfi_offset 3, -8
 104              		.cfi_offset 14, -4
 105              		.loc 3 348 0
 106 0002 FFF7FEFF 		bl	port_lock
 107              		.loc 3 351 0
 108 0006 08BD     		pop	{r3, pc}
 109              		.cfi_endproc
 110              	.LFE167:
 111              		.size	chSysLock, .-chSysLock
 112 0008 AFF30080 		.section	.text.chSysUnlock,"ax",%progbits
 112      AFF30080 
 113              		.align	2
ARM GAS  /tmp/ccmGK4Zp.s 			page 3


 114              		.p2align 4,,15
 115              		.thumb
 116              		.thumb_func
 117              		.type	chSysUnlock, %function
 118              	chSysUnlock:
 119              	.LFB168:
 120              		.loc 3 358 0
 121              		.cfi_startproc
 122              		@ args = 0, pretend = 0, frame = 0
 123              		@ frame_needed = 0, uses_anonymous_args = 0
 124 0000 08B5     		push	{r3, lr}
 125              		.cfi_def_cfa_offset 8
 126              		.cfi_offset 3, -8
 127              		.cfi_offset 14, -4
 128              		.loc 3 371 0
 129 0002 FFF7FEFF 		bl	port_unlock
 130              		.loc 3 372 0
 131 0006 08BD     		pop	{r3, pc}
 132              		.cfi_endproc
 133              	.LFE168:
 134              		.size	chSysUnlock, .-chSysUnlock
 135 0008 AFF30080 		.section	.text.chSemFastWaitI,"ax",%progbits
 135      AFF30080 
 136              		.align	2
 137              		.p2align 4,,15
 138              		.thumb
 139              		.thumb_func
 140              		.type	chSemFastWaitI, %function
 141              	chSemFastWaitI:
 142              	.LFB200:
 143              		.file 4 "/home/efe/ChibiOS/os/rt/include/chsem.h"
 144              		.loc 4 118 0
 145              		.cfi_startproc
 146              		@ args = 0, pretend = 0, frame = 8
 147              		@ frame_needed = 0, uses_anonymous_args = 0
 148              		@ link register save eliminated.
 149 0000 82B0     		sub	sp, sp, #8
 150              		.cfi_def_cfa_offset 8
 151 0002 0190     		str	r0, [sp, #4]
 152              		.loc 4 122 0
 153 0004 019B     		ldr	r3, [sp, #4]
 154 0006 9B68     		ldr	r3, [r3, #8]
 155 0008 5A1E     		subs	r2, r3, #1
 156 000a 019B     		ldr	r3, [sp, #4]
 157 000c 9A60     		str	r2, [r3, #8]
 158              		.loc 4 123 0
 159 000e 02B0     		add	sp, sp, #8
 160              		@ sp needed
 161 0010 7047     		bx	lr
 162              		.cfi_endproc
 163              	.LFE200:
 164              		.size	chSemFastWaitI, .-chSemFastWaitI
 165 0012 00BFAFF3 		.section	.text.chSemGetCounterI,"ax",%progbits
 165      0080AFF3 
 165      0080AFF3 
 165      0080
 166              		.align	2
ARM GAS  /tmp/ccmGK4Zp.s 			page 4


 167              		.p2align 4,,15
 168              		.thumb
 169              		.thumb_func
 170              		.type	chSemGetCounterI, %function
 171              	chSemGetCounterI:
 172              	.LFB202:
 173              		.loc 4 149 0
 174              		.cfi_startproc
 175              		@ args = 0, pretend = 0, frame = 8
 176              		@ frame_needed = 0, uses_anonymous_args = 0
 177              		@ link register save eliminated.
 178 0000 82B0     		sub	sp, sp, #8
 179              		.cfi_def_cfa_offset 8
 180 0002 0190     		str	r0, [sp, #4]
 181              		.loc 4 153 0
 182 0004 019B     		ldr	r3, [sp, #4]
 183 0006 9B68     		ldr	r3, [r3, #8]
 184              		.loc 4 154 0
 185 0008 1846     		mov	r0, r3
 186 000a 02B0     		add	sp, sp, #8
 187              		@ sp needed
 188 000c 7047     		bx	lr
 189              		.cfi_endproc
 190              	.LFE202:
 191              		.size	chSemGetCounterI, .-chSemGetCounterI
 192 000e 00BF     		.section	.text.chMBObjectInit,"ax",%progbits
 193              		.align	2
 194              		.p2align 4,,15
 195              		.global	chMBObjectInit
 196              		.thumb
 197              		.thumb_func
 198              		.type	chMBObjectInit, %function
 199              	chMBObjectInit:
 200              	.LFB240:
 201              		.file 5 "/home/efe/ChibiOS/os/rt/src/chmboxes.c"
 202              		.loc 5 86 0
 203              		.cfi_startproc
 204              		@ args = 0, pretend = 0, frame = 16
 205              		@ frame_needed = 0, uses_anonymous_args = 0
 206 0000 00B5     		push	{lr}
 207              		.cfi_def_cfa_offset 4
 208              		.cfi_offset 14, -4
 209 0002 85B0     		sub	sp, sp, #20
 210              		.cfi_def_cfa_offset 24
 211 0004 0390     		str	r0, [sp, #12]
 212 0006 0291     		str	r1, [sp, #8]
 213 0008 0192     		str	r2, [sp, #4]
 214              		.loc 5 90 0
 215 000a 039B     		ldr	r3, [sp, #12]
 216 000c 029A     		ldr	r2, [sp, #8]
 217 000e 1A60     		str	r2, [r3]
 218              		.loc 5 91 0
 219 0010 039B     		ldr	r3, [sp, #12]
 220 0012 029A     		ldr	r2, [sp, #8]
 221 0014 DA60     		str	r2, [r3, #12]
 222              		.loc 5 92 0
 223 0016 039B     		ldr	r3, [sp, #12]
ARM GAS  /tmp/ccmGK4Zp.s 			page 5


 224 0018 029A     		ldr	r2, [sp, #8]
 225 001a 9A60     		str	r2, [r3, #8]
 226              		.loc 5 93 0
 227 001c 019B     		ldr	r3, [sp, #4]
 228 001e 9B00     		lsls	r3, r3, #2
 229 0020 029A     		ldr	r2, [sp, #8]
 230 0022 1A44     		add	r2, r2, r3
 231 0024 039B     		ldr	r3, [sp, #12]
 232 0026 5A60     		str	r2, [r3, #4]
 233              		.loc 5 94 0
 234 0028 039B     		ldr	r3, [sp, #12]
 235 002a 1C33     		adds	r3, r3, #28
 236 002c 1846     		mov	r0, r3
 237 002e 0199     		ldr	r1, [sp, #4]
 238 0030 FFF7FEFF 		bl	chSemObjectInit
 239              		.loc 5 95 0
 240 0034 039B     		ldr	r3, [sp, #12]
 241 0036 1033     		adds	r3, r3, #16
 242 0038 1846     		mov	r0, r3
 243 003a 0021     		movs	r1, #0
 244 003c FFF7FEFF 		bl	chSemObjectInit
 245              		.loc 5 96 0
 246 0040 05B0     		add	sp, sp, #20
 247              		@ sp needed
 248 0042 5DF804FB 		ldr	pc, [sp], #4
 249              		.cfi_endproc
 250              	.LFE240:
 251              		.size	chMBObjectInit, .-chMBObjectInit
 252 0046 00BFAFF3 		.section	.text.chMBReset,"ax",%progbits
 252      0080AFF3 
 252      0080
 253              		.align	2
 254              		.p2align 4,,15
 255              		.global	chMBReset
 256              		.thumb
 257              		.thumb_func
 258              		.type	chMBReset, %function
 259              	chMBReset:
 260              	.LFB241:
 261              		.loc 5 107 0
 262              		.cfi_startproc
 263              		@ args = 0, pretend = 0, frame = 8
 264              		@ frame_needed = 0, uses_anonymous_args = 0
 265 0000 00B5     		push	{lr}
 266              		.cfi_def_cfa_offset 4
 267              		.cfi_offset 14, -4
 268 0002 83B0     		sub	sp, sp, #12
 269              		.cfi_def_cfa_offset 16
 270 0004 0190     		str	r0, [sp, #4]
 271              		.loc 5 109 0
 272 0006 FFF7FEFF 		bl	chSysLock
 273              		.loc 5 110 0
 274 000a 0198     		ldr	r0, [sp, #4]
 275 000c FFF7FEFF 		bl	chMBResetI
 276              		.loc 5 111 0
 277 0010 FFF7FEFF 		bl	chSchRescheduleS
 278              		.loc 5 112 0
ARM GAS  /tmp/ccmGK4Zp.s 			page 6


 279 0014 FFF7FEFF 		bl	chSysUnlock
 280              		.loc 5 113 0
 281 0018 03B0     		add	sp, sp, #12
 282              		@ sp needed
 283 001a 5DF804FB 		ldr	pc, [sp], #4
 284              		.cfi_endproc
 285              	.LFE241:
 286              		.size	chMBReset, .-chMBReset
 287 001e 00BF     		.section	.text.chMBResetI,"ax",%progbits
 288              		.align	2
 289              		.p2align 4,,15
 290              		.global	chMBResetI
 291              		.thumb
 292              		.thumb_func
 293              		.type	chMBResetI, %function
 294              	chMBResetI:
 295              	.LFB242:
 296              		.loc 5 124 0
 297              		.cfi_startproc
 298              		@ args = 0, pretend = 0, frame = 8
 299              		@ frame_needed = 0, uses_anonymous_args = 0
 300 0000 00B5     		push	{lr}
 301              		.cfi_def_cfa_offset 4
 302              		.cfi_offset 14, -4
 303 0002 83B0     		sub	sp, sp, #12
 304              		.cfi_def_cfa_offset 16
 305 0004 0190     		str	r0, [sp, #4]
 306              		.loc 5 129 0
 307 0006 019B     		ldr	r3, [sp, #4]
 308 0008 1A68     		ldr	r2, [r3]
 309 000a 019B     		ldr	r3, [sp, #4]
 310 000c 9A60     		str	r2, [r3, #8]
 311              		.loc 5 130 0
 312 000e 019B     		ldr	r3, [sp, #4]
 313 0010 1A68     		ldr	r2, [r3]
 314 0012 019B     		ldr	r3, [sp, #4]
 315 0014 DA60     		str	r2, [r3, #12]
 316              		.loc 5 131 0
 317 0016 019B     		ldr	r3, [sp, #4]
 318 0018 03F11C02 		add	r2, r3, #28
 319 001c 019B     		ldr	r3, [sp, #4]
 320 001e 5B68     		ldr	r3, [r3, #4]
 321 0020 1946     		mov	r1, r3
 322 0022 019B     		ldr	r3, [sp, #4]
 323 0024 1B68     		ldr	r3, [r3]
 324 0026 CB1A     		subs	r3, r1, r3
 325 0028 9B10     		asrs	r3, r3, #2
 326 002a 1046     		mov	r0, r2
 327 002c 1946     		mov	r1, r3
 328 002e FFF7FEFF 		bl	chSemResetI
 329              		.loc 5 132 0
 330 0032 019B     		ldr	r3, [sp, #4]
 331 0034 1033     		adds	r3, r3, #16
 332 0036 1846     		mov	r0, r3
 333 0038 0021     		movs	r1, #0
 334 003a FFF7FEFF 		bl	chSemResetI
 335              		.loc 5 133 0
ARM GAS  /tmp/ccmGK4Zp.s 			page 7


 336 003e 03B0     		add	sp, sp, #12
 337              		@ sp needed
 338 0040 5DF804FB 		ldr	pc, [sp], #4
 339              		.cfi_endproc
 340              	.LFE242:
 341              		.size	chMBResetI, .-chMBResetI
 342 0044 AFF30080 		.section	.text.chMBPost,"ax",%progbits
 342      AFF30080 
 342      AFF30080 
 343              		.align	2
 344              		.p2align 4,,15
 345              		.global	chMBPost
 346              		.thumb
 347              		.thumb_func
 348              		.type	chMBPost, %function
 349              	chMBPost:
 350              	.LFB243:
 351              		.loc 5 154 0
 352              		.cfi_startproc
 353              		@ args = 0, pretend = 0, frame = 24
 354              		@ frame_needed = 0, uses_anonymous_args = 0
 355 0000 00B5     		push	{lr}
 356              		.cfi_def_cfa_offset 4
 357              		.cfi_offset 14, -4
 358 0002 87B0     		sub	sp, sp, #28
 359              		.cfi_def_cfa_offset 32
 360 0004 0390     		str	r0, [sp, #12]
 361 0006 0291     		str	r1, [sp, #8]
 362 0008 0192     		str	r2, [sp, #4]
 363              		.loc 5 157 0
 364 000a FFF7FEFF 		bl	chSysLock
 365              		.loc 5 158 0
 366 000e 0398     		ldr	r0, [sp, #12]
 367 0010 0299     		ldr	r1, [sp, #8]
 368 0012 019A     		ldr	r2, [sp, #4]
 369 0014 FFF7FEFF 		bl	chMBPostS
 370 0018 0590     		str	r0, [sp, #20]
 371              		.loc 5 159 0
 372 001a FFF7FEFF 		bl	chSysUnlock
 373              		.loc 5 161 0
 374 001e 059B     		ldr	r3, [sp, #20]
 375              		.loc 5 162 0
 376 0020 1846     		mov	r0, r3
 377 0022 07B0     		add	sp, sp, #28
 378              		@ sp needed
 379 0024 5DF804FB 		ldr	pc, [sp], #4
 380              		.cfi_endproc
 381              	.LFE243:
 382              		.size	chMBPost, .-chMBPost
 383 0028 AFF30080 		.section	.text.chMBPostS,"ax",%progbits
 383      AFF30080 
 384              		.align	2
 385              		.p2align 4,,15
 386              		.global	chMBPostS
 387              		.thumb
 388              		.thumb_func
 389              		.type	chMBPostS, %function
ARM GAS  /tmp/ccmGK4Zp.s 			page 8


 390              	chMBPostS:
 391              	.LFB244:
 392              		.loc 5 183 0
 393              		.cfi_startproc
 394              		@ args = 0, pretend = 0, frame = 24
 395              		@ frame_needed = 0, uses_anonymous_args = 0
 396 0000 00B5     		push	{lr}
 397              		.cfi_def_cfa_offset 4
 398              		.cfi_offset 14, -4
 399 0002 87B0     		sub	sp, sp, #28
 400              		.cfi_def_cfa_offset 32
 401 0004 0390     		str	r0, [sp, #12]
 402 0006 0291     		str	r1, [sp, #8]
 403 0008 0192     		str	r2, [sp, #4]
 404              		.loc 5 189 0
 405 000a 039B     		ldr	r3, [sp, #12]
 406 000c 1C33     		adds	r3, r3, #28
 407 000e 1846     		mov	r0, r3
 408 0010 0199     		ldr	r1, [sp, #4]
 409 0012 FFF7FEFF 		bl	chSemWaitTimeoutS
 410 0016 0590     		str	r0, [sp, #20]
 411              		.loc 5 190 0
 412 0018 059B     		ldr	r3, [sp, #20]
 413 001a 002B     		cmp	r3, #0
 414 001c 17D1     		bne	.L14
 415              		.loc 5 191 0
 416 001e 039B     		ldr	r3, [sp, #12]
 417 0020 9B68     		ldr	r3, [r3, #8]
 418 0022 191D     		adds	r1, r3, #4
 419 0024 039A     		ldr	r2, [sp, #12]
 420 0026 9160     		str	r1, [r2, #8]
 421 0028 029A     		ldr	r2, [sp, #8]
 422 002a 1A60     		str	r2, [r3]
 423              		.loc 5 192 0
 424 002c 039B     		ldr	r3, [sp, #12]
 425 002e 9A68     		ldr	r2, [r3, #8]
 426 0030 039B     		ldr	r3, [sp, #12]
 427 0032 5B68     		ldr	r3, [r3, #4]
 428 0034 9A42     		cmp	r2, r3
 429 0036 03D3     		bcc	.L15
 430              		.loc 5 193 0
 431 0038 039B     		ldr	r3, [sp, #12]
 432 003a 1A68     		ldr	r2, [r3]
 433 003c 039B     		ldr	r3, [sp, #12]
 434 003e 9A60     		str	r2, [r3, #8]
 435              	.L15:
 436              		.loc 5 195 0
 437 0040 039B     		ldr	r3, [sp, #12]
 438 0042 1033     		adds	r3, r3, #16
 439 0044 1846     		mov	r0, r3
 440 0046 FFF7FEFF 		bl	chSemSignalI
 441              		.loc 5 196 0
 442 004a FFF7FEFF 		bl	chSchRescheduleS
 443              	.L14:
 444              		.loc 5 199 0
 445 004e 059B     		ldr	r3, [sp, #20]
 446              		.loc 5 200 0
ARM GAS  /tmp/ccmGK4Zp.s 			page 9


 447 0050 1846     		mov	r0, r3
 448 0052 07B0     		add	sp, sp, #28
 449              		@ sp needed
 450 0054 5DF804FB 		ldr	pc, [sp], #4
 451              		.cfi_endproc
 452              	.LFE244:
 453              		.size	chMBPostS, .-chMBPostS
 454 0058 AFF30080 		.section	.text.chMBPostI,"ax",%progbits
 454      AFF30080 
 455              		.align	2
 456              		.p2align 4,,15
 457              		.global	chMBPostI
 458              		.thumb
 459              		.thumb_func
 460              		.type	chMBPostI, %function
 461              	chMBPostI:
 462              	.LFB245:
 463              		.loc 5 216 0
 464              		.cfi_startproc
 465              		@ args = 0, pretend = 0, frame = 8
 466              		@ frame_needed = 0, uses_anonymous_args = 0
 467 0000 00B5     		push	{lr}
 468              		.cfi_def_cfa_offset 4
 469              		.cfi_offset 14, -4
 470 0002 83B0     		sub	sp, sp, #12
 471              		.cfi_def_cfa_offset 16
 472 0004 0190     		str	r0, [sp, #4]
 473 0006 0091     		str	r1, [sp]
 474              		.loc 5 221 0
 475 0008 019B     		ldr	r3, [sp, #4]
 476 000a 1C33     		adds	r3, r3, #28
 477 000c 1846     		mov	r0, r3
 478 000e FFF7FEFF 		bl	chSemGetCounterI
 479 0012 0346     		mov	r3, r0
 480 0014 002B     		cmp	r3, #0
 481 0016 02DC     		bgt	.L18
 482              		.loc 5 222 0
 483 0018 4FF0FF33 		mov	r3, #-1
 484 001c 1BE0     		b	.L19
 485              	.L18:
 486              		.loc 5 225 0
 487 001e 019B     		ldr	r3, [sp, #4]
 488 0020 1C33     		adds	r3, r3, #28
 489 0022 1846     		mov	r0, r3
 490 0024 FFF7FEFF 		bl	chSemFastWaitI
 491              		.loc 5 226 0
 492 0028 019B     		ldr	r3, [sp, #4]
 493 002a 9B68     		ldr	r3, [r3, #8]
 494 002c 191D     		adds	r1, r3, #4
 495 002e 019A     		ldr	r2, [sp, #4]
 496 0030 9160     		str	r1, [r2, #8]
 497 0032 009A     		ldr	r2, [sp]
 498 0034 1A60     		str	r2, [r3]
 499              		.loc 5 227 0
 500 0036 019B     		ldr	r3, [sp, #4]
 501 0038 9A68     		ldr	r2, [r3, #8]
 502 003a 019B     		ldr	r3, [sp, #4]
ARM GAS  /tmp/ccmGK4Zp.s 			page 10


 503 003c 5B68     		ldr	r3, [r3, #4]
 504 003e 9A42     		cmp	r2, r3
 505 0040 03D3     		bcc	.L20
 506              		.loc 5 228 0
 507 0042 019B     		ldr	r3, [sp, #4]
 508 0044 1A68     		ldr	r2, [r3]
 509 0046 019B     		ldr	r3, [sp, #4]
 510 0048 9A60     		str	r2, [r3, #8]
 511              	.L20:
 512              		.loc 5 230 0
 513 004a 019B     		ldr	r3, [sp, #4]
 514 004c 1033     		adds	r3, r3, #16
 515 004e 1846     		mov	r0, r3
 516 0050 FFF7FEFF 		bl	chSemSignalI
 517              		.loc 5 232 0
 518 0054 0023     		movs	r3, #0
 519              	.L19:
 520              		.loc 5 233 0
 521 0056 1846     		mov	r0, r3
 522 0058 03B0     		add	sp, sp, #12
 523              		@ sp needed
 524 005a 5DF804FB 		ldr	pc, [sp], #4
 525              		.cfi_endproc
 526              	.LFE245:
 527              		.size	chMBPostI, .-chMBPostI
 528 005e 00BF     		.section	.text.chMBPostAhead,"ax",%progbits
 529              		.align	2
 530              		.p2align 4,,15
 531              		.global	chMBPostAhead
 532              		.thumb
 533              		.thumb_func
 534              		.type	chMBPostAhead, %function
 535              	chMBPostAhead:
 536              	.LFB246:
 537              		.loc 5 254 0
 538              		.cfi_startproc
 539              		@ args = 0, pretend = 0, frame = 24
 540              		@ frame_needed = 0, uses_anonymous_args = 0
 541 0000 00B5     		push	{lr}
 542              		.cfi_def_cfa_offset 4
 543              		.cfi_offset 14, -4
 544 0002 87B0     		sub	sp, sp, #28
 545              		.cfi_def_cfa_offset 32
 546 0004 0390     		str	r0, [sp, #12]
 547 0006 0291     		str	r1, [sp, #8]
 548 0008 0192     		str	r2, [sp, #4]
 549              		.loc 5 257 0
 550 000a FFF7FEFF 		bl	chSysLock
 551              		.loc 5 258 0
 552 000e 0398     		ldr	r0, [sp, #12]
 553 0010 0299     		ldr	r1, [sp, #8]
 554 0012 019A     		ldr	r2, [sp, #4]
 555 0014 FFF7FEFF 		bl	chMBPostAheadS
 556 0018 0590     		str	r0, [sp, #20]
 557              		.loc 5 259 0
 558 001a FFF7FEFF 		bl	chSysUnlock
 559              		.loc 5 261 0
ARM GAS  /tmp/ccmGK4Zp.s 			page 11


 560 001e 059B     		ldr	r3, [sp, #20]
 561              		.loc 5 262 0
 562 0020 1846     		mov	r0, r3
 563 0022 07B0     		add	sp, sp, #28
 564              		@ sp needed
 565 0024 5DF804FB 		ldr	pc, [sp], #4
 566              		.cfi_endproc
 567              	.LFE246:
 568              		.size	chMBPostAhead, .-chMBPostAhead
 569 0028 AFF30080 		.section	.text.chMBPostAheadS,"ax",%progbits
 569      AFF30080 
 570              		.align	2
 571              		.p2align 4,,15
 572              		.global	chMBPostAheadS
 573              		.thumb
 574              		.thumb_func
 575              		.type	chMBPostAheadS, %function
 576              	chMBPostAheadS:
 577              	.LFB247:
 578              		.loc 5 283 0
 579              		.cfi_startproc
 580              		@ args = 0, pretend = 0, frame = 24
 581              		@ frame_needed = 0, uses_anonymous_args = 0
 582 0000 00B5     		push	{lr}
 583              		.cfi_def_cfa_offset 4
 584              		.cfi_offset 14, -4
 585 0002 87B0     		sub	sp, sp, #28
 586              		.cfi_def_cfa_offset 32
 587 0004 0390     		str	r0, [sp, #12]
 588 0006 0291     		str	r1, [sp, #8]
 589 0008 0192     		str	r2, [sp, #4]
 590              		.loc 5 289 0
 591 000a 039B     		ldr	r3, [sp, #12]
 592 000c 1C33     		adds	r3, r3, #28
 593 000e 1846     		mov	r0, r3
 594 0010 0199     		ldr	r1, [sp, #4]
 595 0012 FFF7FEFF 		bl	chSemWaitTimeoutS
 596 0016 0590     		str	r0, [sp, #20]
 597              		.loc 5 290 0
 598 0018 059B     		ldr	r3, [sp, #20]
 599 001a 002B     		cmp	r3, #0
 600 001c 1AD1     		bne	.L24
 601              		.loc 5 291 0
 602 001e 039B     		ldr	r3, [sp, #12]
 603 0020 DB68     		ldr	r3, [r3, #12]
 604 0022 1A1F     		subs	r2, r3, #4
 605 0024 039B     		ldr	r3, [sp, #12]
 606 0026 DA60     		str	r2, [r3, #12]
 607 0028 039B     		ldr	r3, [sp, #12]
 608 002a DA68     		ldr	r2, [r3, #12]
 609 002c 039B     		ldr	r3, [sp, #12]
 610 002e 1B68     		ldr	r3, [r3]
 611 0030 9A42     		cmp	r2, r3
 612 0032 04D2     		bcs	.L25
 613              		.loc 5 292 0
 614 0034 039B     		ldr	r3, [sp, #12]
 615 0036 5B68     		ldr	r3, [r3, #4]
ARM GAS  /tmp/ccmGK4Zp.s 			page 12


 616 0038 1A1F     		subs	r2, r3, #4
 617 003a 039B     		ldr	r3, [sp, #12]
 618 003c DA60     		str	r2, [r3, #12]
 619              	.L25:
 620              		.loc 5 294 0
 621 003e 039B     		ldr	r3, [sp, #12]
 622 0040 DB68     		ldr	r3, [r3, #12]
 623 0042 029A     		ldr	r2, [sp, #8]
 624 0044 1A60     		str	r2, [r3]
 625              		.loc 5 295 0
 626 0046 039B     		ldr	r3, [sp, #12]
 627 0048 1033     		adds	r3, r3, #16
 628 004a 1846     		mov	r0, r3
 629 004c FFF7FEFF 		bl	chSemSignalI
 630              		.loc 5 296 0
 631 0050 FFF7FEFF 		bl	chSchRescheduleS
 632              	.L24:
 633              		.loc 5 299 0
 634 0054 059B     		ldr	r3, [sp, #20]
 635              		.loc 5 300 0
 636 0056 1846     		mov	r0, r3
 637 0058 07B0     		add	sp, sp, #28
 638              		@ sp needed
 639 005a 5DF804FB 		ldr	pc, [sp], #4
 640              		.cfi_endproc
 641              	.LFE247:
 642              		.size	chMBPostAheadS, .-chMBPostAheadS
 643 005e 00BF     		.section	.text.chMBPostAheadI,"ax",%progbits
 644              		.align	2
 645              		.p2align 4,,15
 646              		.global	chMBPostAheadI
 647              		.thumb
 648              		.thumb_func
 649              		.type	chMBPostAheadI, %function
 650              	chMBPostAheadI:
 651              	.LFB248:
 652              		.loc 5 316 0
 653              		.cfi_startproc
 654              		@ args = 0, pretend = 0, frame = 8
 655              		@ frame_needed = 0, uses_anonymous_args = 0
 656 0000 00B5     		push	{lr}
 657              		.cfi_def_cfa_offset 4
 658              		.cfi_offset 14, -4
 659 0002 83B0     		sub	sp, sp, #12
 660              		.cfi_def_cfa_offset 16
 661 0004 0190     		str	r0, [sp, #4]
 662 0006 0091     		str	r1, [sp]
 663              		.loc 5 321 0
 664 0008 019B     		ldr	r3, [sp, #4]
 665 000a 1C33     		adds	r3, r3, #28
 666 000c 1846     		mov	r0, r3
 667 000e FFF7FEFF 		bl	chSemGetCounterI
 668 0012 0346     		mov	r3, r0
 669 0014 002B     		cmp	r3, #0
 670 0016 02DC     		bgt	.L28
 671              		.loc 5 322 0
 672 0018 4FF0FF33 		mov	r3, #-1
ARM GAS  /tmp/ccmGK4Zp.s 			page 13


 673 001c 1EE0     		b	.L29
 674              	.L28:
 675              		.loc 5 324 0
 676 001e 019B     		ldr	r3, [sp, #4]
 677 0020 1C33     		adds	r3, r3, #28
 678 0022 1846     		mov	r0, r3
 679 0024 FFF7FEFF 		bl	chSemFastWaitI
 680              		.loc 5 325 0
 681 0028 019B     		ldr	r3, [sp, #4]
 682 002a DB68     		ldr	r3, [r3, #12]
 683 002c 1A1F     		subs	r2, r3, #4
 684 002e 019B     		ldr	r3, [sp, #4]
 685 0030 DA60     		str	r2, [r3, #12]
 686 0032 019B     		ldr	r3, [sp, #4]
 687 0034 DA68     		ldr	r2, [r3, #12]
 688 0036 019B     		ldr	r3, [sp, #4]
 689 0038 1B68     		ldr	r3, [r3]
 690 003a 9A42     		cmp	r2, r3
 691 003c 04D2     		bcs	.L30
 692              		.loc 5 326 0
 693 003e 019B     		ldr	r3, [sp, #4]
 694 0040 5B68     		ldr	r3, [r3, #4]
 695 0042 1A1F     		subs	r2, r3, #4
 696 0044 019B     		ldr	r3, [sp, #4]
 697 0046 DA60     		str	r2, [r3, #12]
 698              	.L30:
 699              		.loc 5 328 0
 700 0048 019B     		ldr	r3, [sp, #4]
 701 004a DB68     		ldr	r3, [r3, #12]
 702 004c 009A     		ldr	r2, [sp]
 703 004e 1A60     		str	r2, [r3]
 704              		.loc 5 329 0
 705 0050 019B     		ldr	r3, [sp, #4]
 706 0052 1033     		adds	r3, r3, #16
 707 0054 1846     		mov	r0, r3
 708 0056 FFF7FEFF 		bl	chSemSignalI
 709              		.loc 5 331 0
 710 005a 0023     		movs	r3, #0
 711              	.L29:
 712              		.loc 5 332 0
 713 005c 1846     		mov	r0, r3
 714 005e 03B0     		add	sp, sp, #12
 715              		@ sp needed
 716 0060 5DF804FB 		ldr	pc, [sp], #4
 717              		.cfi_endproc
 718              	.LFE248:
 719              		.size	chMBPostAheadI, .-chMBPostAheadI
 720 0064 AFF30080 		.section	.text.chMBFetch,"ax",%progbits
 720      AFF30080 
 720      AFF30080 
 721              		.align	2
 722              		.p2align 4,,15
 723              		.global	chMBFetch
 724              		.thumb
 725              		.thumb_func
 726              		.type	chMBFetch, %function
 727              	chMBFetch:
ARM GAS  /tmp/ccmGK4Zp.s 			page 14


 728              	.LFB249:
 729              		.loc 5 353 0
 730              		.cfi_startproc
 731              		@ args = 0, pretend = 0, frame = 24
 732              		@ frame_needed = 0, uses_anonymous_args = 0
 733 0000 00B5     		push	{lr}
 734              		.cfi_def_cfa_offset 4
 735              		.cfi_offset 14, -4
 736 0002 87B0     		sub	sp, sp, #28
 737              		.cfi_def_cfa_offset 32
 738 0004 0390     		str	r0, [sp, #12]
 739 0006 0291     		str	r1, [sp, #8]
 740 0008 0192     		str	r2, [sp, #4]
 741              		.loc 5 356 0
 742 000a FFF7FEFF 		bl	chSysLock
 743              		.loc 5 357 0
 744 000e 0398     		ldr	r0, [sp, #12]
 745 0010 0299     		ldr	r1, [sp, #8]
 746 0012 019A     		ldr	r2, [sp, #4]
 747 0014 FFF7FEFF 		bl	chMBFetchS
 748 0018 0590     		str	r0, [sp, #20]
 749              		.loc 5 358 0
 750 001a FFF7FEFF 		bl	chSysUnlock
 751              		.loc 5 360 0
 752 001e 059B     		ldr	r3, [sp, #20]
 753              		.loc 5 361 0
 754 0020 1846     		mov	r0, r3
 755 0022 07B0     		add	sp, sp, #28
 756              		@ sp needed
 757 0024 5DF804FB 		ldr	pc, [sp], #4
 758              		.cfi_endproc
 759              	.LFE249:
 760              		.size	chMBFetch, .-chMBFetch
 761 0028 AFF30080 		.section	.text.chMBFetchS,"ax",%progbits
 761      AFF30080 
 762              		.align	2
 763              		.p2align 4,,15
 764              		.global	chMBFetchS
 765              		.thumb
 766              		.thumb_func
 767              		.type	chMBFetchS, %function
 768              	chMBFetchS:
 769              	.LFB250:
 770              		.loc 5 382 0
 771              		.cfi_startproc
 772              		@ args = 0, pretend = 0, frame = 24
 773              		@ frame_needed = 0, uses_anonymous_args = 0
 774 0000 00B5     		push	{lr}
 775              		.cfi_def_cfa_offset 4
 776              		.cfi_offset 14, -4
 777 0002 87B0     		sub	sp, sp, #28
 778              		.cfi_def_cfa_offset 32
 779 0004 0390     		str	r0, [sp, #12]
 780 0006 0291     		str	r1, [sp, #8]
 781 0008 0192     		str	r2, [sp, #4]
 782              		.loc 5 388 0
 783 000a 039B     		ldr	r3, [sp, #12]
ARM GAS  /tmp/ccmGK4Zp.s 			page 15


 784 000c 1033     		adds	r3, r3, #16
 785 000e 1846     		mov	r0, r3
 786 0010 0199     		ldr	r1, [sp, #4]
 787 0012 FFF7FEFF 		bl	chSemWaitTimeoutS
 788 0016 0590     		str	r0, [sp, #20]
 789              		.loc 5 389 0
 790 0018 059B     		ldr	r3, [sp, #20]
 791 001a 002B     		cmp	r3, #0
 792 001c 18D1     		bne	.L34
 793              		.loc 5 390 0
 794 001e 039B     		ldr	r3, [sp, #12]
 795 0020 DB68     		ldr	r3, [r3, #12]
 796 0022 191D     		adds	r1, r3, #4
 797 0024 039A     		ldr	r2, [sp, #12]
 798 0026 D160     		str	r1, [r2, #12]
 799 0028 1A68     		ldr	r2, [r3]
 800 002a 029B     		ldr	r3, [sp, #8]
 801 002c 1A60     		str	r2, [r3]
 802              		.loc 5 391 0
 803 002e 039B     		ldr	r3, [sp, #12]
 804 0030 DA68     		ldr	r2, [r3, #12]
 805 0032 039B     		ldr	r3, [sp, #12]
 806 0034 5B68     		ldr	r3, [r3, #4]
 807 0036 9A42     		cmp	r2, r3
 808 0038 03D3     		bcc	.L35
 809              		.loc 5 392 0
 810 003a 039B     		ldr	r3, [sp, #12]
 811 003c 1A68     		ldr	r2, [r3]
 812 003e 039B     		ldr	r3, [sp, #12]
 813 0040 DA60     		str	r2, [r3, #12]
 814              	.L35:
 815              		.loc 5 394 0
 816 0042 039B     		ldr	r3, [sp, #12]
 817 0044 1C33     		adds	r3, r3, #28
 818 0046 1846     		mov	r0, r3
 819 0048 FFF7FEFF 		bl	chSemSignalI
 820              		.loc 5 395 0
 821 004c FFF7FEFF 		bl	chSchRescheduleS
 822              	.L34:
 823              		.loc 5 398 0
 824 0050 059B     		ldr	r3, [sp, #20]
 825              		.loc 5 399 0
 826 0052 1846     		mov	r0, r3
 827 0054 07B0     		add	sp, sp, #28
 828              		@ sp needed
 829 0056 5DF804FB 		ldr	pc, [sp], #4
 830              		.cfi_endproc
 831              	.LFE250:
 832              		.size	chMBFetchS, .-chMBFetchS
 833 005a 00BFAFF3 		.section	.text.chMBFetchI,"ax",%progbits
 833      0080
 834              		.align	2
 835              		.p2align 4,,15
 836              		.global	chMBFetchI
 837              		.thumb
 838              		.thumb_func
 839              		.type	chMBFetchI, %function
ARM GAS  /tmp/ccmGK4Zp.s 			page 16


 840              	chMBFetchI:
 841              	.LFB251:
 842              		.loc 5 415 0
 843              		.cfi_startproc
 844              		@ args = 0, pretend = 0, frame = 8
 845              		@ frame_needed = 0, uses_anonymous_args = 0
 846 0000 00B5     		push	{lr}
 847              		.cfi_def_cfa_offset 4
 848              		.cfi_offset 14, -4
 849 0002 83B0     		sub	sp, sp, #12
 850              		.cfi_def_cfa_offset 16
 851 0004 0190     		str	r0, [sp, #4]
 852 0006 0091     		str	r1, [sp]
 853              		.loc 5 420 0
 854 0008 019B     		ldr	r3, [sp, #4]
 855 000a 1033     		adds	r3, r3, #16
 856 000c 1846     		mov	r0, r3
 857 000e FFF7FEFF 		bl	chSemGetCounterI
 858 0012 0346     		mov	r3, r0
 859 0014 002B     		cmp	r3, #0
 860 0016 02DC     		bgt	.L38
 861              		.loc 5 421 0
 862 0018 4FF0FF33 		mov	r3, #-1
 863 001c 1CE0     		b	.L39
 864              	.L38:
 865              		.loc 5 423 0
 866 001e 019B     		ldr	r3, [sp, #4]
 867 0020 1033     		adds	r3, r3, #16
 868 0022 1846     		mov	r0, r3
 869 0024 FFF7FEFF 		bl	chSemFastWaitI
 870              		.loc 5 424 0
 871 0028 019B     		ldr	r3, [sp, #4]
 872 002a DB68     		ldr	r3, [r3, #12]
 873 002c 191D     		adds	r1, r3, #4
 874 002e 019A     		ldr	r2, [sp, #4]
 875 0030 D160     		str	r1, [r2, #12]
 876 0032 1A68     		ldr	r2, [r3]
 877 0034 009B     		ldr	r3, [sp]
 878 0036 1A60     		str	r2, [r3]
 879              		.loc 5 425 0
 880 0038 019B     		ldr	r3, [sp, #4]
 881 003a DA68     		ldr	r2, [r3, #12]
 882 003c 019B     		ldr	r3, [sp, #4]
 883 003e 5B68     		ldr	r3, [r3, #4]
 884 0040 9A42     		cmp	r2, r3
 885 0042 03D3     		bcc	.L40
 886              		.loc 5 426 0
 887 0044 019B     		ldr	r3, [sp, #4]
 888 0046 1A68     		ldr	r2, [r3]
 889 0048 019B     		ldr	r3, [sp, #4]
 890 004a DA60     		str	r2, [r3, #12]
 891              	.L40:
 892              		.loc 5 428 0
 893 004c 019B     		ldr	r3, [sp, #4]
 894 004e 1C33     		adds	r3, r3, #28
 895 0050 1846     		mov	r0, r3
 896 0052 FFF7FEFF 		bl	chSemSignalI
ARM GAS  /tmp/ccmGK4Zp.s 			page 17


 897              		.loc 5 430 0
 898 0056 0023     		movs	r3, #0
 899              	.L39:
 900              		.loc 5 431 0
 901 0058 1846     		mov	r0, r3
 902 005a 03B0     		add	sp, sp, #12
 903              		@ sp needed
 904 005c 5DF804FB 		ldr	pc, [sp], #4
 905              		.cfi_endproc
 906              	.LFE251:
 907              		.size	chMBFetchI, .-chMBFetchI
 908              		.text
 909              	.Letext0:
 910              		.file 6 "/usr/include/newlib/machine/_default_types.h"
 911              		.file 7 "/usr/include/newlib/stdint.h"
 912              		.file 8 "/home/efe/ChibiOS/os/rt/ports/ARMCMx/compilers/GCC/chtypes.h"
 913              		.file 9 "/home/efe/ChibiOS/os/rt/include/chsystypes.h"
 914              		.file 10 "/home/efe/ChibiOS/os/rt/include/chschd.h"
 915              		.file 11 "/home/efe/ChibiOS/os/rt/ports/ARMCMx/chcore.h"
 916              		.file 12 "/home/efe/ChibiOS/os/rt/include/chtm.h"
 917              		.file 13 "/home/efe/ChibiOS/os/rt/include/chmtx.h"
 918              		.file 14 "/home/efe/ChibiOS/os/rt/include/chmboxes.h"
 919              		.file 15 "/home/efe/ChibiOS/os/ext/CMSIS/include/core_cm4.h"
 920              		.section	.debug_info,"",%progbits
 921              	.Ldebug_info0:
 922 0000 780B0000 		.4byte	0xb78
 923 0004 0400     		.2byte	0x4
 924 0006 00000000 		.4byte	.Ldebug_abbrev0
 925 000a 04       		.byte	0x4
 926 000b 01       		.uleb128 0x1
 927 000c 5B010000 		.4byte	.LASF129
 928 0010 01       		.byte	0x1
 929 0011 F5030000 		.4byte	.LASF130
 930 0015 00000000 		.4byte	.Ldebug_ranges0+0
 931 0019 00000000 		.4byte	0
 932 001d 00000000 		.4byte	.Ldebug_line0
 933 0021 02       		.uleb128 0x2
 934 0022 04       		.byte	0x4
 935 0023 05       		.byte	0x5
 936 0024 696E7400 		.ascii	"int\000"
 937 0028 03       		.uleb128 0x3
 938 0029 04       		.byte	0x4
 939 002a 07       		.byte	0x7
 940 002b 54020000 		.4byte	.LASF0
 941 002f 03       		.uleb128 0x3
 942 0030 01       		.byte	0x1
 943 0031 06       		.byte	0x6
 944 0032 10010000 		.4byte	.LASF1
 945 0036 04       		.uleb128 0x4
 946 0037 32000000 		.4byte	.LASF5
 947 003b 06       		.byte	0x6
 948 003c 1D       		.byte	0x1d
 949 003d 41000000 		.4byte	0x41
 950 0041 03       		.uleb128 0x3
 951 0042 01       		.byte	0x1
 952 0043 08       		.byte	0x8
 953 0044 34040000 		.4byte	.LASF2
ARM GAS  /tmp/ccmGK4Zp.s 			page 18


 954 0048 03       		.uleb128 0x3
 955 0049 02       		.byte	0x2
 956 004a 05       		.byte	0x5
 957 004b 60040000 		.4byte	.LASF3
 958 004f 03       		.uleb128 0x3
 959 0050 02       		.byte	0x2
 960 0051 07       		.byte	0x7
 961 0052 EF000000 		.4byte	.LASF4
 962 0056 04       		.uleb128 0x4
 963 0057 07030000 		.4byte	.LASF6
 964 005b 06       		.byte	0x6
 965 005c 3F       		.byte	0x3f
 966 005d 61000000 		.4byte	0x61
 967 0061 03       		.uleb128 0x3
 968 0062 04       		.byte	0x4
 969 0063 05       		.byte	0x5
 970 0064 49010000 		.4byte	.LASF7
 971 0068 04       		.uleb128 0x4
 972 0069 43020000 		.4byte	.LASF8
 973 006d 06       		.byte	0x6
 974 006e 41       		.byte	0x41
 975 006f 73000000 		.4byte	0x73
 976 0073 03       		.uleb128 0x3
 977 0074 04       		.byte	0x4
 978 0075 07       		.byte	0x7
 979 0076 11050000 		.4byte	.LASF9
 980 007a 03       		.uleb128 0x3
 981 007b 08       		.byte	0x8
 982 007c 05       		.byte	0x5
 983 007d 02010000 		.4byte	.LASF10
 984 0081 04       		.uleb128 0x4
 985 0082 C3030000 		.4byte	.LASF11
 986 0086 06       		.byte	0x6
 987 0087 5B       		.byte	0x5b
 988 0088 8C000000 		.4byte	0x8c
 989 008c 03       		.uleb128 0x3
 990 008d 08       		.byte	0x8
 991 008e 07       		.byte	0x7
 992 008f 89000000 		.4byte	.LASF12
 993 0093 04       		.uleb128 0x4
 994 0094 EB050000 		.4byte	.LASF13
 995 0098 07       		.byte	0x7
 996 0099 2A       		.byte	0x2a
 997 009a 36000000 		.4byte	0x36
 998 009e 04       		.uleb128 0x4
 999 009f 2C040000 		.4byte	.LASF14
 1000 00a3 07       		.byte	0x7
 1001 00a4 41       		.byte	0x41
 1002 00a5 56000000 		.4byte	0x56
 1003 00a9 04       		.uleb128 0x4
 1004 00aa E0040000 		.4byte	.LASF15
 1005 00ae 07       		.byte	0x7
 1006 00af 42       		.byte	0x42
 1007 00b0 68000000 		.4byte	0x68
 1008 00b4 04       		.uleb128 0x4
 1009 00b5 29000000 		.4byte	.LASF16
 1010 00b9 07       		.byte	0x7
ARM GAS  /tmp/ccmGK4Zp.s 			page 19


 1011 00ba 4E       		.byte	0x4e
 1012 00bb 81000000 		.4byte	0x81
 1013 00bf 05       		.uleb128 0x5
 1014 00c0 9E000000 		.4byte	0x9e
 1015 00c4 04       		.uleb128 0x4
 1016 00c5 9C050000 		.4byte	.LASF17
 1017 00c9 08       		.byte	0x8
 1018 00ca 45       		.byte	0x45
 1019 00cb A9000000 		.4byte	0xa9
 1020 00cf 04       		.uleb128 0x4
 1021 00d0 E5020000 		.4byte	.LASF18
 1022 00d4 08       		.byte	0x8
 1023 00d5 48       		.byte	0x48
 1024 00d6 93000000 		.4byte	0x93
 1025 00da 04       		.uleb128 0x4
 1026 00db 52010000 		.4byte	.LASF19
 1027 00df 08       		.byte	0x8
 1028 00e0 49       		.byte	0x49
 1029 00e1 93000000 		.4byte	0x93
 1030 00e5 04       		.uleb128 0x4
 1031 00e6 CE030000 		.4byte	.LASF20
 1032 00ea 08       		.byte	0x8
 1033 00eb 4A       		.byte	0x4a
 1034 00ec 93000000 		.4byte	0x93
 1035 00f0 04       		.uleb128 0x4
 1036 00f1 ED030000 		.4byte	.LASF21
 1037 00f5 08       		.byte	0x8
 1038 00f6 4C       		.byte	0x4c
 1039 00f7 A9000000 		.4byte	0xa9
 1040 00fb 04       		.uleb128 0x4
 1041 00fc C0020000 		.4byte	.LASF22
 1042 0100 08       		.byte	0x8
 1043 0101 4D       		.byte	0x4d
 1044 0102 9E000000 		.4byte	0x9e
 1045 0106 04       		.uleb128 0x4
 1046 0107 FB020000 		.4byte	.LASF23
 1047 010b 08       		.byte	0x8
 1048 010c 4F       		.byte	0x4f
 1049 010d A9000000 		.4byte	0xa9
 1050 0111 04       		.uleb128 0x4
 1051 0112 4E020000 		.4byte	.LASF24
 1052 0116 08       		.byte	0x8
 1053 0117 51       		.byte	0x51
 1054 0118 9E000000 		.4byte	0x9e
 1055 011c 04       		.uleb128 0x4
 1056 011d 38050000 		.4byte	.LASF25
 1057 0121 09       		.byte	0x9
 1058 0122 33       		.byte	0x33
 1059 0123 A9000000 		.4byte	0xa9
 1060 0127 04       		.uleb128 0x4
 1061 0128 28050000 		.4byte	.LASF26
 1062 012c 09       		.byte	0x9
 1063 012d 3F       		.byte	0x3f
 1064 012e 32010000 		.4byte	0x132
 1065 0132 06       		.uleb128 0x6
 1066 0133 A0020000 		.4byte	.LASF46
 1067 0137 44       		.byte	0x44
ARM GAS  /tmp/ccmGK4Zp.s 			page 20


 1068 0138 0A       		.byte	0xa
 1069 0139 C2       		.byte	0xc2
 1070 013a 1F020000 		.4byte	0x21f
 1071 013e 07       		.uleb128 0x7
 1072 013f 80040000 		.4byte	.LASF27
 1073 0143 0A       		.byte	0xa
 1074 0144 C3       		.byte	0xc3
 1075 0145 2A020000 		.4byte	0x22a
 1076 0149 00       		.byte	0
 1077 014a 07       		.uleb128 0x7
 1078 014b E6030000 		.4byte	.LASF28
 1079 014f 0A       		.byte	0xa
 1080 0150 C5       		.byte	0xc5
 1081 0151 2A020000 		.4byte	0x22a
 1082 0155 04       		.byte	0x4
 1083 0156 07       		.uleb128 0x7
 1084 0157 E8000000 		.4byte	.LASF29
 1085 015b 0A       		.byte	0xa
 1086 015c C7       		.byte	0xc7
 1087 015d F0000000 		.4byte	0xf0
 1088 0161 08       		.byte	0x8
 1089 0162 07       		.uleb128 0x7
 1090 0163 34060000 		.4byte	.LASF30
 1091 0167 0A       		.byte	0xa
 1092 0168 C8       		.byte	0xc8
 1093 0169 5A040000 		.4byte	0x45a
 1094 016d 0C       		.byte	0xc
 1095 016e 07       		.uleb128 0x7
 1096 016f 0B020000 		.4byte	.LASF31
 1097 0173 0A       		.byte	0xa
 1098 0174 CA       		.byte	0xca
 1099 0175 2A020000 		.4byte	0x22a
 1100 0179 10       		.byte	0x10
 1101 017a 07       		.uleb128 0x7
 1102 017b 7E030000 		.4byte	.LASF32
 1103 017f 0A       		.byte	0xa
 1104 0180 CB       		.byte	0xcb
 1105 0181 2A020000 		.4byte	0x22a
 1106 0185 14       		.byte	0x14
 1107 0186 07       		.uleb128 0x7
 1108 0187 FA050000 		.4byte	.LASF33
 1109 018b 0A       		.byte	0xa
 1110 018c D2       		.byte	0xd2
 1111 018d D9050000 		.4byte	0x5d9
 1112 0191 18       		.byte	0x18
 1113 0192 07       		.uleb128 0x7
 1114 0193 6A040000 		.4byte	.LASF34
 1115 0197 0A       		.byte	0xa
 1116 0198 DD       		.byte	0xdd
 1117 0199 DA000000 		.4byte	0xda
 1118 019d 1C       		.byte	0x1c
 1119 019e 07       		.uleb128 0x7
 1120 019f 87040000 		.4byte	.LASF35
 1121 01a3 0A       		.byte	0xa
 1122 01a4 E1       		.byte	0xe1
 1123 01a5 CF000000 		.4byte	0xcf
 1124 01a9 1D       		.byte	0x1d
ARM GAS  /tmp/ccmGK4Zp.s 			page 21


 1125 01aa 07       		.uleb128 0x7
 1126 01ab DE050000 		.4byte	.LASF36
 1127 01af 0A       		.byte	0xa
 1128 01b0 E6       		.byte	0xe6
 1129 01b1 E5000000 		.4byte	0xe5
 1130 01b5 1E       		.byte	0x1e
 1131 01b6 08       		.uleb128 0x8
 1132 01b7 705F7500 		.ascii	"p_u\000"
 1133 01bb 0A       		.byte	0xa
 1134 01bc 3101     		.2byte	0x131
 1135 01be 14050000 		.4byte	0x514
 1136 01c2 20       		.byte	0x20
 1137 01c3 09       		.uleb128 0x9
 1138 01c4 21030000 		.4byte	.LASF37
 1139 01c8 0A       		.byte	0xa
 1140 01c9 3601     		.2byte	0x136
 1141 01cb 30020000 		.4byte	0x230
 1142 01cf 24       		.byte	0x24
 1143 01d0 09       		.uleb128 0x9
 1144 01d1 70020000 		.4byte	.LASF38
 1145 01d5 0A       		.byte	0xa
 1146 01d6 3C01     		.2byte	0x13c
 1147 01d8 54020000 		.4byte	0x254
 1148 01dc 28       		.byte	0x28
 1149 01dd 09       		.uleb128 0x9
 1150 01de 1C060000 		.4byte	.LASF39
 1151 01e2 0A       		.byte	0xa
 1152 01e3 4001     		.2byte	0x140
 1153 01e5 FB000000 		.4byte	0xfb
 1154 01e9 30       		.byte	0x30
 1155 01ea 09       		.uleb128 0x9
 1156 01eb D5040000 		.4byte	.LASF40
 1157 01ef 0A       		.byte	0xa
 1158 01f0 4601     		.2byte	0x146
 1159 01f2 06010000 		.4byte	0x106
 1160 01f6 34       		.byte	0x34
 1161 01f7 09       		.uleb128 0x9
 1162 01f8 56040000 		.4byte	.LASF41
 1163 01fc 0A       		.byte	0xa
 1164 01fd 4D01     		.2byte	0x14d
 1165 01ff D3050000 		.4byte	0x5d3
 1166 0203 38       		.byte	0x38
 1167 0204 09       		.uleb128 0x9
 1168 0205 42050000 		.4byte	.LASF42
 1169 0209 0A       		.byte	0xa
 1170 020a 5101     		.2byte	0x151
 1171 020c F0000000 		.4byte	0xf0
 1172 0210 3C       		.byte	0x3c
 1173 0211 09       		.uleb128 0x9
 1174 0212 1C010000 		.4byte	.LASF43
 1175 0216 0A       		.byte	0xa
 1176 0217 5801     		.2byte	0x158
 1177 0219 07030000 		.4byte	0x307
 1178 021d 40       		.byte	0x40
 1179 021e 00       		.byte	0
 1180 021f 04       		.uleb128 0x4
 1181 0220 34030000 		.4byte	.LASF44
ARM GAS  /tmp/ccmGK4Zp.s 			page 22


 1182 0224 09       		.byte	0x9
 1183 0225 44       		.byte	0x44
 1184 0226 2A020000 		.4byte	0x22a
 1185 022a 0A       		.uleb128 0xa
 1186 022b 04       		.byte	0x4
 1187 022c 27010000 		.4byte	0x127
 1188 0230 04       		.uleb128 0x4
 1189 0231 01060000 		.4byte	.LASF45
 1190 0235 09       		.byte	0x9
 1191 0236 49       		.byte	0x49
 1192 0237 3B020000 		.4byte	0x23b
 1193 023b 06       		.uleb128 0x6
 1194 023c 01050000 		.4byte	.LASF47
 1195 0240 04       		.byte	0x4
 1196 0241 0A       		.byte	0xa
 1197 0242 B0       		.byte	0xb0
 1198 0243 54020000 		.4byte	0x254
 1199 0247 07       		.uleb128 0x7
 1200 0248 80040000 		.4byte	.LASF27
 1201 024c 0A       		.byte	0xa
 1202 024d B1       		.byte	0xb1
 1203 024e 2A020000 		.4byte	0x22a
 1204 0252 00       		.byte	0
 1205 0253 00       		.byte	0
 1206 0254 04       		.uleb128 0x4
 1207 0255 C5050000 		.4byte	.LASF48
 1208 0259 09       		.byte	0x9
 1209 025a 50       		.byte	0x50
 1210 025b 5F020000 		.4byte	0x25f
 1211 025f 06       		.uleb128 0x6
 1212 0260 D7000000 		.4byte	.LASF49
 1213 0264 08       		.byte	0x8
 1214 0265 0A       		.byte	0xa
 1215 0266 B7       		.byte	0xb7
 1216 0267 84020000 		.4byte	0x284
 1217 026b 07       		.uleb128 0x7
 1218 026c 80040000 		.4byte	.LASF27
 1219 0270 0A       		.byte	0xa
 1220 0271 B8       		.byte	0xb8
 1221 0272 2A020000 		.4byte	0x22a
 1222 0276 00       		.byte	0
 1223 0277 07       		.uleb128 0x7
 1224 0278 E6030000 		.4byte	.LASF28
 1225 027c 0A       		.byte	0xa
 1226 027d B9       		.byte	0xb9
 1227 027e 2A020000 		.4byte	0x22a
 1228 0282 04       		.byte	0x4
 1229 0283 00       		.byte	0
 1230 0284 04       		.uleb128 0x4
 1231 0285 00000000 		.4byte	.LASF50
 1232 0289 09       		.byte	0x9
 1233 028a 57       		.byte	0x57
 1234 028b 8F020000 		.4byte	0x28f
 1235 028f 0B       		.uleb128 0xb
 1236 0290 ED020000 		.4byte	.LASF51
 1237 0294 1C       		.byte	0x1c
 1238 0295 0A       		.byte	0xa
ARM GAS  /tmp/ccmGK4Zp.s 			page 23


 1239 0296 9001     		.2byte	0x190
 1240 0298 EB020000 		.4byte	0x2eb
 1241 029c 09       		.uleb128 0x9
 1242 029d F0040000 		.4byte	.LASF52
 1243 02a1 0A       		.byte	0xa
 1244 02a2 9101     		.2byte	0x191
 1245 02a4 54020000 		.4byte	0x254
 1246 02a8 00       		.byte	0
 1247 02a9 09       		.uleb128 0x9
 1248 02aa 72040000 		.4byte	.LASF53
 1249 02ae 0A       		.byte	0xa
 1250 02af 9201     		.2byte	0x192
 1251 02b1 F0000000 		.4byte	0xf0
 1252 02b5 08       		.byte	0x8
 1253 02b6 09       		.uleb128 0x9
 1254 02b7 86030000 		.4byte	.LASF54
 1255 02bb 0A       		.byte	0xa
 1256 02bc 9401     		.2byte	0x194
 1257 02be 5A040000 		.4byte	0x45a
 1258 02c2 0C       		.byte	0xc
 1259 02c3 09       		.uleb128 0x9
 1260 02c4 C6020000 		.4byte	.LASF55
 1261 02c8 0A       		.byte	0xa
 1262 02c9 9701     		.2byte	0x197
 1263 02cb 2A020000 		.4byte	0x22a
 1264 02cf 10       		.byte	0x10
 1265 02d0 09       		.uleb128 0x9
 1266 02d1 BB030000 		.4byte	.LASF56
 1267 02d5 0A       		.byte	0xa
 1268 02d6 9801     		.2byte	0x198
 1269 02d8 2A020000 		.4byte	0x22a
 1270 02dc 14       		.byte	0x14
 1271 02dd 09       		.uleb128 0x9
 1272 02de B1030000 		.4byte	.LASF57
 1273 02e2 0A       		.byte	0xa
 1274 02e3 9B01     		.2byte	0x19b
 1275 02e5 2A020000 		.4byte	0x22a
 1276 02e9 18       		.byte	0x18
 1277 02ea 00       		.byte	0
 1278 02eb 04       		.uleb128 0x4
 1279 02ec 4D050000 		.4byte	.LASF58
 1280 02f0 09       		.byte	0x9
 1281 02f1 5C       		.byte	0x5c
 1282 02f2 F6020000 		.4byte	0x2f6
 1283 02f6 0A       		.uleb128 0xa
 1284 02f7 04       		.byte	0x4
 1285 02f8 FC020000 		.4byte	0x2fc
 1286 02fc 0C       		.uleb128 0xc
 1287 02fd 07030000 		.4byte	0x307
 1288 0301 0D       		.uleb128 0xd
 1289 0302 07030000 		.4byte	0x307
 1290 0306 00       		.byte	0
 1291 0307 0E       		.uleb128 0xe
 1292 0308 04       		.byte	0x4
 1293 0309 04       		.uleb128 0x4
 1294 030a D6030000 		.4byte	.LASF59
 1295 030e 09       		.byte	0x9
ARM GAS  /tmp/ccmGK4Zp.s 			page 24


 1296 030f 61       		.byte	0x61
 1297 0310 14030000 		.4byte	0x314
 1298 0314 0B       		.uleb128 0xb
 1299 0315 B7040000 		.4byte	.LASF60
 1300 0319 14       		.byte	0x14
 1301 031a 0A       		.byte	0xa
 1302 031b 6B01     		.2byte	0x16b
 1303 031d 63030000 		.4byte	0x363
 1304 0321 09       		.uleb128 0x9
 1305 0322 61020000 		.4byte	.LASF61
 1306 0326 0A       		.byte	0xa
 1307 0327 6C01     		.2byte	0x16c
 1308 0329 EB050000 		.4byte	0x5eb
 1309 032d 00       		.byte	0
 1310 032e 09       		.uleb128 0x9
 1311 032f 2D020000 		.4byte	.LASF62
 1312 0333 0A       		.byte	0xa
 1313 0334 6D01     		.2byte	0x16d
 1314 0336 EB050000 		.4byte	0x5eb
 1315 033a 04       		.byte	0x4
 1316 033b 09       		.uleb128 0x9
 1317 033c F8040000 		.4byte	.LASF63
 1318 0340 0A       		.byte	0xa
 1319 0341 6E01     		.2byte	0x16e
 1320 0343 1C010000 		.4byte	0x11c
 1321 0347 08       		.byte	0x8
 1322 0348 09       		.uleb128 0x9
 1323 0349 3A060000 		.4byte	.LASF64
 1324 034d 0A       		.byte	0xa
 1325 034e 6F01     		.2byte	0x16f
 1326 0350 EB020000 		.4byte	0x2eb
 1327 0354 0C       		.byte	0xc
 1328 0355 09       		.uleb128 0x9
 1329 0356 A4050000 		.4byte	.LASF65
 1330 035a 0A       		.byte	0xa
 1331 035b 7101     		.2byte	0x171
 1332 035d 07030000 		.4byte	0x307
 1333 0361 10       		.byte	0x10
 1334 0362 00       		.byte	0
 1335 0363 04       		.uleb128 0x4
 1336 0364 B8000000 		.4byte	.LASF66
 1337 0368 09       		.byte	0x9
 1338 0369 66       		.byte	0x66
 1339 036a 6E030000 		.4byte	0x36e
 1340 036e 0B       		.uleb128 0xb
 1341 036f 47030000 		.4byte	.LASF67
 1342 0373 10       		.byte	0x10
 1343 0374 0A       		.byte	0xa
 1344 0375 7B01     		.2byte	0x17b
 1345 0377 B0030000 		.4byte	0x3b0
 1346 037b 09       		.uleb128 0x9
 1347 037c 61020000 		.4byte	.LASF61
 1348 0380 0A       		.byte	0xa
 1349 0381 7C01     		.2byte	0x17c
 1350 0383 EB050000 		.4byte	0x5eb
 1351 0387 00       		.byte	0
 1352 0388 09       		.uleb128 0x9
ARM GAS  /tmp/ccmGK4Zp.s 			page 25


 1353 0389 2D020000 		.4byte	.LASF62
 1354 038d 0A       		.byte	0xa
 1355 038e 7E01     		.2byte	0x17e
 1356 0390 EB050000 		.4byte	0x5eb
 1357 0394 04       		.byte	0x4
 1358 0395 09       		.uleb128 0x9
 1359 0396 F8040000 		.4byte	.LASF63
 1360 039a 0A       		.byte	0xa
 1361 039b 8001     		.2byte	0x180
 1362 039d 1C010000 		.4byte	0x11c
 1363 03a1 08       		.byte	0x8
 1364 03a2 09       		.uleb128 0x9
 1365 03a3 72030000 		.4byte	.LASF68
 1366 03a7 0A       		.byte	0xa
 1367 03a8 8801     		.2byte	0x188
 1368 03aa 1C010000 		.4byte	0x11c
 1369 03ae 0C       		.byte	0xc
 1370 03af 00       		.byte	0
 1371 03b0 04       		.uleb128 0x4
 1372 03b1 52000000 		.4byte	.LASF69
 1373 03b5 09       		.byte	0x9
 1374 03b6 6B       		.byte	0x6b
 1375 03b7 BB030000 		.4byte	0x3bb
 1376 03bb 0B       		.uleb128 0xb
 1377 03bc 1C040000 		.4byte	.LASF70
 1378 03c0 04       		.byte	0x4
 1379 03c1 0A       		.byte	0xa
 1380 03c2 A201     		.2byte	0x1a2
 1381 03c4 D6030000 		.4byte	0x3d6
 1382 03c8 09       		.uleb128 0x9
 1383 03c9 75050000 		.4byte	.LASF71
 1384 03cd 0A       		.byte	0xa
 1385 03ce AA01     		.2byte	0x1aa
 1386 03d0 F1050000 		.4byte	0x5f1
 1387 03d4 00       		.byte	0
 1388 03d5 00       		.byte	0
 1389 03d6 04       		.uleb128 0x4
 1390 03d7 CE020000 		.4byte	.LASF72
 1391 03db 09       		.byte	0x9
 1392 03dc 70       		.byte	0x70
 1393 03dd E1030000 		.4byte	0x3e1
 1394 03e1 0F       		.uleb128 0xf
 1395 03e2 3F010000 		.4byte	.LASF73
 1396 03e6 5001     		.2byte	0x150
 1397 03e8 0A       		.byte	0xa
 1398 03e9 C201     		.2byte	0x1c2
 1399 03eb 3D040000 		.4byte	0x43d
 1400 03ef 09       		.uleb128 0x9
 1401 03f0 E5050000 		.4byte	.LASF74
 1402 03f4 0A       		.byte	0xa
 1403 03f5 C601     		.2byte	0x1c6
 1404 03f7 84020000 		.4byte	0x284
 1405 03fb 00       		.byte	0
 1406 03fc 09       		.uleb128 0x9
 1407 03fd 2C010000 		.4byte	.LASF75
 1408 0401 0A       		.byte	0xa
 1409 0402 CA01     		.2byte	0x1ca
ARM GAS  /tmp/ccmGK4Zp.s 			page 26


 1410 0404 63030000 		.4byte	0x363
 1411 0408 1C       		.byte	0x1c
 1412 0409 08       		.uleb128 0x8
 1413 040a 64626700 		.ascii	"dbg\000"
 1414 040e 0A       		.byte	0xa
 1415 040f CE01     		.2byte	0x1ce
 1416 0411 B0030000 		.4byte	0x3b0
 1417 0415 2C       		.byte	0x2c
 1418 0416 09       		.uleb128 0x9
 1419 0417 AA020000 		.4byte	.LASF76
 1420 041b 0A       		.byte	0xa
 1421 041c D201     		.2byte	0x1d2
 1422 041e 27010000 		.4byte	0x127
 1423 0422 30       		.byte	0x30
 1424 0423 08       		.uleb128 0x8
 1425 0424 746D00   		.ascii	"tm\000"
 1426 0427 0A       		.byte	0xa
 1427 0428 D701     		.2byte	0x1d7
 1428 042a 09050000 		.4byte	0x509
 1429 042e 74       		.byte	0x74
 1430 042f 09       		.uleb128 0x9
 1431 0430 61000000 		.4byte	.LASF77
 1432 0434 0A       		.byte	0xa
 1433 0435 E301     		.2byte	0x1e3
 1434 0437 F6050000 		.4byte	0x5f6
 1435 043b 78       		.byte	0x78
 1436 043c 00       		.byte	0
 1437 043d 03       		.uleb128 0x3
 1438 043e 04       		.byte	0x4
 1439 043f 07       		.byte	0x7
 1440 0440 2B030000 		.4byte	.LASF78
 1441 0444 04       		.uleb128 0x4
 1442 0445 24020000 		.4byte	.LASF79
 1443 0449 0B       		.byte	0xb
 1444 044a 65       		.byte	0x65
 1445 044b 07030000 		.4byte	0x307
 1446 044f 04       		.uleb128 0x4
 1447 0450 16030000 		.4byte	.LASF80
 1448 0454 0B       		.byte	0xb
 1449 0455 6D       		.byte	0x6d
 1450 0456 B4000000 		.4byte	0xb4
 1451 045a 06       		.uleb128 0x6
 1452 045b 86050000 		.4byte	.LASF81
 1453 045f 04       		.byte	0x4
 1454 0460 0B       		.byte	0xb
 1455 0461 89       		.byte	0x89
 1456 0462 73040000 		.4byte	0x473
 1457 0466 10       		.uleb128 0x10
 1458 0467 72313300 		.ascii	"r13\000"
 1459 046b 0B       		.byte	0xb
 1460 046c 8A       		.byte	0x8a
 1461 046d EE040000 		.4byte	0x4ee
 1462 0471 00       		.byte	0
 1463 0472 00       		.byte	0
 1464 0473 06       		.uleb128 0x6
 1465 0474 46000000 		.4byte	.LASF82
 1466 0478 24       		.byte	0x24
ARM GAS  /tmp/ccmGK4Zp.s 			page 27


 1467 0479 01       		.byte	0x1
 1468 047a FD       		.byte	0xfd
 1469 047b EE040000 		.4byte	0x4ee
 1470 047f 08       		.uleb128 0x8
 1471 0480 723400   		.ascii	"r4\000"
 1472 0483 01       		.byte	0x1
 1473 0484 1001     		.2byte	0x110
 1474 0486 44040000 		.4byte	0x444
 1475 048a 00       		.byte	0
 1476 048b 08       		.uleb128 0x8
 1477 048c 723500   		.ascii	"r5\000"
 1478 048f 01       		.byte	0x1
 1479 0490 1101     		.2byte	0x111
 1480 0492 44040000 		.4byte	0x444
 1481 0496 04       		.byte	0x4
 1482 0497 08       		.uleb128 0x8
 1483 0498 723600   		.ascii	"r6\000"
 1484 049b 01       		.byte	0x1
 1485 049c 1201     		.2byte	0x112
 1486 049e 44040000 		.4byte	0x444
 1487 04a2 08       		.byte	0x8
 1488 04a3 08       		.uleb128 0x8
 1489 04a4 723700   		.ascii	"r7\000"
 1490 04a7 01       		.byte	0x1
 1491 04a8 1301     		.2byte	0x113
 1492 04aa 44040000 		.4byte	0x444
 1493 04ae 0C       		.byte	0xc
 1494 04af 08       		.uleb128 0x8
 1495 04b0 723800   		.ascii	"r8\000"
 1496 04b3 01       		.byte	0x1
 1497 04b4 1401     		.2byte	0x114
 1498 04b6 44040000 		.4byte	0x444
 1499 04ba 10       		.byte	0x10
 1500 04bb 08       		.uleb128 0x8
 1501 04bc 723900   		.ascii	"r9\000"
 1502 04bf 01       		.byte	0x1
 1503 04c0 1501     		.2byte	0x115
 1504 04c2 44040000 		.4byte	0x444
 1505 04c6 14       		.byte	0x14
 1506 04c7 08       		.uleb128 0x8
 1507 04c8 72313000 		.ascii	"r10\000"
 1508 04cc 01       		.byte	0x1
 1509 04cd 1601     		.2byte	0x116
 1510 04cf 44040000 		.4byte	0x444
 1511 04d3 18       		.byte	0x18
 1512 04d4 08       		.uleb128 0x8
 1513 04d5 72313100 		.ascii	"r11\000"
 1514 04d9 01       		.byte	0x1
 1515 04da 1701     		.2byte	0x117
 1516 04dc 44040000 		.4byte	0x444
 1517 04e0 1C       		.byte	0x1c
 1518 04e1 08       		.uleb128 0x8
 1519 04e2 6C7200   		.ascii	"lr\000"
 1520 04e5 01       		.byte	0x1
 1521 04e6 1801     		.2byte	0x118
 1522 04e8 44040000 		.4byte	0x444
 1523 04ec 20       		.byte	0x20
ARM GAS  /tmp/ccmGK4Zp.s 			page 28


 1524 04ed 00       		.byte	0
 1525 04ee 0A       		.uleb128 0xa
 1526 04ef 04       		.byte	0x4
 1527 04f0 73040000 		.4byte	0x473
 1528 04f4 11       		.uleb128 0x11
 1529 04f5 04       		.byte	0x4
 1530 04f6 0C       		.byte	0xc
 1531 04f7 38       		.byte	0x38
 1532 04f8 09050000 		.4byte	0x509
 1533 04fc 07       		.uleb128 0x7
 1534 04fd 7F050000 		.4byte	.LASF83
 1535 0501 0C       		.byte	0xc
 1536 0502 3C       		.byte	0x3c
 1537 0503 C4000000 		.4byte	0xc4
 1538 0507 00       		.byte	0
 1539 0508 00       		.byte	0
 1540 0509 04       		.uleb128 0x4
 1541 050a 96030000 		.4byte	.LASF84
 1542 050e 0C       		.byte	0xc
 1543 050f 3D       		.byte	0x3d
 1544 0510 F4040000 		.4byte	0x4f4
 1545 0514 12       		.uleb128 0x12
 1546 0515 04       		.byte	0x4
 1547 0516 0A       		.byte	0xa
 1548 0517 FA       		.byte	0xfa
 1549 0518 71050000 		.4byte	0x571
 1550 051c 13       		.uleb128 0x13
 1551 051d 22000000 		.4byte	.LASF85
 1552 0521 0A       		.byte	0xa
 1553 0522 0101     		.2byte	0x101
 1554 0524 FB000000 		.4byte	0xfb
 1555 0528 13       		.uleb128 0x13
 1556 0529 A0000000 		.4byte	.LASF86
 1557 052d 0A       		.byte	0xa
 1558 052e 0801     		.2byte	0x108
 1559 0530 FB000000 		.4byte	0xfb
 1560 0534 13       		.uleb128 0x13
 1561 0535 F3050000 		.4byte	.LASF87
 1562 0539 0A       		.byte	0xa
 1563 053a 0F01     		.2byte	0x10f
 1564 053c 07030000 		.4byte	0x307
 1565 0540 13       		.uleb128 0x13
 1566 0541 1C000000 		.4byte	.LASF88
 1567 0545 0A       		.byte	0xa
 1568 0546 1601     		.2byte	0x116
 1569 0548 71050000 		.4byte	0x571
 1570 054c 13       		.uleb128 0x13
 1571 054d 69020000 		.4byte	.LASF89
 1572 0551 0A       		.byte	0xa
 1573 0552 1E01     		.2byte	0x11e
 1574 0554 9C050000 		.4byte	0x59c
 1575 0558 13       		.uleb128 0x13
 1576 0559 E9040000 		.4byte	.LASF90
 1577 055d 0A       		.byte	0xa
 1578 055e 2701     		.2byte	0x127
 1579 0560 D3050000 		.4byte	0x5d3
 1580 0564 13       		.uleb128 0x13
ARM GAS  /tmp/ccmGK4Zp.s 			page 29


 1581 0565 79040000 		.4byte	.LASF91
 1582 0569 0A       		.byte	0xa
 1583 056a 2F01     		.2byte	0x12f
 1584 056c 06010000 		.4byte	0x106
 1585 0570 00       		.byte	0
 1586 0571 0A       		.uleb128 0xa
 1587 0572 04       		.byte	0x4
 1588 0573 1F020000 		.4byte	0x21f
 1589 0577 06       		.uleb128 0x6
 1590 0578 C8040000 		.4byte	.LASF92
 1591 057c 0C       		.byte	0xc
 1592 057d 04       		.byte	0x4
 1593 057e 34       		.byte	0x34
 1594 057f 9C050000 		.4byte	0x59c
 1595 0583 07       		.uleb128 0x7
 1596 0584 13020000 		.4byte	.LASF93
 1597 0588 04       		.byte	0x4
 1598 0589 35       		.byte	0x35
 1599 058a 54020000 		.4byte	0x254
 1600 058e 00       		.byte	0
 1601 058f 07       		.uleb128 0x7
 1602 0590 8F020000 		.4byte	.LASF94
 1603 0594 04       		.byte	0x4
 1604 0595 37       		.byte	0x37
 1605 0596 11010000 		.4byte	0x111
 1606 059a 08       		.byte	0x8
 1607 059b 00       		.byte	0
 1608 059c 0A       		.uleb128 0xa
 1609 059d 04       		.byte	0x4
 1610 059e 77050000 		.4byte	0x577
 1611 05a2 06       		.uleb128 0x6
 1612 05a3 D5050000 		.4byte	.LASF95
 1613 05a7 10       		.byte	0x10
 1614 05a8 0D       		.byte	0xd
 1615 05a9 39       		.byte	0x39
 1616 05aa D3050000 		.4byte	0x5d3
 1617 05ae 07       		.uleb128 0x7
 1618 05af 24010000 		.4byte	.LASF96
 1619 05b3 0D       		.byte	0xd
 1620 05b4 3A       		.byte	0x3a
 1621 05b5 54020000 		.4byte	0x254
 1622 05b9 00       		.byte	0
 1623 05ba 07       		.uleb128 0x7
 1624 05bb 2C060000 		.4byte	.LASF97
 1625 05bf 0D       		.byte	0xd
 1626 05c0 3C       		.byte	0x3c
 1627 05c1 2A020000 		.4byte	0x22a
 1628 05c5 08       		.byte	0x8
 1629 05c6 07       		.uleb128 0x7
 1630 05c7 31050000 		.4byte	.LASF98
 1631 05cb 0D       		.byte	0xd
 1632 05cc 3E       		.byte	0x3e
 1633 05cd 1C060000 		.4byte	0x61c
 1634 05d1 0C       		.byte	0xc
 1635 05d2 00       		.byte	0
 1636 05d3 0A       		.uleb128 0xa
 1637 05d4 04       		.byte	0x4
ARM GAS  /tmp/ccmGK4Zp.s 			page 30


 1638 05d5 A2050000 		.4byte	0x5a2
 1639 05d9 0A       		.uleb128 0xa
 1640 05da 04       		.byte	0x4
 1641 05db DF050000 		.4byte	0x5df
 1642 05df 14       		.uleb128 0x14
 1643 05e0 E4050000 		.4byte	0x5e4
 1644 05e4 03       		.uleb128 0x3
 1645 05e5 01       		.byte	0x1
 1646 05e6 08       		.byte	0x8
 1647 05e7 23050000 		.4byte	.LASF99
 1648 05eb 0A       		.uleb128 0xa
 1649 05ec 04       		.byte	0x4
 1650 05ed 09030000 		.4byte	0x309
 1651 05f1 05       		.uleb128 0x5
 1652 05f2 D9050000 		.4byte	0x5d9
 1653 05f6 15       		.uleb128 0x15
 1654 05f7 4F040000 		.4byte	0x44f
 1655 05fb 06060000 		.4byte	0x606
 1656 05ff 16       		.uleb128 0x16
 1657 0600 3D040000 		.4byte	0x43d
 1658 0604 1A       		.byte	0x1a
 1659 0605 00       		.byte	0
 1660 0606 04       		.uleb128 0x4
 1661 0607 AB040000 		.4byte	.LASF100
 1662 060b 04       		.byte	0x4
 1663 060c 38       		.byte	0x38
 1664 060d 77050000 		.4byte	0x577
 1665 0611 04       		.uleb128 0x4
 1666 0612 35020000 		.4byte	.LASF101
 1667 0616 0D       		.byte	0xd
 1668 0617 34       		.byte	0x34
 1669 0618 A2050000 		.4byte	0x5a2
 1670 061c 0A       		.uleb128 0xa
 1671 061d 04       		.byte	0x4
 1672 061e 11060000 		.4byte	0x611
 1673 0622 11       		.uleb128 0x11
 1674 0623 28       		.byte	0x28
 1675 0624 0E       		.byte	0xe
 1676 0625 38       		.byte	0x38
 1677 0626 73060000 		.4byte	0x673
 1678 062a 07       		.uleb128 0x7
 1679 062b A7030000 		.4byte	.LASF102
 1680 062f 0E       		.byte	0xe
 1681 0630 39       		.byte	0x39
 1682 0631 73060000 		.4byte	0x673
 1683 0635 00       		.byte	0
 1684 0636 07       		.uleb128 0x7
 1685 0637 42040000 		.4byte	.LASF103
 1686 063b 0E       		.byte	0xe
 1687 063c 3B       		.byte	0x3b
 1688 063d 73060000 		.4byte	0x673
 1689 0641 04       		.byte	0x4
 1690 0642 07       		.uleb128 0x7
 1691 0643 CE000000 		.4byte	.LASF104
 1692 0647 0E       		.byte	0xe
 1693 0648 3D       		.byte	0x3d
 1694 0649 73060000 		.4byte	0x673
ARM GAS  /tmp/ccmGK4Zp.s 			page 31


 1695 064d 08       		.byte	0x8
 1696 064e 07       		.uleb128 0x7
 1697 064f 1B020000 		.4byte	.LASF105
 1698 0653 0E       		.byte	0xe
 1699 0654 3E       		.byte	0x3e
 1700 0655 73060000 		.4byte	0x673
 1701 0659 0C       		.byte	0xc
 1702 065a 07       		.uleb128 0x7
 1703 065b BA050000 		.4byte	.LASF106
 1704 065f 0E       		.byte	0xe
 1705 0660 3F       		.byte	0x3f
 1706 0661 06060000 		.4byte	0x606
 1707 0665 10       		.byte	0x10
 1708 0666 07       		.uleb128 0x7
 1709 0667 83020000 		.4byte	.LASF107
 1710 066b 0E       		.byte	0xe
 1711 066c 41       		.byte	0x41
 1712 066d 06060000 		.4byte	0x606
 1713 0671 1C       		.byte	0x1c
 1714 0672 00       		.byte	0
 1715 0673 0A       		.uleb128 0xa
 1716 0674 04       		.byte	0x4
 1717 0675 FB000000 		.4byte	0xfb
 1718 0679 04       		.uleb128 0x4
 1719 067a 8C030000 		.4byte	.LASF108
 1720 067e 0E       		.byte	0xe
 1721 067f 43       		.byte	0x43
 1722 0680 22060000 		.4byte	0x622
 1723 0684 17       		.uleb128 0x17
 1724 0685 67050000 		.4byte	.LASF131
 1725 0689 02       		.byte	0x2
 1726 068a 2202     		.2byte	0x222
 1727 068c 03       		.byte	0x3
 1728 068d 9E060000 		.4byte	0x69e
 1729 0691 18       		.uleb128 0x18
 1730 0692 3D020000 		.4byte	.LASF132
 1731 0696 02       		.byte	0x2
 1732 0697 2202     		.2byte	0x222
 1733 0699 A9000000 		.4byte	0xa9
 1734 069d 00       		.byte	0
 1735 069e 19       		.uleb128 0x19
 1736 069f 70000000 		.4byte	.LASF109
 1737 06a3 01       		.byte	0x1
 1738 06a4 C801     		.2byte	0x1c8
 1739 06a6 00000000 		.4byte	.LFB127
 1740 06aa 10000000 		.4byte	.LFE127-.LFB127
 1741 06ae 01       		.uleb128 0x1
 1742 06af 9C       		.byte	0x9c
 1743 06b0 CE060000 		.4byte	0x6ce
 1744 06b4 1A       		.uleb128 0x1a
 1745 06b5 84060000 		.4byte	0x684
 1746 06b9 06000000 		.4byte	.LBB6
 1747 06bd 06000000 		.4byte	.LBE6-.LBB6
 1748 06c1 01       		.byte	0x1
 1749 06c2 CB01     		.2byte	0x1cb
 1750 06c4 1B       		.uleb128 0x1b
 1751 06c5 91060000 		.4byte	0x691
ARM GAS  /tmp/ccmGK4Zp.s 			page 32


 1752 06c9 02       		.uleb128 0x2
 1753 06ca 91       		.byte	0x91
 1754 06cb 7C       		.sleb128 -4
 1755 06cc 00       		.byte	0
 1756 06cd 00       		.byte	0
 1757 06ce 19       		.uleb128 0x19
 1758 06cf 33010000 		.4byte	.LASF110
 1759 06d3 01       		.byte	0x1
 1760 06d4 D601     		.2byte	0x1d6
 1761 06d6 00000000 		.4byte	.LFB128
 1762 06da 10000000 		.4byte	.LFE128-.LFB128
 1763 06de 01       		.uleb128 0x1
 1764 06df 9C       		.byte	0x9c
 1765 06e0 FE060000 		.4byte	0x6fe
 1766 06e4 1A       		.uleb128 0x1a
 1767 06e5 84060000 		.4byte	0x684
 1768 06e9 06000000 		.4byte	.LBB8
 1769 06ed 06000000 		.4byte	.LBE8-.LBB8
 1770 06f1 01       		.byte	0x1
 1771 06f2 D901     		.2byte	0x1d9
 1772 06f4 1B       		.uleb128 0x1b
 1773 06f5 91060000 		.4byte	0x691
 1774 06f9 02       		.uleb128 0x2
 1775 06fa 91       		.byte	0x91
 1776 06fb 7C       		.sleb128 -4
 1777 06fc 00       		.byte	0
 1778 06fd 00       		.byte	0
 1779 06fe 1C       		.uleb128 0x1c
 1780 06ff A1040000 		.4byte	.LASF133
 1781 0703 03       		.byte	0x3
 1782 0704 5A01     		.2byte	0x15a
 1783 0706 00000000 		.4byte	.LFB167
 1784 070a 08000000 		.4byte	.LFE167-.LFB167
 1785 070e 01       		.uleb128 0x1
 1786 070f 9C       		.byte	0x9c
 1787 0710 1D       		.uleb128 0x1d
 1788 0711 10060000 		.4byte	.LASF111
 1789 0715 03       		.byte	0x3
 1790 0716 6601     		.2byte	0x166
 1791 0718 00000000 		.4byte	.LFB168
 1792 071c 08000000 		.4byte	.LFE168-.LFB168
 1793 0720 01       		.uleb128 0x1
 1794 0721 9C       		.byte	0x9c
 1795 0722 30070000 		.4byte	0x730
 1796 0726 1E       		.uleb128 0x1e
 1797 0727 8F040000 		.4byte	.LASF113
 1798 072b 40070000 		.4byte	0x740
 1799 072f 00       		.byte	0
 1800 0730 15       		.uleb128 0x15
 1801 0731 E4050000 		.4byte	0x5e4
 1802 0735 40070000 		.4byte	0x740
 1803 0739 16       		.uleb128 0x16
 1804 073a 3D040000 		.4byte	0x43d
 1805 073e 0B       		.byte	0xb
 1806 073f 00       		.byte	0
 1807 0740 14       		.uleb128 0x14
 1808 0741 30070000 		.4byte	0x730
ARM GAS  /tmp/ccmGK4Zp.s 			page 33


 1809 0745 1F       		.uleb128 0x1f
 1810 0746 AB050000 		.4byte	.LASF112
 1811 074a 04       		.byte	0x4
 1812 074b 76       		.byte	0x76
 1813 074c 00000000 		.4byte	.LFB200
 1814 0750 12000000 		.4byte	.LFE200-.LFB200
 1815 0754 01       		.uleb128 0x1
 1816 0755 9C       		.byte	0x9c
 1817 0756 68070000 		.4byte	0x768
 1818 075a 20       		.uleb128 0x20
 1819 075b 737000   		.ascii	"sp\000"
 1820 075e 04       		.byte	0x4
 1821 075f 76       		.byte	0x76
 1822 0760 68070000 		.4byte	0x768
 1823 0764 02       		.uleb128 0x2
 1824 0765 91       		.byte	0x91
 1825 0766 7C       		.sleb128 -4
 1826 0767 00       		.byte	0
 1827 0768 0A       		.uleb128 0xa
 1828 0769 04       		.byte	0x4
 1829 076a 06060000 		.4byte	0x606
 1830 076e 21       		.uleb128 0x21
 1831 076f 56050000 		.4byte	.LASF134
 1832 0773 04       		.byte	0x4
 1833 0774 95       		.byte	0x95
 1834 0775 11010000 		.4byte	0x111
 1835 0779 00000000 		.4byte	.LFB202
 1836 077d 0E000000 		.4byte	.LFE202-.LFB202
 1837 0781 01       		.uleb128 0x1
 1838 0782 9C       		.byte	0x9c
 1839 0783 95070000 		.4byte	0x795
 1840 0787 20       		.uleb128 0x20
 1841 0788 737000   		.ascii	"sp\000"
 1842 078b 04       		.byte	0x4
 1843 078c 95       		.byte	0x95
 1844 078d 68070000 		.4byte	0x768
 1845 0791 02       		.uleb128 0x2
 1846 0792 91       		.byte	0x91
 1847 0793 7C       		.sleb128 -4
 1848 0794 00       		.byte	0
 1849 0795 22       		.uleb128 0x22
 1850 0796 0D000000 		.4byte	.LASF114
 1851 079a 05       		.byte	0x5
 1852 079b 56       		.byte	0x56
 1853 079c 00000000 		.4byte	.LFB240
 1854 07a0 46000000 		.4byte	.LFE240-.LFB240
 1855 07a4 01       		.uleb128 0x1
 1856 07a5 9C       		.byte	0x9c
 1857 07a6 DC070000 		.4byte	0x7dc
 1858 07aa 20       		.uleb128 0x20
 1859 07ab 6D627000 		.ascii	"mbp\000"
 1860 07af 05       		.byte	0x5
 1861 07b0 56       		.byte	0x56
 1862 07b1 DC070000 		.4byte	0x7dc
 1863 07b5 02       		.uleb128 0x2
 1864 07b6 91       		.byte	0x91
 1865 07b7 74       		.sleb128 -12
ARM GAS  /tmp/ccmGK4Zp.s 			page 34


 1866 07b8 20       		.uleb128 0x20
 1867 07b9 62756600 		.ascii	"buf\000"
 1868 07bd 05       		.byte	0x5
 1869 07be 56       		.byte	0x56
 1870 07bf 73060000 		.4byte	0x673
 1871 07c3 02       		.uleb128 0x2
 1872 07c4 91       		.byte	0x91
 1873 07c5 70       		.sleb128 -16
 1874 07c6 20       		.uleb128 0x20
 1875 07c7 6E00     		.ascii	"n\000"
 1876 07c9 05       		.byte	0x5
 1877 07ca 56       		.byte	0x56
 1878 07cb 11010000 		.4byte	0x111
 1879 07cf 02       		.uleb128 0x2
 1880 07d0 91       		.byte	0x91
 1881 07d1 6C       		.sleb128 -20
 1882 07d2 1E       		.uleb128 0x1e
 1883 07d3 8F040000 		.4byte	.LASF113
 1884 07d7 F2070000 		.4byte	0x7f2
 1885 07db 00       		.byte	0
 1886 07dc 0A       		.uleb128 0xa
 1887 07dd 04       		.byte	0x4
 1888 07de 79060000 		.4byte	0x679
 1889 07e2 15       		.uleb128 0x15
 1890 07e3 E4050000 		.4byte	0x5e4
 1891 07e7 F2070000 		.4byte	0x7f2
 1892 07eb 16       		.uleb128 0x16
 1893 07ec 3D040000 		.4byte	0x43d
 1894 07f0 0E       		.byte	0xe
 1895 07f1 00       		.byte	0
 1896 07f2 14       		.uleb128 0x14
 1897 07f3 E2070000 		.4byte	0x7e2
 1898 07f7 22       		.uleb128 0x22
 1899 07f8 68030000 		.4byte	.LASF115
 1900 07fc 05       		.byte	0x5
 1901 07fd 6B       		.byte	0x6b
 1902 07fe 00000000 		.4byte	.LFB241
 1903 0802 1E000000 		.4byte	.LFE241-.LFB241
 1904 0806 01       		.uleb128 0x1
 1905 0807 9C       		.byte	0x9c
 1906 0808 1B080000 		.4byte	0x81b
 1907 080c 20       		.uleb128 0x20
 1908 080d 6D627000 		.ascii	"mbp\000"
 1909 0811 05       		.byte	0x5
 1910 0812 6B       		.byte	0x6b
 1911 0813 DC070000 		.4byte	0x7dc
 1912 0817 02       		.uleb128 0x2
 1913 0818 91       		.byte	0x91
 1914 0819 74       		.sleb128 -12
 1915 081a 00       		.byte	0
 1916 081b 22       		.uleb128 0x22
 1917 081c 95020000 		.4byte	.LASF116
 1918 0820 05       		.byte	0x5
 1919 0821 7C       		.byte	0x7c
 1920 0822 00000000 		.4byte	.LFB242
 1921 0826 44000000 		.4byte	.LFE242-.LFB242
 1922 082a 01       		.uleb128 0x1
ARM GAS  /tmp/ccmGK4Zp.s 			page 35


 1923 082b 9C       		.byte	0x9c
 1924 082c 48080000 		.4byte	0x848
 1925 0830 20       		.uleb128 0x20
 1926 0831 6D627000 		.ascii	"mbp\000"
 1927 0835 05       		.byte	0x5
 1928 0836 7C       		.byte	0x7c
 1929 0837 DC070000 		.4byte	0x7dc
 1930 083b 02       		.uleb128 0x2
 1931 083c 91       		.byte	0x91
 1932 083d 74       		.sleb128 -12
 1933 083e 1E       		.uleb128 0x1e
 1934 083f 8F040000 		.4byte	.LASF113
 1935 0843 58080000 		.4byte	0x858
 1936 0847 00       		.byte	0
 1937 0848 15       		.uleb128 0x15
 1938 0849 E4050000 		.4byte	0x5e4
 1939 084d 58080000 		.4byte	0x858
 1940 0851 16       		.uleb128 0x16
 1941 0852 3D040000 		.4byte	0x43d
 1942 0856 0A       		.byte	0xa
 1943 0857 00       		.byte	0
 1944 0858 14       		.uleb128 0x14
 1945 0859 48080000 		.4byte	0x848
 1946 085d 23       		.uleb128 0x23
 1947 085e 98040000 		.4byte	.LASF118
 1948 0862 05       		.byte	0x5
 1949 0863 9A       		.byte	0x9a
 1950 0864 FB000000 		.4byte	0xfb
 1951 0868 00000000 		.4byte	.LFB243
 1952 086c 28000000 		.4byte	.LFE243-.LFB243
 1953 0870 01       		.uleb128 0x1
 1954 0871 9C       		.byte	0x9c
 1955 0872 AF080000 		.4byte	0x8af
 1956 0876 20       		.uleb128 0x20
 1957 0877 6D627000 		.ascii	"mbp\000"
 1958 087b 05       		.byte	0x5
 1959 087c 9A       		.byte	0x9a
 1960 087d DC070000 		.4byte	0x7dc
 1961 0881 02       		.uleb128 0x2
 1962 0882 91       		.byte	0x91
 1963 0883 6C       		.sleb128 -20
 1964 0884 20       		.uleb128 0x20
 1965 0885 6D736700 		.ascii	"msg\000"
 1966 0889 05       		.byte	0x5
 1967 088a 9A       		.byte	0x9a
 1968 088b FB000000 		.4byte	0xfb
 1969 088f 02       		.uleb128 0x2
 1970 0890 91       		.byte	0x91
 1971 0891 68       		.sleb128 -24
 1972 0892 24       		.uleb128 0x24
 1973 0893 7B020000 		.4byte	.LASF117
 1974 0897 05       		.byte	0x5
 1975 0898 9A       		.byte	0x9a
 1976 0899 1C010000 		.4byte	0x11c
 1977 089d 02       		.uleb128 0x2
 1978 089e 91       		.byte	0x91
 1979 089f 64       		.sleb128 -28
ARM GAS  /tmp/ccmGK4Zp.s 			page 36


 1980 08a0 25       		.uleb128 0x25
 1981 08a1 22000000 		.4byte	.LASF85
 1982 08a5 05       		.byte	0x5
 1983 08a6 9B       		.byte	0x9b
 1984 08a7 FB000000 		.4byte	0xfb
 1985 08ab 02       		.uleb128 0x2
 1986 08ac 91       		.byte	0x91
 1987 08ad 74       		.sleb128 -12
 1988 08ae 00       		.byte	0
 1989 08af 23       		.uleb128 0x23
 1990 08b0 22060000 		.4byte	.LASF119
 1991 08b4 05       		.byte	0x5
 1992 08b5 B7       		.byte	0xb7
 1993 08b6 FB000000 		.4byte	0xfb
 1994 08ba 00000000 		.4byte	.LFB244
 1995 08be 58000000 		.4byte	.LFE244-.LFB244
 1996 08c2 01       		.uleb128 0x1
 1997 08c3 9C       		.byte	0x9c
 1998 08c4 0A090000 		.4byte	0x90a
 1999 08c8 20       		.uleb128 0x20
 2000 08c9 6D627000 		.ascii	"mbp\000"
 2001 08cd 05       		.byte	0x5
 2002 08ce B7       		.byte	0xb7
 2003 08cf DC070000 		.4byte	0x7dc
 2004 08d3 02       		.uleb128 0x2
 2005 08d4 91       		.byte	0x91
 2006 08d5 6C       		.sleb128 -20
 2007 08d6 20       		.uleb128 0x20
 2008 08d7 6D736700 		.ascii	"msg\000"
 2009 08db 05       		.byte	0x5
 2010 08dc B7       		.byte	0xb7
 2011 08dd FB000000 		.4byte	0xfb
 2012 08e1 02       		.uleb128 0x2
 2013 08e2 91       		.byte	0x91
 2014 08e3 68       		.sleb128 -24
 2015 08e4 24       		.uleb128 0x24
 2016 08e5 7B020000 		.4byte	.LASF117
 2017 08e9 05       		.byte	0x5
 2018 08ea B7       		.byte	0xb7
 2019 08eb 1C010000 		.4byte	0x11c
 2020 08ef 02       		.uleb128 0x2
 2021 08f0 91       		.byte	0x91
 2022 08f1 64       		.sleb128 -28
 2023 08f2 25       		.uleb128 0x25
 2024 08f3 22000000 		.4byte	.LASF85
 2025 08f7 05       		.byte	0x5
 2026 08f8 B8       		.byte	0xb8
 2027 08f9 FB000000 		.4byte	0xfb
 2028 08fd 02       		.uleb128 0x2
 2029 08fe 91       		.byte	0x91
 2030 08ff 74       		.sleb128 -12
 2031 0900 1E       		.uleb128 0x1e
 2032 0901 8F040000 		.4byte	.LASF113
 2033 0905 1A090000 		.4byte	0x91a
 2034 0909 00       		.byte	0
 2035 090a 15       		.uleb128 0x15
 2036 090b E4050000 		.4byte	0x5e4
ARM GAS  /tmp/ccmGK4Zp.s 			page 37


 2037 090f 1A090000 		.4byte	0x91a
 2038 0913 16       		.uleb128 0x16
 2039 0914 3D040000 		.4byte	0x43d
 2040 0918 09       		.byte	0x9
 2041 0919 00       		.byte	0
 2042 091a 14       		.uleb128 0x14
 2043 091b 0A090000 		.4byte	0x90a
 2044 091f 23       		.uleb128 0x23
 2045 0920 3C000000 		.4byte	.LASF120
 2046 0924 05       		.byte	0x5
 2047 0925 D8       		.byte	0xd8
 2048 0926 FB000000 		.4byte	0xfb
 2049 092a 00000000 		.4byte	.LFB245
 2050 092e 5E000000 		.4byte	.LFE245-.LFB245
 2051 0932 01       		.uleb128 0x1
 2052 0933 9C       		.byte	0x9c
 2053 0934 5E090000 		.4byte	0x95e
 2054 0938 20       		.uleb128 0x20
 2055 0939 6D627000 		.ascii	"mbp\000"
 2056 093d 05       		.byte	0x5
 2057 093e D8       		.byte	0xd8
 2058 093f DC070000 		.4byte	0x7dc
 2059 0943 02       		.uleb128 0x2
 2060 0944 91       		.byte	0x91
 2061 0945 74       		.sleb128 -12
 2062 0946 20       		.uleb128 0x20
 2063 0947 6D736700 		.ascii	"msg\000"
 2064 094b 05       		.byte	0x5
 2065 094c D8       		.byte	0xd8
 2066 094d FB000000 		.4byte	0xfb
 2067 0951 02       		.uleb128 0x2
 2068 0952 91       		.byte	0x91
 2069 0953 70       		.sleb128 -16
 2070 0954 1E       		.uleb128 0x1e
 2071 0955 8F040000 		.4byte	.LASF113
 2072 0959 5E090000 		.4byte	0x95e
 2073 095d 00       		.byte	0
 2074 095e 14       		.uleb128 0x14
 2075 095f 0A090000 		.4byte	0x90a
 2076 0963 23       		.uleb128 0x23
 2077 0964 8E050000 		.4byte	.LASF121
 2078 0968 05       		.byte	0x5
 2079 0969 FE       		.byte	0xfe
 2080 096a FB000000 		.4byte	0xfb
 2081 096e 00000000 		.4byte	.LFB246
 2082 0972 28000000 		.4byte	.LFE246-.LFB246
 2083 0976 01       		.uleb128 0x1
 2084 0977 9C       		.byte	0x9c
 2085 0978 B5090000 		.4byte	0x9b5
 2086 097c 20       		.uleb128 0x20
 2087 097d 6D627000 		.ascii	"mbp\000"
 2088 0981 05       		.byte	0x5
 2089 0982 FE       		.byte	0xfe
 2090 0983 DC070000 		.4byte	0x7dc
 2091 0987 02       		.uleb128 0x2
 2092 0988 91       		.byte	0x91
 2093 0989 6C       		.sleb128 -20
ARM GAS  /tmp/ccmGK4Zp.s 			page 38


 2094 098a 20       		.uleb128 0x20
 2095 098b 6D736700 		.ascii	"msg\000"
 2096 098f 05       		.byte	0x5
 2097 0990 FE       		.byte	0xfe
 2098 0991 FB000000 		.4byte	0xfb
 2099 0995 02       		.uleb128 0x2
 2100 0996 91       		.byte	0x91
 2101 0997 68       		.sleb128 -24
 2102 0998 24       		.uleb128 0x24
 2103 0999 7B020000 		.4byte	.LASF117
 2104 099d 05       		.byte	0x5
 2105 099e FE       		.byte	0xfe
 2106 099f 1C010000 		.4byte	0x11c
 2107 09a3 02       		.uleb128 0x2
 2108 09a4 91       		.byte	0x91
 2109 09a5 64       		.sleb128 -28
 2110 09a6 25       		.uleb128 0x25
 2111 09a7 22000000 		.4byte	.LASF85
 2112 09ab 05       		.byte	0x5
 2113 09ac FF       		.byte	0xff
 2114 09ad FB000000 		.4byte	0xfb
 2115 09b1 02       		.uleb128 0x2
 2116 09b2 91       		.byte	0x91
 2117 09b3 74       		.sleb128 -12
 2118 09b4 00       		.byte	0
 2119 09b5 26       		.uleb128 0x26
 2120 09b6 A9000000 		.4byte	.LASF122
 2121 09ba 05       		.byte	0x5
 2122 09bb 1B01     		.2byte	0x11b
 2123 09bd FB000000 		.4byte	0xfb
 2124 09c1 00000000 		.4byte	.LFB247
 2125 09c5 5E000000 		.4byte	.LFE247-.LFB247
 2126 09c9 01       		.uleb128 0x1
 2127 09ca 9C       		.byte	0x9c
 2128 09cb 150A0000 		.4byte	0xa15
 2129 09cf 27       		.uleb128 0x27
 2130 09d0 6D627000 		.ascii	"mbp\000"
 2131 09d4 05       		.byte	0x5
 2132 09d5 1B01     		.2byte	0x11b
 2133 09d7 DC070000 		.4byte	0x7dc
 2134 09db 02       		.uleb128 0x2
 2135 09dc 91       		.byte	0x91
 2136 09dd 6C       		.sleb128 -20
 2137 09de 27       		.uleb128 0x27
 2138 09df 6D736700 		.ascii	"msg\000"
 2139 09e3 05       		.byte	0x5
 2140 09e4 1B01     		.2byte	0x11b
 2141 09e6 FB000000 		.4byte	0xfb
 2142 09ea 02       		.uleb128 0x2
 2143 09eb 91       		.byte	0x91
 2144 09ec 68       		.sleb128 -24
 2145 09ed 28       		.uleb128 0x28
 2146 09ee 7B020000 		.4byte	.LASF117
 2147 09f2 05       		.byte	0x5
 2148 09f3 1B01     		.2byte	0x11b
 2149 09f5 1C010000 		.4byte	0x11c
 2150 09f9 02       		.uleb128 0x2
ARM GAS  /tmp/ccmGK4Zp.s 			page 39


 2151 09fa 91       		.byte	0x91
 2152 09fb 64       		.sleb128 -28
 2153 09fc 29       		.uleb128 0x29
 2154 09fd 22000000 		.4byte	.LASF85
 2155 0a01 05       		.byte	0x5
 2156 0a02 1C01     		.2byte	0x11c
 2157 0a04 FB000000 		.4byte	0xfb
 2158 0a08 02       		.uleb128 0x2
 2159 0a09 91       		.byte	0x91
 2160 0a0a 74       		.sleb128 -12
 2161 0a0b 1E       		.uleb128 0x1e
 2162 0a0c 8F040000 		.4byte	.LASF113
 2163 0a10 150A0000 		.4byte	0xa15
 2164 0a14 00       		.byte	0
 2165 0a15 14       		.uleb128 0x14
 2166 0a16 E2070000 		.4byte	0x7e2
 2167 0a1a 26       		.uleb128 0x26
 2168 0a1b 7A000000 		.4byte	.LASF123
 2169 0a1f 05       		.byte	0x5
 2170 0a20 3C01     		.2byte	0x13c
 2171 0a22 FB000000 		.4byte	0xfb
 2172 0a26 00000000 		.4byte	.LFB248
 2173 0a2a 64000000 		.4byte	.LFE248-.LFB248
 2174 0a2e 01       		.uleb128 0x1
 2175 0a2f 9C       		.byte	0x9c
 2176 0a30 5C0A0000 		.4byte	0xa5c
 2177 0a34 27       		.uleb128 0x27
 2178 0a35 6D627000 		.ascii	"mbp\000"
 2179 0a39 05       		.byte	0x5
 2180 0a3a 3C01     		.2byte	0x13c
 2181 0a3c DC070000 		.4byte	0x7dc
 2182 0a40 02       		.uleb128 0x2
 2183 0a41 91       		.byte	0x91
 2184 0a42 74       		.sleb128 -12
 2185 0a43 27       		.uleb128 0x27
 2186 0a44 6D736700 		.ascii	"msg\000"
 2187 0a48 05       		.byte	0x5
 2188 0a49 3C01     		.2byte	0x13c
 2189 0a4b FB000000 		.4byte	0xfb
 2190 0a4f 02       		.uleb128 0x2
 2191 0a50 91       		.byte	0x91
 2192 0a51 70       		.sleb128 -16
 2193 0a52 1E       		.uleb128 0x1e
 2194 0a53 8F040000 		.4byte	.LASF113
 2195 0a57 5C0A0000 		.4byte	0xa5c
 2196 0a5b 00       		.byte	0
 2197 0a5c 14       		.uleb128 0x14
 2198 0a5d E2070000 		.4byte	0x7e2
 2199 0a61 26       		.uleb128 0x26
 2200 0a62 5E030000 		.4byte	.LASF124
 2201 0a66 05       		.byte	0x5
 2202 0a67 6101     		.2byte	0x161
 2203 0a69 FB000000 		.4byte	0xfb
 2204 0a6d 00000000 		.4byte	.LFB249
 2205 0a71 28000000 		.4byte	.LFE249-.LFB249
 2206 0a75 01       		.uleb128 0x1
 2207 0a76 9C       		.byte	0x9c
ARM GAS  /tmp/ccmGK4Zp.s 			page 40


 2208 0a77 B80A0000 		.4byte	0xab8
 2209 0a7b 27       		.uleb128 0x27
 2210 0a7c 6D627000 		.ascii	"mbp\000"
 2211 0a80 05       		.byte	0x5
 2212 0a81 6101     		.2byte	0x161
 2213 0a83 DC070000 		.4byte	0x7dc
 2214 0a87 02       		.uleb128 0x2
 2215 0a88 91       		.byte	0x91
 2216 0a89 6C       		.sleb128 -20
 2217 0a8a 28       		.uleb128 0x28
 2218 0a8b 11030000 		.4byte	.LASF125
 2219 0a8f 05       		.byte	0x5
 2220 0a90 6101     		.2byte	0x161
 2221 0a92 73060000 		.4byte	0x673
 2222 0a96 02       		.uleb128 0x2
 2223 0a97 91       		.byte	0x91
 2224 0a98 68       		.sleb128 -24
 2225 0a99 28       		.uleb128 0x28
 2226 0a9a 7B020000 		.4byte	.LASF117
 2227 0a9e 05       		.byte	0x5
 2228 0a9f 6101     		.2byte	0x161
 2229 0aa1 1C010000 		.4byte	0x11c
 2230 0aa5 02       		.uleb128 0x2
 2231 0aa6 91       		.byte	0x91
 2232 0aa7 64       		.sleb128 -28
 2233 0aa8 29       		.uleb128 0x29
 2234 0aa9 22000000 		.4byte	.LASF85
 2235 0aad 05       		.byte	0x5
 2236 0aae 6201     		.2byte	0x162
 2237 0ab0 FB000000 		.4byte	0xfb
 2238 0ab4 02       		.uleb128 0x2
 2239 0ab5 91       		.byte	0x91
 2240 0ab6 74       		.sleb128 -12
 2241 0ab7 00       		.byte	0
 2242 0ab8 26       		.uleb128 0x26
 2243 0ab9 DA020000 		.4byte	.LASF126
 2244 0abd 05       		.byte	0x5
 2245 0abe 7E01     		.2byte	0x17e
 2246 0ac0 FB000000 		.4byte	0xfb
 2247 0ac4 00000000 		.4byte	.LFB250
 2248 0ac8 5A000000 		.4byte	.LFE250-.LFB250
 2249 0acc 01       		.uleb128 0x1
 2250 0acd 9C       		.byte	0x9c
 2251 0ace 180B0000 		.4byte	0xb18
 2252 0ad2 27       		.uleb128 0x27
 2253 0ad3 6D627000 		.ascii	"mbp\000"
 2254 0ad7 05       		.byte	0x5
 2255 0ad8 7E01     		.2byte	0x17e
 2256 0ada DC070000 		.4byte	0x7dc
 2257 0ade 02       		.uleb128 0x2
 2258 0adf 91       		.byte	0x91
 2259 0ae0 6C       		.sleb128 -20
 2260 0ae1 28       		.uleb128 0x28
 2261 0ae2 11030000 		.4byte	.LASF125
 2262 0ae6 05       		.byte	0x5
 2263 0ae7 7E01     		.2byte	0x17e
 2264 0ae9 73060000 		.4byte	0x673
ARM GAS  /tmp/ccmGK4Zp.s 			page 41


 2265 0aed 02       		.uleb128 0x2
 2266 0aee 91       		.byte	0x91
 2267 0aef 68       		.sleb128 -24
 2268 0af0 28       		.uleb128 0x28
 2269 0af1 7B020000 		.4byte	.LASF117
 2270 0af5 05       		.byte	0x5
 2271 0af6 7E01     		.2byte	0x17e
 2272 0af8 1C010000 		.4byte	0x11c
 2273 0afc 02       		.uleb128 0x2
 2274 0afd 91       		.byte	0x91
 2275 0afe 64       		.sleb128 -28
 2276 0aff 29       		.uleb128 0x29
 2277 0b00 22000000 		.4byte	.LASF85
 2278 0b04 05       		.byte	0x5
 2279 0b05 7F01     		.2byte	0x17f
 2280 0b07 FB000000 		.4byte	0xfb
 2281 0b0b 02       		.uleb128 0x2
 2282 0b0c 91       		.byte	0x91
 2283 0b0d 74       		.sleb128 -12
 2284 0b0e 1E       		.uleb128 0x1e
 2285 0b0f 8F040000 		.4byte	.LASF113
 2286 0b13 180B0000 		.4byte	0xb18
 2287 0b17 00       		.byte	0
 2288 0b18 14       		.uleb128 0x14
 2289 0b19 48080000 		.4byte	0x848
 2290 0b1d 26       		.uleb128 0x26
 2291 0b1e B5020000 		.4byte	.LASF127
 2292 0b22 05       		.byte	0x5
 2293 0b23 9F01     		.2byte	0x19f
 2294 0b25 FB000000 		.4byte	0xfb
 2295 0b29 00000000 		.4byte	.LFB251
 2296 0b2d 60000000 		.4byte	.LFE251-.LFB251
 2297 0b31 01       		.uleb128 0x1
 2298 0b32 9C       		.byte	0x9c
 2299 0b33 5F0B0000 		.4byte	0xb5f
 2300 0b37 27       		.uleb128 0x27
 2301 0b38 6D627000 		.ascii	"mbp\000"
 2302 0b3c 05       		.byte	0x5
 2303 0b3d 9F01     		.2byte	0x19f
 2304 0b3f DC070000 		.4byte	0x7dc
 2305 0b43 02       		.uleb128 0x2
 2306 0b44 91       		.byte	0x91
 2307 0b45 74       		.sleb128 -12
 2308 0b46 28       		.uleb128 0x28
 2309 0b47 11030000 		.4byte	.LASF125
 2310 0b4b 05       		.byte	0x5
 2311 0b4c 9F01     		.2byte	0x19f
 2312 0b4e 73060000 		.4byte	0x673
 2313 0b52 02       		.uleb128 0x2
 2314 0b53 91       		.byte	0x91
 2315 0b54 70       		.sleb128 -16
 2316 0b55 1E       		.uleb128 0x1e
 2317 0b56 8F040000 		.4byte	.LASF113
 2318 0b5a 5F0B0000 		.4byte	0xb5f
 2319 0b5e 00       		.byte	0
 2320 0b5f 14       		.uleb128 0x14
 2321 0b60 48080000 		.4byte	0x848
ARM GAS  /tmp/ccmGK4Zp.s 			page 42


 2322 0b64 2A       		.uleb128 0x2a
 2323 0b65 49040000 		.4byte	.LASF128
 2324 0b69 0F       		.byte	0xf
 2325 0b6a FA06     		.2byte	0x6fa
 2326 0b6c BF000000 		.4byte	0xbf
 2327 0b70 2B       		.uleb128 0x2b
 2328 0b71 636800   		.ascii	"ch\000"
 2329 0b74 0A       		.byte	0xa
 2330 0b75 0902     		.2byte	0x209
 2331 0b77 D6030000 		.4byte	0x3d6
 2332 0b7b 00       		.byte	0
 2333              		.section	.debug_abbrev,"",%progbits
 2334              	.Ldebug_abbrev0:
 2335 0000 01       		.uleb128 0x1
 2336 0001 11       		.uleb128 0x11
 2337 0002 01       		.byte	0x1
 2338 0003 25       		.uleb128 0x25
 2339 0004 0E       		.uleb128 0xe
 2340 0005 13       		.uleb128 0x13
 2341 0006 0B       		.uleb128 0xb
 2342 0007 03       		.uleb128 0x3
 2343 0008 0E       		.uleb128 0xe
 2344 0009 55       		.uleb128 0x55
 2345 000a 17       		.uleb128 0x17
 2346 000b 11       		.uleb128 0x11
 2347 000c 01       		.uleb128 0x1
 2348 000d 10       		.uleb128 0x10
 2349 000e 17       		.uleb128 0x17
 2350 000f 00       		.byte	0
 2351 0010 00       		.byte	0
 2352 0011 02       		.uleb128 0x2
 2353 0012 24       		.uleb128 0x24
 2354 0013 00       		.byte	0
 2355 0014 0B       		.uleb128 0xb
 2356 0015 0B       		.uleb128 0xb
 2357 0016 3E       		.uleb128 0x3e
 2358 0017 0B       		.uleb128 0xb
 2359 0018 03       		.uleb128 0x3
 2360 0019 08       		.uleb128 0x8
 2361 001a 00       		.byte	0
 2362 001b 00       		.byte	0
 2363 001c 03       		.uleb128 0x3
 2364 001d 24       		.uleb128 0x24
 2365 001e 00       		.byte	0
 2366 001f 0B       		.uleb128 0xb
 2367 0020 0B       		.uleb128 0xb
 2368 0021 3E       		.uleb128 0x3e
 2369 0022 0B       		.uleb128 0xb
 2370 0023 03       		.uleb128 0x3
 2371 0024 0E       		.uleb128 0xe
 2372 0025 00       		.byte	0
 2373 0026 00       		.byte	0
 2374 0027 04       		.uleb128 0x4
 2375 0028 16       		.uleb128 0x16
 2376 0029 00       		.byte	0
 2377 002a 03       		.uleb128 0x3
 2378 002b 0E       		.uleb128 0xe
ARM GAS  /tmp/ccmGK4Zp.s 			page 43


 2379 002c 3A       		.uleb128 0x3a
 2380 002d 0B       		.uleb128 0xb
 2381 002e 3B       		.uleb128 0x3b
 2382 002f 0B       		.uleb128 0xb
 2383 0030 49       		.uleb128 0x49
 2384 0031 13       		.uleb128 0x13
 2385 0032 00       		.byte	0
 2386 0033 00       		.byte	0
 2387 0034 05       		.uleb128 0x5
 2388 0035 35       		.uleb128 0x35
 2389 0036 00       		.byte	0
 2390 0037 49       		.uleb128 0x49
 2391 0038 13       		.uleb128 0x13
 2392 0039 00       		.byte	0
 2393 003a 00       		.byte	0
 2394 003b 06       		.uleb128 0x6
 2395 003c 13       		.uleb128 0x13
 2396 003d 01       		.byte	0x1
 2397 003e 03       		.uleb128 0x3
 2398 003f 0E       		.uleb128 0xe
 2399 0040 0B       		.uleb128 0xb
 2400 0041 0B       		.uleb128 0xb
 2401 0042 3A       		.uleb128 0x3a
 2402 0043 0B       		.uleb128 0xb
 2403 0044 3B       		.uleb128 0x3b
 2404 0045 0B       		.uleb128 0xb
 2405 0046 01       		.uleb128 0x1
 2406 0047 13       		.uleb128 0x13
 2407 0048 00       		.byte	0
 2408 0049 00       		.byte	0
 2409 004a 07       		.uleb128 0x7
 2410 004b 0D       		.uleb128 0xd
 2411 004c 00       		.byte	0
 2412 004d 03       		.uleb128 0x3
 2413 004e 0E       		.uleb128 0xe
 2414 004f 3A       		.uleb128 0x3a
 2415 0050 0B       		.uleb128 0xb
 2416 0051 3B       		.uleb128 0x3b
 2417 0052 0B       		.uleb128 0xb
 2418 0053 49       		.uleb128 0x49
 2419 0054 13       		.uleb128 0x13
 2420 0055 38       		.uleb128 0x38
 2421 0056 0B       		.uleb128 0xb
 2422 0057 00       		.byte	0
 2423 0058 00       		.byte	0
 2424 0059 08       		.uleb128 0x8
 2425 005a 0D       		.uleb128 0xd
 2426 005b 00       		.byte	0
 2427 005c 03       		.uleb128 0x3
 2428 005d 08       		.uleb128 0x8
 2429 005e 3A       		.uleb128 0x3a
 2430 005f 0B       		.uleb128 0xb
 2431 0060 3B       		.uleb128 0x3b
 2432 0061 05       		.uleb128 0x5
 2433 0062 49       		.uleb128 0x49
 2434 0063 13       		.uleb128 0x13
 2435 0064 38       		.uleb128 0x38
ARM GAS  /tmp/ccmGK4Zp.s 			page 44


 2436 0065 0B       		.uleb128 0xb
 2437 0066 00       		.byte	0
 2438 0067 00       		.byte	0
 2439 0068 09       		.uleb128 0x9
 2440 0069 0D       		.uleb128 0xd
 2441 006a 00       		.byte	0
 2442 006b 03       		.uleb128 0x3
 2443 006c 0E       		.uleb128 0xe
 2444 006d 3A       		.uleb128 0x3a
 2445 006e 0B       		.uleb128 0xb
 2446 006f 3B       		.uleb128 0x3b
 2447 0070 05       		.uleb128 0x5
 2448 0071 49       		.uleb128 0x49
 2449 0072 13       		.uleb128 0x13
 2450 0073 38       		.uleb128 0x38
 2451 0074 0B       		.uleb128 0xb
 2452 0075 00       		.byte	0
 2453 0076 00       		.byte	0
 2454 0077 0A       		.uleb128 0xa
 2455 0078 0F       		.uleb128 0xf
 2456 0079 00       		.byte	0
 2457 007a 0B       		.uleb128 0xb
 2458 007b 0B       		.uleb128 0xb
 2459 007c 49       		.uleb128 0x49
 2460 007d 13       		.uleb128 0x13
 2461 007e 00       		.byte	0
 2462 007f 00       		.byte	0
 2463 0080 0B       		.uleb128 0xb
 2464 0081 13       		.uleb128 0x13
 2465 0082 01       		.byte	0x1
 2466 0083 03       		.uleb128 0x3
 2467 0084 0E       		.uleb128 0xe
 2468 0085 0B       		.uleb128 0xb
 2469 0086 0B       		.uleb128 0xb
 2470 0087 3A       		.uleb128 0x3a
 2471 0088 0B       		.uleb128 0xb
 2472 0089 3B       		.uleb128 0x3b
 2473 008a 05       		.uleb128 0x5
 2474 008b 01       		.uleb128 0x1
 2475 008c 13       		.uleb128 0x13
 2476 008d 00       		.byte	0
 2477 008e 00       		.byte	0
 2478 008f 0C       		.uleb128 0xc
 2479 0090 15       		.uleb128 0x15
 2480 0091 01       		.byte	0x1
 2481 0092 27       		.uleb128 0x27
 2482 0093 19       		.uleb128 0x19
 2483 0094 01       		.uleb128 0x1
 2484 0095 13       		.uleb128 0x13
 2485 0096 00       		.byte	0
 2486 0097 00       		.byte	0
 2487 0098 0D       		.uleb128 0xd
 2488 0099 05       		.uleb128 0x5
 2489 009a 00       		.byte	0
 2490 009b 49       		.uleb128 0x49
 2491 009c 13       		.uleb128 0x13
 2492 009d 00       		.byte	0
ARM GAS  /tmp/ccmGK4Zp.s 			page 45


 2493 009e 00       		.byte	0
 2494 009f 0E       		.uleb128 0xe
 2495 00a0 0F       		.uleb128 0xf
 2496 00a1 00       		.byte	0
 2497 00a2 0B       		.uleb128 0xb
 2498 00a3 0B       		.uleb128 0xb
 2499 00a4 00       		.byte	0
 2500 00a5 00       		.byte	0
 2501 00a6 0F       		.uleb128 0xf
 2502 00a7 13       		.uleb128 0x13
 2503 00a8 01       		.byte	0x1
 2504 00a9 03       		.uleb128 0x3
 2505 00aa 0E       		.uleb128 0xe
 2506 00ab 0B       		.uleb128 0xb
 2507 00ac 05       		.uleb128 0x5
 2508 00ad 3A       		.uleb128 0x3a
 2509 00ae 0B       		.uleb128 0xb
 2510 00af 3B       		.uleb128 0x3b
 2511 00b0 05       		.uleb128 0x5
 2512 00b1 01       		.uleb128 0x1
 2513 00b2 13       		.uleb128 0x13
 2514 00b3 00       		.byte	0
 2515 00b4 00       		.byte	0
 2516 00b5 10       		.uleb128 0x10
 2517 00b6 0D       		.uleb128 0xd
 2518 00b7 00       		.byte	0
 2519 00b8 03       		.uleb128 0x3
 2520 00b9 08       		.uleb128 0x8
 2521 00ba 3A       		.uleb128 0x3a
 2522 00bb 0B       		.uleb128 0xb
 2523 00bc 3B       		.uleb128 0x3b
 2524 00bd 0B       		.uleb128 0xb
 2525 00be 49       		.uleb128 0x49
 2526 00bf 13       		.uleb128 0x13
 2527 00c0 38       		.uleb128 0x38
 2528 00c1 0B       		.uleb128 0xb
 2529 00c2 00       		.byte	0
 2530 00c3 00       		.byte	0
 2531 00c4 11       		.uleb128 0x11
 2532 00c5 13       		.uleb128 0x13
 2533 00c6 01       		.byte	0x1
 2534 00c7 0B       		.uleb128 0xb
 2535 00c8 0B       		.uleb128 0xb
 2536 00c9 3A       		.uleb128 0x3a
 2537 00ca 0B       		.uleb128 0xb
 2538 00cb 3B       		.uleb128 0x3b
 2539 00cc 0B       		.uleb128 0xb
 2540 00cd 01       		.uleb128 0x1
 2541 00ce 13       		.uleb128 0x13
 2542 00cf 00       		.byte	0
 2543 00d0 00       		.byte	0
 2544 00d1 12       		.uleb128 0x12
 2545 00d2 17       		.uleb128 0x17
 2546 00d3 01       		.byte	0x1
 2547 00d4 0B       		.uleb128 0xb
 2548 00d5 0B       		.uleb128 0xb
 2549 00d6 3A       		.uleb128 0x3a
ARM GAS  /tmp/ccmGK4Zp.s 			page 46


 2550 00d7 0B       		.uleb128 0xb
 2551 00d8 3B       		.uleb128 0x3b
 2552 00d9 0B       		.uleb128 0xb
 2553 00da 01       		.uleb128 0x1
 2554 00db 13       		.uleb128 0x13
 2555 00dc 00       		.byte	0
 2556 00dd 00       		.byte	0
 2557 00de 13       		.uleb128 0x13
 2558 00df 0D       		.uleb128 0xd
 2559 00e0 00       		.byte	0
 2560 00e1 03       		.uleb128 0x3
 2561 00e2 0E       		.uleb128 0xe
 2562 00e3 3A       		.uleb128 0x3a
 2563 00e4 0B       		.uleb128 0xb
 2564 00e5 3B       		.uleb128 0x3b
 2565 00e6 05       		.uleb128 0x5
 2566 00e7 49       		.uleb128 0x49
 2567 00e8 13       		.uleb128 0x13
 2568 00e9 00       		.byte	0
 2569 00ea 00       		.byte	0
 2570 00eb 14       		.uleb128 0x14
 2571 00ec 26       		.uleb128 0x26
 2572 00ed 00       		.byte	0
 2573 00ee 49       		.uleb128 0x49
 2574 00ef 13       		.uleb128 0x13
 2575 00f0 00       		.byte	0
 2576 00f1 00       		.byte	0
 2577 00f2 15       		.uleb128 0x15
 2578 00f3 01       		.uleb128 0x1
 2579 00f4 01       		.byte	0x1
 2580 00f5 49       		.uleb128 0x49
 2581 00f6 13       		.uleb128 0x13
 2582 00f7 01       		.uleb128 0x1
 2583 00f8 13       		.uleb128 0x13
 2584 00f9 00       		.byte	0
 2585 00fa 00       		.byte	0
 2586 00fb 16       		.uleb128 0x16
 2587 00fc 21       		.uleb128 0x21
 2588 00fd 00       		.byte	0
 2589 00fe 49       		.uleb128 0x49
 2590 00ff 13       		.uleb128 0x13
 2591 0100 2F       		.uleb128 0x2f
 2592 0101 0B       		.uleb128 0xb
 2593 0102 00       		.byte	0
 2594 0103 00       		.byte	0
 2595 0104 17       		.uleb128 0x17
 2596 0105 2E       		.uleb128 0x2e
 2597 0106 01       		.byte	0x1
 2598 0107 03       		.uleb128 0x3
 2599 0108 0E       		.uleb128 0xe
 2600 0109 3A       		.uleb128 0x3a
 2601 010a 0B       		.uleb128 0xb
 2602 010b 3B       		.uleb128 0x3b
 2603 010c 05       		.uleb128 0x5
 2604 010d 27       		.uleb128 0x27
 2605 010e 19       		.uleb128 0x19
 2606 010f 20       		.uleb128 0x20
ARM GAS  /tmp/ccmGK4Zp.s 			page 47


 2607 0110 0B       		.uleb128 0xb
 2608 0111 01       		.uleb128 0x1
 2609 0112 13       		.uleb128 0x13
 2610 0113 00       		.byte	0
 2611 0114 00       		.byte	0
 2612 0115 18       		.uleb128 0x18
 2613 0116 05       		.uleb128 0x5
 2614 0117 00       		.byte	0
 2615 0118 03       		.uleb128 0x3
 2616 0119 0E       		.uleb128 0xe
 2617 011a 3A       		.uleb128 0x3a
 2618 011b 0B       		.uleb128 0xb
 2619 011c 3B       		.uleb128 0x3b
 2620 011d 05       		.uleb128 0x5
 2621 011e 49       		.uleb128 0x49
 2622 011f 13       		.uleb128 0x13
 2623 0120 00       		.byte	0
 2624 0121 00       		.byte	0
 2625 0122 19       		.uleb128 0x19
 2626 0123 2E       		.uleb128 0x2e
 2627 0124 01       		.byte	0x1
 2628 0125 03       		.uleb128 0x3
 2629 0126 0E       		.uleb128 0xe
 2630 0127 3A       		.uleb128 0x3a
 2631 0128 0B       		.uleb128 0xb
 2632 0129 3B       		.uleb128 0x3b
 2633 012a 05       		.uleb128 0x5
 2634 012b 27       		.uleb128 0x27
 2635 012c 19       		.uleb128 0x19
 2636 012d 11       		.uleb128 0x11
 2637 012e 01       		.uleb128 0x1
 2638 012f 12       		.uleb128 0x12
 2639 0130 06       		.uleb128 0x6
 2640 0131 40       		.uleb128 0x40
 2641 0132 18       		.uleb128 0x18
 2642 0133 9742     		.uleb128 0x2117
 2643 0135 19       		.uleb128 0x19
 2644 0136 01       		.uleb128 0x1
 2645 0137 13       		.uleb128 0x13
 2646 0138 00       		.byte	0
 2647 0139 00       		.byte	0
 2648 013a 1A       		.uleb128 0x1a
 2649 013b 1D       		.uleb128 0x1d
 2650 013c 01       		.byte	0x1
 2651 013d 31       		.uleb128 0x31
 2652 013e 13       		.uleb128 0x13
 2653 013f 11       		.uleb128 0x11
 2654 0140 01       		.uleb128 0x1
 2655 0141 12       		.uleb128 0x12
 2656 0142 06       		.uleb128 0x6
 2657 0143 58       		.uleb128 0x58
 2658 0144 0B       		.uleb128 0xb
 2659 0145 59       		.uleb128 0x59
 2660 0146 05       		.uleb128 0x5
 2661 0147 00       		.byte	0
 2662 0148 00       		.byte	0
 2663 0149 1B       		.uleb128 0x1b
ARM GAS  /tmp/ccmGK4Zp.s 			page 48


 2664 014a 05       		.uleb128 0x5
 2665 014b 00       		.byte	0
 2666 014c 31       		.uleb128 0x31
 2667 014d 13       		.uleb128 0x13
 2668 014e 02       		.uleb128 0x2
 2669 014f 18       		.uleb128 0x18
 2670 0150 00       		.byte	0
 2671 0151 00       		.byte	0
 2672 0152 1C       		.uleb128 0x1c
 2673 0153 2E       		.uleb128 0x2e
 2674 0154 00       		.byte	0
 2675 0155 03       		.uleb128 0x3
 2676 0156 0E       		.uleb128 0xe
 2677 0157 3A       		.uleb128 0x3a
 2678 0158 0B       		.uleb128 0xb
 2679 0159 3B       		.uleb128 0x3b
 2680 015a 05       		.uleb128 0x5
 2681 015b 27       		.uleb128 0x27
 2682 015c 19       		.uleb128 0x19
 2683 015d 11       		.uleb128 0x11
 2684 015e 01       		.uleb128 0x1
 2685 015f 12       		.uleb128 0x12
 2686 0160 06       		.uleb128 0x6
 2687 0161 40       		.uleb128 0x40
 2688 0162 18       		.uleb128 0x18
 2689 0163 9642     		.uleb128 0x2116
 2690 0165 19       		.uleb128 0x19
 2691 0166 00       		.byte	0
 2692 0167 00       		.byte	0
 2693 0168 1D       		.uleb128 0x1d
 2694 0169 2E       		.uleb128 0x2e
 2695 016a 01       		.byte	0x1
 2696 016b 03       		.uleb128 0x3
 2697 016c 0E       		.uleb128 0xe
 2698 016d 3A       		.uleb128 0x3a
 2699 016e 0B       		.uleb128 0xb
 2700 016f 3B       		.uleb128 0x3b
 2701 0170 05       		.uleb128 0x5
 2702 0171 27       		.uleb128 0x27
 2703 0172 19       		.uleb128 0x19
 2704 0173 11       		.uleb128 0x11
 2705 0174 01       		.uleb128 0x1
 2706 0175 12       		.uleb128 0x12
 2707 0176 06       		.uleb128 0x6
 2708 0177 40       		.uleb128 0x40
 2709 0178 18       		.uleb128 0x18
 2710 0179 9642     		.uleb128 0x2116
 2711 017b 19       		.uleb128 0x19
 2712 017c 01       		.uleb128 0x1
 2713 017d 13       		.uleb128 0x13
 2714 017e 00       		.byte	0
 2715 017f 00       		.byte	0
 2716 0180 1E       		.uleb128 0x1e
 2717 0181 34       		.uleb128 0x34
 2718 0182 00       		.byte	0
 2719 0183 03       		.uleb128 0x3
 2720 0184 0E       		.uleb128 0xe
ARM GAS  /tmp/ccmGK4Zp.s 			page 49


 2721 0185 49       		.uleb128 0x49
 2722 0186 13       		.uleb128 0x13
 2723 0187 34       		.uleb128 0x34
 2724 0188 19       		.uleb128 0x19
 2725 0189 00       		.byte	0
 2726 018a 00       		.byte	0
 2727 018b 1F       		.uleb128 0x1f
 2728 018c 2E       		.uleb128 0x2e
 2729 018d 01       		.byte	0x1
 2730 018e 03       		.uleb128 0x3
 2731 018f 0E       		.uleb128 0xe
 2732 0190 3A       		.uleb128 0x3a
 2733 0191 0B       		.uleb128 0xb
 2734 0192 3B       		.uleb128 0x3b
 2735 0193 0B       		.uleb128 0xb
 2736 0194 27       		.uleb128 0x27
 2737 0195 19       		.uleb128 0x19
 2738 0196 11       		.uleb128 0x11
 2739 0197 01       		.uleb128 0x1
 2740 0198 12       		.uleb128 0x12
 2741 0199 06       		.uleb128 0x6
 2742 019a 40       		.uleb128 0x40
 2743 019b 18       		.uleb128 0x18
 2744 019c 9742     		.uleb128 0x2117
 2745 019e 19       		.uleb128 0x19
 2746 019f 01       		.uleb128 0x1
 2747 01a0 13       		.uleb128 0x13
 2748 01a1 00       		.byte	0
 2749 01a2 00       		.byte	0
 2750 01a3 20       		.uleb128 0x20
 2751 01a4 05       		.uleb128 0x5
 2752 01a5 00       		.byte	0
 2753 01a6 03       		.uleb128 0x3
 2754 01a7 08       		.uleb128 0x8
 2755 01a8 3A       		.uleb128 0x3a
 2756 01a9 0B       		.uleb128 0xb
 2757 01aa 3B       		.uleb128 0x3b
 2758 01ab 0B       		.uleb128 0xb
 2759 01ac 49       		.uleb128 0x49
 2760 01ad 13       		.uleb128 0x13
 2761 01ae 02       		.uleb128 0x2
 2762 01af 18       		.uleb128 0x18
 2763 01b0 00       		.byte	0
 2764 01b1 00       		.byte	0
 2765 01b2 21       		.uleb128 0x21
 2766 01b3 2E       		.uleb128 0x2e
 2767 01b4 01       		.byte	0x1
 2768 01b5 03       		.uleb128 0x3
 2769 01b6 0E       		.uleb128 0xe
 2770 01b7 3A       		.uleb128 0x3a
 2771 01b8 0B       		.uleb128 0xb
 2772 01b9 3B       		.uleb128 0x3b
 2773 01ba 0B       		.uleb128 0xb
 2774 01bb 27       		.uleb128 0x27
 2775 01bc 19       		.uleb128 0x19
 2776 01bd 49       		.uleb128 0x49
 2777 01be 13       		.uleb128 0x13
ARM GAS  /tmp/ccmGK4Zp.s 			page 50


 2778 01bf 11       		.uleb128 0x11
 2779 01c0 01       		.uleb128 0x1
 2780 01c1 12       		.uleb128 0x12
 2781 01c2 06       		.uleb128 0x6
 2782 01c3 40       		.uleb128 0x40
 2783 01c4 18       		.uleb128 0x18
 2784 01c5 9742     		.uleb128 0x2117
 2785 01c7 19       		.uleb128 0x19
 2786 01c8 01       		.uleb128 0x1
 2787 01c9 13       		.uleb128 0x13
 2788 01ca 00       		.byte	0
 2789 01cb 00       		.byte	0
 2790 01cc 22       		.uleb128 0x22
 2791 01cd 2E       		.uleb128 0x2e
 2792 01ce 01       		.byte	0x1
 2793 01cf 3F       		.uleb128 0x3f
 2794 01d0 19       		.uleb128 0x19
 2795 01d1 03       		.uleb128 0x3
 2796 01d2 0E       		.uleb128 0xe
 2797 01d3 3A       		.uleb128 0x3a
 2798 01d4 0B       		.uleb128 0xb
 2799 01d5 3B       		.uleb128 0x3b
 2800 01d6 0B       		.uleb128 0xb
 2801 01d7 27       		.uleb128 0x27
 2802 01d8 19       		.uleb128 0x19
 2803 01d9 11       		.uleb128 0x11
 2804 01da 01       		.uleb128 0x1
 2805 01db 12       		.uleb128 0x12
 2806 01dc 06       		.uleb128 0x6
 2807 01dd 40       		.uleb128 0x40
 2808 01de 18       		.uleb128 0x18
 2809 01df 9642     		.uleb128 0x2116
 2810 01e1 19       		.uleb128 0x19
 2811 01e2 01       		.uleb128 0x1
 2812 01e3 13       		.uleb128 0x13
 2813 01e4 00       		.byte	0
 2814 01e5 00       		.byte	0
 2815 01e6 23       		.uleb128 0x23
 2816 01e7 2E       		.uleb128 0x2e
 2817 01e8 01       		.byte	0x1
 2818 01e9 3F       		.uleb128 0x3f
 2819 01ea 19       		.uleb128 0x19
 2820 01eb 03       		.uleb128 0x3
 2821 01ec 0E       		.uleb128 0xe
 2822 01ed 3A       		.uleb128 0x3a
 2823 01ee 0B       		.uleb128 0xb
 2824 01ef 3B       		.uleb128 0x3b
 2825 01f0 0B       		.uleb128 0xb
 2826 01f1 27       		.uleb128 0x27
 2827 01f2 19       		.uleb128 0x19
 2828 01f3 49       		.uleb128 0x49
 2829 01f4 13       		.uleb128 0x13
 2830 01f5 11       		.uleb128 0x11
 2831 01f6 01       		.uleb128 0x1
 2832 01f7 12       		.uleb128 0x12
 2833 01f8 06       		.uleb128 0x6
 2834 01f9 40       		.uleb128 0x40
ARM GAS  /tmp/ccmGK4Zp.s 			page 51


 2835 01fa 18       		.uleb128 0x18
 2836 01fb 9642     		.uleb128 0x2116
 2837 01fd 19       		.uleb128 0x19
 2838 01fe 01       		.uleb128 0x1
 2839 01ff 13       		.uleb128 0x13
 2840 0200 00       		.byte	0
 2841 0201 00       		.byte	0
 2842 0202 24       		.uleb128 0x24
 2843 0203 05       		.uleb128 0x5
 2844 0204 00       		.byte	0
 2845 0205 03       		.uleb128 0x3
 2846 0206 0E       		.uleb128 0xe
 2847 0207 3A       		.uleb128 0x3a
 2848 0208 0B       		.uleb128 0xb
 2849 0209 3B       		.uleb128 0x3b
 2850 020a 0B       		.uleb128 0xb
 2851 020b 49       		.uleb128 0x49
 2852 020c 13       		.uleb128 0x13
 2853 020d 02       		.uleb128 0x2
 2854 020e 18       		.uleb128 0x18
 2855 020f 00       		.byte	0
 2856 0210 00       		.byte	0
 2857 0211 25       		.uleb128 0x25
 2858 0212 34       		.uleb128 0x34
 2859 0213 00       		.byte	0
 2860 0214 03       		.uleb128 0x3
 2861 0215 0E       		.uleb128 0xe
 2862 0216 3A       		.uleb128 0x3a
 2863 0217 0B       		.uleb128 0xb
 2864 0218 3B       		.uleb128 0x3b
 2865 0219 0B       		.uleb128 0xb
 2866 021a 49       		.uleb128 0x49
 2867 021b 13       		.uleb128 0x13
 2868 021c 02       		.uleb128 0x2
 2869 021d 18       		.uleb128 0x18
 2870 021e 00       		.byte	0
 2871 021f 00       		.byte	0
 2872 0220 26       		.uleb128 0x26
 2873 0221 2E       		.uleb128 0x2e
 2874 0222 01       		.byte	0x1
 2875 0223 3F       		.uleb128 0x3f
 2876 0224 19       		.uleb128 0x19
 2877 0225 03       		.uleb128 0x3
 2878 0226 0E       		.uleb128 0xe
 2879 0227 3A       		.uleb128 0x3a
 2880 0228 0B       		.uleb128 0xb
 2881 0229 3B       		.uleb128 0x3b
 2882 022a 05       		.uleb128 0x5
 2883 022b 27       		.uleb128 0x27
 2884 022c 19       		.uleb128 0x19
 2885 022d 49       		.uleb128 0x49
 2886 022e 13       		.uleb128 0x13
 2887 022f 11       		.uleb128 0x11
 2888 0230 01       		.uleb128 0x1
 2889 0231 12       		.uleb128 0x12
 2890 0232 06       		.uleb128 0x6
 2891 0233 40       		.uleb128 0x40
ARM GAS  /tmp/ccmGK4Zp.s 			page 52


 2892 0234 18       		.uleb128 0x18
 2893 0235 9642     		.uleb128 0x2116
 2894 0237 19       		.uleb128 0x19
 2895 0238 01       		.uleb128 0x1
 2896 0239 13       		.uleb128 0x13
 2897 023a 00       		.byte	0
 2898 023b 00       		.byte	0
 2899 023c 27       		.uleb128 0x27
 2900 023d 05       		.uleb128 0x5
 2901 023e 00       		.byte	0
 2902 023f 03       		.uleb128 0x3
 2903 0240 08       		.uleb128 0x8
 2904 0241 3A       		.uleb128 0x3a
 2905 0242 0B       		.uleb128 0xb
 2906 0243 3B       		.uleb128 0x3b
 2907 0244 05       		.uleb128 0x5
 2908 0245 49       		.uleb128 0x49
 2909 0246 13       		.uleb128 0x13
 2910 0247 02       		.uleb128 0x2
 2911 0248 18       		.uleb128 0x18
 2912 0249 00       		.byte	0
 2913 024a 00       		.byte	0
 2914 024b 28       		.uleb128 0x28
 2915 024c 05       		.uleb128 0x5
 2916 024d 00       		.byte	0
 2917 024e 03       		.uleb128 0x3
 2918 024f 0E       		.uleb128 0xe
 2919 0250 3A       		.uleb128 0x3a
 2920 0251 0B       		.uleb128 0xb
 2921 0252 3B       		.uleb128 0x3b
 2922 0253 05       		.uleb128 0x5
 2923 0254 49       		.uleb128 0x49
 2924 0255 13       		.uleb128 0x13
 2925 0256 02       		.uleb128 0x2
 2926 0257 18       		.uleb128 0x18
 2927 0258 00       		.byte	0
 2928 0259 00       		.byte	0
 2929 025a 29       		.uleb128 0x29
 2930 025b 34       		.uleb128 0x34
 2931 025c 00       		.byte	0
 2932 025d 03       		.uleb128 0x3
 2933 025e 0E       		.uleb128 0xe
 2934 025f 3A       		.uleb128 0x3a
 2935 0260 0B       		.uleb128 0xb
 2936 0261 3B       		.uleb128 0x3b
 2937 0262 05       		.uleb128 0x5
 2938 0263 49       		.uleb128 0x49
 2939 0264 13       		.uleb128 0x13
 2940 0265 02       		.uleb128 0x2
 2941 0266 18       		.uleb128 0x18
 2942 0267 00       		.byte	0
 2943 0268 00       		.byte	0
 2944 0269 2A       		.uleb128 0x2a
 2945 026a 34       		.uleb128 0x34
 2946 026b 00       		.byte	0
 2947 026c 03       		.uleb128 0x3
 2948 026d 0E       		.uleb128 0xe
ARM GAS  /tmp/ccmGK4Zp.s 			page 53


 2949 026e 3A       		.uleb128 0x3a
 2950 026f 0B       		.uleb128 0xb
 2951 0270 3B       		.uleb128 0x3b
 2952 0271 05       		.uleb128 0x5
 2953 0272 49       		.uleb128 0x49
 2954 0273 13       		.uleb128 0x13
 2955 0274 3F       		.uleb128 0x3f
 2956 0275 19       		.uleb128 0x19
 2957 0276 3C       		.uleb128 0x3c
 2958 0277 19       		.uleb128 0x19
 2959 0278 00       		.byte	0
 2960 0279 00       		.byte	0
 2961 027a 2B       		.uleb128 0x2b
 2962 027b 34       		.uleb128 0x34
 2963 027c 00       		.byte	0
 2964 027d 03       		.uleb128 0x3
 2965 027e 08       		.uleb128 0x8
 2966 027f 3A       		.uleb128 0x3a
 2967 0280 0B       		.uleb128 0xb
 2968 0281 3B       		.uleb128 0x3b
 2969 0282 05       		.uleb128 0x5
 2970 0283 49       		.uleb128 0x49
 2971 0284 13       		.uleb128 0x13
 2972 0285 3F       		.uleb128 0x3f
 2973 0286 19       		.uleb128 0x19
 2974 0287 3C       		.uleb128 0x3c
 2975 0288 19       		.uleb128 0x19
 2976 0289 00       		.byte	0
 2977 028a 00       		.byte	0
 2978 028b 00       		.byte	0
 2979              		.section	.debug_aranges,"",%progbits
 2980 0000 A4000000 		.4byte	0xa4
 2981 0004 0200     		.2byte	0x2
 2982 0006 00000000 		.4byte	.Ldebug_info0
 2983 000a 04       		.byte	0x4
 2984 000b 00       		.byte	0
 2985 000c 0000     		.2byte	0
 2986 000e 0000     		.2byte	0
 2987 0010 00000000 		.4byte	.LFB127
 2988 0014 10000000 		.4byte	.LFE127-.LFB127
 2989 0018 00000000 		.4byte	.LFB128
 2990 001c 10000000 		.4byte	.LFE128-.LFB128
 2991 0020 00000000 		.4byte	.LFB167
 2992 0024 08000000 		.4byte	.LFE167-.LFB167
 2993 0028 00000000 		.4byte	.LFB168
 2994 002c 08000000 		.4byte	.LFE168-.LFB168
 2995 0030 00000000 		.4byte	.LFB200
 2996 0034 12000000 		.4byte	.LFE200-.LFB200
 2997 0038 00000000 		.4byte	.LFB202
 2998 003c 0E000000 		.4byte	.LFE202-.LFB202
 2999 0040 00000000 		.4byte	.LFB240
 3000 0044 46000000 		.4byte	.LFE240-.LFB240
 3001 0048 00000000 		.4byte	.LFB241
 3002 004c 1E000000 		.4byte	.LFE241-.LFB241
 3003 0050 00000000 		.4byte	.LFB242
 3004 0054 44000000 		.4byte	.LFE242-.LFB242
 3005 0058 00000000 		.4byte	.LFB243
ARM GAS  /tmp/ccmGK4Zp.s 			page 54


 3006 005c 28000000 		.4byte	.LFE243-.LFB243
 3007 0060 00000000 		.4byte	.LFB244
 3008 0064 58000000 		.4byte	.LFE244-.LFB244
 3009 0068 00000000 		.4byte	.LFB245
 3010 006c 5E000000 		.4byte	.LFE245-.LFB245
 3011 0070 00000000 		.4byte	.LFB246
 3012 0074 28000000 		.4byte	.LFE246-.LFB246
 3013 0078 00000000 		.4byte	.LFB247
 3014 007c 5E000000 		.4byte	.LFE247-.LFB247
 3015 0080 00000000 		.4byte	.LFB248
 3016 0084 64000000 		.4byte	.LFE248-.LFB248
 3017 0088 00000000 		.4byte	.LFB249
 3018 008c 28000000 		.4byte	.LFE249-.LFB249
 3019 0090 00000000 		.4byte	.LFB250
 3020 0094 5A000000 		.4byte	.LFE250-.LFB250
 3021 0098 00000000 		.4byte	.LFB251
 3022 009c 60000000 		.4byte	.LFE251-.LFB251
 3023 00a0 00000000 		.4byte	0
 3024 00a4 00000000 		.4byte	0
 3025              		.section	.debug_ranges,"",%progbits
 3026              	.Ldebug_ranges0:
 3027 0000 00000000 		.4byte	.LFB127
 3028 0004 10000000 		.4byte	.LFE127
 3029 0008 00000000 		.4byte	.LFB128
 3030 000c 10000000 		.4byte	.LFE128
 3031 0010 00000000 		.4byte	.LFB167
 3032 0014 08000000 		.4byte	.LFE167
 3033 0018 00000000 		.4byte	.LFB168
 3034 001c 08000000 		.4byte	.LFE168
 3035 0020 00000000 		.4byte	.LFB200
 3036 0024 12000000 		.4byte	.LFE200
 3037 0028 00000000 		.4byte	.LFB202
 3038 002c 0E000000 		.4byte	.LFE202
 3039 0030 00000000 		.4byte	.LFB240
 3040 0034 46000000 		.4byte	.LFE240
 3041 0038 00000000 		.4byte	.LFB241
 3042 003c 1E000000 		.4byte	.LFE241
 3043 0040 00000000 		.4byte	.LFB242
 3044 0044 44000000 		.4byte	.LFE242
 3045 0048 00000000 		.4byte	.LFB243
 3046 004c 28000000 		.4byte	.LFE243
 3047 0050 00000000 		.4byte	.LFB244
 3048 0054 58000000 		.4byte	.LFE244
 3049 0058 00000000 		.4byte	.LFB245
 3050 005c 5E000000 		.4byte	.LFE245
 3051 0060 00000000 		.4byte	.LFB246
 3052 0064 28000000 		.4byte	.LFE246
 3053 0068 00000000 		.4byte	.LFB247
 3054 006c 5E000000 		.4byte	.LFE247
 3055 0070 00000000 		.4byte	.LFB248
 3056 0074 64000000 		.4byte	.LFE248
 3057 0078 00000000 		.4byte	.LFB249
 3058 007c 28000000 		.4byte	.LFE249
 3059 0080 00000000 		.4byte	.LFB250
 3060 0084 5A000000 		.4byte	.LFE250
 3061 0088 00000000 		.4byte	.LFB251
 3062 008c 60000000 		.4byte	.LFE251
ARM GAS  /tmp/ccmGK4Zp.s 			page 55


 3063 0090 00000000 		.4byte	0
 3064 0094 00000000 		.4byte	0
 3065              		.section	.debug_line,"",%progbits
 3066              	.Ldebug_line0:
 3067 0000 87030000 		.section	.debug_str,"MS",%progbits,1
 3067      0200C901 
 3067      00000201 
 3067      FB0E0D00 
 3067      01010101 
 3068              	.LASF50:
 3069 0000 72656164 		.ascii	"ready_list_t\000"
 3069      795F6C69 
 3069      73745F74 
 3069      00
 3070              	.LASF114:
 3071 000d 63684D42 		.ascii	"chMBObjectInit\000"
 3071      4F626A65 
 3071      6374496E 
 3071      697400
 3072              	.LASF88:
 3073 001c 77747472 		.ascii	"wttrp\000"
 3073      7000
 3074              	.LASF85:
 3075 0022 7264796D 		.ascii	"rdymsg\000"
 3075      736700
 3076              	.LASF16:
 3077 0029 75696E74 		.ascii	"uint64_t\000"
 3077      36345F74 
 3077      00
 3078              	.LASF5:
 3079 0032 5F5F7569 		.ascii	"__uint8_t\000"
 3079      6E74385F 
 3079      7400
 3080              	.LASF120:
 3081 003c 63684D42 		.ascii	"chMBPostI\000"
 3081      506F7374 
 3081      4900
 3082              	.LASF82:
 3083 0046 706F7274 		.ascii	"port_intctx\000"
 3083      5F696E74 
 3083      63747800 
 3084              	.LASF69:
 3085 0052 73797374 		.ascii	"system_debug_t\000"
 3085      656D5F64 
 3085      65627567 
 3085      5F7400
 3086              	.LASF77:
 3087 0061 69646C65 		.ascii	"idle_thread_wa\000"
 3087      5F746872 
 3087      6561645F 
 3087      776100
 3088              	.LASF109:
 3089 0070 706F7274 		.ascii	"port_lock\000"
 3089      5F6C6F63 
 3089      6B00
 3090              	.LASF123:
 3091 007a 63684D42 		.ascii	"chMBPostAheadI\000"
ARM GAS  /tmp/ccmGK4Zp.s 			page 56


 3091      506F7374 
 3091      41686561 
 3091      644900
 3092              	.LASF12:
 3093 0089 6C6F6E67 		.ascii	"long long unsigned int\000"
 3093      206C6F6E 
 3093      6720756E 
 3093      7369676E 
 3093      65642069 
 3094              	.LASF86:
 3095 00a0 65786974 		.ascii	"exitcode\000"
 3095      636F6465 
 3095      00
 3096              	.LASF122:
 3097 00a9 63684D42 		.ascii	"chMBPostAheadS\000"
 3097      506F7374 
 3097      41686561 
 3097      645300
 3098              	.LASF66:
 3099 00b8 76697274 		.ascii	"virtual_timers_list_t\000"
 3099      75616C5F 
 3099      74696D65 
 3099      72735F6C 
 3099      6973745F 
 3100              	.LASF104:
 3101 00ce 6D625F77 		.ascii	"mb_wrptr\000"
 3101      72707472 
 3101      00
 3102              	.LASF49:
 3103 00d7 63685F74 		.ascii	"ch_threads_queue\000"
 3103      68726561 
 3103      64735F71 
 3103      75657565 
 3103      00
 3104              	.LASF29:
 3105 00e8 705F7072 		.ascii	"p_prio\000"
 3105      696F00
 3106              	.LASF4:
 3107 00ef 73686F72 		.ascii	"short unsigned int\000"
 3107      7420756E 
 3107      7369676E 
 3107      65642069 
 3107      6E7400
 3108              	.LASF10:
 3109 0102 6C6F6E67 		.ascii	"long long int\000"
 3109      206C6F6E 
 3109      6720696E 
 3109      7400
 3110              	.LASF1:
 3111 0110 7369676E 		.ascii	"signed char\000"
 3111      65642063 
 3111      68617200 
 3112              	.LASF43:
 3113 011c 705F6D70 		.ascii	"p_mpool\000"
 3113      6F6F6C00 
 3114              	.LASF96:
 3115 0124 6D5F7175 		.ascii	"m_queue\000"
ARM GAS  /tmp/ccmGK4Zp.s 			page 57


 3115      65756500 
 3116              	.LASF75:
 3117 012c 76746C69 		.ascii	"vtlist\000"
 3117      737400
 3118              	.LASF110:
 3119 0133 706F7274 		.ascii	"port_unlock\000"
 3119      5F756E6C 
 3119      6F636B00 
 3120              	.LASF73:
 3121 013f 63685F73 		.ascii	"ch_system\000"
 3121      79737465 
 3121      6D00
 3122              	.LASF7:
 3123 0149 6C6F6E67 		.ascii	"long int\000"
 3123      20696E74 
 3123      00
 3124              	.LASF19:
 3125 0152 74737461 		.ascii	"tstate_t\000"
 3125      74655F74 
 3125      00
 3126              	.LASF129:
 3127 015b 474E5520 		.ascii	"GNU C 4.8.4 20141219 (release) -mcpu=cortex-m4 -mno"
 3127      4320342E 
 3127      382E3420 
 3127      32303134 
 3127      31323139 
 3128 018e 2D746875 		.ascii	"-thumb-interwork -mthumb -ggdb -O0 -fomit-frame-poi"
 3128      6D622D69 
 3128      6E746572 
 3128      776F726B 
 3128      202D6D74 
 3129 01c1 6E746572 		.ascii	"nter -falign-functions=16 -ffunction-sections -fdat"
 3129      202D6661 
 3129      6C69676E 
 3129      2D66756E 
 3129      6374696F 
 3130 01f4 612D7365 		.ascii	"a-sections -fno-common\000"
 3130      6374696F 
 3130      6E73202D 
 3130      666E6F2D 
 3130      636F6D6D 
 3131              	.LASF31:
 3132 020b 705F6E65 		.ascii	"p_newer\000"
 3132      77657200 
 3133              	.LASF93:
 3134 0213 735F7175 		.ascii	"s_queue\000"
 3134      65756500 
 3135              	.LASF105:
 3136 021b 6D625F72 		.ascii	"mb_rdptr\000"
 3136      64707472 
 3136      00
 3137              	.LASF79:
 3138 0224 72656761 		.ascii	"regarm_t\000"
 3138      726D5F74 
 3138      00
 3139              	.LASF62:
 3140 022d 76745F70 		.ascii	"vt_prev\000"
ARM GAS  /tmp/ccmGK4Zp.s 			page 58


 3140      72657600 
 3141              	.LASF101:
 3142 0235 6D757465 		.ascii	"mutex_t\000"
 3142      785F7400 
 3143              	.LASF132:
 3144 023d 76616C75 		.ascii	"value\000"
 3144      6500
 3145              	.LASF8:
 3146 0243 5F5F7569 		.ascii	"__uint32_t\000"
 3146      6E743332 
 3146      5F7400
 3147              	.LASF24:
 3148 024e 636E745F 		.ascii	"cnt_t\000"
 3148      7400
 3149              	.LASF0:
 3150 0254 756E7369 		.ascii	"unsigned int\000"
 3150      676E6564 
 3150      20696E74 
 3150      00
 3151              	.LASF61:
 3152 0261 76745F6E 		.ascii	"vt_next\000"
 3152      65787400 
 3153              	.LASF89:
 3154 0269 77747365 		.ascii	"wtsemp\000"
 3154      6D7000
 3155              	.LASF38:
 3156 0270 705F6D73 		.ascii	"p_msgqueue\000"
 3156      67717565 
 3156      756500
 3157              	.LASF117:
 3158 027b 74696D65 		.ascii	"timeout\000"
 3158      6F757400 
 3159              	.LASF107:
 3160 0283 6D625F65 		.ascii	"mb_emptysem\000"
 3160      6D707479 
 3160      73656D00 
 3161              	.LASF94:
 3162 028f 735F636E 		.ascii	"s_cnt\000"
 3162      7400
 3163              	.LASF116:
 3164 0295 63684D42 		.ascii	"chMBResetI\000"
 3164      52657365 
 3164      744900
 3165              	.LASF46:
 3166 02a0 63685F74 		.ascii	"ch_thread\000"
 3166      68726561 
 3166      6400
 3167              	.LASF76:
 3168 02aa 6D61696E 		.ascii	"mainthread\000"
 3168      74687265 
 3168      616400
 3169              	.LASF127:
 3170 02b5 63684D42 		.ascii	"chMBFetchI\000"
 3170      46657463 
 3170      684900
 3171              	.LASF22:
 3172 02c0 6D73675F 		.ascii	"msg_t\000"
ARM GAS  /tmp/ccmGK4Zp.s 			page 59


 3172      7400
 3173              	.LASF55:
 3174 02c6 725F6E65 		.ascii	"r_newer\000"
 3174      77657200 
 3175              	.LASF72:
 3176 02ce 63685F73 		.ascii	"ch_system_t\000"
 3176      79737465 
 3176      6D5F7400 
 3177              	.LASF126:
 3178 02da 63684D42 		.ascii	"chMBFetchS\000"
 3178      46657463 
 3178      685300
 3179              	.LASF18:
 3180 02e5 746D6F64 		.ascii	"tmode_t\000"
 3180      655F7400 
 3181              	.LASF51:
 3182 02ed 63685F72 		.ascii	"ch_ready_list\000"
 3182      65616479 
 3182      5F6C6973 
 3182      7400
 3183              	.LASF23:
 3184 02fb 6576656E 		.ascii	"eventmask_t\000"
 3184      746D6173 
 3184      6B5F7400 
 3185              	.LASF6:
 3186 0307 5F5F696E 		.ascii	"__int32_t\000"
 3186      7433325F 
 3186      7400
 3187              	.LASF125:
 3188 0311 6D736770 		.ascii	"msgp\000"
 3188      00
 3189              	.LASF80:
 3190 0316 73746B61 		.ascii	"stkalign_t\000"
 3190      6C69676E 
 3190      5F7400
 3191              	.LASF37:
 3192 0321 705F7761 		.ascii	"p_waiting\000"
 3192      6974696E 
 3192      6700
 3193              	.LASF78:
 3194 032b 73697A65 		.ascii	"sizetype\000"
 3194      74797065 
 3194      00
 3195              	.LASF44:
 3196 0334 74687265 		.ascii	"thread_reference_t\000"
 3196      61645F72 
 3196      65666572 
 3196      656E6365 
 3196      5F7400
 3197              	.LASF67:
 3198 0347 63685F76 		.ascii	"ch_virtual_timers_list\000"
 3198      69727475 
 3198      616C5F74 
 3198      696D6572 
 3198      735F6C69 
 3199              	.LASF124:
 3200 035e 63684D42 		.ascii	"chMBFetch\000"
ARM GAS  /tmp/ccmGK4Zp.s 			page 60


 3200      46657463 
 3200      6800
 3201              	.LASF115:
 3202 0368 63684D42 		.ascii	"chMBReset\000"
 3202      52657365 
 3202      7400
 3203              	.LASF68:
 3204 0372 76745F6C 		.ascii	"vt_lasttime\000"
 3204      61737474 
 3204      696D6500 
 3205              	.LASF32:
 3206 037e 705F6F6C 		.ascii	"p_older\000"
 3206      64657200 
 3207              	.LASF54:
 3208 0386 725F6374 		.ascii	"r_ctx\000"
 3208      7800
 3209              	.LASF108:
 3210 038c 6D61696C 		.ascii	"mailbox_t\000"
 3210      626F785F 
 3210      7400
 3211              	.LASF84:
 3212 0396 746D5F63 		.ascii	"tm_calibration_t\000"
 3212      616C6962 
 3212      72617469 
 3212      6F6E5F74 
 3212      00
 3213              	.LASF102:
 3214 03a7 6D625F62 		.ascii	"mb_buffer\000"
 3214      75666665 
 3214      7200
 3215              	.LASF57:
 3216 03b1 725F6375 		.ascii	"r_current\000"
 3216      7272656E 
 3216      7400
 3217              	.LASF56:
 3218 03bb 725F6F6C 		.ascii	"r_older\000"
 3218      64657200 
 3219              	.LASF11:
 3220 03c3 5F5F7569 		.ascii	"__uint64_t\000"
 3220      6E743634 
 3220      5F7400
 3221              	.LASF20:
 3222 03ce 74726566 		.ascii	"trefs_t\000"
 3222      735F7400 
 3223              	.LASF59:
 3224 03d6 76697274 		.ascii	"virtual_timer_t\000"
 3224      75616C5F 
 3224      74696D65 
 3224      725F7400 
 3225              	.LASF28:
 3226 03e6 705F7072 		.ascii	"p_prev\000"
 3226      657600
 3227              	.LASF21:
 3228 03ed 74707269 		.ascii	"tprio_t\000"
 3228      6F5F7400 
 3229              	.LASF130:
 3230 03f5 2F686F6D 		.ascii	"/home/efe/ChibiOS/os/rt/src/chmboxes.c\000"
ARM GAS  /tmp/ccmGK4Zp.s 			page 61


 3230      652F6566 
 3230      652F4368 
 3230      6962694F 
 3230      532F6F73 
 3231              	.LASF70:
 3232 041c 63685F73 		.ascii	"ch_system_debug\000"
 3232      79737465 
 3232      6D5F6465 
 3232      62756700 
 3233              	.LASF14:
 3234 042c 696E7433 		.ascii	"int32_t\000"
 3234      325F7400 
 3235              	.LASF2:
 3236 0434 756E7369 		.ascii	"unsigned char\000"
 3236      676E6564 
 3236      20636861 
 3236      7200
 3237              	.LASF103:
 3238 0442 6D625F74 		.ascii	"mb_top\000"
 3238      6F7000
 3239              	.LASF128:
 3240 0449 49544D5F 		.ascii	"ITM_RxBuffer\000"
 3240      52784275 
 3240      66666572 
 3240      00
 3241              	.LASF41:
 3242 0456 705F6D74 		.ascii	"p_mtxlist\000"
 3242      786C6973 
 3242      7400
 3243              	.LASF3:
 3244 0460 73686F72 		.ascii	"short int\000"
 3244      7420696E 
 3244      7400
 3245              	.LASF34:
 3246 046a 705F7374 		.ascii	"p_state\000"
 3246      61746500 
 3247              	.LASF53:
 3248 0472 725F7072 		.ascii	"r_prio\000"
 3248      696F00
 3249              	.LASF91:
 3250 0479 65776D61 		.ascii	"ewmask\000"
 3250      736B00
 3251              	.LASF27:
 3252 0480 705F6E65 		.ascii	"p_next\000"
 3252      787400
 3253              	.LASF35:
 3254 0487 705F666C 		.ascii	"p_flags\000"
 3254      61677300 
 3255              	.LASF113:
 3256 048f 5F5F6675 		.ascii	"__func__\000"
 3256      6E635F5F 
 3256      00
 3257              	.LASF118:
 3258 0498 63684D42 		.ascii	"chMBPost\000"
 3258      506F7374 
 3258      00
 3259              	.LASF133:
ARM GAS  /tmp/ccmGK4Zp.s 			page 62


 3260 04a1 63685379 		.ascii	"chSysLock\000"
 3260      734C6F63 
 3260      6B00
 3261              	.LASF100:
 3262 04ab 73656D61 		.ascii	"semaphore_t\000"
 3262      70686F72 
 3262      655F7400 
 3263              	.LASF60:
 3264 04b7 63685F76 		.ascii	"ch_virtual_timer\000"
 3264      69727475 
 3264      616C5F74 
 3264      696D6572 
 3264      00
 3265              	.LASF92:
 3266 04c8 63685F73 		.ascii	"ch_semaphore\000"
 3266      656D6170 
 3266      686F7265 
 3266      00
 3267              	.LASF40:
 3268 04d5 705F6570 		.ascii	"p_epending\000"
 3268      656E6469 
 3268      6E6700
 3269              	.LASF15:
 3270 04e0 75696E74 		.ascii	"uint32_t\000"
 3270      33325F74 
 3270      00
 3271              	.LASF90:
 3272 04e9 77746D74 		.ascii	"wtmtxp\000"
 3272      787000
 3273              	.LASF52:
 3274 04f0 725F7175 		.ascii	"r_queue\000"
 3274      65756500 
 3275              	.LASF63:
 3276 04f8 76745F64 		.ascii	"vt_delta\000"
 3276      656C7461 
 3276      00
 3277              	.LASF47:
 3278 0501 63685F74 		.ascii	"ch_threads_list\000"
 3278      68726561 
 3278      64735F6C 
 3278      69737400 
 3279              	.LASF9:
 3280 0511 6C6F6E67 		.ascii	"long unsigned int\000"
 3280      20756E73 
 3280      69676E65 
 3280      6420696E 
 3280      7400
 3281              	.LASF99:
 3282 0523 63686172 		.ascii	"char\000"
 3282      00
 3283              	.LASF26:
 3284 0528 74687265 		.ascii	"thread_t\000"
 3284      61645F74 
 3284      00
 3285              	.LASF98:
 3286 0531 6D5F6E65 		.ascii	"m_next\000"
 3286      787400
ARM GAS  /tmp/ccmGK4Zp.s 			page 63


 3287              	.LASF25:
 3288 0538 73797374 		.ascii	"systime_t\000"
 3288      696D655F 
 3288      7400
 3289              	.LASF42:
 3290 0542 705F7265 		.ascii	"p_realprio\000"
 3290      616C7072 
 3290      696F00
 3291              	.LASF58:
 3292 054d 76746675 		.ascii	"vtfunc_t\000"
 3292      6E635F74 
 3292      00
 3293              	.LASF134:
 3294 0556 63685365 		.ascii	"chSemGetCounterI\000"
 3294      6D476574 
 3294      436F756E 
 3294      74657249 
 3294      00
 3295              	.LASF131:
 3296 0567 5F5F7365 		.ascii	"__set_BASEPRI\000"
 3296      745F4241 
 3296      53455052 
 3296      4900
 3297              	.LASF71:
 3298 0575 70616E69 		.ascii	"panic_msg\000"
 3298      635F6D73 
 3298      6700
 3299              	.LASF83:
 3300 057f 6F666673 		.ascii	"offset\000"
 3300      657400
 3301              	.LASF81:
 3302 0586 636F6E74 		.ascii	"context\000"
 3302      65787400 
 3303              	.LASF121:
 3304 058e 63684D42 		.ascii	"chMBPostAhead\000"
 3304      506F7374 
 3304      41686561 
 3304      6400
 3305              	.LASF17:
 3306 059c 7274636E 		.ascii	"rtcnt_t\000"
 3306      745F7400 
 3307              	.LASF65:
 3308 05a4 76745F70 		.ascii	"vt_par\000"
 3308      617200
 3309              	.LASF112:
 3310 05ab 63685365 		.ascii	"chSemFastWaitI\000"
 3310      6D466173 
 3310      74576169 
 3310      744900
 3311              	.LASF106:
 3312 05ba 6D625F66 		.ascii	"mb_fullsem\000"
 3312      756C6C73 
 3312      656D00
 3313              	.LASF48:
 3314 05c5 74687265 		.ascii	"threads_queue_t\000"
 3314      6164735F 
 3314      71756575 
ARM GAS  /tmp/ccmGK4Zp.s 			page 64


 3314      655F7400 
 3315              	.LASF95:
 3316 05d5 63685F6D 		.ascii	"ch_mutex\000"
 3316      75746578 
 3316      00
 3317              	.LASF36:
 3318 05de 705F7265 		.ascii	"p_refs\000"
 3318      667300
 3319              	.LASF74:
 3320 05e5 726C6973 		.ascii	"rlist\000"
 3320      7400
 3321              	.LASF13:
 3322 05eb 75696E74 		.ascii	"uint8_t\000"
 3322      385F7400 
 3323              	.LASF87:
 3324 05f3 77746F62 		.ascii	"wtobjp\000"
 3324      6A7000
 3325              	.LASF33:
 3326 05fa 705F6E61 		.ascii	"p_name\000"
 3326      6D6500
 3327              	.LASF45:
 3328 0601 74687265 		.ascii	"threads_list_t\000"
 3328      6164735F 
 3328      6C697374 
 3328      5F7400
 3329              	.LASF111:
 3330 0610 63685379 		.ascii	"chSysUnlock\000"
 3330      73556E6C 
 3330      6F636B00 
 3331              	.LASF39:
 3332 061c 705F6D73 		.ascii	"p_msg\000"
 3332      6700
 3333              	.LASF119:
 3334 0622 63684D42 		.ascii	"chMBPostS\000"
 3334      506F7374 
 3334      5300
 3335              	.LASF97:
 3336 062c 6D5F6F77 		.ascii	"m_owner\000"
 3336      6E657200 
 3337              	.LASF30:
 3338 0634 705F6374 		.ascii	"p_ctx\000"
 3338      7800
 3339              	.LASF64:
 3340 063a 76745F66 		.ascii	"vt_func\000"
 3340      756E6300 
 3341              		.ident	"GCC: (4.8.4-1+11-1) 4.8.4 20141219 (release)"
ARM GAS  /tmp/ccmGK4Zp.s 			page 65


DEFINED SYMBOLS
                            *ABS*:0000000000000000 chmboxes.c
     /tmp/ccmGK4Zp.s:19     .text.port_lock:0000000000000000 $t
     /tmp/ccmGK4Zp.s:24     .text.port_lock:0000000000000000 port_lock
     /tmp/ccmGK4Zp.s:55     .text.port_unlock:0000000000000000 $t
     /tmp/ccmGK4Zp.s:60     .text.port_unlock:0000000000000000 port_unlock
     /tmp/ccmGK4Zp.s:89     .text.chSysLock:0000000000000000 $t
     /tmp/ccmGK4Zp.s:94     .text.chSysLock:0000000000000000 chSysLock
     /tmp/ccmGK4Zp.s:113    .text.chSysUnlock:0000000000000000 $t
     /tmp/ccmGK4Zp.s:118    .text.chSysUnlock:0000000000000000 chSysUnlock
     /tmp/ccmGK4Zp.s:136    .text.chSemFastWaitI:0000000000000000 $t
     /tmp/ccmGK4Zp.s:141    .text.chSemFastWaitI:0000000000000000 chSemFastWaitI
     /tmp/ccmGK4Zp.s:166    .text.chSemGetCounterI:0000000000000000 $t
     /tmp/ccmGK4Zp.s:171    .text.chSemGetCounterI:0000000000000000 chSemGetCounterI
     /tmp/ccmGK4Zp.s:193    .text.chMBObjectInit:0000000000000000 $t
     /tmp/ccmGK4Zp.s:199    .text.chMBObjectInit:0000000000000000 chMBObjectInit
     /tmp/ccmGK4Zp.s:253    .text.chMBReset:0000000000000000 $t
     /tmp/ccmGK4Zp.s:259    .text.chMBReset:0000000000000000 chMBReset
     /tmp/ccmGK4Zp.s:294    .text.chMBResetI:0000000000000000 chMBResetI
     /tmp/ccmGK4Zp.s:288    .text.chMBResetI:0000000000000000 $t
     /tmp/ccmGK4Zp.s:343    .text.chMBPost:0000000000000000 $t
     /tmp/ccmGK4Zp.s:349    .text.chMBPost:0000000000000000 chMBPost
     /tmp/ccmGK4Zp.s:390    .text.chMBPostS:0000000000000000 chMBPostS
     /tmp/ccmGK4Zp.s:384    .text.chMBPostS:0000000000000000 $t
     /tmp/ccmGK4Zp.s:455    .text.chMBPostI:0000000000000000 $t
     /tmp/ccmGK4Zp.s:461    .text.chMBPostI:0000000000000000 chMBPostI
     /tmp/ccmGK4Zp.s:529    .text.chMBPostAhead:0000000000000000 $t
     /tmp/ccmGK4Zp.s:535    .text.chMBPostAhead:0000000000000000 chMBPostAhead
     /tmp/ccmGK4Zp.s:576    .text.chMBPostAheadS:0000000000000000 chMBPostAheadS
     /tmp/ccmGK4Zp.s:570    .text.chMBPostAheadS:0000000000000000 $t
     /tmp/ccmGK4Zp.s:644    .text.chMBPostAheadI:0000000000000000 $t
     /tmp/ccmGK4Zp.s:650    .text.chMBPostAheadI:0000000000000000 chMBPostAheadI
     /tmp/ccmGK4Zp.s:721    .text.chMBFetch:0000000000000000 $t
     /tmp/ccmGK4Zp.s:727    .text.chMBFetch:0000000000000000 chMBFetch
     /tmp/ccmGK4Zp.s:768    .text.chMBFetchS:0000000000000000 chMBFetchS
     /tmp/ccmGK4Zp.s:762    .text.chMBFetchS:0000000000000000 $t
     /tmp/ccmGK4Zp.s:834    .text.chMBFetchI:0000000000000000 $t
     /tmp/ccmGK4Zp.s:840    .text.chMBFetchI:0000000000000000 chMBFetchI
                     .debug_frame:0000000000000010 $d

UNDEFINED SYMBOLS
chSemObjectInit
chSchRescheduleS
chSemResetI
chSemWaitTimeoutS
chSemSignalI
