ARM GAS  /tmp/ccqADvaA.s 			page 1


   1              		.syntax unified
   2              		.cpu cortex-m4
   3              		.fpu softvfp
   4              		.eabi_attribute 20, 1
   5              		.eabi_attribute 21, 1
   6              		.eabi_attribute 23, 3
   7              		.eabi_attribute 24, 1
   8              		.eabi_attribute 25, 1
   9              		.eabi_attribute 26, 1
  10              		.eabi_attribute 30, 6
  11              		.eabi_attribute 34, 1
  12              		.eabi_attribute 18, 4
  13              		.thumb
  14              		.file	"chmemcore.c"
  15              		.text
  16              	.Ltext0:
  17              		.cfi_sections	.debug_frame
  18              		.section	.text.port_lock,"ax",%progbits
  19              		.align	2
  20              		.p2align 4,,15
  21              		.thumb
  22              		.thumb_func
  23              		.type	port_lock, %function
  24              	port_lock:
  25              	.LFB127:
  26              		.file 1 "/home/efe/ChibiOS/os/rt/ports/ARMCMx/chcore_v7m.h"
  27              		.loc 1 456 0
  28              		.cfi_startproc
  29              		@ args = 0, pretend = 0, frame = 8
  30              		@ frame_needed = 0, uses_anonymous_args = 0
  31              		@ link register save eliminated.
  32 0000 82B0     		sub	sp, sp, #8
  33              		.cfi_def_cfa_offset 8
  34 0002 2023     		movs	r3, #32
  35 0004 0193     		str	r3, [sp, #4]
  36              	.LBB6:
  37              	.LBB7:
  38              		.file 2 "/home/efe/ChibiOS/os/ext/CMSIS/include/core_cmFunc.h"
  39              		.loc 2 548 0
  40 0006 019B     		ldr	r3, [sp, #4]
  41              	@ 548 "/home/efe/ChibiOS/os/ext/CMSIS/include/core_cmFunc.h" 1
  42 0008 83F31188 		MSR basepri, r3
  43              	@ 0 "" 2
  44              		.thumb
  45              	.LBE7:
  46              	.LBE6:
  47              		.loc 1 463 0
  48 000c 02B0     		add	sp, sp, #8
  49              		@ sp needed
  50 000e 7047     		bx	lr
  51              		.cfi_endproc
  52              	.LFE127:
  53              		.size	port_lock, .-port_lock
  54              		.section	.text.port_unlock,"ax",%progbits
  55              		.align	2
  56              		.p2align 4,,15
  57              		.thumb
ARM GAS  /tmp/ccqADvaA.s 			page 2


  58              		.thumb_func
  59              		.type	port_unlock, %function
  60              	port_unlock:
  61              	.LFB128:
  62              		.loc 1 470 0
  63              		.cfi_startproc
  64              		@ args = 0, pretend = 0, frame = 8
  65              		@ frame_needed = 0, uses_anonymous_args = 0
  66              		@ link register save eliminated.
  67 0000 82B0     		sub	sp, sp, #8
  68              		.cfi_def_cfa_offset 8
  69 0002 0023     		movs	r3, #0
  70 0004 0193     		str	r3, [sp, #4]
  71              	.LBB8:
  72              	.LBB9:
  73              		.loc 2 548 0
  74 0006 019B     		ldr	r3, [sp, #4]
  75              	@ 548 "/home/efe/ChibiOS/os/ext/CMSIS/include/core_cmFunc.h" 1
  76 0008 83F31188 		MSR basepri, r3
  77              	@ 0 "" 2
  78              		.thumb
  79              	.LBE9:
  80              	.LBE8:
  81              		.loc 1 477 0
  82 000c 02B0     		add	sp, sp, #8
  83              		@ sp needed
  84 000e 7047     		bx	lr
  85              		.cfi_endproc
  86              	.LFE128:
  87              		.size	port_unlock, .-port_unlock
  88              		.section	.text.chSysLock,"ax",%progbits
  89              		.align	2
  90              		.p2align 4,,15
  91              		.thumb
  92              		.thumb_func
  93              		.type	chSysLock, %function
  94              	chSysLock:
  95              	.LFB167:
  96              		.file 3 "/home/efe/ChibiOS/os/rt/include/chsys.h"
  97              		.loc 3 346 0
  98              		.cfi_startproc
  99              		@ args = 0, pretend = 0, frame = 0
 100              		@ frame_needed = 0, uses_anonymous_args = 0
 101 0000 08B5     		push	{r3, lr}
 102              		.cfi_def_cfa_offset 8
 103              		.cfi_offset 3, -8
 104              		.cfi_offset 14, -4
 105              		.loc 3 348 0
 106 0002 FFF7FEFF 		bl	port_lock
 107              		.loc 3 351 0
 108 0006 08BD     		pop	{r3, pc}
 109              		.cfi_endproc
 110              	.LFE167:
 111              		.size	chSysLock, .-chSysLock
 112 0008 AFF30080 		.section	.text.chSysUnlock,"ax",%progbits
 112      AFF30080 
 113              		.align	2
ARM GAS  /tmp/ccqADvaA.s 			page 3


 114              		.p2align 4,,15
 115              		.thumb
 116              		.thumb_func
 117              		.type	chSysUnlock, %function
 118              	chSysUnlock:
 119              	.LFB168:
 120              		.loc 3 358 0
 121              		.cfi_startproc
 122              		@ args = 0, pretend = 0, frame = 0
 123              		@ frame_needed = 0, uses_anonymous_args = 0
 124 0000 08B5     		push	{r3, lr}
 125              		.cfi_def_cfa_offset 8
 126              		.cfi_offset 3, -8
 127              		.cfi_offset 14, -4
 128              		.loc 3 371 0
 129 0002 FFF7FEFF 		bl	port_unlock
 130              		.loc 3 372 0
 131 0006 08BD     		pop	{r3, pc}
 132              		.cfi_endproc
 133              	.LFE168:
 134              		.size	chSysUnlock, .-chSysUnlock
 135 0008 AFF30080 		.section	.bss.nextmem,"aw",%nobits
 135      AFF30080 
 136              		.align	2
 137              		.type	nextmem, %object
 138              		.size	nextmem, 4
 139              	nextmem:
 140 0000 00000000 		.space	4
 141              		.section	.bss.endmem,"aw",%nobits
 142              		.align	2
 143              		.type	endmem, %object
 144              		.size	endmem, 4
 145              	endmem:
 146 0000 00000000 		.space	4
 147              		.section	.text._core_init,"ax",%progbits
 148              		.align	2
 149              		.p2align 4,,15
 150              		.global	_core_init
 151              		.thumb
 152              		.thumb_func
 153              		.type	_core_init, %function
 154              	_core_init:
 155              	.LFB240:
 156              		.file 4 "/home/efe/ChibiOS/os/rt/src/chmemcore.c"
 157              		.loc 4 78 0
 158              		.cfi_startproc
 159              		@ args = 0, pretend = 0, frame = 0
 160              		@ frame_needed = 0, uses_anonymous_args = 0
 161              		@ link register save eliminated.
 162              		.loc 4 84 0
 163 0000 064B     		ldr	r3, .L6
 164 0002 0733     		adds	r3, r3, #7
 165 0004 23F00703 		bic	r3, r3, #7
 166 0008 1A46     		mov	r2, r3
 167 000a 054B     		ldr	r3, .L6+4
 168 000c 1A60     		str	r2, [r3]
 169              		.loc 4 85 0
ARM GAS  /tmp/ccqADvaA.s 			page 4


 170 000e 054B     		ldr	r3, .L6+8
 171 0010 23F00703 		bic	r3, r3, #7
 172 0014 1A46     		mov	r2, r3
 173 0016 044B     		ldr	r3, .L6+12
 174 0018 1A60     		str	r2, [r3]
 175              		.loc 4 95 0
 176 001a 7047     		bx	lr
 177              	.L7:
 178              		.align	2
 179              	.L6:
 180 001c 00000000 		.word	__heap_base__
 181 0020 00000000 		.word	nextmem
 182 0024 00000000 		.word	__heap_end__
 183 0028 00000000 		.word	endmem
 184              		.cfi_endproc
 185              	.LFE240:
 186              		.size	_core_init, .-_core_init
 187 002c AFF30080 		.section	.text.chCoreAlloc,"ax",%progbits
 188              		.align	2
 189              		.p2align 4,,15
 190              		.global	chCoreAlloc
 191              		.thumb
 192              		.thumb_func
 193              		.type	chCoreAlloc, %function
 194              	chCoreAlloc:
 195              	.LFB241:
 196              		.loc 4 109 0
 197              		.cfi_startproc
 198              		@ args = 0, pretend = 0, frame = 16
 199              		@ frame_needed = 0, uses_anonymous_args = 0
 200 0000 00B5     		push	{lr}
 201              		.cfi_def_cfa_offset 4
 202              		.cfi_offset 14, -4
 203 0002 85B0     		sub	sp, sp, #20
 204              		.cfi_def_cfa_offset 24
 205 0004 0190     		str	r0, [sp, #4]
 206              		.loc 4 112 0
 207 0006 FFF7FEFF 		bl	chSysLock
 208              		.loc 4 113 0
 209 000a 0198     		ldr	r0, [sp, #4]
 210 000c FFF7FEFF 		bl	chCoreAllocI
 211 0010 0390     		str	r0, [sp, #12]
 212              		.loc 4 114 0
 213 0012 FFF7FEFF 		bl	chSysUnlock
 214              		.loc 4 116 0
 215 0016 039B     		ldr	r3, [sp, #12]
 216              		.loc 4 117 0
 217 0018 1846     		mov	r0, r3
 218 001a 05B0     		add	sp, sp, #20
 219              		@ sp needed
 220 001c 5DF804FB 		ldr	pc, [sp], #4
 221              		.cfi_endproc
 222              	.LFE241:
 223              		.size	chCoreAlloc, .-chCoreAlloc
 224              		.section	.text.chCoreAllocI,"ax",%progbits
 225              		.align	2
 226              		.p2align 4,,15
ARM GAS  /tmp/ccqADvaA.s 			page 5


 227              		.global	chCoreAllocI
 228              		.thumb
 229              		.thumb_func
 230              		.type	chCoreAllocI, %function
 231              	chCoreAllocI:
 232              	.LFB242:
 233              		.loc 4 131 0
 234              		.cfi_startproc
 235              		@ args = 0, pretend = 0, frame = 16
 236              		@ frame_needed = 0, uses_anonymous_args = 0
 237              		@ link register save eliminated.
 238 0000 84B0     		sub	sp, sp, #16
 239              		.cfi_def_cfa_offset 16
 240 0002 0190     		str	r0, [sp, #4]
 241              		.loc 4 136 0
 242 0004 019B     		ldr	r3, [sp, #4]
 243 0006 0733     		adds	r3, r3, #7
 244 0008 23F00703 		bic	r3, r3, #7
 245 000c 0193     		str	r3, [sp, #4]
 246              		.loc 4 138 0
 247 000e 0C4B     		ldr	r3, .L13
 248 0010 1B68     		ldr	r3, [r3]
 249 0012 1A46     		mov	r2, r3
 250 0014 0B4B     		ldr	r3, .L13+4
 251 0016 1B68     		ldr	r3, [r3]
 252 0018 D31A     		subs	r3, r2, r3
 253 001a 1A46     		mov	r2, r3
 254 001c 019B     		ldr	r3, [sp, #4]
 255 001e 9A42     		cmp	r2, r3
 256 0020 01D2     		bcs	.L11
 257              		.loc 4 140 0
 258 0022 0023     		movs	r3, #0
 259 0024 09E0     		b	.L12
 260              	.L11:
 261              		.loc 4 142 0
 262 0026 074B     		ldr	r3, .L13+4
 263 0028 1B68     		ldr	r3, [r3]
 264 002a 0393     		str	r3, [sp, #12]
 265              		.loc 4 143 0
 266 002c 054B     		ldr	r3, .L13+4
 267 002e 1A68     		ldr	r2, [r3]
 268 0030 019B     		ldr	r3, [sp, #4]
 269 0032 1A44     		add	r2, r2, r3
 270 0034 034B     		ldr	r3, .L13+4
 271 0036 1A60     		str	r2, [r3]
 272              		.loc 4 145 0
 273 0038 039B     		ldr	r3, [sp, #12]
 274              	.L12:
 275              		.loc 4 146 0
 276 003a 1846     		mov	r0, r3
 277 003c 04B0     		add	sp, sp, #16
 278              		@ sp needed
 279 003e 7047     		bx	lr
 280              	.L14:
 281              		.align	2
 282              	.L13:
 283 0040 00000000 		.word	endmem
ARM GAS  /tmp/ccqADvaA.s 			page 6


 284 0044 00000000 		.word	nextmem
 285              		.cfi_endproc
 286              	.LFE242:
 287              		.size	chCoreAllocI, .-chCoreAllocI
 288 0048 AFF30080 		.section	.text.chCoreGetStatusX,"ax",%progbits
 288      AFF30080 
 289              		.align	2
 290              		.p2align 4,,15
 291              		.global	chCoreGetStatusX
 292              		.thumb
 293              		.thumb_func
 294              		.type	chCoreGetStatusX, %function
 295              	chCoreGetStatusX:
 296              	.LFB243:
 297              		.loc 4 155 0
 298              		.cfi_startproc
 299              		@ args = 0, pretend = 0, frame = 0
 300              		@ frame_needed = 0, uses_anonymous_args = 0
 301              		@ link register save eliminated.
 302              		.loc 4 158 0
 303 0000 034B     		ldr	r3, .L17
 304 0002 1B68     		ldr	r3, [r3]
 305 0004 1A46     		mov	r2, r3
 306 0006 034B     		ldr	r3, .L17+4
 307 0008 1B68     		ldr	r3, [r3]
 308 000a D31A     		subs	r3, r2, r3
 309              		.loc 4 160 0
 310 000c 1846     		mov	r0, r3
 311 000e 7047     		bx	lr
 312              	.L18:
 313              		.align	2
 314              	.L17:
 315 0010 00000000 		.word	endmem
 316 0014 00000000 		.word	nextmem
 317              		.cfi_endproc
 318              	.LFE243:
 319              		.size	chCoreGetStatusX, .-chCoreGetStatusX
 320 0018 AFF30080 		.text
 320      AFF30080 
 321              	.Letext0:
 322              		.file 5 "/usr/lib/gcc/arm-none-eabi/4.8/include/stddef.h"
 323              		.file 6 "/usr/include/newlib/machine/_default_types.h"
 324              		.file 7 "/usr/include/newlib/stdint.h"
 325              		.file 8 "/home/efe/ChibiOS/os/rt/ports/ARMCMx/compilers/GCC/chtypes.h"
 326              		.file 9 "/home/efe/ChibiOS/os/rt/include/chsystypes.h"
 327              		.file 10 "/home/efe/ChibiOS/os/rt/include/chschd.h"
 328              		.file 11 "/home/efe/ChibiOS/os/rt/ports/ARMCMx/chcore.h"
 329              		.file 12 "/home/efe/ChibiOS/os/rt/include/chtm.h"
 330              		.file 13 "/home/efe/ChibiOS/os/rt/include/chsem.h"
 331              		.file 14 "/home/efe/ChibiOS/os/rt/include/chmtx.h"
 332              		.file 15 "/home/efe/ChibiOS/os/ext/CMSIS/include/core_cm4.h"