ARM GAS  /tmp/ccvPHCFl.s 			page 1


   1              		.syntax unified
   2              		.cpu cortex-m4
   3              		.fpu softvfp
   4              		.eabi_attribute 20, 1
   5              		.eabi_attribute 21, 1
   6              		.eabi_attribute 23, 3
   7              		.eabi_attribute 24, 1
   8              		.eabi_attribute 25, 1
   9              		.eabi_attribute 26, 1
  10              		.eabi_attribute 30, 6
  11              		.eabi_attribute 34, 1
  12              		.eabi_attribute 18, 4
  13              		.thumb
  14              		.file	"chmsg.c"
  15              		.text
  16              	.Ltext0:
  17              		.cfi_sections	.debug_frame
  18              		.section	.text.port_lock,"ax",%progbits
  19              		.align	2
  20              		.p2align 4,,15
  21              		.thumb
  22              		.thumb_func
  23              		.type	port_lock, %function
  24              	port_lock:
  25              	.LFB127:
  26              		.file 1 "/home/efe/ChibiOS/os/rt/ports/ARMCMx/chcore_v7m.h"
  27              		.loc 1 456 0
  28              		.cfi_startproc
  29              		@ args = 0, pretend = 0, frame = 8
  30              		@ frame_needed = 0, uses_anonymous_args = 0
  31              		@ link register save eliminated.
  32 0000 82B0     		sub	sp, sp, #8
  33              		.cfi_def_cfa_offset 8
  34 0002 2023     		movs	r3, #32
  35 0004 0193     		str	r3, [sp, #4]
  36              	.LBB6:
  37              	.LBB7:
  38              		.file 2 "/home/efe/ChibiOS/os/ext/CMSIS/include/core_cmFunc.h"
  39              		.loc 2 548 0
  40 0006 019B     		ldr	r3, [sp, #4]
  41              	@ 548 "/home/efe/ChibiOS/os/ext/CMSIS/include/core_cmFunc.h" 1
  42 0008 83F31188 		MSR basepri, r3
  43              	@ 0 "" 2
  44              		.thumb
  45              	.LBE7:
  46              	.LBE6:
  47              		.loc 1 463 0
  48 000c 02B0     		add	sp, sp, #8
  49              		@ sp needed
  50 000e 7047     		bx	lr
  51              		.cfi_endproc
  52              	.LFE127:
  53              		.size	port_lock, .-port_lock
  54              		.section	.text.port_unlock,"ax",%progbits
  55              		.align	2
  56              		.p2align 4,,15
  57              		.thumb
ARM GAS  /tmp/ccvPHCFl.s 			page 2


  58              		.thumb_func
  59              		.type	port_unlock, %function
  60              	port_unlock:
  61              	.LFB128:
  62              		.loc 1 470 0
  63              		.cfi_startproc
  64              		@ args = 0, pretend = 0, frame = 8
  65              		@ frame_needed = 0, uses_anonymous_args = 0
  66              		@ link register save eliminated.
  67 0000 82B0     		sub	sp, sp, #8
  68              		.cfi_def_cfa_offset 8
  69 0002 0023     		movs	r3, #0
  70 0004 0193     		str	r3, [sp, #4]
  71              	.LBB8:
  72              	.LBB9:
  73              		.loc 2 548 0
  74 0006 019B     		ldr	r3, [sp, #4]
  75              	@ 548 "/home/efe/ChibiOS/os/ext/CMSIS/include/core_cmFunc.h" 1
  76 0008 83F31188 		MSR basepri, r3
  77              	@ 0 "" 2
  78              		.thumb
  79              	.LBE9:
  80              	.LBE8:
  81              		.loc 1 477 0
  82 000c 02B0     		add	sp, sp, #8
  83              		@ sp needed
  84 000e 7047     		bx	lr
  85              		.cfi_endproc
  86              	.LFE128:
  87              		.size	port_unlock, .-port_unlock
  88              		.section	.text.queue_insert,"ax",%progbits
  89              		.align	2
  90              		.p2align 4,,15
  91              		.thumb
  92              		.thumb_func
  93              		.type	queue_insert, %function
  94              	queue_insert:
  95              	.LFB156:
  96              		.file 3 "/home/efe/ChibiOS/os/rt/include/chschd.h"
  97              		.loc 3 663 0
  98              		.cfi_startproc
  99              		@ args = 0, pretend = 0, frame = 8
 100              		@ frame_needed = 0, uses_anonymous_args = 0
 101              		@ link register save eliminated.
 102 0000 82B0     		sub	sp, sp, #8
 103              		.cfi_def_cfa_offset 8
 104 0002 0190     		str	r0, [sp, #4]
 105 0004 0091     		str	r1, [sp]
 106              		.loc 3 665 0
 107 0006 019B     		ldr	r3, [sp, #4]
 108 0008 009A     		ldr	r2, [sp]
 109 000a 1A60     		str	r2, [r3]
 110              		.loc 3 666 0
 111 000c 009B     		ldr	r3, [sp]
 112 000e 5A68     		ldr	r2, [r3, #4]
 113 0010 019B     		ldr	r3, [sp, #4]
 114 0012 5A60     		str	r2, [r3, #4]
ARM GAS  /tmp/ccvPHCFl.s 			page 3


 115              		.loc 3 667 0
 116 0014 019B     		ldr	r3, [sp, #4]
 117 0016 5B68     		ldr	r3, [r3, #4]
 118 0018 019A     		ldr	r2, [sp, #4]
 119 001a 1A60     		str	r2, [r3]
 120              		.loc 3 668 0
 121 001c 009B     		ldr	r3, [sp]
 122 001e 019A     		ldr	r2, [sp, #4]
 123 0020 5A60     		str	r2, [r3, #4]
 124              		.loc 3 669 0
 125 0022 02B0     		add	sp, sp, #8
 126              		@ sp needed
 127 0024 7047     		bx	lr
 128              		.cfi_endproc
 129              	.LFE156:
 130              		.size	queue_insert, .-queue_insert
 131 0026 00BFAFF3 		.section	.text.queue_fifo_remove,"ax",%progbits
 131      0080AFF3 
 131      0080
 132              		.align	2
 133              		.p2align 4,,15
 134              		.thumb
 135              		.thumb_func
 136              		.type	queue_fifo_remove, %function
 137              	queue_fifo_remove:
 138              	.LFB157:
 139              		.loc 3 671 0
 140              		.cfi_startproc
 141              		@ args = 0, pretend = 0, frame = 16
 142              		@ frame_needed = 0, uses_anonymous_args = 0
 143              		@ link register save eliminated.
 144 0000 84B0     		sub	sp, sp, #16
 145              		.cfi_def_cfa_offset 16
 146 0002 0190     		str	r0, [sp, #4]
 147              		.loc 3 672 0
 148 0004 019B     		ldr	r3, [sp, #4]
 149 0006 1B68     		ldr	r3, [r3]
 150 0008 0393     		str	r3, [sp, #12]
 151              		.loc 3 674 0
 152 000a 039B     		ldr	r3, [sp, #12]
 153 000c 1A68     		ldr	r2, [r3]
 154 000e 019B     		ldr	r3, [sp, #4]
 155 0010 1A60     		str	r2, [r3]
 156              		.loc 3 675 0
 157 0012 019B     		ldr	r3, [sp, #4]
 158 0014 1B68     		ldr	r3, [r3]
 159 0016 019A     		ldr	r2, [sp, #4]
 160 0018 5A60     		str	r2, [r3, #4]
 161              		.loc 3 677 0
 162 001a 039B     		ldr	r3, [sp, #12]
 163              		.loc 3 678 0
 164 001c 1846     		mov	r0, r3
 165 001e 04B0     		add	sp, sp, #16
 166              		@ sp needed
 167 0020 7047     		bx	lr
 168              		.cfi_endproc
 169              	.LFE157:
ARM GAS  /tmp/ccvPHCFl.s 			page 4


 170              		.size	queue_fifo_remove, .-queue_fifo_remove
 171 0022 00BFAFF3 		.section	.text.chSysLock,"ax",%progbits
 171      0080AFF3 
 171      0080AFF3 
 171      0080
 172              		.align	2
 173              		.p2align 4,,15
 174              		.thumb
 175              		.thumb_func
 176              		.type	chSysLock, %function
 177              	chSysLock:
 178              	.LFB167:
 179              		.file 4 "/home/efe/ChibiOS/os/rt/include/chsys.h"
 180              		.loc 4 346 0
 181              		.cfi_startproc
 182              		@ args = 0, pretend = 0, frame = 0
 183              		@ frame_needed = 0, uses_anonymous_args = 0
 184 0000 08B5     		push	{r3, lr}
 185              		.cfi_def_cfa_offset 8
 186              		.cfi_offset 3, -8
 187              		.cfi_offset 14, -4
 188              		.loc 4 348 0
 189 0002 FFF7FEFF 		bl	port_lock
 190              		.loc 4 351 0
 191 0006 08BD     		pop	{r3, pc}
 192              		.cfi_endproc
 193              	.LFE167:
 194              		.size	chSysLock, .-chSysLock
 195 0008 AFF30080 		.section	.text.chSysUnlock,"ax",%progbits
 195      AFF30080 
 196              		.align	2
 197              		.p2align 4,,15
 198              		.thumb
 199              		.thumb_func
 200              		.type	chSysUnlock, %function
 201              	chSysUnlock:
 202              	.LFB168:
 203              		.loc 4 358 0
 204              		.cfi_startproc
 205              		@ args = 0, pretend = 0, frame = 0
 206              		@ frame_needed = 0, uses_anonymous_args = 0
 207 0000 08B5     		push	{r3, lr}
 208              		.cfi_def_cfa_offset 8
 209              		.cfi_offset 3, -8
 210              		.cfi_offset 14, -4
 211              		.loc 4 371 0
 212 0002 FFF7FEFF 		bl	port_unlock
 213              		.loc 4 372 0
 214 0006 08BD     		pop	{r3, pc}
 215              		.cfi_endproc
 216              	.LFE168:
 217              		.size	chSysUnlock, .-chSysUnlock
 218 0008 AFF30080 		.section	.text.chMsgIsPendingI,"ax",%progbits
 218      AFF30080 
 219              		.align	2
 220              		.p2align 4,,15
 221              		.thumb
ARM GAS  /tmp/ccvPHCFl.s 			page 5


 222              		.thumb_func
 223              		.type	chMsgIsPendingI, %function
 224              	chMsgIsPendingI:
 225              	.LFB221:
 226              		.file 5 "/home/efe/ChibiOS/os/rt/include/chmsg.h"
 227              		.loc 5 79 0
 228              		.cfi_startproc
 229              		@ args = 0, pretend = 0, frame = 8
 230              		@ frame_needed = 0, uses_anonymous_args = 0
 231              		@ link register save eliminated.
 232 0000 82B0     		sub	sp, sp, #8
 233              		.cfi_def_cfa_offset 8
 234 0002 0190     		str	r0, [sp, #4]
 235              		.loc 5 83 0
 236 0004 019B     		ldr	r3, [sp, #4]
 237 0006 9A6A     		ldr	r2, [r3, #40]
 238 0008 019B     		ldr	r3, [sp, #4]
 239 000a 2833     		adds	r3, r3, #40
 240 000c 9A42     		cmp	r2, r3
 241 000e 0CBF     		ite	eq
 242 0010 0023     		moveq	r3, #0
 243 0012 0123     		movne	r3, #1
 244 0014 DBB2     		uxtb	r3, r3
 245              		.loc 5 84 0
 246 0016 1846     		mov	r0, r3
 247 0018 02B0     		add	sp, sp, #8
 248              		@ sp needed
 249 001a 7047     		bx	lr
 250              		.cfi_endproc
 251              	.LFE221:
 252              		.size	chMsgIsPendingI, .-chMsgIsPendingI
 253 001c AFF30080 		.section	.text.chMsgReleaseS,"ax",%progbits
 254              		.align	2
 255              		.p2align 4,,15
 256              		.thumb
 257              		.thumb_func
 258              		.type	chMsgReleaseS, %function
 259              	chMsgReleaseS:
 260              	.LFB223:
 261              		.loc 5 111 0
 262              		.cfi_startproc
 263              		@ args = 0, pretend = 0, frame = 8
 264              		@ frame_needed = 0, uses_anonymous_args = 0
 265 0000 00B5     		push	{lr}
 266              		.cfi_def_cfa_offset 4
 267              		.cfi_offset 14, -4
 268 0002 83B0     		sub	sp, sp, #12
 269              		.cfi_def_cfa_offset 16
 270 0004 0190     		str	r0, [sp, #4]
 271 0006 0091     		str	r1, [sp]
 272              		.loc 5 115 0
 273 0008 0198     		ldr	r0, [sp, #4]
 274 000a 0099     		ldr	r1, [sp]
 275 000c FFF7FEFF 		bl	chSchWakeupS
 276              		.loc 5 116 0
 277 0010 03B0     		add	sp, sp, #12
 278              		@ sp needed
ARM GAS  /tmp/ccvPHCFl.s 			page 6


 279 0012 5DF804FB 		ldr	pc, [sp], #4
 280              		.cfi_endproc
 281              	.LFE223:
 282              		.size	chMsgReleaseS, .-chMsgReleaseS
 283 0016 00BFAFF3 		.section	.text.chMsgSend,"ax",%progbits
 283      0080AFF3 
 283      0080
 284              		.align	2
 285              		.p2align 4,,15
 286              		.global	chMsgSend
 287              		.thumb
 288              		.thumb_func
 289              		.type	chMsgSend, %function
 290              	chMsgSend:
 291              	.LFB240:
 292              		.file 6 "/home/efe/ChibiOS/os/rt/src/chmsg.c"
 293              		.loc 6 87 0
 294              		.cfi_startproc
 295              		@ args = 0, pretend = 0, frame = 16
 296              		@ frame_needed = 0, uses_anonymous_args = 0
 297 0000 00B5     		push	{lr}
 298              		.cfi_def_cfa_offset 4
 299              		.cfi_offset 14, -4
 300 0002 85B0     		sub	sp, sp, #20
 301              		.cfi_def_cfa_offset 24
 302 0004 0190     		str	r0, [sp, #4]
 303 0006 0091     		str	r1, [sp]
 304              		.loc 6 88 0
 305 0008 134B     		ldr	r3, .L14
 306 000a 9B69     		ldr	r3, [r3, #24]
 307 000c 0393     		str	r3, [sp, #12]
 308              		.loc 6 92 0
 309 000e FFF7FEFF 		bl	chSysLock
 310              		.loc 6 93 0
 311 0012 039B     		ldr	r3, [sp, #12]
 312 0014 009A     		ldr	r2, [sp]
 313 0016 1A63     		str	r2, [r3, #48]
 314              		.loc 6 94 0
 315 0018 019B     		ldr	r3, [sp, #4]
 316 001a 03F12802 		add	r2, r3, #40
 317 001e 039B     		ldr	r3, [sp, #12]
 318 0020 1A62     		str	r2, [r3, #32]
 319              		.loc 6 95 0
 320 0022 019B     		ldr	r3, [sp, #4]
 321 0024 2833     		adds	r3, r3, #40
 322 0026 0398     		ldr	r0, [sp, #12]
 323 0028 1946     		mov	r1, r3
 324 002a FFF7FEFF 		bl	queue_insert
 325              		.loc 6 96 0
 326 002e 019B     		ldr	r3, [sp, #4]
 327 0030 1B7F     		ldrb	r3, [r3, #28]	@ zero_extendqisi2
 328 0032 0E2B     		cmp	r3, #14
 329 0034 02D1     		bne	.L12
 330              		.loc 6 97 0
 331 0036 0198     		ldr	r0, [sp, #4]
 332 0038 FFF7FEFF 		bl	chSchReadyI
 333              	.L12:
ARM GAS  /tmp/ccvPHCFl.s 			page 7


 334              		.loc 6 99 0
 335 003c 0C20     		movs	r0, #12
 336 003e FFF7FEFF 		bl	chSchGoSleepS
 337              		.loc 6 100 0
 338 0042 039B     		ldr	r3, [sp, #12]
 339 0044 1B6A     		ldr	r3, [r3, #32]
 340 0046 0093     		str	r3, [sp]
 341              		.loc 6 101 0
 342 0048 FFF7FEFF 		bl	chSysUnlock
 343              		.loc 6 103 0
 344 004c 009B     		ldr	r3, [sp]
 345              		.loc 6 104 0
 346 004e 1846     		mov	r0, r3
 347 0050 05B0     		add	sp, sp, #20
 348              		@ sp needed
 349 0052 5DF804FB 		ldr	pc, [sp], #4
 350              	.L15:
 351 0056 00BF     		.align	2
 352              	.L14:
 353 0058 00000000 		.word	ch
 354              		.cfi_endproc
 355              	.LFE240:
 356              		.size	chMsgSend, .-chMsgSend
 357 005c AFF30080 		.section	.text.chMsgWait,"ax",%progbits
 358              		.align	2
 359              		.p2align 4,,15
 360              		.global	chMsgWait
 361              		.thumb
 362              		.thumb_func
 363              		.type	chMsgWait, %function
 364              	chMsgWait:
 365              	.LFB241:
 366              		.loc 6 120 0
 367              		.cfi_startproc
 368              		@ args = 0, pretend = 0, frame = 8
 369              		@ frame_needed = 0, uses_anonymous_args = 0
 370 0000 00B5     		push	{lr}
 371              		.cfi_def_cfa_offset 4
 372              		.cfi_offset 14, -4
 373 0002 83B0     		sub	sp, sp, #12
 374              		.cfi_def_cfa_offset 16
 375              		.loc 6 123 0
 376 0004 FFF7FEFF 		bl	chSysLock
 377              		.loc 6 124 0
 378 0008 0F4B     		ldr	r3, .L19
 379 000a 9B69     		ldr	r3, [r3, #24]
 380 000c 1846     		mov	r0, r3
 381 000e FFF7FEFF 		bl	chMsgIsPendingI
 382 0012 0346     		mov	r3, r0
 383 0014 83F00103 		eor	r3, r3, #1
 384 0018 DBB2     		uxtb	r3, r3
 385 001a 002B     		cmp	r3, #0
 386 001c 02D0     		beq	.L17
 387              		.loc 6 125 0
 388 001e 0E20     		movs	r0, #14
 389 0020 FFF7FEFF 		bl	chSchGoSleepS
 390              	.L17:
ARM GAS  /tmp/ccvPHCFl.s 			page 8


 391              		.loc 6 127 0
 392 0024 084B     		ldr	r3, .L19
 393 0026 9B69     		ldr	r3, [r3, #24]
 394 0028 2833     		adds	r3, r3, #40
 395 002a 1846     		mov	r0, r3
 396 002c FFF7FEFF 		bl	queue_fifo_remove
 397 0030 0190     		str	r0, [sp, #4]
 398              		.loc 6 128 0
 399 0032 019B     		ldr	r3, [sp, #4]
 400 0034 0D22     		movs	r2, #13
 401 0036 1A77     		strb	r2, [r3, #28]
 402              		.loc 6 129 0
 403 0038 FFF7FEFF 		bl	chSysUnlock
 404              		.loc 6 131 0
 405 003c 019B     		ldr	r3, [sp, #4]
 406              		.loc 6 132 0
 407 003e 1846     		mov	r0, r3
 408 0040 03B0     		add	sp, sp, #12
 409              		@ sp needed
 410 0042 5DF804FB 		ldr	pc, [sp], #4
 411              	.L20:
 412 0046 00BF     		.align	2
 413              	.L19:
 414 0048 00000000 		.word	ch
 415              		.cfi_endproc
 416              	.LFE241:
 417              		.size	chMsgWait, .-chMsgWait
 418 004c AFF30080 		.section	.text.chMsgRelease,"ax",%progbits
 419              		.align	2
 420              		.p2align 4,,15
 421              		.global	chMsgRelease
 422              		.thumb
 423              		.thumb_func
 424              		.type	chMsgRelease, %function
 425              	chMsgRelease:
 426              	.LFB242:
 427              		.loc 6 144 0
 428              		.cfi_startproc
 429              		@ args = 0, pretend = 0, frame = 8
 430              		@ frame_needed = 0, uses_anonymous_args = 0
 431 0000 00B5     		push	{lr}
 432              		.cfi_def_cfa_offset 4
 433              		.cfi_offset 14, -4
 434 0002 83B0     		sub	sp, sp, #12
 435              		.cfi_def_cfa_offset 16
 436 0004 0190     		str	r0, [sp, #4]
 437 0006 0091     		str	r1, [sp]
 438              		.loc 6 146 0
 439 0008 FFF7FEFF 		bl	chSysLock
 440              		.loc 6 148 0
 441 000c 0198     		ldr	r0, [sp, #4]
 442 000e 0099     		ldr	r1, [sp]
 443 0010 FFF7FEFF 		bl	chMsgReleaseS
 444              		.loc 6 149 0
 445 0014 FFF7FEFF 		bl	chSysUnlock
 446              		.loc 6 150 0
 447 0018 03B0     		add	sp, sp, #12
ARM GAS  /tmp/ccvPHCFl.s 			page 9


 448              		@ sp needed
 449 001a 5DF804FB 		ldr	pc, [sp], #4
 450              		.cfi_endproc
 451              	.LFE242:
 452              		.size	chMsgRelease, .-chMsgRelease
 453 001e 00BF     		.text
 454              	.Letext0:
 455              		.file 7 "/usr/include/newlib/machine/_default_types.h"
 456              		.file 8 "/usr/include/newlib/stdint.h"
 457              		.file 9 "/home/efe/ChibiOS/os/rt/ports/ARMCMx/compilers/GCC/chtypes.h"
 458              		.file 10 "/home/efe/ChibiOS/os/rt/include/chsystypes.h"
 459              		.file 11 "/home/efe/ChibiOS/os/rt/ports/ARMCMx/chcore.h"
 460              		.file 12 "/home/efe/ChibiOS/os/rt/include/chtm.h"
 461              		.file 13 "/home/efe/ChibiOS/os/rt/include/chsem.h"
 462              		.file 14 "/home/efe/ChibiOS/os/rt/include/chmtx.h"
 463              		.file 15 "/home/efe/ChibiOS/os/ext/CMSIS/include/core_cm4.h"