ARM GAS  /tmp/ccvPHCFl.s 			page 1


   1              		.syntax unified
   2              		.cpu cortex-m4
   3              		.fpu softvfp
   4              		.eabi_attribute 20, 1
   5              		.eabi_attribute 21, 1
   6              		.eabi_attribute 23, 3
   7              		.eabi_attribute 24, 1
   8              		.eabi_attribute 25, 1
   9              		.eabi_attribute 26, 1
  10              		.eabi_attribute 30, 6
  11              		.eabi_attribute 34, 1
  12              		.eabi_attribute 18, 4
  13              		.thumb
  14              		.file	"chmsg.c"
  15              		.text
  16              	.Ltext0:
  17              		.cfi_sections	.debug_frame
  18              		.section	.text.port_lock,"ax",%progbits
  19              		.align	2
  20              		.p2align 4,,15
  21              		.thumb
  22              		.thumb_func
  23              		.type	port_lock, %function
  24              	port_lock:
  25              	.LFB127:
  26              		.file 1 "/home/efe/ChibiOS/os/rt/ports/ARMCMx/chcore_v7m.h"
  27              		.loc 1 456 0
  28              		.cfi_startproc
  29              		@ args = 0, pretend = 0, frame = 8
  30              		@ frame_needed = 0, uses_anonymous_args = 0
  31              		@ link register save eliminated.
  32 0000 82B0     		sub	sp, sp, #8
  33              		.cfi_def_cfa_offset 8
  34 0002 2023     		movs	r3, #32
  35 0004 0193     		str	r3, [sp, #4]
  36              	.LBB6:
  37              	.LBB7:
  38              		.file 2 "/home/efe/ChibiOS/os/ext/CMSIS/include/core_cmFunc.h"
  39              		.loc 2 548 0
  40 0006 019B     		ldr	r3, [sp, #4]
  41              	@ 548 "/home/efe/ChibiOS/os/ext/CMSIS/include/core_cmFunc.h" 1
  42 0008 83F31188 		MSR basepri, r3
  43              	@ 0 "" 2
  44              		.thumb
  45              	.LBE7:
  46              	.LBE6:
  47              		.loc 1 463 0
  48 000c 02B0     		add	sp, sp, #8
  49              		@ sp needed
  50 000e 7047     		bx	lr
  51              		.cfi_endproc
  52              	.LFE127:
  53              		.size	port_lock, .-port_lock
  54              		.section	.text.port_unlock,"ax",%progbits
  55              		.align	2
  56              		.p2align 4,,15
  57              		.thumb
ARM GAS  /tmp/ccvPHCFl.s 			page 2


  58              		.thumb_func
  59              		.type	port_unlock, %function
  60              	port_unlock:
  61              	.LFB128:
  62              		.loc 1 470 0
  63              		.cfi_startproc
  64              		@ args = 0, pretend = 0, frame = 8
  65              		@ frame_needed = 0, uses_anonymous_args = 0
  66              		@ link register save eliminated.
  67 0000 82B0     		sub	sp, sp, #8
  68              		.cfi_def_cfa_offset 8
  69 0002 0023     		movs	r3, #0
  70 0004 0193     		str	r3, [sp, #4]
  71              	.LBB8:
  72              	.LBB9:
  73              		.loc 2 548 0
  74 0006 019B     		ldr	r3, [sp, #4]
  75              	@ 548 "/home/efe/ChibiOS/os/ext/CMSIS/include/core_cmFunc.h" 1
  76 0008 83F31188 		MSR basepri, r3
  77              	@ 0 "" 2
  78              		.thumb
  79              	.LBE9:
  80              	.LBE8:
  81              		.loc 1 477 0
  82 000c 02B0     		add	sp, sp, #8
  83              		@ sp needed
  84 000e 7047     		bx	lr
  85              		.cfi_endproc
  86              	.LFE128:
  87              		.size	port_unlock, .-port_unlock
  88              		.section	.text.queue_insert,"ax",%progbits
  89              		.align	2
  90              		.p2align 4,,15
  91              		.thumb
  92              		.thumb_func
  93              		.type	queue_insert, %function
  94              	queue_insert:
  95              	.LFB156:
  96              		.file 3 "/home/efe/ChibiOS/os/rt/include/chschd.h"
  97              		.loc 3 663 0
  98              		.cfi_startproc
  99              		@ args = 0, pretend = 0, frame = 8
 100              		@ frame_needed = 0, uses_anonymous_args = 0
 101              		@ link register save eliminated.
 102 0000 82B0     		sub	sp, sp, #8
 103              		.cfi_def_cfa_offset 8
 104 0002 0190     		str	r0, [sp, #4]
 105 0004 0091     		str	r1, [sp]
 106              		.loc 3 665 0
 107 0006 019B     		ldr	r3, [sp, #4]
 108 0008 009A     		ldr	r2, [sp]
 109 000a 1A60     		str	r2, [r3]
 110              		.loc 3 666 0
 111 000c 009B     		ldr	r3, [sp]
 112 000e 5A68     		ldr	r2, [r3, #4]
 113 0010 019B     		ldr	r3, [sp, #4]
 114 0012 5A60     		str	r2, [r3, #4]
ARM GAS  /tmp/ccvPHCFl.s 			page 3


 115              		.loc 3 667 0
 116 0014 019B     		ldr	r3, [sp, #4]
 117 0016 5B68     		ldr	r3, [r3, #4]
 118 0018 019A     		ldr	r2, [sp, #4]
 119 001a 1A60     		str	r2, [r3]
 120              		.loc 3 668 0
 121 001c 009B     		ldr	r3, [sp]
 122 001e 019A     		ldr	r2, [sp, #4]
 123 0020 5A60     		str	r2, [r3, #4]
 124              		.loc 3 669 0
 125 0022 02B0     		add	sp, sp, #8
 126              		@ sp needed
 127 0024 7047     		bx	lr
 128              		.cfi_endproc
 129              	.LFE156:
 130              		.size	queue_insert, .-queue_insert
 131 0026 00BFAFF3 		.section	.text.queue_fifo_remove,"ax",%progbits
 131      0080AFF3 
 131      0080
 132              		.align	2
 133              		.p2align 4,,15
 134              		.thumb
 135              		.thumb_func
 136              		.type	queue_fifo_remove, %function
 137              	queue_fifo_remove:
 138              	.LFB157:
 139              		.loc 3 671 0
 140              		.cfi_startproc
 141              		@ args = 0, pretend = 0, frame = 16
 142              		@ frame_needed = 0, uses_anonymous_args = 0
 143              		@ link register save eliminated.
 144 0000 84B0     		sub	sp, sp, #16
 145              		.cfi_def_cfa_offset 16
 146 0002 0190     		str	r0, [sp, #4]
 147              		.loc 3 672 0
 148 0004 019B     		ldr	r3, [sp, #4]
 149 0006 1B68     		ldr	r3, [r3]
 150 0008 0393     		str	r3, [sp, #12]
 151              		.loc 3 674 0
 152 000a 039B     		ldr	r3, [sp, #12]
 153 000c 1A68     		ldr	r2, [r3]
 154 000e 019B     		ldr	r3, [sp, #4]
 155 0010 1A60     		str	r2, [r3]
 156              		.loc 3 675 0
 157 0012 019B     		ldr	r3, [sp, #4]
 158 0014 1B68     		ldr	r3, [r3]
 159 0016 019A     		ldr	r2, [sp, #4]
 160 0018 5A60     		str	r2, [r3, #4]
 161              		.loc 3 677 0
 162 001a 039B     		ldr	r3, [sp, #12]
 163              		.loc 3 678 0
 164 001c 1846     		mov	r0, r3
 165 001e 04B0     		add	sp, sp, #16
 166              		@ sp needed
 167 0020 7047     		bx	lr
 168              		.cfi_endproc
 169              	.LFE157:
ARM GAS  /tmp/ccvPHCFl.s 			page 4


 170              		.size	queue_fifo_remove, .-queue_fifo_remove
 171 0022 00BFAFF3 		.section	.text.chSysLock,"ax",%progbits
 171      0080AFF3 
 171      0080AFF3 
 171      0080
 172              		.align	2
 173              		.p2align 4,,15
 174              		.thumb
 175              		.thumb_func
 176              		.type	chSysLock, %function
 177              	chSysLock:
 178              	.LFB167:
 179              		.file 4 "/home/efe/ChibiOS/os/rt/include/chsys.h"
 180              		.loc 4 346 0
 181              		.cfi_startproc
 182              		@ args = 0, pretend = 0, frame = 0
 183              		@ frame_needed = 0, uses_anonymous_args = 0
 184 0000 08B5     		push	{r3, lr}
 185              		.cfi_def_cfa_offset 8
 186              		.cfi_offset 3, -8
 187              		.cfi_offset 14, -4
 188              		.loc 4 348 0
 189 0002 FFF7FEFF 		bl	port_lock
 190              		.loc 4 351 0
 191 0006 08BD     		pop	{r3, pc}
 192              		.cfi_endproc
 193              	.LFE167:
 194              		.size	chSysLock, .-chSysLock
 195 0008 AFF30080 		.section	.text.chSysUnlock,"ax",%progbits
 195      AFF30080 
 196              		.align	2
 197              		.p2align 4,,15
 198              		.thumb
 199              		.thumb_func
 200              		.type	chSysUnlock, %function
 201              	chSysUnlock:
 202              	.LFB168:
 203              		.loc 4 358 0
 204              		.cfi_startproc
 205              		@ args = 0, pretend = 0, frame = 0
 206              		@ frame_needed = 0, uses_anonymous_args = 0
 207 0000 08B5     		push	{r3, lr}
 208              		.cfi_def_cfa_offset 8
 209              		.cfi_offset 3, -8
 210              		.cfi_offset 14, -4
 211              		.loc 4 371 0
 212 0002 FFF7FEFF 		bl	port_unlock
 213              		.loc 4 372 0
 214 0006 08BD     		pop	{r3, pc}
 215              		.cfi_endproc
 216              	.LFE168:
 217              		.size	chSysUnlock, .-chSysUnlock
 218 0008 AFF30080 		.section	.text.chMsgIsPendingI,"ax",%progbits
 218      AFF30080 
 219              		.align	2
 220              		.p2align 4,,15
 221              		.thumb
ARM GAS  /tmp/ccvPHCFl.s 			page 5


 222              		.thumb_func
 223              		.type	chMsgIsPendingI, %function
 224              	chMsgIsPendingI:
 225              	.LFB221:
 226              		.file 5 "/home/efe/ChibiOS/os/rt/include/chmsg.h"
 227              		.loc 5 79 0
 228              		.cfi_startproc
 229              		@ args = 0, pretend = 0, frame = 8
 230              		@ frame_needed = 0, uses_anonymous_args = 0
 231              		@ link register save eliminated.
 232 0000 82B0     		sub	sp, sp, #8
 233              		.cfi_def_cfa_offset 8
 234 0002 0190     		str	r0, [sp, #4]
 235              		.loc 5 83 0
 236 0004 019B     		ldr	r3, [sp, #4]
 237 0006 9A6A     		ldr	r2, [r3, #40]
 238 0008 019B     		ldr	r3, [sp, #4]
 239 000a 2833     		adds	r3, r3, #40
 240 000c 9A42     		cmp	r2, r3
 241 000e 0CBF     		ite	eq
 242 0010 0023     		moveq	r3, #0
 243 0012 0123     		movne	r3, #1
 244 0014 DBB2     		uxtb	r3, r3
 245              		.loc 5 84 0
 246 0016 1846     		mov	r0, r3
 247 0018 02B0     		add	sp, sp, #8
 248              		@ sp needed
 249 001a 7047     		bx	lr
 250              		.cfi_endproc
 251              	.LFE221:
 252              		.size	chMsgIsPendingI, .-chMsgIsPendingI
 253 001c AFF30080 		.section	.text.chMsgReleaseS,"ax",%progbits
 254              		.align	2
 255              		.p2align 4,,15
 256              		.thumb
 257              		.thumb_func
 258              		.type	chMsgReleaseS, %function
 259              	chMsgReleaseS:
 260              	.LFB223:
 261              		.loc 5 111 0
 262              		.cfi_startproc
 263              		@ args = 0, pretend = 0, frame = 8
 264              		@ frame_needed = 0, uses_anonymous_args = 0
 265 0000 00B5     		push	{lr}
 266              		.cfi_def_cfa_offset 4
 267              		.cfi_offset 14, -4
 268 0002 83B0     		sub	sp, sp, #12
 269              		.cfi_def_cfa_offset 16
 270 0004 0190     		str	r0, [sp, #4]
 271 0006 0091     		str	r1, [sp]
 272              		.loc 5 115 0
 273 0008 0198     		ldr	r0, [sp, #4]
 274 000a 0099     		ldr	r1, [sp]
 275 000c FFF7FEFF 		bl	chSchWakeupS
 276              		.loc 5 116 0
 277 0010 03B0     		add	sp, sp, #12
 278              		@ sp needed
ARM GAS  /tmp/ccvPHCFl.s 			page 6


 279 0012 5DF804FB 		ldr	pc, [sp], #4
 280              		.cfi_endproc
 281              	.LFE223:
 282              		.size	chMsgReleaseS, .-chMsgReleaseS
 283 0016 00BFAFF3 		.section	.text.chMsgSend,"ax",%progbits
 283      0080AFF3 
 283      0080
 284              		.align	2
 285              		.p2align 4,,15
 286              		.global	chMsgSend
 287              		.thumb
 288              		.thumb_func
 289              		.type	chMsgSend, %function
 290              	chMsgSend:
 291              	.LFB240:
 292              		.file 6 "/home/efe/ChibiOS/os/rt/src/chmsg.c"
 293              		.loc 6 87 0
 294              		.cfi_startproc
 295              		@ args = 0, pretend = 0, frame = 16
 296              		@ frame_needed = 0, uses_anonymous_args = 0
 297 0000 00B5     		push	{lr}
 298              		.cfi_def_cfa_offset 4
 299              		.cfi_offset 14, -4
 300 0002 85B0     		sub	sp, sp, #20
 301              		.cfi_def_cfa_offset 24
 302 0004 0190     		str	r0, [sp, #4]
 303 0006 0091     		str	r1, [sp]
 304              		.loc 6 88 0
 305 0008 134B     		ldr	r3, .L14
 306 000a 9B69     		ldr	r3, [r3, #24]
 307 000c 0393     		str	r3, [sp, #12]
 308              		.loc 6 92 0
 309 000e FFF7FEFF 		bl	chSysLock
 310              		.loc 6 93 0
 311 0012 039B     		ldr	r3, [sp, #12]
 312 0014 009A     		ldr	r2, [sp]
 313 0016 1A63     		str	r2, [r3, #48]
 314              		.loc 6 94 0
 315 0018 019B     		ldr	r3, [sp, #4]
 316 001a 03F12802 		add	r2, r3, #40
 317 001e 039B     		ldr	r3, [sp, #12]
 318 0020 1A62     		str	r2, [r3, #32]
 319              		.loc 6 95 0
 320 0022 019B     		ldr	r3, [sp, #4]
 321 0024 2833     		adds	r3, r3, #40
 322 0026 0398     		ldr	r0, [sp, #12]
 323 0028 1946     		mov	r1, r3
 324 002a FFF7FEFF 		bl	queue_insert
 325              		.loc 6 96 0
 326 002e 019B     		ldr	r3, [sp, #4]
 327 0030 1B7F     		ldrb	r3, [r3, #28]	@ zero_extendqisi2
 328 0032 0E2B     		cmp	r3, #14
 329 0034 02D1     		bne	.L12
 330              		.loc 6 97 0
 331 0036 0198     		ldr	r0, [sp, #4]
 332 0038 FFF7FEFF 		bl	chSchReadyI
 333              	.L12:
ARM GAS  /tmp/ccvPHCFl.s 			page 7


 334              		.loc 6 99 0
 335 003c 0C20     		movs	r0, #12
 336 003e FFF7FEFF 		bl	chSchGoSleepS
 337              		.loc 6 100 0
 338 0042 039B     		ldr	r3, [sp, #12]
 339 0044 1B6A     		ldr	r3, [r3, #32]
 340 0046 0093     		str	r3, [sp]
 341              		.loc 6 101 0
 342 0048 FFF7FEFF 		bl	chSysUnlock
 343              		.loc 6 103 0
 344 004c 009B     		ldr	r3, [sp]
 345              		.loc 6 104 0
 346 004e 1846     		mov	r0, r3
 347 0050 05B0     		add	sp, sp, #20
 348              		@ sp needed
 349 0052 5DF804FB 		ldr	pc, [sp], #4
 350              	.L15:
 351 0056 00BF     		.align	2
 352              	.L14:
 353 0058 00000000 		.word	ch
 354              		.cfi_endproc
 355              	.LFE240:
 356              		.size	chMsgSend, .-chMsgSend
 357 005c AFF30080 		.section	.text.chMsgWait,"ax",%progbits
 358              		.align	2
 359              		.p2align 4,,15
 360              		.global	chMsgWait
 361              		.thumb
 362              		.thumb_func
 363              		.type	chMsgWait, %function
 364              	chMsgWait:
 365              	.LFB241:
 366              		.loc 6 120 0
 367              		.cfi_startproc
 368              		@ args = 0, pretend = 0, frame = 8
 369              		@ frame_needed = 0, uses_anonymous_args = 0
 370 0000 00B5     		push	{lr}
 371              		.cfi_def_cfa_offset 4
 372              		.cfi_offset 14, -4
 373 0002 83B0     		sub	sp, sp, #12
 374              		.cfi_def_cfa_offset 16
 375              		.loc 6 123 0
 376 0004 FFF7FEFF 		bl	chSysLock
 377              		.loc 6 124 0
 378 0008 0F4B     		ldr	r3, .L19
 379 000a 9B69     		ldr	r3, [r3, #24]
 380 000c 1846     		mov	r0, r3
 381 000e FFF7FEFF 		bl	chMsgIsPendingI
 382 0012 0346     		mov	r3, r0
 383 0014 83F00103 		eor	r3, r3, #1
 384 0018 DBB2     		uxtb	r3, r3
 385 001a 002B     		cmp	r3, #0
 386 001c 02D0     		beq	.L17
 387              		.loc 6 125 0
 388 001e 0E20     		movs	r0, #14
 389 0020 FFF7FEFF 		bl	chSchGoSleepS
 390              	.L17:
ARM GAS  /tmp/ccvPHCFl.s 			page 8


 391              		.loc 6 127 0
 392 0024 084B     		ldr	r3, .L19
 393 0026 9B69     		ldr	r3, [r3, #24]
 394 0028 2833     		adds	r3, r3, #40
 395 002a 1846     		mov	r0, r3
 396 002c FFF7FEFF 		bl	queue_fifo_remove
 397 0030 0190     		str	r0, [sp, #4]
 398              		.loc 6 128 0
 399 0032 019B     		ldr	r3, [sp, #4]
 400 0034 0D22     		movs	r2, #13
 401 0036 1A77     		strb	r2, [r3, #28]
 402              		.loc 6 129 0
 403 0038 FFF7FEFF 		bl	chSysUnlock
 404              		.loc 6 131 0
 405 003c 019B     		ldr	r3, [sp, #4]
 406              		.loc 6 132 0
 407 003e 1846     		mov	r0, r3
 408 0040 03B0     		add	sp, sp, #12
 409              		@ sp needed
 410 0042 5DF804FB 		ldr	pc, [sp], #4
 411              	.L20:
 412 0046 00BF     		.align	2
 413              	.L19:
 414 0048 00000000 		.word	ch
 415              		.cfi_endproc
 416              	.LFE241:
 417              		.size	chMsgWait, .-chMsgWait
 418 004c AFF30080 		.section	.text.chMsgRelease,"ax",%progbits
 419              		.align	2
 420              		.p2align 4,,15
 421              		.global	chMsgRelease
 422              		.thumb
 423              		.thumb_func
 424              		.type	chMsgRelease, %function
 425              	chMsgRelease:
 426              	.LFB242:
 427              		.loc 6 144 0
 428              		.cfi_startproc
 429              		@ args = 0, pretend = 0, frame = 8
 430              		@ frame_needed = 0, uses_anonymous_args = 0
 431 0000 00B5     		push	{lr}
 432              		.cfi_def_cfa_offset 4
 433              		.cfi_offset 14, -4
 434 0002 83B0     		sub	sp, sp, #12
 435              		.cfi_def_cfa_offset 16
 436 0004 0190     		str	r0, [sp, #4]
 437 0006 0091     		str	r1, [sp]
 438              		.loc 6 146 0
 439 0008 FFF7FEFF 		bl	chSysLock
 440              		.loc 6 148 0
 441 000c 0198     		ldr	r0, [sp, #4]
 442 000e 0099     		ldr	r1, [sp]
 443 0010 FFF7FEFF 		bl	chMsgReleaseS
 444              		.loc 6 149 0
 445 0014 FFF7FEFF 		bl	chSysUnlock
 446              		.loc 6 150 0
 447 0018 03B0     		add	sp, sp, #12
ARM GAS  /tmp/ccvPHCFl.s 			page 9


 448              		@ sp needed
 449 001a 5DF804FB 		ldr	pc, [sp], #4
 450              		.cfi_endproc
 451              	.LFE242:
 452              		.size	chMsgRelease, .-chMsgRelease
 453 001e 00BF     		.text
 454              	.Letext0:
 455              		.file 7 "/usr/include/newlib/machine/_default_types.h"
 456              		.file 8 "/usr/include/newlib/stdint.h"
 457              		.file 9 "/home/efe/ChibiOS/os/rt/ports/ARMCMx/compilers/GCC/chtypes.h"
 458              		.file 10 "/home/efe/ChibiOS/os/rt/include/chsystypes.h"
 459              		.file 11 "/home/efe/ChibiOS/os/rt/ports/ARMCMx/chcore.h"
 460              		.file 12 "/home/efe/ChibiOS/os/rt/include/chtm.h"
 461              		.file 13 "/home/efe/ChibiOS/os/rt/include/chsem.h"
 462              		.file 14 "/home/efe/ChibiOS/os/rt/include/chmtx.h"
 463              		.file 15 "/home/efe/ChibiOS/os/ext/CMSIS/include/core_cm4.h"
 464              		.section	.debug_info,"",%progbits
 465              	.Ldebug_info0:
 466 0000 94080000 		.4byte	0x894
 467 0004 0400     		.2byte	0x4
 468 0006 00000000 		.4byte	.Ldebug_abbrev0
 469 000a 04       		.byte	0x4
 470 000b 01       		.uleb128 0x1
 471 000c 5C010000 		.4byte	.LASF113
 472 0010 01       		.byte	0x1
 473 0011 20000000 		.4byte	.LASF114
 474 0015 00000000 		.4byte	.Ldebug_ranges0+0
 475 0019 00000000 		.4byte	0
 476 001d 00000000 		.4byte	.Ldebug_line0
 477 0021 02       		.uleb128 0x2
 478 0022 04       		.byte	0x4
 479 0023 05       		.byte	0x5
 480 0024 696E7400 		.ascii	"int\000"
 481 0028 03       		.uleb128 0x3
 482 0029 04       		.byte	0x4
 483 002a 07       		.byte	0x7
 484 002b 58020000 		.4byte	.LASF0
 485 002f 03       		.uleb128 0x3
 486 0030 01       		.byte	0x1
 487 0031 06       		.byte	0x6
 488 0032 F7000000 		.4byte	.LASF1
 489 0036 04       		.uleb128 0x4
 490 0037 54000000 		.4byte	.LASF5
 491 003b 07       		.byte	0x7
 492 003c 1D       		.byte	0x1d
 493 003d 41000000 		.4byte	0x41
 494 0041 03       		.uleb128 0x3
 495 0042 01       		.byte	0x1
 496 0043 08       		.byte	0x8
 497 0044 BC030000 		.4byte	.LASF2
 498 0048 03       		.uleb128 0x3
 499 0049 02       		.byte	0x2
 500 004a 05       		.byte	0x5
 501 004b D4030000 		.4byte	.LASF3
 502 004f 03       		.uleb128 0x3
 503 0050 02       		.byte	0x2
 504 0051 07       		.byte	0x7
ARM GAS  /tmp/ccvPHCFl.s 			page 10


 505 0052 85020000 		.4byte	.LASF4
 506 0056 04       		.uleb128 0x4
 507 0057 D6020000 		.4byte	.LASF6
 508 005b 07       		.byte	0x7
 509 005c 3F       		.byte	0x3f
 510 005d 61000000 		.4byte	0x61
 511 0061 03       		.uleb128 0x3
 512 0062 04       		.byte	0x4
 513 0063 05       		.byte	0x5
 514 0064 30010000 		.4byte	.LASF7
 515 0068 04       		.uleb128 0x4
 516 0069 CD040000 		.4byte	.LASF8
 517 006d 07       		.byte	0x7
 518 006e 41       		.byte	0x41
 519 006f 73000000 		.4byte	0x73
 520 0073 03       		.uleb128 0x3
 521 0074 04       		.byte	0x4
 522 0075 07       		.byte	0x7
 523 0076 7D040000 		.4byte	.LASF9
 524 007a 03       		.uleb128 0x3
 525 007b 08       		.byte	0x8
 526 007c 05       		.byte	0x5
 527 007d E9000000 		.4byte	.LASF10
 528 0081 04       		.uleb128 0x4
 529 0082 6C030000 		.4byte	.LASF11
 530 0086 07       		.byte	0x7
 531 0087 5B       		.byte	0x5b
 532 0088 8C000000 		.4byte	0x8c
 533 008c 03       		.uleb128 0x3
 534 008d 08       		.byte	0x8
 535 008e 07       		.byte	0x7
 536 008f 83000000 		.4byte	.LASF12
 537 0093 04       		.uleb128 0x4
 538 0094 3E050000 		.4byte	.LASF13
 539 0098 08       		.byte	0x8
 540 0099 2A       		.byte	0x2a
 541 009a 36000000 		.4byte	0x36
 542 009e 04       		.uleb128 0x4
 543 009f B4030000 		.4byte	.LASF14
 544 00a3 08       		.byte	0x8
 545 00a4 41       		.byte	0x41
 546 00a5 56000000 		.4byte	0x56
 547 00a9 04       		.uleb128 0x4
 548 00aa 4C040000 		.4byte	.LASF15
 549 00ae 08       		.byte	0x8
 550 00af 42       		.byte	0x42
 551 00b0 68000000 		.4byte	0x68
 552 00b4 04       		.uleb128 0x4
 553 00b5 4B000000 		.4byte	.LASF16
 554 00b9 08       		.byte	0x8
 555 00ba 4E       		.byte	0x4e
 556 00bb 81000000 		.4byte	0x81
 557 00bf 05       		.uleb128 0x5
 558 00c0 9E000000 		.4byte	0x9e
 559 00c4 04       		.uleb128 0x4
 560 00c5 FF040000 		.4byte	.LASF17
 561 00c9 09       		.byte	0x9
ARM GAS  /tmp/ccvPHCFl.s 			page 11


 562 00ca 45       		.byte	0x45
 563 00cb A9000000 		.4byte	0xa9
 564 00cf 04       		.uleb128 0x4
 565 00d0 B4020000 		.4byte	.LASF18
 566 00d4 09       		.byte	0x9
 567 00d5 48       		.byte	0x48
 568 00d6 93000000 		.4byte	0x93
 569 00da 04       		.uleb128 0x4
 570 00db 43010000 		.4byte	.LASF19
 571 00df 09       		.byte	0x9
 572 00e0 49       		.byte	0x49
 573 00e1 93000000 		.4byte	0x93
 574 00e5 04       		.uleb128 0x4
 575 00e6 77030000 		.4byte	.LASF20
 576 00ea 09       		.byte	0x9
 577 00eb 4A       		.byte	0x4a
 578 00ec 93000000 		.4byte	0x93
 579 00f0 04       		.uleb128 0x4
 580 00f1 96030000 		.4byte	.LASF21
 581 00f5 09       		.byte	0x9
 582 00f6 4C       		.byte	0x4c
 583 00f7 A9000000 		.4byte	0xa9
 584 00fb 04       		.uleb128 0x4
 585 00fc A2020000 		.4byte	.LASF22
 586 0100 09       		.byte	0x9
 587 0101 4D       		.byte	0x4d
 588 0102 9E000000 		.4byte	0x9e
 589 0106 04       		.uleb128 0x4
 590 0107 CA020000 		.4byte	.LASF23
 591 010b 09       		.byte	0x9
 592 010c 4F       		.byte	0x4f
 593 010d A9000000 		.4byte	0xa9
 594 0111 04       		.uleb128 0x4
 595 0112 52020000 		.4byte	.LASF24
 596 0116 09       		.byte	0x9
 597 0117 51       		.byte	0x51
 598 0118 9E000000 		.4byte	0x9e
 599 011c 04       		.uleb128 0x4
 600 011d AF040000 		.4byte	.LASF25
 601 0121 0A       		.byte	0xa
 602 0122 33       		.byte	0x33
 603 0123 A9000000 		.4byte	0xa9
 604 0127 04       		.uleb128 0x4
 605 0128 94040000 		.4byte	.LASF26
 606 012c 0A       		.byte	0xa
 607 012d 3F       		.byte	0x3f
 608 012e 32010000 		.4byte	0x132
 609 0132 06       		.uleb128 0x6
 610 0133 98020000 		.4byte	.LASF46
 611 0137 44       		.byte	0x44
 612 0138 03       		.byte	0x3
 613 0139 C2       		.byte	0xc2
 614 013a 1F020000 		.4byte	0x21f
 615 013e 07       		.uleb128 0x7
 616 013f F4030000 		.4byte	.LASF27
 617 0143 03       		.byte	0x3
 618 0144 C3       		.byte	0xc3
ARM GAS  /tmp/ccvPHCFl.s 			page 12


 619 0145 2A020000 		.4byte	0x22a
 620 0149 00       		.byte	0
 621 014a 07       		.uleb128 0x7
 622 014b 8F030000 		.4byte	.LASF28
 623 014f 03       		.byte	0x3
 624 0150 C5       		.byte	0xc5
 625 0151 2A020000 		.4byte	0x22a
 626 0155 04       		.byte	0x4
 627 0156 07       		.uleb128 0x7
 628 0157 E2000000 		.4byte	.LASF29
 629 015b 03       		.byte	0x3
 630 015c C7       		.byte	0xc7
 631 015d F0000000 		.4byte	0xf0
 632 0161 08       		.byte	0x8
 633 0162 07       		.uleb128 0x7
 634 0163 8B050000 		.4byte	.LASF30
 635 0167 03       		.byte	0x3
 636 0168 C8       		.byte	0xc8
 637 0169 5A040000 		.4byte	0x45a
 638 016d 0C       		.byte	0xc
 639 016e 07       		.uleb128 0x7
 640 016f 0C020000 		.4byte	.LASF31
 641 0173 03       		.byte	0x3
 642 0174 CA       		.byte	0xca
 643 0175 2A020000 		.4byte	0x22a
 644 0179 10       		.byte	0x10
 645 017a 07       		.uleb128 0x7
 646 017b 34030000 		.4byte	.LASF32
 647 017f 03       		.byte	0x3
 648 0180 CB       		.byte	0xcb
 649 0181 2A020000 		.4byte	0x22a
 650 0185 14       		.byte	0x14
 651 0186 07       		.uleb128 0x7
 652 0187 4D050000 		.4byte	.LASF33
 653 018b 03       		.byte	0x3
 654 018c D2       		.byte	0xd2
 655 018d D9050000 		.4byte	0x5d9
 656 0191 18       		.byte	0x18
 657 0192 07       		.uleb128 0x7
 658 0193 DE030000 		.4byte	.LASF34
 659 0197 03       		.byte	0x3
 660 0198 DD       		.byte	0xdd
 661 0199 DA000000 		.4byte	0xda
 662 019d 1C       		.byte	0x1c
 663 019e 07       		.uleb128 0x7
 664 019f FB030000 		.4byte	.LASF35
 665 01a3 03       		.byte	0x3
 666 01a4 E1       		.byte	0xe1
 667 01a5 CF000000 		.4byte	0xcf
 668 01a9 1D       		.byte	0x1d
 669 01aa 07       		.uleb128 0x7
 670 01ab 31050000 		.4byte	.LASF36
 671 01af 03       		.byte	0x3
 672 01b0 E6       		.byte	0xe6
 673 01b1 E5000000 		.4byte	0xe5
 674 01b5 1E       		.byte	0x1e
 675 01b6 08       		.uleb128 0x8
ARM GAS  /tmp/ccvPHCFl.s 			page 13


 676 01b7 705F7500 		.ascii	"p_u\000"
 677 01bb 03       		.byte	0x3
 678 01bc 3101     		.2byte	0x131
 679 01be 14050000 		.4byte	0x514
 680 01c2 20       		.byte	0x20
 681 01c3 09       		.uleb128 0x9
 682 01c4 EB020000 		.4byte	.LASF37
 683 01c8 03       		.byte	0x3
 684 01c9 3601     		.2byte	0x136
 685 01cb 30020000 		.4byte	0x230
 686 01cf 24       		.byte	0x24
 687 01d0 09       		.uleb128 0x9
 688 01d1 74020000 		.4byte	.LASF38
 689 01d5 03       		.byte	0x3
 690 01d6 3C01     		.2byte	0x13c
 691 01d8 54020000 		.4byte	0x254
 692 01dc 28       		.byte	0x28
 693 01dd 09       		.uleb128 0x9
 694 01de 6F050000 		.4byte	.LASF39
 695 01e2 03       		.byte	0x3
 696 01e3 4001     		.2byte	0x140
 697 01e5 FB000000 		.4byte	0xfb
 698 01e9 30       		.byte	0x30
 699 01ea 09       		.uleb128 0x9
 700 01eb 41040000 		.4byte	.LASF40
 701 01ef 03       		.byte	0x3
 702 01f0 4601     		.2byte	0x146
 703 01f2 06010000 		.4byte	0x106
 704 01f6 34       		.byte	0x34
 705 01f7 09       		.uleb128 0x9
 706 01f8 CA030000 		.4byte	.LASF41
 707 01fc 03       		.byte	0x3
 708 01fd 4D01     		.2byte	0x14d
 709 01ff D3050000 		.4byte	0x5d3
 710 0203 38       		.byte	0x38
 711 0204 09       		.uleb128 0x9
 712 0205 B9040000 		.4byte	.LASF42
 713 0209 03       		.byte	0x3
 714 020a 5101     		.2byte	0x151
 715 020c F0000000 		.4byte	0xf0
 716 0210 3C       		.byte	0x3c
 717 0211 09       		.uleb128 0x9
 718 0212 03010000 		.4byte	.LASF43
 719 0216 03       		.byte	0x3
 720 0217 5801     		.2byte	0x158
 721 0219 07030000 		.4byte	0x307
 722 021d 40       		.byte	0x40
 723 021e 00       		.byte	0
 724 021f 04       		.uleb128 0x4
 725 0220 FE020000 		.4byte	.LASF44
 726 0224 0A       		.byte	0xa
 727 0225 44       		.byte	0x44
 728 0226 2A020000 		.4byte	0x22a
 729 022a 0A       		.uleb128 0xa
 730 022b 04       		.byte	0x4
 731 022c 27010000 		.4byte	0x127
 732 0230 04       		.uleb128 0x4
ARM GAS  /tmp/ccvPHCFl.s 			page 14


 733 0231 54050000 		.4byte	.LASF45
 734 0235 0A       		.byte	0xa
 735 0236 49       		.byte	0x49
 736 0237 3B020000 		.4byte	0x23b
 737 023b 06       		.uleb128 0x6
 738 023c 6D040000 		.4byte	.LASF47
 739 0240 04       		.byte	0x4
 740 0241 03       		.byte	0x3
 741 0242 B0       		.byte	0xb0
 742 0243 54020000 		.4byte	0x254
 743 0247 07       		.uleb128 0x7
 744 0248 F4030000 		.4byte	.LASF27
 745 024c 03       		.byte	0x3
 746 024d B1       		.byte	0xb1
 747 024e 2A020000 		.4byte	0x22a
 748 0252 00       		.byte	0
 749 0253 00       		.byte	0
 750 0254 04       		.uleb128 0x4
 751 0255 18050000 		.4byte	.LASF48
 752 0259 0A       		.byte	0xa
 753 025a 50       		.byte	0x50
 754 025b 5F020000 		.4byte	0x25f
 755 025f 06       		.uleb128 0x6
 756 0260 D1000000 		.4byte	.LASF49
 757 0264 08       		.byte	0x8
 758 0265 03       		.byte	0x3
 759 0266 B7       		.byte	0xb7
 760 0267 84020000 		.4byte	0x284
 761 026b 07       		.uleb128 0x7
 762 026c F4030000 		.4byte	.LASF27
 763 0270 03       		.byte	0x3
 764 0271 B8       		.byte	0xb8
 765 0272 2A020000 		.4byte	0x22a
 766 0276 00       		.byte	0
 767 0277 07       		.uleb128 0x7
 768 0278 8F030000 		.4byte	.LASF28
 769 027c 03       		.byte	0x3
 770 027d B9       		.byte	0xb9
 771 027e 2A020000 		.4byte	0x22a
 772 0282 04       		.byte	0x4
 773 0283 00       		.byte	0
 774 0284 04       		.uleb128 0x4
 775 0285 00000000 		.4byte	.LASF50
 776 0289 0A       		.byte	0xa
 777 028a 57       		.byte	0x57
 778 028b 8F020000 		.4byte	0x28f
 779 028f 0B       		.uleb128 0xb
 780 0290 BC020000 		.4byte	.LASF51
 781 0294 1C       		.byte	0x1c
 782 0295 03       		.byte	0x3
 783 0296 9001     		.2byte	0x190
 784 0298 EB020000 		.4byte	0x2eb
 785 029c 09       		.uleb128 0x9
 786 029d 5C040000 		.4byte	.LASF52
 787 02a1 03       		.byte	0x3
 788 02a2 9101     		.2byte	0x191
 789 02a4 54020000 		.4byte	0x254
ARM GAS  /tmp/ccvPHCFl.s 			page 15


 790 02a8 00       		.byte	0
 791 02a9 09       		.uleb128 0x9
 792 02aa E6030000 		.4byte	.LASF53
 793 02ae 03       		.byte	0x3
 794 02af 9201     		.2byte	0x192
 795 02b1 F0000000 		.4byte	0xf0
 796 02b5 08       		.byte	0x8
 797 02b6 09       		.uleb128 0x9
 798 02b7 3C030000 		.4byte	.LASF54
 799 02bb 03       		.byte	0x3
 800 02bc 9401     		.2byte	0x194
 801 02be 5A040000 		.4byte	0x45a
 802 02c2 0C       		.byte	0xc
 803 02c3 09       		.uleb128 0x9
 804 02c4 1C020000 		.4byte	.LASF55
 805 02c8 03       		.byte	0x3
 806 02c9 9701     		.2byte	0x197
 807 02cb 2A020000 		.4byte	0x22a
 808 02cf 10       		.byte	0x10
 809 02d0 09       		.uleb128 0x9
 810 02d1 64030000 		.4byte	.LASF56
 811 02d5 03       		.byte	0x3
 812 02d6 9801     		.2byte	0x198
 813 02d8 2A020000 		.4byte	0x22a
 814 02dc 14       		.byte	0x14
 815 02dd 09       		.uleb128 0x9
 816 02de 5A030000 		.4byte	.LASF57
 817 02e2 03       		.byte	0x3
 818 02e3 9B01     		.2byte	0x19b
 819 02e5 2A020000 		.4byte	0x22a
 820 02e9 18       		.byte	0x18
 821 02ea 00       		.byte	0
 822 02eb 04       		.uleb128 0x4
 823 02ec C4040000 		.4byte	.LASF58
 824 02f0 0A       		.byte	0xa
 825 02f1 5C       		.byte	0x5c
 826 02f2 F6020000 		.4byte	0x2f6
 827 02f6 0A       		.uleb128 0xa
 828 02f7 04       		.byte	0x4
 829 02f8 FC020000 		.4byte	0x2fc
 830 02fc 0C       		.uleb128 0xc
 831 02fd 07030000 		.4byte	0x307
 832 0301 0D       		.uleb128 0xd
 833 0302 07030000 		.4byte	0x307
 834 0306 00       		.byte	0
 835 0307 0E       		.uleb128 0xe
 836 0308 04       		.byte	0x4
 837 0309 04       		.uleb128 0x4
 838 030a 7F030000 		.4byte	.LASF59
 839 030e 0A       		.byte	0xa
 840 030f 61       		.byte	0x61
 841 0310 14030000 		.4byte	0x314
 842 0314 0B       		.uleb128 0xb
 843 0315 16040000 		.4byte	.LASF60
 844 0319 14       		.byte	0x14
 845 031a 03       		.byte	0x3
 846 031b 6B01     		.2byte	0x16b
ARM GAS  /tmp/ccvPHCFl.s 			page 16


 847 031d 63030000 		.4byte	0x363
 848 0321 09       		.uleb128 0x9
 849 0322 65020000 		.4byte	.LASF61
 850 0326 03       		.byte	0x3
 851 0327 6C01     		.2byte	0x16c
 852 0329 EB050000 		.4byte	0x5eb
 853 032d 00       		.byte	0
 854 032e 09       		.uleb128 0x9
 855 032f 2D020000 		.4byte	.LASF62
 856 0333 03       		.byte	0x3
 857 0334 6D01     		.2byte	0x16d
 858 0336 EB050000 		.4byte	0x5eb
 859 033a 04       		.byte	0x4
 860 033b 09       		.uleb128 0x9
 861 033c 64040000 		.4byte	.LASF63
 862 0340 03       		.byte	0x3
 863 0341 6E01     		.2byte	0x16e
 864 0343 1C010000 		.4byte	0x11c
 865 0347 08       		.byte	0x8
 866 0348 09       		.uleb128 0x9
 867 0349 91050000 		.4byte	.LASF64
 868 034d 03       		.byte	0x3
 869 034e 6F01     		.2byte	0x16f
 870 0350 EB020000 		.4byte	0x2eb
 871 0354 0C       		.byte	0xc
 872 0355 09       		.uleb128 0x9
 873 0356 07050000 		.4byte	.LASF65
 874 035a 03       		.byte	0x3
 875 035b 7101     		.2byte	0x171
 876 035d 07030000 		.4byte	0x307
 877 0361 10       		.byte	0x10
 878 0362 00       		.byte	0
 879 0363 04       		.uleb128 0x4
 880 0364 AE000000 		.4byte	.LASF66
 881 0368 0A       		.byte	0xa
 882 0369 66       		.byte	0x66
 883 036a 6E030000 		.4byte	0x36e
 884 036e 0B       		.uleb128 0xb
 885 036f 11030000 		.4byte	.LASF67
 886 0373 10       		.byte	0x10
 887 0374 03       		.byte	0x3
 888 0375 7B01     		.2byte	0x17b
 889 0377 B0030000 		.4byte	0x3b0
 890 037b 09       		.uleb128 0x9
 891 037c 65020000 		.4byte	.LASF61
 892 0380 03       		.byte	0x3
 893 0381 7C01     		.2byte	0x17c
 894 0383 EB050000 		.4byte	0x5eb
 895 0387 00       		.byte	0
 896 0388 09       		.uleb128 0x9
 897 0389 2D020000 		.4byte	.LASF62
 898 038d 03       		.byte	0x3
 899 038e 7E01     		.2byte	0x17e
 900 0390 EB050000 		.4byte	0x5eb
 901 0394 04       		.byte	0x4
 902 0395 09       		.uleb128 0x9
 903 0396 64040000 		.4byte	.LASF63
ARM GAS  /tmp/ccvPHCFl.s 			page 17


 904 039a 03       		.byte	0x3
 905 039b 8001     		.2byte	0x180
 906 039d 1C010000 		.4byte	0x11c
 907 03a1 08       		.byte	0x8
 908 03a2 09       		.uleb128 0x9
 909 03a3 28030000 		.4byte	.LASF68
 910 03a7 03       		.byte	0x3
 911 03a8 8801     		.2byte	0x188
 912 03aa 1C010000 		.4byte	0x11c
 913 03ae 0C       		.byte	0xc
 914 03af 00       		.byte	0
 915 03b0 04       		.uleb128 0x4
 916 03b1 6A000000 		.4byte	.LASF69
 917 03b5 0A       		.byte	0xa
 918 03b6 6B       		.byte	0x6b
 919 03b7 BB030000 		.4byte	0x3bb
 920 03bb 0B       		.uleb128 0xb
 921 03bc 9E030000 		.4byte	.LASF70
 922 03c0 04       		.byte	0x4
 923 03c1 03       		.byte	0x3
 924 03c2 A201     		.2byte	0x1a2
 925 03c4 D6030000 		.4byte	0x3d6
 926 03c8 09       		.uleb128 0x9
 927 03c9 E6040000 		.4byte	.LASF71
 928 03cd 03       		.byte	0x3
 929 03ce AA01     		.2byte	0x1aa
 930 03d0 F1050000 		.4byte	0x5f1
 931 03d4 00       		.byte	0
 932 03d5 00       		.byte	0
 933 03d6 04       		.uleb128 0x4
 934 03d7 A8020000 		.4byte	.LASF72
 935 03db 0A       		.byte	0xa
 936 03dc 70       		.byte	0x70
 937 03dd E1030000 		.4byte	0x3e1
 938 03e1 0F       		.uleb128 0xf
 939 03e2 26010000 		.4byte	.LASF73
 940 03e6 5001     		.2byte	0x150
 941 03e8 03       		.byte	0x3
 942 03e9 C201     		.2byte	0x1c2
 943 03eb 3D040000 		.4byte	0x43d
 944 03ef 09       		.uleb128 0x9
 945 03f0 38050000 		.4byte	.LASF74
 946 03f4 03       		.byte	0x3
 947 03f5 C601     		.2byte	0x1c6
 948 03f7 84020000 		.4byte	0x284
 949 03fb 00       		.byte	0
 950 03fc 09       		.uleb128 0x9
 951 03fd 13010000 		.4byte	.LASF75
 952 0401 03       		.byte	0x3
 953 0402 CA01     		.2byte	0x1ca
 954 0404 63030000 		.4byte	0x363
 955 0408 1C       		.byte	0x1c
 956 0409 08       		.uleb128 0x8
 957 040a 64626700 		.ascii	"dbg\000"
 958 040e 03       		.byte	0x3
 959 040f CE01     		.2byte	0x1ce
 960 0411 B0030000 		.4byte	0x3b0
ARM GAS  /tmp/ccvPHCFl.s 			page 18


 961 0415 2C       		.byte	0x2c
 962 0416 09       		.uleb128 0x9
 963 0417 A3000000 		.4byte	.LASF76
 964 041b 03       		.byte	0x3
 965 041c D201     		.2byte	0x1d2
 966 041e 27010000 		.4byte	0x127
 967 0422 30       		.byte	0x30
 968 0423 08       		.uleb128 0x8
 969 0424 746D00   		.ascii	"tm\000"
 970 0427 03       		.byte	0x3
 971 0428 D701     		.2byte	0x1d7
 972 042a 09050000 		.4byte	0x509
 973 042e 74       		.byte	0x74
 974 042f 09       		.uleb128 0x9
 975 0430 43020000 		.4byte	.LASF77
 976 0434 03       		.byte	0x3
 977 0435 E301     		.2byte	0x1e3
 978 0437 F6050000 		.4byte	0x5f6
 979 043b 78       		.byte	0x78
 980 043c 00       		.byte	0
 981 043d 03       		.uleb128 0x3
 982 043e 04       		.byte	0x4
 983 043f 07       		.byte	0x7
 984 0440 F5020000 		.4byte	.LASF78
 985 0444 04       		.uleb128 0x4
 986 0445 24020000 		.4byte	.LASF79
 987 0449 0B       		.byte	0xb
 988 044a 65       		.byte	0x65
 989 044b 07030000 		.4byte	0x307
 990 044f 04       		.uleb128 0x4
 991 0450 E0020000 		.4byte	.LASF80
 992 0454 0B       		.byte	0xb
 993 0455 6D       		.byte	0x6d
 994 0456 B4000000 		.4byte	0xb4
 995 045a 06       		.uleb128 0x6
 996 045b F7040000 		.4byte	.LASF81
 997 045f 04       		.byte	0x4
 998 0460 0B       		.byte	0xb
 999 0461 89       		.byte	0x89
 1000 0462 73040000 		.4byte	0x473
 1001 0466 10       		.uleb128 0x10
 1002 0467 72313300 		.ascii	"r13\000"
 1003 046b 0B       		.byte	0xb
 1004 046c 8A       		.byte	0x8a
 1005 046d EE040000 		.4byte	0x4ee
 1006 0471 00       		.byte	0
 1007 0472 00       		.byte	0
 1008 0473 06       		.uleb128 0x6
 1009 0474 5E000000 		.4byte	.LASF82
 1010 0478 24       		.byte	0x24
 1011 0479 01       		.byte	0x1
 1012 047a FD       		.byte	0xfd
 1013 047b EE040000 		.4byte	0x4ee
 1014 047f 08       		.uleb128 0x8
 1015 0480 723400   		.ascii	"r4\000"
 1016 0483 01       		.byte	0x1
 1017 0484 1001     		.2byte	0x110
ARM GAS  /tmp/ccvPHCFl.s 			page 19


 1018 0486 44040000 		.4byte	0x444
 1019 048a 00       		.byte	0
 1020 048b 08       		.uleb128 0x8
 1021 048c 723500   		.ascii	"r5\000"
 1022 048f 01       		.byte	0x1
 1023 0490 1101     		.2byte	0x111
 1024 0492 44040000 		.4byte	0x444
 1025 0496 04       		.byte	0x4
 1026 0497 08       		.uleb128 0x8
 1027 0498 723600   		.ascii	"r6\000"
 1028 049b 01       		.byte	0x1
 1029 049c 1201     		.2byte	0x112
 1030 049e 44040000 		.4byte	0x444
 1031 04a2 08       		.byte	0x8
 1032 04a3 08       		.uleb128 0x8
 1033 04a4 723700   		.ascii	"r7\000"
 1034 04a7 01       		.byte	0x1
 1035 04a8 1301     		.2byte	0x113
 1036 04aa 44040000 		.4byte	0x444
 1037 04ae 0C       		.byte	0xc
 1038 04af 08       		.uleb128 0x8
 1039 04b0 723800   		.ascii	"r8\000"
 1040 04b3 01       		.byte	0x1
 1041 04b4 1401     		.2byte	0x114
 1042 04b6 44040000 		.4byte	0x444
 1043 04ba 10       		.byte	0x10
 1044 04bb 08       		.uleb128 0x8
 1045 04bc 723900   		.ascii	"r9\000"
 1046 04bf 01       		.byte	0x1
 1047 04c0 1501     		.2byte	0x115
 1048 04c2 44040000 		.4byte	0x444
 1049 04c6 14       		.byte	0x14
 1050 04c7 08       		.uleb128 0x8
 1051 04c8 72313000 		.ascii	"r10\000"
 1052 04cc 01       		.byte	0x1
 1053 04cd 1601     		.2byte	0x116
 1054 04cf 44040000 		.4byte	0x444
 1055 04d3 18       		.byte	0x18
 1056 04d4 08       		.uleb128 0x8
 1057 04d5 72313100 		.ascii	"r11\000"
 1058 04d9 01       		.byte	0x1
 1059 04da 1701     		.2byte	0x117
 1060 04dc 44040000 		.4byte	0x444
 1061 04e0 1C       		.byte	0x1c
 1062 04e1 08       		.uleb128 0x8
 1063 04e2 6C7200   		.ascii	"lr\000"
 1064 04e5 01       		.byte	0x1
 1065 04e6 1801     		.2byte	0x118
 1066 04e8 44040000 		.4byte	0x444
 1067 04ec 20       		.byte	0x20
 1068 04ed 00       		.byte	0
 1069 04ee 0A       		.uleb128 0xa
 1070 04ef 04       		.byte	0x4
 1071 04f0 73040000 		.4byte	0x473
 1072 04f4 11       		.uleb128 0x11
 1073 04f5 04       		.byte	0x4
 1074 04f6 0C       		.byte	0xc
ARM GAS  /tmp/ccvPHCFl.s 			page 20


 1075 04f7 38       		.byte	0x38
 1076 04f8 09050000 		.4byte	0x509
 1077 04fc 07       		.uleb128 0x7
 1078 04fd F0040000 		.4byte	.LASF83
 1079 0501 0C       		.byte	0xc
 1080 0502 3C       		.byte	0x3c
 1081 0503 C4000000 		.4byte	0xc4
 1082 0507 00       		.byte	0
 1083 0508 00       		.byte	0
 1084 0509 04       		.uleb128 0x4
 1085 050a 42030000 		.4byte	.LASF84
 1086 050e 0C       		.byte	0xc
 1087 050f 3D       		.byte	0x3d
 1088 0510 F4040000 		.4byte	0x4f4
 1089 0514 12       		.uleb128 0x12
 1090 0515 04       		.byte	0x4
 1091 0516 03       		.byte	0x3
 1092 0517 FA       		.byte	0xfa
 1093 0518 71050000 		.4byte	0x571
 1094 051c 13       		.uleb128 0x13
 1095 051d 44000000 		.4byte	.LASF85
 1096 0521 03       		.byte	0x3
 1097 0522 0101     		.2byte	0x101
 1098 0524 FB000000 		.4byte	0xfb
 1099 0528 13       		.uleb128 0x13
 1100 0529 9A000000 		.4byte	.LASF86
 1101 052d 03       		.byte	0x3
 1102 052e 0801     		.2byte	0x108
 1103 0530 FB000000 		.4byte	0xfb
 1104 0534 13       		.uleb128 0x13
 1105 0535 46050000 		.4byte	.LASF87
 1106 0539 03       		.byte	0x3
 1107 053a 0F01     		.2byte	0x10f
 1108 053c 07030000 		.4byte	0x307
 1109 0540 13       		.uleb128 0x13
 1110 0541 1A000000 		.4byte	.LASF88
 1111 0545 03       		.byte	0x3
 1112 0546 1601     		.2byte	0x116
 1113 0548 71050000 		.4byte	0x571
 1114 054c 13       		.uleb128 0x13
 1115 054d 6D020000 		.4byte	.LASF89
 1116 0551 03       		.byte	0x3
 1117 0552 1E01     		.2byte	0x11e
 1118 0554 9C050000 		.4byte	0x59c
 1119 0558 13       		.uleb128 0x13
 1120 0559 55040000 		.4byte	.LASF90
 1121 055d 03       		.byte	0x3
 1122 055e 2701     		.2byte	0x127
 1123 0560 D3050000 		.4byte	0x5d3
 1124 0564 13       		.uleb128 0x13
 1125 0565 ED030000 		.4byte	.LASF91
 1126 0569 03       		.byte	0x3
 1127 056a 2F01     		.2byte	0x12f
 1128 056c 06010000 		.4byte	0x106
 1129 0570 00       		.byte	0
 1130 0571 0A       		.uleb128 0xa
 1131 0572 04       		.byte	0x4
ARM GAS  /tmp/ccvPHCFl.s 			page 21


 1132 0573 1F020000 		.4byte	0x21f
 1133 0577 06       		.uleb128 0x6
 1134 0578 34040000 		.4byte	.LASF92
 1135 057c 0C       		.byte	0xc
 1136 057d 0D       		.byte	0xd
 1137 057e 34       		.byte	0x34
 1138 057f 9C050000 		.4byte	0x59c
 1139 0583 07       		.uleb128 0x7
 1140 0584 14020000 		.4byte	.LASF93
 1141 0588 0D       		.byte	0xd
 1142 0589 35       		.byte	0x35
 1143 058a 54020000 		.4byte	0x254
 1144 058e 00       		.byte	0
 1145 058f 07       		.uleb128 0x7
 1146 0590 7F020000 		.4byte	.LASF94
 1147 0594 0D       		.byte	0xd
 1148 0595 37       		.byte	0x37
 1149 0596 11010000 		.4byte	0x111
 1150 059a 08       		.byte	0x8
 1151 059b 00       		.byte	0
 1152 059c 0A       		.uleb128 0xa
 1153 059d 04       		.byte	0x4
 1154 059e 77050000 		.4byte	0x577
 1155 05a2 06       		.uleb128 0x6
 1156 05a3 28050000 		.4byte	.LASF95
 1157 05a7 10       		.byte	0x10
 1158 05a8 0E       		.byte	0xe
 1159 05a9 39       		.byte	0x39
 1160 05aa D3050000 		.4byte	0x5d3
 1161 05ae 07       		.uleb128 0x7
 1162 05af 0B010000 		.4byte	.LASF96
 1163 05b3 0E       		.byte	0xe
 1164 05b4 3A       		.byte	0x3a
 1165 05b5 54020000 		.4byte	0x254
 1166 05b9 00       		.byte	0
 1167 05ba 07       		.uleb128 0x7
 1168 05bb 83050000 		.4byte	.LASF97
 1169 05bf 0E       		.byte	0xe
 1170 05c0 3C       		.byte	0x3c
 1171 05c1 2A020000 		.4byte	0x22a
 1172 05c5 08       		.byte	0x8
 1173 05c6 07       		.uleb128 0x7
 1174 05c7 53030000 		.4byte	.LASF98
 1175 05cb 0E       		.byte	0xe
 1176 05cc 3E       		.byte	0x3e
 1177 05cd 11060000 		.4byte	0x611
 1178 05d1 0C       		.byte	0xc
 1179 05d2 00       		.byte	0
 1180 05d3 0A       		.uleb128 0xa
 1181 05d4 04       		.byte	0x4
 1182 05d5 A2050000 		.4byte	0x5a2
 1183 05d9 0A       		.uleb128 0xa
 1184 05da 04       		.byte	0x4
 1185 05db DF050000 		.4byte	0x5df
 1186 05df 14       		.uleb128 0x14
 1187 05e0 E4050000 		.4byte	0x5e4
 1188 05e4 03       		.uleb128 0x3
ARM GAS  /tmp/ccvPHCFl.s 			page 22


 1189 05e5 01       		.byte	0x1
 1190 05e6 08       		.byte	0x8
 1191 05e7 8F040000 		.4byte	.LASF99
 1192 05eb 0A       		.uleb128 0xa
 1193 05ec 04       		.byte	0x4
 1194 05ed 09030000 		.4byte	0x309
 1195 05f1 05       		.uleb128 0x5
 1196 05f2 D9050000 		.4byte	0x5d9
 1197 05f6 15       		.uleb128 0x15
 1198 05f7 4F040000 		.4byte	0x44f
 1199 05fb 06060000 		.4byte	0x606
 1200 05ff 16       		.uleb128 0x16
 1201 0600 3D040000 		.4byte	0x43d
 1202 0604 1A       		.byte	0x1a
 1203 0605 00       		.byte	0
 1204 0606 04       		.uleb128 0x4
 1205 0607 35020000 		.4byte	.LASF100
 1206 060b 0E       		.byte	0xe
 1207 060c 34       		.byte	0x34
 1208 060d A2050000 		.4byte	0x5a2
 1209 0611 0A       		.uleb128 0xa
 1210 0612 04       		.byte	0x4
 1211 0613 06060000 		.4byte	0x606
 1212 0617 17       		.uleb128 0x17
 1213 0618 D8040000 		.4byte	.LASF115
 1214 061c 02       		.byte	0x2
 1215 061d 2202     		.2byte	0x222
 1216 061f 03       		.byte	0x3
 1217 0620 31060000 		.4byte	0x631
 1218 0624 18       		.uleb128 0x18
 1219 0625 3D020000 		.4byte	.LASF116
 1220 0629 02       		.byte	0x2
 1221 062a 2202     		.2byte	0x222
 1222 062c A9000000 		.4byte	0xa9
 1223 0630 00       		.byte	0
 1224 0631 19       		.uleb128 0x19
 1225 0632 79000000 		.4byte	.LASF101
 1226 0636 01       		.byte	0x1
 1227 0637 C801     		.2byte	0x1c8
 1228 0639 00000000 		.4byte	.LFB127
 1229 063d 10000000 		.4byte	.LFE127-.LFB127
 1230 0641 01       		.uleb128 0x1
 1231 0642 9C       		.byte	0x9c
 1232 0643 61060000 		.4byte	0x661
 1233 0647 1A       		.uleb128 0x1a
 1234 0648 17060000 		.4byte	0x617
 1235 064c 06000000 		.4byte	.LBB6
 1236 0650 06000000 		.4byte	.LBE6-.LBB6
 1237 0654 01       		.byte	0x1
 1238 0655 CB01     		.2byte	0x1cb
 1239 0657 1B       		.uleb128 0x1b
 1240 0658 24060000 		.4byte	0x624
 1241 065c 02       		.uleb128 0x2
 1242 065d 91       		.byte	0x91
 1243 065e 7C       		.sleb128 -4
 1244 065f 00       		.byte	0
 1245 0660 00       		.byte	0
ARM GAS  /tmp/ccvPHCFl.s 			page 23


 1246 0661 19       		.uleb128 0x19
 1247 0662 1A010000 		.4byte	.LASF102
 1248 0666 01       		.byte	0x1
 1249 0667 D601     		.2byte	0x1d6
 1250 0669 00000000 		.4byte	.LFB128
 1251 066d 10000000 		.4byte	.LFE128-.LFB128
 1252 0671 01       		.uleb128 0x1
 1253 0672 9C       		.byte	0x9c
 1254 0673 91060000 		.4byte	0x691
 1255 0677 1A       		.uleb128 0x1a
 1256 0678 17060000 		.4byte	0x617
 1257 067c 06000000 		.4byte	.LBB8
 1258 0680 06000000 		.4byte	.LBE8-.LBB8
 1259 0684 01       		.byte	0x1
 1260 0685 D901     		.2byte	0x1d9
 1261 0687 1B       		.uleb128 0x1b
 1262 0688 24060000 		.4byte	0x624
 1263 068c 02       		.uleb128 0x2
 1264 068d 91       		.byte	0x91
 1265 068e 7C       		.sleb128 -4
 1266 068f 00       		.byte	0
 1267 0690 00       		.byte	0
 1268 0691 19       		.uleb128 0x19
 1269 0692 0D000000 		.4byte	.LASF103
 1270 0696 03       		.byte	0x3
 1271 0697 9702     		.2byte	0x297
 1272 0699 00000000 		.4byte	.LFB156
 1273 069d 26000000 		.4byte	.LFE156-.LFB156
 1274 06a1 01       		.uleb128 0x1
 1275 06a2 9C       		.byte	0x9c
 1276 06a3 C5060000 		.4byte	0x6c5
 1277 06a7 1C       		.uleb128 0x1c
 1278 06a8 747000   		.ascii	"tp\000"
 1279 06ab 03       		.byte	0x3
 1280 06ac 9702     		.2byte	0x297
 1281 06ae 2A020000 		.4byte	0x22a
 1282 06b2 02       		.uleb128 0x2
 1283 06b3 91       		.byte	0x91
 1284 06b4 7C       		.sleb128 -4
 1285 06b5 1C       		.uleb128 0x1c
 1286 06b6 74717000 		.ascii	"tqp\000"
 1287 06ba 03       		.byte	0x3
 1288 06bb 9702     		.2byte	0x297
 1289 06bd C5060000 		.4byte	0x6c5
 1290 06c1 02       		.uleb128 0x2
 1291 06c2 91       		.byte	0x91
 1292 06c3 78       		.sleb128 -8
 1293 06c4 00       		.byte	0
 1294 06c5 0A       		.uleb128 0xa
 1295 06c6 04       		.byte	0x4
 1296 06c7 54020000 		.4byte	0x254
 1297 06cb 1D       		.uleb128 0x1d
 1298 06cc 9D040000 		.4byte	.LASF105
 1299 06d0 03       		.byte	0x3
 1300 06d1 9F02     		.2byte	0x29f
 1301 06d3 2A020000 		.4byte	0x22a
 1302 06d7 00000000 		.4byte	.LFB157
ARM GAS  /tmp/ccvPHCFl.s 			page 24


 1303 06db 22000000 		.4byte	.LFE157-.LFB157
 1304 06df 01       		.uleb128 0x1
 1305 06e0 9C       		.byte	0x9c
 1306 06e1 03070000 		.4byte	0x703
 1307 06e5 1C       		.uleb128 0x1c
 1308 06e6 74717000 		.ascii	"tqp\000"
 1309 06ea 03       		.byte	0x3
 1310 06eb 9F02     		.2byte	0x29f
 1311 06ed C5060000 		.4byte	0x6c5
 1312 06f1 02       		.uleb128 0x2
 1313 06f2 91       		.byte	0x91
 1314 06f3 74       		.sleb128 -12
 1315 06f4 1E       		.uleb128 0x1e
 1316 06f5 747000   		.ascii	"tp\000"
 1317 06f8 03       		.byte	0x3
 1318 06f9 A002     		.2byte	0x2a0
 1319 06fb 2A020000 		.4byte	0x22a
 1320 06ff 02       		.uleb128 0x2
 1321 0700 91       		.byte	0x91
 1322 0701 7C       		.sleb128 -4
 1323 0702 00       		.byte	0
 1324 0703 1F       		.uleb128 0x1f
 1325 0704 0C040000 		.4byte	.LASF117
 1326 0708 04       		.byte	0x4
 1327 0709 5A01     		.2byte	0x15a
 1328 070b 00000000 		.4byte	.LFB167
 1329 070f 08000000 		.4byte	.LFE167-.LFB167
 1330 0713 01       		.uleb128 0x1
 1331 0714 9C       		.byte	0x9c
 1332 0715 20       		.uleb128 0x20
 1333 0716 63050000 		.4byte	.LASF104
 1334 071a 04       		.byte	0x4
 1335 071b 6601     		.2byte	0x166
 1336 071d 00000000 		.4byte	.LFB168
 1337 0721 08000000 		.4byte	.LFE168-.LFB168
 1338 0725 01       		.uleb128 0x1
 1339 0726 9C       		.byte	0x9c
 1340 0727 35070000 		.4byte	0x735
 1341 072b 21       		.uleb128 0x21
 1342 072c 03040000 		.4byte	.LASF109
 1343 0730 45070000 		.4byte	0x745
 1344 0734 00       		.byte	0
 1345 0735 15       		.uleb128 0x15
 1346 0736 E4050000 		.4byte	0x5e4
 1347 073a 45070000 		.4byte	0x745
 1348 073e 16       		.uleb128 0x16
 1349 073f 3D040000 		.4byte	0x43d
 1350 0743 0B       		.byte	0xb
 1351 0744 00       		.byte	0
 1352 0745 14       		.uleb128 0x14
 1353 0746 35070000 		.4byte	0x735
 1354 074a 22       		.uleb128 0x22
 1355 074b 4C010000 		.4byte	.LASF106
 1356 074f 05       		.byte	0x5
 1357 0750 4F       		.byte	0x4f
 1358 0751 71070000 		.4byte	0x771
 1359 0755 00000000 		.4byte	.LFB221
ARM GAS  /tmp/ccvPHCFl.s 			page 25


 1360 0759 1C000000 		.4byte	.LFE221-.LFB221
 1361 075d 01       		.uleb128 0x1
 1362 075e 9C       		.byte	0x9c
 1363 075f 71070000 		.4byte	0x771
 1364 0763 23       		.uleb128 0x23
 1365 0764 747000   		.ascii	"tp\000"
 1366 0767 05       		.byte	0x5
 1367 0768 4F       		.byte	0x4f
 1368 0769 2A020000 		.4byte	0x22a
 1369 076d 02       		.uleb128 0x2
 1370 076e 91       		.byte	0x91
 1371 076f 7C       		.sleb128 -4
 1372 0770 00       		.byte	0
 1373 0771 03       		.uleb128 0x3
 1374 0772 01       		.byte	0x1
 1375 0773 02       		.byte	0x2
 1376 0774 AE030000 		.4byte	.LASF107
 1377 0778 24       		.uleb128 0x24
 1378 0779 75050000 		.4byte	.LASF108
 1379 077d 05       		.byte	0x5
 1380 077e 6F       		.byte	0x6f
 1381 077f 00000000 		.4byte	.LFB223
 1382 0783 16000000 		.4byte	.LFE223-.LFB223
 1383 0787 01       		.uleb128 0x1
 1384 0788 9C       		.byte	0x9c
 1385 0789 A9070000 		.4byte	0x7a9
 1386 078d 23       		.uleb128 0x23
 1387 078e 747000   		.ascii	"tp\000"
 1388 0791 05       		.byte	0x5
 1389 0792 6F       		.byte	0x6f
 1390 0793 2A020000 		.4byte	0x22a
 1391 0797 02       		.uleb128 0x2
 1392 0798 91       		.byte	0x91
 1393 0799 74       		.sleb128 -12
 1394 079a 23       		.uleb128 0x23
 1395 079b 6D736700 		.ascii	"msg\000"
 1396 079f 05       		.byte	0x5
 1397 07a0 6F       		.byte	0x6f
 1398 07a1 FB000000 		.4byte	0xfb
 1399 07a5 02       		.uleb128 0x2
 1400 07a6 91       		.byte	0x91
 1401 07a7 70       		.sleb128 -16
 1402 07a8 00       		.byte	0
 1403 07a9 25       		.uleb128 0x25
 1404 07aa 39010000 		.4byte	.LASF110
 1405 07ae 06       		.byte	0x6
 1406 07af 57       		.byte	0x57
 1407 07b0 FB000000 		.4byte	0xfb
 1408 07b4 00000000 		.4byte	.LFB240
 1409 07b8 5C000000 		.4byte	.LFE240-.LFB240
 1410 07bc 01       		.uleb128 0x1
 1411 07bd 9C       		.byte	0x9c
 1412 07be F5070000 		.4byte	0x7f5
 1413 07c2 23       		.uleb128 0x23
 1414 07c3 747000   		.ascii	"tp\000"
 1415 07c6 06       		.byte	0x6
 1416 07c7 57       		.byte	0x57
ARM GAS  /tmp/ccvPHCFl.s 			page 26


 1417 07c8 2A020000 		.4byte	0x22a
 1418 07cc 02       		.uleb128 0x2
 1419 07cd 91       		.byte	0x91
 1420 07ce 6C       		.sleb128 -20
 1421 07cf 23       		.uleb128 0x23
 1422 07d0 6D736700 		.ascii	"msg\000"
 1423 07d4 06       		.byte	0x6
 1424 07d5 57       		.byte	0x57
 1425 07d6 FB000000 		.4byte	0xfb
 1426 07da 02       		.uleb128 0x2
 1427 07db 91       		.byte	0x91
 1428 07dc 68       		.sleb128 -24
 1429 07dd 26       		.uleb128 0x26
 1430 07de 63747000 		.ascii	"ctp\000"
 1431 07e2 06       		.byte	0x6
 1432 07e3 58       		.byte	0x58
 1433 07e4 2A020000 		.4byte	0x22a
 1434 07e8 02       		.uleb128 0x2
 1435 07e9 91       		.byte	0x91
 1436 07ea 74       		.sleb128 -12
 1437 07eb 21       		.uleb128 0x21
 1438 07ec 03040000 		.4byte	.LASF109
 1439 07f0 05080000 		.4byte	0x805
 1440 07f4 00       		.byte	0
 1441 07f5 15       		.uleb128 0x15
 1442 07f6 E4050000 		.4byte	0x5e4
 1443 07fa 05080000 		.4byte	0x805
 1444 07fe 16       		.uleb128 0x16
 1445 07ff 3D040000 		.4byte	0x43d
 1446 0803 09       		.byte	0x9
 1447 0804 00       		.byte	0
 1448 0805 14       		.uleb128 0x14
 1449 0806 F5070000 		.4byte	0x7f5
 1450 080a 25       		.uleb128 0x25
 1451 080b 0E050000 		.4byte	.LASF111
 1452 080f 06       		.byte	0x6
 1453 0810 78       		.byte	0x78
 1454 0811 2A020000 		.4byte	0x22a
 1455 0815 00000000 		.4byte	.LFB241
 1456 0819 4C000000 		.4byte	.LFE241-.LFB241
 1457 081d 01       		.uleb128 0x1
 1458 081e 9C       		.byte	0x9c
 1459 081f 31080000 		.4byte	0x831
 1460 0823 26       		.uleb128 0x26
 1461 0824 747000   		.ascii	"tp\000"
 1462 0827 06       		.byte	0x6
 1463 0828 79       		.byte	0x79
 1464 0829 2A020000 		.4byte	0x22a
 1465 082d 02       		.uleb128 0x2
 1466 082e 91       		.byte	0x91
 1467 082f 74       		.sleb128 -12
 1468 0830 00       		.byte	0
 1469 0831 27       		.uleb128 0x27
 1470 0832 27040000 		.4byte	.LASF118
 1471 0836 06       		.byte	0x6
 1472 0837 90       		.byte	0x90
 1473 0838 00000000 		.4byte	.LFB242
ARM GAS  /tmp/ccvPHCFl.s 			page 27


 1474 083c 1E000000 		.4byte	.LFE242-.LFB242
 1475 0840 01       		.uleb128 0x1
 1476 0841 9C       		.byte	0x9c
 1477 0842 6B080000 		.4byte	0x86b
 1478 0846 23       		.uleb128 0x23
 1479 0847 747000   		.ascii	"tp\000"
 1480 084a 06       		.byte	0x6
 1481 084b 90       		.byte	0x90
 1482 084c 2A020000 		.4byte	0x22a
 1483 0850 02       		.uleb128 0x2
 1484 0851 91       		.byte	0x91
 1485 0852 74       		.sleb128 -12
 1486 0853 23       		.uleb128 0x23
 1487 0854 6D736700 		.ascii	"msg\000"
 1488 0858 06       		.byte	0x6
 1489 0859 90       		.byte	0x90
 1490 085a FB000000 		.4byte	0xfb
 1491 085e 02       		.uleb128 0x2
 1492 085f 91       		.byte	0x91
 1493 0860 70       		.sleb128 -16
 1494 0861 21       		.uleb128 0x21
 1495 0862 03040000 		.4byte	.LASF109
 1496 0866 7B080000 		.4byte	0x87b
 1497 086a 00       		.byte	0
 1498 086b 15       		.uleb128 0x15
 1499 086c E4050000 		.4byte	0x5e4
 1500 0870 7B080000 		.4byte	0x87b
 1501 0874 16       		.uleb128 0x16
 1502 0875 3D040000 		.4byte	0x43d
 1503 0879 0C       		.byte	0xc
 1504 087a 00       		.byte	0
 1505 087b 14       		.uleb128 0x14
 1506 087c 6B080000 		.4byte	0x86b
 1507 0880 28       		.uleb128 0x28
 1508 0881 C4000000 		.4byte	.LASF112
 1509 0885 0F       		.byte	0xf
 1510 0886 FA06     		.2byte	0x6fa
 1511 0888 BF000000 		.4byte	0xbf
 1512 088c 29       		.uleb128 0x29
 1513 088d 636800   		.ascii	"ch\000"
 1514 0890 03       		.byte	0x3
 1515 0891 0902     		.2byte	0x209
 1516 0893 D6030000 		.4byte	0x3d6
 1517 0897 00       		.byte	0
 1518              		.section	.debug_abbrev,"",%progbits
 1519              	.Ldebug_abbrev0:
 1520 0000 01       		.uleb128 0x1
 1521 0001 11       		.uleb128 0x11
 1522 0002 01       		.byte	0x1
 1523 0003 25       		.uleb128 0x25
 1524 0004 0E       		.uleb128 0xe
 1525 0005 13       		.uleb128 0x13
 1526 0006 0B       		.uleb128 0xb
 1527 0007 03       		.uleb128 0x3
 1528 0008 0E       		.uleb128 0xe
 1529 0009 55       		.uleb128 0x55
 1530 000a 17       		.uleb128 0x17
ARM GAS  /tmp/ccvPHCFl.s 			page 28


 1531 000b 11       		.uleb128 0x11
 1532 000c 01       		.uleb128 0x1
 1533 000d 10       		.uleb128 0x10
 1534 000e 17       		.uleb128 0x17
 1535 000f 00       		.byte	0
 1536 0010 00       		.byte	0
 1537 0011 02       		.uleb128 0x2
 1538 0012 24       		.uleb128 0x24
 1539 0013 00       		.byte	0
 1540 0014 0B       		.uleb128 0xb
 1541 0015 0B       		.uleb128 0xb
 1542 0016 3E       		.uleb128 0x3e
 1543 0017 0B       		.uleb128 0xb
 1544 0018 03       		.uleb128 0x3
 1545 0019 08       		.uleb128 0x8
 1546 001a 00       		.byte	0
 1547 001b 00       		.byte	0
 1548 001c 03       		.uleb128 0x3
 1549 001d 24       		.uleb128 0x24
 1550 001e 00       		.byte	0
 1551 001f 0B       		.uleb128 0xb
 1552 0020 0B       		.uleb128 0xb
 1553 0021 3E       		.uleb128 0x3e
 1554 0022 0B       		.uleb128 0xb
 1555 0023 03       		.uleb128 0x3
 1556 0024 0E       		.uleb128 0xe
 1557 0025 00       		.byte	0
 1558 0026 00       		.byte	0
 1559 0027 04       		.uleb128 0x4
 1560 0028 16       		.uleb128 0x16
 1561 0029 00       		.byte	0
 1562 002a 03       		.uleb128 0x3
 1563 002b 0E       		.uleb128 0xe
 1564 002c 3A       		.uleb128 0x3a
 1565 002d 0B       		.uleb128 0xb
 1566 002e 3B       		.uleb128 0x3b
 1567 002f 0B       		.uleb128 0xb
 1568 0030 49       		.uleb128 0x49
 1569 0031 13       		.uleb128 0x13
 1570 0032 00       		.byte	0
 1571 0033 00       		.byte	0
 1572 0034 05       		.uleb128 0x5
 1573 0035 35       		.uleb128 0x35
 1574 0036 00       		.byte	0
 1575 0037 49       		.uleb128 0x49
 1576 0038 13       		.uleb128 0x13
 1577 0039 00       		.byte	0
 1578 003a 00       		.byte	0
 1579 003b 06       		.uleb128 0x6
 1580 003c 13       		.uleb128 0x13
 1581 003d 01       		.byte	0x1
 1582 003e 03       		.uleb128 0x3
 1583 003f 0E       		.uleb128 0xe
 1584 0040 0B       		.uleb128 0xb
 1585 0041 0B       		.uleb128 0xb
 1586 0042 3A       		.uleb128 0x3a
 1587 0043 0B       		.uleb128 0xb
ARM GAS  /tmp/ccvPHCFl.s 			page 29


 1588 0044 3B       		.uleb128 0x3b
 1589 0045 0B       		.uleb128 0xb
 1590 0046 01       		.uleb128 0x1
 1591 0047 13       		.uleb128 0x13
 1592 0048 00       		.byte	0
 1593 0049 00       		.byte	0
 1594 004a 07       		.uleb128 0x7
 1595 004b 0D       		.uleb128 0xd
 1596 004c 00       		.byte	0
 1597 004d 03       		.uleb128 0x3
 1598 004e 0E       		.uleb128 0xe
 1599 004f 3A       		.uleb128 0x3a
 1600 0050 0B       		.uleb128 0xb
 1601 0051 3B       		.uleb128 0x3b
 1602 0052 0B       		.uleb128 0xb
 1603 0053 49       		.uleb128 0x49
 1604 0054 13       		.uleb128 0x13
 1605 0055 38       		.uleb128 0x38
 1606 0056 0B       		.uleb128 0xb
 1607 0057 00       		.byte	0
 1608 0058 00       		.byte	0
 1609 0059 08       		.uleb128 0x8
 1610 005a 0D       		.uleb128 0xd
 1611 005b 00       		.byte	0
 1612 005c 03       		.uleb128 0x3
 1613 005d 08       		.uleb128 0x8
 1614 005e 3A       		.uleb128 0x3a
 1615 005f 0B       		.uleb128 0xb
 1616 0060 3B       		.uleb128 0x3b
 1617 0061 05       		.uleb128 0x5
 1618 0062 49       		.uleb128 0x49
 1619 0063 13       		.uleb128 0x13
 1620 0064 38       		.uleb128 0x38
 1621 0065 0B       		.uleb128 0xb
 1622 0066 00       		.byte	0
 1623 0067 00       		.byte	0
 1624 0068 09       		.uleb128 0x9
 1625 0069 0D       		.uleb128 0xd
 1626 006a 00       		.byte	0
 1627 006b 03       		.uleb128 0x3
 1628 006c 0E       		.uleb128 0xe
 1629 006d 3A       		.uleb128 0x3a
 1630 006e 0B       		.uleb128 0xb
 1631 006f 3B       		.uleb128 0x3b
 1632 0070 05       		.uleb128 0x5
 1633 0071 49       		.uleb128 0x49
 1634 0072 13       		.uleb128 0x13
 1635 0073 38       		.uleb128 0x38
 1636 0074 0B       		.uleb128 0xb
 1637 0075 00       		.byte	0
 1638 0076 00       		.byte	0
 1639 0077 0A       		.uleb128 0xa
 1640 0078 0F       		.uleb128 0xf
 1641 0079 00       		.byte	0
 1642 007a 0B       		.uleb128 0xb
 1643 007b 0B       		.uleb128 0xb
 1644 007c 49       		.uleb128 0x49
ARM GAS  /tmp/ccvPHCFl.s 			page 30


 1645 007d 13       		.uleb128 0x13
 1646 007e 00       		.byte	0
 1647 007f 00       		.byte	0
 1648 0080 0B       		.uleb128 0xb
 1649 0081 13       		.uleb128 0x13
 1650 0082 01       		.byte	0x1
 1651 0083 03       		.uleb128 0x3
 1652 0084 0E       		.uleb128 0xe
 1653 0085 0B       		.uleb128 0xb
 1654 0086 0B       		.uleb128 0xb
 1655 0087 3A       		.uleb128 0x3a
 1656 0088 0B       		.uleb128 0xb
 1657 0089 3B       		.uleb128 0x3b
 1658 008a 05       		.uleb128 0x5
 1659 008b 01       		.uleb128 0x1
 1660 008c 13       		.uleb128 0x13
 1661 008d 00       		.byte	0
 1662 008e 00       		.byte	0
 1663 008f 0C       		.uleb128 0xc
 1664 0090 15       		.uleb128 0x15
 1665 0091 01       		.byte	0x1
 1666 0092 27       		.uleb128 0x27
 1667 0093 19       		.uleb128 0x19
 1668 0094 01       		.uleb128 0x1
 1669 0095 13       		.uleb128 0x13
 1670 0096 00       		.byte	0
 1671 0097 00       		.byte	0
 1672 0098 0D       		.uleb128 0xd
 1673 0099 05       		.uleb128 0x5
 1674 009a 00       		.byte	0
 1675 009b 49       		.uleb128 0x49
 1676 009c 13       		.uleb128 0x13
 1677 009d 00       		.byte	0
 1678 009e 00       		.byte	0
 1679 009f 0E       		.uleb128 0xe
 1680 00a0 0F       		.uleb128 0xf
 1681 00a1 00       		.byte	0
 1682 00a2 0B       		.uleb128 0xb
 1683 00a3 0B       		.uleb128 0xb
 1684 00a4 00       		.byte	0
 1685 00a5 00       		.byte	0
 1686 00a6 0F       		.uleb128 0xf
 1687 00a7 13       		.uleb128 0x13
 1688 00a8 01       		.byte	0x1
 1689 00a9 03       		.uleb128 0x3
 1690 00aa 0E       		.uleb128 0xe
 1691 00ab 0B       		.uleb128 0xb
 1692 00ac 05       		.uleb128 0x5
 1693 00ad 3A       		.uleb128 0x3a
 1694 00ae 0B       		.uleb128 0xb
 1695 00af 3B       		.uleb128 0x3b
 1696 00b0 05       		.uleb128 0x5
 1697 00b1 01       		.uleb128 0x1
 1698 00b2 13       		.uleb128 0x13
 1699 00b3 00       		.byte	0
 1700 00b4 00       		.byte	0
 1701 00b5 10       		.uleb128 0x10
ARM GAS  /tmp/ccvPHCFl.s 			page 31


 1702 00b6 0D       		.uleb128 0xd
 1703 00b7 00       		.byte	0
 1704 00b8 03       		.uleb128 0x3
 1705 00b9 08       		.uleb128 0x8
 1706 00ba 3A       		.uleb128 0x3a
 1707 00bb 0B       		.uleb128 0xb
 1708 00bc 3B       		.uleb128 0x3b
 1709 00bd 0B       		.uleb128 0xb
 1710 00be 49       		.uleb128 0x49
 1711 00bf 13       		.uleb128 0x13
 1712 00c0 38       		.uleb128 0x38
 1713 00c1 0B       		.uleb128 0xb
 1714 00c2 00       		.byte	0
 1715 00c3 00       		.byte	0
 1716 00c4 11       		.uleb128 0x11
 1717 00c5 13       		.uleb128 0x13
 1718 00c6 01       		.byte	0x1
 1719 00c7 0B       		.uleb128 0xb
 1720 00c8 0B       		.uleb128 0xb
 1721 00c9 3A       		.uleb128 0x3a
 1722 00ca 0B       		.uleb128 0xb
 1723 00cb 3B       		.uleb128 0x3b
 1724 00cc 0B       		.uleb128 0xb
 1725 00cd 01       		.uleb128 0x1
 1726 00ce 13       		.uleb128 0x13
 1727 00cf 00       		.byte	0
 1728 00d0 00       		.byte	0
 1729 00d1 12       		.uleb128 0x12
 1730 00d2 17       		.uleb128 0x17
 1731 00d3 01       		.byte	0x1
 1732 00d4 0B       		.uleb128 0xb
 1733 00d5 0B       		.uleb128 0xb
 1734 00d6 3A       		.uleb128 0x3a
 1735 00d7 0B       		.uleb128 0xb
 1736 00d8 3B       		.uleb128 0x3b
 1737 00d9 0B       		.uleb128 0xb
 1738 00da 01       		.uleb128 0x1
 1739 00db 13       		.uleb128 0x13
 1740 00dc 00       		.byte	0
 1741 00dd 00       		.byte	0
 1742 00de 13       		.uleb128 0x13
 1743 00df 0D       		.uleb128 0xd
 1744 00e0 00       		.byte	0
 1745 00e1 03       		.uleb128 0x3
 1746 00e2 0E       		.uleb128 0xe
 1747 00e3 3A       		.uleb128 0x3a
 1748 00e4 0B       		.uleb128 0xb
 1749 00e5 3B       		.uleb128 0x3b
 1750 00e6 05       		.uleb128 0x5
 1751 00e7 49       		.uleb128 0x49
 1752 00e8 13       		.uleb128 0x13
 1753 00e9 00       		.byte	0
 1754 00ea 00       		.byte	0
 1755 00eb 14       		.uleb128 0x14
 1756 00ec 26       		.uleb128 0x26
 1757 00ed 00       		.byte	0
 1758 00ee 49       		.uleb128 0x49
ARM GAS  /tmp/ccvPHCFl.s 			page 32


 1759 00ef 13       		.uleb128 0x13
 1760 00f0 00       		.byte	0
 1761 00f1 00       		.byte	0
 1762 00f2 15       		.uleb128 0x15
 1763 00f3 01       		.uleb128 0x1
 1764 00f4 01       		.byte	0x1
 1765 00f5 49       		.uleb128 0x49
 1766 00f6 13       		.uleb128 0x13
 1767 00f7 01       		.uleb128 0x1
 1768 00f8 13       		.uleb128 0x13
 1769 00f9 00       		.byte	0
 1770 00fa 00       		.byte	0
 1771 00fb 16       		.uleb128 0x16
 1772 00fc 21       		.uleb128 0x21
 1773 00fd 00       		.byte	0
 1774 00fe 49       		.uleb128 0x49
 1775 00ff 13       		.uleb128 0x13
 1776 0100 2F       		.uleb128 0x2f
 1777 0101 0B       		.uleb128 0xb
 1778 0102 00       		.byte	0
 1779 0103 00       		.byte	0
 1780 0104 17       		.uleb128 0x17
 1781 0105 2E       		.uleb128 0x2e
 1782 0106 01       		.byte	0x1
 1783 0107 03       		.uleb128 0x3
 1784 0108 0E       		.uleb128 0xe
 1785 0109 3A       		.uleb128 0x3a
 1786 010a 0B       		.uleb128 0xb
 1787 010b 3B       		.uleb128 0x3b
 1788 010c 05       		.uleb128 0x5
 1789 010d 27       		.uleb128 0x27
 1790 010e 19       		.uleb128 0x19
 1791 010f 20       		.uleb128 0x20
 1792 0110 0B       		.uleb128 0xb
 1793 0111 01       		.uleb128 0x1
 1794 0112 13       		.uleb128 0x13
 1795 0113 00       		.byte	0
 1796 0114 00       		.byte	0
 1797 0115 18       		.uleb128 0x18
 1798 0116 05       		.uleb128 0x5
 1799 0117 00       		.byte	0
 1800 0118 03       		.uleb128 0x3
 1801 0119 0E       		.uleb128 0xe
 1802 011a 3A       		.uleb128 0x3a
 1803 011b 0B       		.uleb128 0xb
 1804 011c 3B       		.uleb128 0x3b
 1805 011d 05       		.uleb128 0x5
 1806 011e 49       		.uleb128 0x49
 1807 011f 13       		.uleb128 0x13
 1808 0120 00       		.byte	0
 1809 0121 00       		.byte	0
 1810 0122 19       		.uleb128 0x19
 1811 0123 2E       		.uleb128 0x2e
 1812 0124 01       		.byte	0x1
 1813 0125 03       		.uleb128 0x3
 1814 0126 0E       		.uleb128 0xe
 1815 0127 3A       		.uleb128 0x3a
ARM GAS  /tmp/ccvPHCFl.s 			page 33


 1816 0128 0B       		.uleb128 0xb
 1817 0129 3B       		.uleb128 0x3b
 1818 012a 05       		.uleb128 0x5
 1819 012b 27       		.uleb128 0x27
 1820 012c 19       		.uleb128 0x19
 1821 012d 11       		.uleb128 0x11
 1822 012e 01       		.uleb128 0x1
 1823 012f 12       		.uleb128 0x12
 1824 0130 06       		.uleb128 0x6
 1825 0131 40       		.uleb128 0x40
 1826 0132 18       		.uleb128 0x18
 1827 0133 9742     		.uleb128 0x2117
 1828 0135 19       		.uleb128 0x19
 1829 0136 01       		.uleb128 0x1
 1830 0137 13       		.uleb128 0x13
 1831 0138 00       		.byte	0
 1832 0139 00       		.byte	0
 1833 013a 1A       		.uleb128 0x1a
 1834 013b 1D       		.uleb128 0x1d
 1835 013c 01       		.byte	0x1
 1836 013d 31       		.uleb128 0x31
 1837 013e 13       		.uleb128 0x13
 1838 013f 11       		.uleb128 0x11
 1839 0140 01       		.uleb128 0x1
 1840 0141 12       		.uleb128 0x12
 1841 0142 06       		.uleb128 0x6
 1842 0143 58       		.uleb128 0x58
 1843 0144 0B       		.uleb128 0xb
 1844 0145 59       		.uleb128 0x59
 1845 0146 05       		.uleb128 0x5
 1846 0147 00       		.byte	0
 1847 0148 00       		.byte	0
 1848 0149 1B       		.uleb128 0x1b
 1849 014a 05       		.uleb128 0x5
 1850 014b 00       		.byte	0
 1851 014c 31       		.uleb128 0x31
 1852 014d 13       		.uleb128 0x13
 1853 014e 02       		.uleb128 0x2
 1854 014f 18       		.uleb128 0x18
 1855 0150 00       		.byte	0
 1856 0151 00       		.byte	0
 1857 0152 1C       		.uleb128 0x1c
 1858 0153 05       		.uleb128 0x5
 1859 0154 00       		.byte	0
 1860 0155 03       		.uleb128 0x3
 1861 0156 08       		.uleb128 0x8
 1862 0157 3A       		.uleb128 0x3a
 1863 0158 0B       		.uleb128 0xb
 1864 0159 3B       		.uleb128 0x3b
 1865 015a 05       		.uleb128 0x5
 1866 015b 49       		.uleb128 0x49
 1867 015c 13       		.uleb128 0x13
 1868 015d 02       		.uleb128 0x2
 1869 015e 18       		.uleb128 0x18
 1870 015f 00       		.byte	0
 1871 0160 00       		.byte	0
 1872 0161 1D       		.uleb128 0x1d
ARM GAS  /tmp/ccvPHCFl.s 			page 34


 1873 0162 2E       		.uleb128 0x2e
 1874 0163 01       		.byte	0x1
 1875 0164 03       		.uleb128 0x3
 1876 0165 0E       		.uleb128 0xe
 1877 0166 3A       		.uleb128 0x3a
 1878 0167 0B       		.uleb128 0xb
 1879 0168 3B       		.uleb128 0x3b
 1880 0169 05       		.uleb128 0x5
 1881 016a 27       		.uleb128 0x27
 1882 016b 19       		.uleb128 0x19
 1883 016c 49       		.uleb128 0x49
 1884 016d 13       		.uleb128 0x13
 1885 016e 11       		.uleb128 0x11
 1886 016f 01       		.uleb128 0x1
 1887 0170 12       		.uleb128 0x12
 1888 0171 06       		.uleb128 0x6
 1889 0172 40       		.uleb128 0x40
 1890 0173 18       		.uleb128 0x18
 1891 0174 9742     		.uleb128 0x2117
 1892 0176 19       		.uleb128 0x19
 1893 0177 01       		.uleb128 0x1
 1894 0178 13       		.uleb128 0x13
 1895 0179 00       		.byte	0
 1896 017a 00       		.byte	0
 1897 017b 1E       		.uleb128 0x1e
 1898 017c 34       		.uleb128 0x34
 1899 017d 00       		.byte	0
 1900 017e 03       		.uleb128 0x3
 1901 017f 08       		.uleb128 0x8
 1902 0180 3A       		.uleb128 0x3a
 1903 0181 0B       		.uleb128 0xb
 1904 0182 3B       		.uleb128 0x3b
 1905 0183 05       		.uleb128 0x5
 1906 0184 49       		.uleb128 0x49
 1907 0185 13       		.uleb128 0x13
 1908 0186 02       		.uleb128 0x2
 1909 0187 18       		.uleb128 0x18
 1910 0188 00       		.byte	0
 1911 0189 00       		.byte	0
 1912 018a 1F       		.uleb128 0x1f
 1913 018b 2E       		.uleb128 0x2e
 1914 018c 00       		.byte	0
 1915 018d 03       		.uleb128 0x3
 1916 018e 0E       		.uleb128 0xe
 1917 018f 3A       		.uleb128 0x3a
 1918 0190 0B       		.uleb128 0xb
 1919 0191 3B       		.uleb128 0x3b
 1920 0192 05       		.uleb128 0x5
 1921 0193 27       		.uleb128 0x27
 1922 0194 19       		.uleb128 0x19
 1923 0195 11       		.uleb128 0x11
 1924 0196 01       		.uleb128 0x1
 1925 0197 12       		.uleb128 0x12
 1926 0198 06       		.uleb128 0x6
 1927 0199 40       		.uleb128 0x40
 1928 019a 18       		.uleb128 0x18
 1929 019b 9642     		.uleb128 0x2116
ARM GAS  /tmp/ccvPHCFl.s 			page 35


 1930 019d 19       		.uleb128 0x19
 1931 019e 00       		.byte	0
 1932 019f 00       		.byte	0
 1933 01a0 20       		.uleb128 0x20
 1934 01a1 2E       		.uleb128 0x2e
 1935 01a2 01       		.byte	0x1
 1936 01a3 03       		.uleb128 0x3
 1937 01a4 0E       		.uleb128 0xe
 1938 01a5 3A       		.uleb128 0x3a
 1939 01a6 0B       		.uleb128 0xb
 1940 01a7 3B       		.uleb128 0x3b
 1941 01a8 05       		.uleb128 0x5
 1942 01a9 27       		.uleb128 0x27
 1943 01aa 19       		.uleb128 0x19
 1944 01ab 11       		.uleb128 0x11
 1945 01ac 01       		.uleb128 0x1
 1946 01ad 12       		.uleb128 0x12
 1947 01ae 06       		.uleb128 0x6
 1948 01af 40       		.uleb128 0x40
 1949 01b0 18       		.uleb128 0x18
 1950 01b1 9642     		.uleb128 0x2116
 1951 01b3 19       		.uleb128 0x19
 1952 01b4 01       		.uleb128 0x1
 1953 01b5 13       		.uleb128 0x13
 1954 01b6 00       		.byte	0
 1955 01b7 00       		.byte	0
 1956 01b8 21       		.uleb128 0x21
 1957 01b9 34       		.uleb128 0x34
 1958 01ba 00       		.byte	0
 1959 01bb 03       		.uleb128 0x3
 1960 01bc 0E       		.uleb128 0xe
 1961 01bd 49       		.uleb128 0x49
 1962 01be 13       		.uleb128 0x13
 1963 01bf 34       		.uleb128 0x34
 1964 01c0 19       		.uleb128 0x19
 1965 01c1 00       		.byte	0
 1966 01c2 00       		.byte	0
 1967 01c3 22       		.uleb128 0x22
 1968 01c4 2E       		.uleb128 0x2e
 1969 01c5 01       		.byte	0x1
 1970 01c6 03       		.uleb128 0x3
 1971 01c7 0E       		.uleb128 0xe
 1972 01c8 3A       		.uleb128 0x3a
 1973 01c9 0B       		.uleb128 0xb
 1974 01ca 3B       		.uleb128 0x3b
 1975 01cb 0B       		.uleb128 0xb
 1976 01cc 27       		.uleb128 0x27
 1977 01cd 19       		.uleb128 0x19
 1978 01ce 49       		.uleb128 0x49
 1979 01cf 13       		.uleb128 0x13
 1980 01d0 11       		.uleb128 0x11
 1981 01d1 01       		.uleb128 0x1
 1982 01d2 12       		.uleb128 0x12
 1983 01d3 06       		.uleb128 0x6
 1984 01d4 40       		.uleb128 0x40
 1985 01d5 18       		.uleb128 0x18
 1986 01d6 9742     		.uleb128 0x2117
ARM GAS  /tmp/ccvPHCFl.s 			page 36


 1987 01d8 19       		.uleb128 0x19
 1988 01d9 01       		.uleb128 0x1
 1989 01da 13       		.uleb128 0x13
 1990 01db 00       		.byte	0
 1991 01dc 00       		.byte	0
 1992 01dd 23       		.uleb128 0x23
 1993 01de 05       		.uleb128 0x5
 1994 01df 00       		.byte	0
 1995 01e0 03       		.uleb128 0x3
 1996 01e1 08       		.uleb128 0x8
 1997 01e2 3A       		.uleb128 0x3a
 1998 01e3 0B       		.uleb128 0xb
 1999 01e4 3B       		.uleb128 0x3b
 2000 01e5 0B       		.uleb128 0xb
 2001 01e6 49       		.uleb128 0x49
 2002 01e7 13       		.uleb128 0x13
 2003 01e8 02       		.uleb128 0x2
 2004 01e9 18       		.uleb128 0x18
 2005 01ea 00       		.byte	0
 2006 01eb 00       		.byte	0
 2007 01ec 24       		.uleb128 0x24
 2008 01ed 2E       		.uleb128 0x2e
 2009 01ee 01       		.byte	0x1
 2010 01ef 03       		.uleb128 0x3
 2011 01f0 0E       		.uleb128 0xe
 2012 01f1 3A       		.uleb128 0x3a
 2013 01f2 0B       		.uleb128 0xb
 2014 01f3 3B       		.uleb128 0x3b
 2015 01f4 0B       		.uleb128 0xb
 2016 01f5 27       		.uleb128 0x27
 2017 01f6 19       		.uleb128 0x19
 2018 01f7 11       		.uleb128 0x11
 2019 01f8 01       		.uleb128 0x1
 2020 01f9 12       		.uleb128 0x12
 2021 01fa 06       		.uleb128 0x6
 2022 01fb 40       		.uleb128 0x40
 2023 01fc 18       		.uleb128 0x18
 2024 01fd 9642     		.uleb128 0x2116
 2025 01ff 19       		.uleb128 0x19
 2026 0200 01       		.uleb128 0x1
 2027 0201 13       		.uleb128 0x13
 2028 0202 00       		.byte	0
 2029 0203 00       		.byte	0
 2030 0204 25       		.uleb128 0x25
 2031 0205 2E       		.uleb128 0x2e
 2032 0206 01       		.byte	0x1
 2033 0207 3F       		.uleb128 0x3f
 2034 0208 19       		.uleb128 0x19
 2035 0209 03       		.uleb128 0x3
 2036 020a 0E       		.uleb128 0xe
 2037 020b 3A       		.uleb128 0x3a
 2038 020c 0B       		.uleb128 0xb
 2039 020d 3B       		.uleb128 0x3b
 2040 020e 0B       		.uleb128 0xb
 2041 020f 27       		.uleb128 0x27
 2042 0210 19       		.uleb128 0x19
 2043 0211 49       		.uleb128 0x49
ARM GAS  /tmp/ccvPHCFl.s 			page 37


 2044 0212 13       		.uleb128 0x13
 2045 0213 11       		.uleb128 0x11
 2046 0214 01       		.uleb128 0x1
 2047 0215 12       		.uleb128 0x12
 2048 0216 06       		.uleb128 0x6
 2049 0217 40       		.uleb128 0x40
 2050 0218 18       		.uleb128 0x18
 2051 0219 9642     		.uleb128 0x2116
 2052 021b 19       		.uleb128 0x19
 2053 021c 01       		.uleb128 0x1
 2054 021d 13       		.uleb128 0x13
 2055 021e 00       		.byte	0
 2056 021f 00       		.byte	0
 2057 0220 26       		.uleb128 0x26
 2058 0221 34       		.uleb128 0x34
 2059 0222 00       		.byte	0
 2060 0223 03       		.uleb128 0x3
 2061 0224 08       		.uleb128 0x8
 2062 0225 3A       		.uleb128 0x3a
 2063 0226 0B       		.uleb128 0xb
 2064 0227 3B       		.uleb128 0x3b
 2065 0228 0B       		.uleb128 0xb
 2066 0229 49       		.uleb128 0x49
 2067 022a 13       		.uleb128 0x13
 2068 022b 02       		.uleb128 0x2
 2069 022c 18       		.uleb128 0x18
 2070 022d 00       		.byte	0
 2071 022e 00       		.byte	0
 2072 022f 27       		.uleb128 0x27
 2073 0230 2E       		.uleb128 0x2e
 2074 0231 01       		.byte	0x1
 2075 0232 3F       		.uleb128 0x3f
 2076 0233 19       		.uleb128 0x19
 2077 0234 03       		.uleb128 0x3
 2078 0235 0E       		.uleb128 0xe
 2079 0236 3A       		.uleb128 0x3a
 2080 0237 0B       		.uleb128 0xb
 2081 0238 3B       		.uleb128 0x3b
 2082 0239 0B       		.uleb128 0xb
 2083 023a 27       		.uleb128 0x27
 2084 023b 19       		.uleb128 0x19
 2085 023c 11       		.uleb128 0x11
 2086 023d 01       		.uleb128 0x1
 2087 023e 12       		.uleb128 0x12
 2088 023f 06       		.uleb128 0x6
 2089 0240 40       		.uleb128 0x40
 2090 0241 18       		.uleb128 0x18
 2091 0242 9642     		.uleb128 0x2116
 2092 0244 19       		.uleb128 0x19
 2093 0245 01       		.uleb128 0x1
 2094 0246 13       		.uleb128 0x13
 2095 0247 00       		.byte	0
 2096 0248 00       		.byte	0
 2097 0249 28       		.uleb128 0x28
 2098 024a 34       		.uleb128 0x34
 2099 024b 00       		.byte	0
 2100 024c 03       		.uleb128 0x3
ARM GAS  /tmp/ccvPHCFl.s 			page 38


 2101 024d 0E       		.uleb128 0xe
 2102 024e 3A       		.uleb128 0x3a
 2103 024f 0B       		.uleb128 0xb
 2104 0250 3B       		.uleb128 0x3b
 2105 0251 05       		.uleb128 0x5
 2106 0252 49       		.uleb128 0x49
 2107 0253 13       		.uleb128 0x13
 2108 0254 3F       		.uleb128 0x3f
 2109 0255 19       		.uleb128 0x19
 2110 0256 3C       		.uleb128 0x3c
 2111 0257 19       		.uleb128 0x19
 2112 0258 00       		.byte	0
 2113 0259 00       		.byte	0
 2114 025a 29       		.uleb128 0x29
 2115 025b 34       		.uleb128 0x34
 2116 025c 00       		.byte	0
 2117 025d 03       		.uleb128 0x3
 2118 025e 08       		.uleb128 0x8
 2119 025f 3A       		.uleb128 0x3a
 2120 0260 0B       		.uleb128 0xb
 2121 0261 3B       		.uleb128 0x3b
 2122 0262 05       		.uleb128 0x5
 2123 0263 49       		.uleb128 0x49
 2124 0264 13       		.uleb128 0x13
 2125 0265 3F       		.uleb128 0x3f
 2126 0266 19       		.uleb128 0x19
 2127 0267 3C       		.uleb128 0x3c
 2128 0268 19       		.uleb128 0x19
 2129 0269 00       		.byte	0
 2130 026a 00       		.byte	0
 2131 026b 00       		.byte	0
 2132              		.section	.debug_aranges,"",%progbits
 2133 0000 6C000000 		.4byte	0x6c
 2134 0004 0200     		.2byte	0x2
 2135 0006 00000000 		.4byte	.Ldebug_info0
 2136 000a 04       		.byte	0x4
 2137 000b 00       		.byte	0
 2138 000c 0000     		.2byte	0
 2139 000e 0000     		.2byte	0
 2140 0010 00000000 		.4byte	.LFB127
 2141 0014 10000000 		.4byte	.LFE127-.LFB127
 2142 0018 00000000 		.4byte	.LFB128
 2143 001c 10000000 		.4byte	.LFE128-.LFB128
 2144 0020 00000000 		.4byte	.LFB156
 2145 0024 26000000 		.4byte	.LFE156-.LFB156
 2146 0028 00000000 		.4byte	.LFB157
 2147 002c 22000000 		.4byte	.LFE157-.LFB157
 2148 0030 00000000 		.4byte	.LFB167
 2149 0034 08000000 		.4byte	.LFE167-.LFB167
 2150 0038 00000000 		.4byte	.LFB168
 2151 003c 08000000 		.4byte	.LFE168-.LFB168
 2152 0040 00000000 		.4byte	.LFB221
 2153 0044 1C000000 		.4byte	.LFE221-.LFB221
 2154 0048 00000000 		.4byte	.LFB223
 2155 004c 16000000 		.4byte	.LFE223-.LFB223
 2156 0050 00000000 		.4byte	.LFB240
 2157 0054 5C000000 		.4byte	.LFE240-.LFB240
ARM GAS  /tmp/ccvPHCFl.s 			page 39


 2158 0058 00000000 		.4byte	.LFB241
 2159 005c 4C000000 		.4byte	.LFE241-.LFB241
 2160 0060 00000000 		.4byte	.LFB242
 2161 0064 1E000000 		.4byte	.LFE242-.LFB242
 2162 0068 00000000 		.4byte	0
 2163 006c 00000000 		.4byte	0
 2164              		.section	.debug_ranges,"",%progbits
 2165              	.Ldebug_ranges0:
 2166 0000 00000000 		.4byte	.LFB127
 2167 0004 10000000 		.4byte	.LFE127
 2168 0008 00000000 		.4byte	.LFB128
 2169 000c 10000000 		.4byte	.LFE128
 2170 0010 00000000 		.4byte	.LFB156
 2171 0014 26000000 		.4byte	.LFE156
 2172 0018 00000000 		.4byte	.LFB157
 2173 001c 22000000 		.4byte	.LFE157
 2174 0020 00000000 		.4byte	.LFB167
 2175 0024 08000000 		.4byte	.LFE167
 2176 0028 00000000 		.4byte	.LFB168
 2177 002c 08000000 		.4byte	.LFE168
 2178 0030 00000000 		.4byte	.LFB221
 2179 0034 1C000000 		.4byte	.LFE221
 2180 0038 00000000 		.4byte	.LFB223
 2181 003c 16000000 		.4byte	.LFE223
 2182 0040 00000000 		.4byte	.LFB240
 2183 0044 5C000000 		.4byte	.LFE240
 2184 0048 00000000 		.4byte	.LFB241
 2185 004c 4C000000 		.4byte	.LFE241
 2186 0050 00000000 		.4byte	.LFB242
 2187 0054 1E000000 		.4byte	.LFE242
 2188 0058 00000000 		.4byte	0
 2189 005c 00000000 		.4byte	0
 2190              		.section	.debug_line,"",%progbits
 2191              	.Ldebug_line0:
 2192 0000 CF020000 		.section	.debug_str,"MS",%progbits,1
 2192      0200C301 
 2192      00000201 
 2192      FB0E0D00 
 2192      01010101 
 2193              	.LASF50:
 2194 0000 72656164 		.ascii	"ready_list_t\000"
 2194      795F6C69 
 2194      73745F74 
 2194      00
 2195              	.LASF103:
 2196 000d 71756575 		.ascii	"queue_insert\000"
 2196      655F696E 
 2196      73657274 
 2196      00
 2197              	.LASF88:
 2198 001a 77747472 		.ascii	"wttrp\000"
 2198      7000
 2199              	.LASF114:
 2200 0020 2F686F6D 		.ascii	"/home/efe/ChibiOS/os/rt/src/chmsg.c\000"
 2200      652F6566 
 2200      652F4368 
 2200      6962694F 
ARM GAS  /tmp/ccvPHCFl.s 			page 40


 2200      532F6F73 
 2201              	.LASF85:
 2202 0044 7264796D 		.ascii	"rdymsg\000"
 2202      736700
 2203              	.LASF16:
 2204 004b 75696E74 		.ascii	"uint64_t\000"
 2204      36345F74 
 2204      00
 2205              	.LASF5:
 2206 0054 5F5F7569 		.ascii	"__uint8_t\000"
 2206      6E74385F 
 2206      7400
 2207              	.LASF82:
 2208 005e 706F7274 		.ascii	"port_intctx\000"
 2208      5F696E74 
 2208      63747800 
 2209              	.LASF69:
 2210 006a 73797374 		.ascii	"system_debug_t\000"
 2210      656D5F64 
 2210      65627567 
 2210      5F7400
 2211              	.LASF101:
 2212 0079 706F7274 		.ascii	"port_lock\000"
 2212      5F6C6F63 
 2212      6B00
 2213              	.LASF12:
 2214 0083 6C6F6E67 		.ascii	"long long unsigned int\000"
 2214      206C6F6E 
 2214      6720756E 
 2214      7369676E 
 2214      65642069 
 2215              	.LASF86:
 2216 009a 65786974 		.ascii	"exitcode\000"
 2216      636F6465 
 2216      00
 2217              	.LASF76:
 2218 00a3 6D61696E 		.ascii	"mainthread\000"
 2218      74687265 
 2218      616400
 2219              	.LASF66:
 2220 00ae 76697274 		.ascii	"virtual_timers_list_t\000"
 2220      75616C5F 
 2220      74696D65 
 2220      72735F6C 
 2220      6973745F 
 2221              	.LASF112:
 2222 00c4 49544D5F 		.ascii	"ITM_RxBuffer\000"
 2222      52784275 
 2222      66666572 
 2222      00
 2223              	.LASF49:
 2224 00d1 63685F74 		.ascii	"ch_threads_queue\000"
 2224      68726561 
 2224      64735F71 
 2224      75657565 
 2224      00
 2225              	.LASF29:
ARM GAS  /tmp/ccvPHCFl.s 			page 41


 2226 00e2 705F7072 		.ascii	"p_prio\000"
 2226      696F00
 2227              	.LASF10:
 2228 00e9 6C6F6E67 		.ascii	"long long int\000"
 2228      206C6F6E 
 2228      6720696E 
 2228      7400
 2229              	.LASF1:
 2230 00f7 7369676E 		.ascii	"signed char\000"
 2230      65642063 
 2230      68617200 
 2231              	.LASF43:
 2232 0103 705F6D70 		.ascii	"p_mpool\000"
 2232      6F6F6C00 
 2233              	.LASF96:
 2234 010b 6D5F7175 		.ascii	"m_queue\000"
 2234      65756500 
 2235              	.LASF75:
 2236 0113 76746C69 		.ascii	"vtlist\000"
 2236      737400
 2237              	.LASF102:
 2238 011a 706F7274 		.ascii	"port_unlock\000"
 2238      5F756E6C 
 2238      6F636B00 
 2239              	.LASF73:
 2240 0126 63685F73 		.ascii	"ch_system\000"
 2240      79737465 
 2240      6D00
 2241              	.LASF7:
 2242 0130 6C6F6E67 		.ascii	"long int\000"
 2242      20696E74 
 2242      00
 2243              	.LASF110:
 2244 0139 63684D73 		.ascii	"chMsgSend\000"
 2244      6753656E 
 2244      6400
 2245              	.LASF19:
 2246 0143 74737461 		.ascii	"tstate_t\000"
 2246      74655F74 
 2246      00
 2247              	.LASF106:
 2248 014c 63684D73 		.ascii	"chMsgIsPendingI\000"
 2248      67497350 
 2248      656E6469 
 2248      6E674900 
 2249              	.LASF113:
 2250 015c 474E5520 		.ascii	"GNU C 4.8.4 20141219 (release) -mcpu=cortex-m4 -mno"
 2250      4320342E 
 2250      382E3420 
 2250      32303134 
 2250      31323139 
 2251 018f 2D746875 		.ascii	"-thumb-interwork -mthumb -ggdb -O0 -fomit-frame-poi"
 2251      6D622D69 
 2251      6E746572 
 2251      776F726B 
 2251      202D6D74 
 2252 01c2 6E746572 		.ascii	"nter -falign-functions=16 -ffunction-sections -fdat"
ARM GAS  /tmp/ccvPHCFl.s 			page 42


 2252      202D6661 
 2252      6C69676E 
 2252      2D66756E 
 2252      6374696F 
 2253 01f5 612D7365 		.ascii	"a-sections -fno-common\000"
 2253      6374696F 
 2253      6E73202D 
 2253      666E6F2D 
 2253      636F6D6D 
 2254              	.LASF31:
 2255 020c 705F6E65 		.ascii	"p_newer\000"
 2255      77657200 
 2256              	.LASF93:
 2257 0214 735F7175 		.ascii	"s_queue\000"
 2257      65756500 
 2258              	.LASF55:
 2259 021c 725F6E65 		.ascii	"r_newer\000"
 2259      77657200 
 2260              	.LASF79:
 2261 0224 72656761 		.ascii	"regarm_t\000"
 2261      726D5F74 
 2261      00
 2262              	.LASF62:
 2263 022d 76745F70 		.ascii	"vt_prev\000"
 2263      72657600 
 2264              	.LASF100:
 2265 0235 6D757465 		.ascii	"mutex_t\000"
 2265      785F7400 
 2266              	.LASF116:
 2267 023d 76616C75 		.ascii	"value\000"
 2267      6500
 2268              	.LASF77:
 2269 0243 69646C65 		.ascii	"idle_thread_wa\000"
 2269      5F746872 
 2269      6561645F 
 2269      776100
 2270              	.LASF24:
 2271 0252 636E745F 		.ascii	"cnt_t\000"
 2271      7400
 2272              	.LASF0:
 2273 0258 756E7369 		.ascii	"unsigned int\000"
 2273      676E6564 
 2273      20696E74 
 2273      00
 2274              	.LASF61:
 2275 0265 76745F6E 		.ascii	"vt_next\000"
 2275      65787400 
 2276              	.LASF89:
 2277 026d 77747365 		.ascii	"wtsemp\000"
 2277      6D7000
 2278              	.LASF38:
 2279 0274 705F6D73 		.ascii	"p_msgqueue\000"
 2279      67717565 
 2279      756500
 2280              	.LASF94:
 2281 027f 735F636E 		.ascii	"s_cnt\000"
 2281      7400
ARM GAS  /tmp/ccvPHCFl.s 			page 43


 2282              	.LASF4:
 2283 0285 73686F72 		.ascii	"short unsigned int\000"
 2283      7420756E 
 2283      7369676E 
 2283      65642069 
 2283      6E7400
 2284              	.LASF46:
 2285 0298 63685F74 		.ascii	"ch_thread\000"
 2285      68726561 
 2285      6400
 2286              	.LASF22:
 2287 02a2 6D73675F 		.ascii	"msg_t\000"
 2287      7400
 2288              	.LASF72:
 2289 02a8 63685F73 		.ascii	"ch_system_t\000"
 2289      79737465 
 2289      6D5F7400 
 2290              	.LASF18:
 2291 02b4 746D6F64 		.ascii	"tmode_t\000"
 2291      655F7400 
 2292              	.LASF51:
 2293 02bc 63685F72 		.ascii	"ch_ready_list\000"
 2293      65616479 
 2293      5F6C6973 
 2293      7400
 2294              	.LASF23:
 2295 02ca 6576656E 		.ascii	"eventmask_t\000"
 2295      746D6173 
 2295      6B5F7400 
 2296              	.LASF6:
 2297 02d6 5F5F696E 		.ascii	"__int32_t\000"
 2297      7433325F 
 2297      7400
 2298              	.LASF80:
 2299 02e0 73746B61 		.ascii	"stkalign_t\000"
 2299      6C69676E 
 2299      5F7400
 2300              	.LASF37:
 2301 02eb 705F7761 		.ascii	"p_waiting\000"
 2301      6974696E 
 2301      6700
 2302              	.LASF78:
 2303 02f5 73697A65 		.ascii	"sizetype\000"
 2303      74797065 
 2303      00
 2304              	.LASF44:
 2305 02fe 74687265 		.ascii	"thread_reference_t\000"
 2305      61645F72 
 2305      65666572 
 2305      656E6365 
 2305      5F7400
 2306              	.LASF67:
 2307 0311 63685F76 		.ascii	"ch_virtual_timers_list\000"
 2307      69727475 
 2307      616C5F74 
 2307      696D6572 
 2307      735F6C69 
ARM GAS  /tmp/ccvPHCFl.s 			page 44


 2308              	.LASF68:
 2309 0328 76745F6C 		.ascii	"vt_lasttime\000"
 2309      61737474 
 2309      696D6500 
 2310              	.LASF32:
 2311 0334 705F6F6C 		.ascii	"p_older\000"
 2311      64657200 
 2312              	.LASF54:
 2313 033c 725F6374 		.ascii	"r_ctx\000"
 2313      7800
 2314              	.LASF84:
 2315 0342 746D5F63 		.ascii	"tm_calibration_t\000"
 2315      616C6962 
 2315      72617469 
 2315      6F6E5F74 
 2315      00
 2316              	.LASF98:
 2317 0353 6D5F6E65 		.ascii	"m_next\000"
 2317      787400
 2318              	.LASF57:
 2319 035a 725F6375 		.ascii	"r_current\000"
 2319      7272656E 
 2319      7400
 2320              	.LASF56:
 2321 0364 725F6F6C 		.ascii	"r_older\000"
 2321      64657200 
 2322              	.LASF11:
 2323 036c 5F5F7569 		.ascii	"__uint64_t\000"
 2323      6E743634 
 2323      5F7400
 2324              	.LASF20:
 2325 0377 74726566 		.ascii	"trefs_t\000"
 2325      735F7400 
 2326              	.LASF59:
 2327 037f 76697274 		.ascii	"virtual_timer_t\000"
 2327      75616C5F 
 2327      74696D65 
 2327      725F7400 
 2328              	.LASF28:
 2329 038f 705F7072 		.ascii	"p_prev\000"
 2329      657600
 2330              	.LASF21:
 2331 0396 74707269 		.ascii	"tprio_t\000"
 2331      6F5F7400 
 2332              	.LASF70:
 2333 039e 63685F73 		.ascii	"ch_system_debug\000"
 2333      79737465 
 2333      6D5F6465 
 2333      62756700 
 2334              	.LASF107:
 2335 03ae 5F426F6F 		.ascii	"_Bool\000"
 2335      6C00
 2336              	.LASF14:
 2337 03b4 696E7433 		.ascii	"int32_t\000"
 2337      325F7400 
 2338              	.LASF2:
 2339 03bc 756E7369 		.ascii	"unsigned char\000"
ARM GAS  /tmp/ccvPHCFl.s 			page 45


 2339      676E6564 
 2339      20636861 
 2339      7200
 2340              	.LASF41:
 2341 03ca 705F6D74 		.ascii	"p_mtxlist\000"
 2341      786C6973 
 2341      7400
 2342              	.LASF3:
 2343 03d4 73686F72 		.ascii	"short int\000"
 2343      7420696E 
 2343      7400
 2344              	.LASF34:
 2345 03de 705F7374 		.ascii	"p_state\000"
 2345      61746500 
 2346              	.LASF53:
 2347 03e6 725F7072 		.ascii	"r_prio\000"
 2347      696F00
 2348              	.LASF91:
 2349 03ed 65776D61 		.ascii	"ewmask\000"
 2349      736B00
 2350              	.LASF27:
 2351 03f4 705F6E65 		.ascii	"p_next\000"
 2351      787400
 2352              	.LASF35:
 2353 03fb 705F666C 		.ascii	"p_flags\000"
 2353      61677300 
 2354              	.LASF109:
 2355 0403 5F5F6675 		.ascii	"__func__\000"
 2355      6E635F5F 
 2355      00
 2356              	.LASF117:
 2357 040c 63685379 		.ascii	"chSysLock\000"
 2357      734C6F63 
 2357      6B00
 2358              	.LASF60:
 2359 0416 63685F76 		.ascii	"ch_virtual_timer\000"
 2359      69727475 
 2359      616C5F74 
 2359      696D6572 
 2359      00
 2360              	.LASF118:
 2361 0427 63684D73 		.ascii	"chMsgRelease\000"
 2361      6752656C 
 2361      65617365 
 2361      00
 2362              	.LASF92:
 2363 0434 63685F73 		.ascii	"ch_semaphore\000"
 2363      656D6170 
 2363      686F7265 
 2363      00
 2364              	.LASF40:
 2365 0441 705F6570 		.ascii	"p_epending\000"
 2365      656E6469 
 2365      6E6700
 2366              	.LASF15:
 2367 044c 75696E74 		.ascii	"uint32_t\000"
 2367      33325F74 
ARM GAS  /tmp/ccvPHCFl.s 			page 46


 2367      00
 2368              	.LASF90:
 2369 0455 77746D74 		.ascii	"wtmtxp\000"
 2369      787000
 2370              	.LASF52:
 2371 045c 725F7175 		.ascii	"r_queue\000"
 2371      65756500 
 2372              	.LASF63:
 2373 0464 76745F64 		.ascii	"vt_delta\000"
 2373      656C7461 
 2373      00
 2374              	.LASF47:
 2375 046d 63685F74 		.ascii	"ch_threads_list\000"
 2375      68726561 
 2375      64735F6C 
 2375      69737400 
 2376              	.LASF9:
 2377 047d 6C6F6E67 		.ascii	"long unsigned int\000"
 2377      20756E73 
 2377      69676E65 
 2377      6420696E 
 2377      7400
 2378              	.LASF99:
 2379 048f 63686172 		.ascii	"char\000"
 2379      00
 2380              	.LASF26:
 2381 0494 74687265 		.ascii	"thread_t\000"
 2381      61645F74 
 2381      00
 2382              	.LASF105:
 2383 049d 71756575 		.ascii	"queue_fifo_remove\000"
 2383      655F6669 
 2383      666F5F72 
 2383      656D6F76 
 2383      6500
 2384              	.LASF25:
 2385 04af 73797374 		.ascii	"systime_t\000"
 2385      696D655F 
 2385      7400
 2386              	.LASF42:
 2387 04b9 705F7265 		.ascii	"p_realprio\000"
 2387      616C7072 
 2387      696F00
 2388              	.LASF58:
 2389 04c4 76746675 		.ascii	"vtfunc_t\000"
 2389      6E635F74 
 2389      00
 2390              	.LASF8:
 2391 04cd 5F5F7569 		.ascii	"__uint32_t\000"
 2391      6E743332 
 2391      5F7400
 2392              	.LASF115:
 2393 04d8 5F5F7365 		.ascii	"__set_BASEPRI\000"
 2393      745F4241 
 2393      53455052 
 2393      4900
 2394              	.LASF71:
ARM GAS  /tmp/ccvPHCFl.s 			page 47


 2395 04e6 70616E69 		.ascii	"panic_msg\000"
 2395      635F6D73 
 2395      6700
 2396              	.LASF83:
 2397 04f0 6F666673 		.ascii	"offset\000"
 2397      657400
 2398              	.LASF81:
 2399 04f7 636F6E74 		.ascii	"context\000"
 2399      65787400 
 2400              	.LASF17:
 2401 04ff 7274636E 		.ascii	"rtcnt_t\000"
 2401      745F7400 
 2402              	.LASF65:
 2403 0507 76745F70 		.ascii	"vt_par\000"
 2403      617200
 2404              	.LASF111:
 2405 050e 63684D73 		.ascii	"chMsgWait\000"
 2405      67576169 
 2405      7400
 2406              	.LASF48:
 2407 0518 74687265 		.ascii	"threads_queue_t\000"
 2407      6164735F 
 2407      71756575 
 2407      655F7400 
 2408              	.LASF95:
 2409 0528 63685F6D 		.ascii	"ch_mutex\000"
 2409      75746578 
 2409      00
 2410              	.LASF36:
 2411 0531 705F7265 		.ascii	"p_refs\000"
 2411      667300
 2412              	.LASF74:
 2413 0538 726C6973 		.ascii	"rlist\000"
 2413      7400
 2414              	.LASF13:
 2415 053e 75696E74 		.ascii	"uint8_t\000"
 2415      385F7400 
 2416              	.LASF87:
 2417 0546 77746F62 		.ascii	"wtobjp\000"
 2417      6A7000
 2418              	.LASF33:
 2419 054d 705F6E61 		.ascii	"p_name\000"
 2419      6D6500
 2420              	.LASF45:
 2421 0554 74687265 		.ascii	"threads_list_t\000"
 2421      6164735F 
 2421      6C697374 
 2421      5F7400
 2422              	.LASF104:
 2423 0563 63685379 		.ascii	"chSysUnlock\000"
 2423      73556E6C 
 2423      6F636B00 
 2424              	.LASF39:
 2425 056f 705F6D73 		.ascii	"p_msg\000"
 2425      6700
 2426              	.LASF108:
 2427 0575 63684D73 		.ascii	"chMsgReleaseS\000"
ARM GAS  /tmp/ccvPHCFl.s 			page 48


 2427      6752656C 
 2427      65617365 
 2427      5300
 2428              	.LASF97:
 2429 0583 6D5F6F77 		.ascii	"m_owner\000"
 2429      6E657200 
 2430              	.LASF30:
 2431 058b 705F6374 		.ascii	"p_ctx\000"
 2431      7800
 2432              	.LASF64:
 2433 0591 76745F66 		.ascii	"vt_func\000"
 2433      756E6300 
 2434              		.ident	"GCC: (4.8.4-1+11-1) 4.8.4 20141219 (release)"
ARM GAS  /tmp/ccvPHCFl.s 			page 49


DEFINED SYMBOLS
                            *ABS*:0000000000000000 chmsg.c
     /tmp/ccvPHCFl.s:19     .text.port_lock:0000000000000000 $t
     /tmp/ccvPHCFl.s:24     .text.port_lock:0000000000000000 port_lock
     /tmp/ccvPHCFl.s:55     .text.port_unlock:0000000000000000 $t
     /tmp/ccvPHCFl.s:60     .text.port_unlock:0000000000000000 port_unlock
     /tmp/ccvPHCFl.s:89     .text.queue_insert:0000000000000000 $t
     /tmp/ccvPHCFl.s:94     .text.queue_insert:0000000000000000 queue_insert
     /tmp/ccvPHCFl.s:132    .text.queue_fifo_remove:0000000000000000 $t
     /tmp/ccvPHCFl.s:137    .text.queue_fifo_remove:0000000000000000 queue_fifo_remove
     /tmp/ccvPHCFl.s:172    .text.chSysLock:0000000000000000 $t
     /tmp/ccvPHCFl.s:177    .text.chSysLock:0000000000000000 chSysLock
     /tmp/ccvPHCFl.s:196    .text.chSysUnlock:0000000000000000 $t
     /tmp/ccvPHCFl.s:201    .text.chSysUnlock:0000000000000000 chSysUnlock
     /tmp/ccvPHCFl.s:219    .text.chMsgIsPendingI:0000000000000000 $t
     /tmp/ccvPHCFl.s:224    .text.chMsgIsPendingI:0000000000000000 chMsgIsPendingI
     /tmp/ccvPHCFl.s:254    .text.chMsgReleaseS:0000000000000000 $t
     /tmp/ccvPHCFl.s:259    .text.chMsgReleaseS:0000000000000000 chMsgReleaseS
     /tmp/ccvPHCFl.s:284    .text.chMsgSend:0000000000000000 $t
     /tmp/ccvPHCFl.s:290    .text.chMsgSend:0000000000000000 chMsgSend
     /tmp/ccvPHCFl.s:353    .text.chMsgSend:0000000000000058 $d
     /tmp/ccvPHCFl.s:358    .text.chMsgWait:0000000000000000 $t
     /tmp/ccvPHCFl.s:364    .text.chMsgWait:0000000000000000 chMsgWait
     /tmp/ccvPHCFl.s:414    .text.chMsgWait:0000000000000048 $d
     /tmp/ccvPHCFl.s:419    .text.chMsgRelease:0000000000000000 $t
     /tmp/ccvPHCFl.s:425    .text.chMsgRelease:0000000000000000 chMsgRelease
                     .debug_frame:0000000000000010 $d
     /tmp/ccvPHCFl.s:357    .text.chMsgSend:000000000000005c $t
     /tmp/ccvPHCFl.s:418    .text.chMsgWait:000000000000004c $t

UNDEFINED SYMBOLS
chSchWakeupS
chSchReadyI
chSchGoSleepS
ch
