ARM GAS  /tmp/ccKgN3mu.s 			page 1


   1              		.syntax unified
   2              		.cpu cortex-m4
   3              		.fpu softvfp
   4              		.eabi_attribute 20, 1
   5              		.eabi_attribute 21, 1
   6              		.eabi_attribute 23, 3
   7              		.eabi_attribute 24, 1
   8              		.eabi_attribute 25, 1
   9              		.eabi_attribute 26, 1
  10              		.eabi_attribute 30, 6
  11              		.eabi_attribute 34, 1
  12              		.eabi_attribute 18, 4
  13              		.thumb
  14              		.file	"chqueues.c"
  15              		.text
  16              	.Ltext0:
  17              		.cfi_sections	.debug_frame
  18              		.section	.text.port_lock,"ax",%progbits
  19              		.align	2
  20              		.p2align 4,,15
  21              		.thumb
  22              		.thumb_func
  23              		.type	port_lock, %function
  24              	port_lock:
  25              	.LFB127:
  26              		.file 1 "/home/efe/ChibiOS/os/rt/ports/ARMCMx/chcore_v7m.h"
  27              		.loc 1 456 0
  28              		.cfi_startproc
  29              		@ args = 0, pretend = 0, frame = 8
  30              		@ frame_needed = 0, uses_anonymous_args = 0
  31              		@ link register save eliminated.
  32 0000 82B0     		sub	sp, sp, #8
  33              		.cfi_def_cfa_offset 8
  34 0002 2023     		movs	r3, #32
  35 0004 0193     		str	r3, [sp, #4]
  36              	.LBB6:
  37              	.LBB7:
  38              		.file 2 "/home/efe/ChibiOS/os/ext/CMSIS/include/core_cmFunc.h"
  39              		.loc 2 548 0
  40 0006 019B     		ldr	r3, [sp, #4]
  41              	@ 548 "/home/efe/ChibiOS/os/ext/CMSIS/include/core_cmFunc.h" 1
  42 0008 83F31188 		MSR basepri, r3
  43              	@ 0 "" 2
  44              		.thumb
  45              	.LBE7:
  46              	.LBE6:
  47              		.loc 1 463 0
  48 000c 02B0     		add	sp, sp, #8
  49              		@ sp needed
  50 000e 7047     		bx	lr
  51              		.cfi_endproc
  52              	.LFE127:
  53              		.size	port_lock, .-port_lock
  54              		.section	.text.port_unlock,"ax",%progbits
  55              		.align	2
  56              		.p2align 4,,15
  57              		.thumb
ARM GAS  /tmp/ccKgN3mu.s 			page 2


  58              		.thumb_func
  59              		.type	port_unlock, %function
  60              	port_unlock:
  61              	.LFB128:
  62              		.loc 1 470 0
  63              		.cfi_startproc
  64              		@ args = 0, pretend = 0, frame = 8
  65              		@ frame_needed = 0, uses_anonymous_args = 0
  66              		@ link register save eliminated.
  67 0000 82B0     		sub	sp, sp, #8
  68              		.cfi_def_cfa_offset 8
  69 0002 0023     		movs	r3, #0
  70 0004 0193     		str	r3, [sp, #4]
  71              	.LBB8:
  72              	.LBB9:
  73              		.loc 2 548 0
  74 0006 019B     		ldr	r3, [sp, #4]
  75              	@ 548 "/home/efe/ChibiOS/os/ext/CMSIS/include/core_cmFunc.h" 1
  76 0008 83F31188 		MSR basepri, r3
  77              	@ 0 "" 2
  78              		.thumb
  79              	.LBE9:
  80              	.LBE8:
  81              		.loc 1 477 0
  82 000c 02B0     		add	sp, sp, #8
  83              		@ sp needed
  84 000e 7047     		bx	lr
  85              		.cfi_endproc
  86              	.LFE128:
  87              		.size	port_unlock, .-port_unlock
  88              		.section	.text.queue_init,"ax",%progbits
  89              		.align	2
  90              		.p2align 4,,15
  91              		.thumb
  92              		.thumb_func
  93              		.type	queue_init, %function
  94              	queue_init:
  95              	.LFB150:
  96              		.file 3 "/home/efe/ChibiOS/os/rt/include/chschd.h"
  97              		.loc 3 602 0
  98              		.cfi_startproc
  99              		@ args = 0, pretend = 0, frame = 8
 100              		@ frame_needed = 0, uses_anonymous_args = 0
 101              		@ link register save eliminated.
 102 0000 82B0     		sub	sp, sp, #8
 103              		.cfi_def_cfa_offset 8
 104 0002 0190     		str	r0, [sp, #4]
 105              		.loc 3 604 0
 106 0004 019B     		ldr	r3, [sp, #4]
 107 0006 019A     		ldr	r2, [sp, #4]
 108 0008 1A60     		str	r2, [r3]
 109              		.loc 3 605 0
 110 000a 019B     		ldr	r3, [sp, #4]
 111 000c 019A     		ldr	r2, [sp, #4]
 112 000e 5A60     		str	r2, [r3, #4]
 113              		.loc 3 606 0
 114 0010 02B0     		add	sp, sp, #8
ARM GAS  /tmp/ccKgN3mu.s 			page 3


 115              		@ sp needed
 116 0012 7047     		bx	lr
 117              		.cfi_endproc
 118              	.LFE150:
 119              		.size	queue_init, .-queue_init
 120 0014 AFF30080 		.section	.text.chSysLock,"ax",%progbits
 120      AFF30080 
 120      AFF30080 
 121              		.align	2
 122              		.p2align 4,,15
 123              		.thumb
 124              		.thumb_func
 125              		.type	chSysLock, %function
 126              	chSysLock:
 127              	.LFB167:
 128              		.file 4 "/home/efe/ChibiOS/os/rt/include/chsys.h"
 129              		.loc 4 346 0
 130              		.cfi_startproc
 131              		@ args = 0, pretend = 0, frame = 0
 132              		@ frame_needed = 0, uses_anonymous_args = 0
 133 0000 08B5     		push	{r3, lr}
 134              		.cfi_def_cfa_offset 8
 135              		.cfi_offset 3, -8
 136              		.cfi_offset 14, -4
 137              		.loc 4 348 0
 138 0002 FFF7FEFF 		bl	port_lock
 139              		.loc 4 351 0
 140 0006 08BD     		pop	{r3, pc}
 141              		.cfi_endproc
 142              	.LFE167:
 143              		.size	chSysLock, .-chSysLock
 144 0008 AFF30080 		.section	.text.chSysUnlock,"ax",%progbits
 144      AFF30080 
 145              		.align	2
 146              		.p2align 4,,15
 147              		.thumb
 148              		.thumb_func
 149              		.type	chSysUnlock, %function
 150              	chSysUnlock:
 151              	.LFB168:
 152              		.loc 4 358 0
 153              		.cfi_startproc
 154              		@ args = 0, pretend = 0, frame = 0
 155              		@ frame_needed = 0, uses_anonymous_args = 0
 156 0000 08B5     		push	{r3, lr}
 157              		.cfi_def_cfa_offset 8
 158              		.cfi_offset 3, -8
 159              		.cfi_offset 14, -4
 160              		.loc 4 371 0
 161 0002 FFF7FEFF 		bl	port_unlock
 162              		.loc 4 372 0
 163 0006 08BD     		pop	{r3, pc}
 164              		.cfi_endproc
 165              	.LFE168:
 166              		.size	chSysUnlock, .-chSysUnlock
 167 0008 AFF30080 		.section	.text.chThdQueueObjectInit,"ax",%progbits
 167      AFF30080 
ARM GAS  /tmp/ccKgN3mu.s 			page 4


 168              		.align	2
 169              		.p2align 4,,15
 170              		.thumb
 171              		.thumb_func
 172              		.type	chThdQueueObjectInit, %function
 173              	chThdQueueObjectInit:
 174              	.LFB194:
 175              		.file 5 "/home/efe/ChibiOS/os/rt/include/chthreads.h"
 176              		.loc 5 278 0
 177              		.cfi_startproc
 178              		@ args = 0, pretend = 0, frame = 8
 179              		@ frame_needed = 0, uses_anonymous_args = 0
 180 0000 00B5     		push	{lr}
 181              		.cfi_def_cfa_offset 4
 182              		.cfi_offset 14, -4
 183 0002 83B0     		sub	sp, sp, #12
 184              		.cfi_def_cfa_offset 16
 185 0004 0190     		str	r0, [sp, #4]
 186              		.loc 5 280 0
 187 0006 0198     		ldr	r0, [sp, #4]
 188 0008 FFF7FEFF 		bl	queue_init
 189              		.loc 5 281 0
 190 000c 03B0     		add	sp, sp, #12
 191              		@ sp needed
 192 000e 5DF804FB 		ldr	pc, [sp], #4
 193              		.cfi_endproc
 194              	.LFE194:
 195              		.size	chThdQueueObjectInit, .-chThdQueueObjectInit
 196 0012 00BFAFF3 		.section	.text.chIQIsEmptyI,"ax",%progbits
 196      0080AFF3 
 196      0080AFF3 
 196      0080
 197              		.align	2
 198              		.p2align 4,,15
 199              		.thumb
 200              		.thumb_func
 201              		.type	chIQIsEmptyI, %function
 202              	chIQIsEmptyI:
 203              	.LFB232:
 204              		.file 6 "/home/efe/ChibiOS/os/rt/include/chqueues.h"
 205              		.loc 6 303 0
 206              		.cfi_startproc
 207              		@ args = 0, pretend = 0, frame = 8
 208              		@ frame_needed = 0, uses_anonymous_args = 0
 209              		@ link register save eliminated.
 210 0000 82B0     		sub	sp, sp, #8
 211              		.cfi_def_cfa_offset 8
 212 0002 0190     		str	r0, [sp, #4]
 213              		.loc 6 307 0
 214 0004 019B     		ldr	r3, [sp, #4]
 215 0006 9B68     		ldr	r3, [r3, #8]
 216 0008 002B     		cmp	r3, #0
 217 000a 14BF     		ite	ne
 218 000c 0023     		movne	r3, #0
 219 000e 0123     		moveq	r3, #1
 220 0010 DBB2     		uxtb	r3, r3
 221              		.loc 6 308 0
ARM GAS  /tmp/ccKgN3mu.s 			page 5


 222 0012 1846     		mov	r0, r3
 223 0014 02B0     		add	sp, sp, #8
 224              		@ sp needed
 225 0016 7047     		bx	lr
 226              		.cfi_endproc
 227              	.LFE232:
 228              		.size	chIQIsEmptyI, .-chIQIsEmptyI
 229 0018 AFF30080 		.section	.text.chIQIsFullI,"ax",%progbits
 229      AFF30080 
 230              		.align	2
 231              		.p2align 4,,15
 232              		.thumb
 233              		.thumb_func
 234              		.type	chIQIsFullI, %function
 235              	chIQIsFullI:
 236              	.LFB233:
 237              		.loc 6 320 0
 238              		.cfi_startproc
 239              		@ args = 0, pretend = 0, frame = 8
 240              		@ frame_needed = 0, uses_anonymous_args = 0
 241              		@ link register save eliminated.
 242 0000 82B0     		sub	sp, sp, #8
 243              		.cfi_def_cfa_offset 8
 244 0002 0190     		str	r0, [sp, #4]
 245              		.loc 6 324 0
 246 0004 019B     		ldr	r3, [sp, #4]
 247 0006 5A69     		ldr	r2, [r3, #20]
 248 0008 019B     		ldr	r3, [sp, #4]
 249 000a 9B69     		ldr	r3, [r3, #24]
 250 000c 9A42     		cmp	r2, r3
 251 000e 05D1     		bne	.L10
 252              		.loc 6 324 0 is_stmt 0 discriminator 1
 253 0010 019B     		ldr	r3, [sp, #4]
 254 0012 9B68     		ldr	r3, [r3, #8]
 255 0014 002B     		cmp	r3, #0
 256 0016 01D0     		beq	.L10
 257              		.loc 6 324 0 discriminator 3
 258 0018 0123     		movs	r3, #1
 259 001a 00E0     		b	.L11
 260              	.L10:
 261              		.loc 6 324 0 discriminator 2
 262 001c 0023     		movs	r3, #0
 263              	.L11:
 264              		.loc 6 324 0 discriminator 4
 265 001e 03F00103 		and	r3, r3, #1
 266 0022 DBB2     		uxtb	r3, r3
 267              		.loc 6 325 0 is_stmt 1 discriminator 4
 268 0024 1846     		mov	r0, r3
 269 0026 02B0     		add	sp, sp, #8
 270              		@ sp needed
 271 0028 7047     		bx	lr
 272              		.cfi_endproc
 273              	.LFE233:
 274              		.size	chIQIsFullI, .-chIQIsFullI
 275 002a 00BFAFF3 		.section	.text.chOQIsEmptyI,"ax",%progbits
 275      0080
 276              		.align	2
ARM GAS  /tmp/ccKgN3mu.s 			page 6


 277              		.p2align 4,,15
 278              		.thumb
 279              		.thumb_func
 280              		.type	chOQIsEmptyI, %function
 281              	chOQIsEmptyI:
 282              	.LFB237:
 283              		.loc 6 386 0
 284              		.cfi_startproc
 285              		@ args = 0, pretend = 0, frame = 8
 286              		@ frame_needed = 0, uses_anonymous_args = 0
 287              		@ link register save eliminated.
 288 0000 82B0     		sub	sp, sp, #8
 289              		.cfi_def_cfa_offset 8
 290 0002 0190     		str	r0, [sp, #4]
 291              		.loc 6 390 0
 292 0004 019B     		ldr	r3, [sp, #4]
 293 0006 5A69     		ldr	r2, [r3, #20]
 294 0008 019B     		ldr	r3, [sp, #4]
 295 000a 9B69     		ldr	r3, [r3, #24]
 296 000c 9A42     		cmp	r2, r3
 297 000e 05D1     		bne	.L14
 298              		.loc 6 390 0 is_stmt 0 discriminator 1
 299 0010 019B     		ldr	r3, [sp, #4]
 300 0012 9B68     		ldr	r3, [r3, #8]
 301 0014 002B     		cmp	r3, #0
 302 0016 01D0     		beq	.L14
 303              		.loc 6 390 0 discriminator 3
 304 0018 0123     		movs	r3, #1
 305 001a 00E0     		b	.L15
 306              	.L14:
 307              		.loc 6 390 0 discriminator 2
 308 001c 0023     		movs	r3, #0
 309              	.L15:
 310              		.loc 6 390 0 discriminator 4
 311 001e 03F00103 		and	r3, r3, #1
 312 0022 DBB2     		uxtb	r3, r3
 313              		.loc 6 391 0 is_stmt 1 discriminator 4
 314 0024 1846     		mov	r0, r3
 315 0026 02B0     		add	sp, sp, #8
 316              		@ sp needed
 317 0028 7047     		bx	lr
 318              		.cfi_endproc
 319              	.LFE237:
 320              		.size	chOQIsEmptyI, .-chOQIsEmptyI
 321 002a 00BFAFF3 		.section	.text.chOQIsFullI,"ax",%progbits
 321      0080
 322              		.align	2
 323              		.p2align 4,,15
 324              		.thumb
 325              		.thumb_func
 326              		.type	chOQIsFullI, %function
 327              	chOQIsFullI:
 328              	.LFB238:
 329              		.loc 6 403 0
 330              		.cfi_startproc
 331              		@ args = 0, pretend = 0, frame = 8
 332              		@ frame_needed = 0, uses_anonymous_args = 0
ARM GAS  /tmp/ccKgN3mu.s 			page 7


 333              		@ link register save eliminated.
 334 0000 82B0     		sub	sp, sp, #8
 335              		.cfi_def_cfa_offset 8
 336 0002 0190     		str	r0, [sp, #4]
 337              		.loc 6 407 0
 338 0004 019B     		ldr	r3, [sp, #4]
 339 0006 9B68     		ldr	r3, [r3, #8]
 340 0008 002B     		cmp	r3, #0
 341 000a 14BF     		ite	ne
 342 000c 0023     		movne	r3, #0
 343 000e 0123     		moveq	r3, #1
 344 0010 DBB2     		uxtb	r3, r3
 345              		.loc 6 408 0
 346 0012 1846     		mov	r0, r3
 347 0014 02B0     		add	sp, sp, #8
 348              		@ sp needed
 349 0016 7047     		bx	lr
 350              		.cfi_endproc
 351              	.LFE238:
 352              		.size	chOQIsFullI, .-chOQIsFullI
 353 0018 AFF30080 		.section	.text.chIQObjectInit,"ax",%progbits
 353      AFF30080 
 354              		.align	2
 355              		.p2align 4,,15
 356              		.global	chIQObjectInit
 357              		.thumb
 358              		.thumb_func
 359              		.type	chIQObjectInit, %function
 360              	chIQObjectInit:
 361              	.LFB240:
 362              		.file 7 "/home/efe/ChibiOS/os/rt/src/chqueues.c"
 363              		.loc 7 88 0
 364              		.cfi_startproc
 365              		@ args = 4, pretend = 0, frame = 16
 366              		@ frame_needed = 0, uses_anonymous_args = 0
 367 0000 00B5     		push	{lr}
 368              		.cfi_def_cfa_offset 4
 369              		.cfi_offset 14, -4
 370 0002 85B0     		sub	sp, sp, #20
 371              		.cfi_def_cfa_offset 24
 372 0004 0390     		str	r0, [sp, #12]
 373 0006 0291     		str	r1, [sp, #8]
 374 0008 0192     		str	r2, [sp, #4]
 375 000a 0093     		str	r3, [sp]
 376              		.loc 7 90 0
 377 000c 039B     		ldr	r3, [sp, #12]
 378 000e 1846     		mov	r0, r3
 379 0010 FFF7FEFF 		bl	chThdQueueObjectInit
 380              		.loc 7 91 0
 381 0014 039B     		ldr	r3, [sp, #12]
 382 0016 0022     		movs	r2, #0
 383 0018 9A60     		str	r2, [r3, #8]
 384              		.loc 7 92 0
 385 001a 039B     		ldr	r3, [sp, #12]
 386 001c 029A     		ldr	r2, [sp, #8]
 387 001e DA60     		str	r2, [r3, #12]
 388              		.loc 7 93 0
ARM GAS  /tmp/ccKgN3mu.s 			page 8


 389 0020 039B     		ldr	r3, [sp, #12]
 390 0022 029A     		ldr	r2, [sp, #8]
 391 0024 9A61     		str	r2, [r3, #24]
 392              		.loc 7 94 0
 393 0026 039B     		ldr	r3, [sp, #12]
 394 0028 029A     		ldr	r2, [sp, #8]
 395 002a 5A61     		str	r2, [r3, #20]
 396              		.loc 7 95 0
 397 002c 029A     		ldr	r2, [sp, #8]
 398 002e 019B     		ldr	r3, [sp, #4]
 399 0030 1A44     		add	r2, r2, r3
 400 0032 039B     		ldr	r3, [sp, #12]
 401 0034 1A61     		str	r2, [r3, #16]
 402              		.loc 7 96 0
 403 0036 039B     		ldr	r3, [sp, #12]
 404 0038 009A     		ldr	r2, [sp]
 405 003a DA61     		str	r2, [r3, #28]
 406              		.loc 7 97 0
 407 003c 039B     		ldr	r3, [sp, #12]
 408 003e 069A     		ldr	r2, [sp, #24]
 409 0040 1A62     		str	r2, [r3, #32]
 410              		.loc 7 98 0
 411 0042 05B0     		add	sp, sp, #20
 412              		@ sp needed
 413 0044 5DF804FB 		ldr	pc, [sp], #4
 414              		.cfi_endproc
 415              	.LFE240:
 416              		.size	chIQObjectInit, .-chIQObjectInit
 417 0048 AFF30080 		.section	.text.chIQResetI,"ax",%progbits
 417      AFF30080 
 418              		.align	2
 419              		.p2align 4,,15
 420              		.global	chIQResetI
 421              		.thumb
 422              		.thumb_func
 423              		.type	chIQResetI, %function
 424              	chIQResetI:
 425              	.LFB241:
 426              		.loc 7 111 0
 427              		.cfi_startproc
 428              		@ args = 0, pretend = 0, frame = 8
 429              		@ frame_needed = 0, uses_anonymous_args = 0
 430 0000 00B5     		push	{lr}
 431              		.cfi_def_cfa_offset 4
 432              		.cfi_offset 14, -4
 433 0002 83B0     		sub	sp, sp, #12
 434              		.cfi_def_cfa_offset 16
 435 0004 0190     		str	r0, [sp, #4]
 436              		.loc 7 115 0
 437 0006 019B     		ldr	r3, [sp, #4]
 438 0008 DA68     		ldr	r2, [r3, #12]
 439 000a 019B     		ldr	r3, [sp, #4]
 440 000c 9A61     		str	r2, [r3, #24]
 441              		.loc 7 116 0
 442 000e 019B     		ldr	r3, [sp, #4]
 443 0010 DA68     		ldr	r2, [r3, #12]
 444 0012 019B     		ldr	r3, [sp, #4]
ARM GAS  /tmp/ccKgN3mu.s 			page 9


 445 0014 5A61     		str	r2, [r3, #20]
 446              		.loc 7 117 0
 447 0016 019B     		ldr	r3, [sp, #4]
 448 0018 0022     		movs	r2, #0
 449 001a 9A60     		str	r2, [r3, #8]
 450              		.loc 7 118 0
 451 001c 019B     		ldr	r3, [sp, #4]
 452 001e 1846     		mov	r0, r3
 453 0020 6FF00101 		mvn	r1, #1
 454 0024 FFF7FEFF 		bl	chThdDequeueAllI
 455              		.loc 7 119 0
 456 0028 03B0     		add	sp, sp, #12
 457              		@ sp needed
 458 002a 5DF804FB 		ldr	pc, [sp], #4
 459              		.cfi_endproc
 460              	.LFE241:
 461              		.size	chIQResetI, .-chIQResetI
 462 002e 00BF     		.section	.text.chIQPutI,"ax",%progbits
 463              		.align	2
 464              		.p2align 4,,15
 465              		.global	chIQPutI
 466              		.thumb
 467              		.thumb_func
 468              		.type	chIQPutI, %function
 469              	chIQPutI:
 470              	.LFB242:
 471              		.loc 7 134 0
 472              		.cfi_startproc
 473              		@ args = 0, pretend = 0, frame = 8
 474              		@ frame_needed = 0, uses_anonymous_args = 0
 475 0000 00B5     		push	{lr}
 476              		.cfi_def_cfa_offset 4
 477              		.cfi_offset 14, -4
 478 0002 83B0     		sub	sp, sp, #12
 479              		.cfi_def_cfa_offset 16
 480 0004 0190     		str	r0, [sp, #4]
 481 0006 0B46     		mov	r3, r1
 482 0008 8DF80330 		strb	r3, [sp, #3]
 483              		.loc 7 138 0
 484 000c 0198     		ldr	r0, [sp, #4]
 485 000e FFF7FEFF 		bl	chIQIsFullI
 486 0012 0346     		mov	r3, r0
 487 0014 002B     		cmp	r3, #0
 488 0016 02D0     		beq	.L22
 489              		.loc 7 139 0
 490 0018 6FF00303 		mvn	r3, #3
 491 001c 1CE0     		b	.L23
 492              	.L22:
 493              		.loc 7 142 0
 494 001e 019B     		ldr	r3, [sp, #4]
 495 0020 9B68     		ldr	r3, [r3, #8]
 496 0022 5A1C     		adds	r2, r3, #1
 497 0024 019B     		ldr	r3, [sp, #4]
 498 0026 9A60     		str	r2, [r3, #8]
 499              		.loc 7 143 0
 500 0028 019B     		ldr	r3, [sp, #4]
 501 002a 5B69     		ldr	r3, [r3, #20]
ARM GAS  /tmp/ccKgN3mu.s 			page 10


 502 002c 591C     		adds	r1, r3, #1
 503 002e 019A     		ldr	r2, [sp, #4]
 504 0030 5161     		str	r1, [r2, #20]
 505 0032 9DF80320 		ldrb	r2, [sp, #3]
 506 0036 1A70     		strb	r2, [r3]
 507              		.loc 7 144 0
 508 0038 019B     		ldr	r3, [sp, #4]
 509 003a 5A69     		ldr	r2, [r3, #20]
 510 003c 019B     		ldr	r3, [sp, #4]
 511 003e 1B69     		ldr	r3, [r3, #16]
 512 0040 9A42     		cmp	r2, r3
 513 0042 03D3     		bcc	.L24
 514              		.loc 7 145 0
 515 0044 019B     		ldr	r3, [sp, #4]
 516 0046 DA68     		ldr	r2, [r3, #12]
 517 0048 019B     		ldr	r3, [sp, #4]
 518 004a 5A61     		str	r2, [r3, #20]
 519              	.L24:
 520              		.loc 7 148 0
 521 004c 019B     		ldr	r3, [sp, #4]
 522 004e 1846     		mov	r0, r3
 523 0050 0021     		movs	r1, #0
 524 0052 FFF7FEFF 		bl	chThdDequeueNextI
 525              		.loc 7 150 0
 526 0056 0023     		movs	r3, #0
 527              	.L23:
 528              		.loc 7 151 0
 529 0058 1846     		mov	r0, r3
 530 005a 03B0     		add	sp, sp, #12
 531              		@ sp needed
 532 005c 5DF804FB 		ldr	pc, [sp], #4
 533              		.cfi_endproc
 534              	.LFE242:
 535              		.size	chIQPutI, .-chIQPutI
 536              		.section	.text.chIQGetTimeout,"ax",%progbits
 537              		.align	2
 538              		.p2align 4,,15
 539              		.global	chIQGetTimeout
 540              		.thumb
 541              		.thumb_func
 542              		.type	chIQGetTimeout, %function
 543              	chIQGetTimeout:
 544              	.LFB243:
 545              		.loc 7 173 0
 546              		.cfi_startproc
 547              		@ args = 0, pretend = 0, frame = 16
 548              		@ frame_needed = 0, uses_anonymous_args = 0
 549 0000 00B5     		push	{lr}
 550              		.cfi_def_cfa_offset 4
 551              		.cfi_offset 14, -4
 552 0002 85B0     		sub	sp, sp, #20
 553              		.cfi_def_cfa_offset 24
 554 0004 0190     		str	r0, [sp, #4]
 555 0006 0091     		str	r1, [sp]
 556              		.loc 7 176 0
 557 0008 FFF7FEFF 		bl	chSysLock
 558              		.loc 7 177 0
ARM GAS  /tmp/ccKgN3mu.s 			page 11


 559 000c 019B     		ldr	r3, [sp, #4]
 560 000e DB69     		ldr	r3, [r3, #28]
 561 0010 002B     		cmp	r3, #0
 562 0012 04D0     		beq	.L26
 563              		.loc 7 178 0
 564 0014 019B     		ldr	r3, [sp, #4]
 565 0016 DB69     		ldr	r3, [r3, #28]
 566 0018 0198     		ldr	r0, [sp, #4]
 567 001a 9847     		blx	r3
 568              		.loc 7 181 0
 569 001c 0DE0     		b	.L27
 570              	.L26:
 571 001e 0CE0     		b	.L27
 572              	.L29:
 573              	.LBB10:
 574              		.loc 7 182 0
 575 0020 019B     		ldr	r3, [sp, #4]
 576 0022 1846     		mov	r0, r3
 577 0024 0099     		ldr	r1, [sp]
 578 0026 FFF7FEFF 		bl	chThdEnqueueTimeoutS
 579 002a 0390     		str	r0, [sp, #12]
 580              		.loc 7 183 0
 581 002c 039B     		ldr	r3, [sp, #12]
 582 002e 002B     		cmp	r3, #0
 583 0030 03DA     		bge	.L27
 584              		.loc 7 184 0
 585 0032 FFF7FEFF 		bl	chSysUnlock
 586              		.loc 7 185 0
 587 0036 039B     		ldr	r3, [sp, #12]
 588 0038 20E0     		b	.L28
 589              	.L27:
 590              	.LBE10:
 591              		.loc 7 181 0 discriminator 1
 592 003a 0198     		ldr	r0, [sp, #4]
 593 003c FFF7FEFF 		bl	chIQIsEmptyI
 594 0040 0346     		mov	r3, r0
 595 0042 002B     		cmp	r3, #0
 596 0044 ECD1     		bne	.L29
 597              		.loc 7 189 0
 598 0046 019B     		ldr	r3, [sp, #4]
 599 0048 9B68     		ldr	r3, [r3, #8]
 600 004a 5A1E     		subs	r2, r3, #1
 601 004c 019B     		ldr	r3, [sp, #4]
 602 004e 9A60     		str	r2, [r3, #8]
 603              		.loc 7 190 0
 604 0050 019B     		ldr	r3, [sp, #4]
 605 0052 9B69     		ldr	r3, [r3, #24]
 606 0054 591C     		adds	r1, r3, #1
 607 0056 019A     		ldr	r2, [sp, #4]
 608 0058 9161     		str	r1, [r2, #24]
 609 005a 1B78     		ldrb	r3, [r3]
 610 005c 8DF80B30 		strb	r3, [sp, #11]
 611              		.loc 7 191 0
 612 0060 019B     		ldr	r3, [sp, #4]
 613 0062 9A69     		ldr	r2, [r3, #24]
 614 0064 019B     		ldr	r3, [sp, #4]
 615 0066 1B69     		ldr	r3, [r3, #16]
ARM GAS  /tmp/ccKgN3mu.s 			page 12


 616 0068 9A42     		cmp	r2, r3
 617 006a 03D3     		bcc	.L30
 618              		.loc 7 192 0
 619 006c 019B     		ldr	r3, [sp, #4]
 620 006e DA68     		ldr	r2, [r3, #12]
 621 0070 019B     		ldr	r3, [sp, #4]
 622 0072 9A61     		str	r2, [r3, #24]
 623              	.L30:
 624              		.loc 7 194 0
 625 0074 FFF7FEFF 		bl	chSysUnlock
 626              		.loc 7 196 0
 627 0078 9DF80B30 		ldrb	r3, [sp, #11]	@ zero_extendqisi2
 628              	.L28:
 629              		.loc 7 197 0
 630 007c 1846     		mov	r0, r3
 631 007e 05B0     		add	sp, sp, #20
 632              		@ sp needed
 633 0080 5DF804FB 		ldr	pc, [sp], #4
 634              		.cfi_endproc
 635              	.LFE243:
 636              		.size	chIQGetTimeout, .-chIQGetTimeout
 637 0084 AFF30080 		.section	.text.chIQReadTimeout,"ax",%progbits
 637      AFF30080 
 637      AFF30080 
 638              		.align	2
 639              		.p2align 4,,15
 640              		.global	chIQReadTimeout
 641              		.thumb
 642              		.thumb_func
 643              		.type	chIQReadTimeout, %function
 644              	chIQReadTimeout:
 645              	.LFB244:
 646              		.loc 7 224 0
 647              		.cfi_startproc
 648              		@ args = 0, pretend = 0, frame = 24
 649              		@ frame_needed = 0, uses_anonymous_args = 0
 650 0000 00B5     		push	{lr}
 651              		.cfi_def_cfa_offset 4
 652              		.cfi_offset 14, -4
 653 0002 87B0     		sub	sp, sp, #28
 654              		.cfi_def_cfa_offset 32
 655 0004 0390     		str	r0, [sp, #12]
 656 0006 0291     		str	r1, [sp, #8]
 657 0008 0192     		str	r2, [sp, #4]
 658 000a 0093     		str	r3, [sp]
 659              		.loc 7 225 0
 660 000c 039B     		ldr	r3, [sp, #12]
 661 000e DB69     		ldr	r3, [r3, #28]
 662 0010 0493     		str	r3, [sp, #16]
 663              		.loc 7 226 0
 664 0012 0023     		movs	r3, #0
 665 0014 0593     		str	r3, [sp, #20]
 666              		.loc 7 230 0
 667 0016 FFF7FEFF 		bl	chSysLock
 668              	.L38:
 669              		.loc 7 232 0
 670 001a 049B     		ldr	r3, [sp, #16]
ARM GAS  /tmp/ccKgN3mu.s 			page 13


 671 001c 002B     		cmp	r3, #0
 672 001e 03D0     		beq	.L32
 673              		.loc 7 233 0
 674 0020 049B     		ldr	r3, [sp, #16]
 675 0022 0398     		ldr	r0, [sp, #12]
 676 0024 9847     		blx	r3
 677              		.loc 7 236 0
 678 0026 0CE0     		b	.L33
 679              	.L32:
 680 0028 0BE0     		b	.L33
 681              	.L35:
 682              		.loc 7 237 0
 683 002a 039B     		ldr	r3, [sp, #12]
 684 002c 1846     		mov	r0, r3
 685 002e 0099     		ldr	r1, [sp]
 686 0030 FFF7FEFF 		bl	chThdEnqueueTimeoutS
 687 0034 0346     		mov	r3, r0
 688 0036 002B     		cmp	r3, #0
 689 0038 03D0     		beq	.L33
 690              		.loc 7 238 0
 691 003a FFF7FEFF 		bl	chSysUnlock
 692              		.loc 7 239 0
 693 003e 059B     		ldr	r3, [sp, #20]
 694 0040 2EE0     		b	.L34
 695              	.L33:
 696              		.loc 7 236 0 discriminator 1
 697 0042 0398     		ldr	r0, [sp, #12]
 698 0044 FFF7FEFF 		bl	chIQIsEmptyI
 699 0048 0346     		mov	r3, r0
 700 004a 002B     		cmp	r3, #0
 701 004c EDD1     		bne	.L35
 702              		.loc 7 243 0
 703 004e 039B     		ldr	r3, [sp, #12]
 704 0050 9B68     		ldr	r3, [r3, #8]
 705 0052 5A1E     		subs	r2, r3, #1
 706 0054 039B     		ldr	r3, [sp, #12]
 707 0056 9A60     		str	r2, [r3, #8]
 708              		.loc 7 244 0
 709 0058 029B     		ldr	r3, [sp, #8]
 710 005a 5A1C     		adds	r2, r3, #1
 711 005c 0292     		str	r2, [sp, #8]
 712 005e 039A     		ldr	r2, [sp, #12]
 713 0060 9269     		ldr	r2, [r2, #24]
 714 0062 501C     		adds	r0, r2, #1
 715 0064 0399     		ldr	r1, [sp, #12]
 716 0066 8861     		str	r0, [r1, #24]
 717 0068 1278     		ldrb	r2, [r2]	@ zero_extendqisi2
 718 006a 1A70     		strb	r2, [r3]
 719              		.loc 7 245 0
 720 006c 039B     		ldr	r3, [sp, #12]
 721 006e 9A69     		ldr	r2, [r3, #24]
 722 0070 039B     		ldr	r3, [sp, #12]
 723 0072 1B69     		ldr	r3, [r3, #16]
 724 0074 9A42     		cmp	r2, r3
 725 0076 03D3     		bcc	.L36
 726              		.loc 7 246 0
 727 0078 039B     		ldr	r3, [sp, #12]
ARM GAS  /tmp/ccKgN3mu.s 			page 14


 728 007a DA68     		ldr	r2, [r3, #12]
 729 007c 039B     		ldr	r3, [sp, #12]
 730 007e 9A61     		str	r2, [r3, #24]
 731              	.L36:
 732              		.loc 7 248 0
 733 0080 FFF7FEFF 		bl	chSysUnlock
 734              		.loc 7 250 0
 735 0084 059B     		ldr	r3, [sp, #20]
 736 0086 0133     		adds	r3, r3, #1
 737 0088 0593     		str	r3, [sp, #20]
 738              		.loc 7 251 0
 739 008a 019B     		ldr	r3, [sp, #4]
 740 008c 013B     		subs	r3, r3, #1
 741 008e 0193     		str	r3, [sp, #4]
 742 0090 019B     		ldr	r3, [sp, #4]
 743 0092 002B     		cmp	r3, #0
 744 0094 01D1     		bne	.L37
 745              		.loc 7 252 0
 746 0096 059B     		ldr	r3, [sp, #20]
 747 0098 02E0     		b	.L34
 748              	.L37:
 749              		.loc 7 255 0
 750 009a FFF7FEFF 		bl	chSysLock
 751              		.loc 7 256 0
 752 009e BCE7     		b	.L38
 753              	.L34:
 754              		.loc 7 257 0
 755 00a0 1846     		mov	r0, r3
 756 00a2 07B0     		add	sp, sp, #28
 757              		@ sp needed
 758 00a4 5DF804FB 		ldr	pc, [sp], #4
 759              		.cfi_endproc
 760              	.LFE244:
 761              		.size	chIQReadTimeout, .-chIQReadTimeout
 762 00a8 AFF30080 		.section	.text.chOQObjectInit,"ax",%progbits
 762      AFF30080 
 763              		.align	2
 764              		.p2align 4,,15
 765              		.global	chOQObjectInit
 766              		.thumb
 767              		.thumb_func
 768              		.type	chOQObjectInit, %function
 769              	chOQObjectInit:
 770              	.LFB245:
 771              		.loc 7 276 0
 772              		.cfi_startproc
 773              		@ args = 4, pretend = 0, frame = 16
 774              		@ frame_needed = 0, uses_anonymous_args = 0
 775 0000 00B5     		push	{lr}
 776              		.cfi_def_cfa_offset 4
 777              		.cfi_offset 14, -4
 778 0002 85B0     		sub	sp, sp, #20
 779              		.cfi_def_cfa_offset 24
 780 0004 0390     		str	r0, [sp, #12]
 781 0006 0291     		str	r1, [sp, #8]
 782 0008 0192     		str	r2, [sp, #4]
 783 000a 0093     		str	r3, [sp]
ARM GAS  /tmp/ccKgN3mu.s 			page 15


 784              		.loc 7 278 0
 785 000c 039B     		ldr	r3, [sp, #12]
 786 000e 1846     		mov	r0, r3
 787 0010 FFF7FEFF 		bl	chThdQueueObjectInit
 788              		.loc 7 279 0
 789 0014 039B     		ldr	r3, [sp, #12]
 790 0016 019A     		ldr	r2, [sp, #4]
 791 0018 9A60     		str	r2, [r3, #8]
 792              		.loc 7 280 0
 793 001a 039B     		ldr	r3, [sp, #12]
 794 001c 029A     		ldr	r2, [sp, #8]
 795 001e DA60     		str	r2, [r3, #12]
 796              		.loc 7 281 0
 797 0020 039B     		ldr	r3, [sp, #12]
 798 0022 029A     		ldr	r2, [sp, #8]
 799 0024 9A61     		str	r2, [r3, #24]
 800              		.loc 7 282 0
 801 0026 039B     		ldr	r3, [sp, #12]
 802 0028 029A     		ldr	r2, [sp, #8]
 803 002a 5A61     		str	r2, [r3, #20]
 804              		.loc 7 283 0
 805 002c 029A     		ldr	r2, [sp, #8]
 806 002e 019B     		ldr	r3, [sp, #4]
 807 0030 1A44     		add	r2, r2, r3
 808 0032 039B     		ldr	r3, [sp, #12]
 809 0034 1A61     		str	r2, [r3, #16]
 810              		.loc 7 284 0
 811 0036 039B     		ldr	r3, [sp, #12]
 812 0038 009A     		ldr	r2, [sp]
 813 003a DA61     		str	r2, [r3, #28]
 814              		.loc 7 285 0
 815 003c 039B     		ldr	r3, [sp, #12]
 816 003e 069A     		ldr	r2, [sp, #24]
 817 0040 1A62     		str	r2, [r3, #32]
 818              		.loc 7 286 0
 819 0042 05B0     		add	sp, sp, #20
 820              		@ sp needed
 821 0044 5DF804FB 		ldr	pc, [sp], #4
 822              		.cfi_endproc
 823              	.LFE245:
 824              		.size	chOQObjectInit, .-chOQObjectInit
 825 0048 AFF30080 		.section	.text.chOQResetI,"ax",%progbits
 825      AFF30080 
 826              		.align	2
 827              		.p2align 4,,15
 828              		.global	chOQResetI
 829              		.thumb
 830              		.thumb_func
 831              		.type	chOQResetI, %function
 832              	chOQResetI:
 833              	.LFB246:
 834              		.loc 7 299 0
 835              		.cfi_startproc
 836              		@ args = 0, pretend = 0, frame = 8
 837              		@ frame_needed = 0, uses_anonymous_args = 0
 838 0000 00B5     		push	{lr}
 839              		.cfi_def_cfa_offset 4
ARM GAS  /tmp/ccKgN3mu.s 			page 16


 840              		.cfi_offset 14, -4
 841 0002 83B0     		sub	sp, sp, #12
 842              		.cfi_def_cfa_offset 16
 843 0004 0190     		str	r0, [sp, #4]
 844              		.loc 7 303 0
 845 0006 019B     		ldr	r3, [sp, #4]
 846 0008 DA68     		ldr	r2, [r3, #12]
 847 000a 019B     		ldr	r3, [sp, #4]
 848 000c 9A61     		str	r2, [r3, #24]
 849              		.loc 7 304 0
 850 000e 019B     		ldr	r3, [sp, #4]
 851 0010 DA68     		ldr	r2, [r3, #12]
 852 0012 019B     		ldr	r3, [sp, #4]
 853 0014 5A61     		str	r2, [r3, #20]
 854              		.loc 7 305 0
 855 0016 019B     		ldr	r3, [sp, #4]
 856 0018 1B69     		ldr	r3, [r3, #16]
 857 001a 1A46     		mov	r2, r3
 858 001c 019B     		ldr	r3, [sp, #4]
 859 001e DB68     		ldr	r3, [r3, #12]
 860 0020 D31A     		subs	r3, r2, r3
 861 0022 1A46     		mov	r2, r3
 862 0024 019B     		ldr	r3, [sp, #4]
 863 0026 9A60     		str	r2, [r3, #8]
 864              		.loc 7 306 0
 865 0028 019B     		ldr	r3, [sp, #4]
 866 002a 1846     		mov	r0, r3
 867 002c 6FF00101 		mvn	r1, #1
 868 0030 FFF7FEFF 		bl	chThdDequeueAllI
 869              		.loc 7 307 0
 870 0034 03B0     		add	sp, sp, #12
 871              		@ sp needed
 872 0036 5DF804FB 		ldr	pc, [sp], #4
 873              		.cfi_endproc
 874              	.LFE246:
 875              		.size	chOQResetI, .-chOQResetI
 876 003a 00BFAFF3 		.section	.text.chOQPutTimeout,"ax",%progbits
 876      0080
 877              		.align	2
 878              		.p2align 4,,15
 879              		.global	chOQPutTimeout
 880              		.thumb
 881              		.thumb_func
 882              		.type	chOQPutTimeout, %function
 883              	chOQPutTimeout:
 884              	.LFB247:
 885              		.loc 7 331 0
 886              		.cfi_startproc
 887              		@ args = 0, pretend = 0, frame = 24
 888              		@ frame_needed = 0, uses_anonymous_args = 0
 889 0000 00B5     		push	{lr}
 890              		.cfi_def_cfa_offset 4
 891              		.cfi_offset 14, -4
 892 0002 87B0     		sub	sp, sp, #28
 893              		.cfi_def_cfa_offset 32
 894 0004 0390     		str	r0, [sp, #12]
 895 0006 0B46     		mov	r3, r1
ARM GAS  /tmp/ccKgN3mu.s 			page 17


 896 0008 0192     		str	r2, [sp, #4]
 897 000a 8DF80B30 		strb	r3, [sp, #11]
 898              		.loc 7 333 0
 899 000e FFF7FEFF 		bl	chSysLock
 900              		.loc 7 334 0
 901 0012 0CE0     		b	.L42
 902              	.L44:
 903              	.LBB11:
 904              		.loc 7 335 0
 905 0014 039B     		ldr	r3, [sp, #12]
 906 0016 1846     		mov	r0, r3
 907 0018 0199     		ldr	r1, [sp, #4]
 908 001a FFF7FEFF 		bl	chThdEnqueueTimeoutS
 909 001e 0590     		str	r0, [sp, #20]
 910              		.loc 7 336 0
 911 0020 059B     		ldr	r3, [sp, #20]
 912 0022 002B     		cmp	r3, #0
 913 0024 03DA     		bge	.L42
 914              		.loc 7 337 0
 915 0026 FFF7FEFF 		bl	chSysUnlock
 916              		.loc 7 338 0
 917 002a 059B     		ldr	r3, [sp, #20]
 918 002c 27E0     		b	.L43
 919              	.L42:
 920              	.LBE11:
 921              		.loc 7 334 0 discriminator 1
 922 002e 0398     		ldr	r0, [sp, #12]
 923 0030 FFF7FEFF 		bl	chOQIsFullI
 924 0034 0346     		mov	r3, r0
 925 0036 002B     		cmp	r3, #0
 926 0038 ECD1     		bne	.L44
 927              		.loc 7 342 0
 928 003a 039B     		ldr	r3, [sp, #12]
 929 003c 9B68     		ldr	r3, [r3, #8]
 930 003e 5A1E     		subs	r2, r3, #1
 931 0040 039B     		ldr	r3, [sp, #12]
 932 0042 9A60     		str	r2, [r3, #8]
 933              		.loc 7 343 0
 934 0044 039B     		ldr	r3, [sp, #12]
 935 0046 5B69     		ldr	r3, [r3, #20]
 936 0048 591C     		adds	r1, r3, #1
 937 004a 039A     		ldr	r2, [sp, #12]
 938 004c 5161     		str	r1, [r2, #20]
 939 004e 9DF80B20 		ldrb	r2, [sp, #11]
 940 0052 1A70     		strb	r2, [r3]
 941              		.loc 7 344 0
 942 0054 039B     		ldr	r3, [sp, #12]
 943 0056 5A69     		ldr	r2, [r3, #20]
 944 0058 039B     		ldr	r3, [sp, #12]
 945 005a 1B69     		ldr	r3, [r3, #16]
 946 005c 9A42     		cmp	r2, r3
 947 005e 03D3     		bcc	.L45
 948              		.loc 7 345 0
 949 0060 039B     		ldr	r3, [sp, #12]
 950 0062 DA68     		ldr	r2, [r3, #12]
 951 0064 039B     		ldr	r3, [sp, #12]
 952 0066 5A61     		str	r2, [r3, #20]
ARM GAS  /tmp/ccKgN3mu.s 			page 18


 953              	.L45:
 954              		.loc 7 348 0
 955 0068 039B     		ldr	r3, [sp, #12]
 956 006a DB69     		ldr	r3, [r3, #28]
 957 006c 002B     		cmp	r3, #0
 958 006e 03D0     		beq	.L46
 959              		.loc 7 349 0
 960 0070 039B     		ldr	r3, [sp, #12]
 961 0072 DB69     		ldr	r3, [r3, #28]
 962 0074 0398     		ldr	r0, [sp, #12]
 963 0076 9847     		blx	r3
 964              	.L46:
 965              		.loc 7 351 0
 966 0078 FFF7FEFF 		bl	chSysUnlock
 967              		.loc 7 353 0
 968 007c 0023     		movs	r3, #0
 969              	.L43:
 970              		.loc 7 354 0
 971 007e 1846     		mov	r0, r3
 972 0080 07B0     		add	sp, sp, #28
 973              		@ sp needed
 974 0082 5DF804FB 		ldr	pc, [sp], #4
 975              		.cfi_endproc
 976              	.LFE247:
 977              		.size	chOQPutTimeout, .-chOQPutTimeout
 978 0086 00BFAFF3 		.section	.text.chOQGetI,"ax",%progbits
 978      0080AFF3 
 978      0080
 979              		.align	2
 980              		.p2align 4,,15
 981              		.global	chOQGetI
 982              		.thumb
 983              		.thumb_func
 984              		.type	chOQGetI, %function
 985              	chOQGetI:
 986              	.LFB248:
 987              		.loc 7 366 0
 988              		.cfi_startproc
 989              		@ args = 0, pretend = 0, frame = 16
 990              		@ frame_needed = 0, uses_anonymous_args = 0
 991 0000 00B5     		push	{lr}
 992              		.cfi_def_cfa_offset 4
 993              		.cfi_offset 14, -4
 994 0002 85B0     		sub	sp, sp, #20
 995              		.cfi_def_cfa_offset 24
 996 0004 0190     		str	r0, [sp, #4]
 997              		.loc 7 371 0
 998 0006 0198     		ldr	r0, [sp, #4]
 999 0008 FFF7FEFF 		bl	chOQIsEmptyI
 1000 000c 0346     		mov	r3, r0
 1001 000e 002B     		cmp	r3, #0
 1002 0010 02D0     		beq	.L48
 1003              		.loc 7 372 0
 1004 0012 6FF00203 		mvn	r3, #2
 1005 0016 1DE0     		b	.L49
 1006              	.L48:
 1007              		.loc 7 375 0
ARM GAS  /tmp/ccKgN3mu.s 			page 19


 1008 0018 019B     		ldr	r3, [sp, #4]
 1009 001a 9B68     		ldr	r3, [r3, #8]
 1010 001c 5A1C     		adds	r2, r3, #1
 1011 001e 019B     		ldr	r3, [sp, #4]
 1012 0020 9A60     		str	r2, [r3, #8]
 1013              		.loc 7 376 0
 1014 0022 019B     		ldr	r3, [sp, #4]
 1015 0024 9B69     		ldr	r3, [r3, #24]
 1016 0026 591C     		adds	r1, r3, #1
 1017 0028 019A     		ldr	r2, [sp, #4]
 1018 002a 9161     		str	r1, [r2, #24]
 1019 002c 1B78     		ldrb	r3, [r3]
 1020 002e 8DF80F30 		strb	r3, [sp, #15]
 1021              		.loc 7 377 0
 1022 0032 019B     		ldr	r3, [sp, #4]
 1023 0034 9A69     		ldr	r2, [r3, #24]
 1024 0036 019B     		ldr	r3, [sp, #4]
 1025 0038 1B69     		ldr	r3, [r3, #16]
 1026 003a 9A42     		cmp	r2, r3
 1027 003c 03D3     		bcc	.L50
 1028              		.loc 7 378 0
 1029 003e 019B     		ldr	r3, [sp, #4]
 1030 0040 DA68     		ldr	r2, [r3, #12]
 1031 0042 019B     		ldr	r3, [sp, #4]
 1032 0044 9A61     		str	r2, [r3, #24]
 1033              	.L50:
 1034              		.loc 7 381 0
 1035 0046 019B     		ldr	r3, [sp, #4]
 1036 0048 1846     		mov	r0, r3
 1037 004a 0021     		movs	r1, #0
 1038 004c FFF7FEFF 		bl	chThdDequeueNextI
 1039              		.loc 7 383 0
 1040 0050 9DF80F30 		ldrb	r3, [sp, #15]	@ zero_extendqisi2
 1041              	.L49:
 1042              		.loc 7 384 0
 1043 0054 1846     		mov	r0, r3
 1044 0056 05B0     		add	sp, sp, #20
 1045              		@ sp needed
 1046 0058 5DF804FB 		ldr	pc, [sp], #4
 1047              		.cfi_endproc
 1048              	.LFE248:
 1049              		.size	chOQGetI, .-chOQGetI
 1050 005c AFF30080 		.section	.text.chOQWriteTimeout,"ax",%progbits
 1051              		.align	2
 1052              		.p2align 4,,15
 1053              		.global	chOQWriteTimeout
 1054              		.thumb
 1055              		.thumb_func
 1056              		.type	chOQWriteTimeout, %function
 1057              	chOQWriteTimeout:
 1058              	.LFB249:
 1059              		.loc 7 411 0
 1060              		.cfi_startproc
 1061              		@ args = 0, pretend = 0, frame = 24
 1062              		@ frame_needed = 0, uses_anonymous_args = 0
 1063 0000 00B5     		push	{lr}
 1064              		.cfi_def_cfa_offset 4
ARM GAS  /tmp/ccKgN3mu.s 			page 20


 1065              		.cfi_offset 14, -4
 1066 0002 87B0     		sub	sp, sp, #28
 1067              		.cfi_def_cfa_offset 32
 1068 0004 0390     		str	r0, [sp, #12]
 1069 0006 0291     		str	r1, [sp, #8]
 1070 0008 0192     		str	r2, [sp, #4]
 1071 000a 0093     		str	r3, [sp]
 1072              		.loc 7 412 0
 1073 000c 039B     		ldr	r3, [sp, #12]
 1074 000e DB69     		ldr	r3, [r3, #28]
 1075 0010 0493     		str	r3, [sp, #16]
 1076              		.loc 7 413 0
 1077 0012 0023     		movs	r3, #0
 1078 0014 0593     		str	r3, [sp, #20]
 1079              		.loc 7 417 0
 1080 0016 FFF7FEFF 		bl	chSysLock
 1081              		.loc 7 419 0
 1082 001a 0BE0     		b	.L52
 1083              	.L54:
 1084              		.loc 7 420 0
 1085 001c 039B     		ldr	r3, [sp, #12]
 1086 001e 1846     		mov	r0, r3
 1087 0020 0099     		ldr	r1, [sp]
 1088 0022 FFF7FEFF 		bl	chThdEnqueueTimeoutS
 1089 0026 0346     		mov	r3, r0
 1090 0028 002B     		cmp	r3, #0
 1091 002a 03D0     		beq	.L52
 1092              		.loc 7 421 0
 1093 002c FFF7FEFF 		bl	chSysUnlock
 1094              		.loc 7 422 0
 1095 0030 059B     		ldr	r3, [sp, #20]
 1096 0032 35E0     		b	.L53
 1097              	.L52:
 1098              		.loc 7 419 0 discriminator 1
 1099 0034 0398     		ldr	r0, [sp, #12]
 1100 0036 FFF7FEFF 		bl	chOQIsFullI
 1101 003a 0346     		mov	r3, r0
 1102 003c 002B     		cmp	r3, #0
 1103 003e EDD1     		bne	.L54
 1104              		.loc 7 426 0
 1105 0040 039B     		ldr	r3, [sp, #12]
 1106 0042 9B68     		ldr	r3, [r3, #8]
 1107 0044 5A1E     		subs	r2, r3, #1
 1108 0046 039B     		ldr	r3, [sp, #12]
 1109 0048 9A60     		str	r2, [r3, #8]
 1110              		.loc 7 427 0
 1111 004a 039B     		ldr	r3, [sp, #12]
 1112 004c 5B69     		ldr	r3, [r3, #20]
 1113 004e 591C     		adds	r1, r3, #1
 1114 0050 039A     		ldr	r2, [sp, #12]
 1115 0052 5161     		str	r1, [r2, #20]
 1116 0054 029A     		ldr	r2, [sp, #8]
 1117 0056 511C     		adds	r1, r2, #1
 1118 0058 0291     		str	r1, [sp, #8]
 1119 005a 1278     		ldrb	r2, [r2]	@ zero_extendqisi2
 1120 005c 1A70     		strb	r2, [r3]
 1121              		.loc 7 428 0
ARM GAS  /tmp/ccKgN3mu.s 			page 21


 1122 005e 039B     		ldr	r3, [sp, #12]
 1123 0060 5A69     		ldr	r2, [r3, #20]
 1124 0062 039B     		ldr	r3, [sp, #12]
 1125 0064 1B69     		ldr	r3, [r3, #16]
 1126 0066 9A42     		cmp	r2, r3
 1127 0068 03D3     		bcc	.L55
 1128              		.loc 7 429 0
 1129 006a 039B     		ldr	r3, [sp, #12]
 1130 006c DA68     		ldr	r2, [r3, #12]
 1131 006e 039B     		ldr	r3, [sp, #12]
 1132 0070 5A61     		str	r2, [r3, #20]
 1133              	.L55:
 1134              		.loc 7 432 0
 1135 0072 049B     		ldr	r3, [sp, #16]
 1136 0074 002B     		cmp	r3, #0
 1137 0076 02D0     		beq	.L56
 1138              		.loc 7 433 0
 1139 0078 049B     		ldr	r3, [sp, #16]
 1140 007a 0398     		ldr	r0, [sp, #12]
 1141 007c 9847     		blx	r3
 1142              	.L56:
 1143              		.loc 7 435 0
 1144 007e FFF7FEFF 		bl	chSysUnlock
 1145              		.loc 7 437 0
 1146 0082 059B     		ldr	r3, [sp, #20]
 1147 0084 0133     		adds	r3, r3, #1
 1148 0086 0593     		str	r3, [sp, #20]
 1149              		.loc 7 438 0
 1150 0088 019B     		ldr	r3, [sp, #4]
 1151 008a 013B     		subs	r3, r3, #1
 1152 008c 0193     		str	r3, [sp, #4]
 1153 008e 019B     		ldr	r3, [sp, #4]
 1154 0090 002B     		cmp	r3, #0
 1155 0092 01D1     		bne	.L57
 1156              		.loc 7 439 0
 1157 0094 059B     		ldr	r3, [sp, #20]
 1158 0096 03E0     		b	.L53
 1159              	.L57:
 1160              		.loc 7 441 0
 1161 0098 FFF7FEFF 		bl	chSysLock
 1162              		.loc 7 442 0
 1163 009c 00BF     		nop
 1164              		.loc 7 419 0
 1165 009e C9E7     		b	.L52
 1166              	.L53:
 1167              		.loc 7 443 0
 1168 00a0 1846     		mov	r0, r3
 1169 00a2 07B0     		add	sp, sp, #28
 1170              		@ sp needed
 1171 00a4 5DF804FB 		ldr	pc, [sp], #4
 1172              		.cfi_endproc
 1173              	.LFE249:
 1174              		.size	chOQWriteTimeout, .-chOQWriteTimeout
 1175 00a8 AFF30080 		.text
 1175      AFF30080 
 1176              	.Letext0:
 1177              		.file 8 "/usr/lib/gcc/arm-none-eabi/4.8/include/stddef.h"
ARM GAS  /tmp/ccKgN3mu.s 			page 22


 1178              		.file 9 "/usr/include/newlib/machine/_default_types.h"
 1179              		.file 10 "/usr/include/newlib/stdint.h"
 1180              		.file 11 "/home/efe/ChibiOS/os/rt/ports/ARMCMx/compilers/GCC/chtypes.h"
 1181              		.file 12 "/home/efe/ChibiOS/os/rt/include/chsystypes.h"
 1182              		.file 13 "/home/efe/ChibiOS/os/rt/ports/ARMCMx/chcore.h"
 1183              		.file 14 "/home/efe/ChibiOS/os/rt/include/chtm.h"
 1184              		.file 15 "/home/efe/ChibiOS/os/rt/include/chsem.h"
 1185              		.file 16 "/home/efe/ChibiOS/os/rt/include/chmtx.h"
 1186              		.file 17 "/home/efe/ChibiOS/os/ext/CMSIS/include/core_cm4.h"