ARM GAS  /tmp/cc7O25sm.s 			page 1


   1              		.cpu cortex-m0
   2              		.fpu softvfp
   3              		.eabi_attribute 20, 1
   4              		.eabi_attribute 21, 1
   5              		.eabi_attribute 23, 3
   6              		.eabi_attribute 24, 1
   7              		.eabi_attribute 25, 1
   8              		.eabi_attribute 26, 1
   9              		.eabi_attribute 30, 6
  10              		.eabi_attribute 34, 0
  11              		.eabi_attribute 18, 4
  12              		.code	16
  13              		.file	"chregistry.c"
  14              		.text
  15              	.Ltext0:
  16              		.section	.gnu.lto_.inline.47848e2ae12d73d,"",%progbits
  17 0000 789C6362 		.ascii	"x\234cb`b\300\006z\2404\033\003\003\0133\003\003\023"
  17      6062C006 
  17      7AA0341B 
  17      03030B33 
  17      030313
  18 0013 CB073D06 		.ascii	"\313\007=\006\026\210ZF\014\021&\006\026\036 \311\264"
  18      16885A46 
  18      0C112606 
  18      161E20C9 
  18      B4
  19 0024 401EAE86 		.ascii	"@\036\256\206\013H0c\027fa`\023G3\221\013F\2601pH\002"
  19      0B483063 
  19      17666160 
  19      13473391 
  19      0B46B031 
  20 003b E53826F8 		.ascii	"\3458&\370a\3121\000\000kO\007S"
  20      61CA3100 
  20      006B4F07 
  20      53
  21              		.text
  22              		.section	.gnu.lto_port_lock.47848e2ae12d73d,"",%progbits
  23 0000 789C6362 		.ascii	"x\234cb`b@\007\"@<\035\210\253A\034f\006F\240\012F&"
  23      60624007 
  23      22403C1D 
  23      88AB411C 
  23      660646A0 
  24 0017 46462087 		.ascii	"FF \207\221\241\236\211\261>\222\021\254l=\323\201\007"
  24      91A19E89 
  24      B13E9211 
  24      AC6C3DD3 
  24      8107
  25 0029 FFFFAFDB 		.ascii	"\377\377\257\3332m\331\035\306\233L 1V\206\226\206\206"
  25      326DD91D 
  25      C69B4C20 
  25      31568696 
  25      8686
  26 003b 090A0C0C 		.ascii	"\011\012\014\014\311`\025!`2\024\244\237\371\034C\343"
  26      C9601521 
  26      603214A4 
  26      9FF91C43 
  26      E3
ARM GAS  /tmp/cc7O25sm.s 			page 2


  27 004c C7B71FAE 		.ascii	"\307\267\037\2561\302\225\200\031\015\007\272\317\265"
  27      31C29580 
  27      190D07BA 
  27      CFB5
  28 005a B2323024 		.ascii	"\26220$2.\004\312$3B\014\006Z\223\315\014q\227\034C"
  28      322E04CA 
  28      2433420C 
  28      065A93CD 
  28      0C71971C 
  29 006f C9DC8619 		.ascii	"\311\334\206\031\016\231P\011\206\213\014\215\017\346"
  29      0E995009 
  29      868B0C8D 
  29      0FE6
  30 007d 6A4394C3 		.ascii	"jC\224\303@\010H\033H\265\221~F~n\252~jZ\252\276sFf"
  30      4008481B 
  30      48B5917E 
  30      467E6EAA 
  30      7E6A5AAA 
  31 0095 52A67FB0 		.ascii	"R\246\177\260~~\261~Q\211~A~QI\261\276c\220\257\263"
  31      7E7EB17E 
  31      51897E41 
  31      7E5149B1 
  31      BE6390AF 
  32 00aa 6F857E72 		.ascii	"o\205~rFr~Qj|\231Y\256^\006\203)V-\251\025%\372\316"
  32      46727E51 
  32      6A7C9959 
  32      AE5E0683 
  32      29562DA9 
  33 00c2 BEC19EC1 		.ascii	"\276\301\236\301\372\231y\3119\245)\251\372`-\311\271"
  33      FA9979C9 
  33      39A529A9 
  33      FA602DC9 
  33      B9
  34 00d3 6EA579C9 		.ascii	"n\245y\311@]\034\311\005\305\231)\012\231\014\354\271"
  34      405D1CC9 
  34      05C59929 
  34      0A990CEC 
  34      B9
  35 00e4 A9B9F945 		.ascii	"\251\271\371E\225\014\000?\304L\322"
  35      950C003F 
  35      C44CD2
  36              		.text
  37              		.section	.gnu.lto_port_unlock.47848e2ae12d73d,"",%progbits
  38 0000 789C6362 		.ascii	"x\234cb`b@\007\"@<\035\210\253A\034f\006F\240\012F&"
  38      60624007 
  38      22403C1D 
  38      88AB411C 
  38      660646A0 
  39 0017 46462087 		.ascii	"FF \207\221\241\236\211\261>\222\021\254l=\323\201\007"
  39      91A19E89 
  39      B13E9211 
  39      AC6C3DD3 
  39      8107
  40 0029 FFFFAFBB 		.ascii	"\377\377\257\2736m\371\033\306[L 1V\206\226\206\206"
  40      366DF91B 
  40      C65B4C20 
  40      31568696 
ARM GAS  /tmp/cc7O25sm.s 			page 3


  40      8686
  41 003b 090A0C0C 		.ascii	"\011\012\014\014\311`\025!`2\024\244\237\371\034C\343"
  41      C9601521 
  41      603214A4 
  41      9FF91C43 
  41      E3
  42 004c C7B7BBAE 		.ascii	"\307\267\273\2561\302\225\200\031\015\007N_\373\312"
  42      31C29580 
  42      190D074E 
  42      5FFBCA
  43 005b CCC090C8 		.ascii	"\314\300\220\310\270\020(\223\314\0101\030hM63\304]"
  43      B8102893 
  43      CC083118 
  43      684D3633 
  43      C45D
  44 006d 720C2573 		.ascii	"r\014%s\033f8dB%\030.24>X\247\015Q\016\003! m \325F"
  44      1B663864 
  44      4225182E 
  44      32343E58 
  44      A70D510E 
  45 0088 FA19F9B9 		.ascii	"\372\031\371\271\251\372\251i\251\372\316\031\231I\231"
  45      A9FAA969 
  45      A9FACE19 
  45      994999
  46 0097 FEC1FAF9 		.ascii	"\376\301\372\371\305\372E%\372\005\371E%\305\372\216"
  46      C5FA4525 
  46      FA05F945 
  46      25C5FA8E 
  47 00a7 41BECEBE 		.ascii	"A\276\316\276\025\372\311\031\311\371E\251\361ef\271"
  47      15FAC919 
  47      C9F945A9 
  47      F16566B9 
  48 00b7 7A190CA6 		.ascii	"z\031\014\246X\265\244V\224\350;\373\006{\006\353g\346"
  48      58B5A456 
  48      94E83BFB 
  48      067B06EB 
  48      67E6
  49 00c9 25E794A6 		.ascii	"%\347\224\246\244\352\203\265$\347\272\225\346%\003"
  49      A4EA83B5 
  49      24E7BA95 
  49      E62503
  50 00d8 75712417 		.ascii	"uq$\027\024g\246*d2\260\347\246\346\346\027U2\000\000"
  50      1467A62A 
  50      6432B0E7 
  50      A6E6E617 
  50      55320000 
  51 00ec DC484D98 		.ascii	"\334HM\230"
  52              		.text
  53              		.section	.gnu.lto_chSysLock.47848e2ae12d73d,"",%progbits
  54 0000 789C6362 		.ascii	"x\234cb`b@\007\"@\\\006\304Z \0163\003#P\005#\023##"
  54      60624007 
  54      22405C06 
  54      C45A200E 
  54      33032350 
  55 0019 90C3C850 		.ascii	"\220\303\310P\317\304X\037\311\010V\266\236\351\300"
  55      CFC4581F 
  55      C90856B6 
ARM GAS  /tmp/cc7O25sm.s 			page 4


  55      9EE9C0
  56 0028 83FFFFD7 		.ascii	"\203\377\377\327}\271\266\354\017\343m&\220\030+CKC"
  56      7DB9B6EC 
  56      0FE36D26 
  56      90182B43 
  56      4B43
  57 003a C3040506 		.ascii	"\303\004\005\006\206d\260\212\0200\031\012\322\317|"
  57      8664B08A 
  57      1030190A 
  57      D2CF7C
  58 0049 9EA1F9C1 		.ascii	"\236\241\371\301\236n\366D\306\205\214\254@\301j\206"
  58      9E6EF644 
  58      C6858CAC 
  58      40C16A86 
  59 0059 5F0D1D0D 		.ascii	"_\015\035\015\002\231\214@\245\020\3232A\364E\206\306"
  59      02998C40 
  59      A510D332 
  59      41F44586 
  59      C6
  60 006a 07FBB561 		.ascii	"\007\373\265a\212  \004$\001r\244\206~F~n\252~jZ\252"
  60      8A202004 
  60      240172A4 
  60      867E467E 
  60      6EAA7E6A 
  61 0080 BE734666 		.ascii	"\276sFfR\246\177\260~~\261~Q\211~f^rNiJ\252~rFqe\261"
  61      52A67FB0 
  61      7E7EB17E 
  61      51897E66 
  61      5E724E69 
  62 009c 5E060300 		.ascii	"^\006\003\000\376\375*9"
  62      FEFD2A39 
  63              		.text
  64              		.section	.gnu.lto_chSysUnlock.47848e2ae12d73d,"",%progbits
  65 0000 789C6362 		.ascii	"x\234cb`b@\007\322@\334\301\310\300\240\005\342\260"
  65      60624007 
  65      D240DCC1 
  65      C8C0A005 
  65      E2B0
  66 0012 30300255 		.ascii	"00\002U0212\003IfF\2400\003#C=\0233c}$\210\315\300\246"
  66      30323132 
  66      03496646 
  66      A0300323 
  66      433D1333 
  67 002d C4B0B0A1 		.ascii	"\304\260\260\241a\322\203\247\337gIv-h\232\320\360\357"
  67      61D283A7 
  67      DF674976 
  67      2D689AD0 
  67      F0EF
  68 003f FF7FC64C 		.ascii	"\377\177\306L\220T2#C\004\220\305\250\000\246\230XP"
  68      90543223 
  68      430490C5 
  68      A800A698 
  68      5850
  69 0051 2D81686B 		.ascii	"-\201hk\330\264\242\201sA\303\237\377\377\231\311\323"
  69      D8B4A281 
  69      7341C39F 
  69      FFFF99C9 
ARM GAS  /tmp/cc7O25sm.s 			page 5


  69      D3
  70 0062 C33C58EC 		.ascii	"\303<X\354\311edX\317t\340\301\377\377ov\356|\364\206"
  70      C9656458 
  70      CF74E0C1 
  70      FFFF6F76 
  70      EE7CF486 
  71 0076 5114640B 		.ascii	"Q\024d\013+CKC\303\004\205\\\250\215@\020\002%\201A"
  71      2B434B43 
  71      C304855C 
  71      A88D4010 
  71      02258141 
  72 008a CA1C0A32 		.ascii	"\312\034\0122\224\371<C\363\203\327\247\331\023\031"
  72      94F93C43 
  72      F383D7A7 
  72      D91319
  73 0099 9731B202 		.ascii	"\2271\262\002\245\252\031~5t4\010d2\262$\203\303\232"
  73      A5AA197E 
  73      35743408 
  73      6432B224 
  73      83C39A
  74 00ac 81211324 		.ascii	"\201!\023$~\221\241\361\301\033m\230\"\010\010\001)"
  74      7E91A1F1 
  74      C11B6D98 
  74      22080801 
  74      29
  75 00bd 00C59E86 		.ascii	"\000\305\236\206~F~n\252~jZ\252\276sFfR\246\177\260"
  75      7E467E6E 
  75      AA7E6A5A 
  75      AABE7346 
  75      6652A67F 
  76 00d2 7E7EB17E 		.ascii	"~~\261~Q\211~f^rNiJ\252~rFqe\261^\006\003\000\303\313"
  76      51897E66 
  76      5E724E69 
  76      4AAA7E72 
  76      467165B1 
  77 00ec 66D2     		.ascii	"f\322"
  78              		.text
  79              		.section	.gnu.lto_chRegFirstThread.47848e2ae12d73d,"",%progbits
  80 0000 789C6362 		.ascii	"x\234cb`b@\007\322@\274\230\221\201A\017\304aa`\004"
  80      60624007 
  80      D240BC98 
  80      9181410F 
  80      C4616160 
  81 0015 AA606462 		.ascii	"\252`dbd\006\222\314\214@a\006F\206z&f\306\372H\020"
  81      640692CC 
  81      8C406106 
  81      46867A26 
  81      66C6FA48 
  82 002a 9B814989 		.ascii	"\233\201I\211aaC\303\254\007K\227\317\224\354Z\3204"
  82      616143C3 
  82      AC074B97 
  82      CF94EC5A 
  82      D034
  83 003c A1E1DFFF 		.ascii	"\241\341\337\377\377\214\231 \251dF\206\010 \213Q\001"
  83      FF8C9920 
  83      A9644686 
  83      08208B51 
ARM GAS  /tmp/cc7O25sm.s 			page 6


  83      01
  84 004d 4C31B1A0 		.ascii	"L1\261\240Z\002\3266\351\300\314S}\222\015H\332\230"
  84      5A02D636 
  84      E9C0CC53 
  84      7D920D48 
  84      DA98
  85 005f 18741809 		.ascii	"\030t\030\011\350\\\317t\340\301\377\377{.\256x4\217"
  85      E85CCF74 
  85      E0C1FFFF 
  85      7B2EAE78 
  85      348F
  86 0071 51889991 		.ascii	"Q\210\231\221!\221q\021\243\022P#\330R\006V\206\226"
  86      21917111 
  86      A3125023 
  86      D8520656 
  86      8696
  87 0083 8686090A 		.ascii	"\206\206\011\012\020A\260#\200 \004L\206\202|\302|\236"
  87      1041B023 
  87      8020044C 
  87      86827CC2 
  87      7C9E
  88 0095 A1F9415F 		.ascii	"\241\371A_+{\"\343\022FV\240`5\303\257\206\216\006\201"
  88      2B7B22E3 
  88      124656A0 
  88      6035C3AF 
  88      868E0681 
  89 00a9 4C46E664 		.ascii	"LF\346d\260\347\030\200\346\000-<\313\320t\353\307b"
  89      B0E71880 
  89      E6002D3C 
  89      CBD074EB 
  89      C762
  90 00bb 4388AA74 		.ascii	"C\210\252tFFm\206U\015@\020\010\264\004\3124\315dd\235"
  90      46466D86 
  90      550D4010 
  90      08B404CA 
  90      34CD6464 
  91 00d0 CD30ABB1 		.ascii	"\3150\253\261\001\244\231\015n\014{.\330\024\220\303"
  91      01A4990D 
  91      6E0C7B2E 
  91      D81490C3 
  92 00e0 D9C1C625 		.ascii	"\331\301\306%AL\005\322P\006\003\310\005\263\217bu\001"
  92      414C05D2 
  92      500603C8 
  92      05B38F62 
  92      7501
  93 00f2 138A0B4E 		.ascii	"\023\212\013N\356X.\011s\001S:L\177((*\230O34r00\244"
  93      EE582E09 
  93      7301533A 
  93      4C7F2828 
  93      2A984F33 
  94 010b 80042F32 		.ascii	"\200\004/20\302UA\224\204\200\204AlM\375\214\374\334"
  94      30C25541 
  94      94848084 
  94      416C4DFD 
  94      8CFCDC
  95 011e 54FDD4B4 		.ascii	"T\375\324\264T}\347\214\314\244L\377`\375\374b\375\242"
  95      547DE78C 
ARM GAS  /tmp/cc7O25sm.s 			page 7


  95      CCA44CFF 
  95      60FDFC62 
  95      FDA2
  96 0130 12FDE2A2 		.ascii	"\022\375\342\242d\375\344\214\242\324\364\314\342\222"
  96      64FDE48C 
  96      A2D4F4CC 
  96      E292
  97 013e A24ABD64 		.ascii	"\242J\275d\006\246\222\002\000\373\"k\352"
  97      06A69202 
  97      00FB226B 
  97      EA
  98              		.text
  99              		.section	.gnu.lto_chRegNextThread.47848e2ae12d73d,"",%progbits
 100 0000 789C8551 		.ascii	"x\234\205Q=K\003A\024|\263{\227X\212]\300B\354D\361"
 100      3D4B0341 
 100      147CB37B 
 100      97588A5D 
 100      C042EC44 
 101 0015 4AB1F607 		.ascii	"J\261\366\007X\250\020Ks9\223+b$\211\205X\270~\201("
 101      58A8104B 
 101      7339932B 
 101      62248985 
 101      58B87E81 
 102 002a 8868A3B1 		.ascii	"\210h\243\261Q\261\262\011XI\020QP0\212\210U\2106A\004"
 102      51B1B209 
 102      58491051 
 102      50308A88 
 102      55883641 
 103 003f F51FA888 		.ascii	"\365\037\250\210\361\355]\242\361\003\034\270\367v\357"
 103      F1ED5DA2 
 103      F1031CB8 
 103      F776EF
 104 004e DECC9BE1 		.ascii	"\336\314\233\341\004\011\372\011\213\237&\341w\012\020"
 104      0409FA09 
 104      8B9F26E1 
 104      770A10
 105 005d F8082124 		.ascii	"\370\010!$\221\022\006\027C\202\033\014\230\\M\200\207"
 105      91120617 
 105      43821B0C 
 105      985C4D80 
 105      87
 106 006e 4093421A 		.ascii	"@\223B\032&&\007\365\215D+m)\225-\317\345\327C\013\233"
 106      262607F5 
 106      8D442B6D 
 106      29952DCF 
 106      E5D7430B 
 107 0083 D3CBEABD 		.ascii	"\323\313\352\275R\201\253?\331\2400\237\320\3425-W\017"
 107      5281AB3F 
 107      D9A0309F 
 107      D0E2352D 
 107      570F
 108 0095 8FB672F4 		.ascii	"\217\266r\364r\276\024Ru4A\035\370\207\231\023G\345"
 108      72BE1452 
 108      7534411D 
 108      F8879913 
 108      47E5
 109 00a7 4AE5A078 		.ascii	"J\345\240x\177\367\204\246\000h\010\333h%\201\004HV"
ARM GAS  /tmp/cc7O25sm.s 			page 8


 109      7FF784A6 
 109      006808DB 
 109      68258104 
 109      4856
 110 00b9 2F46B59B 		.ascii	"/F\265\233\3449\341>\253\324r\213\377\322s\306\350\367"
 110      E439E13E 
 110      ABD4728B 
 110      FFD273C6 
 110      E8F7
 111 00cb EA808E2C 		.ascii	"\352\200\216,\257h\246|8\027\034\302\216NJ\023\364\252"
 111      AF68A67C 
 111      38171CC2 
 111      8E4E4A13 
 111      F4AA
 112 00dd E655A30B 		.ascii	"\346U\243\013i{\231\211u\330\305%M\337<\347\272\375"
 112      697B9989 
 112      75D8C525 
 112      4DDF3CE7 
 112      BAFD
 113 00ef A918643B 		.ascii	"\251\030d;\355*F\027/\331\240,[5c\020a?=#\202\232\345"
 113      ED2A4617 
 113      2FD9A02C 
 113      5B356310 
 113      613F3D23 
 114 0106 333A7938 		.ascii	"3:y8^]\224\237L\177\201\032s\021\250\212L\270\010&\200"
 114      5E5D949F 
 114      4C7F811A 
 114      7311A88A 
 114      4CB80826 
 115 011b 0840BF30 		.ascii	"\010@\2770\000\376!\222\267\357?\357\025P\0231\2766"
 115      00FE2192 
 115      B7EF3FEF 
 115      15501331 
 115      BE36
 116 012d 79334635 		.ascii	"y3F5\307\355\351\2379\304\267\034\205\265|\250&\304"
 116      C7EDE99F 
 116      39C4B71C 
 116      85B57CA8 
 116      26C4
 117 013f AE3D9D12 		.ascii	"\256=\235\022\201\255\211\267b3\213\313\203RT\253\262"
 117      81AD89B7 
 117      62338BCB 
 117      835254AB 
 117      B2
 118 0150 8CBCA0A9 		.ascii	"\214\274\240\251\006\242\250\226\270\246\251\362\243"
 118      06A2A896 
 118      B8A6A9F2 
 118      A3
 119 015d F3C9F477 		.ascii	"\363\311\364w\367k\276\326o\263\342\311\204c9\303\216"
 119      F76BBED6 
 119      6FB3E2C9 
 119      846339C3 
 119      8E
 120 016e D5137723 		.ascii	"\325\023w#no\237\225L[\251\214\225N\331\226\035O917"
 120      6E6F9F95 
 120      4C5BA98C 
 120      954ED996 
ARM GAS  /tmp/cc7O25sm.s 			page 9


 120      1D4F3931 
 121 0183 9D498D77 		.ascii	"\235I\215w\332$G2\243\037\242\352\206\242"
 121      DA244732 
 121      A31FA2EA 
 121      86A2
 122              		.text
 123              		.section	.gnu.lto_.symbol_nodes.47848e2ae12d73d,"",%progbits
 124 0000 789C4DCC 		.ascii	"x\234M\314-\016\203P\020E\34133\374\354\204\256\213"
 124      2D0E8350 
 124      1045E133 
 124      33FCEC84 
 124      AE8B
 125 0012 95DC0485 		.ascii	"\225\334\004\205\304\220\260\036\004u\225\325t\025-"
 125      C490B01E 
 125      047595D5 
 125      74152D
 126 0021 08020D4F 		.ascii	"\010\002\015O\2741'\337\025\3438\023\351\274\021\014"
 126      BC3127DF 
 126      15E33813 
 126      E9BC110C 
 127 0031 2F90C6BE 		.ascii	"/\220\306\276\365\207,\323\202<\343\023E\306\037*\022"
 127      F5872CD3 
 127      823CE313 
 127      45C61F2A 
 127      12
 128 0042 DFBD95FB 		.ascii	"\337\275\225\373\365M\370\206\312l\375b\265\010\207"
 128      F54DF886 
 128      CA6CFD62 
 128      B50887
 129 0051 6E3D2CC2 		.ascii	"n=,\302\356\026\236\032\314\377V\311U\320}\016\343\004"
 129      EE169E1A 
 129      CCFF56C9 
 129      55D07D0E 
 129      E304
 130 0063 A9903019 		.ascii	"\251\2200\031"
 131              		.text
 132              		.section	.gnu.lto_.refs.47848e2ae12d73d,"",%progbits
 133 0000 789C6362 		.ascii	"x\234cb`b\340d\200\000F\026\006VF6&V\006\000\001r\000"
 133      6062E064 
 133      80004616 
 133      06564636 
 133      26560600 
 134 0017 26       		.ascii	"&"
 135              		.text
 136              		.section	.gnu.lto_.decls.47848e2ae12d73d,"",%progbits
 137 0000 789CC55B 		.ascii	"x\234\305[{p\024\307\231\237\236\321k\245E\020\022s"
 137      7B7014C7 
 137      999F9ED1 
 137      6BA54510 
 137      1273
 138 0012 A4CA29CB 		.ascii	"\244\312)\313W\311\025\347K,9\301\034\276\252\304\276"
 138      57C915E7 
 138      4B2C39C1 
 138      1CBEAAC4 
 138      BE
 139 0023 A2CAF155 		.ascii	"\242\312\361U\235\223\253p\276K\245*Y\017\253\001m\262"
 139      9D93AB70 
ARM GAS  /tmp/cc7O25sm.s 			page 10


 139      BE4BA52A 
 139      590FAB01 
 139      6DB2
 140 0035 2B6D6647 		.ascii	"+mfG\006r\177d$@\207\315U\020\310\266\024\300 \314#"
 140      06727F64 
 140      244087CD 
 140      5510C8B6 
 140      14C020CC 
 141 004a C6015B82 		.ascii	"\306\001[\202\200\015\216\355!\346!\020X\030a\024\203"
 141      800D8EED 
 141      21E62110 
 141      58186114 
 141      83
 142 005b 11C2607C 		.ascii	"\021\302`|\004\333 \202\000\005d\335\327\337t\317\316"
 142      04DB2082 
 142      000564DD 
 142      D7DF74CF 
 142      CE
 143 006c 8C665633 		.ascii	"\214fV3\242\234\233\322\366N\367t\377\372\353\357\335"
 143      A29C9BD2 
 143      F64EF774 
 143      FFFAEBEF 
 143      DD
 144 007d 3D2B5110 		.ascii	"=+Q\020\205CD\020\206\341\022\036\020\204\257\027\012"
 144      85434410 
 144      86E1121E 
 144      1084AF17 
 144      0A
 145 008e 02FC09DF 		.ascii	"\002\374\011\337\021\262W\001|\326\302g#|6\301g3|^\206"
 145      11B25701 
 145      7CD6C267 
 145      237C36C1 
 145      67337C5E 
 146 00a3 CFF7619C 		.ascii	"\317\367a\234\010\337\377\001\337;\211\340\270h\177"
 146      08DFFF01 
 146      DF3B89E0 
 146      B8687F
 147 00b2 DA7481B5 		.ascii	"\332t\201\265\213\254\355\242\253\237\300p\335}i\333"
 147      8BACEDA2 
 147      AB9FC070 
 147      DD7D69DB 
 148 00c2 658FBE9B 		.ascii	"e\217\276\233\330\363\253\360\354y!\333\177\023\303"
 148      D8F3ABF0 
 148      EC7921DB 
 148      7F13C3
 149 00d1 775F9B19 		.ascii	"w_\233\031\375\355\360)\205OT0\327\347\036\277\331F"
 149      FDEDF029 
 149      854F5430 
 149      D7E71EBF 
 149      D946
 150 00e3 C7806B5E 		.ascii	"\307\200k^\272\326\"\027\006\037\377\023\370\376O\370"
 150      BAD62217 
 150      061FFF13 
 150      F8FE4FF8 
 151 00f3 DC64BCF8 		.ascii	"\334d\274\3701|\377\024>\022\033\307\371\305\371t\313"
 151      317CFF14 
 151      3E121BC7 
ARM GAS  /tmp/cc7O25sm.s 			page 11


 151      F9C5F974 
 151      CB
 152 0104 854D79E8 		.ascii	"\205My\350\207\275\025>C\304\234\203\216\377\210\341"
 152      87BD153E 
 152      43C49C83 
 152      8EFF88E1 
 153 0114 4B6C1CC7 		.ascii	"Kl\034\307\246\365\231\304\304\377\314\205\177\227\260"
 153      A6F599C4 
 153      C4FFCC85 
 153      7F97B0
 154 0123 5A378EF4 		.ascii	"Z7\216\364\355=\377\201\370k\335X\250\203\230uR6IxF"
 154      ED3DFF81 
 154      F86BDD58 
 154      A8839875 
 154      52364978 
 155 0138 87ABB541 		.ascii	"\207\253\265A\327\211&\223\357\334!\374\220\310\244"
 155      D7892693 
 155      EFDC21FC 
 155      90C8A4
 156 0147 342294E1 		.ascii	"4\"\224\341M4\"\344\341h\231<O&\261\273\307$\316\255"
 156      4D3422E4 
 156      E168993C 
 156      4F26B1BB 
 156      C724CEAD 
 157 015b FB89708F 		.ascii	"\373\211p\217\260\011\3067\352\372\007wy0]\020\376N"
 157      B009C637 
 157      EAFA0777 
 157      79305D10 
 157      FE4E
 158 016d D84027D0 		.ascii	"\330@'\320_\320%\204\247\000k\211\243\257L\326\021q"
 158      5FD02584 
 158      A7006B89 
 158      A3AF4CD6 
 158      1171
 159 017f 24A9C6F1 		.ascii	"$\251\306\361\343\321\306\272\276\341\3415\255\023\314"
 159      E3D1C6BA 
 159      BEE1E135 
 159      AD13CC
 160 018e E945E161 		.ascii	"\351E\341a\002\275\327\223{r\302ot\303\377\306\013\276"
 160      02BDD793 
 160      7B72C26F 
 160      74C3FFC6 
 160      0BBE
 161 01a0 EF58C3A9 		.ascii	"\357X\303\251|\033'\370\024\377\025d\212M\356)^\364"
 161      7C1B27F8 
 161      14FF1564 
 161      8A4DEE29 
 161      5EF4
 162 01b2 5CC1AA9E 		.ascii	"\\\301\252\236\021+XD\202\340ov\343o\031\211\337j\364"
 162      112B5844 
 162      82E06F76 
 162      E36F1989 
 162      DF6AF4
 163 01c5 751FDCBB 		.ascii	"u\037\334\273\225,[\240w\350\227\207\207\307Op\010\263"
 163      952C5BA0 
 163      77E89787 
 163      87C74F70 
ARM GAS  /tmp/cc7O25sm.s 			page 12


 163      08B3
 164 01d7 44784AD7 		.ascii	"DxJ\327\353i\345\221\216\322\211\3022\372\244\254\003"
 164      EB69E591 
 164      8ED289C2 
 164      32FAA4AC 
 164      03
 165 01e8 348B0958 		.ascii	"4\213\011X\227\270\204+\000\360k\302z\220b\337\365\316"
 165      97B8842B 
 165      00F06BC2 
 165      7A9062DF 
 165      F5CE
 166 01fa 37FF49D7 		.ascii	"7\377I\327\213d\262\225L\004b/\270\210\035\025F\024"
 166      8B64B295 
 166      4C04622F 
 166      B8881D15 
 166      4614
 167 020c AEE090ED 		.ascii	"\256\340\220\3550\334\034\210\300z\337\340\322\275\013"
 167      30DC1C88 
 167      C07ADFE0 
 167      D2BD0B
 168 021b 481DD065 		.ascii	"H\035\320e>\023\\<\260]w\013\255@\267\321\374\253\347"
 168      3E135C3C 
 168      B05D770B 
 168      AD40B7D1 
 168      FCABE7
 169 022e BEACB7FE 		.ascii	"\276\254\267\376\001\372\267\223\022\300\335(r\\/\005"
 169      01FAB793 
 169      12C0DD28 
 169      725C2F05 
 170 023e 65B7E6C5 		.ascii	"e\267\346\305:8\361V\274\035m\2249\330\226\320`e\016"
 170      3A38F156 
 170      BC1D6D94 
 170      39D896D0 
 170      60650E
 171 0251 B0356FAF 		.ascii	"\2605o\257B\342\"\302\342,\217\005O0\306\330\367\232"
 171      42E222C2 
 171      E22C8F05 
 171      4F30C6D8 
 171      F79A
 172 0263 F6BC4316 		.ascii	"\366\274C\026\340\372_\207a\300'\321\311\332\340P\003"
 172      E0FA5F87 
 172      61C027D1 
 172      C9DAE050 
 172      03
 173 0274 CD7B7793 		.ascii	"\315{w\223z\2042\020\252E\032+T\323\311=\313\030Uo!"
 173      7A843210 
 173      AA451A2B 
 173      54D3C93D 
 173      CB18556F 
 174 0289 54970B4A 		.ascii	"T\227\013J&\205\026#\255:\357@\361\3601\273\241\221"
 174      26851623 
 174      AD3AEF40 
 174      F1F031BB 
 174      A191
 175 029b 63BCF039 		.ascii	"c\274\3609w\027\205\023R\000\341\025\371i\202\336wc"
 175      77178513 
 175      5200E115 
ARM GAS  /tmp/cc7O25sm.s 			page 13


 175      F96982DE 
 175      7763
 176 02ad E92189DA 		.ascii	"\351!\211\332\275\304\264\271\265\300\217K\242p\006"
 176      BDC4B4B9 
 176      B5C08F4B 
 176      A27006
 177 02bc E7EA706B 		.ascii	"\347\352pk\363\266\323\207\352\2316w\004\322\346\355"
 177      F3B6D387 
 177      EA993677 
 177      04D2E6ED 
 178 02cc 079B5161 		.ascii	"\007\233QaF3\312V\221\317\377U\234\277%\217\316\177"
 178      4633CA56 
 178      91CFFF55 
 178      9CBF258F 
 178      CE7F
 179 02de D83DFFA2 		.ascii	"\330=\377\242m\273\011\232\351\341@\263\257\354|z\344"
 179      6DBB099A 
 179      E9E140B3 
 179      AFEC7C7A 
 179      E4
 180 02ef ECBECE9E 		.ascii	"\354\276\316\236\351\306\266\323\347\373\331\032\337"
 180      E9C6B6D3 
 180      E7FBD91A 
 180      DF
 181 02fc 41A3599F 		.ascii	"A\243Y\237\347\326\215\007K\234\322\203\272\255\003"
 181      E7D68D07 
 181      4B9CD283 
 181      BAAD03
 182 030b 989945FD 		.ascii	"\230\231E\375\230l\266o\357\266\003\030\253$NB[h\300"
 182      986CB66F 
 182      EFB60318 
 182      AB244E42 
 182      5B68C0
 183 031e 32072356 		.ascii	"2\007#Vw\242\0230\301\266\005\001\363\325\243z\243\315"
 183      77A21330 
 183      C1B60501 
 183      F3D5A37A 
 183      A3CD
 184 0330 0EF64A68 		.ascii	"\016\366Jh0'e[\355`\257\005\001\233\340O\331\357\354"
 184      3027655B 
 184      ED60AF05 
 184      019BE04F 
 184      D9EFEC
 185 0343 606F8406 		.ascii	"`o\204\006sR\266\303\016\266;\010\330d\177\312^\265"
 185      7352B6C3 
 185      0EB63B08 
 185      D8647FCA 
 185      5EB5
 186 0355 83ED090D 		.ascii	"\203\355\011\015\346\244l\227\035l\177\020\2602\017"
 186      E6A46C97 
 186      1D6C7F10 
 186      B0320F
 187 0364 CAACCB2F 		.ascii	"\312\254\313/\3619D,5\027\205\203y\334!\204Ti!\213\361"
 187      F139442C 
 187      35178583 
 187      79DC2184 
 187      5469218B 
ARM GAS  /tmp/cc7O25sm.s 			page 14


 188 0379 765E5807 		.ascii	"v^X\007\346X7\304\322\303\353H\023D\375\012\036\317"
 188      E65837C4 
 188      D2C3EB48 
 188      1344FD0A 
 188      1ECF
 189 038b 8E0541CC 		.ascii	"\216\005A\314\2410;\354\301\361\375\320`N\261\034\243"
 189      A1303BEC 
 189      C1F1FDD0 
 189      604EB11C 
 189      A3
 190 039c 600E57C3 		.ascii	"`\016W\303\002R\337\006crK\326\327\025q,\232\250\232"
 190      0252DF06 
 190      63724BD6 
 190      D715712C 
 190      9AA89A
 191 03af 8E0DD248 		.ascii	"\216\015\322H\321\352\254O\236\354\335W&\237\222\257"
 191      D1EAAC4F 
 191      9EECDD57 
 191      269F92AF 
 192 03bf 41798944 		.ascii	"Ay\211D,*\314{~7\214y\362\271<\217m\203)\323\334C\375"
 192      2C2ACC7B 
 192      7E378C79 
 192      F2B93C8F 
 192      6D8329D3 
 193 03d6 34E163BB 		.ascii	"4\341c\273&\\\010\302\246\034\246p\363\355U\177\243"
 193      265C08C2 
 193      A61CA670 
 193      F3ED557F 
 193      A3
 194 03e7 F719C4B6 		.ascii	"\367\031\304\266\336\234\314\201\034\242\373\215o\243"
 194      DE9CCC81 
 194      1CA2FB8D 
 194      6FA3
 195 03f5 D7FF33C6 		.ascii	"\327\3773\306\352\313y\236a?\000\320@\363\226\177@\240"
 195      EACB799E 
 195      613F00D0 
 195      40F3967F 
 195      40A0
 196 0407 6B083438 		.ascii	"k\01048f\240\246\223\253\247#\320 \002\325\345\273#"
 196      66A0A693 
 196      ABA723D0 
 196      2002D5E5 
 196      BB23
 197 0419 0471650F 		.ascii	"\004qe\017\304\031\337-\3163\306\177^}EaI\276KZ\216"
 197      C419DF2D 
 197      CE33C67F 
 197      5E7D4561 
 197      49BE4B5A 
 198 042e E58CEA6B 		.ascii	"\345\214\352k\372\006\273\3165\221?\327\353-\025!\344"
 198      FA06BBCE 
 198      35913FD7 
 198      EB2D1521 
 198      E4
 199 043f D5C4E4F5 		.ascii	"\325\304\344\365\031r\247i\004w\256\205d\217(\254\014"
 199      1972A769 
 199      0477AE85 
 199      648F28AC 
ARM GAS  /tmp/cc7O25sm.s 			page 15


 199      0C
 200 0450 BD8C29B6 		.ascii	"\275\214)\266e@\032\336u\365i\323u|QX\236;\371\241\364"
 200      65401ADE 
 200      75F569D3 
 200      757C5158 
 200      9E3BF9A1 
 201 0465 2C10BFE8 		.ascii	",\020\277\350H<\214\201.\272Q\242\315\243e\035\272\321"
 201      483C8C81 
 201      2EBA51A2 
 201      CDA3651D 
 201      BAD1
 202 0477 74D49624 		.ascii	"t\324\226$\353\201\222\344n+In\020)\313\326\345{hf\020"
 202      EB8192E4 
 202      6E2B496E 
 202      1029CBD6 
 202      E57B6866 
 203 048c A8D6819E 		.ascii	"\250\326\201\236;\364<\231<\2110\233\306\012\003\012"
 203      3BF43C99 
 203      3C89309B 
 203      C60A030A 
 204 049c FEA6A9E0 		.ascii	"\376\246\251\340\377\203@\355#DX\340\222`\201S\202P"
 204      FF8340ED 
 204      234458E0 
 204      92608153 
 204      8250
 205 04ae A533DDA0 		.ascii	"\2453\335\240\311+\371%k\241\225B\341\257>\016\362\012"
 205      C92BF925 
 205      6BA19542 
 205      E1AF3E0E 
 205      F20A
 206 04c0 249F4A6F 		.ascii	"$\237Jo,\371\030\335\304\035z\232\007\036S@\177\270"
 206      2CF918DD 
 206      C41D7A9A 
 206      071E5340 
 206      7FB8
 207 04d2 2DC47AE3 		.ascii	"-\304z\343\315\345|\227\367 \015=\235\267\011\367\376"
 207      CDE57C97 
 207      F7200D3D 
 207      9DB709F7 
 207      FE
 208 04e3 5177E871 		.ascii	"Qw\350q\245\274[}\3345\337\376.\331\307\267V\317\212"
 208      A5BC5B7D 
 208      DC35DFFE 
 208      2ED9C7B7 
 208      56CF8A
 209 04f6 94A0A323 		.ascii	"\224\240\243#\004\336N\\I/m\260u\3613\245gD[\354\370"
 209      04DE4E5C 
 209      492F6DB0 
 209      75F133A5 
 209      67445BEC 
 210 050b F0F6D609 		.ascii	"\360\366\326\011\2028\275\336\024\304h\033\212\3079"
 210      8238BDDE 
 210      14C4681B 
 210      8AC739
 211 051a 5A1427BE 		.ascii	"Z\024'\276\210\023\257\022]\373\211\376K}\015l\335\364"
 211      8813AF12 
 211      5DFB89FE 
ARM GAS  /tmp/cc7O25sm.s 			page 16


 211      4B7D0D6C 
 211      DDF4
 212 052c D9E8B67D 		.ascii	"\331\350\266}\362\303\210\276<\3521\337C\366\374\305"
 212      F2C388BE 
 212      3CEA31DF 
 212      43F6FCC5 
 213 053c E2EAB165 		.ascii	"\342\352\261ed!\242\267\212\364Xam\201\347\261B\353"
 213      6421A2B7 
 213      8AF45861 
 213      6D81E7B1 
 213      42EB
 214 054e 437E4060 		.ascii	"C~@`y8d\235\233\360\301\256\353|#\266.\000\341\365F"
 214      7938649D 
 214      9BF0C1AE 
 214      EB7C23B6 
 214      2E00E1F5 
 215 0563 FF12FBB1 		.ascii	"\377\022\373\261\202Lv\022\221\341\216M\343\256tZ\231"
 215      824C7612 
 215      91E18E4D 
 215      E3AE745A 
 215      99
 216 0574 934C5E0B 		.ascii	"\223L^\013\015V\346E*\327\254\354je\262A\244\031\317"
 216      0D56E645 
 216      2AD7ACEC 
 216      6A65B241 
 216      A419CF
 217 0587 46F16E7A 		.ascii	"F\361nz\234\005\245u\201\015\026p\231z\261nt\253\356"
 217      9C05A575 
 217      810D1670 
 217      997AB16E 
 217      74ABEE
 218 059a BF74E359 		.ascii	"\277t\343YS\231\302x\352}\334S\277\210\216\340`\201"
 218      5399C278 
 218      EA7DDC53 
 218      BF888EE0 
 218      6081
 219 05ac DB50A8EB 		.ascii	"\333P\250\353u,'\224\253:\342^T\320\315\231u\371\031"
 219      752C2794 
 219      AB3AE25E 
 219      54D0CD99 
 219      75F919
 220 05bf E24ABB21 		.ascii	"\342J\273!\036/\270MC\354\372(\240!\352\304\236:\213"
 220      1E2FB84D 
 220      43ECFA28 
 220      A021EAC4 
 220      9E3A8B
 221 05d2 C2299CB9 		.ascii	"\302)\234\271\335\255\320\317]\357\370o\246\320\355"
 221      DDADD0CF 
 221      5DEFF86F 
 221      A6D0ED
 222 05e1 812C7100 		.ascii	"\201,q\000-\221[\326\322B\216:\026]\2507\006/\034 \010"
 222      2D915BD6 
 222      D2428E3A 
 222      165DA837 
 222      062F1C20 
 223 05f6 676E059A 		.ascii	"gn\005\232\335p!\267\310\267\224\260\2141\365\313x\357"
 223      DD7021B7 
ARM GAS  /tmp/cc7O25sm.s 			page 17


 223      C8B794B0 
 223      8C31F5CB 
 223      78EF
 224 0608 439A67EC 		.ascii	"C\232g\354\3025\255)\034\341\203\22136\325j\267Y\312"
 224      C235AD29 
 224      1CE18391 
 224      3336D56A 
 224      B759CA
 225 061b 36B494DF 		.ascii	"6\264\224\337\241\245\354\300\362U\273\275\370\251\305"
 225      A1A5ECC0 
 225      F255BBBD 
 225      F8A9C5
 226 062a 4EBB5AFC 		.ascii	"N\273Z\374&\364\272\313\002j_\233}\232\227\012\307\250"
 226      26F4BACB 
 226      026A5F9B 
 226      7D9A970A 
 226      C7A8
 227 063c 7D421663 		.ascii	"}B\026c{a\200mH\231\237\210\350i\330\365\274`\247a\326"
 227      7B61806D 
 227      48999F88 
 227      E869D8F5 
 227      BC60A761 
 228 0651 11F1A13A 		.ascii	"\021\361\241:\346\315w\243|v\026z{\363\034\307j\035"
 228      E6CD77A3 
 228      7C76167A 
 228      7BF31CC7 
 228      6A1D
 229 0663 3864CF08 		.ascii	"8d\317\010o\276\364*\367\346{\002y\363nOo\276'\2747"
 229      6FBEF42A 
 229      F7E67B02 
 229      79F36E4F 
 229      6FBE27BC 
 230 0678 F7BAEC04 		.ascii	"\367\272\354\004\312d\037\252\325~\247\353\375ch\346"
 230      CA641FAA 
 230      D57EA7EB 
 230      FD6368E6 
 231 0688 9739E8DF 		.ascii	"\2279\350\337u\034\243G\033\346\032\037\004\001\233"
 231      751CA347 
 231      1BE61A1F 
 231      04019B
 232 0697 E2274960 		.ascii	"\342'I`\306\361U\214\031\346\011\363\307\241\361\312"
 232      C6F1558C 
 232      19E609F3 
 232      C7A1F1CA 
 233 06a7 7231237B 		.ascii	"r1#{\244/\223Wp\377\375*\241\326\265\013\313\337c\271"
 233      A42F9357 
 233      70FFFD2A 
 233      A1D6B50B 
 233      CBDF63B9 
 234 06bb 1FCB8FB0 		.ascii	"\037\313\217\260\274\200\345E,\257`9\204e=\332\244\201"
 234      BC80E545 
 234      2CAF6039 
 234      84653DDA 
 234      A481
 235 06cd E5012C3B 		.ascii	"\345\001,;\203\330g\3004\253\315\343-\325u\227\202\262"
 235      83D867C0 
 235      34ABCDE3 
ARM GAS  /tmp/cc7O25sm.s 			page 18


 235      2DD57597 
 235      82B2
 236 06df 572EF5EC 		.ascii	"W.\365\354\365\311[\365\217\360\264N&/\223\273|\260"
 236      F5C95BF5 
 236      8FF0B44E 
 236      262F93BB 
 236      7CB0
 237 06f1 F1F161D1 		.ascii	"\361\361a\321\3435\214q\355 {\315\343~\235FQ\375(=\""
 237      E3358C71 
 237      ED207BCD 
 237      E37E9D46 
 237      51FD283D 
 238 0706 9A944AF8 		.ascii	"\232\224J\370F\317Z!'\033)_\\\344\244\374\253\302:]"
 238      46CF5A21 
 238      271B295F 
 238      5CE4A4FC 
 238      ABC23A5D 
 239 071a 5FAEAF54 		.ascii	"_\256\257T\036\341\036\272\005{t\211\336T[\351\252\271"
 239      1EE11EBA 
 239      057B7489 
 239      DE545BE9 
 239      AAB9
 240 072c 60FD9573 		.ascii	"`\375\225s\377f[\253\337(F\340Q\347Z\377VX\253\3675"
 240      FF665BAB 
 240      DF2846E0 
 240      51E75AFF 
 240      5658ABF7 
 241 0741 42C43B34 		.ascii	"B\304;4ys\275\276\260\035\2269L\206\037\344\036}\361"
 241      7973BDBE 
 241      B01D9639 
 241      4C861FE4 
 241      1E7DF1
 242 0754 D9ECC189 		.ascii	"\331\354\301\2111\221\303\275@!\2544\360\352Z\2263\364"
 242      3191C3BD 
 242      4021AC34 
 242      F0EA5A96 
 242      33F4
 243 0766 A0E35859 		.ascii	"\240\343XY\344\3518rA\201k\306A'F\272\216\275<n\236"
 243      E4E93872 
 243      41816BC6 
 243      412746BA 
 243      8EBD3C6E 
 244 077b 0814379F 		.ascii	"\010\0247\237\353]E\250\265xD\244>+\"\335i\243\276\263"
 244      EB5D45A8 
 244      B57844A4 
 244      3E2B22DD 
 244      69A3BEB3 
 245 078f E70CA3BE 		.ascii	"\347\014\243\276\027\251o\367\241\336\027H\024\336\300"
 245      17A96FF7 
 245      A1DE1748 
 245      14DEC0
 246 079e 216746D2 		.ascii	"!gF\322~\254\201\321~&\020\355\335'L\332y\324?d\341"
 246      7EAC81D1 
 246      7E2610ED 
 246      DD274CDA 
 246      79D43F64 
 247 07b3 8E2DEA1F 		.ascii	"\216-\352\037;\201n\310t\033\307\334`\241b\276n\374"
ARM GAS  /tmp/cc7O25sm.s 			page 19


 247      3B816EC8 
 247      741BC7DC 
 247      60A162BE 
 247      6EFC
 248 07c5 D104EBC0 		.ascii	"\321\004\353\300\027\210'C\203\2259"
 248      17882743 
 248      839539
 249 07d0 283BBDC2 		.ascii	"(;\275\302\371\026\360L\020\274\034\007\235\227O\330"
 249      F916F04C 
 249      10BC1C07 
 249      9D974FD8 
 250 07e0 0E3A2F84 		.ascii	"\016:/\204\006s\022w\315\016\326\037\004\314\3538\320"
 250      06731277 
 250      CD0ED61F 
 250      04CCEB38 
 250      D0
 251 07f1 EBB22B89 		.ascii	"\353\262+\211L\316b\3509\207\276\362<\226\377\213\345"
 251      4CCE62E8 
 251      3987BEF2 
 251      3C96FF8B 
 251      E5
 252 0802 9FB0FC18 		.ascii	"\237\260\374\030\313O\235\201\351\246e%\236\2528\352"
 252      CB4F9D81 
 252      E9A66525 
 252      9EAA38EA 
 253 0812 A6C0D8EE 		.ascii	"\246\300\330\356o\036\216-\245e\333\037\325\221E\250"
 253      6F1E8E2D 
 253      A565DB1F 
 253      D59145A8 
 254 0822 C2575025 		.ascii	"\302WP%\353\"\243Z\207kk\332\214#\006F\356\360\206\026"
 254      EB22A35A 
 254      876B6BDA 
 254      8C230646 
 254      EEF08616 
 255 0836 31E31808 		.ascii	"1\343\030\010\224\023\0146?\027\354U\233\305\221/\331"
 255      94130C36 
 255      3F17EC55 
 255      9BC5912F 
 255      D9
 256 0847 D6D1798E 		.ascii	"\326\321y\216oU\377\202\353xi\364u8\201\300\312q\310"
 256      6F55FF82 
 256      EB7869F4 
 256      753881C0 
 256      CA71C8
 257 085a D0C8857C 		.ascii	"\320\310\205|\302\0272\024h!;\233\271\356\017b~\320"
 257      C2173214 
 257      68213B9B 
 257      B9EE0F62 
 257      7ED0
 258 086c 65E18E69 		.ascii	"e\341\216i\257b\354\352Au5\301zB\2039u\377\365\236U"
 258      AF62ECEA 
 258      417535C1 
 258      7A428339 
 258      75FFF59E 
 259 0881 93F5D6DD 		.ascii	"\223\365\326\335\374\364Zo\320\247\274\220e\311\004"
 259      FCF45A6F 
 259      D0A7BC90 
ARM GAS  /tmp/cc7O25sm.s 			page 20


 259      65C904
 260 0890 8E6077FF 		.ascii	"\216`w\377\235;\356\301\243\264E\022m?\355blp\240\201"
 260      9D3BEEC1 
 260      A3B44512 
 260      6D3FED62 
 260      6C70A081 
 261 08a4 E657BE8E 		.ascii	"\346W\276\216@\213\021\350\302\230\201\232Nny\000\201"
 261      408B11E8 
 261      C298819A 
 261      4E6E7900 
 261      81
 262 08b5 9620D015 		.ascii	"\226 \320\025\027\220L$\327\016Vr\356`\245H\366fxX\022"
 262      17904C24 
 262      D70E5672 
 262      EE60A548 
 262      F6667858 
 263 08ca 3EC7CEA2 		.ascii	">\307\316\2420\344\026\230cE\243n\305\372nt]\302_\273"
 263      30E41698 
 263      6345A36E 
 263      C5FA6E74 
 263      5DC25FBB 
 264 08de 480EBB08 		.ascii	"H\016\273\010\376\363\237e\222+]y\320\225\255\344\332"
 264      FEF39F65 
 264      922B5D79 
 264      D095ADE4 
 264      DA
 265 08ef 322CE9AD 		.ascii	"2,\351\255c\307K\215\022\325\276\206b'\253]\247tt.?"
 265      63C74B8D 
 265      12D5BE86 
 265      6227AB5D 
 265      A774742E 
 266 0904 3A9E914A 		.ascii	":\236\221J|,g\3043\330\016\027\007\320\362\\o\332\272"
 266      7C2C67C4 
 266      33D80E17 
 266      07D0F25C 
 266      6FDABA
 267 0917 AE6EE007 		.ascii	"\256n\340\007\236x@\331\034\004\320+\376x]v'!\223a\364"
 267      9E7840D9 
 267      1C04D02B 
 267      FE785D76 
 267      27219361 
 268 092c F2BA8439 		.ascii	"\362\272\20492\226\013\261\\\212e\263\024 G\036\314"
 268      32960BB1 
 268      5C8A65B3 
 268      1420471E 
 268      CC
 269 093d 6E2E6552 		.ascii	"n.eR'\211\314\237\216\315]\334\312\272\013\330\243\206"
 269      2789CC9F 
 269      8ECD5DDC 
 269      CABA0BD8 
 269      A386
 270 094f 067330D2 		.ascii	"\006s0\322Xv\302t\027\246\365\313\344Wn\274p\332l\264"
 270      5876C274 
 270      17A6F5CB 
 270      E4576EBC 
 270      70DA6CB4 
 271 0963 AD881E79 		.ascii	"\255\210\036y\234\273\222\325\305$$\330\204\\B\031\260"
ARM GAS  /tmp/cc7O25sm.s 			page 21


 271      9CBB92D5 
 271      C52424D8 
 271      845C4219 
 271      B0
 272 0974 09E53A0A 		.ascii	"\011\345:\012\345\006\206\330_\243 V`\271Rr\204\333"
 272      E50686D8 
 272      5FA32056 
 272      60B95272 
 272      84DB
 273 0986 178B5DE1 		.ascii	"\027\213]\341\326\021\333\274\202\277\235=\272\361\373"
 273      D611DBBC 
 273      82BF9D3D 
 273      BAF1FB
 274 0995 5EE075F0 		.ascii	"^\340u\360\015\370'|\003\276F\302L\264\3303F\345\332"
 274      0DF8277C 
 274      03BE46C2 
 274      4CB4D833 
 274      46E5DA
 275 09a8 801B38E4 		.ascii	"\200\0338\344yiD&\372!\317D\351\263Qb\324\302\005\306"
 275      79694426 
 275      FA21CF44 
 275      E9B35162 
 275      D4C205C6 
 276 09bc F6951BB3 		.ascii	"\366\225\033\263\301v\201e\300\237@\\\360SR\307K\324"
 276      C1768165 
 276      C09F405C 
 276      F05352C7 
 276      4BD4
 277 09ce 23161D21 		.ascii	"#\026\035!\225\324[t\331\005A)Q\321mp\012\352\204[P"
 277      95D45B74 
 277      D9054129 
 277      51D16D70 
 277      0AEA845B 
 278 09e3 A1F6D8BA 		.ascii	"\241\366\330\272\361n/\317\274\315\037\310\365\272\361"
 278      F16E2FCF 
 278      BCCD1FC8 
 278      F5BAF1
 279 09f2 9C3F87F3 		.ascii	"\234?\207\363\002tJ\276\371tD\377\300 _\020\032\371"
 279      02744ABE 
 279      F97444FF 
 279      C0205F10 
 279      1AF9
 280 0a04 D687C52F 		.ascii	"\326\207\305/\243A_L\352\332\357\264\3069rz\3537:\237"
 280      A3415F4C 
 280      EADAEFB4 
 280      C639727A 
 280      EB373A9F 
 281 0a18 AE658E75 		.ascii	"\256e\216u\213\031\014\213=\203a \260\201\346.\376\362"
 281      8B190C8B 
 281      3D836120 
 281      B081E62E 
 281      FEF2
 282 0a2a A30DC1AE 		.ascii	"\243\015\301\256\336\006X\323\311S\374\227e\333\020"
 282      DE0658D3 
 282      C953FC97 
 282      65DB10
 283 0a39 6CA8D81D 		.ascii	"l\250\330\035]#\256\350\032q\306\300H${3\314/\367{\337"
ARM GAS  /tmp/cc7O25sm.s 			page 22


 283      5D23AEE8 
 283      1A71C6C0 
 283      48247B33 
 283      CC2FF77B 
 284 0a4e CF710C5B 		.ascii	"\317q\014[\234\021\345\253\353 \014`\263\364\205,?t"
 284      9C11E5AB 
 284      EB200C60 
 284      B3F4852C 
 284      3F74
 285 0a60 4BE9A3FE 		.ascii	"K\351\243\376:\277C\312\376\334 \032\021\\.\001w\372"
 285      3ABF43CA 
 285      FEDC201A 
 285      115C2E01 
 285      77FA
 286 0a72 252E4572 		.ascii	"%.Er\315\313\356\037\367PM\257\313\276C\226\311\373"
 286      CDCBEE1F 
 286      F7504DAF 
 286      CBBE4396 
 286      C9FB
 287 0a84 E8C54EA1 		.ascii	"\350\305N\241\027\353\307r5z\261MX\376\326i\"\315%\\"
 287      17EBC772 
 287      357AB14D 
 287      58FED669 
 287      22CD255C 
 288 0a98 509C12E7 		.ascii	"P\234\022\347\026\234\202\277*YG\003\364X\240\315\350"
 288      169C82BF 
 288      2A594703 
 288      F458A0CD 
 288      E8
 289 0aa9 EB7EEAD8 		.ascii	"\353~\352\330n\262\\\327;@\247\201}wq\037\004\032`\313"
 289      6EB25CD7 
 289      3B40A781 
 289      7D77711F 
 289      041A60CB 
 290 0abd C2DAAC54 		.ascii	"\302\332\254Ty\222M\357v\035\3702\325\024\236Z\373\366"
 290      79924DEF 
 290      761DF832 
 290      D5149E5A 
 290      FBF6
 291 0acf 97C96B60 		.ascii	"\227\311k`\323\243v\243\035_wy6\343=\245\314l\015\360"
 291      D3A376A3 
 291      1D5F7779 
 291      36E33DA5 
 291      CC6C0DF0 
 292 0ae3 6E6BA048 		.ascii	"nk\240Ho\2102\213l}\250\245\324\374a\210\237l\215\320"
 292      6F88328B 
 292      6C7DA8A5 
 292      D4FC6188 
 292      9F6C8DD0 
 293 0af7 DAB0DB47 		.ascii	"\332\260\333G\033x.%\012\035(\203\327\303\273E\376\036"
 293      1B782E25 
 293      0A1D2883 
 293      D7C3BB45 
 293      FE1E
 294 0b09 F4C72D15 		.ascii	"\364\307-\025\374\327\035\307\335X^?\031p`\2259\260"
 294      FCD71DC7 
 294      DD585E3F 
ARM GAS  /tmp/cc7O25sm.s 			page 23


 294      19706095 
 294      39B0
 295 0b1b 7A6D58BD 		.ascii	"zmX\275\241\261\2468\260.\313/T\360\274\375\274\033"
 295      A1B1A638 
 295      B02ECB2F 
 295      54F0BCFD 
 295      BC1B
 296 0b2d CB2B6A3B 		.ascii	"\313+j;\260*\034XWlt\365\007\241+G:q\325\206u+4V\221"
 296      B02A1C58 
 296      576C74F5 
 296      07A12B47 
 296      3A71D586 
 297 0b46 03EB9A0D 		.ascii	"\003\353\232\015kq4,\326\004\007\326\015\033\326\263"
 297      6B71342C 
 297      D60407D6 
 297      0D1BD6B3 
 298 0b56 A1B1263B 		.ascii	"\241\261&;\260\376b\303z>4\226S'n\331\260\266\204\306"
 298      B0FE62C3 
 298      7A3E3496 
 298      53276ED9 
 298      B0B684C6 
 299 0b6a 72EAC467 		.ascii	"r\352\304g6\254]\241\261\234:\321\270\257\244\355q\016"
 299      36AC5DA1 
 299      B19C3AD1 
 299      B8AFA4ED 
 299      710E
 300 0b7c B63F34D8 		.ascii	"\266?4\330t\007\330r;Xw\020\260\034\007O\317\332\301"
 300      7407D872 
 300      3B587710 
 300      B01C074F 
 300      CFDAC1
 301 0b8f CE860673 		.ascii	"\316\206\006s\252X\213\035\354rh0\247\216\255\260\203"
 301      AA588B1D 
 301      EC726830 
 301      A78EADB0 
 301      83
 302 0ba0 0D850673 		.ascii	"\015\205\006s*\331*;\330\223\343\302\2029\265\254\315"
 302      2AD92A3B 
 302      D893E3C2 
 302      8239B5AC 
 302      CD
 303 0bb1 0ED6121A 		.ascii	"\016\326\022\032l\212\340\274x4|\003\023\30371\366\275"
 303      6C8AE0BC 
 303      78347C03 
 303      13C33731 
 303      F6BD
 304 0bc3 85E55E2C 		.ascii	"\205\345^,\367cy\000\313N,\017c\331\205\345;Xvc\371"
 304      F7637900 
 304      CB4E2C0F 
 304      63D985E5 
 304      3B587663 
 305 0bd8 2E963D58 		.ascii	".\226=X\276\207\345I,Oay\032\3133X\236u\306\326\365"
 305      BE87E549 
 305      2C4F6179 
 305      1ACB3358 
 305      9E75C6D6 
 306 0bed E3DC4990 		.ascii	"\343\334I\220\031\222l4f#\227\360\377E\345K\026\225"
ARM GAS  /tmp/cc7O25sm.s 			page 24


 306      19926C34 
 306      662397F0 
 306      FF45E54B 
 306      1695
 307 0bff BEF1F53C 		.ascii	"\276\361\365<K\000\246\012\333\364\305Fk\276Lv!\335"
 307      4B00A60A 
 307      DBF4C546 
 307      6BBE4C76 
 307      21DD
 308 0c11 945EB3ED 		.ascii	"\224^\263\355!32Z\306@oh\030M\361&b5\311\274I\264\232"
 308      2133325A 
 308      C6406F68 
 308      184DF126 
 308      6235C9BC 
 309 0c28 12BC49B2 		.ascii	"\022\274I\262\232\252\005\306\011\332\200\277\2143Y"
 309      9AAA05C6 
 309      09DA80BF 
 309      8C3359
 310 0c37 C2AA9318 		.ascii	"\302\252\223\030oh\025\342\213Q\301\270\304\036\347"
 310      6F6815E2 
 310      8B51C1B8 
 310      C41EE7
 311 0c46 3176B1AA 		.ascii	"1v\261\252\310\370\306\252\025\214\201\254Z\3048\311"
 311      C8F8C6AA 
 311      158C81AC 
 311      5AC438C9 
 312 0c56 AA51C652 		.ascii	"\252Q\306RV\235\300x\313\252_bLf\325\311\214\3336*O"
 312      569DC078 
 312      CBAA5F62 
 312      4C66D5C9 
 312      8CDB362A 
 313 0c6b 66AB7732 		.ascii	"f\253w2\376\263\352W\230 l\235\3178\253g\355UA\340\373"
 313      FEB3EA57 
 313      98206C9D 
 313      CF38AB67 
 313      ED5541E0 
 314 0c80 04575232 		.ascii	"\004WR2\235\313\247\220\311\347B\350\244\344O>II\001"
 314      9DCBA790 
 314      C9E742E8 
 314      A4E44F3E 
 314      494901
 315 0c93 530BF64F 		.ascii	"S\013\366OS\247/\366\377hp\253\256?\251\1776\374\313"
 315      53A72FF6 
 315      FF6870AB 
 315      AE3FA97F 
 315      36FCCB
 316 0ca6 BA8577F3 		.ascii	"\272\205w\363\177k\372\304\241\331xH$\0127\307Y\271"
 316      7F6BFAC4 
 316      A1D97848 
 316      240A37C7 
 316      59B9
 317 0cb8 B7D73F39 		.ascii	"\267\327?9]\224\\\377\344\364\261\344\365OT;\370\277"
 317      5D945CFF 
 317      E4F4B1E4 
 317      F54F543B 
 317      F8BF
 318 0cca 81198D79 		.ascii	"\201\031\215y|\272'KGL'\223O\263\303\275\246\273\354"
ARM GAS  /tmp/cc7O25sm.s 			page 25


 318      7CBA274B 
 318      474C2793 
 318      4FB3C3BD 
 318      A6BBEC
 319 0cdd 9EAEDF39 		.ascii	"\236\256\3379\235\353\020\212N\344\307\254\253\222\265"
 319      9DEB108A 
 319      4EE4C7AC 
 319      AB92B5
 320 0cec 87A5F9EF 		.ascii	"\207\245\371\357\221#}\357\356\273t\177]\243Q\327\252"
 320      91237DEF 
 320      EEBB747F 
 320      5DA351D7 
 320      AA
 321 0cfd DF82F497 		.ascii	"\337\202\364\227\330\345d\333\014;\216\005|\245\351"
 321      D8E564DB 
 321      0C3B8E05 
 321      7CA5E9
 322 0d0c EA2593EB 		.ascii	"\352%\223\353\241\245y\303G\232\366\337\256e{\321\354"
 322      A1A579C3 
 322      479AF6DF 
 322      AE657BD1 
 322      EC
 323 0d1d 0219BA39 		.ascii	"\002\031\2729\373\366\323E\204(\254)\345\373\037\330"
 323      FBF6D345 
 323      8428AC29 
 323      E5FB1FD8 
 324 0d2d C9B999D5 		.ascii	"\311\271\231\325\343\263\243\246\335of\231U&\254\241"
 324      E3B3A3A6 
 324      DD6F6699 
 324      5526ACA1 
 325 0d3d C70CDD4F 		.ascii	"\307\014\335OuM\324\027\026Y\222y\331\376\337n.\344"
 325      754DD417 
 325      16599279 
 325      D9FEDF6E 
 325      2EE4
 326 0d4f DE1CC843 		.ascii	"\336\034\310Cnd\343\350\022]\024-\\\372\2023{}\263\274"
 326      6E64E3E8 
 326      125D142D 
 326      5CFA8233 
 326      7B7DB3BC 
 327 0d63 AA26A594 		.ascii	"\252&\245\224+\263\225\362\031U\211Y\211\357\317,\257"
 327      2BB395F2 
 327      19558959 
 327      89EFCF2C 
 327      AF
 328 0d74 C994AB5A 		.ascii	"\311\224\253Zy\272F\3252\345\377\374\203Gg<:\257<^\025"
 328      79BA46D5 
 328      32E5FFFC 
 328      8347673C 
 328      3AAF3C5E 
 329 0d89 AF5195D8 		.ascii	"\257Q\225\330\023\323R\367V\011\021\372(\226\254\211"
 329      13D352F7 
 329      560911FA 
 329      2896AC89 
 330 0d99 FFACE0BB 		.ascii	"\377\254\340\273\337{\254l\206P\202\015\265\325\264"
 330      DF7BAC6C 
 330      8650820D 
ARM GAS  /tmp/cc7O25sm.s 			page 26


 330      B5D5B4
 331 0da8 698A1F5E 		.ascii	"i\212\037^\242:\236\254\255T\000*3?CQ\342U3\347g\376"
 331      A23A9EAC 
 331      AD54002A 
 331      333F4351 
 331      E25533E7 
 332 0dbe 158694E0 		.ascii	"\025\206\224\340\335c8\374\357\375\206g\3248\014U\225"
 332      DD6338FC 
 332      EFFD8667 
 332      D4380C55 
 332      95
 333 0dcf 39898CA6 		.ascii	"9\211\214\246\316\2777.|#\320D\332\374\264Bg+\322`\254"
 333      CEBF372E 
 333      7C23D044 
 333      DAFCB442 
 333      672BD260 
 334 0de4 5C19D360 		.ascii	"\\\031\323`\332\230y\357;\225\015 ^U\011\203\013\322"
 334      DA9879EF 
 334      3B950D20 
 334      5E550983 
 334      0BD2
 335 0df6 B16A659E 		.ascii	"\261je\236\006_iUy\342\333\3018V\223J'\222\212\232)"
 335      065F6955 
 335      79E2DBC1 
 335      3856934A 
 335      27928A9A 
 336 0e0b FFEE8C19 		.ascii	"\377\356\214\031\000\305\011)\324\322j\242&\246}\245"
 336      00C50929 
 336      D4D26AA2 
 336      26A67DA5 
 337 0e1b BC36A35A 		.ascii	"\2746\243ZSU+s\223\211Y\345\031\2552Q\255Qrk\341\373"
 337      53552B73 
 337      938959E5 
 337      19AD3251 
 337      AD51726B 
 338 0e31 5BDF8C69 		.ascii	"[\337\214i\337\360\352\226\222\343U\211j\245<V\251\314"
 338      DFF0EA96 
 338      92E35589 
 338      6AA53C56 
 338      A9CC
 339 0e43 966B935A 		.ascii	"\226k\223Z\214\203\027\307b| \022\233\250)\214\327T"
 339      8C8317C7 
 339      627C2012 
 339      9BA8298C 
 339      D754
 340 0e55 6B40FBBD 		.ascii	"k@\373\275!\304\014@\246D\001*\256\315+\002\246\313"
 340      21C40C40 
 340      A644012A 
 340      AECD2B02 
 340      A6CB
 341 0e67 6A2AA689 		.ascii	"j*\246\211\352tQ}@R\357\253\200\317}\242:UT\357\027"
 341      EA74517D 
 341      4052EFAB 
 341      80CF7DA2 
 341      3A5554EF 
 342 0e7c D569A2FA 		.ascii	"\325i\242\372\217bR\205\246o\345\247c\320\277\220rk"
 342      8F625285 
ARM GAS  /tmp/cc7O25sm.s 			page 27


 342      A66FE5A7 
 342      63D0BF90 
 342      726B
 343 0e8e AEA2C277 		.ascii	"\256\242\302wM\262RQ\363\342U\262JY(\247\224\"-\243"
 343      4DB25251 
 343      F3E255B2 
 343      4A5928A7 
 343      94222DA3 
 344 0ea2 C99A12D3 		.ascii	"\311\232\022\323\012)\235\323A\034&\305p\007\335\361"
 344      0A299DD3 
 344      411C26C5 
 344      7007DDF1 
 345 0eb2 59A196AA 		.ascii	"Y\241\226\252\251T\260>;)\317\311\344\2472s\240\306"
 345      A954B03E 
 345      3B29CFC9 
 345      E4A73273 
 345      A0C6
 346 0ec4 9605FDF9 		.ascii	"\226\005\375\371\002\325\312\371\360\250H\231\227\320"
 346      02D5CAF9 
 346      F0A84899 
 346      97D0
 347 0ed2 E230A260 		.ascii	"\3420\242`\256V3\353\247\351\211L\320*,UU\252\343\200"
 347      AE5633EB 
 347      A7E9894C 
 347      D02A2C55 
 347      55AAE380 
 348 0ee6 943F57D3 		.ascii	"\224?W\323\324t\024\004\237QRr\272\012\226\030DK\025"
 348      D4741404 
 348      9F515272 
 348      BA0A9618 
 348      444B15
 349 0ef9 AAEBE34D 		.ascii	"\252\353\343M\270L\354\347\265J-`M\260\324\2075\025"
 349      B84CECE7 
 349      B54A2D60 
 349      4DB0D487 
 349      3515
 350 0f0b B2EFFC78 		.ascii	"\262\357\374x5\310!?\023\203o \005F\247\213\240o\252"
 350      35C8213F 
 350      13836F20 
 350      0546A78B 
 350      A06FAA
 351 0f1e 16B81F60 		.ascii	"\026\270\037`\266\2246\217*G\212\201\246b5s\253\201"
 351      B694368F 
 351      2A478A81 
 351      A6623573 
 351      AB81
 352 0f30 85381CD6 		.ascii	"\2058\034\326\2322\025p\256\006\375\322R:V[\312\211"
 352      9A321570 
 352      AE06FDD2 
 352      523A565B 
 352      CA89
 353 0f42 48823DC4 		.ascii	"H\202=\304\264\3616\262hK$\035\233+'\264D\365\034\270"
 353      B4F136B2 
 353      684B241D 
 353      9B2B27B4 
 353      44F51CB8 
 354 0f56 8331B4AD 		.ascii	"\2031\264\2558\015L\221\223T+`\025?P\346<\234P3\332"
ARM GAS  /tmp/cc7O25sm.s 			page 28


 354      380D4C91 
 354      93542B60 
 354      153F50E6 
 354      3C9C5033 
 355 0f6b BFE3A8F1 		.ascii	"\277\343\250\361\330\360=\230\303\254\213Z\272\204\362"
 355      D8F03D98 
 355      C3AC8B5A 
 355      BA84F2
 356 0f7a 0B0C4849 		.ascii	"\013\014HI\231Fc\336G\351\323\371l\326q\320\234\255"
 356      994663DE 
 356      47E9D3F9 
 356      6CD671D0 
 356      9CAD
 357 0f8c 17AA26F1 		.ascii	"\027\252&\361\005*j^\276\212\312\2402ePMe\210@k"
 357      052A6A5E 
 357      BE8ACAA0 
 357      3265504D 
 357      6588406B 
 358 0fa0 AD0A82D1 		.ascii	"\255\012\202\321\362U:\350\216'\022\252V+'cZ\"\005\306"
 358      F2553AE8 
 358      8E2712AA 
 358      562B2763 
 358      5A2205C6 
 359 0fb4 C2802701 		.ascii	"\302\200'\001\260\307\203\361\2166S\030\216\246\302"
 359      B0C783F1 
 359      8E365318 
 359      8EA6C2
 360 0fc3 27346414 		.ascii	"'4d\024\375\246\246\032\241D\303\203\230\206\006u\337"
 360      FDA6A61A 
 360      A144C383 
 360      98860675 
 360      DF
 361 0fd4 B498C64C 		.ascii	"\264\230\306L\204\336\026A\257J%\251\311p3\273\266:"
 361      84DE1641 
 361      AF4A25A9 
 361      C97033BB 
 361      B63A
 362 0fe6 1EC371F4 		.ascii	"\036\303q\364\256\200\216\227\325\022\370J\312\031\215"
 362      AE808E97 
 362      D512F84A 
 362      CA198D
 363 0ff5 42401325 		.ascii	"B@\023%\241\224\261\244R\231U"
 363      A194B1A4 
 363      529955
 364 1000 3BC7E4BB 		.ascii	";\307\344\273\275%\222\226\253\023\361\030\350\245T"
 364      BD259296 
 364      AB13F118 
 364      E8A554
 365 100f 396B4E71 		.ascii	"9kNqJ\206\251\220\241\305\031\355gr21\247\232\2212m"
 365      4A86A990 
 365      A1C519ED 
 365      67723231 
 365      A79A9132 
 366 1024 AA450ABD 		.ascii	"\252E\012\275-MT&\025&A\220\234\030\257\012\340\336"
 366      2D4D5426 
 366      15264190 
 366      9C18AF0A 
ARM GAS  /tmp/cc7O25sm.s 			page 29


 366      E0DE
 367 1036 2C675825 		.ascii	",gX%PI$*\201\253\211\331\011`\003\324~\241\2505\364"
 367      5049242A 
 367      81AB89D9 
 367      096003D4 
 367      7EA1A835 
 368 104b 3B93F885 		.ascii	";\223\370\205RL\371\004LL\324T\323\333\264\246\322V"
 368      524CF904 
 368      4C4CD454 
 368      D3DBB4A6 
 368      D256
 369 105d 2A60BA32 		.ascii	"*`\2722z?.\253?\370dv\254f\366l\024c1\273\007YF\331"
 369      7A3F2EAB 
 369      3FF86476 
 369      AC66F66C 
 369      146331BB 
 370 1075 2D0A9457 		.ascii	"-\012\224WP\252|\0005\361\361\354\036\026\234L\244\022"
 370      50AA7C00 
 370      35F1F1EC 
 370      1E169C4C 
 370      A412
 371 1087 5AD4AA83 		.ascii	"Z\324\252\203q\363\012Z6\037\005\246\232)\265\246T\300"
 371      71F30A5A 
 371      361F05A6 
 371      9A29B5A6 
 371      54C0
 372 1099 7234FE88 		.ascii	"r4\376\210\322\007\312\307\270M\015\012o\357\367d\016"
 372      D207CAC7 
 372      B84D0D0A 
 372      6FEFF764 
 372      0E
 373 10aa 08BE7CC6 		.ascii	"\010\276|\306\2433\377ef\226G4h\305S\017\203H)\223b"
 373      A333FF65 
 373      66964734 
 373      68C5530F 
 373      83482993 
 374 10bf B1CA4446 		.ascii	"\261\312DF\236\005\234N\250?\037''\347\312\3633\340"
 374      9E059C4E 
 374      A83F1F27 
 374      27E7CAF3 
 374      33E0
 375 10d1 4E92E04B 		.ascii	"N\222\340K\243\261\230R\315\037\025\305P\013b\261q\374"
 375      A3B19852 
 375      CD1F15C5 
 375      500B62B1 
 375      71FC
 376 10e3 E6DEA9D3 		.ascii	"\346\336\251\323\247M\375?\205\2300\027"
 376      A74DFD3F 
 376      85983017 
 377              		.text
 378              		.section	.gnu.lto_.symtab.47848e2ae12d73d,"",%progbits
 379 0000 63685265 		.ascii	"chRegFirstThread\000\000\000\000\000\000\000\000\000"
 379      67466972 
 379      73745468 
 379      72656164 
 379      00000000 
 380 0019 000000AF 		.ascii	"\000\000\000\257\000\000\000chRegNextThread\000\000"
ARM GAS  /tmp/cc7O25sm.s 			page 30


 380      00000063 
 380      68526567 
 380      4E657874 
 380      54687265 
 381 0031 00000000 		.ascii	"\000\000\000\000\000\000\000\000\000\000O\001\000\000"
 381      00000000 
 381      00004F01 
 381      0000
 382 003f 63685F64 		.ascii	"ch_debug\000\000\000\000\000\000\000\000\000\000\000"
 382      65627567 
 382      00000000 
 382      00000000 
 382      000000
 383 0052 00B90100 		.ascii	"\000\271\001\000\000ch\000\000\002\000\000\000\000\000"
 383      00636800 
 383      00020000 
 383      000000
 384 0061 00000000 		.ascii	"\000\000\000\000V\001\000\000"
 384      56010000 
 385              		.text
 386              		.section	.gnu.lto_.opts,"",%progbits
 387 0000 272D6D63 		.ascii	"'-mcpu=cortex-m0' '-mno-thumb-interwork' '-mthumb' "
 387      70753D63 
 387      6F727465 
 387      782D6D30 
 387      2720272D 
 388 0033 272D6767 		.ascii	"'-ggdb' '-O0' '-fomit-frame-pointer' '-falign-funct"
 388      64622720 
 388      272D4F30 
 388      2720272D 
 388      666F6D69 
 389 0066 696F6E73 		.ascii	"ions=16' '-ffunction-sections' '-fdata-sections' '-"
 389      3D313627 
 389      20272D66 
 389      66756E63 
 389      74696F6E 
 390 0099 666E6F2D 		.ascii	"fno-common' '-flto'\000"
 390      636F6D6D 
 390      6F6E2720 
 390      272D666C 
 390      746F2700 
 391              		.text
 392              		.cfi_sections	.debug_frame
 393              		.section	.text.port_lock,"ax",%progbits
 394              		.align	2
 395              		.p2align 4,,15
 396              		.code	16
 397              		.thumb_func
 398              		.type	port_lock, %function
 399              	port_lock:
 400              	.LFB38:
 401              		.file 1 "/home/efe/ChibiOS/os/rt/ports/ARMCMx/chcore_v6m.h"
 402              		.loc 1 330 0
 403              		.cfi_startproc
 404              	.LBB6:
 405              	.LBB7:
 406              		.file 2 "/home/efe/ChibiOS/os/ext/CMSIS/include/core_cmFunc.h"
ARM GAS  /tmp/cc7O25sm.s 			page 31


 407              		.loc 2 344 0
 408              	@ 344 "/home/efe/ChibiOS/os/ext/CMSIS/include/core_cmFunc.h" 1
 409 0000 72B6     		cpsid i
 410              	@ 0 "" 2
 411              		.code	16
 412              	.LBE7:
 413              	.LBE6:
 414              		.loc 1 333 0
 415              		@ sp needed
 416 0002 7047     		bx	lr
 417              		.cfi_endproc
 418              	.LFE38:
 419              		.size	port_lock, .-port_lock
 420 0004 C046C046 		.section	.text.port_unlock,"ax",%progbits
 420      C046C046 
 420      C046C046 
 421              		.align	2
 422              		.p2align 4,,15
 423              		.code	16
 424              		.thumb_func
 425              		.type	port_unlock, %function
 426              	port_unlock:
 427              	.LFB39:
 428              		.loc 1 339 0
 429              		.cfi_startproc
 430              	.LBB8:
 431              	.LBB9:
 432              		.loc 2 333 0
 433              	@ 333 "/home/efe/ChibiOS/os/ext/CMSIS/include/core_cmFunc.h" 1
 434 0000 62B6     		cpsie i
 435              	@ 0 "" 2
 436              		.code	16
 437              	.LBE9:
 438              	.LBE8:
 439              		.loc 1 342 0
 440              		@ sp needed
 441 0002 7047     		bx	lr
 442              		.cfi_endproc
 443              	.LFE39:
 444              		.size	port_unlock, .-port_unlock
 445 0004 C046C046 		.section	.text.chSysLock,"ax",%progbits
 445      C046C046 
 445      C046C046 
 446              		.align	2
 447              		.p2align 4,,15
 448              		.code	16
 449              		.thumb_func
 450              		.type	chSysLock, %function
 451              	chSysLock:
 452              	.LFB70:
 453              		.file 3 "/home/efe/ChibiOS/os/rt/include/chsys.h"
 454              		.loc 3 346 0
 455              		.cfi_startproc
 456 0000 08B5     		push	{r3, lr}
 457              		.cfi_def_cfa_offset 8
 458              		.cfi_offset 3, -8
 459              		.cfi_offset 14, -4
ARM GAS  /tmp/cc7O25sm.s 			page 32


 460              		.loc 3 348 0
 461 0002 FFF7FEFF 		bl	port_lock
 462              		.loc 3 351 0
 463              		@ sp needed
 464 0006 08BD     		pop	{r3, pc}
 465              		.cfi_endproc
 466              	.LFE70:
 467              		.size	chSysLock, .-chSysLock
 468 0008 C046C046 		.section	.text.chSysUnlock,"ax",%progbits
 468      C046C046 
 469              		.align	2
 470              		.p2align 4,,15
 471              		.code	16
 472              		.thumb_func
 473              		.type	chSysUnlock, %function
 474              	chSysUnlock:
 475              	.LFB71:
 476              		.loc 3 358 0
 477              		.cfi_startproc
 478 0000 08B5     		push	{r3, lr}
 479              		.cfi_def_cfa_offset 8
 480              		.cfi_offset 3, -8
 481              		.cfi_offset 14, -4
 482              		.loc 3 371 0
 483 0002 FFF7FEFF 		bl	port_unlock
 484              		.loc 3 372 0
 485              		@ sp needed
 486 0006 08BD     		pop	{r3, pc}
 487              		.cfi_endproc
 488              	.LFE71:
 489              		.size	chSysUnlock, .-chSysUnlock
 490              		.global	ch_debug
 491 0008 C046C046 		.section	.rodata.ch_debug,"a",%progbits
 491      C046C046 
 492              		.align	2
 493              		.type	ch_debug, %object
 494              		.size	ch_debug, 22
 495              	ch_debug:
 496 0000 6D       		.byte	109
 497 0001 61       		.byte	97
 498 0002 69       		.byte	105
 499 0003 6E       		.byte	110
 500 0004 00       		.byte	0
 501 0005 16       		.byte	22
 502 0006 4018     		.short	6208
 503 0008 04       		.byte	4
 504 0009 02       		.byte	2
 505 000a 30       		.byte	48
 506 000b 08       		.byte	8
 507 000c 0C       		.byte	12
 508 000d 10       		.byte	16
 509 000e 14       		.byte	20
 510 000f 18       		.byte	24
 511 0010 00       		.byte	0
 512 0011 1C       		.byte	28
 513 0012 1D       		.byte	29
 514 0013 00       		.byte	0
ARM GAS  /tmp/cc7O25sm.s 			page 33


 515 0014 00       		.byte	0
 516 0015 00       		.byte	0
 517 0016 0000     		.section	.text.chRegFirstThread,"ax",%progbits
 518              		.align	2
 519              		.p2align 4,,15
 520              		.global	chRegFirstThread
 521              		.code	16
 522              		.thumb_func
 523              		.type	chRegFirstThread, %function
 524              	chRegFirstThread:
 525              	.LFB119:
 526              		.file 4 "/home/efe/ChibiOS/os/rt/src/chregistry.c"
 527              		.loc 4 131 0
 528              		.cfi_startproc
 529 0000 00B5     		push	{lr}
 530              		.cfi_def_cfa_offset 4
 531              		.cfi_offset 14, -4
 532 0002 83B0     		sub	sp, sp, #12
 533              		.cfi_def_cfa_offset 16
 534              		.loc 4 134 0
 535 0004 FFF7FEFF 		bl	chSysLock
 536              		.loc 4 135 0
 537 0008 044B     		ldr	r3, .L7
 538 000a 1B69     		ldr	r3, [r3, #16]
 539 000c 0193     		str	r3, [sp, #4]
 540              		.loc 4 139 0
 541 000e FFF7FEFF 		bl	chSysUnlock
 542              		.loc 4 141 0
 543 0012 019B     		ldr	r3, [sp, #4]
 544              		.loc 4 142 0
 545 0014 181C     		mov	r0, r3
 546 0016 03B0     		add	sp, sp, #12
 547              		@ sp needed
 548 0018 00BD     		pop	{pc}
 549              	.L8:
 550 001a C046     		.align	2
 551              	.L7:
 552 001c 00000000 		.word	ch
 553              		.cfi_endproc
 554              	.LFE119:
 555              		.size	chRegFirstThread, .-chRegFirstThread
 556              		.section	.text.chRegNextThread,"ax",%progbits
 557              		.align	2
 558              		.p2align 4,,15
 559              		.global	chRegNextThread
 560              		.code	16
 561              		.thumb_func
 562              		.type	chRegNextThread, %function
 563              	chRegNextThread:
 564              	.LFB120:
 565              		.loc 4 155 0
 566              		.cfi_startproc
 567 0000 00B5     		push	{lr}
 568              		.cfi_def_cfa_offset 4
 569              		.cfi_offset 14, -4
 570 0002 85B0     		sub	sp, sp, #20
 571              		.cfi_def_cfa_offset 24
ARM GAS  /tmp/cc7O25sm.s 			page 34


 572 0004 0190     		str	r0, [sp, #4]
 573              		.loc 4 158 0
 574 0006 FFF7FEFF 		bl	chSysLock
 575              		.loc 4 159 0
 576 000a 019B     		ldr	r3, [sp, #4]
 577 000c 1B69     		ldr	r3, [r3, #16]
 578 000e 0393     		str	r3, [sp, #12]
 579              		.loc 4 161 0
 580 0010 039A     		ldr	r2, [sp, #12]
 581 0012 054B     		ldr	r3, .L12
 582 0014 9A42     		cmp	r2, r3
 583 0016 01D1     		bne	.L10
 584              		.loc 4 163 0
 585 0018 0023     		mov	r3, #0
 586 001a 0393     		str	r3, [sp, #12]
 587              	.L10:
 588              		.loc 4 171 0
 589 001c FFF7FEFF 		bl	chSysUnlock
 590              		.loc 4 176 0
 591 0020 039B     		ldr	r3, [sp, #12]
 592              		.loc 4 177 0
 593 0022 181C     		mov	r0, r3
 594 0024 05B0     		add	sp, sp, #20
 595              		@ sp needed
 596 0026 00BD     		pop	{pc}
 597              	.L13:
 598              		.align	2
 599              	.L12:
 600 0028 00000000 		.word	ch
 601              		.cfi_endproc
 602              	.LFE120:
 603              		.size	chRegNextThread, .-chRegNextThread
 604 002c C046C046 		.text
 605              	.Letext0:
 606              		.file 5 "/usr/lib/gcc/arm-none-eabi/4.8/include/stddef.h"
 607              		.file 6 "/usr/include/newlib/machine/_default_types.h"
 608              		.file 7 "/usr/include/newlib/stdint.h"
 609              		.file 8 "/home/efe/ChibiOS/os/rt/ports/ARMCMx/compilers/GCC/chtypes.h"
 610              		.file 9 "/home/efe/ChibiOS/os/rt/include/chsystypes.h"
 611              		.file 10 "/home/efe/ChibiOS/os/rt/include/chschd.h"
 612              		.file 11 "/home/efe/ChibiOS/os/rt/ports/ARMCMx/chcore.h"
 613              		.file 12 "/home/efe/ChibiOS/os/rt/include/chsem.h"
 614              		.file 13 "/home/efe/ChibiOS/os/rt/include/chmtx.h"
 615              		.file 14 "/home/efe/ChibiOS/os/rt/include/chregistry.h"
 616              		.section	.debug_info,"",%progbits
 617              	.Ldebug_info0:
 618 0000 AE070000 		.4byte	0x7ae
 619 0004 0400     		.2byte	0x4
 620 0006 00000000 		.4byte	.Ldebug_abbrev0
 621 000a 04       		.byte	0x4
 622 000b 01       		.uleb128 0x1
 623 000c 1C030000 		.4byte	.LASF120
 624 0010 01       		.byte	0x1
 625 0011 98040000 		.4byte	.LASF121
 626 0015 00000000 		.4byte	.Ldebug_ranges0+0
 627 0019 00000000 		.4byte	0
 628 001d 00000000 		.4byte	.Ldebug_line0
ARM GAS  /tmp/cc7O25sm.s 			page 35


 629 0021 02       		.uleb128 0x2
 630 0022 04       		.byte	0x4
 631 0023 05       		.byte	0x5
 632 0024 696E7400 		.ascii	"int\000"
 633 0028 03       		.uleb128 0x3
 634 0029 D1010000 		.4byte	.LASF2
 635 002d 05       		.byte	0x5
 636 002e D4       		.byte	0xd4
 637 002f 33000000 		.4byte	0x33
 638 0033 04       		.uleb128 0x4
 639 0034 04       		.byte	0x4
 640 0035 07       		.byte	0x7
 641 0036 7D000000 		.4byte	.LASF0
 642 003a 04       		.uleb128 0x4
 643 003b 01       		.byte	0x1
 644 003c 06       		.byte	0x6
 645 003d 99050000 		.4byte	.LASF1
 646 0041 03       		.uleb128 0x3
 647 0042 CD040000 		.4byte	.LASF3
 648 0046 06       		.byte	0x6
 649 0047 1D       		.byte	0x1d
 650 0048 4C000000 		.4byte	0x4c
 651 004c 04       		.uleb128 0x4
 652 004d 01       		.byte	0x1
 653 004e 08       		.byte	0x8
 654 004f 38050000 		.4byte	.LASF4
 655 0053 04       		.uleb128 0x4
 656 0054 02       		.byte	0x2
 657 0055 05       		.byte	0x5
 658 0056 28040000 		.4byte	.LASF5
 659 005a 03       		.uleb128 0x3
 660 005b 8C010000 		.4byte	.LASF6
 661 005f 06       		.byte	0x6
 662 0060 2B       		.byte	0x2b
 663 0061 65000000 		.4byte	0x65
 664 0065 04       		.uleb128 0x4
 665 0066 02       		.byte	0x2
 666 0067 07       		.byte	0x7
 667 0068 B2050000 		.4byte	.LASF7
 668 006c 03       		.uleb128 0x3
 669 006d 99000000 		.4byte	.LASF8
 670 0071 06       		.byte	0x6
 671 0072 3F       		.byte	0x3f
 672 0073 77000000 		.4byte	0x77
 673 0077 04       		.uleb128 0x4
 674 0078 04       		.byte	0x4
 675 0079 05       		.byte	0x5
 676 007a 44040000 		.4byte	.LASF9
 677 007e 03       		.uleb128 0x3
 678 007f 46050000 		.4byte	.LASF10
 679 0083 06       		.byte	0x6
 680 0084 41       		.byte	0x41
 681 0085 89000000 		.4byte	0x89
 682 0089 04       		.uleb128 0x4
 683 008a 04       		.byte	0x4
 684 008b 07       		.byte	0x7
 685 008c F5040000 		.4byte	.LASF11
ARM GAS  /tmp/cc7O25sm.s 			page 36


 686 0090 04       		.uleb128 0x4
 687 0091 08       		.byte	0x8
 688 0092 05       		.byte	0x5
 689 0093 B6020000 		.4byte	.LASF12
 690 0097 03       		.uleb128 0x3
 691 0098 13020000 		.4byte	.LASF13
 692 009c 06       		.byte	0x6
 693 009d 5B       		.byte	0x5b
 694 009e A2000000 		.4byte	0xa2
 695 00a2 04       		.uleb128 0x4
 696 00a3 08       		.byte	0x8
 697 00a4 07       		.byte	0x7
 698 00a5 75010000 		.4byte	.LASF14
 699 00a9 03       		.uleb128 0x3
 700 00aa 8B020000 		.4byte	.LASF15
 701 00ae 07       		.byte	0x7
 702 00af 2A       		.byte	0x2a
 703 00b0 41000000 		.4byte	0x41
 704 00b4 03       		.uleb128 0x3
 705 00b5 FF030000 		.4byte	.LASF16
 706 00b9 07       		.byte	0x7
 707 00ba 36       		.byte	0x36
 708 00bb 5A000000 		.4byte	0x5a
 709 00bf 03       		.uleb128 0x3
 710 00c0 21050000 		.4byte	.LASF17
 711 00c4 07       		.byte	0x7
 712 00c5 41       		.byte	0x41
 713 00c6 6C000000 		.4byte	0x6c
 714 00ca 03       		.uleb128 0x3
 715 00cb 2C010000 		.4byte	.LASF18
 716 00cf 07       		.byte	0x7
 717 00d0 42       		.byte	0x42
 718 00d1 7E000000 		.4byte	0x7e
 719 00d5 03       		.uleb128 0x3
 720 00d6 77040000 		.4byte	.LASF19
 721 00da 07       		.byte	0x7
 722 00db 4E       		.byte	0x4e
 723 00dc 97000000 		.4byte	0x97
 724 00e0 03       		.uleb128 0x3
 725 00e1 E4030000 		.4byte	.LASF20
 726 00e5 08       		.byte	0x8
 727 00e6 3C       		.byte	0x3c
 728 00e7 A9000000 		.4byte	0xa9
 729 00eb 03       		.uleb128 0x3
 730 00ec 72020000 		.4byte	.LASF21
 731 00f0 08       		.byte	0x8
 732 00f1 3D       		.byte	0x3d
 733 00f2 A9000000 		.4byte	0xa9
 734 00f6 03       		.uleb128 0x3
 735 00f7 5C010000 		.4byte	.LASF22
 736 00fb 08       		.byte	0x8
 737 00fc 40       		.byte	0x40
 738 00fd CA000000 		.4byte	0xca
 739 0101 03       		.uleb128 0x3
 740 0102 D4020000 		.4byte	.LASF23
 741 0106 08       		.byte	0x8
 742 0107 41       		.byte	0x41
ARM GAS  /tmp/cc7O25sm.s 			page 37


 743 0108 BF000000 		.4byte	0xbf
 744 010c 03       		.uleb128 0x3
 745 010d 97010000 		.4byte	.LASF24
 746 0111 08       		.byte	0x8
 747 0112 45       		.byte	0x45
 748 0113 BF000000 		.4byte	0xbf
 749 0117 03       		.uleb128 0x3
 750 0118 46000000 		.4byte	.LASF25
 751 011c 09       		.byte	0x9
 752 011d 35       		.byte	0x35
 753 011e B4000000 		.4byte	0xb4
 754 0122 03       		.uleb128 0x3
 755 0123 C8010000 		.4byte	.LASF26
 756 0127 09       		.byte	0x9
 757 0128 3F       		.byte	0x3f
 758 0129 2D010000 		.4byte	0x12d
 759 012d 05       		.uleb128 0x5
 760 012e 9D020000 		.4byte	.LASF41
 761 0132 30       		.byte	0x30
 762 0133 0A       		.byte	0xa
 763 0134 C2       		.byte	0xc2
 764 0135 DA010000 		.4byte	0x1da
 765 0139 06       		.uleb128 0x6
 766 013a 70040000 		.4byte	.LASF27
 767 013e 0A       		.byte	0xa
 768 013f C3       		.byte	0xc3
 769 0140 E5010000 		.4byte	0x1e5
 770 0144 00       		.byte	0
 771 0145 06       		.uleb128 0x6
 772 0146 E5040000 		.4byte	.LASF28
 773 014a 0A       		.byte	0xa
 774 014b C5       		.byte	0xc5
 775 014c E5010000 		.4byte	0x1e5
 776 0150 04       		.byte	0x4
 777 0151 06       		.uleb128 0x6
 778 0152 3F000000 		.4byte	.LASF29
 779 0156 0A       		.byte	0xa
 780 0157 C7       		.byte	0xc7
 781 0158 F6000000 		.4byte	0xf6
 782 015c 08       		.byte	0x8
 783 015d 06       		.uleb128 0x6
 784 015e 80040000 		.4byte	.LASF30
 785 0162 0A       		.byte	0xa
 786 0163 C8       		.byte	0xc8
 787 0164 09040000 		.4byte	0x409
 788 0168 0C       		.byte	0xc
 789 0169 06       		.uleb128 0x6
 790 016a A9010000 		.4byte	.LASF31
 791 016e 0A       		.byte	0xa
 792 016f CA       		.byte	0xca
 793 0170 E5010000 		.4byte	0x1e5
 794 0174 10       		.byte	0x10
 795 0175 06       		.uleb128 0x6
 796 0176 7B020000 		.4byte	.LASF32
 797 017a 0A       		.byte	0xa
 798 017b CB       		.byte	0xcb
 799 017c E5010000 		.4byte	0x1e5
ARM GAS  /tmp/cc7O25sm.s 			page 38


 800 0180 14       		.byte	0x14
 801 0181 06       		.uleb128 0x6
 802 0182 43020000 		.4byte	.LASF33
 803 0186 0A       		.byte	0xa
 804 0187 D2       		.byte	0xd2
 805 0188 53050000 		.4byte	0x553
 806 018c 18       		.byte	0x18
 807 018d 06       		.uleb128 0x6
 808 018e 83020000 		.4byte	.LASF34
 809 0192 0A       		.byte	0xa
 810 0193 DD       		.byte	0xdd
 811 0194 EB000000 		.4byte	0xeb
 812 0198 1C       		.byte	0x1c
 813 0199 06       		.uleb128 0x6
 814 019a E2020000 		.4byte	.LASF35
 815 019e 0A       		.byte	0xa
 816 019f E1       		.byte	0xe1
 817 01a0 E0000000 		.4byte	0xe0
 818 01a4 1D       		.byte	0x1d
 819 01a5 07       		.uleb128 0x7
 820 01a6 705F7500 		.ascii	"p_u\000"
 821 01aa 0A       		.byte	0xa
 822 01ab 3101     		.2byte	0x131
 823 01ad 9A040000 		.4byte	0x49a
 824 01b1 20       		.byte	0x20
 825 01b2 08       		.uleb128 0x8
 826 01b3 20000000 		.4byte	.LASF36
 827 01b7 0A       		.byte	0xa
 828 01b8 3601     		.2byte	0x136
 829 01ba EB010000 		.4byte	0x1eb
 830 01be 24       		.byte	0x24
 831 01bf 08       		.uleb128 0x8
 832 01c0 93020000 		.4byte	.LASF37
 833 01c4 0A       		.byte	0xa
 834 01c5 4D01     		.2byte	0x14d
 835 01c7 4D050000 		.4byte	0x54d
 836 01cb 28       		.byte	0x28
 837 01cc 08       		.uleb128 0x8
 838 01cd 12040000 		.4byte	.LASF38
 839 01d1 0A       		.byte	0xa
 840 01d2 5101     		.2byte	0x151
 841 01d4 F6000000 		.4byte	0xf6
 842 01d8 2C       		.byte	0x2c
 843 01d9 00       		.byte	0
 844 01da 03       		.uleb128 0x3
 845 01db 53020000 		.4byte	.LASF39
 846 01df 09       		.byte	0x9
 847 01e0 44       		.byte	0x44
 848 01e1 E5010000 		.4byte	0x1e5
 849 01e5 09       		.uleb128 0x9
 850 01e6 04       		.byte	0x4
 851 01e7 22010000 		.4byte	0x122
 852 01eb 03       		.uleb128 0x3
 853 01ec 8A000000 		.4byte	.LASF40
 854 01f0 09       		.byte	0x9
 855 01f1 49       		.byte	0x49
 856 01f2 F6010000 		.4byte	0x1f6
ARM GAS  /tmp/cc7O25sm.s 			page 39


 857 01f6 05       		.uleb128 0x5
 858 01f7 00000000 		.4byte	.LASF42
 859 01fb 04       		.byte	0x4
 860 01fc 0A       		.byte	0xa
 861 01fd B0       		.byte	0xb0
 862 01fe 0F020000 		.4byte	0x20f
 863 0202 06       		.uleb128 0x6
 864 0203 70040000 		.4byte	.LASF27
 865 0207 0A       		.byte	0xa
 866 0208 B1       		.byte	0xb1
 867 0209 E5010000 		.4byte	0x1e5
 868 020d 00       		.byte	0
 869 020e 00       		.byte	0
 870 020f 03       		.uleb128 0x3
 871 0210 10000000 		.4byte	.LASF43
 872 0214 09       		.byte	0x9
 873 0215 50       		.byte	0x50
 874 0216 1A020000 		.4byte	0x21a
 875 021a 05       		.uleb128 0x5
 876 021b F1000000 		.4byte	.LASF44
 877 021f 08       		.byte	0x8
 878 0220 0A       		.byte	0xa
 879 0221 B7       		.byte	0xb7
 880 0222 3F020000 		.4byte	0x23f
 881 0226 06       		.uleb128 0x6
 882 0227 70040000 		.4byte	.LASF27
 883 022b 0A       		.byte	0xa
 884 022c B8       		.byte	0xb8
 885 022d E5010000 		.4byte	0x1e5
 886 0231 00       		.byte	0
 887 0232 06       		.uleb128 0x6
 888 0233 E5040000 		.4byte	.LASF28
 889 0237 0A       		.byte	0xa
 890 0238 B9       		.byte	0xb9
 891 0239 E5010000 		.4byte	0x1e5
 892 023d 04       		.byte	0x4
 893 023e 00       		.byte	0
 894 023f 03       		.uleb128 0x3
 895 0240 14050000 		.4byte	.LASF45
 896 0244 09       		.byte	0x9
 897 0245 57       		.byte	0x57
 898 0246 4A020000 		.4byte	0x24a
 899 024a 0A       		.uleb128 0xa
 900 024b C7000000 		.4byte	.LASF46
 901 024f 1C       		.byte	0x1c
 902 0250 0A       		.byte	0xa
 903 0251 9001     		.2byte	0x190
 904 0253 A6020000 		.4byte	0x2a6
 905 0257 08       		.uleb128 0x8
 906 0258 C4020000 		.4byte	.LASF47
 907 025c 0A       		.byte	0xa
 908 025d 9101     		.2byte	0x191
 909 025f 0F020000 		.4byte	0x20f
 910 0263 00       		.byte	0
 911 0264 08       		.uleb128 0x8
 912 0265 41010000 		.4byte	.LASF48
 913 0269 0A       		.byte	0xa
ARM GAS  /tmp/cc7O25sm.s 			page 40


 914 026a 9201     		.2byte	0x192
 915 026c F6000000 		.4byte	0xf6
 916 0270 08       		.byte	0x8
 917 0271 08       		.uleb128 0x8
 918 0272 C5050000 		.4byte	.LASF49
 919 0276 0A       		.byte	0xa
 920 0277 9401     		.2byte	0x194
 921 0279 09040000 		.4byte	0x409
 922 027d 0C       		.byte	0xc
 923 027e 08       		.uleb128 0x8
 924 027f CC020000 		.4byte	.LASF50
 925 0283 0A       		.byte	0xa
 926 0284 9701     		.2byte	0x197
 927 0286 E5010000 		.4byte	0x1e5
 928 028a 10       		.byte	0x10
 929 028b 08       		.uleb128 0x8
 930 028c D2030000 		.4byte	.LASF51
 931 0290 0A       		.byte	0xa
 932 0291 9801     		.2byte	0x198
 933 0293 E5010000 		.4byte	0x1e5
 934 0297 14       		.byte	0x14
 935 0298 08       		.uleb128 0x8
 936 0299 32040000 		.4byte	.LASF52
 937 029d 0A       		.byte	0xa
 938 029e 9B01     		.2byte	0x19b
 939 02a0 E5010000 		.4byte	0x1e5
 940 02a4 18       		.byte	0x18
 941 02a5 00       		.byte	0
 942 02a6 03       		.uleb128 0x3
 943 02a7 0D010000 		.4byte	.LASF53
 944 02ab 09       		.byte	0x9
 945 02ac 5C       		.byte	0x5c
 946 02ad B1020000 		.4byte	0x2b1
 947 02b1 09       		.uleb128 0x9
 948 02b2 04       		.byte	0x4
 949 02b3 B7020000 		.4byte	0x2b7
 950 02b7 0B       		.uleb128 0xb
 951 02b8 C2020000 		.4byte	0x2c2
 952 02bc 0C       		.uleb128 0xc
 953 02bd C2020000 		.4byte	0x2c2
 954 02c1 00       		.byte	0
 955 02c2 0D       		.uleb128 0xd
 956 02c3 04       		.byte	0x4
 957 02c4 03       		.uleb128 0x3
 958 02c5 EA020000 		.4byte	.LASF54
 959 02c9 09       		.byte	0x9
 960 02ca 61       		.byte	0x61
 961 02cb CF020000 		.4byte	0x2cf
 962 02cf 0A       		.uleb128 0xa
 963 02d0 64010000 		.4byte	.LASF55
 964 02d4 14       		.byte	0x14
 965 02d5 0A       		.byte	0xa
 966 02d6 6B01     		.2byte	0x16b
 967 02d8 1E030000 		.4byte	0x31e
 968 02dc 08       		.uleb128 0x8
 969 02dd 78050000 		.4byte	.LASF56
 970 02e1 0A       		.byte	0xa
ARM GAS  /tmp/cc7O25sm.s 			page 41


 971 02e2 6C01     		.2byte	0x16c
 972 02e4 65050000 		.4byte	0x565
 973 02e8 00       		.byte	0
 974 02e9 08       		.uleb128 0x8
 975 02ea F3050000 		.4byte	.LASF57
 976 02ee 0A       		.byte	0xa
 977 02ef 6D01     		.2byte	0x16d
 978 02f1 65050000 		.4byte	0x565
 979 02f5 04       		.byte	0x4
 980 02f6 08       		.uleb128 0x8
 981 02f7 4A020000 		.4byte	.LASF58
 982 02fb 0A       		.byte	0xa
 983 02fc 6E01     		.2byte	0x16e
 984 02fe 17010000 		.4byte	0x117
 985 0302 08       		.byte	0x8
 986 0303 08       		.uleb128 0x8
 987 0304 DF050000 		.4byte	.LASF59
 988 0308 0A       		.byte	0xa
 989 0309 6F01     		.2byte	0x16f
 990 030b A6020000 		.4byte	0x2a6
 991 030f 0C       		.byte	0xc
 992 0310 08       		.uleb128 0x8
 993 0311 48010000 		.4byte	.LASF60
 994 0315 0A       		.byte	0xa
 995 0316 7101     		.2byte	0x171
 996 0318 C2020000 		.4byte	0x2c2
 997 031c 10       		.byte	0x10
 998 031d 00       		.byte	0
 999 031e 03       		.uleb128 0x3
 1000 031f 51050000 		.4byte	.LASF61
 1001 0323 09       		.byte	0x9
 1002 0324 66       		.byte	0x66
 1003 0325 29030000 		.4byte	0x329
 1004 0329 0A       		.uleb128 0xa
 1005 032a B1010000 		.4byte	.LASF62
 1006 032e 0C       		.byte	0xc
 1007 032f 0A       		.byte	0xa
 1008 0330 7B01     		.2byte	0x17b
 1009 0332 6B030000 		.4byte	0x36b
 1010 0336 08       		.uleb128 0x8
 1011 0337 78050000 		.4byte	.LASF56
 1012 033b 0A       		.byte	0xa
 1013 033c 7C01     		.2byte	0x17c
 1014 033e 65050000 		.4byte	0x565
 1015 0342 00       		.byte	0
 1016 0343 08       		.uleb128 0x8
 1017 0344 F3050000 		.4byte	.LASF57
 1018 0348 0A       		.byte	0xa
 1019 0349 7E01     		.2byte	0x17e
 1020 034b 65050000 		.4byte	0x565
 1021 034f 04       		.byte	0x4
 1022 0350 08       		.uleb128 0x8
 1023 0351 4A020000 		.4byte	.LASF58
 1024 0355 0A       		.byte	0xa
 1025 0356 8001     		.2byte	0x180
 1026 0358 17010000 		.4byte	0x117
 1027 035c 08       		.byte	0x8
ARM GAS  /tmp/cc7O25sm.s 			page 42


 1028 035d 08       		.uleb128 0x8
 1029 035e 66020000 		.4byte	.LASF63
 1030 0362 0A       		.byte	0xa
 1031 0363 8801     		.2byte	0x188
 1032 0365 17010000 		.4byte	0x117
 1033 0369 0A       		.byte	0xa
 1034 036a 00       		.byte	0
 1035 036b 03       		.uleb128 0x3
 1036 036c A7020000 		.4byte	.LASF64
 1037 0370 09       		.byte	0x9
 1038 0371 6B       		.byte	0x6b
 1039 0372 76030000 		.4byte	0x376
 1040 0376 0A       		.uleb128 0xa
 1041 0377 1C010000 		.4byte	.LASF65
 1042 037b 04       		.byte	0x4
 1043 037c 0A       		.byte	0xa
 1044 037d A201     		.2byte	0x1a2
 1045 037f 91030000 		.4byte	0x391
 1046 0383 08       		.uleb128 0x8
 1047 0384 DA030000 		.4byte	.LASF66
 1048 0388 0A       		.byte	0xa
 1049 0389 AA01     		.2byte	0x1aa
 1050 038b 6B050000 		.4byte	0x56b
 1051 038f 00       		.byte	0
 1052 0390 00       		.byte	0
 1053 0391 03       		.uleb128 0x3
 1054 0392 80050000 		.4byte	.LASF67
 1055 0396 09       		.byte	0x9
 1056 0397 70       		.byte	0x70
 1057 0398 9C030000 		.4byte	0x39c
 1058 039c 0E       		.uleb128 0xe
 1059 039d 66040000 		.4byte	.LASF68
 1060 03a1 2801     		.2byte	0x128
 1061 03a3 0A       		.byte	0xa
 1062 03a4 C201     		.2byte	0x1c2
 1063 03a6 EC030000 		.4byte	0x3ec
 1064 03aa 08       		.uleb128 0x8
 1065 03ab 86040000 		.4byte	.LASF69
 1066 03af 0A       		.byte	0xa
 1067 03b0 C601     		.2byte	0x1c6
 1068 03b2 3F020000 		.4byte	0x23f
 1069 03b6 00       		.byte	0
 1070 03b7 08       		.uleb128 0x8
 1071 03b8 C0000000 		.4byte	.LASF70
 1072 03bc 0A       		.byte	0xa
 1073 03bd CA01     		.2byte	0x1ca
 1074 03bf 1E030000 		.4byte	0x31e
 1075 03c3 1C       		.byte	0x1c
 1076 03c4 07       		.uleb128 0x7
 1077 03c5 64626700 		.ascii	"dbg\000"
 1078 03c9 0A       		.byte	0xa
 1079 03ca CE01     		.2byte	0x1ce
 1080 03cc 6B030000 		.4byte	0x36b
 1081 03d0 28       		.byte	0x28
 1082 03d1 08       		.uleb128 0x8
 1083 03d2 F4030000 		.4byte	.LASF71
 1084 03d6 0A       		.byte	0xa
ARM GAS  /tmp/cc7O25sm.s 			page 43


 1085 03d7 D201     		.2byte	0x1d2
 1086 03d9 22010000 		.4byte	0x122
 1087 03dd 2C       		.byte	0x2c
 1088 03de 08       		.uleb128 0x8
 1089 03df D5000000 		.4byte	.LASF72
 1090 03e3 0A       		.byte	0xa
 1091 03e4 E301     		.2byte	0x1e3
 1092 03e6 70050000 		.4byte	0x570
 1093 03ea 60       		.byte	0x60
 1094 03eb 00       		.byte	0
 1095 03ec 04       		.uleb128 0x4
 1096 03ed 04       		.byte	0x4
 1097 03ee 07       		.byte	0x7
 1098 03ef EC040000 		.4byte	.LASF73
 1099 03f3 03       		.uleb128 0x3
 1100 03f4 36000000 		.4byte	.LASF74
 1101 03f8 0B       		.byte	0xb
 1102 03f9 65       		.byte	0x65
 1103 03fa C2020000 		.4byte	0x2c2
 1104 03fe 03       		.uleb128 0x3
 1105 03ff CB050000 		.4byte	.LASF75
 1106 0403 0B       		.byte	0xb
 1107 0404 6D       		.byte	0x6d
 1108 0405 D5000000 		.4byte	0xd5
 1109 0409 05       		.uleb128 0x5
 1110 040a DA020000 		.4byte	.LASF76
 1111 040e 04       		.byte	0x4
 1112 040f 0B       		.byte	0xb
 1113 0410 89       		.byte	0x89
 1114 0411 22040000 		.4byte	0x422
 1115 0415 0F       		.uleb128 0xf
 1116 0416 72313300 		.ascii	"r13\000"
 1117 041a 0B       		.byte	0xb
 1118 041b 8A       		.byte	0x8a
 1119 041c 94040000 		.4byte	0x494
 1120 0420 00       		.byte	0
 1121 0421 00       		.byte	0
 1122 0422 05       		.uleb128 0x5
 1123 0423 4D040000 		.4byte	.LASF77
 1124 0427 24       		.byte	0x24
 1125 0428 01       		.byte	0x1
 1126 0429 A4       		.byte	0xa4
 1127 042a 94040000 		.4byte	0x494
 1128 042e 0F       		.uleb128 0xf
 1129 042f 723800   		.ascii	"r8\000"
 1130 0432 01       		.byte	0x1
 1131 0433 A5       		.byte	0xa5
 1132 0434 F3030000 		.4byte	0x3f3
 1133 0438 00       		.byte	0
 1134 0439 0F       		.uleb128 0xf
 1135 043a 723900   		.ascii	"r9\000"
 1136 043d 01       		.byte	0x1
 1137 043e A6       		.byte	0xa6
 1138 043f F3030000 		.4byte	0x3f3
 1139 0443 04       		.byte	0x4
 1140 0444 0F       		.uleb128 0xf
 1141 0445 72313000 		.ascii	"r10\000"
ARM GAS  /tmp/cc7O25sm.s 			page 44


 1142 0449 01       		.byte	0x1
 1143 044a A7       		.byte	0xa7
 1144 044b F3030000 		.4byte	0x3f3
 1145 044f 08       		.byte	0x8
 1146 0450 0F       		.uleb128 0xf
 1147 0451 72313100 		.ascii	"r11\000"
 1148 0455 01       		.byte	0x1
 1149 0456 A8       		.byte	0xa8
 1150 0457 F3030000 		.4byte	0x3f3
 1151 045b 0C       		.byte	0xc
 1152 045c 0F       		.uleb128 0xf
 1153 045d 723400   		.ascii	"r4\000"
 1154 0460 01       		.byte	0x1
 1155 0461 A9       		.byte	0xa9
 1156 0462 F3030000 		.4byte	0x3f3
 1157 0466 10       		.byte	0x10
 1158 0467 0F       		.uleb128 0xf
 1159 0468 723500   		.ascii	"r5\000"
 1160 046b 01       		.byte	0x1
 1161 046c AA       		.byte	0xaa
 1162 046d F3030000 		.4byte	0x3f3
 1163 0471 14       		.byte	0x14
 1164 0472 0F       		.uleb128 0xf
 1165 0473 723600   		.ascii	"r6\000"
 1166 0476 01       		.byte	0x1
 1167 0477 AB       		.byte	0xab
 1168 0478 F3030000 		.4byte	0x3f3
 1169 047c 18       		.byte	0x18
 1170 047d 0F       		.uleb128 0xf
 1171 047e 723700   		.ascii	"r7\000"
 1172 0481 01       		.byte	0x1
 1173 0482 AC       		.byte	0xac
 1174 0483 F3030000 		.4byte	0x3f3
 1175 0487 1C       		.byte	0x1c
 1176 0488 0F       		.uleb128 0xf
 1177 0489 6C7200   		.ascii	"lr\000"
 1178 048c 01       		.byte	0x1
 1179 048d AD       		.byte	0xad
 1180 048e F3030000 		.4byte	0x3f3
 1181 0492 20       		.byte	0x20
 1182 0493 00       		.byte	0
 1183 0494 09       		.uleb128 0x9
 1184 0495 04       		.byte	0x4
 1185 0496 22040000 		.4byte	0x422
 1186 049a 10       		.uleb128 0x10
 1187 049b 04       		.byte	0x4
 1188 049c 0A       		.byte	0xa
 1189 049d FA       		.byte	0xfa
 1190 049e EB040000 		.4byte	0x4eb
 1191 04a2 11       		.uleb128 0x11
 1192 04a3 D8010000 		.4byte	.LASF78
 1193 04a7 0A       		.byte	0xa
 1194 04a8 0101     		.2byte	0x101
 1195 04aa 01010000 		.4byte	0x101
 1196 04ae 11       		.uleb128 0x11
 1197 04af FB050000 		.4byte	.LASF79
 1198 04b3 0A       		.byte	0xa
ARM GAS  /tmp/cc7O25sm.s 			page 45


 1199 04b4 0801     		.2byte	0x108
 1200 04b6 01010000 		.4byte	0x101
 1201 04ba 11       		.uleb128 0x11
 1202 04bb AF000000 		.4byte	.LASF80
 1203 04bf 0A       		.byte	0xa
 1204 04c0 0F01     		.2byte	0x10f
 1205 04c2 C2020000 		.4byte	0x2c2
 1206 04c6 11       		.uleb128 0x11
 1207 04c7 8C050000 		.4byte	.LASF81
 1208 04cb 0A       		.byte	0xa
 1209 04cc 1601     		.2byte	0x116
 1210 04ce EB040000 		.4byte	0x4eb
 1211 04d2 11       		.uleb128 0x11
 1212 04d3 29050000 		.4byte	.LASF82
 1213 04d7 0A       		.byte	0xa
 1214 04d8 1E01     		.2byte	0x11e
 1215 04da 16050000 		.4byte	0x516
 1216 04de 11       		.uleb128 0x11
 1217 04df 2A000000 		.4byte	.LASF83
 1218 04e3 0A       		.byte	0xa
 1219 04e4 2701     		.2byte	0x127
 1220 04e6 4D050000 		.4byte	0x54d
 1221 04ea 00       		.byte	0
 1222 04eb 09       		.uleb128 0x9
 1223 04ec 04       		.byte	0x4
 1224 04ed DA010000 		.4byte	0x1da
 1225 04f1 05       		.uleb128 0x5
 1226 04f2 4F010000 		.4byte	.LASF84
 1227 04f6 0C       		.byte	0xc
 1228 04f7 0C       		.byte	0xc
 1229 04f8 34       		.byte	0x34
 1230 04f9 16050000 		.4byte	0x516
 1231 04fd 06       		.uleb128 0x6
 1232 04fe 75000000 		.4byte	.LASF85
 1233 0502 0C       		.byte	0xc
 1234 0503 35       		.byte	0x35
 1235 0504 0F020000 		.4byte	0x20f
 1236 0508 00       		.byte	0
 1237 0509 06       		.uleb128 0x6
 1238 050a 16010000 		.4byte	.LASF86
 1239 050e 0C       		.byte	0xc
 1240 050f 37       		.byte	0x37
 1241 0510 0C010000 		.4byte	0x10c
 1242 0514 08       		.byte	0x8
 1243 0515 00       		.byte	0
 1244 0516 09       		.uleb128 0x9
 1245 0517 04       		.byte	0x4
 1246 0518 F1040000 		.4byte	0x4f1
 1247 051c 05       		.uleb128 0x5
 1248 051d 0A020000 		.4byte	.LASF87
 1249 0521 10       		.byte	0x10
 1250 0522 0D       		.byte	0xd
 1251 0523 39       		.byte	0x39
 1252 0524 4D050000 		.4byte	0x54d
 1253 0528 06       		.uleb128 0x6
 1254 0529 3C040000 		.4byte	.LASF88
 1255 052d 0D       		.byte	0xd
ARM GAS  /tmp/cc7O25sm.s 			page 46


 1256 052e 3A       		.byte	0x3a
 1257 052f 0F020000 		.4byte	0x20f
 1258 0533 00       		.byte	0
 1259 0534 06       		.uleb128 0x6
 1260 0535 6D000000 		.4byte	.LASF89
 1261 0539 0D       		.byte	0xd
 1262 053a 3C       		.byte	0x3c
 1263 053b E5010000 		.4byte	0x1e5
 1264 053f 08       		.byte	0x8
 1265 0540 06       		.uleb128 0x6
 1266 0541 92050000 		.4byte	.LASF90
 1267 0545 0D       		.byte	0xd
 1268 0546 3E       		.byte	0x3e
 1269 0547 87060000 		.4byte	0x687
 1270 054b 0C       		.byte	0xc
 1271 054c 00       		.byte	0
 1272 054d 09       		.uleb128 0x9
 1273 054e 04       		.byte	0x4
 1274 054f 1C050000 		.4byte	0x51c
 1275 0553 09       		.uleb128 0x9
 1276 0554 04       		.byte	0x4
 1277 0555 59050000 		.4byte	0x559
 1278 0559 12       		.uleb128 0x12
 1279 055a 5E050000 		.4byte	0x55e
 1280 055e 04       		.uleb128 0x4
 1281 055f 01       		.byte	0x1
 1282 0560 08       		.byte	0x8
 1283 0561 31000000 		.4byte	.LASF91
 1284 0565 09       		.uleb128 0x9
 1285 0566 04       		.byte	0x4
 1286 0567 C4020000 		.4byte	0x2c4
 1287 056b 13       		.uleb128 0x13
 1288 056c 53050000 		.4byte	0x553
 1289 0570 14       		.uleb128 0x14
 1290 0571 FE030000 		.4byte	0x3fe
 1291 0575 80050000 		.4byte	0x580
 1292 0579 15       		.uleb128 0x15
 1293 057a EC030000 		.4byte	0x3ec
 1294 057e 18       		.byte	0x18
 1295 057f 00       		.byte	0
 1296 0580 16       		.uleb128 0x16
 1297 0581 16       		.byte	0x16
 1298 0582 0E       		.byte	0xe
 1299 0583 34       		.byte	0x34
 1300 0584 61060000 		.4byte	0x661
 1301 0588 06       		.uleb128 0x6
 1302 0589 D7040000 		.4byte	.LASF92
 1303 058d 0E       		.byte	0xe
 1304 058e 35       		.byte	0x35
 1305 058f 61060000 		.4byte	0x661
 1306 0593 00       		.byte	0
 1307 0594 06       		.uleb128 0x6
 1308 0595 06030000 		.4byte	.LASF93
 1309 0599 0E       		.byte	0xe
 1310 059a 36       		.byte	0x36
 1311 059b A9000000 		.4byte	0xa9
 1312 059f 04       		.byte	0x4
ARM GAS  /tmp/cc7O25sm.s 			page 47


 1313 05a0 06       		.uleb128 0x6
 1314 05a1 EC030000 		.4byte	.LASF94
 1315 05a5 0E       		.byte	0xe
 1316 05a6 37       		.byte	0x37
 1317 05a7 A9000000 		.4byte	0xa9
 1318 05ab 05       		.byte	0x5
 1319 05ac 06       		.uleb128 0x6
 1320 05ad 1D040000 		.4byte	.LASF95
 1321 05b1 0E       		.byte	0xe
 1322 05b2 38       		.byte	0x38
 1323 05b3 B4000000 		.4byte	0xb4
 1324 05b7 06       		.byte	0x6
 1325 05b8 06       		.uleb128 0x6
 1326 05b9 02010000 		.4byte	.LASF96
 1327 05bd 0E       		.byte	0xe
 1328 05be 39       		.byte	0x39
 1329 05bf A9000000 		.4byte	0xa9
 1330 05c3 08       		.byte	0x8
 1331 05c4 06       		.uleb128 0x6
 1332 05c5 35010000 		.4byte	.LASF97
 1333 05c9 0E       		.byte	0xe
 1334 05ca 3A       		.byte	0x3a
 1335 05cb A9000000 		.4byte	0xa9
 1336 05cf 09       		.byte	0x9
 1337 05d0 06       		.uleb128 0x6
 1338 05d1 DF010000 		.4byte	.LASF98
 1339 05d5 0E       		.byte	0xe
 1340 05d6 3B       		.byte	0x3b
 1341 05d7 A9000000 		.4byte	0xa9
 1342 05db 0A       		.byte	0xa
 1343 05dc 06       		.uleb128 0x6
 1344 05dd C1040000 		.4byte	.LASF99
 1345 05e1 0E       		.byte	0xe
 1346 05e2 3C       		.byte	0x3c
 1347 05e3 A9000000 		.4byte	0xa9
 1348 05e7 0B       		.byte	0xb
 1349 05e8 06       		.uleb128 0x6
 1350 05e9 28020000 		.4byte	.LASF100
 1351 05ed 0E       		.byte	0xe
 1352 05ee 3D       		.byte	0x3d
 1353 05ef A9000000 		.4byte	0xa9
 1354 05f3 0C       		.byte	0xc
 1355 05f4 06       		.uleb128 0x6
 1356 05f5 A5050000 		.4byte	.LASF101
 1357 05f9 0E       		.byte	0xe
 1358 05fa 3E       		.byte	0x3e
 1359 05fb A9000000 		.4byte	0xa9
 1360 05ff 0D       		.byte	0xd
 1361 0600 06       		.uleb128 0x6
 1362 0601 50000000 		.4byte	.LASF102
 1363 0605 0E       		.byte	0xe
 1364 0606 3F       		.byte	0x3f
 1365 0607 A9000000 		.4byte	0xa9
 1366 060b 0E       		.byte	0xe
 1367 060c 06       		.uleb128 0x6
 1368 060d A3000000 		.4byte	.LASF103
 1369 0611 0E       		.byte	0xe
ARM GAS  /tmp/cc7O25sm.s 			page 48


 1370 0612 40       		.byte	0x40
 1371 0613 A9000000 		.4byte	0xa9
 1372 0617 0F       		.byte	0xf
 1373 0618 06       		.uleb128 0x6
 1374 0619 33020000 		.4byte	.LASF104
 1375 061d 0E       		.byte	0xe
 1376 061e 41       		.byte	0x41
 1377 061f A9000000 		.4byte	0xa9
 1378 0623 10       		.byte	0x10
 1379 0624 06       		.uleb128 0x6
 1380 0625 07050000 		.4byte	.LASF105
 1381 0629 0E       		.byte	0xe
 1382 062a 43       		.byte	0x43
 1383 062b A9000000 		.4byte	0xa9
 1384 062f 11       		.byte	0x11
 1385 0630 06       		.uleb128 0x6
 1386 0631 E4000000 		.4byte	.LASF106
 1387 0635 0E       		.byte	0xe
 1388 0636 44       		.byte	0x44
 1389 0637 A9000000 		.4byte	0xa9
 1390 063b 12       		.byte	0x12
 1391 063c 06       		.uleb128 0x6
 1392 063d FA020000 		.4byte	.LASF107
 1393 0641 0E       		.byte	0xe
 1394 0642 45       		.byte	0x45
 1395 0643 A9000000 		.4byte	0xa9
 1396 0647 13       		.byte	0x13
 1397 0648 06       		.uleb128 0x6
 1398 0649 FB010000 		.4byte	.LASF108
 1399 064d 0E       		.byte	0xe
 1400 064e 46       		.byte	0x46
 1401 064f A9000000 		.4byte	0xa9
 1402 0653 14       		.byte	0x14
 1403 0654 06       		.uleb128 0x6
 1404 0655 8C040000 		.4byte	.LASF109
 1405 0659 0E       		.byte	0xe
 1406 065a 48       		.byte	0x48
 1407 065b A9000000 		.4byte	0xa9
 1408 065f 15       		.byte	0x15
 1409 0660 00       		.byte	0
 1410 0661 14       		.uleb128 0x14
 1411 0662 5E050000 		.4byte	0x55e
 1412 0666 71060000 		.4byte	0x671
 1413 066a 15       		.uleb128 0x15
 1414 066b EC030000 		.4byte	0x3ec
 1415 066f 03       		.byte	0x3
 1416 0670 00       		.byte	0
 1417 0671 03       		.uleb128 0x3
 1418 0672 08040000 		.4byte	.LASF110
 1419 0676 0E       		.byte	0xe
 1420 0677 49       		.byte	0x49
 1421 0678 80050000 		.4byte	0x580
 1422 067c 03       		.uleb128 0x3
 1423 067d 30050000 		.4byte	.LASF111
 1424 0681 0D       		.byte	0xd
 1425 0682 34       		.byte	0x34
 1426 0683 1C050000 		.4byte	0x51c
ARM GAS  /tmp/cc7O25sm.s 			page 49


 1427 0687 09       		.uleb128 0x9
 1428 0688 04       		.byte	0x4
 1429 0689 7C060000 		.4byte	0x67c
 1430 068d 17       		.uleb128 0x17
 1431 068e ED010000 		.4byte	.LASF112
 1432 0692 02       		.byte	0x2
 1433 0693 5601     		.2byte	0x156
 1434 0695 03       		.byte	0x3
 1435 0696 17       		.uleb128 0x17
 1436 0697 59040000 		.4byte	.LASF113
 1437 069b 02       		.byte	0x2
 1438 069c 4B01     		.2byte	0x14b
 1439 069e 03       		.byte	0x3
 1440 069f 18       		.uleb128 0x18
 1441 06a0 B6000000 		.4byte	.LASF114
 1442 06a4 01       		.byte	0x1
 1443 06a5 4A01     		.2byte	0x14a
 1444 06a7 00000000 		.4byte	.LFB38
 1445 06ab 04000000 		.4byte	.LFE38-.LFB38
 1446 06af 01       		.uleb128 0x1
 1447 06b0 9C       		.byte	0x9c
 1448 06b1 C6060000 		.4byte	0x6c6
 1449 06b5 19       		.uleb128 0x19
 1450 06b6 8D060000 		.4byte	0x68d
 1451 06ba 00000000 		.4byte	.LBB6
 1452 06be 02000000 		.4byte	.LBE6-.LBB6
 1453 06c2 01       		.byte	0x1
 1454 06c3 4C01     		.2byte	0x14c
 1455 06c5 00       		.byte	0
 1456 06c6 18       		.uleb128 0x18
 1457 06c7 E7050000 		.4byte	.LASF115
 1458 06cb 01       		.byte	0x1
 1459 06cc 5301     		.2byte	0x153
 1460 06ce 00000000 		.4byte	.LFB39
 1461 06d2 04000000 		.4byte	.LFE39-.LFB39
 1462 06d6 01       		.uleb128 0x1
 1463 06d7 9C       		.byte	0x9c
 1464 06d8 ED060000 		.4byte	0x6ed
 1465 06dc 19       		.uleb128 0x19
 1466 06dd 96060000 		.4byte	0x696
 1467 06e1 00000000 		.4byte	.LBB8
 1468 06e5 02000000 		.4byte	.LBE8-.LBB8
 1469 06e9 01       		.byte	0x1
 1470 06ea 5501     		.2byte	0x155
 1471 06ec 00       		.byte	0
 1472 06ed 1A       		.uleb128 0x1a
 1473 06ee 1E020000 		.4byte	.LASF122
 1474 06f2 03       		.byte	0x3
 1475 06f3 5A01     		.2byte	0x15a
 1476 06f5 00000000 		.4byte	.LFB70
 1477 06f9 08000000 		.4byte	.LFE70-.LFB70
 1478 06fd 01       		.uleb128 0x1
 1479 06fe 9C       		.byte	0x9c
 1480 06ff 1B       		.uleb128 0x1b
 1481 0700 9D010000 		.4byte	.LASF116
 1482 0704 03       		.byte	0x3
 1483 0705 6601     		.2byte	0x166
ARM GAS  /tmp/cc7O25sm.s 			page 50


 1484 0707 00000000 		.4byte	.LFB71
 1485 070b 08000000 		.4byte	.LFE71-.LFB71
 1486 070f 01       		.uleb128 0x1
 1487 0710 9C       		.byte	0x9c
 1488 0711 1F070000 		.4byte	0x71f
 1489 0715 1C       		.uleb128 0x1c
 1490 0716 0E030000 		.4byte	.LASF123
 1491 071a 2F070000 		.4byte	0x72f
 1492 071e 00       		.byte	0
 1493 071f 14       		.uleb128 0x14
 1494 0720 5E050000 		.4byte	0x55e
 1495 0724 2F070000 		.4byte	0x72f
 1496 0728 15       		.uleb128 0x15
 1497 0729 EC030000 		.4byte	0x3ec
 1498 072d 0B       		.byte	0xb
 1499 072e 00       		.byte	0
 1500 072f 12       		.uleb128 0x12
 1501 0730 1F070000 		.4byte	0x71f
 1502 0734 1D       		.uleb128 0x1d
 1503 0735 67050000 		.4byte	.LASF117
 1504 0739 04       		.byte	0x4
 1505 073a 83       		.byte	0x83
 1506 073b E5010000 		.4byte	0x1e5
 1507 073f 00000000 		.4byte	.LFB119
 1508 0743 20000000 		.4byte	.LFE119-.LFB119
 1509 0747 01       		.uleb128 0x1
 1510 0748 9C       		.byte	0x9c
 1511 0749 5B070000 		.4byte	0x75b
 1512 074d 1E       		.uleb128 0x1e
 1513 074e 747000   		.ascii	"tp\000"
 1514 0751 04       		.byte	0x4
 1515 0752 84       		.byte	0x84
 1516 0753 E5010000 		.4byte	0x1e5
 1517 0757 02       		.uleb128 0x2
 1518 0758 91       		.byte	0x91
 1519 0759 74       		.sleb128 -12
 1520 075a 00       		.byte	0
 1521 075b 1D       		.uleb128 0x1d
 1522 075c 5D000000 		.4byte	.LASF118
 1523 0760 04       		.byte	0x4
 1524 0761 9B       		.byte	0x9b
 1525 0762 E5010000 		.4byte	0x1e5
 1526 0766 00000000 		.4byte	.LFB120
 1527 076a 2C000000 		.4byte	.LFE120-.LFB120
 1528 076e 01       		.uleb128 0x1
 1529 076f 9C       		.byte	0x9c
 1530 0770 90070000 		.4byte	0x790
 1531 0774 1F       		.uleb128 0x1f
 1532 0775 747000   		.ascii	"tp\000"
 1533 0778 04       		.byte	0x4
 1534 0779 9B       		.byte	0x9b
 1535 077a E5010000 		.4byte	0x1e5
 1536 077e 02       		.uleb128 0x2
 1537 077f 91       		.byte	0x91
 1538 0780 6C       		.sleb128 -20
 1539 0781 1E       		.uleb128 0x1e
 1540 0782 6E747000 		.ascii	"ntp\000"
ARM GAS  /tmp/cc7O25sm.s 			page 51


 1541 0786 04       		.byte	0x4
 1542 0787 9C       		.byte	0x9c
 1543 0788 E5010000 		.4byte	0x1e5
 1544 078c 02       		.uleb128 0x2
 1545 078d 91       		.byte	0x91
 1546 078e 74       		.sleb128 -12
 1547 078f 00       		.byte	0
 1548 0790 20       		.uleb128 0x20
 1549 0791 636800   		.ascii	"ch\000"
 1550 0794 0A       		.byte	0xa
 1551 0795 0902     		.2byte	0x209
 1552 0797 91030000 		.4byte	0x391
 1553 079b 21       		.uleb128 0x21
 1554 079c D6050000 		.4byte	.LASF119
 1555 07a0 04       		.byte	0x4
 1556 07a1 50       		.byte	0x50
 1557 07a2 AC070000 		.4byte	0x7ac
 1558 07a6 05       		.uleb128 0x5
 1559 07a7 03       		.byte	0x3
 1560 07a8 00000000 		.4byte	ch_debug
 1561 07ac 12       		.uleb128 0x12
 1562 07ad 71060000 		.4byte	0x671
 1563 07b1 00       		.byte	0
 1564              		.section	.debug_abbrev,"",%progbits
 1565              	.Ldebug_abbrev0:
 1566 0000 01       		.uleb128 0x1
 1567 0001 11       		.uleb128 0x11
 1568 0002 01       		.byte	0x1
 1569 0003 25       		.uleb128 0x25
 1570 0004 0E       		.uleb128 0xe
 1571 0005 13       		.uleb128 0x13
 1572 0006 0B       		.uleb128 0xb
 1573 0007 03       		.uleb128 0x3
 1574 0008 0E       		.uleb128 0xe
 1575 0009 55       		.uleb128 0x55
 1576 000a 17       		.uleb128 0x17
 1577 000b 11       		.uleb128 0x11
 1578 000c 01       		.uleb128 0x1
 1579 000d 10       		.uleb128 0x10
 1580 000e 17       		.uleb128 0x17
 1581 000f 00       		.byte	0
 1582 0010 00       		.byte	0
 1583 0011 02       		.uleb128 0x2
 1584 0012 24       		.uleb128 0x24
 1585 0013 00       		.byte	0
 1586 0014 0B       		.uleb128 0xb
 1587 0015 0B       		.uleb128 0xb
 1588 0016 3E       		.uleb128 0x3e
 1589 0017 0B       		.uleb128 0xb
 1590 0018 03       		.uleb128 0x3
 1591 0019 08       		.uleb128 0x8
 1592 001a 00       		.byte	0
 1593 001b 00       		.byte	0
 1594 001c 03       		.uleb128 0x3
 1595 001d 16       		.uleb128 0x16
 1596 001e 00       		.byte	0
 1597 001f 03       		.uleb128 0x3
ARM GAS  /tmp/cc7O25sm.s 			page 52


 1598 0020 0E       		.uleb128 0xe
 1599 0021 3A       		.uleb128 0x3a
 1600 0022 0B       		.uleb128 0xb
 1601 0023 3B       		.uleb128 0x3b
 1602 0024 0B       		.uleb128 0xb
 1603 0025 49       		.uleb128 0x49
 1604 0026 13       		.uleb128 0x13
 1605 0027 00       		.byte	0
 1606 0028 00       		.byte	0
 1607 0029 04       		.uleb128 0x4
 1608 002a 24       		.uleb128 0x24
 1609 002b 00       		.byte	0
 1610 002c 0B       		.uleb128 0xb
 1611 002d 0B       		.uleb128 0xb
 1612 002e 3E       		.uleb128 0x3e
 1613 002f 0B       		.uleb128 0xb
 1614 0030 03       		.uleb128 0x3
 1615 0031 0E       		.uleb128 0xe
 1616 0032 00       		.byte	0
 1617 0033 00       		.byte	0
 1618 0034 05       		.uleb128 0x5
 1619 0035 13       		.uleb128 0x13
 1620 0036 01       		.byte	0x1
 1621 0037 03       		.uleb128 0x3
 1622 0038 0E       		.uleb128 0xe
 1623 0039 0B       		.uleb128 0xb
 1624 003a 0B       		.uleb128 0xb
 1625 003b 3A       		.uleb128 0x3a
 1626 003c 0B       		.uleb128 0xb
 1627 003d 3B       		.uleb128 0x3b
 1628 003e 0B       		.uleb128 0xb
 1629 003f 01       		.uleb128 0x1
 1630 0040 13       		.uleb128 0x13
 1631 0041 00       		.byte	0
 1632 0042 00       		.byte	0
 1633 0043 06       		.uleb128 0x6
 1634 0044 0D       		.uleb128 0xd
 1635 0045 00       		.byte	0
 1636 0046 03       		.uleb128 0x3
 1637 0047 0E       		.uleb128 0xe
 1638 0048 3A       		.uleb128 0x3a
 1639 0049 0B       		.uleb128 0xb
 1640 004a 3B       		.uleb128 0x3b
 1641 004b 0B       		.uleb128 0xb
 1642 004c 49       		.uleb128 0x49
 1643 004d 13       		.uleb128 0x13
 1644 004e 38       		.uleb128 0x38
 1645 004f 0B       		.uleb128 0xb
 1646 0050 00       		.byte	0
 1647 0051 00       		.byte	0
 1648 0052 07       		.uleb128 0x7
 1649 0053 0D       		.uleb128 0xd
 1650 0054 00       		.byte	0
 1651 0055 03       		.uleb128 0x3
 1652 0056 08       		.uleb128 0x8
 1653 0057 3A       		.uleb128 0x3a
 1654 0058 0B       		.uleb128 0xb
ARM GAS  /tmp/cc7O25sm.s 			page 53


 1655 0059 3B       		.uleb128 0x3b
 1656 005a 05       		.uleb128 0x5
 1657 005b 49       		.uleb128 0x49
 1658 005c 13       		.uleb128 0x13
 1659 005d 38       		.uleb128 0x38
 1660 005e 0B       		.uleb128 0xb
 1661 005f 00       		.byte	0
 1662 0060 00       		.byte	0
 1663 0061 08       		.uleb128 0x8
 1664 0062 0D       		.uleb128 0xd
 1665 0063 00       		.byte	0
 1666 0064 03       		.uleb128 0x3
 1667 0065 0E       		.uleb128 0xe
 1668 0066 3A       		.uleb128 0x3a
 1669 0067 0B       		.uleb128 0xb
 1670 0068 3B       		.uleb128 0x3b
 1671 0069 05       		.uleb128 0x5
 1672 006a 49       		.uleb128 0x49
 1673 006b 13       		.uleb128 0x13
 1674 006c 38       		.uleb128 0x38
 1675 006d 0B       		.uleb128 0xb
 1676 006e 00       		.byte	0
 1677 006f 00       		.byte	0
 1678 0070 09       		.uleb128 0x9
 1679 0071 0F       		.uleb128 0xf
 1680 0072 00       		.byte	0
 1681 0073 0B       		.uleb128 0xb
 1682 0074 0B       		.uleb128 0xb
 1683 0075 49       		.uleb128 0x49
 1684 0076 13       		.uleb128 0x13
 1685 0077 00       		.byte	0
 1686 0078 00       		.byte	0
 1687 0079 0A       		.uleb128 0xa
 1688 007a 13       		.uleb128 0x13
 1689 007b 01       		.byte	0x1
 1690 007c 03       		.uleb128 0x3
 1691 007d 0E       		.uleb128 0xe
 1692 007e 0B       		.uleb128 0xb
 1693 007f 0B       		.uleb128 0xb
 1694 0080 3A       		.uleb128 0x3a
 1695 0081 0B       		.uleb128 0xb
 1696 0082 3B       		.uleb128 0x3b
 1697 0083 05       		.uleb128 0x5
 1698 0084 01       		.uleb128 0x1
 1699 0085 13       		.uleb128 0x13
 1700 0086 00       		.byte	0
 1701 0087 00       		.byte	0
 1702 0088 0B       		.uleb128 0xb
 1703 0089 15       		.uleb128 0x15
 1704 008a 01       		.byte	0x1
 1705 008b 27       		.uleb128 0x27
 1706 008c 19       		.uleb128 0x19
 1707 008d 01       		.uleb128 0x1
 1708 008e 13       		.uleb128 0x13
 1709 008f 00       		.byte	0
 1710 0090 00       		.byte	0
 1711 0091 0C       		.uleb128 0xc
ARM GAS  /tmp/cc7O25sm.s 			page 54


 1712 0092 05       		.uleb128 0x5
 1713 0093 00       		.byte	0
 1714 0094 49       		.uleb128 0x49
 1715 0095 13       		.uleb128 0x13
 1716 0096 00       		.byte	0
 1717 0097 00       		.byte	0
 1718 0098 0D       		.uleb128 0xd
 1719 0099 0F       		.uleb128 0xf
 1720 009a 00       		.byte	0
 1721 009b 0B       		.uleb128 0xb
 1722 009c 0B       		.uleb128 0xb
 1723 009d 00       		.byte	0
 1724 009e 00       		.byte	0
 1725 009f 0E       		.uleb128 0xe
 1726 00a0 13       		.uleb128 0x13
 1727 00a1 01       		.byte	0x1
 1728 00a2 03       		.uleb128 0x3
 1729 00a3 0E       		.uleb128 0xe
 1730 00a4 0B       		.uleb128 0xb
 1731 00a5 05       		.uleb128 0x5
 1732 00a6 3A       		.uleb128 0x3a
 1733 00a7 0B       		.uleb128 0xb
 1734 00a8 3B       		.uleb128 0x3b
 1735 00a9 05       		.uleb128 0x5
 1736 00aa 01       		.uleb128 0x1
 1737 00ab 13       		.uleb128 0x13
 1738 00ac 00       		.byte	0
 1739 00ad 00       		.byte	0
 1740 00ae 0F       		.uleb128 0xf
 1741 00af 0D       		.uleb128 0xd
 1742 00b0 00       		.byte	0
 1743 00b1 03       		.uleb128 0x3
 1744 00b2 08       		.uleb128 0x8
 1745 00b3 3A       		.uleb128 0x3a
 1746 00b4 0B       		.uleb128 0xb
 1747 00b5 3B       		.uleb128 0x3b
 1748 00b6 0B       		.uleb128 0xb
 1749 00b7 49       		.uleb128 0x49
 1750 00b8 13       		.uleb128 0x13
 1751 00b9 38       		.uleb128 0x38
 1752 00ba 0B       		.uleb128 0xb
 1753 00bb 00       		.byte	0
 1754 00bc 00       		.byte	0
 1755 00bd 10       		.uleb128 0x10
 1756 00be 17       		.uleb128 0x17
 1757 00bf 01       		.byte	0x1
 1758 00c0 0B       		.uleb128 0xb
 1759 00c1 0B       		.uleb128 0xb
 1760 00c2 3A       		.uleb128 0x3a
 1761 00c3 0B       		.uleb128 0xb
 1762 00c4 3B       		.uleb128 0x3b
 1763 00c5 0B       		.uleb128 0xb
 1764 00c6 01       		.uleb128 0x1
 1765 00c7 13       		.uleb128 0x13
 1766 00c8 00       		.byte	0
 1767 00c9 00       		.byte	0
 1768 00ca 11       		.uleb128 0x11
ARM GAS  /tmp/cc7O25sm.s 			page 55


 1769 00cb 0D       		.uleb128 0xd
 1770 00cc 00       		.byte	0
 1771 00cd 03       		.uleb128 0x3
 1772 00ce 0E       		.uleb128 0xe
 1773 00cf 3A       		.uleb128 0x3a
 1774 00d0 0B       		.uleb128 0xb
 1775 00d1 3B       		.uleb128 0x3b
 1776 00d2 05       		.uleb128 0x5
 1777 00d3 49       		.uleb128 0x49
 1778 00d4 13       		.uleb128 0x13
 1779 00d5 00       		.byte	0
 1780 00d6 00       		.byte	0
 1781 00d7 12       		.uleb128 0x12
 1782 00d8 26       		.uleb128 0x26
 1783 00d9 00       		.byte	0
 1784 00da 49       		.uleb128 0x49
 1785 00db 13       		.uleb128 0x13
 1786 00dc 00       		.byte	0
 1787 00dd 00       		.byte	0
 1788 00de 13       		.uleb128 0x13
 1789 00df 35       		.uleb128 0x35
 1790 00e0 00       		.byte	0
 1791 00e1 49       		.uleb128 0x49
 1792 00e2 13       		.uleb128 0x13
 1793 00e3 00       		.byte	0
 1794 00e4 00       		.byte	0
 1795 00e5 14       		.uleb128 0x14
 1796 00e6 01       		.uleb128 0x1
 1797 00e7 01       		.byte	0x1
 1798 00e8 49       		.uleb128 0x49
 1799 00e9 13       		.uleb128 0x13
 1800 00ea 01       		.uleb128 0x1
 1801 00eb 13       		.uleb128 0x13
 1802 00ec 00       		.byte	0
 1803 00ed 00       		.byte	0
 1804 00ee 15       		.uleb128 0x15
 1805 00ef 21       		.uleb128 0x21
 1806 00f0 00       		.byte	0
 1807 00f1 49       		.uleb128 0x49
 1808 00f2 13       		.uleb128 0x13
 1809 00f3 2F       		.uleb128 0x2f
 1810 00f4 0B       		.uleb128 0xb
 1811 00f5 00       		.byte	0
 1812 00f6 00       		.byte	0
 1813 00f7 16       		.uleb128 0x16
 1814 00f8 13       		.uleb128 0x13
 1815 00f9 01       		.byte	0x1
 1816 00fa 0B       		.uleb128 0xb
 1817 00fb 0B       		.uleb128 0xb
 1818 00fc 3A       		.uleb128 0x3a
 1819 00fd 0B       		.uleb128 0xb
 1820 00fe 3B       		.uleb128 0x3b
 1821 00ff 0B       		.uleb128 0xb
 1822 0100 01       		.uleb128 0x1
 1823 0101 13       		.uleb128 0x13
 1824 0102 00       		.byte	0
 1825 0103 00       		.byte	0
ARM GAS  /tmp/cc7O25sm.s 			page 56


 1826 0104 17       		.uleb128 0x17
 1827 0105 2E       		.uleb128 0x2e
 1828 0106 00       		.byte	0
 1829 0107 03       		.uleb128 0x3
 1830 0108 0E       		.uleb128 0xe
 1831 0109 3A       		.uleb128 0x3a
 1832 010a 0B       		.uleb128 0xb
 1833 010b 3B       		.uleb128 0x3b
 1834 010c 05       		.uleb128 0x5
 1835 010d 27       		.uleb128 0x27
 1836 010e 19       		.uleb128 0x19
 1837 010f 20       		.uleb128 0x20
 1838 0110 0B       		.uleb128 0xb
 1839 0111 00       		.byte	0
 1840 0112 00       		.byte	0
 1841 0113 18       		.uleb128 0x18
 1842 0114 2E       		.uleb128 0x2e
 1843 0115 01       		.byte	0x1
 1844 0116 03       		.uleb128 0x3
 1845 0117 0E       		.uleb128 0xe
 1846 0118 3A       		.uleb128 0x3a
 1847 0119 0B       		.uleb128 0xb
 1848 011a 3B       		.uleb128 0x3b
 1849 011b 05       		.uleb128 0x5
 1850 011c 27       		.uleb128 0x27
 1851 011d 19       		.uleb128 0x19
 1852 011e 11       		.uleb128 0x11
 1853 011f 01       		.uleb128 0x1
 1854 0120 12       		.uleb128 0x12
 1855 0121 06       		.uleb128 0x6
 1856 0122 40       		.uleb128 0x40
 1857 0123 18       		.uleb128 0x18
 1858 0124 9742     		.uleb128 0x2117
 1859 0126 19       		.uleb128 0x19
 1860 0127 01       		.uleb128 0x1
 1861 0128 13       		.uleb128 0x13
 1862 0129 00       		.byte	0
 1863 012a 00       		.byte	0
 1864 012b 19       		.uleb128 0x19
 1865 012c 1D       		.uleb128 0x1d
 1866 012d 00       		.byte	0
 1867 012e 31       		.uleb128 0x31
 1868 012f 13       		.uleb128 0x13
 1869 0130 11       		.uleb128 0x11
 1870 0131 01       		.uleb128 0x1
 1871 0132 12       		.uleb128 0x12
 1872 0133 06       		.uleb128 0x6
 1873 0134 58       		.uleb128 0x58
 1874 0135 0B       		.uleb128 0xb
 1875 0136 59       		.uleb128 0x59
 1876 0137 05       		.uleb128 0x5
 1877 0138 00       		.byte	0
 1878 0139 00       		.byte	0
 1879 013a 1A       		.uleb128 0x1a
 1880 013b 2E       		.uleb128 0x2e
 1881 013c 00       		.byte	0
 1882 013d 03       		.uleb128 0x3
ARM GAS  /tmp/cc7O25sm.s 			page 57


 1883 013e 0E       		.uleb128 0xe
 1884 013f 3A       		.uleb128 0x3a
 1885 0140 0B       		.uleb128 0xb
 1886 0141 3B       		.uleb128 0x3b
 1887 0142 05       		.uleb128 0x5
 1888 0143 27       		.uleb128 0x27
 1889 0144 19       		.uleb128 0x19
 1890 0145 11       		.uleb128 0x11
 1891 0146 01       		.uleb128 0x1
 1892 0147 12       		.uleb128 0x12
 1893 0148 06       		.uleb128 0x6
 1894 0149 40       		.uleb128 0x40
 1895 014a 18       		.uleb128 0x18
 1896 014b 9642     		.uleb128 0x2116
 1897 014d 19       		.uleb128 0x19
 1898 014e 00       		.byte	0
 1899 014f 00       		.byte	0
 1900 0150 1B       		.uleb128 0x1b
 1901 0151 2E       		.uleb128 0x2e
 1902 0152 01       		.byte	0x1
 1903 0153 03       		.uleb128 0x3
 1904 0154 0E       		.uleb128 0xe
 1905 0155 3A       		.uleb128 0x3a
 1906 0156 0B       		.uleb128 0xb
 1907 0157 3B       		.uleb128 0x3b
 1908 0158 05       		.uleb128 0x5
 1909 0159 27       		.uleb128 0x27
 1910 015a 19       		.uleb128 0x19
 1911 015b 11       		.uleb128 0x11
 1912 015c 01       		.uleb128 0x1
 1913 015d 12       		.uleb128 0x12
 1914 015e 06       		.uleb128 0x6
 1915 015f 40       		.uleb128 0x40
 1916 0160 18       		.uleb128 0x18
 1917 0161 9642     		.uleb128 0x2116
 1918 0163 19       		.uleb128 0x19
 1919 0164 01       		.uleb128 0x1
 1920 0165 13       		.uleb128 0x13
 1921 0166 00       		.byte	0
 1922 0167 00       		.byte	0
 1923 0168 1C       		.uleb128 0x1c
 1924 0169 34       		.uleb128 0x34
 1925 016a 00       		.byte	0
 1926 016b 03       		.uleb128 0x3
 1927 016c 0E       		.uleb128 0xe
 1928 016d 49       		.uleb128 0x49
 1929 016e 13       		.uleb128 0x13
 1930 016f 34       		.uleb128 0x34
 1931 0170 19       		.uleb128 0x19
 1932 0171 00       		.byte	0
 1933 0172 00       		.byte	0
 1934 0173 1D       		.uleb128 0x1d
 1935 0174 2E       		.uleb128 0x2e
 1936 0175 01       		.byte	0x1
 1937 0176 3F       		.uleb128 0x3f
 1938 0177 19       		.uleb128 0x19
 1939 0178 03       		.uleb128 0x3
ARM GAS  /tmp/cc7O25sm.s 			page 58


 1940 0179 0E       		.uleb128 0xe
 1941 017a 3A       		.uleb128 0x3a
 1942 017b 0B       		.uleb128 0xb
 1943 017c 3B       		.uleb128 0x3b
 1944 017d 0B       		.uleb128 0xb
 1945 017e 27       		.uleb128 0x27
 1946 017f 19       		.uleb128 0x19
 1947 0180 49       		.uleb128 0x49
 1948 0181 13       		.uleb128 0x13
 1949 0182 11       		.uleb128 0x11
 1950 0183 01       		.uleb128 0x1
 1951 0184 12       		.uleb128 0x12
 1952 0185 06       		.uleb128 0x6
 1953 0186 40       		.uleb128 0x40
 1954 0187 18       		.uleb128 0x18
 1955 0188 9642     		.uleb128 0x2116
 1956 018a 19       		.uleb128 0x19
 1957 018b 01       		.uleb128 0x1
 1958 018c 13       		.uleb128 0x13
 1959 018d 00       		.byte	0
 1960 018e 00       		.byte	0
 1961 018f 1E       		.uleb128 0x1e
 1962 0190 34       		.uleb128 0x34
 1963 0191 00       		.byte	0
 1964 0192 03       		.uleb128 0x3
 1965 0193 08       		.uleb128 0x8
 1966 0194 3A       		.uleb128 0x3a
 1967 0195 0B       		.uleb128 0xb
 1968 0196 3B       		.uleb128 0x3b
 1969 0197 0B       		.uleb128 0xb
 1970 0198 49       		.uleb128 0x49
 1971 0199 13       		.uleb128 0x13
 1972 019a 02       		.uleb128 0x2
 1973 019b 18       		.uleb128 0x18
 1974 019c 00       		.byte	0
 1975 019d 00       		.byte	0
 1976 019e 1F       		.uleb128 0x1f
 1977 019f 05       		.uleb128 0x5
 1978 01a0 00       		.byte	0
 1979 01a1 03       		.uleb128 0x3
 1980 01a2 08       		.uleb128 0x8
 1981 01a3 3A       		.uleb128 0x3a
 1982 01a4 0B       		.uleb128 0xb
 1983 01a5 3B       		.uleb128 0x3b
 1984 01a6 0B       		.uleb128 0xb
 1985 01a7 49       		.uleb128 0x49
 1986 01a8 13       		.uleb128 0x13
 1987 01a9 02       		.uleb128 0x2
 1988 01aa 18       		.uleb128 0x18
 1989 01ab 00       		.byte	0
 1990 01ac 00       		.byte	0
 1991 01ad 20       		.uleb128 0x20
 1992 01ae 34       		.uleb128 0x34
 1993 01af 00       		.byte	0
 1994 01b0 03       		.uleb128 0x3
 1995 01b1 08       		.uleb128 0x8
 1996 01b2 3A       		.uleb128 0x3a
ARM GAS  /tmp/cc7O25sm.s 			page 59


 1997 01b3 0B       		.uleb128 0xb
 1998 01b4 3B       		.uleb128 0x3b
 1999 01b5 05       		.uleb128 0x5
 2000 01b6 49       		.uleb128 0x49
 2001 01b7 13       		.uleb128 0x13
 2002 01b8 3F       		.uleb128 0x3f
 2003 01b9 19       		.uleb128 0x19
 2004 01ba 3C       		.uleb128 0x3c
 2005 01bb 19       		.uleb128 0x19
 2006 01bc 00       		.byte	0
 2007 01bd 00       		.byte	0
 2008 01be 21       		.uleb128 0x21
 2009 01bf 34       		.uleb128 0x34
 2010 01c0 00       		.byte	0
 2011 01c1 03       		.uleb128 0x3
 2012 01c2 0E       		.uleb128 0xe
 2013 01c3 3A       		.uleb128 0x3a
 2014 01c4 0B       		.uleb128 0xb
 2015 01c5 3B       		.uleb128 0x3b
 2016 01c6 0B       		.uleb128 0xb
 2017 01c7 49       		.uleb128 0x49
 2018 01c8 13       		.uleb128 0x13
 2019 01c9 3F       		.uleb128 0x3f
 2020 01ca 19       		.uleb128 0x19
 2021 01cb 02       		.uleb128 0x2
 2022 01cc 18       		.uleb128 0x18
 2023 01cd 00       		.byte	0
 2024 01ce 00       		.byte	0
 2025 01cf 00       		.byte	0
 2026              		.section	.debug_aranges,"",%progbits
 2027 0000 44000000 		.4byte	0x44
 2028 0004 0200     		.2byte	0x2
 2029 0006 00000000 		.4byte	.Ldebug_info0
 2030 000a 04       		.byte	0x4
 2031 000b 00       		.byte	0
 2032 000c 0000     		.2byte	0
 2033 000e 0000     		.2byte	0
 2034 0010 00000000 		.4byte	.LFB38
 2035 0014 04000000 		.4byte	.LFE38-.LFB38
 2036 0018 00000000 		.4byte	.LFB39
 2037 001c 04000000 		.4byte	.LFE39-.LFB39
 2038 0020 00000000 		.4byte	.LFB70
 2039 0024 08000000 		.4byte	.LFE70-.LFB70
 2040 0028 00000000 		.4byte	.LFB71
 2041 002c 08000000 		.4byte	.LFE71-.LFB71
 2042 0030 00000000 		.4byte	.LFB119
 2043 0034 20000000 		.4byte	.LFE119-.LFB119
 2044 0038 00000000 		.4byte	.LFB120
 2045 003c 2C000000 		.4byte	.LFE120-.LFB120
 2046 0040 00000000 		.4byte	0
 2047 0044 00000000 		.4byte	0
 2048              		.section	.debug_ranges,"",%progbits
 2049              	.Ldebug_ranges0:
 2050 0000 00000000 		.4byte	.LFB38
 2051 0004 04000000 		.4byte	.LFE38
 2052 0008 00000000 		.4byte	.LFB39
 2053 000c 04000000 		.4byte	.LFE39
ARM GAS  /tmp/cc7O25sm.s 			page 60


 2054 0010 00000000 		.4byte	.LFB70
 2055 0014 08000000 		.4byte	.LFE70
 2056 0018 00000000 		.4byte	.LFB71
 2057 001c 08000000 		.4byte	.LFE71
 2058 0020 00000000 		.4byte	.LFB119
 2059 0024 20000000 		.4byte	.LFE119
 2060 0028 00000000 		.4byte	.LFB120
 2061 002c 2C000000 		.4byte	.LFE120
 2062 0030 00000000 		.4byte	0
 2063 0034 00000000 		.4byte	0
 2064              		.section	.debug_line,"",%progbits
 2065              	.Ldebug_line0:
 2066 0000 7C020000 		.section	.debug_str,"MS",%progbits,1
 2066      0200E801 
 2066      00000201 
 2066      FB0E0D00 
 2066      01010101 
 2067              	.LASF42:
 2068 0000 63685F74 		.ascii	"ch_threads_list\000"
 2068      68726561 
 2068      64735F6C 
 2068      69737400 
 2069              	.LASF43:
 2070 0010 74687265 		.ascii	"threads_queue_t\000"
 2070      6164735F 
 2070      71756575 
 2070      655F7400 
 2071              	.LASF36:
 2072 0020 705F7761 		.ascii	"p_waiting\000"
 2072      6974696E 
 2072      6700
 2073              	.LASF83:
 2074 002a 77746D74 		.ascii	"wtmtxp\000"
 2074      787000
 2075              	.LASF91:
 2076 0031 63686172 		.ascii	"char\000"
 2076      00
 2077              	.LASF74:
 2078 0036 72656761 		.ascii	"regarm_t\000"
 2078      726D5F74 
 2078      00
 2079              	.LASF29:
 2080 003f 705F7072 		.ascii	"p_prio\000"
 2080      696F00
 2081              	.LASF25:
 2082 0046 73797374 		.ascii	"systime_t\000"
 2082      696D655F 
 2082      7400
 2083              	.LASF102:
 2084 0050 63665F6F 		.ascii	"cf_off_older\000"
 2084      66665F6F 
 2084      6C646572 
 2084      00
 2085              	.LASF118:
 2086 005d 63685265 		.ascii	"chRegNextThread\000"
 2086      674E6578 
 2086      74546872 
ARM GAS  /tmp/cc7O25sm.s 			page 61


 2086      65616400 
 2087              	.LASF89:
 2088 006d 6D5F6F77 		.ascii	"m_owner\000"
 2088      6E657200 
 2089              	.LASF85:
 2090 0075 735F7175 		.ascii	"s_queue\000"
 2090      65756500 
 2091              	.LASF0:
 2092 007d 756E7369 		.ascii	"unsigned int\000"
 2092      676E6564 
 2092      20696E74 
 2092      00
 2093              	.LASF40:
 2094 008a 74687265 		.ascii	"threads_list_t\000"
 2094      6164735F 
 2094      6C697374 
 2094      5F7400
 2095              	.LASF8:
 2096 0099 5F5F696E 		.ascii	"__int32_t\000"
 2096      7433325F 
 2096      7400
 2097              	.LASF103:
 2098 00a3 63665F6F 		.ascii	"cf_off_name\000"
 2098      66665F6E 
 2098      616D6500 
 2099              	.LASF80:
 2100 00af 77746F62 		.ascii	"wtobjp\000"
 2100      6A7000
 2101              	.LASF114:
 2102 00b6 706F7274 		.ascii	"port_lock\000"
 2102      5F6C6F63 
 2102      6B00
 2103              	.LASF70:
 2104 00c0 76746C69 		.ascii	"vtlist\000"
 2104      737400
 2105              	.LASF46:
 2106 00c7 63685F72 		.ascii	"ch_ready_list\000"
 2106      65616479 
 2106      5F6C6973 
 2106      7400
 2107              	.LASF72:
 2108 00d5 69646C65 		.ascii	"idle_thread_wa\000"
 2108      5F746872 
 2108      6561645F 
 2108      776100
 2109              	.LASF106:
 2110 00e4 63665F6F 		.ascii	"cf_off_flags\000"
 2110      66665F66 
 2110      6C616773 
 2110      00
 2111              	.LASF44:
 2112 00f1 63685F74 		.ascii	"ch_threads_queue\000"
 2112      68726561 
 2112      64735F71 
 2112      75657565 
 2112      00
 2113              	.LASF96:
ARM GAS  /tmp/cc7O25sm.s 			page 62


 2114 0102 63685F70 		.ascii	"ch_ptrsize\000"
 2114      74727369 
 2114      7A6500
 2115              	.LASF53:
 2116 010d 76746675 		.ascii	"vtfunc_t\000"
 2116      6E635F74 
 2116      00
 2117              	.LASF86:
 2118 0116 735F636E 		.ascii	"s_cnt\000"
 2118      7400
 2119              	.LASF65:
 2120 011c 63685F73 		.ascii	"ch_system_debug\000"
 2120      79737465 
 2120      6D5F6465 
 2120      62756700 
 2121              	.LASF18:
 2122 012c 75696E74 		.ascii	"uint32_t\000"
 2122      33325F74 
 2122      00
 2123              	.LASF97:
 2124 0135 63685F74 		.ascii	"ch_timesize\000"
 2124      696D6573 
 2124      697A6500 
 2125              	.LASF48:
 2126 0141 725F7072 		.ascii	"r_prio\000"
 2126      696F00
 2127              	.LASF60:
 2128 0148 76745F70 		.ascii	"vt_par\000"
 2128      617200
 2129              	.LASF84:
 2130 014f 63685F73 		.ascii	"ch_semaphore\000"
 2130      656D6170 
 2130      686F7265 
 2130      00
 2131              	.LASF22:
 2132 015c 74707269 		.ascii	"tprio_t\000"
 2132      6F5F7400 
 2133              	.LASF55:
 2134 0164 63685F76 		.ascii	"ch_virtual_timer\000"
 2134      69727475 
 2134      616C5F74 
 2134      696D6572 
 2134      00
 2135              	.LASF14:
 2136 0175 6C6F6E67 		.ascii	"long long unsigned int\000"
 2136      206C6F6E 
 2136      6720756E 
 2136      7369676E 
 2136      65642069 
 2137              	.LASF6:
 2138 018c 5F5F7569 		.ascii	"__uint16_t\000"
 2138      6E743136 
 2138      5F7400
 2139              	.LASF24:
 2140 0197 636E745F 		.ascii	"cnt_t\000"
 2140      7400
 2141              	.LASF116:
ARM GAS  /tmp/cc7O25sm.s 			page 63


 2142 019d 63685379 		.ascii	"chSysUnlock\000"
 2142      73556E6C 
 2142      6F636B00 
 2143              	.LASF31:
 2144 01a9 705F6E65 		.ascii	"p_newer\000"
 2144      77657200 
 2145              	.LASF62:
 2146 01b1 63685F76 		.ascii	"ch_virtual_timers_list\000"
 2146      69727475 
 2146      616C5F74 
 2146      696D6572 
 2146      735F6C69 
 2147              	.LASF26:
 2148 01c8 74687265 		.ascii	"thread_t\000"
 2148      61645F74 
 2148      00
 2149              	.LASF2:
 2150 01d1 73697A65 		.ascii	"size_t\000"
 2150      5F7400
 2151              	.LASF78:
 2152 01d8 7264796D 		.ascii	"rdymsg\000"
 2152      736700
 2153              	.LASF98:
 2154 01df 63685F74 		.ascii	"ch_threadsize\000"
 2154      68726561 
 2154      6473697A 
 2154      6500
 2155              	.LASF112:
 2156 01ed 5F5F6469 		.ascii	"__disable_irq\000"
 2156      7361626C 
 2156      655F6972 
 2156      7100
 2157              	.LASF108:
 2158 01fb 63665F6F 		.ascii	"cf_off_preempt\000"
 2158      66665F70 
 2158      7265656D 
 2158      707400
 2159              	.LASF87:
 2160 020a 63685F6D 		.ascii	"ch_mutex\000"
 2160      75746578 
 2160      00
 2161              	.LASF13:
 2162 0213 5F5F7569 		.ascii	"__uint64_t\000"
 2162      6E743634 
 2162      5F7400
 2163              	.LASF122:
 2164 021e 63685379 		.ascii	"chSysLock\000"
 2164      734C6F63 
 2164      6B00
 2165              	.LASF100:
 2166 0228 63665F6F 		.ascii	"cf_off_ctx\000"
 2166      66665F63 
 2166      747800
 2167              	.LASF104:
 2168 0233 63665F6F 		.ascii	"cf_off_stklimit\000"
 2168      66665F73 
 2168      746B6C69 
ARM GAS  /tmp/cc7O25sm.s 			page 64


 2168      6D697400 
 2169              	.LASF33:
 2170 0243 705F6E61 		.ascii	"p_name\000"
 2170      6D6500
 2171              	.LASF58:
 2172 024a 76745F64 		.ascii	"vt_delta\000"
 2172      656C7461 
 2172      00
 2173              	.LASF39:
 2174 0253 74687265 		.ascii	"thread_reference_t\000"
 2174      61645F72 
 2174      65666572 
 2174      656E6365 
 2174      5F7400
 2175              	.LASF63:
 2176 0266 76745F6C 		.ascii	"vt_lasttime\000"
 2176      61737474 
 2176      696D6500 
 2177              	.LASF21:
 2178 0272 74737461 		.ascii	"tstate_t\000"
 2178      74655F74 
 2178      00
 2179              	.LASF32:
 2180 027b 705F6F6C 		.ascii	"p_older\000"
 2180      64657200 
 2181              	.LASF34:
 2182 0283 705F7374 		.ascii	"p_state\000"
 2182      61746500 
 2183              	.LASF15:
 2184 028b 75696E74 		.ascii	"uint8_t\000"
 2184      385F7400 
 2185              	.LASF37:
 2186 0293 705F6D74 		.ascii	"p_mtxlist\000"
 2186      786C6973 
 2186      7400
 2187              	.LASF41:
 2188 029d 63685F74 		.ascii	"ch_thread\000"
 2188      68726561 
 2188      6400
 2189              	.LASF64:
 2190 02a7 73797374 		.ascii	"system_debug_t\000"
 2190      656D5F64 
 2190      65627567 
 2190      5F7400
 2191              	.LASF12:
 2192 02b6 6C6F6E67 		.ascii	"long long int\000"
 2192      206C6F6E 
 2192      6720696E 
 2192      7400
 2193              	.LASF47:
 2194 02c4 725F7175 		.ascii	"r_queue\000"
 2194      65756500 
 2195              	.LASF50:
 2196 02cc 725F6E65 		.ascii	"r_newer\000"
 2196      77657200 
 2197              	.LASF23:
 2198 02d4 6D73675F 		.ascii	"msg_t\000"
ARM GAS  /tmp/cc7O25sm.s 			page 65


 2198      7400
 2199              	.LASF76:
 2200 02da 636F6E74 		.ascii	"context\000"
 2200      65787400 
 2201              	.LASF35:
 2202 02e2 705F666C 		.ascii	"p_flags\000"
 2202      61677300 
 2203              	.LASF54:
 2204 02ea 76697274 		.ascii	"virtual_timer_t\000"
 2204      75616C5F 
 2204      74696D65 
 2204      725F7400 
 2205              	.LASF107:
 2206 02fa 63665F6F 		.ascii	"cf_off_refs\000"
 2206      66665F72 
 2206      65667300 
 2207              	.LASF93:
 2208 0306 63685F7A 		.ascii	"ch_zero\000"
 2208      65726F00 
 2209              	.LASF123:
 2210 030e 5F5F6675 		.ascii	"__func__.4864\000"
 2210      6E635F5F 
 2210      2E343836 
 2210      3400
 2211              	.LASF120:
 2212 031c 474E5520 		.ascii	"GNU C 4.8.4 20141219 (release) -mcpu=cortex-m0 -mno"
 2212      4320342E 
 2212      382E3420 
 2212      32303134 
 2212      31323139 
 2213 034f 2D746875 		.ascii	"-thumb-interwork -mthumb -ggdb -O0 -fomit-frame-poi"
 2213      6D622D69 
 2213      6E746572 
 2213      776F726B 
 2213      202D6D74 
 2214 0382 6E746572 		.ascii	"nter -falign-functions=16 -ffunction-sections -fdat"
 2214      202D6661 
 2214      6C69676E 
 2214      2D66756E 
 2214      6374696F 
 2215 03b5 612D7365 		.ascii	"a-sections -fno-common -flto\000"
 2215      6374696F 
 2215      6E73202D 
 2215      666E6F2D 
 2215      636F6D6D 
 2216              	.LASF51:
 2217 03d2 725F6F6C 		.ascii	"r_older\000"
 2217      64657200 
 2218              	.LASF66:
 2219 03da 70616E69 		.ascii	"panic_msg\000"
 2219      635F6D73 
 2219      6700
 2220              	.LASF20:
 2221 03e4 746D6F64 		.ascii	"tmode_t\000"
 2221      655F7400 
 2222              	.LASF94:
 2223 03ec 63685F73 		.ascii	"ch_size\000"
ARM GAS  /tmp/cc7O25sm.s 			page 66


 2223      697A6500 
 2224              	.LASF71:
 2225 03f4 6D61696E 		.ascii	"mainthread\000"
 2225      74687265 
 2225      616400
 2226              	.LASF16:
 2227 03ff 75696E74 		.ascii	"uint16_t\000"
 2227      31365F74 
 2227      00
 2228              	.LASF110:
 2229 0408 63686465 		.ascii	"chdebug_t\000"
 2229      6275675F 
 2229      7400
 2230              	.LASF38:
 2231 0412 705F7265 		.ascii	"p_realprio\000"
 2231      616C7072 
 2231      696F00
 2232              	.LASF95:
 2233 041d 63685F76 		.ascii	"ch_version\000"
 2233      65727369 
 2233      6F6E00
 2234              	.LASF5:
 2235 0428 73686F72 		.ascii	"short int\000"
 2235      7420696E 
 2235      7400
 2236              	.LASF52:
 2237 0432 725F6375 		.ascii	"r_current\000"
 2237      7272656E 
 2237      7400
 2238              	.LASF88:
 2239 043c 6D5F7175 		.ascii	"m_queue\000"
 2239      65756500 
 2240              	.LASF9:
 2241 0444 6C6F6E67 		.ascii	"long int\000"
 2241      20696E74 
 2241      00
 2242              	.LASF77:
 2243 044d 706F7274 		.ascii	"port_intctx\000"
 2243      5F696E74 
 2243      63747800 
 2244              	.LASF113:
 2245 0459 5F5F656E 		.ascii	"__enable_irq\000"
 2245      61626C65 
 2245      5F697271 
 2245      00
 2246              	.LASF68:
 2247 0466 63685F73 		.ascii	"ch_system\000"
 2247      79737465 
 2247      6D00
 2248              	.LASF27:
 2249 0470 705F6E65 		.ascii	"p_next\000"
 2249      787400
 2250              	.LASF19:
 2251 0477 75696E74 		.ascii	"uint64_t\000"
 2251      36345F74 
 2251      00
 2252              	.LASF30:
ARM GAS  /tmp/cc7O25sm.s 			page 67


 2253 0480 705F6374 		.ascii	"p_ctx\000"
 2253      7800
 2254              	.LASF69:
 2255 0486 726C6973 		.ascii	"rlist\000"
 2255      7400
 2256              	.LASF109:
 2257 048c 63665F6F 		.ascii	"cf_off_time\000"
 2257      66665F74 
 2257      696D6500 
 2258              	.LASF121:
 2259 0498 2F686F6D 		.ascii	"/home/efe/ChibiOS/os/rt/src/chregistry.c\000"
 2259      652F6566 
 2259      652F4368 
 2259      6962694F 
 2259      532F6F73 
 2260              	.LASF99:
 2261 04c1 63665F6F 		.ascii	"cf_off_prio\000"
 2261      66665F70 
 2261      72696F00 
 2262              	.LASF3:
 2263 04cd 5F5F7569 		.ascii	"__uint8_t\000"
 2263      6E74385F 
 2263      7400
 2264              	.LASF92:
 2265 04d7 63685F69 		.ascii	"ch_identifier\000"
 2265      64656E74 
 2265      69666965 
 2265      7200
 2266              	.LASF28:
 2267 04e5 705F7072 		.ascii	"p_prev\000"
 2267      657600
 2268              	.LASF73:
 2269 04ec 73697A65 		.ascii	"sizetype\000"
 2269      74797065 
 2269      00
 2270              	.LASF11:
 2271 04f5 6C6F6E67 		.ascii	"long unsigned int\000"
 2271      20756E73 
 2271      69676E65 
 2271      6420696E 
 2271      7400
 2272              	.LASF105:
 2273 0507 63665F6F 		.ascii	"cf_off_state\000"
 2273      66665F73 
 2273      74617465 
 2273      00
 2274              	.LASF45:
 2275 0514 72656164 		.ascii	"ready_list_t\000"
 2275      795F6C69 
 2275      73745F74 
 2275      00
 2276              	.LASF17:
 2277 0521 696E7433 		.ascii	"int32_t\000"
 2277      325F7400 
 2278              	.LASF82:
 2279 0529 77747365 		.ascii	"wtsemp\000"
 2279      6D7000
ARM GAS  /tmp/cc7O25sm.s 			page 68


 2280              	.LASF111:
 2281 0530 6D757465 		.ascii	"mutex_t\000"
 2281      785F7400 
 2282              	.LASF4:
 2283 0538 756E7369 		.ascii	"unsigned char\000"
 2283      676E6564 
 2283      20636861 
 2283      7200
 2284              	.LASF10:
 2285 0546 5F5F7569 		.ascii	"__uint32_t\000"
 2285      6E743332 
 2285      5F7400
 2286              	.LASF61:
 2287 0551 76697274 		.ascii	"virtual_timers_list_t\000"
 2287      75616C5F 
 2287      74696D65 
 2287      72735F6C 
 2287      6973745F 
 2288              	.LASF117:
 2289 0567 63685265 		.ascii	"chRegFirstThread\000"
 2289      67466972 
 2289      73745468 
 2289      72656164 
 2289      00
 2290              	.LASF56:
 2291 0578 76745F6E 		.ascii	"vt_next\000"
 2291      65787400 
 2292              	.LASF67:
 2293 0580 63685F73 		.ascii	"ch_system_t\000"
 2293      79737465 
 2293      6D5F7400 
 2294              	.LASF81:
 2295 058c 77747472 		.ascii	"wttrp\000"
 2295      7000
 2296              	.LASF90:
 2297 0592 6D5F6E65 		.ascii	"m_next\000"
 2297      787400
 2298              	.LASF1:
 2299 0599 7369676E 		.ascii	"signed char\000"
 2299      65642063 
 2299      68617200 
 2300              	.LASF101:
 2301 05a5 63665F6F 		.ascii	"cf_off_newer\000"
 2301      66665F6E 
 2301      65776572 
 2301      00
 2302              	.LASF7:
 2303 05b2 73686F72 		.ascii	"short unsigned int\000"
 2303      7420756E 
 2303      7369676E 
 2303      65642069 
 2303      6E7400
 2304              	.LASF49:
 2305 05c5 725F6374 		.ascii	"r_ctx\000"
 2305      7800
 2306              	.LASF75:
 2307 05cb 73746B61 		.ascii	"stkalign_t\000"
ARM GAS  /tmp/cc7O25sm.s 			page 69


 2307      6C69676E 
 2307      5F7400
 2308              	.LASF119:
 2309 05d6 63685F64 		.ascii	"ch_debug\000"
 2309      65627567 
 2309      00
 2310              	.LASF59:
 2311 05df 76745F66 		.ascii	"vt_func\000"
 2311      756E6300 
 2312              	.LASF115:
 2313 05e7 706F7274 		.ascii	"port_unlock\000"
 2313      5F756E6C 
 2313      6F636B00 
 2314              	.LASF57:
 2315 05f3 76745F70 		.ascii	"vt_prev\000"
 2315      72657600 
 2316              	.LASF79:
 2317 05fb 65786974 		.ascii	"exitcode\000"
 2317      636F6465 
 2317      00
 2318              		.comm	__gnu_lto_v1,1,1
 2319              		.ident	"GCC: (4.8.4-1+11-1) 4.8.4 20141219 (release)"
ARM GAS  /tmp/cc7O25sm.s 			page 70


DEFINED SYMBOLS
                            *ABS*:0000000000000000 chregistry.c
     /tmp/cc7O25sm.s:394    .text.port_lock:0000000000000000 $t
     /tmp/cc7O25sm.s:399    .text.port_lock:0000000000000000 port_lock
     /tmp/cc7O25sm.s:421    .text.port_unlock:0000000000000000 $t
     /tmp/cc7O25sm.s:426    .text.port_unlock:0000000000000000 port_unlock
     /tmp/cc7O25sm.s:446    .text.chSysLock:0000000000000000 $t
     /tmp/cc7O25sm.s:451    .text.chSysLock:0000000000000000 chSysLock
     /tmp/cc7O25sm.s:469    .text.chSysUnlock:0000000000000000 $t
     /tmp/cc7O25sm.s:474    .text.chSysUnlock:0000000000000000 chSysUnlock
     /tmp/cc7O25sm.s:495    .rodata.ch_debug:0000000000000000 ch_debug
     /tmp/cc7O25sm.s:492    .rodata.ch_debug:0000000000000000 $d
     /tmp/cc7O25sm.s:518    .text.chRegFirstThread:0000000000000000 $t
     /tmp/cc7O25sm.s:524    .text.chRegFirstThread:0000000000000000 chRegFirstThread
     /tmp/cc7O25sm.s:552    .text.chRegFirstThread:000000000000001c $d
     /tmp/cc7O25sm.s:557    .text.chRegNextThread:0000000000000000 $t
     /tmp/cc7O25sm.s:563    .text.chRegNextThread:0000000000000000 chRegNextThread
     /tmp/cc7O25sm.s:600    .text.chRegNextThread:0000000000000028 $d
                            *COM*:0000000000000001 __gnu_lto_v1
                     .debug_frame:0000000000000010 $d
     /tmp/cc7O25sm.s:604    .text.chRegNextThread:000000000000002c $t

UNDEFINED SYMBOLS
ch
