ARM GAS  /tmp/ccUb86vt.s 			page 1


   1              		.cpu cortex-m0
   2              		.fpu softvfp
   3              		.eabi_attribute 20, 1
   4              		.eabi_attribute 21, 1
   5              		.eabi_attribute 23, 3
   6              		.eabi_attribute 24, 1
   7              		.eabi_attribute 25, 1
   8              		.eabi_attribute 26, 1
   9              		.eabi_attribute 30, 6
  10              		.eabi_attribute 34, 0
  11              		.eabi_attribute 18, 4
  12              		.code	16
  13              		.file	"chschd.c"
  14              		.text
  15              	.Ltext0:
  16              		.section	.gnu.lto_.inline.3b0180d7713fbc36,"",%progbits
  17 0000 789C6D91 		.ascii	"x\234m\221=n\0021\020\205\337z\275``\263?\374\205\237"
  17      3D6E0231 
  17      1085DF7A 
  17      BD6060B3 
  17      3FFC859F 
  18 0014 8D224588 		.ascii	"\215\"E\210\006\0047\340\010\334\204#D\312\001((()\350"
  18      060437E0 
  18      08DC8423 
  18      44CA0128 
  18      282829E8 
  19 0028 D35022D1 		.ascii	"\323P\"\321lAEEM\225:\025G\310`\342]Yc\027O\343Oo\306"
  19      6C414545 
  19      4D953A15 
  19      47C860E2 
  19      5D596317 
  20 0041 F3640101 		.ascii	"\363d\001\001\327\331\376\343\014\220> \344}\006\371"
  20      D7D9FEE3 
  20      0C903E20 
  20      E47D06F9 
  21 0051 F47A8C08 		.ascii	"\364z\214\010\310\220T\354\337\013O\235\304wc\211@\022"
  21      C89054EC 
  21      DF0B4F9D 
  21      C4776389 
  21      4012
  22 0063 AEE40B83 		.ascii	"\256\344\013\203\003\250*\221\360\2602\244\352nUn\\"
  22      03A82A91 
  22      F0B032A4 
  22      EA6E556E 
  22      5C
  23 0074 6313EBA8 		.ascii	"c\023\353\250\004D\324fiH\003*\261\211h\220\204Hb*\263"
  23      0444D466 
  23      6948032A 
  23      B1896890 
  23      8448622A 
  24 0089 C3AF67F8 		.ascii	"\303\257g\370\013j\212P\364\365iH\304\366\213\031IX"
  24      0B6A8A50 
  24      F4F56948 
  24      C4F68B19 
  24      4958
  25 009b 57CA7668 		.ascii	"W\312vh2\322B\034\021\031\374\334\212\347\333x\273<"
  25      32D2421C 
ARM GAS  /tmp/ccUb86vt.s 			page 2


  25      1119FCDC 
  25      8AE7DB78 
  25      BB3C
  26 00ad B61BDDBF 		.ascii	"\266\033\335\277=+\245\336\267\024\315\264t\220~\020"
  26      3D2BA5DE 
  26      B714CDB4 
  26      74907E10 
  27 00bd 6CEE7745 		.ascii	"l\356wE\203\037\032\351\242w~\264$\327\265g%\327\242"
  27      831F1AE9 
  27      A2777EB4 
  27      24D7B567 
  27      25D7A2
  28 00d0 2DBA0A68 		.ascii	"-\272\012h\017\274\2423\247{7?9&i[\217\005\357#\235"
  28      0FBCA233 
  28      A77B373F 
  28      3926695B 
  28      8F05EF23 
  29 00e5 D8C14BB7 		.ascii	"\330\301K\267\256\006\030N\351>\316\217\202\017\035"
  29      AE06184E 
  29      E93ECE8F 
  29      820F1D
  30 00f4 42F5EDAF 		.ascii	"B\365\355\257+\263f\356\337\306\037G2(s"
  30      2BB366EE 
  30      DFC61F47 
  30      322873
  31              		.text
  32              		.section	.gnu.lto_port_lock.3b0180d7713fbc36,"",%progbits
  33 0000 789C6362 		.ascii	"x\234cb`b@\007\"@<\035\210\253A\034f\006F\240\012F&"
  33      60624007 
  33      22403C1D 
  33      88AB411C 
  33      660646A0 
  34 0017 46462087 		.ascii	"FF \207\221\241\236\211\261>\222\021\254l=\323\201\007"
  34      91A19E89 
  34      B13E9211 
  34      AC6C3DD3 
  34      8107
  35 0029 FFFFAFDB 		.ascii	"\377\377\257\3332m\331\035\306\233L 1V\206\226\206\206"
  35      326DD91D 
  35      C69B4C20 
  35      31568696 
  35      8686
  36 003b 090A0C0C 		.ascii	"\011\012\014\014\311`\025!`2\024\244\237\371\034C\343"
  36      C9601521 
  36      603214A4 
  36      9FF91C43 
  36      E3
  37 004c C7B71FAE 		.ascii	"\307\267\037\2561\302\225\200\031\015\007\272\317\265"
  37      31C29580 
  37      190D07BA 
  37      CFB5
  38 005a B2323024 		.ascii	"\26220$2.\004\312$3B\014\006Z\223\315\014q\227\034C"
  38      322E04CA 
  38      2433420C 
  38      065A93CD 
  38      0C71971C 
  39 006f C9DC8619 		.ascii	"\311\334\206\031\016\231P\011\206\213\014\215\017\346"
ARM GAS  /tmp/ccUb86vt.s 			page 3


  39      0E995009 
  39      868B0C8D 
  39      0FE6
  40 007d 6A4394C3 		.ascii	"jC\224\303@\010H\033H\265\221~F~n\252~jZ\252\276sFf"
  40      4008481B 
  40      48B5917E 
  40      467E6EAA 
  40      7E6A5AAA 
  41 0095 52A67FB0 		.ascii	"R\246\177\260~~\261~Q\211~A~QI\261\276c\220\257\263"
  41      7E7EB17E 
  41      51897E41 
  41      7E5149B1 
  41      BE6390AF 
  42 00aa 6F857E72 		.ascii	"o\205~rFr~Qj|\231Y\256^\006\203)V-\251\025%\372\316"
  42      46727E51 
  42      6A7C9959 
  42      AE5E0683 
  42      29562DA9 
  43 00c2 BEC19EC1 		.ascii	"\276\301\236\301\372\231y\3119\245)\251\372`-\311\271"
  43      FA9979C9 
  43      39A529A9 
  43      FA602DC9 
  43      B9
  44 00d3 6EA579C9 		.ascii	"n\245y\311@]\034\311\005\305\231)\012\231\014\354\271"
  44      405D1CC9 
  44      05C59929 
  44      0A990CEC 
  44      B9
  45 00e4 A9B9F945 		.ascii	"\251\271\371E\225\014\000?\304L\322"
  45      950C003F 
  45      C44CD2
  46              		.text
  47              		.section	.gnu.lto_port_unlock.3b0180d7713fbc36,"",%progbits
  48 0000 789C6362 		.ascii	"x\234cb`b@\007\"@<\035\210\253A\034f\006F\240\012F&"
  48      60624007 
  48      22403C1D 
  48      88AB411C 
  48      660646A0 
  49 0017 46462087 		.ascii	"FF \207\221\241\236\211\261>\222\021\254l=\323\201\007"
  49      91A19E89 
  49      B13E9211 
  49      AC6C3DD3 
  49      8107
  50 0029 FFFFAFBB 		.ascii	"\377\377\257\2736m\371\033\306[L 1V\206\226\206\206"
  50      366DF91B 
  50      C65B4C20 
  50      31568696 
  50      8686
  51 003b 090A0C0C 		.ascii	"\011\012\014\014\311`\025!`2\024\244\237\371\034C\343"
  51      C9601521 
  51      603214A4 
  51      9FF91C43 
  51      E3
  52 004c C7B7BBAE 		.ascii	"\307\267\273\2561\302\225\200\031\015\007N_\373\312"
  52      31C29580 
  52      190D074E 
  52      5FFBCA
ARM GAS  /tmp/ccUb86vt.s 			page 4


  53 005b CCC090C8 		.ascii	"\314\300\220\310\270\020(\223\314\0101\030hM63\304]"
  53      B8102893 
  53      CC083118 
  53      684D3633 
  53      C45D
  54 006d 720C2573 		.ascii	"r\014%s\033f8dB%\030.24>X\247\015Q\016\003! m \325F"
  54      1B663864 
  54      4225182E 
  54      32343E58 
  54      A70D510E 
  55 0088 FA19F9B9 		.ascii	"\372\031\371\271\251\372\251i\251\372\316\031\231I\231"
  55      A9FAA969 
  55      A9FACE19 
  55      994999
  56 0097 FEC1FAF9 		.ascii	"\376\301\372\371\305\372E%\372\005\371E%\305\372\216"
  56      C5FA4525 
  56      FA05F945 
  56      25C5FA8E 
  57 00a7 41BECEBE 		.ascii	"A\276\316\276\025\372\311\031\311\371E\251\361ef\271"
  57      15FAC919 
  57      C9F945A9 
  57      F16566B9 
  58 00b7 7A190CA6 		.ascii	"z\031\014\246X\265\244V\224\350;\373\006{\006\353g\346"
  58      58B5A456 
  58      94E83BFB 
  58      067B06EB 
  58      67E6
  59 00c9 25E794A6 		.ascii	"%\347\224\246\244\352\203\265$\347\272\225\346%\003"
  59      A4EA83B5 
  59      24E7BA95 
  59      E62503
  60 00d8 75712417 		.ascii	"uq$\027\024g\246*d2\260\347\246\346\346\027U2\000\000"
  60      1467A62A 
  60      6432B0E7 
  60      A6E6E617 
  60      55320000 
  61 00ec DC484D98 		.ascii	"\334HM\230"
  62              		.text
  63              		.section	.gnu.lto_port_lock_from_isr.3b0180d7713fbc36,"",%progbits
  64 0000 789C6362 		.ascii	"x\234cb`b@\007\"@\\\006\304& \0163\003#P\005#\023##"
  64      60624007 
  64      22405C06 
  64      C426200E 
  64      33032350 
  65 0019 90C3C850 		.ascii	"\220\303\310P\317\304X\037\311\010V\266\236\351\300"
  65      CFC4581F 
  65      C90856B6 
  65      9EE9C0
  66 0028 83FFFFD7 		.ascii	"\203\377\377\327\375\272\266\256\207\361\016\023H\214"
  66      FDBAB6AE 
  66      87F10E13 
  66      488C
  67 0036 95A1A5A1 		.ascii	"\225\241\245\241a\202\002\003C2XE\010\230\014\005\351"
  67      61820203 
  67      43325845 
  67      08980C05 
  67      E9
ARM GAS  /tmp/ccUb86vt.s 			page 5


  68 0047 673ECFD0 		.ascii	"g>\317\320\374`\1777{\"\343BFV\240`5\303\257\206\216"
  68      FC607F37 
  68      7B22E342 
  68      4656A060 
  68      35C3AF86 
  69 005c 06814C46 		.ascii	"\006\201LF\240R\210i\231 \372\"C\343\203\023\3320E\020"
  69      A0528869 
  69      9920FA22 
  69      43E38313 
  69      DA304510 
  70 0070 10029200 		.ascii	"\020\002\222\0009\322H?#?7U?5-U\3379#3)\323?X?\277X"
  70      39D2483F 
  70      233F3755 
  70      3F352D55 
  70      DF392333 
  71 008b BFA844BF 		.ascii	"\277\250D\277 \277\250\244X\3371\310\327\331\267B?9"
  71      20BFA8A4 
  71      58DF31C8 
  71      D7D9B742 
  71      3F39
  72 009d 2339BF28 		.ascii	"#9\277(5\276\314,W/\203\001\000\210\376-%"
  72      35BECC2C 
  72      572F8301 
  72      0088FE2D 
  72      25
  73              		.text
  74              		.section	.gnu.lto_port_unlock_from_isr.3b0180d7713fbc36,"",%progbits
  75 0000 789C6362 		.ascii	"x\234cb`b@\007\"@\\\006\304& \0163\003#P\005#\023##"
  75      60624007 
  75      22405C06 
  75      C426200E 
  75      33032350 
  76 0019 90C3C850 		.ascii	"\220\303\310P\317\304X\037\311\010V\266\236\351\300"
  76      CFC4581F 
  76      C90856B6 
  76      9EE9C0
  77 0028 83FFFFD7 		.ascii	"\203\377\377\327\315\273\276~\015\343]&\220\030+CKC"
  77      CDBBBE7E 
  77      0DE35D26 
  77      90182B43 
  77      4B43
  78 003a C3040506 		.ascii	"\303\004\005\006\206d\260\212\0200\031\012\322\317|"
  78      8664B08A 
  78      1030190A 
  78      D2CF7C
  79 0049 9EA1F9C1 		.ascii	"\236\241\371\301\315\323\354\211\214\013\031Y\201\202"
  79      CDD3EC89 
  79      8C0B1959 
  79      8182
  80 0057 D50CBF1A 		.ascii	"\325\014\277\032:\032\0042\031\201J!\246e\202\350\213"
  80      3A1A0432 
  80      19814A21 
  80      A66582E8 
  80      8B
  81 0068 0C8D0F6E 		.ascii	"\014\215\017ni\303\024A@\010H\002\344H#\375\214\374"
  81      69C31441 
  81      40084802 
ARM GAS  /tmp/ccUb86vt.s 			page 6


  81      E44823FD 
  81      8CFC
  82 007a DC54FDD4 		.ascii	"\334T\375\324\264T}\347\214\314\244L\377`\375\374b\375"
  82      B4547DE7 
  82      8CCCA44C 
  82      FF60FDFC 
  82      62FD
  83 008c A212FD82 		.ascii	"\242\022\375\202\374\242\222b}\307 _g\337\012\375\344"
  83      FCA29262 
  83      7DC7205F 
  83      67DF0AFD 
  83      E4
  84 009d 8CE4FCA2 		.ascii	"\214\344\374\242\324\3702\263\\\275\014\006\000\223"
  84      D4F832B3 
  84      5CBD0C06 
  84      0093
  85 00ab 062D58   		.ascii	"\006-X"
  86              		.text
  87              		.section	.gnu.lto_queue_init.3b0180d7713fbc36,"",%progbits
  88 0000 789C6362 		.ascii	"x\234cb`b@\007\"@|\032\210\265A\034f\006F\240\012F&"
  88      60624007 
  88      22407C1A 
  88      88B5411C 
  88      660646A0 
  89 0017 46462087 		.ascii	"FF \207\221\241\236\211\261>\222\021\254l=\323\201\007"
  89      91A19E89 
  89      B13E9211 
  89      AC6C3DD3 
  89      8107
  90 0029 FFFFAFFB 		.ascii	"\377\377\257\373\362\354\3051\306}\233Y\200*r\301\022"
  90      F2ECC531 
  90      C67D9B59 
  90      802A72C1 
  90      12
  91 003a AC0C2D0D 		.ascii	"\254\014-\015\015\023\024\030\030\222\301\334\0200\031"
  91      0D131418 
  91      1892C1DC 
  91      103019
  92 0049 0A3285F9 		.ascii	"\0122\205\371,C\323\351\031\357{\344\023\031\0272\262"
  92      2C43D3E9 
  92      19EF7BE4 
  92      13191732 
  92      B2
  93 005a 02CD5FD5 		.ascii	"\002\315_\325\000\004\274\231\214\014\263\031f1f22\246"
  93      0004BC99 
  93      8C0CB319 
  93      66316632 
  93      32A6
  94 006c 33324600 		.ascii	"32F\000i\210\223\222 \3260\244\203\254\006\351\334A"
  94      69889392 
  94      20D630A4 
  94      83AC06E9 
  94      DC41
  95 007e BC4E4684 		.ascii	"\274NF\204\316\213\014\215\017\200\316\203h\204\201"
  95      CE8B0C8D 
  95      0F80CE83 
  95      688481
ARM GAS  /tmp/ccUb86vt.s 			page 7


  96 008d 10900C48 		.ascii	"\020\220\014H\261\246~F~n\252~jZ\252\276sFfR\246\177"
  96      B1A67E46 
  96      7E6EAA7E 
  96      6A5AAABE 
  96      73466652 
  97 00a3 B07E7EB1 		.ascii	"\260~~\261~Q\211~f^rNiJ\252~rFqrF\212^\006\003\000\310"
  97      7E51897E 
  97      665E724E 
  97      694AAA7E 
  97      72467172 
  98 00be 703C4C   		.ascii	"p<L"
  99              		.text
 100              		.section	.gnu.lto_chSchIsRescRequiredI.3b0180d7713fbc36,"",%progbits
 101 0000 789C6362 		.ascii	"x\234cb`b@\007\322@\274\011(\254\015\342\26000\002\231"
 101      60624007 
 101      D240BC09 
 101      28AC0DE2 
 101      B0303002 
 102 0015 8C4C8CCC 		.ascii	"\214L\214\314@\222\231\221\021(\304\310P\317\304\314"
 102      40929991 
 102      1128C4C8 
 102      50CFC4CC 
 103 0025 581F0962 		.ascii	"X\037\011b3\260*1,lh\230\365`\351\263^\346\351S\016"
 103      33B02A31 
 103      2C6C6898 
 103      F560E9B3 
 103      5EE6E953 
 104 003a 342E68F8 		.ascii	"4.h\370\363\377?#c&H2\231\221!\002\310b\344\000SL\214"
 104      F3FF3F23 
 104      63264832 
 104      99912102 
 104      C862E400 
 105 0051 A8D68035 		.ascii	"\250\326\2005Nj\330\372$\340DC\313\201\377\377\3553"
 105      4E6AD8FA 
 105      24E04443 
 105      CB81FFFF 
 105      ED33
 106 0063 4176C0F4 		.ascii	"Av\300\364(@\364\260`\325\263iE\003'\330\"\346LF\026"
 106      2840F4B0 
 106      60D5B369 
 106      450327D8 
 106      22E64C46 
 107 0078 22F56C7E 		.ascii	"\"\365l~J\272={\221\364\020\264g=\323\201\007\377\377"
 107      4ABA3D7B 
 107      91F410B4 
 107      673DD381 
 107      07FFFF
 108 008b DFF9786C 		.ascii	"\337\371xl\375\032\306\235\312l\214\014@{\230\200\004"
 108      FD1AC69D 
 108      CA6C8C0C 
 108      407B9880 
 108      04
 109 009c 0B3388C5 		.ascii	"\0133\210\305\002b\2612dB\002\215\241\245\241a\202\002"
 109      0262B132 
 109      6442028D 
 109      A1A5A161 
 109      8202
ARM GAS  /tmp/ccUb86vt.s 			page 8


 110 00ae D8442008 		.ascii	"\330D \010\001\223\241\240\200f>\313\320tk\307\263^"
 110      0193A1A0 
 110      80663ECB 
 110      D0746BC7 
 110      B35E
 111 00c0 A944C665 		.ascii	"\251D\306e\214\254\014\351\214\214\332\014Z@\355`\222"
 111      8CAC0CE9 
 111      8C8CDA0C 
 111      5A40ED60 
 111      92
 112 00d1 154CB2CD 		.ascii	"\025L\262\315f\230\325\330\320 \220\311\310^\315\360"
 112      6698D5D8 
 112      D02090C9 
 112      C85ECDF0 
 113 00e1 ABA103C4 		.ascii	"\253\241\003\304\342\310\005\033\001r\026\007\3301I"
 113      E2C8051B 
 113      01721607 
 113      D83149
 114 00f0 D0C04E62 		.ascii	"\320\300Nbd\204\322\260x\006Z\020\0053\234\011l '\320"
 114      6484D2B0 
 114      78065A10 
 114      05339C09 
 114      6C2027D0 
 115 0104 40A0462E 		.ascii	"@\240F.\240e \003\230\241\032\230\021\032nm\020\203"
 115      A0652003 
 115      98A11A98 
 115      111A6E6D 
 115      1083
 116 0116 69614672 		.ascii	"iaFr\017\211.aA2\360\2028\314@\026470cwC\363\331f>\230"
 116      0F892E61 
 116      4132F082 
 116      38CC4016 
 116      34373063 
 117 0131 1656A0CB 		.ascii	"\026V\240\313\323a\306\205\202\0241\237fh\004Z\227\002"
 117      D361C685 
 117      8214319F 
 117      6668045A 
 117      9702
 118 0143 F2ED4506 		.ascii	"\362\355E\006F\270B\210\222\020\2200\310\377\232\372"
 118      46B84288 
 118      92109030 
 118      C8FF9AFA 
 119 0153 19F9B9A9 		.ascii	"\031\371\271\251\372\251i\251\372\316\031\231I\231\376"
 119      FAA969A9 
 119      FACE1999 
 119      4999FE
 120 0162 C1FAF9C5 		.ascii	"\301\372\371\305\372E%\372\231y\3119\245)\251\372\311"
 120      FA4525FA 
 120      9979C939 
 120      A529A9FA 
 120      C9
 121 0173 19C5C919 		.ascii	"\031\305\311\031)z\031\014\000<\012\226\242"
 121      297A190C 
 121      003C0A96 
 121      A2
 122              		.text
 123              		.section	.gnu.lto_chSysLockFromISR.3b0180d7713fbc36,"",%progbits
ARM GAS  /tmp/ccUb86vt.s 			page 9


 124 0000 789C6362 		.ascii	"x\234cb`b@\007\"@\\\006\304Z \0163\003#P\005#\023##"
 124      60624007 
 124      22405C06 
 124      C45A200E 
 124      33032350 
 125 0019 90C3C850 		.ascii	"\220\303\310P\317\304X\037\311\010V\266\236\351\300"
 125      CFC4581F 
 125      C90856B6 
 125      9EE9C0
 126 0028 83FFFFD7 		.ascii	"\203\377\377\327M\271\265\366\017\343\013&\220\030+"
 126      4DB9B5F6 
 126      0FE30B26 
 126      90182B
 127 0037 434B43C3 		.ascii	"CKC\303\004\005\006\206d\260\212\0200\031\012\322\317"
 127      04050686 
 127      64B08A10 
 127      30190AD2 
 127      CF
 128 0048 7C9EA1F9 		.ascii	"|\236\241\371A\317Z\356D\306\205\214\254@\301j\206_"
 128      41CF5AEE 
 128      44C6858C 
 128      AC40C16A 
 128      865F
 129 005a 0D1D0D02 		.ascii	"\015\035\015\002\231\214@\245\020\3232A\364E\206\306"
 129      998C40A5 
 129      10D33241 
 129      F44586C6 
 130 006a 07FDBA30 		.ascii	"\007\375\2720E\020\020\002\222\0009RC?#?7U?5-U\3379"
 130      45101002 
 130      92003952 
 130      433F233F 
 130      37553F35 
 131 0082 233329D3 		.ascii	"#3)\323?X?\277X\277\250D?3/9\2474%U?9\243\270\262X/"
 131      3F583FBF 
 131      58BFA844 
 131      3F332F39 
 131      A7342555 
 132 009d 830100C5 		.ascii	"\203\001\000\305\202)\271"
 132      8229B9
 133              		.text
 134              		.section	.gnu.lto_chSysUnlockFromISR.3b0180d7713fbc36,"",%progbits
 135 0000 789C6362 		.ascii	"x\234cb`b@\007\"@\\\006\304Z \0163\003#P\005#\023##"
 135      60624007 
 135      22405C06 
 135      C45A200E 
 135      33032350 
 136 0019 90C3C850 		.ascii	"\220\303\310P\317\304X\037\311\010V\266\236\351\300"
 136      CFC4581F 
 136      C90856B6 
 136      9EE9C0
 137 0028 83FFFFD7 		.ascii	"\203\377\377\327\335\271\265n\017\343k&\220\030+CKC"
 137      DDB9B56E 
 137      0FE36B26 
 137      90182B43 
 137      4B43
 138 003a C3040506 		.ascii	"\303\004\005\006\206d\260\212\0200\031\012\322\317|"
 138      8664B08A 
ARM GAS  /tmp/ccUb86vt.s 			page 10


 138      1030190A 
 138      D2CF7C
 139 0049 9EA1F9C1 		.ascii	"\236\241\371\301\256\267\334\211\214\013\031Y\201\202"
 139      AEB7DC89 
 139      8C0B1959 
 139      8182
 140 0057 D50CBF1A 		.ascii	"\325\014\277\032:\032\0042\031\201J!\246e\202\350\213"
 140      3A1A0432 
 140      19814A21 
 140      A66582E8 
 140      8B
 141 0068 0C8D0F76 		.ascii	"\014\215\017v\353\302\024A@\010H\002\344H\015\375\214"
 141      EBC21441 
 141      40084802 
 141      E4480DFD 
 141      8C
 142 0079 FCDC54FD 		.ascii	"\374\334T\375\324\264T}\347\214\314\244L\377`\375\374"
 142      D4B4547D 
 142      E78CCCA4 
 142      4CFF60FD 
 142      FC
 143 008a 62FDA212 		.ascii	"b\375\242\022\375\314\274\344\234\322\224T\375\344\214"
 143      FDCCBCE4 
 143      9CD29454 
 143      FDE48C
 144 0099 E2CA62BD 		.ascii	"\342\312b\275\014\006\000\004\340*_"
 144      0C060004 
 144      E02A5F
 145              		.text
 146              		.section	.gnu.lto_chVTIsArmedI.3b0180d7713fbc36,"",%progbits
 147 0000 789C6362 		.ascii	"x\234cb`b@\007\322@\254\303\310\300\240\011\342\260"
 147      60624007 
 147      D240ACC3 
 147      C8C0A009 
 147      E2B0
 148 0012 30300255 		.ascii	"00\002U0212\003IfF\2400\003#C=\0233c}$\210\315\300\244"
 148      30323132 
 148      03496646 
 148      A0300323 
 148      433D1333 
 149 002d C4B0B0A1 		.ascii	"\304\260\260\241a\326\203\326\177\263\304\273\0364L"
 149      61D683D6 
 149      7FB3C4BB 
 149      1E344C
 150 003c 68F8F7FF 		.ascii	"h\370\367\377?c&H*\231\221!\002\310b\344\000SL\214\250"
 150      3F632648 
 150      2A999121 
 150      02C862E4 
 150      00534C8C 
 151 0051 9680B54D 		.ascii	"\226\200\265Mj\270\371$\340DC\313\201\377\377\3553A"
 151      6AB8F924 
 151      E04443CB 
 151      81FFFFED 
 151      3341
 152 0063 36C0F428 		.ascii	"6\300\364(@\364\260\240\352Y\317t\340\301\377\377g\366"
 152      40F4B0A0 
 152      EA59CF74 
ARM GAS  /tmp/ccUb86vt.s 			page 11


 152      E0C1FFFF 
 152      67F6
 153 0075 EE7DFC93 		.ascii	"\356}\374\223Q\224\205\2211\227\021\350z\240>f\006\260"
 153      51948591 
 153      319711E8 
 153      7AA03E66 
 153      06B0
 154 0087 850CAC0C 		.ascii	"\205\014\254\014-\015\015\023\024\300\306\000A\010\230"
 154      2D0D0D13 
 154      14C0C600 
 154      410898
 155 0096 0C05B99F 		.ascii	"\014\005\271\237\371,C\323\255\031\377\0361%2.fdeHg"
 155      F92C43D3 
 155      AD19FF1E 
 155      3125322E 
 155      66646548 
 156 00ab 64D266D0 		.ascii	"d\322f\320\312dd\231\3150\013h\017k:##\310>6\260-Ip"
 156      CA646499 
 156      CD300B68 
 156      0F6B3A23 
 156      23C83E36 
 157 00c3 979E6568 		.ascii	"\227\236eh\276\321\314\007\323\302\014\324\005R\005"
 157      BED1CC07 
 157      D3C20CD4 
 157      055205
 158 00d2 775428C8 		.ascii	"wT(\310\305\314\247\031\0329\030\030R@!s\221\201\021"
 158      C5CCA719 
 158      1A391818 
 158      52402173 
 158      918111
 159 00e5 AE18A224 		.ascii	"\256\030\242$\004$\014\012au\375\214\374\334T\375\324"
 159      04240C0A 
 159      6175FD8C 
 159      FCDC54FD 
 159      D4
 160 00f6 B4547DE7 		.ascii	"\264T}\347\214\314\244L\377`\375\374b\375\242\022\375"
 160      8CCCA44C 
 160      FF60FDFC 
 160      62FDA212 
 160      FD
 161 0107 CCBCE49C 		.ascii	"\314\274\344\234\322\224T\375\344\214\262\022\275\014"
 161      D29454FD 
 161      E48CB212 
 161      BD0C
 162 0115 06000FE4 		.ascii	"\006\000\017\344J\354"
 162      4AEC
 163              		.text
 164              		.section	.gnu.lto_chSemFastSignalI.3b0180d7713fbc36,"",%progbits
 165 0000 789C6362 		.ascii	"x\234cb`b@\007\"@\354\307\310\300\240\005\342030\002"
 165      60624007 
 165      2240ECC7 
 165      C8C0A005 
 165      E2303330 
 166 0015 55303231 		.ascii	"U021\002\005\030\030\031\352\231\030\353#AL\006&%\206"
 166      02051818 
 166      19EA9918 
 166      EB23414C 
ARM GAS  /tmp/ccUb86vt.s 			page 12


 166      06262586 
 167 0029 850D0D13 		.ascii	"\205\015\015\023\036\034]\266R\262kA\323\204\206\177"
 167      1E1C5DB6 
 167      52B26B41 
 167      D384867F 
 168 0039 FFFF3366 		.ascii	"\377\3773f\202\244\222\031\031\"\200,F\0050\305\304"
 168      82A49219 
 168      1922802C 
 168      460530C5 
 168      C4
 169 004a 826A3A44 		.ascii	"\202j:D[\303\316'\001'\032Z\016\374\377oO\204\236\365"
 169      5BC3CE27 
 169      01271A5A 
 169      0EFCFF6F 
 169      4F849EF5 
 170 005e 4C071EFC 		.ascii	"L\007\036\374\377\377\346\342\216\307\263\031\205X\030"
 170      FFFFE6E2 
 170      8EC7B319 
 170      855818
 171 006d 19731981 		.ascii	"\031s\031\201\316\006\352cf\000kf`eh\001\232\251\000"
 171      CE06EA63 
 171      66006B66 
 171      60656801 
 171      9AA900
 172 0080 36060842 		.ascii	"6\006\010B\300d(\310\341\314g\031\232n\335X\246\231"
 172      C06428C8 
 172      E1CC6719 
 172      9A6EDD58 
 172      A699
 173 0092 C8B89891 		.ascii	"\310\270\230\221\225!\235\221I\233A+\223\221y6\303,"
 173      95219D91 
 173      499B412B 
 173      93917936 
 173      C32C
 174 00a4 A0352CE9 		.ascii	"\2405,\351\214\214 \353X\301\226$1\302\254;\313\320"
 174      8C8C20EB 
 174      58C19624 
 174      31C2AC3B 
 174      CBD0
 175 00b6 DCD15C04 		.ascii	"\334\321\\\004\323\302\014\324\005R\305\314\010\226"
 175      D3C20CD4 
 175      0552C5CC 
 175      0896
 176 00c4 6AF28448 		.ascii	"j\362\204Hh3\254j\000\002n\002\246\001\36530\\dh|0["
 176      6833AC6A 
 176      00026E02 
 176      A601F533 
 176      305C6468 
 177 00db 15A20F06 		.ascii	"\025\242\017\006B@!\012\012|\015\375\214\374\334T\375"
 177      4240210A 
 177      0A7C0DFD 
 177      8CFCDC54 
 177      FD
 178 00ec D4B4547D 		.ascii	"\324\264T}\347\214\314\244L\377`\375\374b\375\242\022"
 178      E78CCCA4 
 178      4CFF60FD 
 178      FC62FDA2 
ARM GAS  /tmp/ccUb86vt.s 			page 13


 178      12
 179 00fd FDCCBCE4 		.ascii	"\375\314\274\344\234\322\224T\375\344\214\342\324\\"
 179      9CD29454 
 179      FDE48CE2 
 179      D45C
 180 010b BD0C0600 		.ascii	"\275\014\006\000\211ZS:"
 180      895A533A 
 181              		.text
 182              		.section	.gnu.lto__scheduler_init.3b0180d7713fbc36,"",%progbits
 183 0000 789C6362 		.ascii	"x\234cb`b@\007\"@\314\017\024V\007q\230\031\030\201"
 183      60624007 
 183      2240CC0F 
 183      14560771 
 183      98191881 
 184 0014 4C462646 		.ascii	"LF&FF \207\221\241\236\211\261>\222\021\254l=\323\201"
 184      46208791 
 184      A19E89B1 
 184      3E9211AC 
 184      6C3DD381 
 185 0028 07FFFFAF 		.ascii	"\007\377\377\257\233\3246o\016\343L&\220\030+CKC\303"
 185      9BD4366F 
 185      0EE34C26 
 185      90182B43 
 185      4B43C3
 186 003b 04050686 		.ascii	"\004\005\006\206d\260\212\0200\031\012\322\317|\236"
 186      64B08A10 
 186      30190AD2 
 186      CF7C9E
 187 004a A1E541F7 		.ascii	"\241\345A\367b\366D\306\205\214\254@\301j\206_\015\035"
 187      62F644C6 
 187      858CAC40 
 187      C16A865F 
 187      0D1D
 188 005c 0D02998C 		.ascii	"\015\002\231\214@\245\020\323@\"\034\231\214\214\332"
 188      40A510D3 
 188      40221C99 
 188      8C8CDA
 189 006b 0CAB1A80 		.ascii	"\014\253\032\200 >\223\221\011\312\014\316dd\316edH"
 189      203E9391 
 189      09CA0CCE 
 189      6464CE65 
 189      6448
 190 007d 82A803D2 		.ascii	"\202\250\003\322\020\006\324\250LF\026\006\206\263\014"
 190      1006D4A8 
 190      4C461606 
 190      86B30C
 191 008c 4D3B663C 		.ascii	"M;f<\276\301\004\021\203\3523\317dd\2052\271\201F\314"
 191      BEC10411 
 191      83EA33CF 
 191      64648532 
 191      B98146CC 
 192 00a0 6698D5D8 		.ascii	"f\230\325\330\000\262\222\015n9{.\330\250\010F \023"
 192      00B2920D 
 192      6E397B2E 
 192      D8A80846 
 192      2013
 193 00b2 6A36CC0E 		.ascii	"j6\314\016H\250\200d8@\014\240\005\277\232w\367\350"
ARM GAS  /tmp/ccUb86vt.s 			page 14


 193      48A88064 
 193      38400CA0 
 193      05BF9A77 
 193      F7E8
 194 00c4 A05BC049 		.ascii	"\240[\300I\266\005\314p_w44L\005*\340\202\0325\233\021"
 194      B605CC70 
 194      5F773434 
 194      4C052AE0 
 194      821A359B 
 195 00d9 D5BF0C70 		.ascii	"\325\277\014p\373\367S\323~\026\222\354\277\310\320"
 195      FBF753D3 
 195      7E1692EC 
 195      BFC8D0
 196 00e8 F860A632 		.ascii	"\370`\2462,\366  \004\024\021\240pR\325\317\310\317"
 196      2CF62020 
 196      041411A0 
 196      7052D5CF 
 196      C8CF
 197 00fa 4DD54F4D 		.ascii	"M\325OMK\325w\316\310L\312\364\017\326\317/\326/*\321"
 197      4BD577CE 
 197      C84CCAF4 
 197      0FD6CF2F 
 197      D62F2AD1 
 198 010e 2F2E4AD6 		.ascii	"/.J\326O\316(N\316H\321Kf\000\000\353X\204["
 198      4FCE284E 
 198      CE48D14B 
 198      660000EB 
 198      58845B
 199              		.text
 200              		.section	.gnu.lto_queue_prio_insert.3b0180d7713fbc36,"",%progbits
 201 0000 789C8D52 		.ascii	"x\234\215R;K\034Q\024>\347>fwc!\2266A\014\001Q\310T"
 201      3B4B1C51 
 201      143EE73E 
 201      66776321 
 201      9636410C 
 202 0018 29828545 		.ascii	")\202\205E~@\002\272\240]t\262\331\235B6\270\366\336"
 202      7E4002BA 
 202      A05D74B2 
 202      D99D4236 
 202      B8F6DE
 203 002b 95C54242 		.ascii	"\225\305BBX$\202&\215\026A\020!U0\345\244YF%\260\351"
 203      58248226 
 203      8D164110 
 203      215530E5 
 203      A4594625 
 204 0041 92540B41 		.ascii	"\222T\013A\222B\326\265\212\220\307\344\334y\355\270"
 204      9242D6B5 
 204      8A90C7E4 
 204      DC79EDB8 
 205 0051 0EC91E98 		.ascii	"\016\311\036\230\373:\347;\337\367\335;\014\030\364"
 205      FB3AE73B 
 205      DFF7DD3B 
 205      0C18F4
 206 0060 C65DFA0C 		.ascii	"\306]\372\014\0010\2567\006 U CN#gt\254\230\244A\010"
 206      0130AE37 
 206      06205520 
 206      434E2367 
ARM GAS  /tmp/ccUb86vt.s 			page 15


 206      74AC98A4 
 207 0076 C6E3B544 		.ascii	"\306\343\265D\244R\204\025\306i\2752\247w GaW\251\215"
 207      A4528415 
 207      C669BD32 
 207      A7772047 
 207      6157A98D 
 208 008a D669BB29 		.ascii	"\326i\273)\267_8\265\035\365\313\363\020m\235\264\020"
 208      B75F38B5 
 208      1DF5CBF3 
 208      106D9DB4 
 208      10
 209 009b 66698523 		.ascii	"fi\205#\376\244\273&#\000\252\213\323\207\256\2529\236"
 209      FEA4BB26 
 209      2300AA8B 
 209      D387AEAA 
 209      399E
 210 00ad 37D537C6 		.ascii	"7\3257\306\371\271\2669\274\276\263ZW\177\210\313\326"
 210      F9B9B639 
 210      BCBEB35A 
 210      577F88CB 
 210      D6
 211 00be A2FB82FD 		.ascii	"\242\373\202\375n\034\357\"QV;\2367\330?\354\242\361"
 211      6E1CEF22 
 211      51563B9E 
 211      37D83FEC 
 211      A2F1
 212 00d0 7C5825D8 		.ascii	"|X%\330\030\214\341\177\220o\230\323\362\274\263\267"
 212      188CE17F 
 212      906F98D3 
 212      F2BCB3B7 
 213 00e0 9DAF2E0E 		.ascii	"\235\257.\016\335@\230\307\3278\012\014\027\021x\270"
 213      DD4098C7 
 213      D7380A0C 
 213      171178B8 
 214 00f0 11E12C81 		.ascii	"\021\341,\201|\033\224\301\214^ei\3409\360\325Q\256"
 214      7C1B94C1 
 214      8C5E6569 
 214      E039F0D5 
 214      51AE
 215 0102 A6547D24 		.ascii	"\246T}$(\364\325R\314\370c^?\030\377\000\253'[\355\357"
 215      28F4D552 
 215      CCF8635E 
 215      3F18FF00 
 215      AB275BED 
 216 0117 388F7B28 		.ascii	"8\217{(\241\210\274\210\341K\347u\003\235\377\362\251"
 216      A188BC88 
 216      E14BE775 
 216      039DFFF2 
 216      A9
 217 0128 EDC47931 		.ascii	"\355\304y1\001\373\212\342\036\365\177\005/I\271(\""
 217      01FB8AE2 
 217      1EF57F05 
 217      2F49B928 
 217      22
 218 0139 CE067748 		.ascii	"\316\006wH\261\200\221\003\027jg\357\1774\272\310\270"
 218      B1809103 
 218      176A67EF 
ARM GAS  /tmp/ccUb86vt.s 			page 16


 218      7F34BAC8 
 218      B8
 219 014a 33C06740 		.ascii	"3\300g@\242b\317\016\227\351\\\034\034>\322t\"\244\273"
 219      A262CF0E 
 219      97E95C1C 
 219      1C3ED274 
 219      22A4BB
 220 015d A41F2102 		.ascii	"\244\037!\002\311\011\030\267Q\306L\"\311\024QiP\375"
 220      C90918B7 
 220      51C64C22 
 220      C9145169 
 220      50FD
 221 016f 6604C9F4 		.ascii	"f\004\311\364@\2144\010\211\373V\335\216\265I\202u\357"
 221      408C3408 
 221      89FB56DD 
 221      8EB54982 
 221      75EF
 222 0181 3E4F67BE 		.ascii	">Og\276\224\243\255\363NX\023\332\036H\3326\256\333"
 222      94A3ADF3 
 222      4E5813DA 
 222      1E48DA36 
 222      AEDB
 223 0193 2E6A175A 		.ascii	".j\027Z\317\273\363&\213\272g}E<\335\004\353\2328jf"
 223      CFBBF326 
 223      8BBA677D 
 223      453CDD04 
 223      EB9A386A 
 224 01a8 FA246321 		.ascii	"\372$c!Y6 s\313\021U\256\207*\005\345CN\232\003W\250"
 224      59362073 
 224      CB1155AE 
 224      872A05E5 
 224      434E9A03 
 225 01be 2693A05C 		.ascii	"&\223\240\\\232/#\300]\376\363FR\234\371\310\217Pm\271"
 225      9A2F23C0 
 225      5DFEF346 
 225      529CF9C8 
 225      8F506DB9 
 226 01d2 B7025C14 		.ascii	"\267\002\\\0243\3721t\315m\263T^,\230\205'\005\363~"
 226      33FA3174 
 226      CD6DB354 
 226      5E2C9885 
 226      2705F37E 
 227 01e6 C95EB01F 		.ascii	"\311^\260\037L\233\345\212\271\264lV\226,\323*U\254"
 227      4C9BE58A 
 227      B9B46C56 
 227      962CD32A 
 227      55AC
 228 01f8 D2E33B16 		.ascii	"\322\343;\0260\353\351_\177\217\350\241"
 228      30EBE95F 
 228      7F8FE8A1 
 229              		.text
 230              		.section	.gnu.lto_queue_insert.3b0180d7713fbc36,"",%progbits
 231 0000 789C6362 		.ascii	"x\234cb`b@\007\"@,\017\024V\007q\230\031\030\201LF&"
 231      60624007 
 231      22402C0F 
 231      14560771 
 231      98191881 
ARM GAS  /tmp/ccUb86vt.s 			page 17


 232 0017 46462087 		.ascii	"FF \207\221\241\236\211\261>\022\304d`RbX\330\3200\351"
 232      91A19E89 
 232      B13E12C4 
 232      64605262 
 232      58D8D030 
 233 002c C1D2EF37 		.ascii	"\301\322\3577\230fN9\320\262\240\341\317\377\377\214"
 233      98664E39 
 233      D0B2A0E1 
 233      CFFFFF8C 
 234 003c 8C9920C9 		.ascii	"\214\231 \311dF\206\010 \213Q\001L1\261\240\232\017"
 234      64468608 
 234      208B5101 
 234      4C31B1A0 
 234      9A0F
 235 004e D17860EF 		.ascii	"\321x`\357\361S\013\031\033&54~\370\377\237\237\010"
 235      F1530B19 
 235      1B263534 
 235      7EF8FF9F 
 235      9F08
 236 0060 6DEB990E 		.ascii	"m\353\231\016<\370\377\177\315\356=\217_0\012\26222"
 236      3CF8FF7F 
 236      CDEE3D8F 
 236      5F300AB2 
 236      3232
 237 0072 E6323230 		.ascii	"\346220\001\011Ff\006\240f\026\006\260\011\014\254\014"
 237      01094666 
 237      06A06616 
 237      06B0090C 
 237      AC0C
 238 0084 2D0D0D13 		.ascii	"-\015\015\023\024\300f\001A\010\230\014\005y\201\371"
 238      14C06601 
 238      4108980C 
 238      057981F9 
 239 0094 2C43D3E9 		.ascii	",C\323\351\031\337?0&2.fde\320fX\325\000\004\334@m\263"
 239      19DF3F30 
 239      26322E66 
 239      6465D066 
 239      58D50004 
 240 00ac 196601AD 		.ascii	"\031f\001\255cNgd\214\2008\037\010\222\240t:H+P\347"
 240      634E6764 
 240      8C80381F 
 240      0892A074 
 240      3A482B50 
 241 00c1 AD1D406F 		.ascii	"\255\035@oBt\24632k3h\301\365\261\000\225\200\364\261"
 241      4274A633 
 241      326B3368 
 241      C1F5B100 
 241      9580F4B1 
 242 00d5 42F54135 		.ascii	"B\365A5\2024\235\274\300N\244eLP\313\230!\226\235(\207"
 242      82349DBC 
 242      C04EA465 
 242      4C50CB98 
 242      21969D28 
 243 00ea 59C5826C 		.ascii	"Y\305\202l\025v]`-\247/p\243Xe\215\254\211\005\233\277"
 243      15765D60 
 243      2DA72F70 
 243      A358658D 
ARM GAS  /tmp/ccUb86vt.s 			page 18


 243      AC89059B 
 244 00ff 1821FA7E 		.ascii	"\030!\372~|\377\201\032\"\274\004|\006\326y\221\241"
 244      7CFF811A 
 244      22BC047C 
 244      06D67991 
 244      A1
 245 0110 F1C10B65 		.ascii	"\361\301\013e\210>\030\010\001I\200\234\244\252\237"
 245      883E1808 
 245      0149809C 
 245      A4AA9F
 246 011f 919F9BAA 		.ascii	"\221\237\233\252\237\232\226\252\357\234\221\231\224"
 246      9F9A96AA 
 246      EF9C9199 
 246      94
 247 012c E91FAC9F 		.ascii	"\351\037\254\237_\254_T\242_\\\224\254\237\234Q\234"
 247      5FAC5F54 
 247      A25F5C94 
 247      AC9F9C51 
 247      9C
 248 013d 9C91A297 		.ascii	"\234\221\242\227\314\000\000\272\231\177V"
 248      CC0000BA 
 248      997F56
 249              		.text
 250              		.section	.gnu.lto_queue_fifo_remove.3b0180d7713fbc36,"",%progbits
 251 0000 789C9591 		.ascii	"x\234\225\221\261KBA\034\307\177\277\273g\005\021A\233"
 251      B14B4241 
 251      1CC77FBF 
 251      BB670511 
 251      419B
 252 0012 B4881084 		.ascii	"\264\210\020\204B\357/h\352\017hH\301h\322\247\371\034"
 252      42EF2F68 
 252      EA0F6848 
 252      C168D2A7 
 252      F91C
 253 0024 C450774F 		.ascii	"\304PwOq\210\2420\251![T\242!\202\326\266\336\026f\015"
 253      7188A230 
 253      A9215B54 
 253      A22182D6 
 253      B6DE1666 
 254 0039 6DD12444 		.ascii	"m\321$D\320\350\030\024]\277{\247\246\015Y\007\357\356"
 254      D0E81814 
 254      5DBF7BA7 
 254      A60D5907 
 254      EFEE
 255 004b DEDDEF73 		.ascii	"\336\335\357s\337\317\273\307\200\301\3176O\317\036"
 255      DFCFBBC7 
 255      80C1CF36 
 255      4FCF1E
 256 005a 2D07D48B 		.ascii	"-\007\324\213\001HSd\310\251\347\210\264\204P`\034\013"
 256      01485364 
 256      C8A9E788 
 256      B4845060 
 256      1C0B
 257 006c EBE8EEFB 		.ascii	"\353\350\356\373\241!D\265\363\"\037\331\361\241S\256"
 257      A12144B5 
 257      F3221FD9 
 257      F1A153AE 
ARM GAS  /tmp/ccUb86vt.s 			page 19


 258 007c 8B0F2911 		.ascii	"\213\017)\021Sj\323B\210\320\014}\356\300\214\321\030"
 258      536AD342 
 258      88D00C7D 
 258      EEC08CD1 
 258      18
 259 008d 0D3A073B 		.ascii	"\015:\007;\355\006\212\252(v\245\234\375+Vs\216n[\377"
 259      ED068AAA 
 259      2876A59C 
 259      FD2B5673 
 259      8E6E5BFF 
 260 00a1 C7AACEFB 		.ascii	"\307\252\316\373\315\276W\324K\025\361I\226\2041X\304"
 260      CDBE57D4 
 260      4B15F149 
 260      96843158 
 260      C4
 261 00b2 31E42573 		.ascii	"1\344%s:R\336]_<\357\342\334\004bZQQ<E?p\240#\014\325"
 261      3A52DE5D 
 261      5F3CEFE2 
 261      DC04625A 
 261      51513C45 
 262 00cc 79C075A0 		.ascii	"y\300u\240\261,D\305\247\267]'j!\267\017\253\213\344"
 262      B12C44C5 
 262      A7B75D27 
 262      6A21B70F 
 262      AB8BE4
 263 00df F7507ABA 		.ascii	"\367Pz\272\222\257\030\3053\364@\022Y\020\316\005\265"
 263      92AF18C5 
 263      33F44012 
 263      5910CE05 
 263      B5
 264 00f0 0DE24FA0 		.ascii	"\015\342O\240F\371<\211\250<\264F\014\373\036\212|\243"
 264      46F93C89 
 264      A83CB446 
 264      0CFB1E8A 
 264      7CA3
 265 0102 5BEE933C 		.ascii	"[\356\223<\010\201\001\344\241\223\"\372\326]\010\277"
 265      088101E4 
 265      A19322FA 
 265      D65D08BF 
 266 0112 A1567752 		.ascii	"\241VwR#\275\244\2311II\365\253U\330vs`i\014g\375\""
 266      23BDA499 
 266      314949F5 
 266      AB55D876 
 266      7360690C 
 267 0129 D8EE4E8F 		.ascii	"\330\356N\217d-\017\013\032\303\202\254\227\205\332"
 267      642D0F0B 
 267      1AC382AC 
 267      9785DA
 268 0138 F1B1E9ED 		.ascii	"\361\261\351\355g\251O\321Uae\302\333P\234\002\210\253"
 268      67A94FD1 
 268      556165C2 
 268      DB509C02 
 268      88AB
 269 014a CA071818 		.ascii	"\312\007\030\030ytIH-\253\362\005\323\316\244\023fb"
 269      79744948 
 269      2DABF205 
 269      D3CEA413 
ARM GAS  /tmp/ccUb86vt.s 			page 20


 269      6662
 270 015c 3361AED8 		.ascii	"3a\256\330\251Xju\315\314\344\314l\336\314e-\323\262"
 270      A9586A75 
 270      CDCCE4CC 
 270      6CDECC65 
 270      2DD3B2
 271 016f 73961D5F 		.ascii	"s\226\035_\262\200\345\267\276\000\265\303\227\256"
 271      B280E5B7 
 271      BE00B5C3 
 271      97AE
 272              		.text
 273              		.section	.gnu.lto_queue_lifo_remove.3b0180d7713fbc36,"",%progbits
 274 0000 789C9591 		.ascii	"x\234\225\221OK\002A\030\207\337wf\267\202\210\240\233"
 274      4F4B0241 
 274      1887DF77 
 274      66B78288 
 274      A09B
 275 0012 74112108 		.ascii	"t\021!\010\205\366\023t\352\003tH\301\350\244\253\271"
 275      85F61374 
 275      EA037448 
 275      C1E8A4AB 
 275      B9
 276 0023 1EC450EF 		.ascii	"\036\304P\357\216\342)(D:\224]\022\242\303\026u\355"
 276      8EE22928 
 276      443A945D 
 276      12A2C316 
 276      75ED
 277 0035 B8970E2A 		.ascii	"\270\227\016*\035\244C\377.B\227\272\371\001\244\355"
 277      1DA443FF 
 277      2E4297BA 
 277      F901A4ED 
 278 0045 9D1D35ED 		.ascii	"\235\0355\355\2205\2603\2633\3573\277gg\0310\370\331"
 278      9035B033 
 278      B333EF33 
 278      BF676719 
 278      30F8D9
 279 0058 96E939A0 		.ascii	"\226\3519\240\345\240|\321\000i\212\0149\365\034\221"
 279      E5A07CD1 
 279      00698A0C 
 279      39F51C91 
 280 0068 96108A8C 		.ascii	"\226\020\212\214cq\033\275\375\0004\204\250u\357\354"
 280      63711BBD 
 280      FD003484 
 280      A875EFEC 
 281 0078 677672E4 		.ascii	"gvr\344T\316D\337u\021\323r\323D\210\322\014\375\336"
 281      54CE44DF 
 281      7511D372 
 281      D34488D2 
 281      0CFDDE
 282 008b C0B4C918 		.ascii	"\300\264\311\030\005:\217\373\355\006\212\232(\365\\"
 282      053A8FFB 
 282      ED068A9A 
 282      28F55C
 283 009a 77F1AF58 		.ascii	"w\361\257X\335ym5\377\217\325\234N\353\320'\316\312"
 283      DD796D35 
 283      FF8FD59C 
 283      4EEBD027 
ARM GAS  /tmp/ccUb86vt.s 			page 21


 283      CECA
 284 00ac 55F14996 		.ascii	"U\361I\226\2041X\305)\344\015s\272\256\333\177\270z"
 284      843158C5 
 284      29E40D73 
 284      BAAEDB7F 
 284      B87A
 285 00be BBC6A519 		.ascii	"\273\306\245\031\304\214\244bx\216\001\340@Gh\262\323"
 285      C48CA462 
 285      788E01E0 
 285      404768B2 
 285      D3
 286 00cf C173A0B1 		.ascii	"\301s\240\261\"D\325\257\266='ja\257\217\310\213\344"
 286      2244D5AF 
 286      B63D276A 
 286      61AF8FC8 
 286      8BE4
 287 00e1 F7507E39 		.ascii	"\367P~9\266?0\206\027\250C\012Y\010lAm\207\370S\250"
 287      B63F3086 
 287      17A8430A 
 287      59086C41 
 287      6D87F853 
 288 00f6 533E4F21 		.ascii	"S>O!J\017\245\021\307\241\207$\237\350\226\207$\017"
 288      4A0FA511 
 288      C7A18724 
 288      9FE89687 
 288      240F
 289 0108 417004E9 		.ascii	"Ap\004\351tRT\335\272\007\3417\324\354\315*d\220\264"
 289      745254DD 
 289      BA07E137 
 289      D4ECCD2A 
 289      6490B4
 290 011b 30252925 		.ascii	"0%)%\177\265\014{\267G\226\332x\326/\202\355\336\374"
 290      7FB50C7B 
 290      B74796DA 
 290      78D62F82 
 290      EDDEFC
 291 012e 44D6FAB8 		.ascii	"D\326\372\270\2406.\310\006Y\250\034o/}\303,\371)\252"
 291      A0362EC8 
 291      0659A81C 
 291      6F2F7DC3 
 291      2CF929AA 
 292 0142 2A224D78 		.ascii	"*\"Mx\033Js\000\011Y\331\201\221\221\256J\302rY\226"
 292      1B4A7300 
 292      0959D981 
 292      9191AE4A 
 292      C2725996 
 293 0156 AF185636 		.ascii	"\257\030V6\2234\222\273Ic\303J\307\323\233[F6o\344\012"
 293      933492BB 
 293      4963C34A 
 293      C7D39B5B 
 293      46366FE4 
 294 016b 463E671A 		.ascii	"F>g\032\246\2257\255\304\232\011\254\260\367\005?\245"
 294      A69537AD 
 294      C49A09AC 
 294      B0F7053F 
 294      A5
 295 017c 976F     		.ascii	"\227o"
ARM GAS  /tmp/ccUb86vt.s 			page 22


 296              		.text
 297              		.section	.gnu.lto_queue_dequeue.3b0180d7713fbc36,"",%progbits
 298 0000 789C6362 		.ascii	"x\234cb`b@\007\322@\374\000(\254\016\342\26000\002\231"
 298      60624007 
 298      D240FC00 
 298      28AC0EE2 
 298      B0303002 
 299 0015 8C4C8CCC 		.ascii	"\214L\214\314@\222\231\221\021(\304\310P\317\304\314"
 299      40929991 
 299      1128C4C8 
 299      50CFC4CC 
 300 0025 581F0962 		.ascii	"X\037\011b3\260*1,lh\230\364\240u\363J\311\256\005M"
 300      33B02A31 
 300      2C6C6898 
 300      F4A075F3 
 300      4AC9AE05 
 301 003a 131AFEFD 		.ascii	"\023\032\376\375\377\317\230\011\222Jfd\210\000\262"
 301      FFCF9809 
 301      924A6664 
 301      8800B2
 302 0049 1815C014 		.ascii	"\030\025\300\024\023\013\252%\020m\015_\237\004\234"
 302      130BAA25 
 302      106D0D5F 
 302      9F049C
 303 0058 686839F0 		.ascii	"hh9\360\377\277=\321z\016\314>}j!#Po\343\207\377\377"
 303      FFBF3DD1 
 303      7A0ECC3E 
 303      7D6A2123 
 303      506FE387 
 304 006e F96969D5 		.ascii	"\371ii\325\254\003\363O\237$\311\252\365L\007\036\374"
 304      AC03F34F 
 304      9F24C9AA 
 304      F54C071E 
 304      FC
 305 007f FFBFE6E6 		.ascii	"\377\277\346\346\236G7\030\205\330\031\031s\031\201"
 305      9E473718 
 305      85D81919 
 305      731981
 306 008e E10BD4C7 		.ascii	"\341\013\324\307\014\"X@\004+\210`c\310\204\004\036"
 306      0C225840 
 306      042B8860 
 306      63C88404 
 306      1E
 307 009f 434B43C3 		.ascii	"CKC\303\004\005\260\251@\020\002&CA\001\316|\226\241"
 307      0405B0A9 
 307      40100226 
 307      434101CE 
 307      7C96A1
 308 00b2 E9D68CCD 		.ascii	"\351\326\214\315\232\211\214\313\030Y\031\322\031\231"
 308      9A898CCB 
 308      185919D2 
 308      1999
 309 00c0 B419B480 		.ascii	"\264\031\264\200zf3\314\002\332\312\234\316\310\030"
 309      7A6633CC 
 309      02DACA9C 
 309      CEC818
 310 00cf 01096420 		.ascii	"\001\011d Hb\204\331\016\322s\201\017\246\205\031\237"
ARM GAS  /tmp/ccUb86vt.s 			page 23


 310      486284D9 
 310      0ED27381 
 310      0FA68519 
 310      9F
 311 00e0 16468496 		.ascii	"\026F\204\226\223\027\270!Z\264\031V5\000\2015\262&"
 311      9317B821 
 311      5AB41956 
 311      35008135 
 311      B226
 312 00f2 264C4DE9 		.ascii	"&LM\351\240\244\000\262j\007\302y,D\332\205\344<V\""
 312      A0A400B2 
 312      6A07C279 
 312      2C44DA85 
 312      E43C5622 
 313 0106 7D84D779 		.ascii	"}\204\327y,\230\232\200&\203\365\235\376\261Y\022f\027"
 313      2C989A80 
 313      2683F59D 
 313      FEB15912 
 313      6617
 314 0118 5B3ACC11 		.ascii	"[:\314\021\241 \3073\237fh\344``H\001\011^d`\204\253"
 314      A120C733 
 314      9F6668E4 
 314      60604801 
 314      095E6460 
 315 012e 82280901 		.ascii	"\202(\011\001\011\203r\205\252~F~n\252~jZ\252\276sF"
 315      09837285 
 315      AA7E467E 
 315      6EAA7E6A 
 315      5AAABE73 
 316 0143 6652A67F 		.ascii	"fR\246\177\260~~\261~Q\211~qQ\262~rFqrF\212^2\003\000"
 316      B07E7EB1 
 316      7E51897E 
 316      7151B27E 
 316      72467172 
 317 015d 9BE3A25E 		.ascii	"\233\343\242^"
 318              		.text
 319              		.section	.gnu.lto_list_insert.3b0180d7713fbc36,"",%progbits
 320 0000 789C6362 		.ascii	"x\234cb`b@\007\"@l\307\310\300\240\016\342030\002U0"
 320      60624007 
 320      22406CC7 
 320      C8C0A00E 
 320      E2303330 
 321 0017 32310205 		.ascii	"21\002\005\030\030\031\352\231\030\353#AL\006F%\206"
 321      181819EA 
 321      9918EB23 
 321      414C0646 
 321      2586
 322 0029 850D0D93 		.ascii	"\205\015\015\223\036\264\356\276\3114s\312\201\226\005"
 322      1EB4EEBE 
 322      C93473CA 
 322      819605
 323 0038 0D7FFEFF 		.ascii	"\015\177\376\377gd\314\004I&32D\000Y\214\012`\212\211"
 323      6764CC04 
 323      49263332 
 323      4400598C 
 323      0A608A89 
 324 004c 05D5FCF5 		.ascii	"\005\325\374\365L\007\036\374\377\277\346\356\226\307"
ARM GAS  /tmp/ccUb86vt.s 			page 24


 324      4C071EFC 
 324      FFBFE6EE 
 324      96C7
 325 005a EF188558 		.ascii	"\357\030\205X\030\031s\031\201\216\000\352c\006\262"
 325      18197319 
 325      818E00EA 
 325      6306B2
 326 0069 40BA5919 		.ascii	"@\272Y\031Z\032\032&(\200\215\001\202\0200\031\012r"
 326      5A1A1A26 
 326      28808D01 
 326      82103019 
 326      0A72
 327 007b 06F35986 		.ascii	"\006\363Y\206\246[3\200\026&2.bdeHgd\322f\320\002\352"
 327      A65B3380 
 327      1626322E 
 327      62646548 
 327      6764D266 
 328 0092 9CCD300B 		.ascii	"\234\3150\013h\017s:##\310>\210uI\2140\373\200\232N"
 328      680F733A 
 328      2323C83E 
 328      8875498C 
 328      30FB809A 
 329 00a7 5E608768 		.ascii	"^`\207h\321fX\325\000\004\334pM\254\351\214\314\021"
 329      D16658D5 
 329      0004DC70 
 329      4DACE98C 
 329      CC11
 330 00b9 10578335 		.ascii	"\020W\2035A\030\351 \333\200\372N\357\330\375\223\021"
 330      4118E920 
 330      DB80FA4E 
 330      EFD8FD93 
 330      11
 331 00ca 45272F01 		.ascii	"E'/\001\353\200\30610\\dh|\360N\025\242\017\006B@F\203"
 331      EB80C631 
 331      305C6468 
 331      7CF04E15 
 331      A20F0642 
 332 00e1 025B553F 		.ascii	"\002[U?#?7U?5-U\3379#3)\323?X?\277X\277\250D\277\270"
 332      233F3755 
 332      3F352D55 
 332      DF392333 
 332      29D33F58 
 333 00fd 28593F39 		.ascii	"(Y?9\24389#E/\231\001\000g\035O\356"
 333      A3383923 
 333      452F9901 
 333      00671D4F 
 333      EE
 334              		.text
 335              		.section	.gnu.lto_list_remove.3b0180d7713fbc36,"",%progbits
 336 0000 789C8D91 		.ascii	"x\234\215\221AK\002A\024\307\337\177f\227\272D\207N"
 336      414B0241 
 336      14C7DF7F 
 336      6697BA44 
 336      874E
 337 0012 D1458420 		.ascii	"\321E\204 \024\332\017\321\007\350\220\202\321IW\333"
 337      14DA0FD1 
 337      07E89082 
ARM GAS  /tmp/ccUb86vt.s 			page 25


 337      D14957DB 
 338 0022 F520867A 		.ascii	"\365 \206zw\024\273\226HPY\201\022]\272\364\025\366"
 338      7714BB96 
 338      48505981 
 338      125DBAF4 
 338      15F6
 339 0034 2A91D0AD 		.ascii	"*\221\320\255:\211\322\241\233\335:D\333\233]5\352b"
 339      3A89D2A1 
 339      9BDD3A44 
 339      DB9B5D35 
 339      EA62
 340 0046 0F66E6CD 		.ascii	"\017f\346\315\274\371\275\377\2337\202\004\375\2655"
 340      BCF9BDFF 
 340      9B378204 
 340      FDB535
 341 0055 1EAF208A 		.ascii	"\036\257 \212\351\215A\340\033\020\220<K\3601\201\252"
 341      E98D41E0 
 341      1B10903C 
 341      4BF03181 
 341      AA
 342 0066 42A2BAAB 		.ascii	"B\242\272\253}\222Q\352*\325\032\034\216\236\305\371"
 342      7D9251EA 
 342      2AD51A1C 
 342      8E9EC5F9 
 343 0076 89D7E8A8 		.ascii	"\211\327\350\250O\337\007\362:h\203R\354!\022,\302\370"
 343      4FDF07F2 
 343      3A688352 
 343      EC21122C 
 343      C2F8
 344 0088 2D13806D 		.ascii	"-\023\200m\357\252\337\353B\265Tm\354\373\313\377\305"
 344      EFAADFEB 
 344      42B5546D 
 344      ECFBCBFF 
 344      C5
 345 0099 5ADE69FF 		.ascii	"Z\336i\377hUu\352M\365\305r\214\011\332\300\034\362"
 345      685575EA 
 345      4DF5C572 
 345      8C09DAC0 
 345      1CF2
 346 00ab 4E7803DF 		.ascii	"Nx\003\337\277|\037\017\217\261b\002\005M\245q\215("
 346      BF7C1F0F 
 346      8FB16202 
 346      054DA571 
 346      8D28
 347 00bd 49E21406 		.ascii	"I\342\024\006\005\362dRC\251f$\214\004\345\260%\202"
 347      05F26452 
 347      43A96624 
 347      8C04E5B0 
 347      2582
 348 00cf 39A99B21 		.ascii	"9\251\233!\037\250\376\3621|C\03270\311\201\210\323"
 348      1FA8FEF2 
 348      317C431A 
 348      3730C981 
 348      88D3
 349 00e1 AD62DB63 		.ascii	"\255b\333c\376\202\332,-\035@\227\020V\220\301\264\004"
 349      FE82DA2C 
 349      2D1D4097 
ARM GAS  /tmp/ccUb86vt.s 			page 26


 349      105690C1 
 349      B404
 350 00f3 4D9E71A7 		.ascii	"M\236q\247\246\244\214Sl\006\231\234)\025v.\200\360"
 350      A6A48C53 
 350      6C06999C 
 350      2915762E 
 350      80F0
 351 0105 03F5C60B 		.ascii	"\003\365\306\013!2QZ\232\243\344\350\357\322\334\323"
 351      2132515A 
 351      9AA3E4E8 
 351      EFD2DCD3 
 352 0115 6875AA65 		.ascii	"hu\252e8\230\374uRG\345=\325\026\211\262Z\346\221fo"
 352      3898FC75 
 352      5247E53D 
 352      D51689B2 
 352      5AE69166 
 353 012a 99F42CA1 		.ascii	"\231\364,\241\217\365\365u\313-\026rVn?gm\271\371L~"
 353      8FF5F575 
 353      CB2D1672 
 353      566E3F67 
 353      6DB9F94C 
 354 013f 7BC72A96 		.ascii	"{\307*\226\255R\305*\227l\313v\313\266\233\335\264I"
 354      AD52C52A 
 354      976CCB76 
 354      CBB69BDD 
 354      B449
 355 0151 540EBE01 		.ascii	"T\016\276\001\311lu\307"
 355      C96C75C7 
 356              		.text
 357              		.section	.gnu.lto_chSchReadyI.3b0180d7713fbc36,"",%progbits
 358 0000 789C9593 		.ascii	"x\234\225\223\317k\023A\024\307\337\233\231\375\221"
 358      CF6B1341 
 358      14C7DF9B 
 358      99FD91
 359 000f F6D08307 		.ascii	"\366\320\203\007\315\255\024\204\322\202{\023\304\203"
 359      CDAD1484 
 359      D2827B13 
 359      C483
 360 001d 07FF0005 		.ascii	"\007\377\000\005\033HO\332lc\262\207Pi\274\365\320I"
 360      1B484FDA 
 360      6C63B287 
 360      5069BCF5 
 360      D049
 361 002f 9B83F4D0 		.ascii	"\233\203\364\320\204\202\240\025\264\275\225\"zP\261"
 361      8482A015 
 361      B4BD9522 
 361      7A50B1
 362 003e 1761BD35 		.ascii	"\027a\2755Vm{\253^\014\242\350A\320ZH\232\"\2563\231"
 362      566D7BAB 
 362      5E0CA2E8 
 362      41D05A48 
 362      9A22AE33 
 363 0053 DDED362E 		.ascii	"\335\3556.5>\33073\273\3573\337\367\336\314\022 \320"
 363      353ED837 
 363      33BBEF33 
 363      DFF7DECC 
 363      1220D0
ARM GAS  /tmp/ccUb86vt.s 			page 27


 364 0066 6967C533 		.ascii	"ig\3053\250\001\014\311\205\001(\"\220 \025\236\"\023"
 364      A8010CC9 
 364      85012822 
 364      9020159E 
 364      2213
 365 0078 9E11E139 		.ascii	"\236\021\3419\021\021\234i\250\2137:\242\010E\230&\224"
 365      11119C69 
 365      A88B373A 
 365      A2084598 
 365      2694
 366 008a 693A4E8F 		.ascii	"i:N\217\312%$\006`\231\363\205\372\347\357wO\316\325"
 366      CA252406 
 366      6099F385 
 366      FAE7EF77 
 366      4FCED5
 367 009d 7995FFF6 		.ascii	"y\225\377\366<t\344'\033!-fh\266\007\202G\365\025\306"
 367      3C74E427 
 367      1B212D66 
 367      68B60782 
 367      47F515C6 
 368 00b1 1FAD70BA 		.ascii	"\037\255p\272\304\177y\036\355\232q\037T*\311\271\245"
 368      C47F791E 
 368      ED9A711F 
 368      542AC9B9 
 368      A5
 369 00c2 99408A1E 		.ascii	"\231@\212\036b\375\012c\261R\255O\227\327y\331\365\274"
 369      62FD0A63 
 369      B152AD4F 
 369      97D779D9 
 369      F5BC
 370 00d4 0B5D33EE 		.ascii	"\013]3\356\263\312\355\250\024\353\022{\276\371j\031"
 370      B3CAEDA8 
 370      14EB127B 
 370      BEF96A19 
 371 00e4 8564E987 		.ascii	"\205d\351\207\347\365u\213-\272/6k\377\217-\270\315"
 371      E7F5758B 
 371      2DBA2F36 
 371      6BFF8F2D 
 371      B8CD
 372 00f6 B7F3491E 		.ascii	"\267\363I\036I\222\300 \376\203, <&n\335\363\0366\237"
 372      4992C020 
 372      FE832C20 
 372      3C266EDD 
 372      F31E369F 
 373 010a 7EFC8027 		.ascii	"~\374\200'z\020\306p\005\007\200`\001Ew\324\202\371"
 373      7A10C670 
 373      05078060 
 373      014577D4 
 373      82F9
 374 011c A306A263 		.ascii	"\243\006\242c\272t\206p\314\224.\001\355\004\305\267"
 374      BA748670 
 374      CC942E01 
 374      ED04C5B7 
 375 012c 32E7D57E 		.ascii	"2\347\325~\025X\360\317P\330\210\357\305\275\242)\331"
 375      1558F0CF 
 375      50D888EF 
 375      C5BDA229 
ARM GAS  /tmp/ccUb86vt.s 			page 28


 375      D9
 376 013d 6FFA0666 		.ascii	"o\372\006f\326\366\177\266p\014WQ\203aX\345\302z\035"
 376      D6F67FB6 
 376      700C5751 
 376      836158E5 
 376      C27A1D
 377 0150 D4EEC1A2 		.ascii	"\324\356\301\242HQ\317!I\253\036\013\313\370G\237Vw"
 377      4851CF21 
 377      49AB1E0B 
 377      CBF8479F 
 377      5677
 378 0162 0940D007 		.ascii	"\011@\320\007\263O\356\353\212\316!\235\202\003~\213"
 378      B34FEEEB 
 378      8ACE219D 
 378      82037E8B 
 379 0172 F351070D 		.ascii	"\363Q\007\015\177\257)\007M\177z\325\301D\001I\006\321"
 379      7FAF2907 
 379      4D7F7AD5 
 379      C1440149 
 379      06D1
 380 0184 DFADE307 		.ascii	"\337\255\343\007HI\031\231\321\373\235\275\227\030\354"
 380      48491999 
 380      D1FB9DBD 
 380      9718EC
 381 0193 C97CFA9C 		.ascii	"\311|\372\234\310\"L\012\243IQ\237\227\344\376\336n"
 381      C8224C0A 
 381      A349519F 
 381      97E4FEDE 
 381      6E
 382 01a4 486AC330 		.ascii	"Hj\3030\344`O\010\261(\304\"P\265/@\364\016\204\304"
 382      E4604F08 
 382      B128C422 
 382      50B52F40 
 382      F40E84C4 
 383 01b8 21EB50FE 		.ascii	"!\353P\376R2B\225\234\374\021\225\275\003\024M\240\257"
 383      52324295 
 383      9CFC1195 
 383      BD03144D 
 383      A0AF
 384 01ca 5BA7841A 		.ascii	"[\247\204\032\373\326\272&\213\322TQ\265\265\306\356"
 384      FBD6BA26 
 384      8BD25451 
 384      B5B5C6EE 
 385 01da 5F6D66F1 		.ascii	"_mf\361J\252\242\234\\\267\333\321\330&\201\234\321"
 385      4AAAA29C 
 385      5CB7DBD1 
 385      D826819C 
 385      D1
 386 01eb CE90C517 		.ascii	"\316\220\305\027\245\035\026U\3332\272\024\323|1C\211"
 386      A51D1655 
 386      DB32BA14 
 386      D37C3143 
 386      89
 387 01fc 7D6D840D 		.ascii	"}m\204\0154;\264b\2606\263\261\325{D\353|\0242\343\012"
 387      343BB462 
 387      B036B3B1 
 387      D57B44EB 
ARM GAS  /tmp/ccUb86vt.s 			page 29


 387      7C1432E3 
 388 0211 238ABBD3 		.ascii	"#\212\273\323<\256%1\245\205\344N3\031d\231\310\005"
 388      3CAE2531 
 388      A585E44E 
 388      33196499 
 388      C805
 389 0223 1729254F 		.ascii	"\027)%O\202n@\311\004\030\227Z\333\020\326\222P!#\362"
 389      826E40C9 
 389      0418975A 
 389      DB10D692 
 389      502123F2 
 390 0237 F2C9F0D3 		.ascii	"\362\311\360\323V~\242\220\265\262\327\263\326\305\274"
 390      567EA290 
 390      B5B2D7B3 
 390      D6C5BC
 391 0246 93712E5D 		.ascii	"\223q.]\261&\212\326\344M\2538i[v\276h\347\307\317\330"
 391      B1268AD6 
 391      E44DAB38 
 391      695B76BE 
 391      68E7C7CF 
 392 025b 40EC1B7F 		.ascii	"@\354\033\177\000xr'~"
 392      00787227 
 392      7E
 393              		.text
 394              		.section	.gnu.lto_wakeup.3b0180d7713fbc36,"",%progbits
 395 0000 789C8D53 		.ascii	"x\234\215S\277O\024A\024~ogf\367~\010\"\330\330\021"
 395      BF4F1441 
 395      147E6F67 
 395      66F77E08 
 395      22D8D811 
 396 0014 121303D1 		.ascii	"\022\023\003\321\215\205\275\211\177\200\205\220`\011"
 396      8D85BD89 
 396      7F808590 
 396      6009
 397 0022 0BDE4D41 		.ascii	"\013\336MAP\216\316\342\366\3400\306\250!D\224\250\005"
 397      508ECEE2 
 397      F6E030C6 
 397      A8214494 
 397      A805
 398 0034 1686A089 		.ascii	"\026\206\240\211\030+\242\024\327\243!b\243TgaqgblL"
 398      182BA214 
 398      D7A32162 
 398      A3546761 
 398      7167626C 
 399 0049 0C51CF37 		.ascii	"\014Q\3177?\366v9.\341&\231\331\231\371\346{\363\275"
 399      3FF67639 
 399      2EE12699 
 399      D999F9E6 
 399      7BF3BD
 400 005c EFCD3AE0 		.ascii	"\357\315:\340@k\033\241~Q\000\014\252E\006\220N\240"
 400      406B1BA1 
 400      7E51000C 
 400      AA450690 
 400      4EA0
 401 006e 233C5A30 		.ascii	"#<Z0\352\234\272K]\2505\246\011\343\230\242Q \355\242"
 401      EA9CBA4B 
 401      5DA835A6 
ARM GAS  /tmp/ccUb86vt.s 			page 30


 401      09E398A2 
 401      5120EDA2 
 402 0082 ABE79E1E 		.ascii	"\253\347\236\036S\032M#\322I\204\242\303\270p\275T\032"
 402      531A4D23 
 402      D24984A2 
 402      C3B870BD 
 402      541A
 403 0094 8B57D50E 		.ascii	"\213W\325\016\210\001x\026\206K\325o/\353\370\350A\245"
 403      88017816 
 403      864BD56F 
 403      2FEBF8E8 
 403      41A5
 404 00a6 B41AFE69 		.ascii	"\264\032\376i4\020\245\002\003\204Q\232Q\030\365q\360"
 404      3410A502 
 404      0384519A 
 404      5118F571 
 404      F0
 405 00b7 A0404D5C 		.ascii	"\240@M\\\014\327n-\364\2245\213Id1\251\337\220x\033"
 405      0CD76E2D 
 405      F494358B 
 405      496431A9 
 405      DF90781B 
 406 00cb D252E5EF 		.ascii	"\322R\345\357\356\375SwV\347\026\303\177t\231D\336!"
 406      EEFD5377 
 406      56E716C3 
 406      7F749944 
 406      DE21
 407 00dd 6DF9D3C3 		.ascii	"m\371\323\303$MtH\373B\267\2051\315u\340\014\036\301"
 407      244D7448 
 407      FB42B785 
 407      31CD75E0 
 407      0C1EC1
 408 00f0 DC702AD5 		.ascii	"\334p*\325Fck\371\327\327\357x\322C\234B*\321\030>\307"
 408      46636BF9 
 408      D7D7EF78 
 408      D2439C42 
 408      2AD1183E 
 409 0105 01B29FCC 		.ascii	"\001\262\237\314\34140A\003wA\013\241J\224\311\216~"
 409      E1343041 
 409      0377410B 
 409      A14A94C9 
 409      8E7E
 410 0117 73460BA3 		.ascii	"sF\013\2436\254\307\021U<\366\001\346\266W\310\3451"
 410      36ACC711 
 410      553CF601 
 410      E6B657C8 
 410      E531
 411 0129 5C23420E 		.ascii	"\\#B\016\235\234\252\311\016\314W_\3252f\023\340&\354"
 411      9D9CAAC9 
 411      0ECC575F 
 411      D5326613 
 411      E026EC
 412 013c 87B7C31E 		.ascii	"\207\267\303\036\211^\200\306o\251\252H\334\275\337"
 412      895E80C6 
 412      6FA9AA48 
 412      DCBDDF
 413 014b 092E1B82 		.ascii	"\011.\033\202A\211\351'\360\230\264g(\226\312\301\325"
ARM GAS  /tmp/ccUb86vt.s 			page 31


 413      4189E927 
 413      F098B467 
 413      2896CAC1 
 413      D5
 414 015c E7C79B65 		.ascii	"\347\307\233e\"\322\217\371\356\210\302s\252:\357\301"
 414      22D28FF9 
 414      EE88C273 
 414      AA3AEFC1 
 415 016c 6B6EDC83 		.ascii	"kn\334\203\273\245rX\331\354\223\230U\347'\354\215v"
 415      BBA57258 
 415      D9EC9398 
 415      55E727EC 
 415      8D76
 416 017e FF672FED 		.ascii	"\377g/\355\253\270i\003:Ip\277\0112\015\262$\370\272"
 416      ABB86903 
 416      3A4970BF 
 416      09320DB2 
 416      24F8BA
 417 0191 2F02B906 		.ascii	"/\002\271\006y\022\\j\202B\203\"\011>m\202^\202i\177"
 417      79125C6A 
 417      82428322 
 417      093E6D82 
 417      5E82697F 
 418 01a5 087509DB 		.ascii	"\010u\011\333\206R\312d\240\025)\373\336\325\262\355"
 418      8652CA64 
 418      A01529FB 
 418      DED5B2ED 
 419 01b5 EC7362FB 		.ascii	"\354sb\373\014\235\267\320\231\361\365\363F\354\253"
 419      0C9DB7D0 
 419      99F1F5F3 
 419      46ECAB
 420 01c4 D0BEF221 		.ascii	"\320\276\362!x\021R;/\361X{\213\321~\243\337\226\342"
 420      7811523B 
 420      2FF1587B 
 420      8BD17EA3 
 420      DF96E2
 421 01d7 6C2E5A15 		.ascii	"l.Z\025\304(\0219+\261\213\002\216\232\347MM\315\272"
 421      C4281139 
 421      2BB18B02 
 421      8E9AE74D 
 421      4DCDBA
 422 01ea E264448B 		.ascii	"\342dD\213\032a\325\274\251\263H\215\253\325\010\253"
 422      1A61D5BC 
 422      A9B3488D 
 422      ABD508AB 
 423 01fa E6C6916A 		.ascii	"\346\306\221j\230\015\276\003\345\312\331C\226t\007"
 423      980DBE03 
 423      E5CAD943 
 423      967407
 424 0209 F6000596 		.ascii	"\366\000\005\226x<\322\341\266\350\340\232_\335[\307"
 424      783CD2E1 
 424      B6E8E09A 
 424      5FDD5BC7 
 425 0219 43117A02 		.ascii	"C\021z\002\233\012\335/\361D\024\301k\211\200\021\220"
 425      9B0ADD2F 
 425      F14414C1 
 425      6B898011 
ARM GAS  /tmp/ccUb86vt.s 			page 32


 425      90
 426 022a 32AF7E73 		.ascii	"2\257~s\345\355\256c@\233\312\005\211\275v\232=2\253"
 426      E5EDAE63 
 426      409BCA05 
 426      89BD769A 
 426      3D32AB
 427 023d D8BDBE46 		.ascii	"\330\275\276F\324\260hT\326d;\221\342\200H\365D\352"
 427      D4B06854 
 427      D6643B91 
 427      E28048F5 
 427      44EA
 428 024f EB9D3D91 		.ascii	"\353\235=\221\264ME\275=\322\361\021J\325\255\330\010"
 428      B44D45BD 
 428      3DD2F111 
 428      4AD5ADD8 
 428      08
 429 0260 D3869532 		.ascii	"\323\206\2252\305<\355\347\247\247&\375\311k\223\376"
 429      C53CEDE7 
 429      A7A726FD 
 429      C96B93FE 
 430 0270 A5BC1C97 		.ascii	"\245\274\034\227\227\257\370\323\005\177f\326/\314\004"
 430      97AFF8D3 
 430      057F66D6 
 430      2FCC04
 431 027f 7E902F04 		.ascii	"~\220/\004\371\211s\0018\263\327\377\003)}+\347"
 431      F9897301 
 431      38B3D7FF 
 431      03297D2B 
 431      E7
 432              		.text
 433              		.section	.gnu.lto_chSchGoSleepS.3b0180d7713fbc36,"",%progbits
 434 0000 789CAD52 		.ascii	"x\234\255R\317kSA\020\236\331}?b\264\266\007/\325K)"
 434      CF6B5341 
 434      109ED97D 
 434      3F62B4B6 
 434      072FD54B 
 435 0015 08DA800F 		.ascii	"\010\332\200\017\361d/=x\362\244`\013\365\330>c\262"
 435      F1642F3D 
 435      78F2A460 
 435      0BF5D83E 
 435      63B2
 436 0027 8710697A 		.ascii	"\207\020iz\363\220M\311\241\210\204\320S\250P\254B\025"
 436      F3904DC9 
 436      A18884D0 
 436      53A850AC 
 436      4215
 437 0039 11C45B2B 		.ascii	"\021\304[+\036\202 (E\2429z\012\342\037\340M\361\340"
 437      1E822028 
 437      45A2397A 
 437      0AE21FE0 
 437      4DF1E0
 438 004c 3AB3FB5E 		.ascii	":\263\373^\232\352\301`\272\360f\346\355\233\357\233"
 438      9AEAC160 
 438      BAF066E6 
 438      ED9BEF9B 
 439 005c EFCD8C00 		.ascii	"\357\315\214\000\001\177\2363\3644<\200\034\277x\200"
 439      017F9E33 
ARM GAS  /tmp/ccUb86vt.s 			page 33


 439      F4343C80 
 439      1CBF7880 
 440 006c 94810225 		.ascii	"\224\201\002%Y\211HW\010U!\261z\223c\010\246a[\353\215"
 440      59894857 
 440      085521B1 
 440      7A936308 
 440      A6615BEB 
 441 0081 DEDBC79B 		.ascii	"\336\333\307\233\223\367\036\2565\365/cP\361\247\030"
 441      93F71EAE 
 441      35F52F63 
 441      50F1A718 
 442 0091 6191229C 		.ascii	"a\221\"\234\262Nx\207\2138X\373ew\177\033\365\206\256"
 442      B24E7887 
 442      8B3858FB 
 442      65777F1B 
 442      F586AE
 443 00a4 7D33667C 		.ascii	"}3f|h\230\336\373z\375\235\256\267\215\231S,l\250R{"
 443      6898DEFB 
 443      7AFD9DAE 
 443      B78D9953 
 443      2C6CA852 
 444 00b9 DDF7FF51 		.ascii	"\335\367\377Q\252\375\252{?\333\254\255kc\252\303\203"
 444      AAFDAA7B 
 444      3FDBACAD 
 444      6B63AAC3 
 444      83
 445 00ca BE771A93 		.ascii	"\276w\032\223z\240\033\002\316\341?\220/D\273g\314s"
 445      7AA01B02 
 445      CEE13F90 
 445      2F44BB67 
 445      CC73
 446 00dc F3FACB16 		.ascii	"\363\372\313\026\236\312 ,\341\016N\203\300\022\202"
 446      9ECA202C 
 446      E10E4E83 
 446      C01282
 447 00eb 04A2F0D8 		.ascii	"\004\242\360\330\370dd\300Q\010V\015\335\324\265nN\271"
 447      F86464C0 
 447      5108560D 
 447      DDD4B56E 
 447      4EB9
 448 00fd 6CAB8ECE 		.ascii	"l\253\216\316\274\265\013<9\371\001\326>\3770\227\227"
 448      BCB50B3C 
 448      39F901D6 
 448      3EFF3097 
 448      97
 449 010e F029FA50 		.ascii	"\360)\372P@\314\3013M\347\022\301s0\243\320{\000\233"
 449      40CCC133 
 449      4DE712C1 
 449      7330A3D0 
 449      7B009B
 450 0121 35AD2714 		.ascii	"5\255'\024\372w\341\247^\347((\331A\263\314\300\212"
 450      FA77E1A7 
 450      5EE72828 
 450      D941B3CC 
 450      C08A
 451 0133 5B46487C 		.ascii	"[FH|\022\000\321\356\267\036\275\021\2167!\035S\030"
 451      1200D1EE 
ARM GAS  /tmp/ccUb86vt.s 			page 34


 451      B71EBD11 
 451      8E37211D 
 451      5318
 452 0145 121DC132 		.ascii	"\022\035\3012Ti\321\355\201\205\271-+\260\357@\275\327"
 452      5469D1ED 
 452      8185B92D 
 452      2BB0EF40 
 452      BDD7
 453 0157 50A91ED9 		.ascii	"P\251\036\331/z,N\310\371&\2430k\345\035w\"I\320\201"
 453      2F7A2C4E 
 453      C8F926A3 
 453      306BE51D 
 453      772249D0 
 454 016c 0669BD63 		.ascii	"\006i\275c\2406\234\260j\256\246JfF\372\263\002\263"
 454      A0369CB0 
 454      6AAEA64A 
 454      6646FAB3 
 454      02B3
 455 017e 73CF5A3B 		.ascii	"s\317Z;\263\251FoTR\307\330\014SB\337R\215\365[\345"
 455      B3A9466F 
 455      5452C7D8 
 455      0C5342DF 
 455      528DF55B 
 456 0193 0DB66A70 		.ascii	"\015\266jp/\026X\215\035a\353\311\351\024\035\034\211"
 456      2F16588D 
 456      1D61EBC9 
 456      E9141D1C 
 456      89
 457 01a4 9CDD8FD9 		.ascii	"\234\335\217\331C\263\27388\273\340\357\331\361\315"
 457      43B3BB38 
 457      38BBE0EF 
 457      D9F1CD
 458 01b3 494C7E65 		.ascii	"IL~e\367@M8\272\232\016\370\3110\241\017\033\217\373"
 458      F7404D38 
 458      BA9A0EF8 
 458      C930A10F 
 458      1B8FFB
 459 01c6 3B13D22E 		.ascii	";\023\322.)\234\000\370\004\265\336\326\3714\325\235"
 459      299C00F8 
 459      04B5DED6 
 459      F934D59D 
 460 01d6 7966E1CC 		.ascii	"yf\341\314\263Q\261\\\312G\371\333\371\350JQ-\253k7"
 460      B351B15C 
 460      CA47F9DB 
 460      F9E84A51 
 460      2DAB6B37 
 461 01ea A272255A 		.ascii	"\242r%ZY\215*+q\024\027+q\361\326\205\030dy\365\316"
 461      598D2A2B 
 461      7114172B 
 461      71F1D685 
 461      186479F5 
 462 01ff 6F7310F8 		.ascii	"os\020\370\301"
 462      C1
 463              		.text
 464              		.section	.gnu.lto_chSchGoSleepTimeoutS.3b0180d7713fbc36,"",%progbits
 465 0000 789CA554 		.ascii	"x\234\245TMHTQ\024>\347\336\3677Zi\245\264L\204 \024"
 465      4D485451 
ARM GAS  /tmp/ccUb86vt.s 			page 35


 465      143EE7DE 
 465      F7375A69 
 465      A5B44C84 
 466 0016 7A046E5A 		.ascii	"z\004nZ\265h\327\246 \205q9\363\234f\356b0\034i\221"
 466      B568D7A6 
 466      20857139 
 466      F39C66EE 
 466      62301C69 
 467 002b 0BEFC840 		.ascii	"\013\357\310@\322j\220\030\372\331\214\0131Th!\201\213"
 467      D26A9018 
 467      FAD98C0B 
 467      31546821 
 467      818B
 468 003d A2572B43 		.ascii	"\242W+C\"j1\201\253\201ZiD\273B\252\327\271\367\276"
 468      226A3181 
 468      AB815A69 
 468      44BB42AA 
 468      D7B9F7BE 
 469 0051 798E6924 		.ascii	"y\216i$xa\316=\357\335\363}\337\271\347\2347\014\030"
 469      7861CE3D 
 469      EFDDF37D 
 469      DFB9E79C 
 469      370C18
 470 0064 FCBDAED2 		.ascii	"\374\275\256\322\357\222\0050\240\036R\200\024\201\214"
 470      EF920530 
 470      A01E5280 
 470      14818C
 471 0073 7100C91C 		.ascii	"q\000\311\0342\026g\226\362m\345[H\033\332\350\222u"
 471      32166796 
 471      F26DE55B 
 471      481BDAE8 
 471      9275
 472 0085 B475D123 		.ascii	"\264u\321#\353!\022\030a\232q\313v\\\017\247G\325\013"
 472      EB211218 
 472      619A71CB 
 472      765C0FA7 
 472      47D50B
 473 0098 B0FB615E 		.ascii	"\260\373a^\312\271\346\302\326\016>\274\037V\352\362"
 473      CAB9E6C2 
 473      D60E3EBC 
 473      1F56EAF2 
 474 00a8 6714210A 		.ascii	"g\024!\012u\030 \244\311\303>\275)\221\366e\200\341"
 474      751820A4 
 474      C9C33EBD 
 474      2991F665 
 474      80E1
 475 00ba C746EDCC 		.ascii	"\307F\355\314\275\246\254\312\337\204\023\310wa\236"
 475      BDA6ACCA 
 475      DF8413C8 
 475      77619E
 476 00c9 81E101B0 		.ascii	"\201\341\001\260\007\341\367\306\233y\224s\262\374-"
 476      07E1F7C6 
 476      9B799473 
 476      B2FC2D
 477 00d8 8ABA045A 		.ascii	"\212\272\004Z\207S\223\317>__\227\2250\212.\0372\303"
 477      875393CF 
 477      3E5F5F97 
ARM GAS  /tmp/ccUb86vt.s 			page 36


 477      95308A2E 
 477      1F32C3
 478 00eb B01ABE6C 		.ascii	"\260\032\276l\324P\326gZ\031\332\014\316c\202\254\233"
 478      D450D667 
 478      5A19DA0C 
 478      CE6382AC 
 478      9B
 479 00fc 9DF5EC85 		.ascii	"\235\365\354\205>ea3\212VV\177}z\216\275.b\021\251/"
 479      3E656133 
 479      8A56567F 
 479      7D7A8EBD 
 479      2E6211A9 
 480 0111 24C9C9A3 		.ascii	"$\311\311\243d\351\236\266zt@\247\0166T\244\254\366"
 480      64E99EB6 
 480      7A7440A7 
 480      0E3654A4 
 480      ACF6
 481 0123 E984680D 		.ascii	"\351\204h\015k;\242\032\305\327\241\362\345\325\213"
 481      6B3BA21A 
 481      C5D7A1F2 
 481      E5D58B
 482 0132 1ACFE022 		.ascii	"\032\317\340\"\265&\217\250\344\234(\342mj#\252l\374"
 482      B5268FA8 
 482      E49C28E2 
 482      6D6A23AA 
 482      6CFC
 483 0144 2DCC6CAE 		.ascii	"-\314l\256mmZ1Y\006\027\260\237\016\015\220V\036\331"
 483      6D6D5A31 
 483      590617B0 
 483      9F0E0D90 
 483      561ED9
 484 0157 200C90AA 		.ascii	" \014\220\252\266\356cxT\226\262[\2407\005;rVy\251\242"
 484      B6EE6378 
 484      5496B25B 
 484      A037053B 
 484      725679A9 
 485 016c 92D4174A 		.ascii	"\222\324\027Ji\342l\\\374,\266\272\360\016\356\206g"
 485      69E26C5C 
 485      FC2CB6BA 
 485      F00EEE86 
 485      67
 486 017d 33F84453 		.ascii	"3\370DS&\300\216 \016\230\202;\002;\215t\034E)\2538"
 486      26C08E20 
 486      0E98823B 
 486      023B8D74 
 486      1C4529AB 
 487 0192 4FE0B100 		.ascii	"O\340\261\000Y\362\222\011<\256\350*\315\245\215\216"
 487      59F29209 
 487      3CAEE82A 
 487      CDA58D8E 
 488 01a2 7D842702 		.ascii	"}\204'\0024\027\314#\027\330e\002\227\227;M`\036\255"
 488      3417CC23 
 488      17D86502 
 488      97973B4D 
 488      601EAD
 489 01b5 24B23B40 		.ascii	"$\262;@\353_\322\002O\002\250\002\226/&\300\264\031"
 489      EB5FD202 
ARM GAS  /tmp/ccUb86vt.s 			page 37


 489      4F02A802 
 489      962F26C0 
 489      B419
 490 01c7 B2F6E211 		.ascii	"\262\366\342\021\236+\376\225\355\375\211\234\012L\361"
 490      9E2BFE95 
 490      EDFD899C 
 490      0A4CF1
 491 01d6 0EA63FDD 		.ascii	"\016\246?\335\242\260u\375_o\307\3673aC\260*g\325\304"
 491      A2B075FD 
 491      5F6FC7F7 
 491      336143B0 
 491      2A67D5C4 
 492 01ea 244A4EAC 		.ascii	"$JN\254\264\246\256\274\370\237+\033\210\033w\366\307"
 492      B4A6AEBC 
 492      F89F2B1B 
 492      881B77F6 
 492      C7
 493 01fb D70FD89A 		.ascii	"\327\017\330\232\001\373\350}T\224\267Z|\316 ,IZ\243"
 493      01FBE87D 
 493      5494B75A 
 493      7CCE202C 
 493      495AA3
 494 020e 348DB14B 		.ascii	"4\215\261K\337G\0171\023C/\351\245\315\007\255\031X"
 494      DF470F31 
 494      13432FE9 
 494      A5CD07AD 
 494      1958
 495 0220 BCEF1D40 		.ascii	"\274\357\035@\372\217\340\033P\246mL\235\274\207r\230"
 495      FA8FE01B 
 495      50A66D4C 
 495      9DBC8772 
 495      98
 496 0231 8CAC6382 		.ascii	"\214\254c\202\206\225\270B\237\363\013\343\305\234\237"
 496      8695B842 
 496      9FF30BE3 
 496      C59C9F
 497 0240 BB99F3AF 		.ascii	"\273\231\363\257\024DV\\\273\341\217\227\374\211I\277"
 497      1444565C 
 497      BBE18F97 
 497      FC8949BF 
 498 0250 3411F841 		.ascii	"4\021\370A\241\024\024\306.\004\300nO\376\001#[\362"
 498      A11414C6 
 498      2E04C06E 
 498      4FFE0123 
 498      5BF2
 499 0262 F4       		.ascii	"\364"
 500              		.text
 501              		.section	.gnu.lto_chSchWakeupS.3b0180d7713fbc36,"",%progbits
 502 0000 789CCD54 		.ascii	"x\234\315T\317k\023A\024~of\177$mS{\022z\262\024\004"
 502      CF6B1341 
 502      147E6F66 
 502      7F246D53 
 502      7B127AB2 
 503 0016 31E8E2C9 		.ascii	"1\350\342\311\223x\360\017P\320B=\246kL\366\260D\232"
 503      9378F00F 
 503      50D0423D 
 503      A66B4CF6 
ARM GAS  /tmp/ccUb86vt.s 			page 38


 503      B0449A
 504 0029 DE3C7452 		.ascii	"\336<tR\"\024A-z\250\244\004\252\025\021%\010\236\212"
 504      2214412D 
 504      7AA8A404 
 504      AA151125 
 504      089E8A
 505 003c 5E021E2C 		.ascii	"^\002\036,\210\370\353R\002B\360\327\331K\261\224\322"
 505      88F8EB52 
 505      0242F0D7 
 505      D94BB194 
 505      D2
 506 004d F5CDCCEE 		.ascii	"\365\315\314\356v\011\013\215\361\342@f\337\356\314"
 506      76090B8D 
 506      F1E24066 
 506      DFEECC
 507 005c F7BDEF7D 		.ascii	"\367\275\357}o&\014\030\364\2163\364{c\002\344\345K"
 507      6F260C18 
 507      F48E33F4 
 507      7B6302E4 
 507      E54B
 508 006e 06907620 		.ascii	"\006\220v CN3g\006\200`\264&\014\003m\372b\242E\263"
 508      434E3367 
 508      068060B4 
 508      260C036D 
 508      FA62A245 
 509 0083 A5621B91 		.ascii	"\245b\033\221\000\010\363\214\033\246e\343\374e\371"
 509      0008F38C 
 509      1BA665E3 
 509      FC65F9
 510 0092 0E2393F0 		.ascii	"\016#\223\360@\210\273\335\037;\215\361\233\253\013"
 510      4088BBDD 
 510      1F3B8DF1 
 510      9BAB0B
 511 00a1 4B622F08 		.ascii	"Kb/\010\320\223K.\3024E8\241\036\222;94L\274x\"\262"
 511      D0934B2E 
 511      C2344538 
 511      A11E923B 
 511      39344CBC 
 512 00b8 AB623708 		.ascii	"\253b7\010\370`\030\376\177\345i\007\313\267\2226\364"
 512      F86018FE 
 512      7FE56907 
 512      CBB79236 
 512      F4
 513 00c9 2BEFCBF7 		.ascii	"+\357\313\367\013\033\242\336\016\202\263\375\313\373"
 513      0B1BA2DE 
 513      0E82B3FD 
 513      CBFB
 514 00d7 9DC0F42B 		.ascii	"\235\300\364+o\271\361h\200.\265\233\215\333\177U\225"
 514      6FB9F168 
 514      802EB59B 
 514      8DDB7F55 
 514      95
 515 00e8 8F71C2CE 		.ascii	"\217q\302\316\235q\221H\310\340\030\036\000~\316\332"
 515      9D719148 
 515      C8E0181E 
 515      007ECEDA 
 516 00f8 DD20D87D 		.ascii	"\335 \330}\265\365\265\211\207\263\210>\322\371\364"
ARM GAS  /tmp/ccUb86vt.s 			page 39


 516      B5F5B589 
 516      87B3883E 
 516      D2F9F4
 517 0107 9171A0CC 		.ascii	"\221q\240\314\006M`\312\310\222\221\015\005|\206\223"
 517      064D60CA 
 517      C892910D 
 517      057C8693 
 518 0117 748E952A 		.ascii	"t\216\225*Z\251\013\2614\341\207\225\321\270\024\316"
 518      5AA90BB1 
 518      34E18795 
 518      D1B814CE 
 519 0127 74CCF994 		.ascii	"t\314\371\224\334\303\337\301\302\333\365\275\016+`"
 519      DCC3DFC1 
 519      C2DBF5BD 
 519      0E2B60
 520 0136 0B4DBA06 		.ascii	"\013M\272\006O\005\215\323\036\032a\230\363\320\\\201"
 520      4F058DD3 
 520      1E1A6198 
 520      F3D05C81 
 521 0146 0629B34A 		.ascii	"\006)\263J\210\323\332&\0323\361S\007%\311Id\235\355"
 521      88D3DA26 
 521      1A33F153 
 521      0725C949 
 521      649DED
 522 0159 E0136AB2 		.ascii	"\340\023j\262\022\362<\034\367\320N\307G\227Q\202>\014"
 522      12F23C1C 
 522      F7D04EC7 
 522      47975182 
 522      3E0C
 523 016b 47104341 		.ascii	"G\020CA@\315\031\002\326\204\030\3630{\035v\304\242"
 523      40CD1902 
 523      D68418F3 
 523      307B1D76 
 523      C4A2
 524 017d 8C867C55 		.ascii	"\214\206|U\232$\032\012\211x\3704\022\204\277F#B\263"
 524      9A241A0A 
 524      8978F834 
 524      1284BF46 
 524      2342B3
 525 0190 478391A6 		.ascii	"G\203\221\246a\003\352?k\271X6\241\366;0%\211\371{\250"
 525      6103EA3F 
 525      6BB95836 
 525      A1F63B30 
 525      2589F97B 
 526 01a5 77175B61 		.ascii	"w\027[ae\000\261\236a76\200xG\"\210\251\255\355l?|m"
 526      6500B19E 
 526      61373680 
 526      78472288 
 526      A9ADED6C 
 527 01bc 846DD0BD 		.ascii	"\204m\320\275\001\210(\010aE\305*\253\357\341\300%\223"
 527      01882808 
 527      6145C52A 
 527      ABEFE1C0 
 527      2593
 528 01ce BAF69102 		.ascii	"\272\366\221\002\276T\362\3554q\226\022'\273}\177-\257"
 528      BE54F2ED 
 528      34719612 
ARM GAS  /tmp/ccUb86vt.s 			page 40


 528      27BB7D7F 
 528      2DAF
 529 01e0 77FEABD3 		.ascii	"w\376\253\323%I.\213\334\\\373\206Q\362L\217\335v\232"
 529      25492E8B 
 529      DC5CFB86 
 529      51F24C8F 
 529      DD769A
 530 01f3 DDDA234B 		.ascii	"\335\332#K{\264\276\371\3703\213\024)#Ny\230K?3\272"
 530      7BB4BEF9 
 530      F8338B14 
 530      29234E79 
 530      984B3F33 
 531 0208 2DF2CB28 		.ascii	"-\362\313(\252\262otWZa\356DS\016\271a*\202\223\004"
 531      AAB26F74 
 531      575A61EE 
 531      44530EB9 
 531      612A8293 
 532 021d 0FC7A29C 		.ascii	"\017\307\242\234\364\337\315?B\255\333<\021\267\001"
 532      F4DFCD3F 
 532      42ADDB3C 
 532      11B701
 533 022c F495203E 		.ascii	"\364\225 >\2119\352\224+~\321)^-:\347\312\336\214w\376"
 533      8939EA94 
 533      2B7ED129 
 533      5E2D3AE7 
 533      CADE8C77 
 534 0241 A253A93A 		.ascii	"\242S\251:\263sNu\326u\334r\325-_9\351\002\257\314]"
 534      B3734E75 
 534      D675DC72 
 534      D52D5F39 
 534      E902AFCC 
 535 0256 FB0302DF 		.ascii	"\373\003\002\337B\336"
 535      42DE
 536              		.text
 537              		.section	.gnu.lto_chSchIsPreemptionRequired.3b0180d7713fbc36,"",%progbits
 538 0000 789C9592 		.ascii	"x\234\225\222A/\003A\024\307\337\233\331\255\022\011"
 538      412F0341 
 538      14C7DF9B 
 538      D9AD1209 
 539 0010 2789B888 		.ascii	"'\211\270\210D\"\0326|\005\037@D%\304\251]\325\335C"
 539      44221A36 
 539      7C051F40 
 539      4425C4A9 
 539      5DD5DD43 
 540 0024 43D4CDA1 		.ascii	"C\324\315\241S\032\351\201\244\021\027\\H\020qqD8l\342"
 540      531AE981 
 540      A411175C 
 540      48107171 
 540      44386CE2 
 541 0038 22A10757 		.ascii	"\"\241\007W{\320\270\2706qC\2147\263]J\232`\222\235"
 541      7BD0B8B8 
 541      3671438C 
 541      37B35D4A 
 541      9A60929D 
 542 004c 796FE6FD 		.ascii	"yo\346\375\337\373\275\231e\300\340\347\350\242\357"
 542      DFFBBD99 
 542      65C0E0E7 
ARM GAS  /tmp/ccUb86vt.s 			page 41


 542      E8A2EF
 543 005b 81B60794 		.ascii	"\201\266\007\224c\000\222\211\0149\315\034\221\266\020"
 543      63009289 
 543      0C39CD1C 
 543      91B610
 544 006a 728C636E 		.ascii	"r\214cnJ\331`\366\300\236\020\033\225\203\323+\266\265"
 544      4AD960F6 
 544      C09E101B 
 544      9583D32B 
 544      B6B5
 545 007c E91576C5 		.ascii	"\351\025v\305\233\224\210\256:\264\021&\311\302n\275"
 545      9B9488AE 
 545      3AB41126 
 545      C9C26EBD 
 546 008c 30E37B99 		.ascii	"0\343{\231@\350]\372k-\245|QH\231\373\253h\333{\366"
 546      40E85DFA 
 546      6B2DA57C 
 546      514899FB 
 546      AB68DB7B 
 547 00a1 CFF750AC 		.ascii	"\317\367P\254\212|U\3126W\261\205\262h \303\206\265"
 547      8A7C55CA 
 547      3657B185 
 547      B26820C3 
 547      86B5
 548 00b3 2EFCF54E 		.ascii	".\374\365N\261\273\\\022\357\304\350\242\301\240\017"
 548      B1BB5C12 
 548      EFC4E8A2 
 548      C1A00F
 549 00c2 FF4AD9FA 		.ascii	"\377J\331\372\011I\262\330o\262\023\346U\244\274\365"
 549      0949B2D8 
 549      6FB213E6 
 549      55A4BCF5 
 550 00d2 CF1F5FB1 		.ascii	"\317\037_\261#\202@\2551H\340>\366\000W\216A\316!9&"
 550      238240AD 
 550      3148E03E 
 550      F600578E 
 550      41CE2139 
 551 00e7 687A5A0B 		.ascii	"hzZ\013B\224\272\203\210\340H\367D#\256\347\011\365"
 551      4294BA83 
 551      88E048F7 
 551      4423AEE7 
 551      09F5
 552 00f9 0CBC0CCB 		.ascii	"\014\274\014\313\367gt\323\011<B\023\322\2101\350\247"
 552      F76774D3 
 552      093C4213 
 552      D28831E8 
 552      A7
 553 010a 6C7A36F5 		.ascii	"lz6\365\034\331\201\355\274\020\355.6-\301\213(*+\232"
 553      1CD981ED 
 553      BC10ED2E 
 553      362DC18B 
 553      282A2B9A 
 554 011e D1291467 		.ascii	"\321)\024gT\323%k\327\223D\254\255\341_\240\012T#az"
 554      54D3256B 
 554      D79344AC 
 554      ADE15FA0 
 554      0A542361 
ARM GAS  /tmp/ccUb86vt.s 			page 42


 555 0133 16836341 		.ascii	"\026\203cAc\214\232\246\274\244o\246\232\223\301\353"
 555      638C9AA6 
 555      BCA46FA6 
 555      9A93C1EB 
 556 0143 6A1DAFD3 		.ascii	"j\035\257\323]\237\362P\310\353\270\376Id4$1j$\323\365"
 556      5D9FF250 
 556      C8EBB8FE 
 556      49643424 
 556      316A24D3 
 557 0158 24BC31C9 		.ascii	"$\2741\311Jy\345\351\013\305\2446\322a\326\011\025\306"
 557      4A79E5E9 
 557      0BC5A436 
 557      D261D609 
 557      15C6
 558 016a 6F204F55 		.ascii	"o OUgT\363w\200\237\201AH\\m\253\353\350\265\234\271"
 558      6754F377 
 558      809F8141 
 558      485C6DAB 
 558      EBE8B59C 
 559 017f 4CCA4ACD 		.ascii	"L\312J\315\246\254\021\307M\272\243\343\326\\\326ZX"
 559      A6AC11C7 
 559      4DBAA3E3 
 559      D65CD65A 
 559      58
 560 0190 B4B20BB6 		.ascii	"\264\262\013\266e;Y\333\231\031\264\201\315\017\261"
 560      653B59DB 
 560      9919B481 
 560      CD0FB1
 561 019f F9E10F77 		.ascii	"\371\341\017w\214\247\177"
 561      8CA77F
 562              		.text
 563              		.section	.gnu.lto_chSchDoRescheduleBehind.3b0180d7713fbc36,"",%progbits
 564 0000 789CA552 		.ascii	"x\234\245RO(DA\030\377\2767\357-\326\177\027m{\331\224"
 564      4F284441 
 564      18FFBE37 
 564      EF2DD67F 
 564      176D7BD9 
 565 0015 922D2F39 		.ascii	"\222-/9::99\2408\362,;\007\255\254\233\303\316\212\222"
 565      3A3A3939 
 565      A038F22C 
 565      3B07ADAC 
 565      9BC3CE8A 
 566 002a D0E688C4 		.ascii	"\320\346\210\304A\312\201\334\366\242\366\352 $%\207"
 566      41CA81DC 
 566      F6A2F6EA 
 566      20242587 
 567 003a 6D734094 		.ascii	"ms@\224\270J\236of\336cq\260\265So\346\233y\337\357"
 567      B84A9E6F 
 567      66DE6371 
 567      B0B5536F 
 567      E69B79DF 
 568 004f F7FDBEDF 		.ascii	"\367\375\276\337\214\001\006\374\036a\372\236\031@T"
 568      8C0106FC 
 568      1E61FA9E 
 568      194054
 569 005e 6E4C40CA 		.ascii	"nL@\312@\003\351\000\031\"\035!\244\014\206\251a\031"
 569      4003E900 
ARM GAS  /tmp/ccUb86vt.s 			page 43


 569      19221D21 
 569      A40C86A9 
 569      6119
 570 0070 83D5023B 		.ascii	"\203\325\002;B\254\025\026\3567BK\333s\031\361\341\272"
 570      42AC1516 
 570      EE37424B 
 570      DB7319F1 
 570      E1BA
 571 0082 C8E52F07 		.ascii	"\310\345/\007a\210\"\214\250\3050\177\026\321\260\334"
 571      6188228C 
 571      A8C5307F 
 571      16D1B0DC 
 572 0092 F1D64A31 		.ascii	"\361\326J1\214\225\010\273\312\237\354\240X\023\351"
 572      8C9508BB 
 572      CA9FECA0 
 572      5813E9
 573 00a1 17D7AD2F 		.ascii	"\027\327\255/\275Z>\277\034\314\244\027\205\353\246"
 573      BD5A3EBF 
 573      1CCCA417 
 573      85EBA6
 574 00b0 4A071DE5 		.ascii	"J\007\035\345WC\242\2503\003\332\360\037\344\241\221"
 574      5743A2A8 
 574      3303DAF0 
 574      1FE4A191 
 575 00c0 2BB8EEFB 		.ascii	"+\270\356\373\353\321m\026\233\003\010#\270\213-\004"
 575      EBD16D16 
 575      9B030823 
 575      B88B2D04 
 576 00d0 2434A389 		.ascii	"$4\243\211\2312\262\200k\007a^\210LD\347(M4\006\324"
 576      9932B280 
 576      6B07615E 
 576      884C44E7 
 576      284D3406 
 577 00e5 3C28BD67 		.ascii	"<(\275g\2470ws}\327=\202{h\301\004b\024\366\005\215"
 577      A7307773 
 577      7DD73D82 
 577      7B68C104 
 577      6214F605 
 578 00fa 2E8247A1 		.ascii	".\202G\241\235\243\271\001\353i!\0328Z\263\360&\026"
 578      9DA3B901 
 578      EB69211A 
 578      385AB3F0 
 578      2616
 579 010c 65149854 		.ascii	"e\024\230T\004R\\@I\032E\360V/\2003\230/l&|V\343\013"
 579      04525C40 
 579      491A45F0 
 579      562F8033 
 579      982F6C26 
 580 0124 5AE17829 		.ascii	"Z\341x)\362\244\222c\245*R\245K\021\3557\223~:\232\201"
 580      F2A49263 
 580      A52A52A5 
 580      4B11ED37 
 580      937E3A9A 
 581 0139 9A090290 		.ascii	"\232\011\002\220\324^\275W\351e\350\233\220\354\252"
 581      D45EBD57 
 581      E965E89B 
 581      90ECAA
ARM GAS  /tmp/ccUb86vt.s 			page 44


 582 0148 F3FB4BF4 		.ascii	"\363\373K\364E2\305WM|\204\253!+\206\364SS8Vt\001\203"
 582      4532C557 
 582      4D7C84AB 
 582      212B86F4 
 582      53533856 
 583 015f 72A78D7B 		.ascii	"r\247\215{\014\373h\263\\MJP\366<\350w\250\256\241\223"
 583      0CFB68B3 
 583      5C4D4A50 
 583      F63CE877 
 583      A8AEA193 
 584 0173 63ED9720 		.ascii	"c\355\227 \263X\220~\024\362\244\016=\277\017<\277\265"
 584      B358907E 
 584      14F2A40E 
 584      3DBF0F3C 
 584      BFB5
 585 0185 B9AA6ABD 		.ascii	"\271\252j\275\343\371H\355pl\320M?<1_\265U\276\3523"
 585      E3F948ED 
 585      706CD04D 
 585      3F3C315F 
 585      B555BEEA 
 586 019a B0FE946D 		.ascii	"\260\376\224mt<\303\250\202\252\334\004p\001\351B\326"
 586      743CC3A8 
 586      82AADC04 
 586      7001E942 
 586      D6
 587 01ab F653F518 		.ascii	"\366S\365\030\220,R`\253\035OL\306\354\330x\314\356"
 587      902C5260 
 587      AB1D4F4C 
 587      C6ECD878 
 587      CCEE
 588 01bd 89F351DE 		.ascii	"\211\363Q\336\327o'\222\366\364\214\235\234vl'\236t"
 588      D76F2792 
 588      F6F48C9D 
 588      9C766C27 
 588      9E74
 589 01cf E2631D0E 		.ascii	"\342c\035\016\260\304\314\324'\256:\334\350"
 589      B0C4CCD4 
 589      27AE3ADC 
 589      E8
 590              		.text
 591              		.section	.gnu.lto_chSchDoRescheduleAhead.3b0180d7713fbc36,"",%progbits
 592 0000 789CA554 		.ascii	"x\234\245TMHTQ\024>\347\375\2163\232\356B\332\210\020"
 592      4D485451 
 592      143EE7FD 
 592      8E339AEE 
 592      42DA8810 
 593 0014 44868F68 		.ascii	"D\206\217h\025\021.Z\265*HAW1>\315y\013\031Qw.\274c"
 593      15112E5A 
 593      B52A4841 
 593      57313ECD 
 593      790B1951 
 594 002c 06125422 		.ascii	"\006\022T\"\004\226\201\271\010\372AZ\005A\006\202-"
 594      049681B9 
 594      08FA415A 
 594      05410682 
 594      2D
 595 003d 94088B16 		.ascii	"\224\010\213\026\351\264\230!\242\265!\3703\243\276"
ARM GAS  /tmp/ccUb86vt.s 			page 45


 595      E9B49821 
 595      A2B521F8 
 595      33A3BE
 596 004c CEFD79CF 		.ascii	"\316\375y\317\3470\3410^\230s\357}\367~\347;\3379\347"
 596      E730E130 
 596      5E9873EF 
 596      7DF77EE7 
 596      3BDF39E7 
 597 0060 8E061A94 		.ascii	"\216\006\032\224\016\207~\037l\200V\276\261\000\351"
 597      0E877E1F 
 597      6C8056BE 
 597      B100E9
 598 006f 066AA893 		.ascii	"\006j\250\223\325\321 khd\231f\2221LD\272\2040\252\351"
 598      D5D1206B 
 598      68649966 
 598      92314C44 
 598      BA8430AA 
 599 0084 B41EEDE2 		.ascii	"\264\036\355\342;\2107\303\034cS\371{[3\215\367\237"
 599      3B8837C3 
 599      1C6353F9 
 599      7B5B338D 
 599      F79F
 600 0096 8F4DB203 		.ascii	"\217M\262\003\337G\217\037\271\010\235\264\302&1q?\321"
 600      DF478F1F 
 600      B9089DB4 
 600      C2263171 
 600      3FD1
 601 00a8 21618BEF 		.ascii	"!a\213\357f\037Daz\205\260\217\271\2259dS,\263\341\373"
 601      661F4461 
 601      7A85B08F 
 601      B9953964 
 601      532CB3E1 
 602 00bd F595B3AD 		.ascii	"\365\225\263\255\317>\252\202\215\355\376\276\271\314"
 602      CF3EAA82 
 602      8DEDFEBE 
 602      B9CC
 603 00cb C6177DBF 		.ascii	"\306\027}\277\255\362\010s\271\307\325\344\343\357\354"
 603      ADF20873 
 603      B9C7D5E4 
 603      E3EFEC
 604 00da E76A846D 		.ascii	"\347j\204mW\227\217'\271\207\215,\022\244\006\347\260"
 604      57978F27 
 604      B9878D2C 
 604      12A406E7 
 604      B0
 605 00eb B294FCE8 		.ascii	"\262\224\374\350\0113B\250\013\307\241\336j\213y\337"
 605      093342A8 
 605      0BC7A1DE 
 605      6A8B79DF 
 606 00fb 5FD89DFF 		.ascii	"_\330\235\377\265\207\247\353\020\222\370\006\233\011"
 606      B587A7EB 
 606      1092F806 
 606      9B09
 607 0109 98C45734 		.ascii	"\230\304W4\353@^\0142\272\311W\226:\266\325\034\343"
 607      EB405E0C 
 607      32BAC957 
 607      963AB6D5 
ARM GAS  /tmp/ccUb86vt.s 			page 46


 607      1CE3
 608 011b 2735DCC4 		.ascii	"'5\334\304\371q\202\233Z\020*\301\204q\306&\233\244"
 608      F971829B 
 608      5A102AC1 
 608      8471C626 
 608      9BA4
 609 012d 1F795D68 		.ascii	"\037y]h\247\321.l\007oi\375\013\214e\3276\257$q\036"
 609      A7D12E6C 
 609      076F69FD 
 609      0B8C65D7 
 609      36AF2471 
 610 0142 4DE843AD 		.ascii	"M\350C\255\005^3\032\227\310I\013\234\367\320\230\201"
 610      055E331A 
 610      97C8490B 
 610      9CF7D098 
 610      81
 611 0153 A719C61A 		.ascii	"\247\031\306\032<4G\240\300&\370\312\352\027\016\270"
 611      3C3447A0 
 611      C026F8CA 
 611      EA170EB8 
 612 0163 1C4B88E8 		.ascii	"\034K\210\350FP\263Z\300*\214\347\327\322\201W=\204"
 612      4650B35A 
 612      C02A8CE7 
 612      D7D28157 
 612      3D84
 613 0175 DAAEBAC2 		.ascii	"\332\256\272\302\277\304<\214\011\222\032IEn\017=\311"
 613      BFC43C8C 
 613      09921A49 
 613      456E0F3D 
 613      C9
 614 0186 17293D90 		.ascii	"\027)=\220\2448\000\205z]\356\305\365\023\304\327\307"
 614      A4380085 
 614      7A5DEEC5 
 614      F513C4D7 
 614      C7
 615 0197 9B5528DF 		.ascii	"\233U(\337\372\216A\220\206\360\227 \177\204\253\245"
 615      FA8E4190 
 615      86F09720 
 615      7F84ABA5 
 616 01a7 5474CAEE 		.ascii	"Tt\312\356\0248=R\262\016\276\223\211\333>\023\240\315"
 616      14383D52 
 616      B20EBE93 
 616      89DB3E13 
 616      A0CD
 617 01b9 93C62402 		.ascii	"\223\306$\002z\3775\036(\024e\270\350a]\030\220\031"
 617      7AFF351E 
 617      281465B8 
 617      E8615D18 
 617      9019
 618 01cb 0D48B611 		.ascii	"\015H\266\021\377r\012\025v\272\260\244\035A\327E\321"
 618      FF720A15 
 618      76BAB0A4 
 618      1D41D745 
 618      D1
 619 01dc DA7FD08A 		.ascii	"\332\177\320\212\271p\367E[\240\305\222Q\263.Q\037\341"
 619      B970F745 
 619      5BA0C592 
ARM GAS  /tmp/ccUb86vt.s 			page 47


 619      51B32E51 
 619      1FE1
 620 01ee 6A441449 		.ascii	"jD\024I,o\227\257T$=\206J\317Na)\314\256\255\320\227"
 620      2C6F97AF 
 620      54243D86 
 620      4ACF4E61 
 620      29CCAEAD 
 621 0204 29883026 		.ascii	")\2100&\214\306d\036\246!;]\334\014\221\261\222\272"
 621      8CC6641E 
 621      A6213B5D 
 621      DC0C91B1 
 621      92BA
 622 0216 D8E5EAC2 		.ascii	"\330\345\352\302A\223\365\001\244\246\222R.\303\247"
 622      4193F501 
 622      A4A69252 
 622      2EC3A7
 623 0225 3F193B64 		.ascii	"?\031;d!T\240`\035\220\222\240?\333o$6ca?\311E\231R"
 623      2154A060 
 623      1D9092A0 
 623      3FDB6F24 
 623      3663613F 
 624 023d D4CA5AB1 		.ascii	"\324\312Z\261\210\245Y\206\362L\246j6[\306\267S\374"
 624      88A55986 
 624      F24CA66A 
 624      365BC6B7 
 624      53FC
 625 024f A9057471 		.ascii	"\251\005tq\331.\345EY\207\242V6\354\012\311,E&\037J"
 625      D92EE545 
 625      5987A256 
 625      36EC0AC9 
 625      2C45261F 
 626 0264 76E2400F 		.ascii	"v\342@\017\270\022%\\e`\212+q\204\353j\024\224('L\223"
 626      B812255C 
 626      65608A2B 
 626      7184EB6A 
 626      14942827 
 627 027a B8970197 		.ascii	"\270\227\001\227\002&\216Q\026\000\263;\007\341\373"
 627      02268E51 
 627      1600B33B 
 627      07E1FB
 628 0289 A93DF9FB 		.ascii	"\251=\371\373Y\005S\375]@\010\253wU{\366\011\345\036"
 628      590553FD 
 628      5D4008AB 
 628      77557BF6 
 628      09E51E
 629 029c 36007C83 		.ascii	"6\000|\203L~\317\011\256\312\321\316\275\360\233g\235"
 629      4C7ECF09 
 629      AECAD1CE 
 629      BDF09B67 
 629      9D
 630 02ad 54BABFD7 		.ascii	"T\272\277\327\351\275\323\353\\Ky\335\336\215[Nz\310"
 630      E9BDD3EB 
 630      5C4B79DD 
 630      DE8D5B4E 
 630      7AC8
 631 02bf 191C7686 		.ascii	"\031\034v\206\006]\307M\015\271\251\236V\027\364\364"
 631      065DC74D 
ARM GAS  /tmp/ccUb86vt.s 			page 48


 631      0DB9A99E 
 631      5617F4F4 
 632 02cf F080E60E 		.ascii	"\360\200\346\016\374\003C-\254["
 632      FC03432D 
 632      AC5B
 633              		.text
 634              		.section	.gnu.lto_chSchRescheduleS.3b0180d7713fbc36,"",%progbits
 635 0000 789C6362 		.ascii	"x\234cb`b@\007\032@\314\305\310\300\240\016\342\260"
 635      60624007 
 635      1A40CCC5 
 635      C8C0A00E 
 635      E2B0
 636 0012 32300255 		.ascii	"20\002U02113040\261\000\011\026fF \305\310\302\010T"
 636      30323131 
 636      33303430 
 636      B1000916 
 636      664620C5 
 637 002a C2C0C850 		.ascii	"\302\300\310P\317\304\314\302X\037\011\34200*1,lh\230"
 637      CFC4CCC2 
 637      581F09E2 
 637      30302A31 
 637      2C6C6898 
 638 003e F4E0E8BA 		.ascii	"\364\340\350\272\333\314\323\247\034h\\\320\360\347"
 638      DBCCD3A7 
 638      1C685CD0 
 638      F0E7
 639 004c FF7F46C6 		.ascii	"\377\177F\306L\220d2#C\004\220\305\310\001\246\230\030"
 639      4C906432 
 639      23430490 
 639      C5C801A6 
 639      9818
 640 005e 51ED5CCF 		.ascii	"Q\355\\\317t\340\301\377\377o\256~}\270\227Q\014(\011"
 640      74E0C1FF 
 640      FF6FAE7E 
 640      7DB89751 
 640      0C2809
 641 0071 D602B4BC 		.ascii	"\326\002\264\274\245\241a\202\002X3\020\204\200\311"
 641      A5A16182 
 641      02583310 
 641      8480C9
 642 0080 50908398 		.ascii	"P\220\203\230\31734?\330\365\226/\221q\021#+C:#c5\303"
 642      CF33343F 
 642      D8F5962F 
 642      91711123 
 642      2B433A23 
 643 0097 AF868E06 		.ascii	"\257\206\216\006\201LF\346dF\210\331\231 g\236`hy\323"
 643      814C46E6 
 643      644688D9 
 643      9920679E 
 643      606879D3 
 644 00ab C80B5715 		.ascii	"\310\013W\025\001q\013\002\20422C\015\333\0153\214\201"
 644      01710B02 
 644      84323243 
 644      0DDB0D33 
 644      8C81
 645 00bd 016E166B 		.ascii	"\001n\026k2#\023\324,6\230z\240\241\314\027\031\032"
 645      322313D4 
ARM GAS  /tmp/ccUb86vt.s 			page 49


 645      2C36987A 
 645      A0A1CC17 
 645      191A
 646 00cf 1FECD585 		.ascii	"\037\354\325\205)\207\200\020\220\265 \325\252\372\031"
 646      29878010 
 646      90B520D5 
 646      AAFA19
 647 00de F9B9A9FA 		.ascii	"\371\271\251\372\251i\251\372\316\031\231I\231\376\301"
 647      A969A9FA 
 647      CE199949 
 647      99FEC1
 648 00ed FAF9C5FA 		.ascii	"\372\371\305\372E%\372\305E\311\372\311\031\305\311"
 648      4525FAC5 
 648      45C9FAC9 
 648      19C5C9
 649 00fc 19297AC9 		.ascii	"\031)z\311\014\000\206]G\302"
 649      0C00865D 
 649      47C2
 650              		.text
 651              		.section	.gnu.lto_chSchDoReschedule.3b0180d7713fbc36,"",%progbits
 652 0000 789C6362 		.ascii	"x\234cb`b@\007\"@\\\011\304\352 \0163\003#P\005#\023"
 652      60624007 
 652      22405C09 
 652      C4EA200E 
 652      33032350 
 653 0017 232390C3 		.ascii	"##\220\303\310P\317\304X\037\311\010V\266\236\351\300"
 653      C850CFC4 
 653      581FC908 
 653      56B69EE9 
 653      C0
 654 0028 83FFFFD7 		.ascii	"\203\377\377\327mx\364\3410\343\236\215, AV\206\226"
 654      6D78F4E1 
 654      30E39E8D 
 654      2C204156 
 654      8696
 655 003a 8686090A 		.ascii	"\206\206\011\012\014\014\311`%!`2\024d\000\363y\206"
 655      0C0CC960 
 655      25216032 
 655      146400F3 
 655      7986
 656 004c E607BB36 		.ascii	"\346\007\2736>aLd\\\310\310\012\024\255f\370\325\320"
 656      3E614C64 
 656      5CC8C80A 
 656      14AD66F8 
 656      D5D0
 657 005e D12090C9 		.ascii	"\321 \220\311\010T\0131/\023D_dh|\0004\014\246\012\002"
 657      08540B31 
 657      2F13445F 
 657      64687C00 
 657      340CA60A 
 658 0073 42403220 		.ascii	"B@2 w\252\352g\344\347\246\352\247\246\245\352;gd&e"
 658      77AAEA67 
 658      E4E7A6EA 
 658      A7A6A5EA 
 658      3B676426 
 659 0088 FA07EBE7 		.ascii	"\372\007\353\347\027\353\027\225\350\027\027%\353'g"
 659      17EB1795 
ARM GAS  /tmp/ccUb86vt.s 			page 50


 659      E8171725 
 659      EB2767
 660 0097 142767A4 		.ascii	"\024'g\244\350%3\000\000xZ*\316"
 660      E8253300 
 660      00785A2A 
 660      CE
 661              		.text
 662              		.section	.gnu.lto_.symbol_nodes.3b0180d7713fbc36,"",%progbits
 663 0000 789C4DD1 		.ascii	"x\234M\321IN\002A\024\306\361\357U\203L\212(\22344\354"
 663      494E0241 
 663      14C6F1EF 
 663      55834C8A 
 663      28933434 
 664 0015 1CEE60E2 		.ascii	"\034\356`\342Y8\311\207\21528$n\274\000\236\302-lt\343"
 664      5938C987 
 664      8D323824 
 664      6EBC009E 
 664      C22D6C74 
 665 002a 4A5D0BAE 		.ascii	"J]\013\256L\334;\243]]D^o\376\371\275\252\364\353\244"
 665      4CDC3BA3 
 665      5D5D445E 
 665      6FFEF9BD 
 665      AAF4EBA4 
 666 003e 0D0CAE0D 		.ascii	"\015\014\256\015\334c\266\011\\\334\001\344\345\240"
 666      DC63B609 
 666      5CDC01E4 
 666      E5A0
 667 004c 6D76284A 		.ascii	"mv(J\2734J{\364\224\366\231P:`r\251\344\033\220\"\314"
 667      BB344A7B 
 667      F494F699 
 667      503A6072 
 667      A9E41B90 
 668 0062 0DB8A2EE 		.ascii	"\015\270\242\356\334\202)\305\0070\255\370\002f\024"
 668      DC8229C5 
 668      0730ADF8 
 668      026614
 669 0071 DFC1EC82 		.ascii	"\337\301\354\202\217\0031\037`N\361\023\\U\374\002\327"
 669      8F03311F 
 669      604EF113 
 669      5C55FC02 
 669      D7
 670 0082 14BFC1BC 		.ascii	"\024\277\301\274\342\017\270\2568\007\013\212\277\340"
 670      E20FB8AE 
 670      38070B8A 
 670      BFE0
 671 0090 866247B8 		.ascii	"\206bG\270\251\030\012\213\013\336\017\333\346PXR\247"
 671      A9180A8B 
 671      0BDE0FDB 
 671      E6505852 
 671      A7
 672 00a1 5D6159F1 		.ascii	"]aY\361HXQ\354\011\253\212}\341\226\342@XS<\026\372"
 672      485851EC 
 672      09AB8A7D 
 672      E196E240 
 672      58533C16 
 673 00b6 8A43617D 		.ascii	"\212Ca}I9\0256\034;\035\221sa\260\324\231\260\371//"
 673      49391536 
ARM GAS  /tmp/ccUb86vt.s 			page 51


 673      1C3B1D91 
 673      7361B0D4 
 673      99B0F92F 
 674 00cb FAAFE1D3 		.ascii	"\372\257\341\323\\<O\\S\3065\355\271\346\022\256\245"
 674      5C3C4F5C 
 674      53C635ED 
 674      B9E612AE 
 674      A5
 675 00dc 144671D3 		.ascii	"\024Fq\323\030Om\263\010\373\257-\257T\3008n\021\243"
 675      184F6DB3 
 675      08FBAF2D 
 675      AF54C038 
 675      6E11A3
 676 00ef 13DBE8DC 		.ascii	"\023\333\350\334\266\234\307\330\336/\007\270\352E\256"
 676      B69CC7D8 
 676      DE2F07B8 
 676      EA45AE
 677 00fe B430B1AE 		.ascii	"\2640\261\256\2241\213\233Ah\337Sib2u\363\320\336\253"
 677      94318B9B 
 677      4168DF53 
 677      69623275 
 677      F3D0DEAB 
 678 0112 46EFB18E 		.ascii	"F\357\261\216:\213\033\340\331\316ky\267\277Vt\373k"
 678      3A8B1BE0 
 678      D9CE6B79 
 678      B7BF5674 
 678      FB6B
 679 0124 01BA76EE 		.ascii	"\001\272v\356/\346~t\317\356\255'\335\367\326}\267\277"
 679      2FE67E74 
 679      CFEEAD27 
 679      DDF7D67D 
 679      B7BF
 680 0136 E1C7C61F 		.ascii	"\341\307\306\037\010[\344w"
 680      085BE477 
 681              		.text
 682              		.section	.gnu.lto_.refs.3b0180d7713fbc36,"",%progbits
 683 0000 789C458A 		.ascii	"x\234E\212K\016\300 \020B\021#\233.\375\266\027\363"
 683      4B0EC020 
 683      10421123 
 683      9B2EFDB6 
 683      17F3
 684 0012 FE377146 		.ascii	"\3767qF\323\010!\360\022\010b\342\210\011\202\364P\301"
 684      D30821F0 
 684      120862E2 
 684      880982F4 
 684      50C1
 685 0024 CC934CA9 		.ascii	"\314\223L\251b\023\266c3*\326\335\311>\303;\275\367"
 685      6213B663 
 685      332AD6DD 
 685      C93EC33B 
 685      BDF7
 686 0036 A3EFDF74 		.ascii	"\243\357\337t^oM\002!"
 686      5E6F4D02 
 686      21
 687              		.text
 688              		.section	.gnu.lto_.decls.3b0180d7713fbc36,"",%progbits
 689 0000 789CBD5C 		.ascii	"x\234\275\\y|\024U\236\257\252\356\334\201 \036\203"
ARM GAS  /tmp/ccUb86vt.s 			page 52


 689      797C1455 
 689      9EAFAAEE 
 689      DC81201E 
 689      83
 690 0011 3BE31277 		.ascii	";\343\022wu\227uv\014\216\243\353\3741\343\301|\024"
 690      75977576 
 690      0C8EA3EB 
 690      FC31E3C1 
 690      7C14
 691 0023 F6B3CEF8 		.ascii	"\366\263\316\370!23\353\216\333\026\235\202\364\330"
 691      213233EB 
 691      8EDB169D 
 691      82F4D8
 692 0032 4937DD15 		.ascii	"I7\335\025\216\375\307J\010\001\214HH8\3440\004\023"
 692      8EFDC74A 
 692      08018C48 
 692      4838E430 
 692      0413
 693 0044 84287738 		.ascii	"\204(w8$\021\350\200!\301p\2043\0229\002(.\016r\007"
 693      2411E880 
 693      21C17084 
 693      33123902 
 693      282E0E72 
 694 0059 B934FB7B 		.ascii	"\2714\373{\257\336\353\256z\375\252\273:~\334\376\360"
 694      AFDEEBAE 
 694      7AFDAABB 
 694      3A7EDCFE 
 694      F0
 695 006a EA7CEFFB 		.ascii	"\352|\357\373~\307\367\367\316\012\222 \011\245\351"
 695      7EC7F7F7 
 695      CE0A9220 
 695      09A5E9
 696 0079 82D00BBF 		.ascii	"\202\320\013\277\342\027\004\341\357R\005\341\001A\020"
 696      E21704E1 
 696      EF5205E1 
 696      014110
 697 0088 7E2B447E 		.ascii	"~+D~\203!-\201\364>\244zH+ \255\206\224+\012\302+\220"
 697      83212D81 
 697      F43EA47A 
 697      482B20AD 
 697      86942B0A 
 698 009f 5E85F41A 		.ascii	"^\205\364\032\244\251\220*!\315\201T\015\251\026R=\244"
 698      A4A9902A 
 698      21CD8154 
 698      0DA91652 
 698      3DA4
 699 00b1 95901A20 		.ascii	"\225\220\032 m\201\264\003R+\244\335\220\016B:\006\351"
 699      6D81B403 
 699      522BA4DD 
 699      900E423A 
 699      06E9
 700 00c3 2CA47390 		.ascii	",\244s\220\316C\272\010\351\012\244\036H\267 }\017\011"
 700      CE43BA08 
 700      E90AA41E 
 700      48B7207D 
 700      0F09
 701 00d5 FE094992 		.ascii	"\376\011I\222`\372!y\320\363\341\344\271D\236\375;\223"
ARM GAS  /tmp/ccUb86vt.s 			page 53


 701      60FA2179 
 701      D0F3E1E4 
 701      B9449EFD 
 701      3B93
 702 00e7 4F2072B3 		.ascii	"O r\263y\321\263?p\362\326\223\367\271pxO\210\344\257"
 702      79D1B33F 
 702      70F2D693 
 702      F7B97078 
 702      4F88E4AF 
 703 00fb 27F8EC6F 		.ascii	"'\370\354o\205E\376\025\244\016\366\207\354\346\200"
 703      8545FE15 
 703      A40EF687 
 703      ECE680
 704 010a D408A901 		.ascii	"\324\010\251\001\322:\222\1773\244\337\023]W\023y_\022"
 704      D23A927F 
 704      33A4DF13 
 704      5D571379 
 704      5F12
 705 011c CD6591BD 		.ascii	"\315e\221\2753\340<\012\316\375\341\234IpR\010V?\000"
 705      33E03C0A 
 705      CEFDE19C 
 705      49705208 
 705      563F00
 706 012f 4A86F432 		.ascii	"J\206\3642\244\235p\337\004)\011\345\203\373\273%\275"
 706      A49D70DF 
 706      042909E5 
 706      83FBBB25 
 706      BD
 707 0140 8E16480F 		.ascii	"\216\026H\017H:>\302Cu#\333\216bl\361\212\310\327\013"
 707      483A3EC2 
 707      437523DB 
 707      8E626CF1 
 707      8AC8D70B 
 708 0154 3DAFE7E8 		.ascii	"=\257\347\350\365\252E~\364|\005'?\342K\012\243\313"
 708      F5AA457E 
 708      F47C0527 
 708      3FE24B0A 
 708      A3CB
 709 0166 1B70FD3F 		.ascii	"\033p\375?\220\362 \271\211-&\221\363k\004\277\024\316"
 709      90F220B9 
 709      892D2691 
 709      F36B04BF 
 709      14CE
 710 0178 7F646445 		.ascii	"\177ddE\274K\026\364D\261~\016\317\312!\275I\312?B\316"
 710      BC4B16F4 
 710      44B17E0E 
 710      CFCA21BD 
 710      49CA3F42 
 711 018d 53C97926 		.ascii	"S\311y&c\333Jb\333?I\272O\250=\327\010\272-\251]S\210"
 711      63DB4A62 
 711      DB3F49BA 
 711      4FA83DD7 
 711      08BA2DA9 
 712 01a4 CDFF2C99 		.ascii	"\315\377,\231m{/\244\373!\375T\322\345Dx\324\217,w\347"
 712      6D7B2FA4 
 712      FB21FD54 
 712      D2E54478 
ARM GAS  /tmp/ccUb86vt.s 			page 54


 712      D48F2C77 
 713 01b9 10795304 		.ascii	"\020yS\004\263\037\233H]\210\037\315\202\356\253\035"
 713      B31F9B48 
 713      5D881FCD 
 713      82EEAB1D 
 714 01c9 04630ED1 		.ascii	"\004c\016\321\177\021\234\0270\262W\023\274F\003^\223"
 714      7F119C17 
 714      30B25713 
 714      BC46035E 
 714      93
 715 01da 10E117C5 		.ascii	"\020\341\027\305C\374\242x\325\004\257\006\316K\030"
 715      43FCA278 
 715      D504AF06 
 715      CE4B18
 716 01e9 BC5A0E1E 		.ascii	"\274Z\016\036\305j\"x\233\011&\305\253%x\313\340\374"
 716      C56A2278 
 716      9B0926C5 
 716      AB2578CB 
 716      E0FC
 717 01fb 9F8CBEF5 		.ascii	"\237\214\276\3656\360\250l\315\004\257\236\340}\210"
 717      36F0A86C 
 717      CD04AF9E 
 717      E07D88
 718 020a DA18060F 		.ascii	"\332\030\006\017\265'N\216\276\222`\306XI0\326\302\371"
 718      B5274E8E 
 718      BE9260C6 
 718      584930D6 
 718      C2F9
 719 021c BF188C06 		.ascii	"\277\030\214\006\216L\317\301\263Mb\004k\270\030\301"
 719      8E4CCFC1 
 719      B34D6204 
 719      6BB818C1 
 720 022c 6A20588D 		.ascii	"j X\215p\336\314\330kK\202X[\010V3\234\377\302\310\265"
 720      70DECCD8 
 720      6B4B8258 
 720      5B085633 
 720      9CFFC2C8 
 721 0241 83F05034 		.ascii	"\203\360P4`Q\316\335!z\032\371\211\271\011\351\266\020"
 721      6051CEDD 
 721      217A1AF9 
 721      89B909E9 
 721      B610
 722 0253 E122CB9D 		.ascii	"\341\"\313\235\035\304^\257\302\273\026Q\347\243\233"
 722      1DC45EAF 
 722      C2BB1651 
 722      E7A39B
 723 0262 A917B5C9 		.ascii	"\251\027\265\311\3670\365\2422\177\017\017\036\022\365"
 723      F730F5A2 
 723      327F0F0F 
 723      1E12F5
 724 0271 FA696C53 		.ascii	"\372ilS9P\037\221\011\357\006\243\230\205w\323\340\254"
 724      39501F91 
 724      09EF06A3 
 724      988577D3 
 724      E0AC
 725 0283 C079159C 		.ascii	"\300y\025\234\263\210M\222\210l\031p\377\000\244\177"
 725      B3884D92 
ARM GAS  /tmp/ccUb86vt.s 			page 55


 725      886C1970 
 725      FF00A47F 
 726 0293 44F14EDE 		.ascii	"D\361N\336\241:i\3771\225\364\023;H\273\260\013\316"
 726      A13A69FF 
 726      3195F413 
 726      3B48BBB0 
 726      0BCE
 727 02a5 63006B2C 		.ascii	"c\000k,\244|H\036H\177\205\364:#7\352G\356bl\237\"\230"
 727      A47C481E 
 727      487F85F4 
 727      3A2337EA 
 727      47EE626C 
 728 02bc DB422AAF 		.ascii	"\333B*\257\327\020\333u\242n;\244o\001<\277.F\342\031"
 728      D710DB75 
 728      A26E3BA4 
 728      6F013CBF 
 728      2E46E219 
 729 02d0 B58F4866 		.ascii	"\265\217HfdKdG\007\251\247\226\364KH\204\0161:\256Q"
 729      644B6447 
 729      07A9A796 
 729      F44B4884 
 729      0E313AAE 
 730 02e5 7F761F23 		.ascii	"\177v\037#\313(b\013\324\2469\030\271\012%\275\235C"
 730      CB28620B 
 730      D4A63918 
 730      B90A25BD 
 730      9D43
 731 02f7 ED5E2F24 		.ascii	"\355^/$\037\334\357\201\263\037\3162\234\307!9D\335"
 731      1FDCEF81 
 731      B31FCE32 
 731      9CC72139 
 731      44DD
 732 0309 C64DC41F 		.ascii	"\306M\304\037T\276\014\203\035Q\275\250\237\244\375"
 732      54BE0C83 
 732      1D51BDA8 
 732      9FA4FD
 733 0318 2A6A2B6F 		.ascii	"*j+o\021\237\037\205\363gD\326\000#\3571\013\333e\031"
 733      119F1F85 
 733      F36744D6 
 733      0023EF31 
 733      0BDB6519 
 734 032c EADCC9C8 		.ascii	"\352\334\311\310L\375{\207\261]\262\020\221\251\205"
 734      4CFD7B87 
 734      B15DB210 
 734      91A985
 735 033b B1A383D4 		.ascii	"\261\243\203\324\265\203\330\017\311\025\204w\247\340"
 735      B583D80F 
 735      C9158477 
 735      A7E0
 736 0349 FA0CC78E 		.ascii	"\372\014\307\216h<\220\316\261\343N!\272\237\213\327"
 736      683C90CE 
 736      B1E34E21 
 736      BA9F8BD7 
 737 0359 C79D1523 		.ascii	"\307\235\025#}\334D\246\0364\346\270;\016wx\234i\022"
 737      7DDC44A6 
 737      1E34E6B8 
 737      3B0E7778 
ARM GAS  /tmp/ccUb86vt.s 			page 56


 737      9C6912
 738 036c 22FA537B 		.ascii	"\"\372S{\3608D\371s\233\370\356\034\341\020\265\003"
 738      F03844F9 
 738      739BF8EE 
 738      1CE110B5 
 738      03
 739 037d AF6F386F 		.ascii	"\257o8o\203\317\361d\242\262\244X\310B\333m\007\251"
 739      83CFF164 
 739      A2B2A458 
 739      C842DB6D 
 739      07A9
 740 038f AF36863C 		.ascii	"\2576\206<\027\305\350~z\022\222C4\367\365\016\222\027"
 740      17C5E87E 
 740      7A129243 
 740      34F7F50E 
 740      9217
 741 03a1 8D29CE33 		.ascii	"\215)\3163\355#\372]\021\371\343\203+\026\371\007\013"
 741      ED23FA5D 
 741      11F9E383 
 741      2B16F907 
 741      0B
 742 03b2 D55AA8A3 		.ascii	"\325Z\250\243\273\345\354ii\276\026*\325`x\252\211\331"
 742      BBE5EC69 
 742      69BE162A 
 742      D56078AA 
 742      89D9
 743 03c4 F7097334 		.ascii	"\367\011s4\370\325\224i\232\250\312\342o\357\025\376"
 743      F8D59469 
 743      9AA8CAE2 
 743      6FEF15FE 
 744 03d4 2CCA62FF 		.ascii	",\312b\3774!\033_d\246a;\243\350yO\274\217\\\215r\320"
 744      34211B5F 
 744      64A6613B 
 744      A3E8794F 
 744      BC8F5C8D 
 745 03ea DA9E1085 		.ascii	"\332\236\020\205G\204z(_\241i\247\007G\327\011\277\177"
 745      47847A28 
 745      5FA169A7 
 745      0747D709 
 745      BF7F
 746 03fc 1296A20A 		.ascii	"\022\226\242\012\264\345\232\003\303#\200%\242)\257"
 746      B4E59A03 
 746      C3238025 
 746      A229AF
 747 040b 2CD68A26 		.ascii	",\326\212&#\351\242\206\216\034\311\254(\356\356\355"
 747      23E9A286 
 747      8E1CC9AC 
 747      28EEEEED 
 748 041b 5D5C3340 		.ascii	"]\\3@\257^\022\236\027!w\235\370HL\370\367Y\370e\\\370"
 748      AF5E129E 
 748      1721779D 
 748      F8484CF8 
 748      F759F865 
 749 0431 5BD1F023 		.ascii	"[\321\360#\355\300\327\263\360\037p\341\253;\243\340"
 749      EDC0D7B3 
 749      F01F70E1 
 749      AB3BA3E0 
ARM GAS  /tmp/ccUb86vt.s 			page 57


 750 0441 153BF02B 		.ascii	"\025;\360+X\370\225<\370\356kS\217\337\337'?\256!~t"
 750      58F8953C 
 750      F8EE6B53 
 750      8FDFDF27 
 750      3FAE217E 
 751 0456 60B640D7 		.ascii	"`\266@\327\370\246\246\225\240\202\303\333\372\017\024"
 751      F8A6A695 
 751      A082C3DB 
 751      FA0F14
 752 0465 662194EC 		.ascii	"f!\224\3546 &)\377\014-\017\323\030\341a\241\016|\335"
 752      36202629 
 752      FF0C2D0F 
 752      D318E161 
 752      A10E7CDD 
 753 0479 3DBFFCD0 		.ascii	"=\277\374\320,\261\024j\222\305\006q \340\034\020\315"
 753      2CB1146A 
 753      92C50671 
 753      20E01C10 
 753      CD
 754 048a 9A119C9A 		.ascii	"\232\021\234\232g\254\200$\3414.\262\021\212\353\005"
 754      67AC8024 
 754      E1342EB2 
 754      118AEB05 
 755 049a 31B4D6DD 		.ascii	"1\264\326\335\323\372m\211X\214\241\321;\2011\230\341"
 755      D3FA6D89 
 755      588CA1D1 
 755      3B813198 
 755      E1
 756 04ab F7A05003 		.ascii	"\367\240P\003\202\207.\227\277{\277V\263]\214\247\207"
 756      82872E97 
 756      BF7BBF56 
 756      B35D8CA7 
 756      87
 757 04bc E6A0F50F 		.ascii	"\346\240\365\017\215(\362N\373\323\232S\026\233\260"
 757      8D28F24E 
 757      FBD39A53 
 757      169BB0
 758 04cb 1257F94A 		.ascii	"\022W\371JX\203H\302\035\\dk\224\022S[&\023%\266\332"
 758      588348C2 
 758      1D5C646B 
 758      9412535B 
 758      261325B6 
 759 04e0 5262DEDB 		.ascii	"Rb\336\333\272\022\262\330\010\212HB\231Dqy^$\227\372"
 759      BA12B2D8 
 759      088A4842 
 759      99447179 
 759      5E2497FA 
 760 04f4 8F6430E3 		.ascii	"\217d0\343-\330\233Y!S\260\031\011\203e\233\300\026"
 760      2DD89B59 
 760      2153B019 
 760      0983659B 
 760      C016
 761 0506 EF5D8485 		.ascii	"\357]\204\205K\023\246E,,p\301\210Y\217V~\262_\234\214"
 761      4B13A645 
 761      2C2C70C1 
 761      88598F56 
 761      7EB25F9C 
ARM GAS  /tmp/ccUb86vt.s 			page 58


 762 051b F5DF09C5 		.ascii	"\365\337\011\305\200\037\222\331\264\366\241z\346\266"
 762      801F92D9 
 762      B4F6A17A 
 762      E6B6
 763 0529 348B2518 		.ascii	"4\213%\030j\027\206\272\321g\250\252\256Of\021\251v"
 763      6A1786BA 
 763      D167A8AA 
 763      AE4F6611 
 763      A976
 764 053b 63A8D50E 		.ascii	"c\250\325\0163\224,\246\204\015\031\276\247\031\020"
 764      33942CA6 
 764      840D19BE 
 764      A71910
 765 054a 1E7E4D2E 		.ascii	"\036~M.\320\364>K\370\221\263KB\243\303\206\363R\255"
 765      D0F43E4B 
 765      F891B34B 
 765      42A3C386 
 765      F352AD
 766 055d 98A04133 		.ascii	"\230\240A3\261\333\201\232\011\007\015\311d++IB3\256"
 766      B1DB819A 
 766      09070DC9 
 766      642B2B49 
 766      4233AE
 767 0570 6B3FCBE6 		.ascii	"k?\313\346\206\023\273iH\356\267\305\346\015\237\316"
 767      8613BB69 
 767      48EEB7C5 
 767      E60D9FCE 
 768 0580 B3159235 		.ascii	"\263\025\2225\022\255\377!\\\377\015\\\377\021\266\376"
 768      12ADFF21 
 768      5CFF0D5C 
 768      FF11B6FE 
 769 0590 290DCDA2 		.ascii	")\015\315\242\246\245\352o\342\327\276\260}vt\355\226"
 769      A6A5EA6F 
 769      E2D7BEB0 
 769      7D7674ED 
 769      96
 770 05a1 2D22E146 		.ascii	"-\"\341F\303\211\263\227\211\216]8hJ\235,7\236\3160"
 770      C389B397 
 770      898E5D38 
 770      684A9D2C 
 770      379ECE30 
 771 05b5 7B0FEE0D 		.ascii	"{\017\356\015\031 \314\234T\372>\305lwK\303.\3341;\250"
 771      1920CC9C 
 771      54FA3EC5 
 771      6C774BC3 
 771      2EDC313B 
 772 05ca 08150903 		.ascii	"\010\025\011\003f\233\014Q\335\216\033\001\035\254\312"
 772      669B0C51 
 772      DD8E1B01 
 772      1DACCA
 773 05d9 0E98258F 		.ascii	"\016\230%\217JBk\214`\363\022\0063K\266\316\010\266"
 773      4A426B8C 
 773      60F31206 
 773      334BB6CE 
 773      08B6
 774 05eb D00ED800 		.ascii	"\320\016\330\000k\311\326\033\301\252\023\0063K\266"
 774      6BC9D61B 
ARM GAS  /tmp/ccUb86vt.s 			page 59


 774      C1AA1306 
 774      334BB6
 775 05fa D108B6C4 		.ascii	"\321\010\266\304\016\330 k\311>2\202\325%\014f\226\254"
 775      0ED8206B 
 775      C93E3282 
 775      D5250C66 
 775      96AC
 776 060c D108B6CC 		.ascii	"\321\010\266\314\016X6G\262\360\317jtpX\014\323\\\022"
 776      0E583647 
 776      B2F0CF6A 
 776      7470580C 
 776      D35C12
 777 061f 3E70D206 		.ascii	">p\322\006!AJ\013\021\214U\316D\0330\223\336\320\227"
 777      21414A0B 
 777      118C55CE 
 777      441B3093 
 777      DED097
 778 0632 EEA915AB 		.ascii	"\356\251\025\253&kmCi\177\266\336\016b\014\302l4v\216"
 778      266B6D43 
 778      697FB6DE 
 778      0E620CC2 
 778      6C34768E 
 779 0646 1F270C66 		.ascii	"\037'\014fv\313!\004fjjH\207\324\27544\350\235H[\227"
 779      76CB2104 
 779      666A6A48 
 779      87D4BD34 
 779      34E89D48 
 780 065c 4AB1D0C8 		.ascii	"J\261\320\310\\o\330`\314,\2053k\203\006\361\363\312"
 780      5C6FD860 
 780      CC2C8533 
 780      6B8306F1 
 780      F3CA
 781 066e E2B7E2C3 		.ascii	"\342\267\342\303p\274!\246\205\245\320\257\351U/\236"
 781      70BC21A6 
 781      85A5D0AF 
 781      E9552F9E 
 782 067e 087CE2E4 		.ascii	"\010|\342\344\214\371u\237\306.j\305\204\036#\023v\331"
 782      8CF9759F 
 782      C62E6AC5 
 782      841E2313 
 782      76D9
 783 0690 31538C50 		.ascii	"1S\214P\270\275w\321O\264\356\220h\3207\246q`\014q`"
 783      B8BD77D1 
 783      4FB4EE90 
 783      68D037A6 
 783      71600C71 
 784 06a5 EB6F70AB 		.ascii	"\353op\253\177\007\367\325\035Nn\267o\003\250g\356\312"
 784      7F07F7D5 
 784      1D4E6EB7 
 784      6F03A867 
 784      EECA
 785 06b7 9F63A05E 		.ascii	"\237c\240^\014t\264\317@U]\325Oa\240\022\011\001\235"
 785      0C74B4CF 
 785      40555DD5 
 785      4F61A012 
 785      09019D
 786 06ca 8AEA2144 		.ascii	"\212\352!Df\364 \232\373\367\260\345\211\341\177\254"
ARM GAS  /tmp/ccUb86vt.s 			page 60


 786      66F4209A 
 786      FBF7B0E5 
 786      89E17FAC 
 787 06da BC92F037 		.ascii	"\274\222\3607\326[&u\342\26650\010\377\242J\274Z\242"
 787      D65B2675 
 787      E2B63530 
 787      08FFA24A 
 787      BC5AA2
 788 06ed BD333401 		.ascii	"\27534\001\177U\022\177M\305\326\271\032e\235\336\004"
 788      7F55127F 
 788      4DC5D6B9 
 788      1A659DDE 
 788      04
 789 06fe CD2309B7 		.ascii	"\315#\011\267\023Vc\210A\0154\227\2706[o:\356\026*c"
 789      13566388 
 789      410D3497 
 789      B8365B6F 
 789      3AEE162A 
 790 0713 0F7E903C 		.ascii	"\017~\220<oIw\233\006\036\241\236}b\266\3768\336\250"
 790      6F49779B 
 790      061EA19E 
 790      7D62B6FE 
 790      38DEA8
 791 0726 430B551D 		.ascii	"C\013U\0350\014\2225[\203\344\003\341A\362Ll\262\311"
 791      300C9235 
 791      5B83E403 
 791      E141F24C 
 791      6CB2C9
 792 0739 491C66DA 		.ascii	"I\034f\332\201\252\3519r/\232\306Tb\230\351}\205\001"
 792      81AAE939 
 792      722F9AC6 
 792      546298E9 
 792      7D8501
 793 074c 826FD309 		.ascii	"\202o\323\011>\007\003\315Jb]\230\314x0\331\354A\270"
 793      3E0703CD 
 793      4A625D98 
 793      CC7830D9 
 793      EC41B8
 794 075f 4535DD40 		.ascii	"E5\335@\203W\361\015\362\004\335\244\010\377\357\345"
 794      8357F10D 
 794      F204DDA4 
 794      08FFEFE5 
 795 076f 605C81C5 		.ascii	"`\\\201\305G\336\353\313x\014M\342v\317\246\035\217"
 795      47DEEBCB 
 795      780C4DE2 
 795      76CFA61D 
 795      8F
 796 0780 EEA0F77E 		.ascii	"\356\240\367~\020bIh[%\235\345=\215\272\236\017\177"
 796      10624968 
 796      5B259DE5 
 796      3D8DBA9E 
 796      0F7F
 797 0792 20DCB103 		.ascii	" \334\261\003l\327\303\014y\233,\232\353\360,~'\235"
 797      6CD7C30C 
 797      799B2C9A 
 797      EBF02C7E 
 797      279D
ARM GAS  /tmp/ccUb86vt.s 			page 61


 798 07a4 5A2D9690 		.ascii	"Z-\226\220@\353\242\034\336(2\203^\364\300\220\305*"
 798      40EBA21C 
 798      DE283283 
 798      5EF4C090 
 798      C52A
 799 07b6 94AA2543 		.ascii	"\224\252%C\337\321\362\303\364\004G\234\254\323\035"
 799      DFD1F2C3 
 799      F404479C 
 799      ACD31D
 800 07c5 116F42F1 		.ascii	"\021oB\361\032E\313\304\025\267\343"
 800      1A45CBC4 
 800      15B7E3
 801 07d0 8A974ACC 		.ascii	"\212\227J\314|\342\362\205\3562\2427z\027?\266?\377"
 801      7CE2F285 
 801      EE32A237 
 801      7A173FB6 
 801      3FFF
 802 07e2 324DABCC 		.ascii	"2M\253\314\244k\035\305\311\024\225\324jZ\330\210\313"
 802      A46B1DC5 
 802      C91495D4 
 802      6A5AD888 
 802      CB
 803 07f3 ABD009A5 		.ascii	"\253\320\011\245mh\"\255\304N\332J|\250\207w2\353$\024"
 803      6D6822AD 
 803      C44EDA4A 
 803      7CA88777 
 803      32EB2414 
 804 0807 F67D0F93 		.ascii	"\366}\017\223\231\254:v'\006\341\237\025\011\352\214"
 804      99AC3A76 
 804      2706E19F 
 804      1509EA8C 
 805 0817 249893FC 		.ascii	"$\230\223\374\003I\320\372\225M\022h\242q\330&\011\213"
 805      0349D0FA 
 805      954D1268 
 805      A271D826 
 805      098B
 806 0829 70CDEB58 		.ascii	"p\315\353X\026,\274\3326\225\314\370\326\331bA\217\211"
 806      162CBCDA 
 806      3695CCF8 
 806      D6D96241 
 806      8F89
 807 083b 057BC3A8 		.ascii	"\005{\303\250}aAI\350\346\271]\"\206\323\207\241GX\270"
 807      7D614149 
 807      E8E6B95D 
 807      2286D387 
 807      A14758B8 
 808 084f 04A76777 		.ascii	"\004\247gw\224D\015\243\363+t\364K\324\3075IH\247\023"
 808      94440DA3 
 808      F32B74F4 
 808      4BD4C735 
 808      4948A713 
 809 0863 51D4D22D 		.ascii	"Q\324\322-c\240V\304\214\262\270^B\343\322\015\322\203"
 809      63A056C4 
 809      8CB2B85E 
 809      42E3D20D 
 809      D283
 810 0875 70DC848F 		.ascii	"p\334\204\217\233\341\030\227\026\215FZ\234MX\357l\233"
ARM GAS  /tmp/ccUb86vt.s 			page 62


 810      9BE11897 
 810      168D465A 
 810      9C4D58EF 
 810      6C9B
 811 0887 EC5B6BAC 		.ascii	"\354[k\254\346\233\276\262O\210`\\K\2661\004\316\266"
 811      E69BBEB2 
 811      4F88605C 
 811      4BB63104 
 811      CEB6
 812 0899 72115A89 		.ascii	"r\021Z\211\371\326io%\206\266\317\355\273\213\311*\353"
 812      F9D6696F 
 812      2586B6CF 
 812      EDBB8BC9 
 812      2AEB
 813 08ab 76EC9F1B 		.ascii	"v\354\237\033\214\177l,\351LMAEZX\362\367L\275F\227"
 813      8C7F6C2C 
 813      E94C4D41 
 813      455A58F2 
 813      F74CBD46 
 814 08c0 745A6C90 		.ascii	"tZl\220\277$t\260\334\270@\011\002\211\022\301\355\253"
 814      BF2474B0 
 814      DCB84009 
 814      028912C1 
 814      EDAB
 815 08d2 410D3FA3 		.ascii	"A\015?\243\200\262\330\212i\325f\244\222$\314KI\324"
 815      80B2D88A 
 815      69D566A4 
 815      9224CC4B 
 815      49D4
 816 08e4 F8D926F9 		.ascii	"\370\331&\371\033\217\3409\337Z\334\317-\261\0036\304"
 816      1B8FE039 
 816      DF5ADCCF 
 816      2DB10336 
 816      C4
 817 08f5 CA93608C 		.ascii	"\312\223`\214#\213\2101\364\325\315\017\023\306\313"
 817      238B8831 
 817      F4D5CD0F 
 817      13C6CB
 818 0904 8E658CC8 		.ascii	"\216e\214\310r\262,\206\360\334\257YD\321\265\003\037"
 818      72B22C86 
 818      F0DCAF59 
 818      44D1B503 
 818      1F
 819 0915 5BF0B103 		.ascii	"[\360\261\003\037/\341\343\025|\274\206\217\267\361"
 819      1F2FE1E3 
 819      157CBC86 
 819      8FB7F1
 820 0924 B10C4763 		.ascii	"\261\014Gc9>6\343\343\247\370\270\333V|\232\273x\352"
 820      393E36E3 
 820      E3A7F8B8 
 820      DB567C9A 
 820      BB78EA
 821 0937 EB8D7D5E 		.ascii	"\353\215}^\214\276\312p\347\223\204\361b\232k\243\301"
 821      8CBECA70 
 821      E79384F1 
 821      629A6BA3 
 821      C1
ARM GAS  /tmp/ccUb86vt.s 			page 63


 822 0948 5C1F6173 		.ascii	"\\\037asm\306F\330kG\331u\221\001Nd_K@\214\333\230b"
 822      6DC646D8 
 822      6B47D975 
 822      91014E64 
 822      5F4B408C 
 823 095f 0EB68784 		.ascii	"\016\266\207\204ZM\253\014\365\234\015%C\024;\365\242"
 823      5A4DAB0C 
 823      F59C0D25 
 823      43143BF5 
 823      A2
 824 0970 92D08CB3 		.ascii	"\222\320\214\263\255\026\007s\253\010W@6z\216j/\015"
 824      AD160773 
 824      AB085740 
 824      367A8E6A 
 824      2F0D
 825 0982 0A6FF4AC 		.ascii	"\012o\364\254f7z\366I\274}\244\005\027\332\240\247\320"
 825      66377AF6 
 825      49BC7DA4 
 825      0517DAA0 
 825      A7D0
 826 0994 EEF4F64E 		.ascii	"\356\364\366N.\225\004\323>O\2520\025\317\316\246h\305"
 826      2E9504D3 
 826      3E4FAA30 
 826      15CFCEA6 
 826      68C5
 827 09a6 E2B8784B 		.ascii	"\342\270xK\015\262xXJE\303\261\024\313\205\002\224\201"
 827      0DB27858 
 827      4A45C3B1 
 827      14CB8502 
 827      9481
 828 09b8 5A4BBFA6 		.ascii	"ZK\277\246W1\326\011\016I\321\373\202\355\214\361\210"
 828      5731D609 
 828      0E49D1FB 
 828      82ED8CF1 
 828      88
 829 09c9 014AB455 		.ascii	"\001J\264Ux\247K\307\226\305\203\322`\256\320\004\357"
 829      78A74BC7 
 829      96C583D2 
 829      60AED004 
 829      EF
 830 09da 339E3DBA 		.ascii	"3\236=\272+z;\362\015\033_tomz\252\235\315\265.\211"
 830      2B7A3BF2 
 830      0D1B5F74 
 830      6F6D7AAA 
 830      9DCDB52E 
 831 09ef B1F9E75C 		.ascii	"\261\371\347\\\233\037\353\212\332\273[`\013\3778\213"
 831      9B1FEB8A 
 831      DABB5B60 
 831      0BFF388B 
 832 09ff 7F82AB43 		.ascii	"\177\202\253Cc\355\251\377\266\336\274C\346\261\262"
 832      63EDA9FF 
 832      B6DEBC43 
 832      E6B1B2
 833 0a0e F62929A1 		.ascii	"\366))\241\335\273\232p\237\177\217`\350X\276\240\333"
 833      DDBB9A70 
 833      9F7F8F60 
 833      E858BEA0 
ARM GAS  /tmp/ccUb86vt.s 			page 64


 833      DB
 834 0a1f 775FE08E 		.ascii	"w_\340\216\345p*\267c\261\006\222\204/q\221\257\242"
 834      E5702AB7 
 834      63B10692 
 834      842F7191 
 834      AFA2
 835 0a31 3A96D66F 		.ascii	":\226\326o\246\220\216\345+[\035\313\346y\264q8\203"
 835      A6908EE5 
 835      2B5B1DCB 
 835      E679B471 
 835      3883
 836 0a43 DBE6EB61 		.ascii	"\333\346\353a\334\27656\215\235\270\241\327\301\276"
 836      DCBE3536 
 836      8D9DB8A1 
 836      D7C1BE
 837 0a52 4F182CDB 		.ascii	"O\030,\333\004\266\245s\321 \255\246\231\256Zie\332"
 837      04B6A573 
 837      D120ADA6 
 837      99AE5A69 
 837      65DA
 838 0a64 90E51193 		.ascii	"\220\345\021\223\014\240\010\222\321\264\033\037\301"
 838      0CA00892 
 838      D1B41B1F 
 838      C1
 839 0a71 53E88B78 		.ascii	"S\350\213x\260^\226\306]l\262\001\3243w\323\277b\240"
 839      B05E96C6 
 839      5D6CB201 
 839      D43377D3 
 839      BF62A0
 840 0a84 2B18A8A2 		.ascii	"+\030\250\242\317@U]+\177\215\201z0\320|\006H\026\035"
 840      CF40555D 
 840      2B7F8D81 
 840      7A30D07C 
 840      0648161D 
 841 0a98 CCECC161 		.ascii	"\314\354\301a\236=8\322\"\027\275\275\016\341G\314,"
 841      9E3D38D2 
 841      2217BDBD 
 841      0EE147CC 
 841      2C
 842 0aa9 0975698C 		.ascii	"\011ui\214\303L\032\305\035\006w_k\275\230\204\307X"
 842      C34C1AC5 
 842      1D06775F 
 842      6BBD9884 
 842      C758
 843 0abb A6B8B0BF 		.ascii	"\246\270\260\2777~\333\034]d\223\307\320/\304\032\256"
 843      377EDB1C 
 843      5D6493C7 
 843      D02FC41A 
 843      AE
 844 0acc 959F2826 		.ascii	"\225\237(&\323\312[\230}+\031S3\263sT\227\225\034\275"
 844      D3CA5B98 
 844      7D2B1953 
 844      33B37354 
 844      97951CBD 
 845 0ae0 528645E4 		.ascii	"R\206E\344D\275\203\236\2125\232\3351txjum)]\350\300"
 845      44BD839E 
 845      8A359ADD 
ARM GAS  /tmp/ccUb86vt.s 			page 65


 845      3174786A 
 845      756D295D 
 846 0af6 0B135BED 		.ascii	"\013\023[\355\000\362\026\330y?c#!\213\347\360\340\356"
 846      00F216D8 
 846      793F6323 
 846      218BE7F0 
 846      E0EE
 847 0b08 6B3C1A39 		.ascii	"k<\0329\217\217\027\360\361&>\026;lt\331g$\253.\273"
 847      8F8F17F0 
 847      F1263E16 
 847      3B6C74D9 
 847      6724AB2E 
 848 0b1d 258DD765 		.ascii	"%\215\327ew7Ac\373\365:MK\243\315\302\001\234\257[\262"
 848      77374163 
 848      FBF53A4D 
 848      4BA3CDC2 
 848      019CAF5B 
 849 0b32 EAB3490D 		.ascii	"\352\263I\015\244\313:z\014\365\331\264\313\352\216"
 849      A4CB3A7A 
 849      0CF5D9B4 
 849      CBEA8E
 850 0b41 DD654D76 		.ascii	"\335eMv\360\232\373K\027.\015\351\323\267\032\323\034"
 850      F09AFB4B 
 850      172E0DE9 
 850      D3B71AD3 
 850      1C
 851 0b52 09B5F6A6 		.ascii	"\011\265\366\246\365\0172\301\273\334\017z\376r\007"
 851      F50F32C1 
 851      BBDC0F7A 
 851      FE7207
 852 0b61 6AE68F44 		.ascii	"j\346\217D\305\376Rv~\267\324\340\253e\330W\313\261"
 852      C5FE5276 
 852      7EB7D4E0 
 852      AB65D857 
 852      CBB1
 853 0b73 673EB033 		.ascii	"g>\2603\230z\323a\345\231\323\\\317\204\336}s\0034\376"
 853      987AD361 
 853      E599D35C 
 853      CF84DE7D 
 853      730334FE 
 854 0b87 925E5212 		.ascii	"\222^R\022\256\342\\S\035V~!\370\274\261\024*dR\344"
 854      AEE25C53 
 854      1D567E21 
 854      F8BCB114 
 854      2A6452E4 
 855 0b9b ED6847D4 		.ascii	"\355hG\324\204\272\217\257\3365h.0]\273\324\333\233"
 855      84BA8FAF 
 855      DE35682E 
 855      305DBBD4 
 855      DB9B
 856 0bad 15EEDA17 		.ascii	"\025\356\332\027\245\333\351\332+\331*\252xU\204\216"
 856      A5DBE9DA 
 856      2BD92AAA 
 856      7855848E 
 857 0bbd ED244387 		.ascii	"\355$C\207\004\334<\327\3014;h\240\034\276!CH\306\244"
 857      04DC3CD7 
 857      C1343B68 
ARM GAS  /tmp/ccUb86vt.s 			page 66


 857      A01CBE21 
 857      4348C6A4 
 858 0bd1 2BD27926 		.ascii	"+\322y&\325\346(\303\351\232\302V\234c\216\2459\361"
 858      D5E628C3 
 858      E99AC256 
 858      9C638EA5 
 858      39F1
 859 0be3 E21E2976 		.ascii	"\342\036)v\022\025[\207\207\347\373%)f1\363\210v\206"
 859      12155B87 
 859      87E7FB25 
 859      296631F3 
 859      887686
 860 0bf6 36658018 		.ascii	"6e\200\030\266\321\034\326F\363\2716Z\337Jm\244\353"
 860      B6D11CD6 
 860      46F3B936 
 860      5ADF4A6D 
 860      A4EB
 861 0c08 0EC368BE 		.ascii	"\016\303h\2766\267\363\206\323Y\303B\007\022\253\332"
 861      36B7F386 
 861      D359C342 
 861      0712ABDA 
 862 0c18 96368759 		.ascii	"\2266\207Ym\254\213\305\322\246\232\325fq\2646\335\035"
 862      6DAC8BC5 
 862      D2A69AD5 
 862      6671B436 
 862      DD1D
 863 0c2a A19BAD33 		.ascii	"\241\233\2553\200\305%\241\336\336m\317\010\214\323"
 863      80C525A1 
 863      DEDE6DCF 
 863      088CD3
 864 0c39 9154565E 		.ascii	"\221TV^\257c\275\256Kl\362\362^\276]\266\260\012\326"
 864      AF63BDAE 
 864      4B6CF2F2 
 864      5EBE5DB6 
 864      B00AD6
 865 0c4c DA52B044 		.ascii	"\332R\260D\333\364\305K\303\351\262\256u)\"\340\373"
 865      DBF4C54B 
 865      C3E9B2AE 
 865      752922E0 
 865      FB
 866 0c5d 5CE76DFD 		.ascii	"\\\347m\3754\342\274:\354\274n\233B\326\367IH\253RD"
 866      34E2BC3A 
 866      ECBC6E9B 
 866      42D6F749 
 866      48AB5244 
 867 0c71 C80FB83E 		.ascii	"\310\017\270>\231\335n\021\205\261\034\262\212\027\206"
 867      99DD6E11 
 867      85B11CB2 
 867      8A1786
 868 0c80 8C43AEF0 		.ascii	"\214C\256\360u\235\2470D]\031\233\250\026\272Z\225\""
 868      759DA730 
 868      445D199B 
 868      A816BA5A 
 868      9522
 869 0c92 02AEE13A 		.ascii	"\002\256\341:\344py;\235 :Y\376\305ht\326\307ht\230"
 869      E470793B 
 869      9D203A59 
ARM GAS  /tmp/ccUb86vt.s 			page 67


 869      FEC56874 
 869      D6C76874 
 870 0ca7 A1CA768B 		.ascii	"\241\312v\213\241\000*\265\311a\334\"`\254\245ep\255"
 870      A1002AB5 
 870      C961DC22 
 870      60ACA565 
 870      70AD
 871 0cb9 75930DEB 		.ascii	"u\223\015\353\006[a\275\037\031y\023\356*\336\302\300"
 871      065B61BD 
 871      1F197913 
 871      EE2ADEC2 
 871      C0
 872 0cca D6C53639 		.ascii	"\326\30569\254\303\272\201\015\353\217\270f\255\332"
 872      ACC3BA81 
 872      0DEB8FB8 
 872      66ADDA
 873 0cd9 DBB7B0DE 		.ascii	"\333\267\260\336\312\332\025\311\302\330\245\202o\227"
 873      CADA15C9 
 873      C2D8A582 
 873      6F97
 874 0ce7 C5544159 		.ascii	"\305TAYl\302v\331bKA\226EV\245\210\200!n\304\\\333\033"
 874      6CC276D9 
 874      624B4196 
 874      4556A588 
 874      80216EC4 
 875 0cfe 09EB5538 		.ascii	"\011\353U8\254\027\361\205\254b\251\276\243OT\267*E"
 875      AC17F185 
 875      AC62A9BE 
 875      A34F54B7 
 875      2A45
 876 0d10 84FC8437 		.ascii	"\204\374\2047\220\012u\036x;\342\023}\010-\011\313\371"
 876      900A751E 
 876      783BE213 
 876      7D082D09 
 876      CBF9
 877 0d22 72F62092 		.ascii	"r\366 \222\341\361\354j\234\241\325R\314\247\215\\i"
 877      E1F1EC6A 
 877      9CA1D552 
 877      CCA78D5C 
 877      69
 878 0d33 320E2B5A 		.ascii	"2\016+ZY\252\264qm\3273\263O\021\270\207e\312\035\274"
 878      59AAB471 
 878      6DD733B3 
 878      4F11B887 
 878      65CA1DBC 
 879 0d47 256E62CA 		.ascii	"%nb\312Z\276r\267\3772\210~\031\261\015\347\330\355"
 879      5ABE72B7 
 879      FF32887E 
 879      19B10DE7 
 879      D8ED
 880 0d59 E08F4BF5 		.ascii	"\340\217K\365\\\202E(\354f\365\333\307\325o\303\021"
 880      5C824528 
 880      EC66F5DB 
 880      C7D56FC3 
 880      11
 881 0d6a 6BFDD0D6 		.ascii	"k\375\320\326\250\345\322\020O\301\360\315E}\337\212"
 881      A8E5D210 
ARM GAS  /tmp/ccUb86vt.s 			page 68


 881      4FC1F0CD 
 881      457DDF8A 
 882 0d7a 51B88DAF 		.ascii	"Q\270\215\257\360\302W\007Q\373\354\307\254;\030[aR"
 882      F0C25707 
 882      51FBECC7 
 882      AC3B185B 
 882      6152
 883 0d8c ECAA3C84 		.ascii	"\354\252<\204\316\305\217c`C1\323\3342,\016\261\323"
 883      CEC58F63 
 883      604331D3 
 883      DC322C0E 
 883      B1D3
 884 0d9e EAB22903 		.ascii	"\352\262)\003\234\272v\202\271\030\217\255\235\334\026"
 884      9CBA7682 
 884      B9188FAD 
 884      9DDC16
 885 0dad 64DBBC3E 		.ascii	"d\333\274>\321\342x\314\321\340L\256\325N[\320$/<\032"
 885      D1E278CC 
 885      D1E04CAE 
 885      D54E5BD0 
 885      242F3C1A 
 886 0dc1 BC88731C 		.ascii	"\274\210s\034\263\321\320VhkQ\210\353{\336W\343\024"
 886      B3D1D056 
 886      686B5188 
 886      EB7BDE57 
 886      E314
 887 0dd3 9B2959B3 		.ascii	"\233)Y\263\353\030\313\256n\256\231>\372<\322\362\034"
 887      EB18CBAE 
 887      6EAE993E 
 887      FA3CD2F2 
 887      1C
 888 0de4 C211FD6D 		.ascii	"\302\021\375m\006w@\316.\037\236\265\240\000\251\355"
 888      067740CE 
 888      2E1F9EB5 
 888      A000A9ED 
 889 0df4 2B2E97AB 		.ascii	"+.\227\253ODj\323\207\377\2632\355\014\377\317\261\312"
 889      4F446AD3 
 889      87FFB332 
 889      ED0CFFCF 
 889      B1CA
 890 0e06 7CCD859F 		.ascii	"|\315\205\237{\222\205\257\267\005\177\236\205\377\206"
 890      7B9285AF 
 890      B7057F9E 
 890      85FF86
 891 0e15 0B1F5E98 		.ascii	"\013\037^\230\014\303\207l\301_d\341/q]\261\346t[\204"
 891      0CC3876C 
 891      C15F64E1 
 891      2F715DB1 
 891      E6745B84 
 892 0e29 B1B486FD 		.ascii	"\261\264\206\375\266j\270\302\326p\225\243@Ew\313\262"
 892      B66AB8C2 
 892      D67095A3 
 892      404577CB 
 892      B2
 893 0e3a EDE27C6D 		.ascii	"\355\342|m;\232\012\277\221@L\\\217\031\023\215\334"
 893      3B9A0ABF 
 893      91404C5C 
ARM GAS  /tmp/ccUb86vt.s 			page 69


 893      8F19138D 
 893      DC
 894 0e4b 19D29928 		.ascii	"\031\322\231(\271\365L7\271\2025\326^\316\351\203`\267"
 894      B9F54C37 
 894      B98235D6 
 894      5ECEE983 
 894      60B7
 895 0e5d 59C1CE48 		.ascii	"Y\301\316HQ\275\375%\013A\276\343\011\022\272\321\376"
 895      51BDFD25 
 895      0B41BEE3 
 895      0912BAD1 
 895      FE
 896 0e6e 96266227 		.ascii	"\226&b'\017\266/F/O\014\266\245\015\337\337\322\027"
 896      0FB62F46 
 896      2F4F0CB6 
 896      A50DDFDF 
 896      D217
 897 0e80 388CAB5C 		.ascii	"8\214\253\\\321\346\373\316B\352R\247I\352\177\020\226"
 897      D1E6FBCE 
 897      42EA52A7 
 897      49EA7F10 
 897      96
 898 0e91 00316166 		.ascii	"\0001af\275\377\2608K\323\246MF_\032\200<tyb\332\231"
 898      BDFFB038 
 898      4BD3A64D 
 898      465F1A80 
 898      3C747962 
 899 0ea7 C8DE4168 		.ascii	"\310\336Ah \225{\271q\315\264\374\332\022\362\211C\231"
 899      20957BB9 
 899      71CDB4FC 
 899      DA12F289 
 899      4399
 900 0eb9 13AD534C 		.ascii	"\023\255SL\353\307_\216\216\001%\011\263q\241\351\316"
 900      EBC75F8E 
 900      8E012509 
 900      B371A1E9 
 900      CE
 901 0eca E83FC5A0 		.ascii	"\350?\305\240\333\374\350]\274\005i-\364\356\211E\""
 901      DBFCE85D 
 901      BC05692D 
 901      F4EE8945 
 901      22
 902 0edb 5A90E62C 		.ascii	"Z\220\346,\257t\207\327\300\177f\220\276\275\363\024"
 902      AF7487D7 
 902      C07F6690 
 902      BEBDF314 
 903 0eeb 917E0696 		.ascii	"\221~\006\226\276\332BzK I\370\020\027\251\210\226\375"
 903      BEDA427A 
 903      4B2049F8 
 903      1017A988 
 903      96FD
 904 0efd 501991BD 		.ascii	"P\031\221\275\302\226\354\007\273t\331\351G\012\233"
 904      C296EC07 
 904      BB74D9E9 
 904      470A9B
 905 0f0c C3B8A4E2 		.ascii	"\303\270\244\342\004?R8\324\205\027\323\365]\316f\026"
 905      043F5238 
ARM GAS  /tmp/ccUb86vt.s 			page 70


 905      D48517D3 
 905      F55DCE66 
 905      16
 906 0f1d 2CA14F14 		.ascii	",\241O\024\264\320g:\330~,Y[\302`\331&\311N.0\377\301"
 906      B4D0673A 
 906      D87E2C59 
 906      5BC260D9 
 906      26C94E2E 
 907 0f34 CC5E3B78 		.ascii	"\314^;x1\276\011\276\324e\370&\370H\302`f\341\256\033"
 907      31BE09BE 
 907      D465F826 
 907      F848C260 
 907      66E1AE1B 
 908 0f48 C14ED801 		.ascii	"\301N\330\001\343}9\313\373\031I\"\213\225N\264@W\345"
 908      E37D39CB 
 908      FB194922 
 908      8B954EB4 
 908      4057E5
 909 0f5b 440B7473 		.ascii	"D\013ts\360q\036>\316\307\307\205\370\370\256\323\264"
 909      F0711E3E 
 909      CEC7C785 
 909      F8F8AED3 
 909      B4
 910 0f6c 8FFEBFE1 		.ascii	"\217\376\277\341(\341R1\036%\264\320\006\353\360\340"
 910      28E15231 
 910      1E25B4D0 
 910      06EBF0E0 
 911 0f7c AC3E426C 		.ascii	"\254>Bl\177U,N\301\024^\202\243\343B\374\3500\341HB"
 911      7F552C4E 
 911      C1145E82 
 911      A3E342FC 
 911      E830E148 
 912 0f91 697F5C22 		.ascii	"i\177\\\"*8Z\277\243;Mu6\202\243"
 912      2A385ABF 
 912      A33B4D75 
 912      3682A3
 913 0fa0 2474D3B4 		.ascii	"$t\323\264\323$\213\177\303k\022u\261\035\023#8\356"
 913      D3248B7F 
 913      C36B1275 
 913      B11D1323 
 913      38EE
 914 0fb2 44769AA0 		.ascii	"Dv\232\240\267N\030\314L\231Y]\372N\223\336V\313\342"
 914      B74E18CC 
 914      4C99595D 
 914      FA4E93DE 
 914      56CBE2
 915 0fc5 0D162FB1 		.ascii	"\015\026/\261\215\220\320\232\005\231\035\257\321\221"
 915      8D90D09A 
 915      05991DAF 
 915      D191
 916 0fd3 EFC2B005 		.ascii	"\357\302\260\005\355\202\015\210E\301:\003\005\337\307"
 916      ED820D88 
 916      45C13A03 
 916      05DFC7
 917 0fe2 145C86A9 		.ascii	"\024\\\206\251\266\034\037\353\361\361\0033\355\226"
 917      B61C1FEB 
 917      F1F10333 
ARM GAS  /tmp/ccUb86vt.s 			page 71


 917      ED96
 918 0ff0 F5676867 		.ascii	"\365ghg\3621/\010\214\346\321B\037\303\240M"
 918      F2312F08 
 918      8CE6D142 
 918      1FC3A04D 
 919 1000 B6FFDDCC 		.ascii	"\266\377\335\3147\364\273\231U\230s\253\372'\374\335"
 919      37F4BB99 
 919      559873AB 
 919      FA27FCDD 
 920 1010 CC165C64 		.ascii	"\314\026\\dmt\213\374%m\221\327\306']\351\344\320\206"
 920      6D748BFC 
 920      256D91D7 
 920      C6275DE9 
 920      E4D086
 921 1023 85EF47FE 		.ascii	"\205\357G\376\030irxA\345\272h=i2}w\277',G\202$\345"
 921      18697278 
 921      41E5BA68 
 921      3D69327D 
 921      77BF272C 
 922 103b BB6EADC1 		.ascii	"\273n\255\301u\015\330u\353\315\216\352d\035\305\253"
 922      750DD875 
 922      EBCD8EEA 
 922      641DC5AB 
 923 104b CFF2D318 		.ascii	"\317\362\323\030-t\370\004\355\201\364\277\251\374\234"
 923      2D74F804 
 923      ED81F4BF 
 923      A9FC9C
 924 105a C533FF05 		.ascii	"\3053\377\005%\017\320\354\371y'\323\264\323!\361.\241"
 924      250FD0EC 
 924      F97927D3 
 924      B4D321F1 
 924      2EA1
 925 106c 820E01C8 		.ascii	"\202\016\001\310\326g\250L\233&\026\257\375Y\270\234"
 925      D667A84C 
 925      9B2616AF 
 925      FD59B89C 
 926 107c A96F0BFF 		.ascii	"\251o\013\377Y\327\205%dO\356c'\242\373Y\206\012\211"
 926      59D78525 
 926      644FEE63 
 926      27A2FB59 
 926      860A89
 927 108f 80F5CCDD 		.ascii	"\200\365\314\335G\277\227\335\206\301.\377\000\260\252"
 927      47BF97DD 
 927      86C12EFF 
 927      00B0AA
 928 109e AEE3F48F 		.ascii	"\256\343\364\217\021\267c\260[\014\230,\2461\033\263"
 928      11B763B0 
 928      5B0C982C 
 928      A6311BB3 
 929 10ae 69E6EDD3 		.ascii	"i\346\355\323\264\264\310E/\375\261\177*\360#\226\241"
 929      B4B4C845 
 929      2FFDB17F 
 929      2AF02396 
 929      A1
 930 10bf 03B14CAA 		.ascii	"\003\261L\252]\233H\000\232\234wE\354\241\205I\237i"
 930      5D9B4800 
 930      9A9C7745 
ARM GAS  /tmp/ccUb86vt.s 			page 72


 930      ECA18549 
 930      9F69
 931 10d1 CDF91667 		.ascii	"\315\371\026g\344/T2\323\004\246I@\304\234\222\305\020"
 931      E42F5432 
 931      D304A649 
 931      40C49C92 
 931      C510
 932 10e3 89A9975C 		.ascii	"\211\251\227\\\277\306\241&\357g\034)\312b9\016\205"
 932      BFC6A126 
 932      EF671C29 
 932      CA62390E 
 932      85
 933 10f4 B770CB55 		.ascii	"\267p\313U\203\217+\361\361#|l4\207\310\354,\352(\376"
 933      838F2BF1 
 933      F1237C6C 
 933      3487C8EC 
 933      2CEA28FE 
 934 1108 5014AF1B 		.ascii	"P\024\257\033E\306\310\224\271\357\364\327\377\344\206"
 934      45C6C894 
 934      B9EFF4D7 
 934      FFE486
 935 1117 147A8A96 		.ascii	"\024z\212\226I!E\332\0226\332.\013\243%\223\232\311"
 935      492145DA 
 935      1236DA2E 
 935      0BA32593 
 935      9AC9
 936 1129 E6E3C95B 		.ascii	"\346\343\311[\227_\271\271N\323\246k\337\367\276Q\\"
 936      975FB9B9 
 936      4ED3A66B 
 936      DFF7BE51 
 936      5C
 937 113a FA209DD6 		.ascii	"\372 \235\326\355\3112\022\016\317\005 ^\263\302l\340"
 937      EDC93212 
 937      0ECF0520 
 937      5EB3C26C 
 937      E0
 938 114b 4DF23E75 		.ascii	"M\362>u2\223\274vg\324\024&\324\021\332H\377\262>T\341"
 938      3293BC76 
 938      67D41426 
 938      D411DA48 
 938      FFB23E54 
 939 1160 A4D59D8B 		.ascii	"\244\325\235\213\256N\026\367D\212\363\252\333\307V"
 939      AE4E16F7 
 939      448AF3AA 
 939      DBC756
 940 116f D761AE8E 		.ascii	"\327a\256\216Y\246F\025Y\031\353\2403\303\242T\231E"
 940      59A64615 
 940      5919EBA0 
 940      33C3A254 
 940      9945
 941 1181 638717B0 		.ascii	"c\207\027\260\"\245\262\205\305z\017\260\347\247\305"
 941      22A5B285 
 941      C57A0FB0 
 941      E7A7C5
 942 1190 2114B644 		.ascii	"!\024\266D\306\203\306/~H\246\306\332].\25545\234\247"
 942      C683C62F 
 942      7E48A6C6 
ARM GAS  /tmp/ccUb86vt.s 			page 73


 942      DA5D2EAD 
 942      34359CA7 
 943 11a4 DB9887A9 		.ascii	"\333\230\207\251~M\014\241;-\205\236\021C\350\317\242"
 943      7E4D0CA1 
 943      3B2D859E 
 943      1143E8CF 
 943      A2
 944 11b5 843EB6FA 		.ascii	"\204>\266\372\350\020\243<\265\216(\231C\307\336\324"
 944      E810A33C 
 944      B58E2899 
 944      43C7DED4 
 945 11c5 2429F27F 		.ascii	"$)\362\177\034pr\254)7\346X\311\311Q\375\2661\307\026"
 945      1C7072AC 
 945      2937E658 
 945      C9C951FD 
 945      B631C716 
 946 11d9 630E344D 		.ascii	"c\0164M\354\350\010}\267w\272&jeZ1\332\2005\206\206"
 946      ECE8087D 
 946      B777BA26 
 946      6A655A31 
 946      DA803586 
 947 11ee A147348D 		.ascii	"\241G4\215\015,\003\210\311%\213'\023\016\240n\213\000"
 947      0D2C0388 
 947      C9258B27 
 947      130EA06E 
 947      8B00
 948 1200 326F68D0 		.ascii	"2oh\320\\\350\343$\314a\303\3125#\204$\364f\321F0]\014"
 948      5CE8E324 
 948      CC61C3CA 
 948      35238424 
 948      F466D146 
 949 1217 9B65DB3E 		.ascii	"\233e\333>-;;l\226\035\016k2\240\375~+i\277\260$\303"
 949      2D3B3B6C 
 949      961D0E6B 
 949      32A0FD7E 
 949      2B69BFB0 
 950 122d AA18A5BE 		.ascii	"\252\030\245\276d\311\020\332|\260\270F\314\346/q\223"
 950      64C910DA 
 950      7CB0B846 
 950      CCE62F71 
 950      93
 951 123e 2C972AB5 		.ascii	",\227*\265t)f\216[qs,\252\212\227\2432n\216\316\203"
 951      7429668E 
 951      5B71732C 
 951      AA8A97A3 
 951      326E8ECE 
 952 1253 46C3B5C6 		.ascii	"F\303\265\3060\\]\014\023\234\2674\334\365\030\245\276"
 952      305C5D0C 
 952      139CB734 
 952      DCF518A5 
 952      BE
 953 1264 B12CD51B 		.ascii	"\261,\325\033\243\324\005\313R{b\224\272hY\352T\214"
 953      A3D405CB 
 953      527B6294 
 953      BA6859EA 
 953      548C
 954 1276 8F842E59 		.ascii	"\217\204.Y\226\272\035\243\256\313Q\204\2701\327\030"
ARM GAS  /tmp/ccUb86vt.s 			page 74


 954      96BA1DA3 
 954      AECB5184 
 954      B831D718 
 955 1286 B5073951 		.ascii	"\265\0079Q\333\331\031?j\363iE\375pI\213\250er\301h"
 955      DBD9193F 
 955      6AF36945 
 955      FD70498B 
 955      A86572C1 
 956 129b 37E1A8BD 		.ascii	"7\341\250\275n\021\265\231\021\261\015\271\340\362\224"
 956      6E11B599 
 956      11B10DB9 
 956      E0F294
 957 12aa 13CDA50C 		.ascii	"\023\315\245\014K\330\214\020\2220c\000'j\277\375\334"
 957      4BD88C10 
 957      92306300 
 957      276ABFFD 
 957      DC
 958 12bb 48BEB331 		.ascii	"H\276\2631\310w(\206\223nF\314-\3742'\337W\240\344("
 958      C8772886 
 958      936E46CC 
 958      2DFC3227 
 958      DF57A0E4 
 959 12d0 63949C61 		.ascii	"c\224\234a\371\236\321\236?\344\346\370\2029\0015\307"
 959      F99ED19E 
 959      3FE4E6F8 
 959      82390135 
 959      C7
 960 12e1 EF0BA8C1 		.ascii	"\357\013\250\301\234gG\2768\354\305\2119\356|\267/\240"
 960      9C6747BE 
 960      38ECC589 
 960      39EE7CB7 
 960      2FA0
 961 12f3 B8C63F59 		.ascii	"\270\306?Y\360h\276\220\206^\271\274>\367\353\311/\374"
 961      F068BE90 
 961      865EB9BC 
 961      3EF7EBC9 
 961      2FFC
 962 1305 7E54F630 		.ascii	"~T\3660!\003?(*D\217\006\206_\272\306\004|\005.O0p\217"
 962      21033F28 
 962      2A448F06 
 962      865FBAC6 
 962      047C052E 
 963 131d E175F8E1 		.ascii	"\341u\370\341\277X\325\353)t{\213\362\024\2502\350\316"
 963      BF58D5EB 
 963      29747B8B 
 963      F214A832 
 963      E8CE
 964 132f CF83EA7E 		.ascii	"\317\203\352~a#\347\244\240:\311\257\004!w\226\232\037"
 964      6123E7A4 
 964      A03AC9AF 
 964      04217796 
 964      9A1F
 965 1341 50E4BCA0 		.ascii	"P\344\274\240k\\\221R\244\270\324\001\356|\227\351Q"
 965      6B5C9152 
 965      A4B8D401 
 965      EE7C97E9 
 965      51
ARM GAS  /tmp/ccUb86vt.s 			page 75


 966 1352 AA7EE752 		.ascii	"\252~\347R\323\302o\222\375\256Be\242\012'\177@\031"
 966      D3C26F92 
 966      FDAE4265 
 966      A20A277F 
 966      4019
 967 1364 FF1B7B16 		.ascii	"\377\033{\026\361\025\370=^%\020\314ya\3300\020\201"
 967      F115F83D 
 967      5E2510CC 
 967      7961D830 
 967      1081
 968 1376 D69FA2FA 		.ascii	"\326\237\242\372\003\036\237K} \247(\030\010\213X\250"
 968      031E9F4B 
 968      7D20A728 
 968      18088B58 
 968      A8
 969 1387 4CF07A46 		.ascii	"L\360zF\347\004\325<O\241\012\271R\213\340\374\370/"
 969      E704D53C 
 969      4FA10AB9 
 969      528BE0FC 
 969      F82F
 970 1399 5DEA2F78 		.ascii	"]\352/x\331\012dw\276\247P\311q\345)c\344\"\257\352"
 970      D90A6477 
 970      BEA750C9 
 970      71E52963 
 970      E422AFEA 
 971 13ad A2E0E92E 		.ascii	"\242\340\351.\027-\210\205\365\370R\334\276B\025d\177"
 971      172D8885 
 971      F5F852DC 
 971      BE421564 
 971      7F
 972 13be 34013702 		.ascii	"4\0017\002\220\3561\200r\253\023S\003\312X9P\340R\245"
 972      90EE3180 
 972      72AB1353 
 972      03CA5839 
 972      50E052A5 
 973 13d2 C05352E0 		.ascii	"\300SR\340\327\216\300cC!=&\005~%\005\236\220\002OJ"
 973      D78EC063 
 973      43213D26 
 973      057E2505 
 973      9E90024F 
 974 13e7 817F93BC 		.ascii	"\201\177\223\274\001x\364x\222\337\005\371S\220\265"
 974      0178F478 
 974      92DF05F9 
 974      5390B5
 975 13f6 26280138 		.ascii	"&(\0018\373\274yJ\300\351\316\227\003\310\204r\001\030"
 975      FBBC794A 
 975      C0E9CE97 
 975      03C88472 
 975      0118
 976 1408 37A8CA2A 		.ascii	"7\250\312*\230=\005\311\371\024\030Y\227\030\256 ;~"
 976      983D05C9 
 976      F9141859 
 976      9718AE20 
 976      3B7E
 977 141a 97A216F8 		.ascii	"\227\242\026\370\362\024|?\306+\217\015&\025\004\307"
 977      F2147C3F 
 977      C62B8F0D 
ARM GAS  /tmp/ccUb86vt.s 			page 76


 977      261504C7 
 978 142a C21D510B 		.ascii	"\302\035Q\013\362S\005\003y\223\340U\2522\321\243\272"
 978      F2530503 
 978      7993E055 
 978      AA32D1A3 
 978      BA
 979 143b A144F204 		.ascii	"\241D\362\004\3257\372\257\376\201\304}\001P5\240\024"
 979      D537FAAF 
 979      FE81C47D 
 979      015035A0 
 979      14
 980 144c BA012969 		.ascii	"\272\001)i\202\252\006\374\231\340\316\240R \373\363"
 980      82AA06FC 
 980      99E0CEA0 
 980      5220FBF3 
 981 145c 41C52136 		.ascii	"A\305!68\243 .\247\020V$\271\013\301\314IA\027\234\241"
 981      38A3202E 
 981      A7105624 
 981      B90BC1CC 
 981      4941179C 
 982 1471 2678E94F 		.ascii	"&x\351O\005\300\202\"0\256\015\260\002u\"\002+\320\301"
 982      05C08222 
 982      30AE0DB0 
 982      02752202 
 982      2BD0C1
 983 1484 E0EC9B50 		.ascii	"\340\354\233P\010\026\302\305A\225\002\235_\023T\310"
 983      0816C2C5 
 983      4195029D 
 983      5F1354C8 
 984 1494 E777F85D 		.ascii	"\347w\370]E\375)%\275\236 \324\233e )z\222\346wM\220"
 984      45FD2925 
 984      BD9E20D4 
 984      9B652029 
 984      7A92E677 
 985 14aa 3DAAA770 		.ascii	"=\252\247p,\\A\031\364,\335\017:\313^\344\364t\235\333"
 985      2C5C4119 
 985      F42CDD0F 
 985      3ACB5EE4 
 985      F4749DDB 
 986 14be 9E428FEA 		.ascii	"\236B\217\352P\307\371\223\\\317\371|\336{\334\371\271"
 986      50C7F993 
 986      5CCFF97C 
 986      DE7BDCF9 
 986      B9
 987 14cf EEFC11C1 		.ascii	"\356\374\021\301\221J\320=R\031W\344\011(y#\354\330"
 987      914AD03D 
 987      521957E4 
 987      09287923 
 987      ECD8
 988 14e1 61126216 		.ascii	"a\022b\026\204I\356\244\340\177@\204>\017\001:\"w\344"
 988      8449EEA4 
 988      E07F4084 
 988      3E0F013A 
 988      2277E4
 989 14f4 40FC6014 		.ascii	"@\374`\024\016Z\362\350\237\343\203\215G\344\316\032"
 989      0E5AF2E8 
 989      9FE3838D 
ARM GAS  /tmp/ccUb86vt.s 			page 77


 989      47E4CE1A 
 990 1504 EF09A845 		.ascii	"\357\011\250E\262\327\245z\012\224\200\036\202\246G"
 990      B2D7A57A 
 990      0A94801E 
 990      82A647
 991 1513 29E3556C 		.ascii	")\343Ul\020tF\021\227\206\342\027^\270T\034\027\217"
 991      10744611 
 991      9786E217 
 991      5EB8541C 
 991      178F
 992 1525 3DE95209 		.ascii	"=\351R\011\323\321e*\344\312S\274\252\014\027c\212\012"
 992      D3D1652A 
 992      E4CA53BC 
 992      AA0C1763 
 992      8A0A
 993 1537 DD2E5C0E 		.ascii	"\335.\\\016]%\243\362r\000<\377\307\227G\004\237\015"
 993      5D25A3F2 
 993      72003CFF 
 993      C7974704 
 993      9F0D
 994 1549 1480C68E 		.ascii	"\024\200\306\216\361\252?#\314\003\\y\256R\360\274\034"
 994      F1AA3F23 
 994      CC035C79 
 994      AE52F0BC 
 994      1C
 995 155a 54733D63 		.ascii	"Ts=c\013e\357\010)\350\177\330J\221`\300M\333\035\267"
 995      0B65EF08 
 995      29E87FD8 
 995      4A9160C0 
 995      4DDB1DB7 
 996 156e 90E5820B 		.ascii	"\220\345\202\013%\257\010\202\034\233\372.\335\3528"
 996      25AF0882 
 996      1C9BFA2E 
 996      DDEA38
 997 157d BC3D8541 		.ascii	"\274=\205A%\240J\252?\223\272\002\335\223\034c<c|\340"
 997      25A04AAA 
 997      3F93BA02 
 997      DD931C63 
 997      3C637CE0 
 998 1591 AB02DF78 		.ascii	"\253\002\337x\205<\361F\236\364\323\237\344)\370\234"
 998      853CF146 
 998      9EF4D39F 
 998      E429F89C 
 999 15a1 81FDAF97 		.ascii	"\201\375\257\227v\250^\277~\257\347\314\300\016\035"
 999      76A85EBF 
 999      7EAFE7CC 
 999      C00E1D
 1000 15b0 09A49834 		.ascii	"\011\244\2304\"y\202\374\272R\344\027\375\375\360\303"
 1000      227982FC 
 1000      BA52E417 
 1000      FDFDF0C3 
 1001 15c0 177CB95E 		.ascii	"\027|\271^E\361\347\246B \342\240\272\307\370\370e0"
 1001      45F1E7A6 
 1001      4220E2A0 
 1001      BAC7F8F8 
 1001      6530
 1002 15d2 A5AF48CD 		.ascii	"\245\257H\315u\"\233f\3427\177\302\305s\035\205\252"
ARM GAS  /tmp/ccUb86vt.s 			page 78


 1002      75229B66 
 1002      E2377FC2 
 1002      C5731D85 
 1002      AA
 1003 15e3 DF014175 		.ascii	"\337\001Au?\341\312K\001\005\210\256z|\205\2241?\301"
 1003      3FE1CA4B 
 1003      010588AE 
 1003      7A7C8594 
 1003      313FC1
 1004 15f6 6F7EE743 		.ascii	"o~\347C,\322\225\177N\201\266(\357\276\250\347\317\346"
 1004      2CD2957F 
 1004      4E81B628 
 1004      EFBEA8E7 
 1004      CFE6
 1005 1608 83640388 		.ascii	"\203d\003\210\214\364a\356]Q\3712]\270\255\011N\200"
 1005      8CF461EE 
 1005      5D51F932 
 1005      5DB8AD09 
 1005      4E80
 1006 161a 30CEC7AE 		.ascii	"0\316\307\256\302o\025uD\272~\223\013\227\031(x\201"
 1006      C26F1575 
 1006      44BA7E93 
 1006      0B971928 
 1006      7881
 1007 162c 044A81DE 		.ascii	"\004J\201\336.\353\327\231(\"&\221\030\001\315]\221"
 1007      2EEBD799 
 1007      28222691 
 1007      1801CD5D 
 1007      91
 1008 163d FB94801E 		.ascii	"\373\224\200\036j\311\001\354\220\244\000n\231\002\244"
 1008      6AC901EC 
 1008      90A4006E 
 1008      9902A4
 1009 164c 650AE82D 		.ascii	"e\012\350-S\032<-\012@+\241&\005P\241{M,\244\301w\037"
 1009      531A3C2D 
 1009      0A402BA1 
 1009      260550A1 
 1009      7B4D2CA4 
 1010 1663 4B4FFD45 		.ascii	"KO\375E\006\220\313\013\264A\217\200h\350Q\177\"b\236"
 1010      0690CB0B 
 1010      B4418F80 
 1010      68E8517F 
 1010      22629E
 1011 1676 32BA68AC 		.ascii	"2\272h\254\036\265\306'i~\271\320\343v\201}\035y\243"
 1011      1EB5C627 
 1011      697EB9D0 
 1011      E376817D 
 1011      1D79A3
 1012 1689 C7A617C8 		.ascii	"\307\246\027\310@`\034\324\351A\365u\331\013\364#\004"
 1012      40601CD4 
 1012      E941F575 
 1012      D90BF423 
 1012      04
 1013 169a 7FF25761 		.ascii	"\177\362Wa\202\243\313\376\236<\257B\342\037\342^r\347"
 1013      82A3CBFE 
 1013      9E3CAF42 
 1013      E21FE25E 
ARM GAS  /tmp/ccUb86vt.s 			page 79


 1013      72E7
 1014 16ac 3FC12528 		.ascii	"?\301%(DL\316\260\027sG\344F\002\016Q\334]\360<\304"
 1014      444CCEB0 
 1014      177347E4 
 1014      46020E51 
 1014      DC5DF03C 
 1015 16c1 02C45D3F 		.ascii	"\002\304]?\227+\317\023\224G\003\230'0\256\237\354\235"
 1015      972BCF13 
 1015      94470398 
 1015      2730AE9F 
 1015      EC9D
 1016 16d3 204F0A02 		.ascii	" O\012\002\271\274\320\227d\272\\J!}\225\352\302\341"
 1016      B9BCD097 
 1016      64BA5C4A 
 1016      217D95EA 
 1016      C2E1
 1017 16e5 E372F5A3 		.ascii	"\343r\365\243\027\217>\361\370\320\307\215w\217\017"
 1017      178F3EF1 
 1017      F8D0C78D 
 1017      778F0F
 1018 16f4 FD3F2E4B 		.ascii	"\375?.K=\336"
 1018      3DDE
 1019              		.text
 1020              		.section	.gnu.lto_.symtab.3b0180d7713fbc36,"",%progbits
 1021 0000 63680000 		.ascii	"ch\000\000\000\000\000\000\000\000\000\000\000\000\005"
 1021      00000000 
 1021      00000000 
 1021      000005
 1022 000f 0200005F 		.ascii	"\002\000\000_scheduler_init\000\000\000\000\000\000"
 1022      73636865 
 1022      64756C65 
 1022      725F696E 
 1022      69740000 
 1023 0027 00000000 		.ascii	"\000\000\000\000\000\000\222\001\000\000queue_prio_"
 1023      00009201 
 1023      00007175 
 1023      6575655F 
 1023      7072696F 
 1024 003c 696E7365 		.ascii	"insert\000\000\000\000\000\000\000\000\000\000\000\000"
 1024      72740000 
 1024      00000000 
 1024      00000000 
 1024      0000
 1025 004e 95010000 		.ascii	"\225\001\000\000queue_insert\000\000\000\000\000\000"
 1025      71756575 
 1025      655F696E 
 1025      73657274 
 1025      00000000 
 1026 0064 00000000 		.ascii	"\000\000\000\000\000\000\236\001\000\000queue_fifo_"
 1026      00009E01 
 1026      00007175 
 1026      6575655F 
 1026      6669666F 
 1027 0079 72656D6F 		.ascii	"remove\000\000\000\000\000\000\000\000\000\000\000\000"
 1027      76650000 
 1027      00000000 
 1027      00000000 
ARM GAS  /tmp/ccUb86vt.s 			page 80


 1027      0000
 1028 008b A3010000 		.ascii	"\243\001\000\000queue_lifo_remove\000\000\000\000\000"
 1028      71756575 
 1028      655F6C69 
 1028      666F5F72 
 1028      656D6F76 
 1029 00a5 00000000 		.ascii	"\000\000\000\000\000\000\000\251\001\000\000queue_d"
 1029      000000A9 
 1029      01000071 
 1029      75657565 
 1029      5F64
 1030 00b7 65717565 		.ascii	"equeue\000\000\000\000\000\000\000\000\000\000\000\000"
 1030      75650000 
 1030      00000000 
 1030      00000000 
 1030      0000
 1031 00c9 AD010000 		.ascii	"\255\001\000\000list_insert\000\000\000\000\000\000"
 1031      6C697374 
 1031      5F696E73 
 1031      65727400 
 1031      00000000 
 1032 00de 00000000 		.ascii	"\000\000\000\000\000\000\263\001\000\000list_remove"
 1032      0000B301 
 1032      00006C69 
 1032      73745F72 
 1032      656D6F76 
 1033 00f3 00000000 		.ascii	"\000\000\000\000\000\000\000\000\000\000\000\000\275"
 1033      00000000 
 1033      00000000 
 1033      BD
 1034 0100 01000063 		.ascii	"\001\000\000chSchReadyI\000\000\000\000\000\000\000"
 1034      68536368 
 1034      52656164 
 1034      79490000 
 1034      00000000 
 1035 0115 00000000 		.ascii	"\000\000\000\000\000\303\001\000\000chSchGoSleepS\000"
 1035      00C30100 
 1035      00636853 
 1035      6368476F 
 1035      536C6565 
 1036 012c 00000000 		.ascii	"\000\000\000\000\000\000\000\000\000\000\000\314\001"
 1036      00000000 
 1036      000000CC 
 1036      01
 1037 0139 00006368 		.ascii	"\000\000chSchGoSleepTimeoutS\000\000\000\000\000\000"
 1037      53636847 
 1037      6F536C65 
 1037      65705469 
 1037      6D656F75 
 1038 0155 00000000 		.ascii	"\000\000\000\000\000\000\323\001\000\000chSchWakeup"
 1038      0000D301 
 1038      00006368 
 1038      53636857 
 1038      616B6575 
 1039 016a 53000000 		.ascii	"S\000\000\000\000\000\000\000\000\000\000\000\000\334"
 1039      00000000 
 1039      00000000 
ARM GAS  /tmp/ccUb86vt.s 			page 81


 1039      00DC
 1040 0178 01000063 		.ascii	"\001\000\000chSchIsPreemptionRequired\000\000\000\000"
 1040      68536368 
 1040      49735072 
 1040      65656D70 
 1040      74696F6E 
 1041 0198 00000000 		.ascii	"\000\000\000\000\000\000\000\000\346\001\000\000chS"
 1041      00000000 
 1041      E6010000 
 1041      636853
 1042 01a7 6368446F 		.ascii	"chDoRescheduleBehind\000\000\000\000\000\000\000\000"
 1042      52657363 
 1042      68656475 
 1042      6C654265 
 1042      68696E64 
 1043 01c3 00000000 		.ascii	"\000\000\000\000\351\001\000\000chSchDoRescheduleAh"
 1043      E9010000 
 1043      63685363 
 1043      68446F52 
 1043      65736368 
 1044 01de 65616400 		.ascii	"ead\000\000\000\000\000\000\000\000\000\000\000\000"
 1044      00000000 
 1044      00000000 
 1044      000000
 1045 01ed EC010000 		.ascii	"\354\001\000\000chSchRescheduleS\000\000\000\000\000"
 1045      63685363 
 1045      68526573 
 1045      63686564 
 1045      756C6553 
 1046 0206 00000000 		.ascii	"\000\000\000\000\000\000\000\357\001\000\000chSchDo"
 1046      000000EF 
 1046      01000063 
 1046      68536368 
 1046      446F
 1047 0218 52657363 		.ascii	"Reschedule\000\000\000\000\000\000\000\000\000\000\000"
 1047      68656475 
 1047      6C650000 
 1047      00000000 
 1047      00000000 
 1048 022d 00F20100 		.ascii	"\000\362\001\000\000_port_switch\000\000\002\000\000"
 1048      005F706F 
 1048      72745F73 
 1048      77697463 
 1048      68000002 
 1049 0243 00000000 		.ascii	"\000\000\000\000\000\000\000\365\001\000\000chVTDoR"
 1049      000000F5 
 1049      01000063 
 1049      68565444 
 1049      6F52
 1050 0255 65736574 		.ascii	"esetI\000\000\002\000\000\000\000\000\000\000\000\000"
 1050      49000002 
 1050      00000000 
 1050      00000000 
 1050      00
 1051 0266 FA010000 		.ascii	"\372\001\000\000chVTDoSetI\000\000\002\000\000\000\000"
 1051      63685654 
 1051      446F5365 
ARM GAS  /tmp/ccUb86vt.s 			page 82


 1051      74490000 
 1051      02000000 
 1052 027b 00000000 		.ascii	"\000\000\000\000\000\376\001\000\000"
 1052      00FE0100 
 1052      00
 1053              		.text
 1054              		.section	.gnu.lto_.opts,"",%progbits
 1055 0000 272D6D63 		.ascii	"'-mcpu=cortex-m0' '-mno-thumb-interwork' '-mthumb' "
 1055      70753D63 
 1055      6F727465 
 1055      782D6D30 
 1055      2720272D 
 1056 0033 272D6767 		.ascii	"'-ggdb' '-O0' '-fomit-frame-pointer' '-falign-funct"
 1056      64622720 
 1056      272D4F30 
 1056      2720272D 
 1056      666F6D69 
 1057 0066 696F6E73 		.ascii	"ions=16' '-ffunction-sections' '-fdata-sections' '-"
 1057      3D313627 
 1057      20272D66 
 1057      66756E63 
 1057      74696F6E 
 1058 0099 666E6F2D 		.ascii	"fno-common' '-flto'\000"
 1058      636F6D6D 
 1058      6F6E2720 
 1058      272D666C 
 1058      746F2700 
 1059              		.text
 1060              		.cfi_sections	.debug_frame
 1061              		.section	.text.port_lock,"ax",%progbits
 1062              		.align	2
 1063              		.p2align 4,,15
 1064              		.code	16
 1065              		.thumb_func
 1066              		.type	port_lock, %function
 1067              	port_lock:
 1068              	.LFB38:
 1069              		.file 1 "/home/efe/ChibiOS/os/rt/ports/ARMCMx/chcore_v6m.h"
 1070              		.loc 1 330 0
 1071              		.cfi_startproc
 1072              	.LBB6:
 1073              	.LBB7:
 1074              		.file 2 "/home/efe/ChibiOS/os/ext/CMSIS/include/core_cmFunc.h"
 1075              		.loc 2 344 0
 1076              	@ 344 "/home/efe/ChibiOS/os/ext/CMSIS/include/core_cmFunc.h" 1
 1077 0000 72B6     		cpsid i
 1078              	@ 0 "" 2
 1079              		.code	16
 1080              	.LBE7:
 1081              	.LBE6:
 1082              		.loc 1 333 0
 1083              		@ sp needed
 1084 0002 7047     		bx	lr
 1085              		.cfi_endproc
 1086              	.LFE38:
 1087              		.size	port_lock, .-port_lock
 1088 0004 C046C046 		.section	.text.port_unlock,"ax",%progbits
ARM GAS  /tmp/ccUb86vt.s 			page 83


 1088      C046C046 
 1088      C046C046 
 1089              		.align	2
 1090              		.p2align 4,,15
 1091              		.code	16
 1092              		.thumb_func
 1093              		.type	port_unlock, %function
 1094              	port_unlock:
 1095              	.LFB39:
 1096              		.loc 1 339 0
 1097              		.cfi_startproc
 1098              	.LBB8:
 1099              	.LBB9:
 1100              		.loc 2 333 0
 1101              	@ 333 "/home/efe/ChibiOS/os/ext/CMSIS/include/core_cmFunc.h" 1
 1102 0000 62B6     		cpsie i
 1103              	@ 0 "" 2
 1104              		.code	16
 1105              	.LBE9:
 1106              	.LBE8:
 1107              		.loc 1 342 0
 1108              		@ sp needed
 1109 0002 7047     		bx	lr
 1110              		.cfi_endproc
 1111              	.LFE39:
 1112              		.size	port_unlock, .-port_unlock
 1113 0004 C046C046 		.section	.text.port_lock_from_isr,"ax",%progbits
 1113      C046C046 
 1113      C046C046 
 1114              		.align	2
 1115              		.p2align 4,,15
 1116              		.code	16
 1117              		.thumb_func
 1118              		.type	port_lock_from_isr, %function
 1119              	port_lock_from_isr:
 1120              	.LFB40:
 1121              		.loc 1 349 0
 1122              		.cfi_startproc
 1123 0000 08B5     		push	{r3, lr}
 1124              		.cfi_def_cfa_offset 8
 1125              		.cfi_offset 3, -8
 1126              		.cfi_offset 14, -4
 1127              		.loc 1 351 0
 1128 0002 FFF7FEFF 		bl	port_lock
 1129              		.loc 1 352 0
 1130              		@ sp needed
 1131 0006 08BD     		pop	{r3, pc}
 1132              		.cfi_endproc
 1133              	.LFE40:
 1134              		.size	port_lock_from_isr, .-port_lock_from_isr
 1135 0008 C046C046 		.section	.text.port_unlock_from_isr,"ax",%progbits
 1135      C046C046 
 1136              		.align	2
 1137              		.p2align 4,,15
 1138              		.code	16
 1139              		.thumb_func
 1140              		.type	port_unlock_from_isr, %function
ARM GAS  /tmp/ccUb86vt.s 			page 84


 1141              	port_unlock_from_isr:
 1142              	.LFB41:
 1143              		.loc 1 359 0
 1144              		.cfi_startproc
 1145 0000 08B5     		push	{r3, lr}
 1146              		.cfi_def_cfa_offset 8
 1147              		.cfi_offset 3, -8
 1148              		.cfi_offset 14, -4
 1149              		.loc 1 361 0
 1150 0002 FFF7FEFF 		bl	port_unlock
 1151              		.loc 1 362 0
 1152              		@ sp needed
 1153 0006 08BD     		pop	{r3, pc}
 1154              		.cfi_endproc
 1155              	.LFE41:
 1156              		.size	port_unlock_from_isr, .-port_unlock_from_isr
 1157 0008 C046C046 		.section	.text.queue_init,"ax",%progbits
 1157      C046C046 
 1158              		.align	2
 1159              		.p2align 4,,15
 1160              		.code	16
 1161              		.thumb_func
 1162              		.type	queue_init, %function
 1163              	queue_init:
 1164              	.LFB60:
 1165              		.file 3 "/home/efe/ChibiOS/os/rt/include/chschd.h"
 1166              		.loc 3 602 0
 1167              		.cfi_startproc
 1168 0000 82B0     		sub	sp, sp, #8
 1169              		.cfi_def_cfa_offset 8
 1170 0002 0190     		str	r0, [sp, #4]
 1171              		.loc 3 604 0
 1172 0004 019B     		ldr	r3, [sp, #4]
 1173 0006 019A     		ldr	r2, [sp, #4]
 1174 0008 1A60     		str	r2, [r3]
 1175              		.loc 3 605 0
 1176 000a 019B     		ldr	r3, [sp, #4]
 1177 000c 019A     		ldr	r2, [sp, #4]
 1178 000e 5A60     		str	r2, [r3, #4]
 1179              		.loc 3 606 0
 1180 0010 02B0     		add	sp, sp, #8
 1181              		@ sp needed
 1182 0012 7047     		bx	lr
 1183              		.cfi_endproc
 1184              	.LFE60:
 1185              		.size	queue_init, .-queue_init
 1186 0014 C046C046 		.section	.text.chSchIsRescRequiredI,"ax",%progbits
 1186      C046C046 
 1186      C046C046 
 1187              		.align	2
 1188              		.p2align 4,,15
 1189              		.code	16
 1190              		.thumb_func
 1191              		.type	chSchIsRescRequiredI, %function
 1192              	chSchIsRescRequiredI:
 1193              	.LFB63:
 1194              		.loc 3 709 0
ARM GAS  /tmp/ccUb86vt.s 			page 85


 1195              		.cfi_startproc
 1196              		.loc 3 713 0
 1197 0000 054B     		ldr	r3, .L8
 1198 0002 1B68     		ldr	r3, [r3]
 1199 0004 9A68     		ldr	r2, [r3, #8]
 1200 0006 044B     		ldr	r3, .L8
 1201 0008 9B69     		ldr	r3, [r3, #24]
 1202 000a 9B68     		ldr	r3, [r3, #8]
 1203 000c 9342     		cmp	r3, r2
 1204 000e 9B41     		sbc	r3, r3, r3
 1205 0010 5B42     		neg	r3, r3
 1206 0012 DBB2     		uxtb	r3, r3
 1207              		.loc 3 714 0
 1208 0014 181C     		mov	r0, r3
 1209              		@ sp needed
 1210 0016 7047     		bx	lr
 1211              	.L9:
 1212              		.align	2
 1213              	.L8:
 1214 0018 00000000 		.word	ch
 1215              		.cfi_endproc
 1216              	.LFE63:
 1217              		.size	chSchIsRescRequiredI, .-chSchIsRescRequiredI
 1218 001c C046C046 		.section	.text.chSysLockFromISR,"ax",%progbits
 1219              		.align	2
 1220              		.p2align 4,,15
 1221              		.code	16
 1222              		.thumb_func
 1223              		.type	chSysLockFromISR, %function
 1224              	chSysLockFromISR:
 1225              	.LFB72:
 1226              		.file 4 "/home/efe/ChibiOS/os/rt/include/chsys.h"
 1227              		.loc 4 386 0
 1228              		.cfi_startproc
 1229 0000 08B5     		push	{r3, lr}
 1230              		.cfi_def_cfa_offset 8
 1231              		.cfi_offset 3, -8
 1232              		.cfi_offset 14, -4
 1233              		.loc 4 388 0
 1234 0002 FFF7FEFF 		bl	port_lock_from_isr
 1235              		.loc 4 391 0
 1236              		@ sp needed
 1237 0006 08BD     		pop	{r3, pc}
 1238              		.cfi_endproc
 1239              	.LFE72:
 1240              		.size	chSysLockFromISR, .-chSysLockFromISR
 1241 0008 C046C046 		.section	.text.chSysUnlockFromISR,"ax",%progbits
 1241      C046C046 
 1242              		.align	2
 1243              		.p2align 4,,15
 1244              		.code	16
 1245              		.thumb_func
 1246              		.type	chSysUnlockFromISR, %function
 1247              	chSysUnlockFromISR:
 1248              	.LFB73:
 1249              		.loc 4 406 0
 1250              		.cfi_startproc
ARM GAS  /tmp/ccUb86vt.s 			page 86


 1251 0000 08B5     		push	{r3, lr}
 1252              		.cfi_def_cfa_offset 8
 1253              		.cfi_offset 3, -8
 1254              		.cfi_offset 14, -4
 1255              		.loc 4 410 0
 1256 0002 FFF7FEFF 		bl	port_unlock_from_isr
 1257              		.loc 4 411 0
 1258              		@ sp needed
 1259 0006 08BD     		pop	{r3, pc}
 1260              		.cfi_endproc
 1261              	.LFE73:
 1262              		.size	chSysUnlockFromISR, .-chSysUnlockFromISR
 1263 0008 C046C046 		.section	.text.chVTIsArmedI,"ax",%progbits
 1263      C046C046 
 1264              		.align	2
 1265              		.p2align 4,,15
 1266              		.code	16
 1267              		.thumb_func
 1268              		.type	chVTIsArmedI, %function
 1269              	chVTIsArmedI:
 1270              	.LFB85:
 1271              		.file 5 "/home/efe/ChibiOS/os/rt/include/chvt.h"
 1272              		.loc 5 372 0
 1273              		.cfi_startproc
 1274 0000 82B0     		sub	sp, sp, #8
 1275              		.cfi_def_cfa_offset 8
 1276 0002 0190     		str	r0, [sp, #4]
 1277              		.loc 5 376 0
 1278 0004 019B     		ldr	r3, [sp, #4]
 1279 0006 DB68     		ldr	r3, [r3, #12]
 1280 0008 5A1E     		sub	r2, r3, #1
 1281 000a 9341     		sbc	r3, r3, r2
 1282 000c DBB2     		uxtb	r3, r3
 1283              		.loc 5 377 0
 1284 000e 181C     		mov	r0, r3
 1285 0010 02B0     		add	sp, sp, #8
 1286              		@ sp needed
 1287 0012 7047     		bx	lr
 1288              		.cfi_endproc
 1289              	.LFE85:
 1290              		.size	chVTIsArmedI, .-chVTIsArmedI
 1291 0014 C046C046 		.section	.text.chSemFastSignalI,"ax",%progbits
 1291      C046C046 
 1291      C046C046 
 1292              		.align	2
 1293              		.p2align 4,,15
 1294              		.code	16
 1295              		.thumb_func
 1296              		.type	chSemFastSignalI, %function
 1297              	chSemFastSignalI:
 1298              	.LFB105:
 1299              		.file 6 "/home/efe/ChibiOS/os/rt/include/chsem.h"
 1300              		.loc 6 134 0
 1301              		.cfi_startproc
 1302 0000 82B0     		sub	sp, sp, #8
 1303              		.cfi_def_cfa_offset 8
 1304 0002 0190     		str	r0, [sp, #4]
ARM GAS  /tmp/ccUb86vt.s 			page 87


 1305              		.loc 6 138 0
 1306 0004 019B     		ldr	r3, [sp, #4]
 1307 0006 9B68     		ldr	r3, [r3, #8]
 1308 0008 5A1C     		add	r2, r3, #1
 1309 000a 019B     		ldr	r3, [sp, #4]
 1310 000c 9A60     		str	r2, [r3, #8]
 1311              		.loc 6 139 0
 1312 000e 02B0     		add	sp, sp, #8
 1313              		@ sp needed
 1314 0010 7047     		bx	lr
 1315              		.cfi_endproc
 1316              	.LFE105:
 1317              		.size	chSemFastSignalI, .-chSemFastSignalI
 1318              		.global	ch
 1319 0012 C046C046 		.section	.bss.ch,"aw",%nobits
 1319      C046C046 
 1319      C046C046 
 1319      C046
 1320              		.align	3
 1321              		.type	ch, %object
 1322              		.size	ch, 296
 1323              	ch:
 1324 0000 00000000 		.space	296
 1324      00000000 
 1324      00000000 
 1324      00000000 
 1324      00000000 
 1325              		.section	.text._scheduler_init,"ax",%progbits
 1326              		.align	2
 1327              		.p2align 4,,15
 1328              		.global	_scheduler_init
 1329              		.code	16
 1330              		.thumb_func
 1331              		.type	_scheduler_init, %function
 1332              	_scheduler_init:
 1333              	.LFB119:
 1334              		.file 7 "/home/efe/ChibiOS/os/rt/src/chschd.c"
 1335              		.loc 7 65 0
 1336              		.cfi_startproc
 1337 0000 08B5     		push	{r3, lr}
 1338              		.cfi_def_cfa_offset 8
 1339              		.cfi_offset 3, -8
 1340              		.cfi_offset 14, -4
 1341              		.loc 7 67 0
 1342 0002 074B     		ldr	r3, .L16
 1343 0004 181C     		mov	r0, r3
 1344 0006 FFF7FEFF 		bl	queue_init
 1345              		.loc 7 68 0
 1346 000a 054B     		ldr	r3, .L16
 1347 000c 0022     		mov	r2, #0
 1348 000e 9A60     		str	r2, [r3, #8]
 1349              		.loc 7 70 0
 1350 0010 034B     		ldr	r3, .L16
 1351 0012 034A     		ldr	r2, .L16
 1352 0014 1A61     		str	r2, [r3, #16]
 1353              		.loc 7 71 0
 1354 0016 024B     		ldr	r3, .L16
ARM GAS  /tmp/ccUb86vt.s 			page 88


 1355 0018 014A     		ldr	r2, .L16
 1356 001a 5A61     		str	r2, [r3, #20]
 1357              		.loc 7 73 0
 1358              		@ sp needed
 1359 001c 08BD     		pop	{r3, pc}
 1360              	.L17:
 1361 001e C046     		.align	2
 1362              	.L16:
 1363 0020 00000000 		.word	ch
 1364              		.cfi_endproc
 1365              	.LFE119:
 1366              		.size	_scheduler_init, .-_scheduler_init
 1367 0024 C046C046 		.section	.text.queue_prio_insert,"ax",%progbits
 1367      C046C046 
 1367      C046C046 
 1368              		.align	2
 1369              		.p2align 4,,15
 1370              		.global	queue_prio_insert
 1371              		.code	16
 1372              		.thumb_func
 1373              		.type	queue_prio_insert, %function
 1374              	queue_prio_insert:
 1375              	.LFB120:
 1376              		.loc 7 86 0
 1377              		.cfi_startproc
 1378 0000 84B0     		sub	sp, sp, #16
 1379              		.cfi_def_cfa_offset 16
 1380 0002 0190     		str	r0, [sp, #4]
 1381 0004 0091     		str	r1, [sp]
 1382              		.loc 7 88 0
 1383 0006 009B     		ldr	r3, [sp]
 1384 0008 0393     		str	r3, [sp, #12]
 1385              	.L20:
 1386              		.loc 7 90 0 discriminator 1
 1387 000a 039B     		ldr	r3, [sp, #12]
 1388 000c 1B68     		ldr	r3, [r3]
 1389 000e 0393     		str	r3, [sp, #12]
 1390              		.loc 7 91 0 discriminator 1
 1391 0010 039A     		ldr	r2, [sp, #12]
 1392 0012 009B     		ldr	r3, [sp]
 1393 0014 9A42     		cmp	r2, r3
 1394 0016 05D0     		beq	.L19
 1395 0018 039B     		ldr	r3, [sp, #12]
 1396 001a 9A68     		ldr	r2, [r3, #8]
 1397 001c 019B     		ldr	r3, [sp, #4]
 1398 001e 9B68     		ldr	r3, [r3, #8]
 1399 0020 9A42     		cmp	r2, r3
 1400 0022 F2D2     		bcs	.L20
 1401              	.L19:
 1402              		.loc 7 92 0
 1403 0024 019B     		ldr	r3, [sp, #4]
 1404 0026 039A     		ldr	r2, [sp, #12]
 1405 0028 1A60     		str	r2, [r3]
 1406              		.loc 7 93 0
 1407 002a 039B     		ldr	r3, [sp, #12]
 1408 002c 5A68     		ldr	r2, [r3, #4]
 1409 002e 019B     		ldr	r3, [sp, #4]
ARM GAS  /tmp/ccUb86vt.s 			page 89


 1410 0030 5A60     		str	r2, [r3, #4]
 1411              		.loc 7 94 0
 1412 0032 019B     		ldr	r3, [sp, #4]
 1413 0034 5B68     		ldr	r3, [r3, #4]
 1414 0036 019A     		ldr	r2, [sp, #4]
 1415 0038 1A60     		str	r2, [r3]
 1416              		.loc 7 95 0
 1417 003a 039B     		ldr	r3, [sp, #12]
 1418 003c 019A     		ldr	r2, [sp, #4]
 1419 003e 5A60     		str	r2, [r3, #4]
 1420              		.loc 7 96 0
 1421 0040 04B0     		add	sp, sp, #16
 1422              		@ sp needed
 1423 0042 7047     		bx	lr
 1424              		.cfi_endproc
 1425              	.LFE120:
 1426              		.size	queue_prio_insert, .-queue_prio_insert
 1427 0044 C046C046 		.section	.text.queue_insert,"ax",%progbits
 1427      C046C046 
 1427      C046C046 
 1428              		.align	2
 1429              		.p2align 4,,15
 1430              		.global	queue_insert
 1431              		.code	16
 1432              		.thumb_func
 1433              		.type	queue_insert, %function
 1434              	queue_insert:
 1435              	.LFB121:
 1436              		.loc 7 106 0
 1437              		.cfi_startproc
 1438 0000 82B0     		sub	sp, sp, #8
 1439              		.cfi_def_cfa_offset 8
 1440 0002 0190     		str	r0, [sp, #4]
 1441 0004 0091     		str	r1, [sp]
 1442              		.loc 7 108 0
 1443 0006 019B     		ldr	r3, [sp, #4]
 1444 0008 009A     		ldr	r2, [sp]
 1445 000a 1A60     		str	r2, [r3]
 1446              		.loc 7 109 0
 1447 000c 009B     		ldr	r3, [sp]
 1448 000e 5A68     		ldr	r2, [r3, #4]
 1449 0010 019B     		ldr	r3, [sp, #4]
 1450 0012 5A60     		str	r2, [r3, #4]
 1451              		.loc 7 110 0
 1452 0014 019B     		ldr	r3, [sp, #4]
 1453 0016 5B68     		ldr	r3, [r3, #4]
 1454 0018 019A     		ldr	r2, [sp, #4]
 1455 001a 1A60     		str	r2, [r3]
 1456              		.loc 7 111 0
 1457 001c 009B     		ldr	r3, [sp]
 1458 001e 019A     		ldr	r2, [sp, #4]
 1459 0020 5A60     		str	r2, [r3, #4]
 1460              		.loc 7 112 0
 1461 0022 02B0     		add	sp, sp, #8
 1462              		@ sp needed
 1463 0024 7047     		bx	lr
 1464              		.cfi_endproc
ARM GAS  /tmp/ccUb86vt.s 			page 90


 1465              	.LFE121:
 1466              		.size	queue_insert, .-queue_insert
 1467 0026 C046C046 		.section	.text.queue_fifo_remove,"ax",%progbits
 1467      C046C046 
 1467      C046
 1468              		.align	2
 1469              		.p2align 4,,15
 1470              		.global	queue_fifo_remove
 1471              		.code	16
 1472              		.thumb_func
 1473              		.type	queue_fifo_remove, %function
 1474              	queue_fifo_remove:
 1475              	.LFB122:
 1476              		.loc 7 124 0
 1477              		.cfi_startproc
 1478 0000 84B0     		sub	sp, sp, #16
 1479              		.cfi_def_cfa_offset 16
 1480 0002 0190     		str	r0, [sp, #4]
 1481              		.loc 7 125 0
 1482 0004 019B     		ldr	r3, [sp, #4]
 1483 0006 1B68     		ldr	r3, [r3]
 1484 0008 0393     		str	r3, [sp, #12]
 1485              		.loc 7 127 0
 1486 000a 039B     		ldr	r3, [sp, #12]
 1487 000c 1A68     		ldr	r2, [r3]
 1488 000e 019B     		ldr	r3, [sp, #4]
 1489 0010 1A60     		str	r2, [r3]
 1490              		.loc 7 128 0
 1491 0012 019B     		ldr	r3, [sp, #4]
 1492 0014 1B68     		ldr	r3, [r3]
 1493 0016 019A     		ldr	r2, [sp, #4]
 1494 0018 5A60     		str	r2, [r3, #4]
 1495              		.loc 7 130 0
 1496 001a 039B     		ldr	r3, [sp, #12]
 1497              		.loc 7 131 0
 1498 001c 181C     		mov	r0, r3
 1499 001e 04B0     		add	sp, sp, #16
 1500              		@ sp needed
 1501 0020 7047     		bx	lr
 1502              		.cfi_endproc
 1503              	.LFE122:
 1504              		.size	queue_fifo_remove, .-queue_fifo_remove
 1505 0022 C046C046 		.section	.text.queue_lifo_remove,"ax",%progbits
 1505      C046C046 
 1505      C046C046 
 1505      C046
 1506              		.align	2
 1507              		.p2align 4,,15
 1508              		.global	queue_lifo_remove
 1509              		.code	16
 1510              		.thumb_func
 1511              		.type	queue_lifo_remove, %function
 1512              	queue_lifo_remove:
 1513              	.LFB123:
 1514              		.loc 7 143 0
 1515              		.cfi_startproc
 1516 0000 84B0     		sub	sp, sp, #16
ARM GAS  /tmp/ccUb86vt.s 			page 91


 1517              		.cfi_def_cfa_offset 16
 1518 0002 0190     		str	r0, [sp, #4]
 1519              		.loc 7 144 0
 1520 0004 019B     		ldr	r3, [sp, #4]
 1521 0006 5B68     		ldr	r3, [r3, #4]
 1522 0008 0393     		str	r3, [sp, #12]
 1523              		.loc 7 146 0
 1524 000a 039B     		ldr	r3, [sp, #12]
 1525 000c 5A68     		ldr	r2, [r3, #4]
 1526 000e 019B     		ldr	r3, [sp, #4]
 1527 0010 5A60     		str	r2, [r3, #4]
 1528              		.loc 7 147 0
 1529 0012 019B     		ldr	r3, [sp, #4]
 1530 0014 5B68     		ldr	r3, [r3, #4]
 1531 0016 019A     		ldr	r2, [sp, #4]
 1532 0018 1A60     		str	r2, [r3]
 1533              		.loc 7 149 0
 1534 001a 039B     		ldr	r3, [sp, #12]
 1535              		.loc 7 150 0
 1536 001c 181C     		mov	r0, r3
 1537 001e 04B0     		add	sp, sp, #16
 1538              		@ sp needed
 1539 0020 7047     		bx	lr
 1540              		.cfi_endproc
 1541              	.LFE123:
 1542              		.size	queue_lifo_remove, .-queue_lifo_remove
 1543 0022 C046C046 		.section	.text.queue_dequeue,"ax",%progbits
 1543      C046C046 
 1543      C046C046 
 1543      C046
 1544              		.align	2
 1545              		.p2align 4,,15
 1546              		.global	queue_dequeue
 1547              		.code	16
 1548              		.thumb_func
 1549              		.type	queue_dequeue, %function
 1550              	queue_dequeue:
 1551              	.LFB124:
 1552              		.loc 7 162 0
 1553              		.cfi_startproc
 1554 0000 82B0     		sub	sp, sp, #8
 1555              		.cfi_def_cfa_offset 8
 1556 0002 0190     		str	r0, [sp, #4]
 1557              		.loc 7 164 0
 1558 0004 019B     		ldr	r3, [sp, #4]
 1559 0006 5B68     		ldr	r3, [r3, #4]
 1560 0008 019A     		ldr	r2, [sp, #4]
 1561 000a 1268     		ldr	r2, [r2]
 1562 000c 1A60     		str	r2, [r3]
 1563              		.loc 7 165 0
 1564 000e 019B     		ldr	r3, [sp, #4]
 1565 0010 1B68     		ldr	r3, [r3]
 1566 0012 019A     		ldr	r2, [sp, #4]
 1567 0014 5268     		ldr	r2, [r2, #4]
 1568 0016 5A60     		str	r2, [r3, #4]
 1569              		.loc 7 167 0
 1570 0018 019B     		ldr	r3, [sp, #4]
ARM GAS  /tmp/ccUb86vt.s 			page 92


 1571              		.loc 7 168 0
 1572 001a 181C     		mov	r0, r3
 1573 001c 02B0     		add	sp, sp, #8
 1574              		@ sp needed
 1575 001e 7047     		bx	lr
 1576              		.cfi_endproc
 1577              	.LFE124:
 1578              		.size	queue_dequeue, .-queue_dequeue
 1579              		.section	.text.list_insert,"ax",%progbits
 1580              		.align	2
 1581              		.p2align 4,,15
 1582              		.global	list_insert
 1583              		.code	16
 1584              		.thumb_func
 1585              		.type	list_insert, %function
 1586              	list_insert:
 1587              	.LFB125:
 1588              		.loc 7 178 0
 1589              		.cfi_startproc
 1590 0000 82B0     		sub	sp, sp, #8
 1591              		.cfi_def_cfa_offset 8
 1592 0002 0190     		str	r0, [sp, #4]
 1593 0004 0091     		str	r1, [sp]
 1594              		.loc 7 180 0
 1595 0006 009B     		ldr	r3, [sp]
 1596 0008 1A68     		ldr	r2, [r3]
 1597 000a 019B     		ldr	r3, [sp, #4]
 1598 000c 1A60     		str	r2, [r3]
 1599              		.loc 7 181 0
 1600 000e 009B     		ldr	r3, [sp]
 1601 0010 019A     		ldr	r2, [sp, #4]
 1602 0012 1A60     		str	r2, [r3]
 1603              		.loc 7 182 0
 1604 0014 02B0     		add	sp, sp, #8
 1605              		@ sp needed
 1606 0016 7047     		bx	lr
 1607              		.cfi_endproc
 1608              	.LFE125:
 1609              		.size	list_insert, .-list_insert
 1610 0018 C046C046 		.section	.text.list_remove,"ax",%progbits
 1610      C046C046 
 1611              		.align	2
 1612              		.p2align 4,,15
 1613              		.global	list_remove
 1614              		.code	16
 1615              		.thumb_func
 1616              		.type	list_remove, %function
 1617              	list_remove:
 1618              	.LFB126:
 1619              		.loc 7 193 0
 1620              		.cfi_startproc
 1621 0000 84B0     		sub	sp, sp, #16
 1622              		.cfi_def_cfa_offset 16
 1623 0002 0190     		str	r0, [sp, #4]
 1624              		.loc 7 195 0
 1625 0004 019B     		ldr	r3, [sp, #4]
 1626 0006 1B68     		ldr	r3, [r3]
ARM GAS  /tmp/ccUb86vt.s 			page 93


 1627 0008 0393     		str	r3, [sp, #12]
 1628              		.loc 7 196 0
 1629 000a 039B     		ldr	r3, [sp, #12]
 1630 000c 1A68     		ldr	r2, [r3]
 1631 000e 019B     		ldr	r3, [sp, #4]
 1632 0010 1A60     		str	r2, [r3]
 1633              		.loc 7 198 0
 1634 0012 039B     		ldr	r3, [sp, #12]
 1635              		.loc 7 199 0
 1636 0014 181C     		mov	r0, r3
 1637 0016 04B0     		add	sp, sp, #16
 1638              		@ sp needed
 1639 0018 7047     		bx	lr
 1640              		.cfi_endproc
 1641              	.LFE126:
 1642              		.size	list_remove, .-list_remove
 1643 001a C046C046 		.section	.text.chSchReadyI,"ax",%progbits
 1643      C046
 1644              		.align	2
 1645              		.p2align 4,,15
 1646              		.global	chSchReadyI
 1647              		.code	16
 1648              		.thumb_func
 1649              		.type	chSchReadyI, %function
 1650              	chSchReadyI:
 1651              	.LFB127:
 1652              		.loc 7 218 0
 1653              		.cfi_startproc
 1654 0000 84B0     		sub	sp, sp, #16
 1655              		.cfi_def_cfa_offset 16
 1656 0002 0190     		str	r0, [sp, #4]
 1657              		.loc 7 227 0
 1658 0004 019B     		ldr	r3, [sp, #4]
 1659 0006 0022     		mov	r2, #0
 1660 0008 1A77     		strb	r2, [r3, #28]
 1661              		.loc 7 228 0
 1662 000a 0E4B     		ldr	r3, .L34
 1663 000c 0393     		str	r3, [sp, #12]
 1664              	.L32:
 1665              		.loc 7 230 0 discriminator 1
 1666 000e 039B     		ldr	r3, [sp, #12]
 1667 0010 1B68     		ldr	r3, [r3]
 1668 0012 0393     		str	r3, [sp, #12]
 1669              		.loc 7 231 0 discriminator 1
 1670 0014 039B     		ldr	r3, [sp, #12]
 1671 0016 9A68     		ldr	r2, [r3, #8]
 1672 0018 019B     		ldr	r3, [sp, #4]
 1673 001a 9B68     		ldr	r3, [r3, #8]
 1674 001c 9A42     		cmp	r2, r3
 1675 001e F6D2     		bcs	.L32
 1676              		.loc 7 233 0
 1677 0020 019B     		ldr	r3, [sp, #4]
 1678 0022 039A     		ldr	r2, [sp, #12]
 1679 0024 1A60     		str	r2, [r3]
 1680              		.loc 7 234 0
 1681 0026 039B     		ldr	r3, [sp, #12]
 1682 0028 5A68     		ldr	r2, [r3, #4]
ARM GAS  /tmp/ccUb86vt.s 			page 94


 1683 002a 019B     		ldr	r3, [sp, #4]
 1684 002c 5A60     		str	r2, [r3, #4]
 1685              		.loc 7 235 0
 1686 002e 019B     		ldr	r3, [sp, #4]
 1687 0030 5B68     		ldr	r3, [r3, #4]
 1688 0032 019A     		ldr	r2, [sp, #4]
 1689 0034 1A60     		str	r2, [r3]
 1690              		.loc 7 236 0
 1691 0036 039B     		ldr	r3, [sp, #12]
 1692 0038 019A     		ldr	r2, [sp, #4]
 1693 003a 5A60     		str	r2, [r3, #4]
 1694              		.loc 7 238 0
 1695 003c 019B     		ldr	r3, [sp, #4]
 1696              		.loc 7 239 0
 1697 003e 181C     		mov	r0, r3
 1698 0040 04B0     		add	sp, sp, #16
 1699              		@ sp needed
 1700 0042 7047     		bx	lr
 1701              	.L35:
 1702              		.align	2
 1703              	.L34:
 1704 0044 00000000 		.word	ch
 1705              		.cfi_endproc
 1706              	.LFE127:
 1707              		.size	chSchReadyI, .-chSchReadyI
 1708 0048 C046C046 		.section	.text.chSchGoSleepS,"ax",%progbits
 1708      C046C046 
 1709              		.align	2
 1710              		.p2align 4,,15
 1711              		.global	chSchGoSleepS
 1712              		.code	16
 1713              		.thumb_func
 1714              		.type	chSchGoSleepS, %function
 1715              	chSchGoSleepS:
 1716              	.LFB128:
 1717              		.loc 7 250 0
 1718              		.cfi_startproc
 1719 0000 00B5     		push	{lr}
 1720              		.cfi_def_cfa_offset 4
 1721              		.cfi_offset 14, -4
 1722 0002 85B0     		sub	sp, sp, #20
 1723              		.cfi_def_cfa_offset 24
 1724 0004 021C     		mov	r2, r0
 1725 0006 6B46     		mov	r3, sp
 1726 0008 0733     		add	r3, r3, #7
 1727 000a 1A70     		strb	r2, [r3]
 1728              		.loc 7 255 0
 1729 000c 0D4B     		ldr	r3, .L37
 1730 000e 9B69     		ldr	r3, [r3, #24]
 1731 0010 0393     		str	r3, [sp, #12]
 1732              		.loc 7 256 0
 1733 0012 039B     		ldr	r3, [sp, #12]
 1734 0014 6A46     		mov	r2, sp
 1735 0016 0732     		add	r2, r2, #7
 1736 0018 1278     		ldrb	r2, [r2]
 1737 001a 1A77     		strb	r2, [r3, #28]
 1738              		.loc 7 262 0
ARM GAS  /tmp/ccUb86vt.s 			page 95


 1739 001c 094B     		ldr	r3, .L37
 1740 001e 181C     		mov	r0, r3
 1741 0020 FFF7FEFF 		bl	queue_fifo_remove
 1742 0024 021C     		mov	r2, r0
 1743 0026 074B     		ldr	r3, .L37
 1744 0028 9A61     		str	r2, [r3, #24]
 1745              		.loc 7 268 0
 1746 002a 064B     		ldr	r3, .L37
 1747 002c 9B69     		ldr	r3, [r3, #24]
 1748 002e 0122     		mov	r2, #1
 1749 0030 1A77     		strb	r2, [r3, #28]
 1750              		.loc 7 269 0
 1751 0032 044B     		ldr	r3, .L37
 1752 0034 9A69     		ldr	r2, [r3, #24]
 1753 0036 039B     		ldr	r3, [sp, #12]
 1754 0038 101C     		mov	r0, r2
 1755 003a 191C     		mov	r1, r3
 1756 003c FFF7FEFF 		bl	_port_switch
 1757              		.loc 7 270 0
 1758 0040 05B0     		add	sp, sp, #20
 1759              		@ sp needed
 1760 0042 00BD     		pop	{pc}
 1761              	.L38:
 1762              		.align	2
 1763              	.L37:
 1764 0044 00000000 		.word	ch
 1765              		.cfi_endproc
 1766              	.LFE128:
 1767              		.size	chSchGoSleepS, .-chSchGoSleepS
 1768 0048 C046C046 		.section	.text.wakeup,"ax",%progbits
 1768      C046C046 
 1769              		.align	2
 1770              		.p2align 4,,15
 1771              		.code	16
 1772              		.thumb_func
 1773              		.type	wakeup, %function
 1774              	wakeup:
 1775              	.LFB129:
 1776              		.loc 7 275 0
 1777              		.cfi_startproc
 1778 0000 00B5     		push	{lr}
 1779              		.cfi_def_cfa_offset 4
 1780              		.cfi_offset 14, -4
 1781 0002 85B0     		sub	sp, sp, #20
 1782              		.cfi_def_cfa_offset 24
 1783 0004 0190     		str	r0, [sp, #4]
 1784              		.loc 7 276 0
 1785 0006 019B     		ldr	r3, [sp, #4]
 1786 0008 0393     		str	r3, [sp, #12]
 1787              		.loc 7 278 0
 1788 000a FFF7FEFF 		bl	chSysLockFromISR
 1789              		.loc 7 279 0
 1790 000e 039B     		ldr	r3, [sp, #12]
 1791 0010 1B7F     		ldrb	r3, [r3, #28]
 1792 0012 072B     		cmp	r3, #7
 1793 0014 16D8     		bhi	.L48
 1794 0016 9A00     		lsl	r2, r3, #2
ARM GAS  /tmp/ccUb86vt.s 			page 96


 1795 0018 114B     		ldr	r3, .L49
 1796 001a D318     		add	r3, r2, r3
 1797 001c 1B68     		ldr	r3, [r3]
 1798 001e 9F46     		mov	pc, r3
 1799              		.section	.rodata.wakeup,"a",%progbits
 1800              		.align	2
 1801              	.L42:
 1802 0000 20000000 		.word	.L41
 1803 0004 44000000 		.word	.L48
 1804 0008 44000000 		.word	.L48
 1805 000c 26000000 		.word	.L43
 1806 0010 3A000000 		.word	.L44
 1807 0014 30000000 		.word	.L45
 1808 0018 44000000 		.word	.L48
 1809 001c 3A000000 		.word	.L44
 1810              		.section	.text.wakeup
 1811              	.L41:
 1812              		.loc 7 283 0
 1813 0020 FFF7FEFF 		bl	chSysUnlockFromISR
 1814              		.loc 7 284 0
 1815 0024 19E0     		b	.L39
 1816              	.L43:
 1817              		.loc 7 286 0
 1818 0026 039B     		ldr	r3, [sp, #12]
 1819 0028 1B6A     		ldr	r3, [r3, #32]
 1820 002a 0022     		mov	r2, #0
 1821 002c 1A60     		str	r2, [r3]
 1822              		.loc 7 287 0
 1823 002e 0AE0     		b	.L47
 1824              	.L45:
 1825              		.loc 7 290 0
 1826 0030 039B     		ldr	r3, [sp, #12]
 1827 0032 1B6A     		ldr	r3, [r3, #32]
 1828 0034 181C     		mov	r0, r3
 1829 0036 FFF7FEFF 		bl	chSemFastSignalI
 1830              	.L44:
 1831              		.loc 7 298 0
 1832 003a 039B     		ldr	r3, [sp, #12]
 1833 003c 181C     		mov	r0, r3
 1834 003e FFF7FEFF 		bl	queue_dequeue
 1835              		.loc 7 299 0
 1836 0042 00E0     		b	.L47
 1837              	.L48:
 1838              		.loc 7 302 0
 1839 0044 C046     		mov	r8, r8
 1840              	.L47:
 1841              		.loc 7 304 0
 1842 0046 039B     		ldr	r3, [sp, #12]
 1843 0048 0122     		mov	r2, #1
 1844 004a 5242     		neg	r2, r2
 1845 004c 1A62     		str	r2, [r3, #32]
 1846              		.loc 7 305 0
 1847 004e 039B     		ldr	r3, [sp, #12]
 1848 0050 181C     		mov	r0, r3
 1849 0052 FFF7FEFF 		bl	chSchReadyI
 1850              		.loc 7 306 0
 1851 0056 FFF7FEFF 		bl	chSysUnlockFromISR
ARM GAS  /tmp/ccUb86vt.s 			page 97


 1852              	.L39:
 1853              		.loc 7 307 0
 1854 005a 05B0     		add	sp, sp, #20
 1855              		@ sp needed
 1856 005c 00BD     		pop	{pc}
 1857              	.L50:
 1858 005e C046     		.align	2
 1859              	.L49:
 1860 0060 00000000 		.word	.L42
 1861              		.cfi_endproc
 1862              	.LFE129:
 1863              		.size	wakeup, .-wakeup
 1864 0064 C046C046 		.section	.text.chSchGoSleepTimeoutS,"ax",%progbits
 1864      C046C046 
 1864      C046C046 
 1865              		.align	2
 1866              		.p2align 4,,15
 1867              		.global	chSchGoSleepTimeoutS
 1868              		.code	16
 1869              		.thumb_func
 1870              		.type	chSchGoSleepTimeoutS, %function
 1871              	chSchGoSleepTimeoutS:
 1872              	.LFB130:
 1873              		.loc 7 330 0
 1874              		.cfi_startproc
 1875 0000 00B5     		push	{lr}
 1876              		.cfi_def_cfa_offset 4
 1877              		.cfi_offset 14, -4
 1878 0002 89B0     		sub	sp, sp, #36
 1879              		.cfi_def_cfa_offset 40
 1880 0004 0A1C     		mov	r2, r1
 1881 0006 6B46     		mov	r3, sp
 1882 0008 0733     		add	r3, r3, #7
 1883 000a 011C     		add	r1, r0, #0
 1884 000c 1970     		strb	r1, [r3]
 1885 000e 01AB     		add	r3, sp, #4
 1886 0010 1A80     		strh	r2, [r3]
 1887              		.loc 7 334 0
 1888 0012 01AB     		add	r3, sp, #4
 1889 0014 1A88     		ldrh	r2, [r3]
 1890 0016 154B     		ldr	r3, .L56
 1891 0018 9A42     		cmp	r2, r3
 1892 001a 1AD0     		beq	.L52
 1893              	.LBB10:
 1894              		.loc 7 337 0
 1895 001c 144B     		ldr	r3, .L56+4
 1896 001e 9B69     		ldr	r3, [r3, #24]
 1897 0020 03A8     		add	r0, sp, #12
 1898 0022 01AA     		add	r2, sp, #4
 1899 0024 1188     		ldrh	r1, [r2]
 1900 0026 134A     		ldr	r2, .L56+8
 1901 0028 FFF7FEFF 		bl	chVTDoSetI
 1902              		.loc 7 338 0
 1903 002c 6B46     		mov	r3, sp
 1904 002e 0733     		add	r3, r3, #7
 1905 0030 1B78     		ldrb	r3, [r3]
 1906 0032 181C     		mov	r0, r3
ARM GAS  /tmp/ccUb86vt.s 			page 98


 1907 0034 FFF7FEFF 		bl	chSchGoSleepS
 1908              		.loc 7 339 0
 1909 0038 03AB     		add	r3, sp, #12
 1910 003a 181C     		mov	r0, r3
 1911 003c FFF7FEFF 		bl	chVTIsArmedI
 1912 0040 031C     		mov	r3, r0
 1913 0042 002B     		cmp	r3, #0
 1914 0044 04D0     		beq	.L53
 1915              		.loc 7 340 0
 1916 0046 03AB     		add	r3, sp, #12
 1917 0048 181C     		mov	r0, r3
 1918 004a FFF7FEFF 		bl	chVTDoResetI
 1919              	.LBE10:
 1920 004e 06E0     		b	.L54
 1921              	.L53:
 1922 0050 05E0     		b	.L54
 1923              	.L52:
 1924              		.loc 7 344 0
 1925 0052 6B46     		mov	r3, sp
 1926 0054 0733     		add	r3, r3, #7
 1927 0056 1B78     		ldrb	r3, [r3]
 1928 0058 181C     		mov	r0, r3
 1929 005a FFF7FEFF 		bl	chSchGoSleepS
 1930              	.L54:
 1931              		.loc 7 347 0
 1932 005e 044B     		ldr	r3, .L56+4
 1933 0060 9B69     		ldr	r3, [r3, #24]
 1934 0062 1B6A     		ldr	r3, [r3, #32]
 1935              		.loc 7 348 0
 1936 0064 181C     		mov	r0, r3
 1937 0066 09B0     		add	sp, sp, #36
 1938              		@ sp needed
 1939 0068 00BD     		pop	{pc}
 1940              	.L57:
 1941 006a C046     		.align	2
 1942              	.L56:
 1943 006c FFFF0000 		.word	65535
 1944 0070 00000000 		.word	ch
 1945 0074 00000000 		.word	wakeup
 1946              		.cfi_endproc
 1947              	.LFE130:
 1948              		.size	chSchGoSleepTimeoutS, .-chSchGoSleepTimeoutS
 1949 0078 C046C046 		.section	.text.chSchWakeupS,"ax",%progbits
 1949      C046C046 
 1950              		.align	2
 1951              		.p2align 4,,15
 1952              		.global	chSchWakeupS
 1953              		.code	16
 1954              		.thumb_func
 1955              		.type	chSchWakeupS, %function
 1956              	chSchWakeupS:
 1957              	.LFB131:
 1958              		.loc 7 367 0
 1959              		.cfi_startproc
 1960 0000 00B5     		push	{lr}
 1961              		.cfi_def_cfa_offset 4
 1962              		.cfi_offset 14, -4
ARM GAS  /tmp/ccUb86vt.s 			page 99


 1963 0002 85B0     		sub	sp, sp, #20
 1964              		.cfi_def_cfa_offset 24
 1965 0004 0190     		str	r0, [sp, #4]
 1966 0006 0091     		str	r1, [sp]
 1967              		.loc 7 377 0
 1968 0008 019B     		ldr	r3, [sp, #4]
 1969 000a 009A     		ldr	r2, [sp]
 1970 000c 1A62     		str	r2, [r3, #32]
 1971              		.loc 7 383 0
 1972 000e 019B     		ldr	r3, [sp, #4]
 1973 0010 9A68     		ldr	r2, [r3, #8]
 1974 0012 0F4B     		ldr	r3, .L61
 1975 0014 9B69     		ldr	r3, [r3, #24]
 1976 0016 9B68     		ldr	r3, [r3, #8]
 1977 0018 9A42     		cmp	r2, r3
 1978 001a 04D8     		bhi	.L59
 1979              		.loc 7 384 0
 1980 001c 019B     		ldr	r3, [sp, #4]
 1981 001e 181C     		mov	r0, r3
 1982 0020 FFF7FEFF 		bl	chSchReadyI
 1983 0024 12E0     		b	.L58
 1984              	.L59:
 1985              	.LBB11:
 1986              		.loc 7 387 0
 1987 0026 0A4B     		ldr	r3, .L61
 1988 0028 9B69     		ldr	r3, [r3, #24]
 1989 002a 181C     		mov	r0, r3
 1990 002c FFF7FEFF 		bl	chSchReadyI
 1991 0030 031C     		mov	r3, r0
 1992 0032 0393     		str	r3, [sp, #12]
 1993              		.loc 7 388 0
 1994 0034 064B     		ldr	r3, .L61
 1995 0036 019A     		ldr	r2, [sp, #4]
 1996 0038 9A61     		str	r2, [r3, #24]
 1997              		.loc 7 394 0
 1998 003a 019B     		ldr	r3, [sp, #4]
 1999 003c 0122     		mov	r2, #1
 2000 003e 1A77     		strb	r2, [r3, #28]
 2001              		.loc 7 395 0
 2002 0040 019A     		ldr	r2, [sp, #4]
 2003 0042 039B     		ldr	r3, [sp, #12]
 2004 0044 101C     		mov	r0, r2
 2005 0046 191C     		mov	r1, r3
 2006 0048 FFF7FEFF 		bl	_port_switch
 2007              	.L58:
 2008              	.LBE11:
 2009              		.loc 7 397 0
 2010 004c 05B0     		add	sp, sp, #20
 2011              		@ sp needed
 2012 004e 00BD     		pop	{pc}
 2013              	.L62:
 2014              		.align	2
 2015              	.L61:
 2016 0050 00000000 		.word	ch
 2017              		.cfi_endproc
 2018              	.LFE131:
 2019              		.size	chSchWakeupS, .-chSchWakeupS
ARM GAS  /tmp/ccUb86vt.s 			page 100


 2020 0054 C046C046 		.section	.text.chSchRescheduleS,"ax",%progbits
 2020      C046C046 
 2020      C046C046 
 2021              		.align	2
 2022              		.p2align 4,,15
 2023              		.global	chSchRescheduleS
 2024              		.code	16
 2025              		.thumb_func
 2026              		.type	chSchRescheduleS, %function
 2027              	chSchRescheduleS:
 2028              	.LFB132:
 2029              		.loc 7 406 0
 2030              		.cfi_startproc
 2031 0000 08B5     		push	{r3, lr}
 2032              		.cfi_def_cfa_offset 8
 2033              		.cfi_offset 3, -8
 2034              		.cfi_offset 14, -4
 2035              		.loc 7 410 0
 2036 0002 FFF7FEFF 		bl	chSchIsRescRequiredI
 2037 0006 031C     		mov	r3, r0
 2038 0008 002B     		cmp	r3, #0
 2039 000a 01D0     		beq	.L63
 2040              		.loc 7 411 0
 2041 000c FFF7FEFF 		bl	chSchDoRescheduleAhead
 2042              	.L63:
 2043              		.loc 7 413 0
 2044              		@ sp needed
 2045 0010 08BD     		pop	{r3, pc}
 2046              		.cfi_endproc
 2047              	.LFE132:
 2048              		.size	chSchRescheduleS, .-chSchRescheduleS
 2049 0012 C046C046 		.section	.text.chSchIsPreemptionRequired,"ax",%progbits
 2049      C046C046 
 2049      C046C046 
 2049      C046
 2050              		.align	2
 2051              		.p2align 4,,15
 2052              		.global	chSchIsPreemptionRequired
 2053              		.code	16
 2054              		.thumb_func
 2055              		.type	chSchIsPreemptionRequired, %function
 2056              	chSchIsPreemptionRequired:
 2057              	.LFB133:
 2058              		.loc 7 428 0
 2059              		.cfi_startproc
 2060 0000 82B0     		sub	sp, sp, #8
 2061              		.cfi_def_cfa_offset 8
 2062              		.loc 7 429 0
 2063 0002 084B     		ldr	r3, .L67
 2064 0004 1B68     		ldr	r3, [r3]
 2065 0006 9B68     		ldr	r3, [r3, #8]
 2066 0008 0193     		str	r3, [sp, #4]
 2067              		.loc 7 430 0
 2068 000a 064B     		ldr	r3, .L67
 2069 000c 9B69     		ldr	r3, [r3, #24]
 2070 000e 9B68     		ldr	r3, [r3, #8]
 2071 0010 0093     		str	r3, [sp]
ARM GAS  /tmp/ccUb86vt.s 			page 101


 2072              		.loc 7 441 0
 2073 0012 019B     		ldr	r3, [sp, #4]
 2074 0014 009A     		ldr	r2, [sp]
 2075 0016 9A42     		cmp	r2, r3
 2076 0018 9B41     		sbc	r3, r3, r3
 2077 001a 5B42     		neg	r3, r3
 2078 001c DBB2     		uxtb	r3, r3
 2079              		.loc 7 443 0
 2080 001e 181C     		mov	r0, r3
 2081 0020 02B0     		add	sp, sp, #8
 2082              		@ sp needed
 2083 0022 7047     		bx	lr
 2084              	.L68:
 2085              		.align	2
 2086              	.L67:
 2087 0024 00000000 		.word	ch
 2088              		.cfi_endproc
 2089              	.LFE133:
 2090              		.size	chSchIsPreemptionRequired, .-chSchIsPreemptionRequired
 2091 0028 C046C046 		.section	.text.chSchDoRescheduleBehind,"ax",%progbits
 2091      C046C046 
 2092              		.align	2
 2093              		.p2align 4,,15
 2094              		.global	chSchDoRescheduleBehind
 2095              		.code	16
 2096              		.thumb_func
 2097              		.type	chSchDoRescheduleBehind, %function
 2098              	chSchDoRescheduleBehind:
 2099              	.LFB134:
 2100              		.loc 7 455 0
 2101              		.cfi_startproc
 2102 0000 00B5     		push	{lr}
 2103              		.cfi_def_cfa_offset 4
 2104              		.cfi_offset 14, -4
 2105 0002 83B0     		sub	sp, sp, #12
 2106              		.cfi_def_cfa_offset 16
 2107              		.loc 7 458 0
 2108 0004 0D4B     		ldr	r3, .L70
 2109 0006 9B69     		ldr	r3, [r3, #24]
 2110 0008 0193     		str	r3, [sp, #4]
 2111              		.loc 7 460 0
 2112 000a 0C4B     		ldr	r3, .L70
 2113 000c 181C     		mov	r0, r3
 2114 000e FFF7FEFF 		bl	queue_fifo_remove
 2115 0012 021C     		mov	r2, r0
 2116 0014 094B     		ldr	r3, .L70
 2117 0016 9A61     		str	r2, [r3, #24]
 2118              		.loc 7 466 0
 2119 0018 084B     		ldr	r3, .L70
 2120 001a 9B69     		ldr	r3, [r3, #24]
 2121 001c 0122     		mov	r2, #1
 2122 001e 1A77     		strb	r2, [r3, #28]
 2123              		.loc 7 470 0
 2124 0020 019B     		ldr	r3, [sp, #4]
 2125 0022 181C     		mov	r0, r3
 2126 0024 FFF7FEFF 		bl	chSchReadyI
 2127              		.loc 7 471 0
ARM GAS  /tmp/ccUb86vt.s 			page 102


 2128 0028 044B     		ldr	r3, .L70
 2129 002a 9A69     		ldr	r2, [r3, #24]
 2130 002c 019B     		ldr	r3, [sp, #4]
 2131 002e 101C     		mov	r0, r2
 2132 0030 191C     		mov	r1, r3
 2133 0032 FFF7FEFF 		bl	_port_switch
 2134              		.loc 7 472 0
 2135 0036 03B0     		add	sp, sp, #12
 2136              		@ sp needed
 2137 0038 00BD     		pop	{pc}
 2138              	.L71:
 2139 003a C046     		.align	2
 2140              	.L70:
 2141 003c 00000000 		.word	ch
 2142              		.cfi_endproc
 2143              	.LFE134:
 2144              		.size	chSchDoRescheduleBehind, .-chSchDoRescheduleBehind
 2145              		.section	.text.chSchDoRescheduleAhead,"ax",%progbits
 2146              		.align	2
 2147              		.p2align 4,,15
 2148              		.global	chSchDoRescheduleAhead
 2149              		.code	16
 2150              		.thumb_func
 2151              		.type	chSchDoRescheduleAhead, %function
 2152              	chSchDoRescheduleAhead:
 2153              	.LFB135:
 2154              		.loc 7 483 0
 2155              		.cfi_startproc
 2156 0000 00B5     		push	{lr}
 2157              		.cfi_def_cfa_offset 4
 2158              		.cfi_offset 14, -4
 2159 0002 83B0     		sub	sp, sp, #12
 2160              		.cfi_def_cfa_offset 16
 2161              		.loc 7 486 0
 2162 0004 194B     		ldr	r3, .L74
 2163 0006 9B69     		ldr	r3, [r3, #24]
 2164 0008 0093     		str	r3, [sp]
 2165              		.loc 7 488 0
 2166 000a 184B     		ldr	r3, .L74
 2167 000c 181C     		mov	r0, r3
 2168 000e FFF7FEFF 		bl	queue_fifo_remove
 2169 0012 021C     		mov	r2, r0
 2170 0014 154B     		ldr	r3, .L74
 2171 0016 9A61     		str	r2, [r3, #24]
 2172              		.loc 7 494 0
 2173 0018 144B     		ldr	r3, .L74
 2174 001a 9B69     		ldr	r3, [r3, #24]
 2175 001c 0122     		mov	r2, #1
 2176 001e 1A77     		strb	r2, [r3, #28]
 2177              		.loc 7 496 0
 2178 0020 009B     		ldr	r3, [sp]
 2179 0022 0022     		mov	r2, #0
 2180 0024 1A77     		strb	r2, [r3, #28]
 2181              		.loc 7 497 0
 2182 0026 114B     		ldr	r3, .L74
 2183 0028 0193     		str	r3, [sp, #4]
 2184              	.L73:
ARM GAS  /tmp/ccUb86vt.s 			page 103


 2185              		.loc 7 499 0 discriminator 1
 2186 002a 019B     		ldr	r3, [sp, #4]
 2187 002c 1B68     		ldr	r3, [r3]
 2188 002e 0193     		str	r3, [sp, #4]
 2189              		.loc 7 500 0 discriminator 1
 2190 0030 019B     		ldr	r3, [sp, #4]
 2191 0032 9A68     		ldr	r2, [r3, #8]
 2192 0034 009B     		ldr	r3, [sp]
 2193 0036 9B68     		ldr	r3, [r3, #8]
 2194 0038 9A42     		cmp	r2, r3
 2195 003a F6D8     		bhi	.L73
 2196              		.loc 7 502 0
 2197 003c 009B     		ldr	r3, [sp]
 2198 003e 019A     		ldr	r2, [sp, #4]
 2199 0040 1A60     		str	r2, [r3]
 2200              		.loc 7 503 0
 2201 0042 019B     		ldr	r3, [sp, #4]
 2202 0044 5A68     		ldr	r2, [r3, #4]
 2203 0046 009B     		ldr	r3, [sp]
 2204 0048 5A60     		str	r2, [r3, #4]
 2205              		.loc 7 504 0
 2206 004a 009B     		ldr	r3, [sp]
 2207 004c 5B68     		ldr	r3, [r3, #4]
 2208 004e 009A     		ldr	r2, [sp]
 2209 0050 1A60     		str	r2, [r3]
 2210              		.loc 7 505 0
 2211 0052 019B     		ldr	r3, [sp, #4]
 2212 0054 009A     		ldr	r2, [sp]
 2213 0056 5A60     		str	r2, [r3, #4]
 2214              		.loc 7 507 0
 2215 0058 044B     		ldr	r3, .L74
 2216 005a 9A69     		ldr	r2, [r3, #24]
 2217 005c 009B     		ldr	r3, [sp]
 2218 005e 101C     		mov	r0, r2
 2219 0060 191C     		mov	r1, r3
 2220 0062 FFF7FEFF 		bl	_port_switch
 2221              		.loc 7 508 0
 2222 0066 03B0     		add	sp, sp, #12
 2223              		@ sp needed
 2224 0068 00BD     		pop	{pc}
 2225              	.L75:
 2226 006a C046     		.align	2
 2227              	.L74:
 2228 006c 00000000 		.word	ch
 2229              		.cfi_endproc
 2230              	.LFE135:
 2231              		.size	chSchDoRescheduleAhead, .-chSchDoRescheduleAhead
 2232              		.section	.text.chSchDoReschedule,"ax",%progbits
 2233              		.align	2
 2234              		.p2align 4,,15
 2235              		.global	chSchDoReschedule
 2236              		.code	16
 2237              		.thumb_func
 2238              		.type	chSchDoReschedule, %function
 2239              	chSchDoReschedule:
 2240              	.LFB136:
 2241              		.loc 7 520 0
ARM GAS  /tmp/ccUb86vt.s 			page 104


 2242              		.cfi_startproc
 2243 0000 08B5     		push	{r3, lr}
 2244              		.cfi_def_cfa_offset 8
 2245              		.cfi_offset 3, -8
 2246              		.cfi_offset 14, -4
 2247              		.loc 7 538 0
 2248 0002 FFF7FEFF 		bl	chSchDoRescheduleAhead
 2249              		.loc 7 540 0
 2250              		@ sp needed
 2251 0006 08BD     		pop	{r3, pc}
 2252              		.cfi_endproc
 2253              	.LFE136:
 2254              		.size	chSchDoReschedule, .-chSchDoReschedule
 2255 0008 C046C046 		.text
 2255      C046C046 
 2256              	.Letext0:
 2257              		.file 8 "/usr/lib/gcc/arm-none-eabi/4.8/include/stddef.h"
 2258              		.file 9 "/usr/include/newlib/machine/_default_types.h"
 2259              		.file 10 "/usr/include/newlib/stdint.h"
 2260              		.file 11 "/home/efe/ChibiOS/os/rt/ports/ARMCMx/compilers/GCC/chtypes.h"
 2261              		.file 12 "/home/efe/ChibiOS/os/rt/include/chsystypes.h"
 2262              		.file 13 "/home/efe/ChibiOS/os/rt/ports/ARMCMx/chcore.h"
 2263              		.file 14 "/home/efe/ChibiOS/os/rt/include/chmtx.h"
 2264              		.section	.debug_info,"",%progbits
 2265              	.Ldebug_info0:
 2266 0000 920A0000 		.4byte	0xa92
 2267 0004 0400     		.2byte	0x4
 2268 0006 00000000 		.4byte	.Ldebug_abbrev0
 2269 000a 04       		.byte	0x4
 2270 000b 01       		.uleb128 0x1
 2271 000c B6030000 		.4byte	.LASF127
 2272 0010 01       		.byte	0x1
 2273 0011 02010000 		.4byte	.LASF128
 2274 0015 00000000 		.4byte	.Ldebug_ranges0+0
 2275 0019 00000000 		.4byte	0
 2276 001d 00000000 		.4byte	.Ldebug_line0
 2277 0021 02       		.uleb128 0x2
 2278 0022 04       		.byte	0x4
 2279 0023 05       		.byte	0x5
 2280 0024 696E7400 		.ascii	"int\000"
 2281 0028 03       		.uleb128 0x3
 2282 0029 4B020000 		.4byte	.LASF2
 2283 002d 08       		.byte	0x8
 2284 002e D4       		.byte	0xd4
 2285 002f 33000000 		.4byte	0x33
 2286 0033 04       		.uleb128 0x4
 2287 0034 04       		.byte	0x4
 2288 0035 07       		.byte	0x7
 2289 0036 72000000 		.4byte	.LASF0
 2290 003a 04       		.uleb128 0x4
 2291 003b 01       		.byte	0x1
 2292 003c 06       		.byte	0x6
 2293 003d 57060000 		.4byte	.LASF1
 2294 0041 03       		.uleb128 0x3
 2295 0042 2B050000 		.4byte	.LASF3
 2296 0046 09       		.byte	0x9
 2297 0047 1D       		.byte	0x1d
ARM GAS  /tmp/ccUb86vt.s 			page 105


 2298 0048 4C000000 		.4byte	0x4c
 2299 004c 04       		.uleb128 0x4
 2300 004d 01       		.byte	0x1
 2301 004e 08       		.byte	0x8
 2302 004f E3050000 		.4byte	.LASF4
 2303 0053 04       		.uleb128 0x4
 2304 0054 02       		.byte	0x2
 2305 0055 05       		.byte	0x5
 2306 0056 BA040000 		.4byte	.LASF5
 2307 005a 03       		.uleb128 0x3
 2308 005b E1010000 		.4byte	.LASF6
 2309 005f 09       		.byte	0x9
 2310 0060 2B       		.byte	0x2b
 2311 0061 65000000 		.4byte	0x65
 2312 0065 04       		.uleb128 0x4
 2313 0066 02       		.byte	0x2
 2314 0067 07       		.byte	0x7
 2315 0068 63060000 		.4byte	.LASF7
 2316 006c 03       		.uleb128 0x3
 2317 006d 8E000000 		.4byte	.LASF8
 2318 0071 09       		.byte	0x9
 2319 0072 3F       		.byte	0x3f
 2320 0073 77000000 		.4byte	0x77
 2321 0077 04       		.uleb128 0x4
 2322 0078 04       		.byte	0x4
 2323 0079 05       		.byte	0x5
 2324 007a D6040000 		.4byte	.LASF9
 2325 007e 03       		.uleb128 0x3
 2326 007f F1050000 		.4byte	.LASF10
 2327 0083 09       		.byte	0x9
 2328 0084 41       		.byte	0x41
 2329 0085 89000000 		.4byte	0x89
 2330 0089 04       		.uleb128 0x4
 2331 008a 04       		.byte	0x4
 2332 008b 07       		.byte	0x7
 2333 008c 6F050000 		.4byte	.LASF11
 2334 0090 04       		.uleb128 0x4
 2335 0091 08       		.byte	0x8
 2336 0092 05       		.byte	0x5
 2337 0093 54030000 		.4byte	.LASF12
 2338 0097 03       		.uleb128 0x3
 2339 0098 95020000 		.4byte	.LASF13
 2340 009c 09       		.byte	0x9
 2341 009d 5B       		.byte	0x5b
 2342 009e A2000000 		.4byte	0xa2
 2343 00a2 04       		.uleb128 0x4
 2344 00a3 08       		.byte	0x8
 2345 00a4 07       		.byte	0x7
 2346 00a5 B0010000 		.4byte	.LASF14
 2347 00a9 03       		.uleb128 0x3
 2348 00aa 17030000 		.4byte	.LASF15
 2349 00ae 0A       		.byte	0xa
 2350 00af 2A       		.byte	0x2a
 2351 00b0 41000000 		.4byte	0x41
 2352 00b4 03       		.uleb128 0x3
 2353 00b5 A6040000 		.4byte	.LASF16
 2354 00b9 0A       		.byte	0xa
ARM GAS  /tmp/ccUb86vt.s 			page 106


 2355 00ba 36       		.byte	0x36
 2356 00bb 5A000000 		.4byte	0x5a
 2357 00bf 03       		.uleb128 0x3
 2358 00c0 A3050000 		.4byte	.LASF17
 2359 00c4 0A       		.byte	0xa
 2360 00c5 41       		.byte	0x41
 2361 00c6 6C000000 		.4byte	0x6c
 2362 00ca 03       		.uleb128 0x3
 2363 00cb 73010000 		.4byte	.LASF18
 2364 00cf 0A       		.byte	0xa
 2365 00d0 42       		.byte	0x42
 2366 00d1 7E000000 		.4byte	0x7e
 2367 00d5 03       		.uleb128 0x3
 2368 00d6 16050000 		.4byte	.LASF19
 2369 00da 0A       		.byte	0xa
 2370 00db 4E       		.byte	0x4e
 2371 00dc 97000000 		.4byte	0x97
 2372 00e0 03       		.uleb128 0x3
 2373 00e1 7E040000 		.4byte	.LASF20
 2374 00e5 0B       		.byte	0xb
 2375 00e6 3C       		.byte	0x3c
 2376 00e7 A9000000 		.4byte	0xa9
 2377 00eb 03       		.uleb128 0x3
 2378 00ec FE020000 		.4byte	.LASF21
 2379 00f0 0B       		.byte	0xb
 2380 00f1 3D       		.byte	0x3d
 2381 00f2 A9000000 		.4byte	0xa9
 2382 00f6 03       		.uleb128 0x3
 2383 00f7 97010000 		.4byte	.LASF22
 2384 00fb 0B       		.byte	0xb
 2385 00fc 40       		.byte	0x40
 2386 00fd CA000000 		.4byte	0xca
 2387 0101 03       		.uleb128 0x3
 2388 0102 72030000 		.4byte	.LASF23
 2389 0106 0B       		.byte	0xb
 2390 0107 41       		.byte	0x41
 2391 0108 BF000000 		.4byte	0xbf
 2392 010c 03       		.uleb128 0x3
 2393 010d EC010000 		.4byte	.LASF24
 2394 0111 0B       		.byte	0xb
 2395 0112 45       		.byte	0x45
 2396 0113 BF000000 		.4byte	0xbf
 2397 0117 03       		.uleb128 0x3
 2398 0118 58000000 		.4byte	.LASF25
 2399 011c 0C       		.byte	0xc
 2400 011d 35       		.byte	0x35
 2401 011e B4000000 		.4byte	0xb4
 2402 0122 03       		.uleb128 0x3
 2403 0123 2F020000 		.4byte	.LASF26
 2404 0127 0C       		.byte	0xc
 2405 0128 3F       		.byte	0x3f
 2406 0129 2D010000 		.4byte	0x12d
 2407 012d 05       		.uleb128 0x5
 2408 012e 29030000 		.4byte	.LASF41
 2409 0132 30       		.byte	0x30
 2410 0133 03       		.byte	0x3
 2411 0134 C2       		.byte	0xc2
ARM GAS  /tmp/ccUb86vt.s 			page 107


 2412 0135 DA010000 		.4byte	0x1da
 2413 0139 06       		.uleb128 0x6
 2414 013a 0F050000 		.4byte	.LASF27
 2415 013e 03       		.byte	0x3
 2416 013f C3       		.byte	0xc3
 2417 0140 E5010000 		.4byte	0x1e5
 2418 0144 00       		.byte	0
 2419 0145 06       		.uleb128 0x6
 2420 0146 5F050000 		.4byte	.LASF28
 2421 014a 03       		.byte	0x3
 2422 014b C5       		.byte	0xc5
 2423 014c E5010000 		.4byte	0x1e5
 2424 0150 04       		.byte	0x4
 2425 0151 06       		.uleb128 0x6
 2426 0152 51000000 		.4byte	.LASF29
 2427 0156 03       		.byte	0x3
 2428 0157 C7       		.byte	0xc7
 2429 0158 F6000000 		.4byte	0xf6
 2430 015c 08       		.byte	0x8
 2431 015d 06       		.uleb128 0x6
 2432 015e 1F050000 		.4byte	.LASF30
 2433 0162 03       		.byte	0x3
 2434 0163 C8       		.byte	0xc8
 2435 0164 09040000 		.4byte	0x409
 2436 0168 0C       		.byte	0xc
 2437 0169 06       		.uleb128 0x6
 2438 016a 10020000 		.4byte	.LASF31
 2439 016e 03       		.byte	0x3
 2440 016f CA       		.byte	0xca
 2441 0170 E5010000 		.4byte	0x1e5
 2442 0174 10       		.byte	0x10
 2443 0175 06       		.uleb128 0x6
 2444 0176 07030000 		.4byte	.LASF32
 2445 017a 03       		.byte	0x3
 2446 017b CB       		.byte	0xcb
 2447 017c E5010000 		.4byte	0x1e5
 2448 0180 14       		.byte	0x14
 2449 0181 06       		.uleb128 0x6
 2450 0182 BD020000 		.4byte	.LASF33
 2451 0186 03       		.byte	0x3
 2452 0187 D2       		.byte	0xd2
 2453 0188 53050000 		.4byte	0x553
 2454 018c 18       		.byte	0x18
 2455 018d 06       		.uleb128 0x6
 2456 018e 0F030000 		.4byte	.LASF34
 2457 0192 03       		.byte	0x3
 2458 0193 DD       		.byte	0xdd
 2459 0194 EB000000 		.4byte	0xeb
 2460 0198 1C       		.byte	0x1c
 2461 0199 06       		.uleb128 0x6
 2462 019a 8C030000 		.4byte	.LASF35
 2463 019e 03       		.byte	0x3
 2464 019f E1       		.byte	0xe1
 2465 01a0 E0000000 		.4byte	0xe0
 2466 01a4 1D       		.byte	0x1d
 2467 01a5 07       		.uleb128 0x7
 2468 01a6 705F7500 		.ascii	"p_u\000"
ARM GAS  /tmp/ccUb86vt.s 			page 108


 2469 01aa 03       		.byte	0x3
 2470 01ab 3101     		.2byte	0x131
 2471 01ad 9A040000 		.4byte	0x49a
 2472 01b1 20       		.byte	0x20
 2473 01b2 08       		.uleb128 0x8
 2474 01b3 20000000 		.4byte	.LASF36
 2475 01b7 03       		.byte	0x3
 2476 01b8 3601     		.2byte	0x136
 2477 01ba EB010000 		.4byte	0x1eb
 2478 01be 24       		.byte	0x24
 2479 01bf 08       		.uleb128 0x8
 2480 01c0 1F030000 		.4byte	.LASF37
 2481 01c4 03       		.byte	0x3
 2482 01c5 4D01     		.2byte	0x14d
 2483 01c7 4D050000 		.4byte	0x54d
 2484 01cb 28       		.byte	0x28
 2485 01cc 08       		.uleb128 0x8
 2486 01cd AF040000 		.4byte	.LASF38
 2487 01d1 03       		.byte	0x3
 2488 01d2 5101     		.2byte	0x151
 2489 01d4 F6000000 		.4byte	0xf6
 2490 01d8 2C       		.byte	0x2c
 2491 01d9 00       		.byte	0
 2492 01da 03       		.uleb128 0x3
 2493 01db DF020000 		.4byte	.LASF39
 2494 01df 0C       		.byte	0xc
 2495 01e0 44       		.byte	0x44
 2496 01e1 E5010000 		.4byte	0x1e5
 2497 01e5 09       		.uleb128 0x9
 2498 01e6 04       		.byte	0x4
 2499 01e7 22010000 		.4byte	0x122
 2500 01eb 03       		.uleb128 0x3
 2501 01ec 7F000000 		.4byte	.LASF40
 2502 01f0 0C       		.byte	0xc
 2503 01f1 49       		.byte	0x49
 2504 01f2 F6010000 		.4byte	0x1f6
 2505 01f6 05       		.uleb128 0x5
 2506 01f7 00000000 		.4byte	.LASF42
 2507 01fb 04       		.byte	0x4
 2508 01fc 03       		.byte	0x3
 2509 01fd B0       		.byte	0xb0
 2510 01fe 0F020000 		.4byte	0x20f
 2511 0202 06       		.uleb128 0x6
 2512 0203 0F050000 		.4byte	.LASF27
 2513 0207 03       		.byte	0x3
 2514 0208 B1       		.byte	0xb1
 2515 0209 E5010000 		.4byte	0x1e5
 2516 020d 00       		.byte	0
 2517 020e 00       		.byte	0
 2518 020f 03       		.uleb128 0x3
 2519 0210 10000000 		.4byte	.LASF43
 2520 0214 0C       		.byte	0xc
 2521 0215 50       		.byte	0x50
 2522 0216 1A020000 		.4byte	0x21a
 2523 021a 05       		.uleb128 0x5
 2524 021b E0000000 		.4byte	.LASF44
 2525 021f 08       		.byte	0x8
ARM GAS  /tmp/ccUb86vt.s 			page 109


 2526 0220 03       		.byte	0x3
 2527 0221 B7       		.byte	0xb7
 2528 0222 3F020000 		.4byte	0x23f
 2529 0226 06       		.uleb128 0x6
 2530 0227 0F050000 		.4byte	.LASF27
 2531 022b 03       		.byte	0x3
 2532 022c B8       		.byte	0xb8
 2533 022d E5010000 		.4byte	0x1e5
 2534 0231 00       		.byte	0
 2535 0232 06       		.uleb128 0x6
 2536 0233 5F050000 		.4byte	.LASF28
 2537 0237 03       		.byte	0x3
 2538 0238 B9       		.byte	0xb9
 2539 0239 E5010000 		.4byte	0x1e5
 2540 023d 04       		.byte	0x4
 2541 023e 00       		.byte	0
 2542 023f 03       		.uleb128 0x3
 2543 0240 81050000 		.4byte	.LASF45
 2544 0244 0C       		.byte	0xc
 2545 0245 57       		.byte	0x57
 2546 0246 4A020000 		.4byte	0x24a
 2547 024a 0A       		.uleb128 0xa
 2548 024b C3000000 		.4byte	.LASF46
 2549 024f 1C       		.byte	0x1c
 2550 0250 03       		.byte	0x3
 2551 0251 9001     		.2byte	0x190
 2552 0253 A6020000 		.4byte	0x2a6
 2553 0257 08       		.uleb128 0x8
 2554 0258 62030000 		.4byte	.LASF47
 2555 025c 03       		.byte	0x3
 2556 025d 9101     		.2byte	0x191
 2557 025f 0F020000 		.4byte	0x20f
 2558 0263 00       		.byte	0
 2559 0264 08       		.uleb128 0x8
 2560 0265 7C010000 		.4byte	.LASF48
 2561 0269 03       		.byte	0x3
 2562 026a 9201     		.2byte	0x192
 2563 026c F6000000 		.4byte	0xf6
 2564 0270 08       		.byte	0x8
 2565 0271 08       		.uleb128 0x8
 2566 0272 76060000 		.4byte	.LASF49
 2567 0276 03       		.byte	0x3
 2568 0277 9401     		.2byte	0x194
 2569 0279 09040000 		.4byte	0x409
 2570 027d 0C       		.byte	0xc
 2571 027e 08       		.uleb128 0x8
 2572 027f 6A030000 		.4byte	.LASF50
 2573 0283 03       		.byte	0x3
 2574 0284 9701     		.2byte	0x197
 2575 0286 E5010000 		.4byte	0x1e5
 2576 028a 10       		.byte	0x10
 2577 028b 08       		.uleb128 0x8
 2578 028c 6C040000 		.4byte	.LASF51
 2579 0290 03       		.byte	0x3
 2580 0291 9801     		.2byte	0x198
 2581 0293 E5010000 		.4byte	0x1e5
 2582 0297 14       		.byte	0x14
ARM GAS  /tmp/ccUb86vt.s 			page 110


 2583 0298 08       		.uleb128 0x8
 2584 0299 C4040000 		.4byte	.LASF52
 2585 029d 03       		.byte	0x3
 2586 029e 9B01     		.2byte	0x19b
 2587 02a0 E5010000 		.4byte	0x1e5
 2588 02a4 18       		.byte	0x18
 2589 02a5 00       		.byte	0
 2590 02a6 03       		.uleb128 0x3
 2591 02a7 38010000 		.4byte	.LASF53
 2592 02ab 0C       		.byte	0xc
 2593 02ac 5C       		.byte	0x5c
 2594 02ad B1020000 		.4byte	0x2b1
 2595 02b1 09       		.uleb128 0x9
 2596 02b2 04       		.byte	0x4
 2597 02b3 B7020000 		.4byte	0x2b7
 2598 02b7 0B       		.uleb128 0xb
 2599 02b8 C2020000 		.4byte	0x2c2
 2600 02bc 0C       		.uleb128 0xc
 2601 02bd C2020000 		.4byte	0x2c2
 2602 02c1 00       		.byte	0
 2603 02c2 0D       		.uleb128 0xd
 2604 02c3 04       		.byte	0x4
 2605 02c4 03       		.uleb128 0x3
 2606 02c5 94030000 		.4byte	.LASF54
 2607 02c9 0C       		.byte	0xc
 2608 02ca 61       		.byte	0x61
 2609 02cb CF020000 		.4byte	0x2cf
 2610 02cf 0A       		.uleb128 0xa
 2611 02d0 9F010000 		.4byte	.LASF55
 2612 02d4 14       		.byte	0x14
 2613 02d5 03       		.byte	0x3
 2614 02d6 6B01     		.2byte	0x16b
 2615 02d8 1E030000 		.4byte	0x31e
 2616 02dc 08       		.uleb128 0x8
 2617 02dd 1F060000 		.4byte	.LASF56
 2618 02e1 03       		.byte	0x3
 2619 02e2 6C01     		.2byte	0x16c
 2620 02e4 65050000 		.4byte	0x565
 2621 02e8 00       		.byte	0
 2622 02e9 08       		.uleb128 0x8
 2623 02ea 9B060000 		.4byte	.LASF57
 2624 02ee 03       		.byte	0x3
 2625 02ef 6D01     		.2byte	0x16d
 2626 02f1 65050000 		.4byte	0x565
 2627 02f5 04       		.byte	0x4
 2628 02f6 08       		.uleb128 0x8
 2629 02f7 D6020000 		.4byte	.LASF58
 2630 02fb 03       		.byte	0x3
 2631 02fc 6E01     		.2byte	0x16e
 2632 02fe 17010000 		.4byte	0x117
 2633 0302 08       		.byte	0x8
 2634 0303 08       		.uleb128 0x8
 2635 0304 87060000 		.4byte	.LASF59
 2636 0308 03       		.byte	0x3
 2637 0309 6F01     		.2byte	0x16f
 2638 030b A6020000 		.4byte	0x2a6
 2639 030f 0C       		.byte	0xc
ARM GAS  /tmp/ccUb86vt.s 			page 111


 2640 0310 08       		.uleb128 0x8
 2641 0311 83010000 		.4byte	.LASF60
 2642 0315 03       		.byte	0x3
 2643 0316 7101     		.2byte	0x171
 2644 0318 C2020000 		.4byte	0x2c2
 2645 031c 10       		.byte	0x10
 2646 031d 00       		.byte	0
 2647 031e 03       		.uleb128 0x3
 2648 031f FC050000 		.4byte	.LASF61
 2649 0323 0C       		.byte	0xc
 2650 0324 66       		.byte	0x66
 2651 0325 29030000 		.4byte	0x329
 2652 0329 0A       		.uleb128 0xa
 2653 032a 18020000 		.4byte	.LASF62
 2654 032e 0C       		.byte	0xc
 2655 032f 03       		.byte	0x3
 2656 0330 7B01     		.2byte	0x17b
 2657 0332 6B030000 		.4byte	0x36b
 2658 0336 08       		.uleb128 0x8
 2659 0337 1F060000 		.4byte	.LASF56
 2660 033b 03       		.byte	0x3
 2661 033c 7C01     		.2byte	0x17c
 2662 033e 65050000 		.4byte	0x565
 2663 0342 00       		.byte	0
 2664 0343 08       		.uleb128 0x8
 2665 0344 9B060000 		.4byte	.LASF57
 2666 0348 03       		.byte	0x3
 2667 0349 7E01     		.2byte	0x17e
 2668 034b 65050000 		.4byte	0x565
 2669 034f 04       		.byte	0x4
 2670 0350 08       		.uleb128 0x8
 2671 0351 D6020000 		.4byte	.LASF58
 2672 0355 03       		.byte	0x3
 2673 0356 8001     		.2byte	0x180
 2674 0358 17010000 		.4byte	0x117
 2675 035c 08       		.byte	0x8
 2676 035d 08       		.uleb128 0x8
 2677 035e F2020000 		.4byte	.LASF63
 2678 0362 03       		.byte	0x3
 2679 0363 8801     		.2byte	0x188
 2680 0365 17010000 		.4byte	0x117
 2681 0369 0A       		.byte	0xa
 2682 036a 00       		.byte	0
 2683 036b 03       		.uleb128 0x3
 2684 036c 33030000 		.4byte	.LASF64
 2685 0370 0C       		.byte	0xc
 2686 0371 6B       		.byte	0x6b
 2687 0372 76030000 		.4byte	0x376
 2688 0376 0A       		.uleb128 0xa
 2689 0377 53010000 		.4byte	.LASF65
 2690 037b 04       		.byte	0x4
 2691 037c 03       		.byte	0x3
 2692 037d A201     		.2byte	0x1a2
 2693 037f 91030000 		.4byte	0x391
 2694 0383 08       		.uleb128 0x8
 2695 0384 74040000 		.4byte	.LASF66
 2696 0388 03       		.byte	0x3
ARM GAS  /tmp/ccUb86vt.s 			page 112


 2697 0389 AA01     		.2byte	0x1aa
 2698 038b 6B050000 		.4byte	0x56b
 2699 038f 00       		.byte	0
 2700 0390 00       		.byte	0
 2701 0391 03       		.uleb128 0x3
 2702 0392 3E060000 		.4byte	.LASF67
 2703 0396 0C       		.byte	0xc
 2704 0397 70       		.byte	0x70
 2705 0398 9C030000 		.4byte	0x39c
 2706 039c 0E       		.uleb128 0xe
 2707 039d F8040000 		.4byte	.LASF68
 2708 03a1 2801     		.2byte	0x128
 2709 03a3 03       		.byte	0x3
 2710 03a4 C201     		.2byte	0x1c2
 2711 03a6 EC030000 		.4byte	0x3ec
 2712 03aa 08       		.uleb128 0x8
 2713 03ab 25050000 		.4byte	.LASF69
 2714 03af 03       		.byte	0x3
 2715 03b0 C601     		.2byte	0x1c6
 2716 03b2 3F020000 		.4byte	0x23f
 2717 03b6 00       		.byte	0
 2718 03b7 08       		.uleb128 0x8
 2719 03b8 A9000000 		.4byte	.LASF70
 2720 03bc 03       		.byte	0x3
 2721 03bd CA01     		.2byte	0x1ca
 2722 03bf 1E030000 		.4byte	0x31e
 2723 03c3 1C       		.byte	0x1c
 2724 03c4 07       		.uleb128 0x7
 2725 03c5 64626700 		.ascii	"dbg\000"
 2726 03c9 03       		.byte	0x3
 2727 03ca CE01     		.2byte	0x1ce
 2728 03cc 6B030000 		.4byte	0x36b
 2729 03d0 28       		.byte	0x28
 2730 03d1 08       		.uleb128 0x8
 2731 03d2 86040000 		.4byte	.LASF71
 2732 03d6 03       		.byte	0x3
 2733 03d7 D201     		.2byte	0x1d2
 2734 03d9 22010000 		.4byte	0x122
 2735 03dd 2C       		.byte	0x2c
 2736 03de 08       		.uleb128 0x8
 2737 03df D1000000 		.4byte	.LASF72
 2738 03e3 03       		.byte	0x3
 2739 03e4 E301     		.2byte	0x1e3
 2740 03e6 70050000 		.4byte	0x570
 2741 03ea 60       		.byte	0x60
 2742 03eb 00       		.byte	0
 2743 03ec 04       		.uleb128 0x4
 2744 03ed 04       		.byte	0x4
 2745 03ee 07       		.byte	0x7
 2746 03ef 66050000 		.4byte	.LASF73
 2747 03f3 03       		.uleb128 0x3
 2748 03f4 48000000 		.4byte	.LASF74
 2749 03f8 0D       		.byte	0xd
 2750 03f9 65       		.byte	0x65
 2751 03fa C2020000 		.4byte	0x2c2
 2752 03fe 03       		.uleb128 0x3
 2753 03ff 7C060000 		.4byte	.LASF75
ARM GAS  /tmp/ccUb86vt.s 			page 113


 2754 0403 0D       		.byte	0xd
 2755 0404 6D       		.byte	0x6d
 2756 0405 D5000000 		.4byte	0xd5
 2757 0409 05       		.uleb128 0x5
 2758 040a 78030000 		.4byte	.LASF76
 2759 040e 04       		.byte	0x4
 2760 040f 0D       		.byte	0xd
 2761 0410 89       		.byte	0x89
 2762 0411 22040000 		.4byte	0x422
 2763 0415 0F       		.uleb128 0xf
 2764 0416 72313300 		.ascii	"r13\000"
 2765 041a 0D       		.byte	0xd
 2766 041b 8A       		.byte	0x8a
 2767 041c 94040000 		.4byte	0x494
 2768 0420 00       		.byte	0
 2769 0421 00       		.byte	0
 2770 0422 05       		.uleb128 0x5
 2771 0423 DF040000 		.4byte	.LASF77
 2772 0427 24       		.byte	0x24
 2773 0428 01       		.byte	0x1
 2774 0429 A4       		.byte	0xa4
 2775 042a 94040000 		.4byte	0x494
 2776 042e 0F       		.uleb128 0xf
 2777 042f 723800   		.ascii	"r8\000"
 2778 0432 01       		.byte	0x1
 2779 0433 A5       		.byte	0xa5
 2780 0434 F3030000 		.4byte	0x3f3
 2781 0438 00       		.byte	0
 2782 0439 0F       		.uleb128 0xf
 2783 043a 723900   		.ascii	"r9\000"
 2784 043d 01       		.byte	0x1
 2785 043e A6       		.byte	0xa6
 2786 043f F3030000 		.4byte	0x3f3
 2787 0443 04       		.byte	0x4
 2788 0444 0F       		.uleb128 0xf
 2789 0445 72313000 		.ascii	"r10\000"
 2790 0449 01       		.byte	0x1
 2791 044a A7       		.byte	0xa7
 2792 044b F3030000 		.4byte	0x3f3
 2793 044f 08       		.byte	0x8
 2794 0450 0F       		.uleb128 0xf
 2795 0451 72313100 		.ascii	"r11\000"
 2796 0455 01       		.byte	0x1
 2797 0456 A8       		.byte	0xa8
 2798 0457 F3030000 		.4byte	0x3f3
 2799 045b 0C       		.byte	0xc
 2800 045c 0F       		.uleb128 0xf
 2801 045d 723400   		.ascii	"r4\000"
 2802 0460 01       		.byte	0x1
 2803 0461 A9       		.byte	0xa9
 2804 0462 F3030000 		.4byte	0x3f3
 2805 0466 10       		.byte	0x10
 2806 0467 0F       		.uleb128 0xf
 2807 0468 723500   		.ascii	"r5\000"
 2808 046b 01       		.byte	0x1
 2809 046c AA       		.byte	0xaa
 2810 046d F3030000 		.4byte	0x3f3
ARM GAS  /tmp/ccUb86vt.s 			page 114


 2811 0471 14       		.byte	0x14
 2812 0472 0F       		.uleb128 0xf
 2813 0473 723600   		.ascii	"r6\000"
 2814 0476 01       		.byte	0x1
 2815 0477 AB       		.byte	0xab
 2816 0478 F3030000 		.4byte	0x3f3
 2817 047c 18       		.byte	0x18
 2818 047d 0F       		.uleb128 0xf
 2819 047e 723700   		.ascii	"r7\000"
 2820 0481 01       		.byte	0x1
 2821 0482 AC       		.byte	0xac
 2822 0483 F3030000 		.4byte	0x3f3
 2823 0487 1C       		.byte	0x1c
 2824 0488 0F       		.uleb128 0xf
 2825 0489 6C7200   		.ascii	"lr\000"
 2826 048c 01       		.byte	0x1
 2827 048d AD       		.byte	0xad
 2828 048e F3030000 		.4byte	0x3f3
 2829 0492 20       		.byte	0x20
 2830 0493 00       		.byte	0
 2831 0494 09       		.uleb128 0x9
 2832 0495 04       		.byte	0x4
 2833 0496 22040000 		.4byte	0x422
 2834 049a 10       		.uleb128 0x10
 2835 049b 04       		.byte	0x4
 2836 049c 03       		.byte	0x3
 2837 049d FA       		.byte	0xfa
 2838 049e EB040000 		.4byte	0x4eb
 2839 04a2 11       		.uleb128 0x11
 2840 04a3 52020000 		.4byte	.LASF78
 2841 04a7 03       		.byte	0x3
 2842 04a8 0101     		.2byte	0x101
 2843 04aa 01010000 		.4byte	0x101
 2844 04ae 11       		.uleb128 0x11
 2845 04af B1060000 		.4byte	.LASF79
 2846 04b3 03       		.byte	0x3
 2847 04b4 0801     		.2byte	0x108
 2848 04b6 01010000 		.4byte	0x101
 2849 04ba 11       		.uleb128 0x11
 2850 04bb 98000000 		.4byte	.LASF80
 2851 04bf 03       		.byte	0x3
 2852 04c0 0F01     		.2byte	0x10f
 2853 04c2 C2020000 		.4byte	0x2c2
 2854 04c6 11       		.uleb128 0x11
 2855 04c7 4A060000 		.4byte	.LASF81
 2856 04cb 03       		.byte	0x3
 2857 04cc 1601     		.2byte	0x116
 2858 04ce EB040000 		.4byte	0x4eb
 2859 04d2 11       		.uleb128 0x11
 2860 04d3 B4050000 		.4byte	.LASF82
 2861 04d7 03       		.byte	0x3
 2862 04d8 1E01     		.2byte	0x11e
 2863 04da 16050000 		.4byte	0x516
 2864 04de 11       		.uleb128 0x11
 2865 04df 3C000000 		.4byte	.LASF83
 2866 04e3 03       		.byte	0x3
 2867 04e4 2701     		.2byte	0x127
ARM GAS  /tmp/ccUb86vt.s 			page 115


 2868 04e6 4D050000 		.4byte	0x54d
 2869 04ea 00       		.byte	0
 2870 04eb 09       		.uleb128 0x9
 2871 04ec 04       		.byte	0x4
 2872 04ed DA010000 		.4byte	0x1da
 2873 04f1 05       		.uleb128 0x5
 2874 04f2 8A010000 		.4byte	.LASF84
 2875 04f6 0C       		.byte	0xc
 2876 04f7 06       		.byte	0x6
 2877 04f8 34       		.byte	0x34
 2878 04f9 16050000 		.4byte	0x516
 2879 04fd 06       		.uleb128 0x6
 2880 04fe 6A000000 		.4byte	.LASF85
 2881 0502 06       		.byte	0x6
 2882 0503 35       		.byte	0x35
 2883 0504 0F020000 		.4byte	0x20f
 2884 0508 00       		.byte	0
 2885 0509 06       		.uleb128 0x6
 2886 050a 4D010000 		.4byte	.LASF86
 2887 050e 06       		.byte	0x6
 2888 050f 37       		.byte	0x37
 2889 0510 0C010000 		.4byte	0x10c
 2890 0514 08       		.byte	0x8
 2891 0515 00       		.byte	0
 2892 0516 09       		.uleb128 0x9
 2893 0517 04       		.byte	0x4
 2894 0518 F1040000 		.4byte	0x4f1
 2895 051c 05       		.uleb128 0x5
 2896 051d 8C020000 		.4byte	.LASF87
 2897 0521 10       		.byte	0x10
 2898 0522 0E       		.byte	0xe
 2899 0523 39       		.byte	0x39
 2900 0524 4D050000 		.4byte	0x54d
 2901 0528 06       		.uleb128 0x6
 2902 0529 CE040000 		.4byte	.LASF88
 2903 052d 0E       		.byte	0xe
 2904 052e 3A       		.byte	0x3a
 2905 052f 0F020000 		.4byte	0x20f
 2906 0533 00       		.byte	0
 2907 0534 06       		.uleb128 0x6
 2908 0535 62000000 		.4byte	.LASF89
 2909 0539 0E       		.byte	0xe
 2910 053a 3C       		.byte	0x3c
 2911 053b E5010000 		.4byte	0x1e5
 2912 053f 08       		.byte	0x8
 2913 0540 06       		.uleb128 0x6
 2914 0541 50060000 		.4byte	.LASF90
 2915 0545 0E       		.byte	0xe
 2916 0546 3E       		.byte	0x3e
 2917 0547 96050000 		.4byte	0x596
 2918 054b 0C       		.byte	0xc
 2919 054c 00       		.byte	0
 2920 054d 09       		.uleb128 0x9
 2921 054e 04       		.byte	0x4
 2922 054f 1C050000 		.4byte	0x51c
 2923 0553 09       		.uleb128 0x9
 2924 0554 04       		.byte	0x4
ARM GAS  /tmp/ccUb86vt.s 			page 116


 2925 0555 59050000 		.4byte	0x559
 2926 0559 12       		.uleb128 0x12
 2927 055a 5E050000 		.4byte	0x55e
 2928 055e 04       		.uleb128 0x4
 2929 055f 01       		.byte	0x1
 2930 0560 08       		.byte	0x8
 2931 0561 43000000 		.4byte	.LASF91
 2932 0565 09       		.uleb128 0x9
 2933 0566 04       		.byte	0x4
 2934 0567 C4020000 		.4byte	0x2c4
 2935 056b 13       		.uleb128 0x13
 2936 056c 53050000 		.4byte	0x553
 2937 0570 14       		.uleb128 0x14
 2938 0571 FE030000 		.4byte	0x3fe
 2939 0575 80050000 		.4byte	0x580
 2940 0579 15       		.uleb128 0x15
 2941 057a EC030000 		.4byte	0x3ec
 2942 057e 18       		.byte	0x18
 2943 057f 00       		.byte	0
 2944 0580 03       		.uleb128 0x3
 2945 0581 04020000 		.4byte	.LASF92
 2946 0585 06       		.byte	0x6
 2947 0586 38       		.byte	0x38
 2948 0587 F1040000 		.4byte	0x4f1
 2949 058b 03       		.uleb128 0x3
 2950 058c BB050000 		.4byte	.LASF93
 2951 0590 0E       		.byte	0xe
 2952 0591 34       		.byte	0x34
 2953 0592 1C050000 		.4byte	0x51c
 2954 0596 09       		.uleb128 0x9
 2955 0597 04       		.byte	0x4
 2956 0598 8B050000 		.4byte	0x58b
 2957 059c 16       		.uleb128 0x16
 2958 059d 59020000 		.4byte	.LASF94
 2959 05a1 02       		.byte	0x2
 2960 05a2 5601     		.2byte	0x156
 2961 05a4 03       		.byte	0x3
 2962 05a5 16       		.uleb128 0x16
 2963 05a6 EB040000 		.4byte	.LASF95
 2964 05aa 02       		.byte	0x2
 2965 05ab 4B01     		.2byte	0x14b
 2966 05ad 03       		.byte	0x3
 2967 05ae 17       		.uleb128 0x17
 2968 05af 9F000000 		.4byte	.LASF96
 2969 05b3 01       		.byte	0x1
 2970 05b4 4A01     		.2byte	0x14a
 2971 05b6 00000000 		.4byte	.LFB38
 2972 05ba 04000000 		.4byte	.LFE38-.LFB38
 2973 05be 01       		.uleb128 0x1
 2974 05bf 9C       		.byte	0x9c
 2975 05c0 D5050000 		.4byte	0x5d5
 2976 05c4 18       		.uleb128 0x18
 2977 05c5 9C050000 		.4byte	0x59c
 2978 05c9 00000000 		.4byte	.LBB6
 2979 05cd 02000000 		.4byte	.LBE6-.LBB6
 2980 05d1 01       		.byte	0x1
 2981 05d2 4C01     		.2byte	0x14c
ARM GAS  /tmp/ccUb86vt.s 			page 117


 2982 05d4 00       		.byte	0
 2983 05d5 17       		.uleb128 0x17
 2984 05d6 8F060000 		.4byte	.LASF97
 2985 05da 01       		.byte	0x1
 2986 05db 5301     		.2byte	0x153
 2987 05dd 00000000 		.4byte	.LFB39
 2988 05e1 04000000 		.4byte	.LFE39-.LFB39
 2989 05e5 01       		.uleb128 0x1
 2990 05e6 9C       		.byte	0x9c
 2991 05e7 FC050000 		.4byte	0x5fc
 2992 05eb 18       		.uleb128 0x18
 2993 05ec A5050000 		.4byte	0x5a5
 2994 05f0 00000000 		.4byte	.LBB8
 2995 05f4 02000000 		.4byte	.LBE8-.LBB8
 2996 05f8 01       		.byte	0x1
 2997 05f9 5501     		.2byte	0x155
 2998 05fb 00       		.byte	0
 2999 05fc 19       		.uleb128 0x19
 3000 05fd B0000000 		.4byte	.LASF98
 3001 0601 01       		.byte	0x1
 3002 0602 5D01     		.2byte	0x15d
 3003 0604 00000000 		.4byte	.LFB40
 3004 0608 08000000 		.4byte	.LFE40-.LFB40
 3005 060c 01       		.uleb128 0x1
 3006 060d 9C       		.byte	0x9c
 3007 060e 19       		.uleb128 0x19
 3008 060f CE050000 		.4byte	.LASF99
 3009 0613 01       		.byte	0x1
 3010 0614 6701     		.2byte	0x167
 3011 0616 00000000 		.4byte	.LFB41
 3012 061a 08000000 		.4byte	.LFE41-.LFB41
 3013 061e 01       		.uleb128 0x1
 3014 061f 9C       		.byte	0x9c
 3015 0620 17       		.uleb128 0x17
 3016 0621 C3050000 		.4byte	.LASF100
 3017 0625 03       		.byte	0x3
 3018 0626 5A02     		.2byte	0x25a
 3019 0628 00000000 		.4byte	.LFB60
 3020 062c 14000000 		.4byte	.LFE60-.LFB60
 3021 0630 01       		.uleb128 0x1
 3022 0631 9C       		.byte	0x9c
 3023 0632 46060000 		.4byte	0x646
 3024 0636 1A       		.uleb128 0x1a
 3025 0637 74717000 		.ascii	"tqp\000"
 3026 063b 03       		.byte	0x3
 3027 063c 5A02     		.2byte	0x25a
 3028 063e 46060000 		.4byte	0x646
 3029 0642 02       		.uleb128 0x2
 3030 0643 91       		.byte	0x91
 3031 0644 7C       		.sleb128 -4
 3032 0645 00       		.byte	0
 3033 0646 09       		.uleb128 0x9
 3034 0647 04       		.byte	0x4
 3035 0648 0F020000 		.4byte	0x20f
 3036 064c 1B       		.uleb128 0x1b
 3037 064d 91040000 		.4byte	.LASF129
 3038 0651 03       		.byte	0x3
ARM GAS  /tmp/ccUb86vt.s 			page 118


 3039 0652 C502     		.2byte	0x2c5
 3040 0654 62060000 		.4byte	0x662
 3041 0658 00000000 		.4byte	.LFB63
 3042 065c 1C000000 		.4byte	.LFE63-.LFB63
 3043 0660 01       		.uleb128 0x1
 3044 0661 9C       		.byte	0x9c
 3045 0662 04       		.uleb128 0x4
 3046 0663 01       		.byte	0x1
 3047 0664 02       		.byte	0x2
 3048 0665 67020000 		.4byte	.LASF101
 3049 0669 19       		.uleb128 0x19
 3050 066a F1000000 		.4byte	.LASF102
 3051 066e 04       		.byte	0x4
 3052 066f 8201     		.2byte	0x182
 3053 0671 00000000 		.4byte	.LFB72
 3054 0675 08000000 		.4byte	.LFE72-.LFB72
 3055 0679 01       		.uleb128 0x1
 3056 067a 9C       		.byte	0x9c
 3057 067b 19       		.uleb128 0x19
 3058 067c 38020000 		.4byte	.LASF103
 3059 0680 04       		.byte	0x4
 3060 0681 9601     		.2byte	0x196
 3061 0683 00000000 		.4byte	.LFB73
 3062 0687 08000000 		.4byte	.LFE73-.LFB73
 3063 068b 01       		.uleb128 0x1
 3064 068c 9C       		.byte	0x9c
 3065 068d 1C       		.uleb128 0x1c
 3066 068e F2010000 		.4byte	.LASF130
 3067 0692 05       		.byte	0x5
 3068 0693 7401     		.2byte	0x174
 3069 0695 62060000 		.4byte	0x662
 3070 0699 00000000 		.4byte	.LFB85
 3071 069d 14000000 		.4byte	.LFE85-.LFB85
 3072 06a1 01       		.uleb128 0x1
 3073 06a2 9C       		.byte	0x9c
 3074 06a3 B7060000 		.4byte	0x6b7
 3075 06a7 1A       		.uleb128 0x1a
 3076 06a8 76747000 		.ascii	"vtp\000"
 3077 06ac 05       		.byte	0x5
 3078 06ad 7401     		.2byte	0x174
 3079 06af 65050000 		.4byte	0x565
 3080 06b3 02       		.uleb128 0x2
 3081 06b4 91       		.byte	0x91
 3082 06b5 7C       		.sleb128 -4
 3083 06b6 00       		.byte	0
 3084 06b7 1D       		.uleb128 0x1d
 3085 06b8 27010000 		.4byte	.LASF104
 3086 06bc 06       		.byte	0x6
 3087 06bd 86       		.byte	0x86
 3088 06be 00000000 		.4byte	.LFB105
 3089 06c2 12000000 		.4byte	.LFE105-.LFB105
 3090 06c6 01       		.uleb128 0x1
 3091 06c7 9C       		.byte	0x9c
 3092 06c8 DA060000 		.4byte	0x6da
 3093 06cc 1E       		.uleb128 0x1e
 3094 06cd 737000   		.ascii	"sp\000"
 3095 06d0 06       		.byte	0x6
ARM GAS  /tmp/ccUb86vt.s 			page 119


 3096 06d1 86       		.byte	0x86
 3097 06d2 DA060000 		.4byte	0x6da
 3098 06d6 02       		.uleb128 0x2
 3099 06d7 91       		.byte	0x91
 3100 06d8 7C       		.sleb128 -4
 3101 06d9 00       		.byte	0
 3102 06da 09       		.uleb128 0x9
 3103 06db 04       		.byte	0x4
 3104 06dc 80050000 		.4byte	0x580
 3105 06e0 1F       		.uleb128 0x1f
 3106 06e1 63010000 		.4byte	.LASF121
 3107 06e5 07       		.byte	0x7
 3108 06e6 41       		.byte	0x41
 3109 06e7 00000000 		.4byte	.LFB119
 3110 06eb 24000000 		.4byte	.LFE119-.LFB119
 3111 06ef 01       		.uleb128 0x1
 3112 06f0 9C       		.byte	0x9c
 3113 06f1 20       		.uleb128 0x20
 3114 06f2 C4020000 		.4byte	.LASF105
 3115 06f6 07       		.byte	0x7
 3116 06f7 56       		.byte	0x56
 3117 06f8 00000000 		.4byte	.LFB120
 3118 06fc 44000000 		.4byte	.LFE120-.LFB120
 3119 0700 01       		.uleb128 0x1
 3120 0701 9C       		.byte	0x9c
 3121 0702 2F070000 		.4byte	0x72f
 3122 0706 1E       		.uleb128 0x1e
 3123 0707 747000   		.ascii	"tp\000"
 3124 070a 07       		.byte	0x7
 3125 070b 56       		.byte	0x56
 3126 070c E5010000 		.4byte	0x1e5
 3127 0710 02       		.uleb128 0x2
 3128 0711 91       		.byte	0x91
 3129 0712 74       		.sleb128 -12
 3130 0713 1E       		.uleb128 0x1e
 3131 0714 74717000 		.ascii	"tqp\000"
 3132 0718 07       		.byte	0x7
 3133 0719 56       		.byte	0x56
 3134 071a 46060000 		.4byte	0x646
 3135 071e 02       		.uleb128 0x2
 3136 071f 91       		.byte	0x91
 3137 0720 70       		.sleb128 -16
 3138 0721 21       		.uleb128 0x21
 3139 0722 637000   		.ascii	"cp\000"
 3140 0725 07       		.byte	0x7
 3141 0726 58       		.byte	0x58
 3142 0727 E5010000 		.4byte	0x1e5
 3143 072b 02       		.uleb128 0x2
 3144 072c 91       		.byte	0x91
 3145 072d 7C       		.sleb128 -4
 3146 072e 00       		.byte	0
 3147 072f 20       		.uleb128 0x20
 3148 0730 02050000 		.4byte	.LASF106
 3149 0734 07       		.byte	0x7
 3150 0735 6A       		.byte	0x6a
 3151 0736 00000000 		.4byte	.LFB121
 3152 073a 26000000 		.4byte	.LFE121-.LFB121
ARM GAS  /tmp/ccUb86vt.s 			page 120


 3153 073e 01       		.uleb128 0x1
 3154 073f 9C       		.byte	0x9c
 3155 0740 60070000 		.4byte	0x760
 3156 0744 1E       		.uleb128 0x1e
 3157 0745 747000   		.ascii	"tp\000"
 3158 0748 07       		.byte	0x7
 3159 0749 6A       		.byte	0x6a
 3160 074a E5010000 		.4byte	0x1e5
 3161 074e 02       		.uleb128 0x2
 3162 074f 91       		.byte	0x91
 3163 0750 7C       		.sleb128 -4
 3164 0751 1E       		.uleb128 0x1e
 3165 0752 74717000 		.ascii	"tqp\000"
 3166 0756 07       		.byte	0x7
 3167 0757 6A       		.byte	0x6a
 3168 0758 46060000 		.4byte	0x646
 3169 075c 02       		.uleb128 0x2
 3170 075d 91       		.byte	0x91
 3171 075e 78       		.sleb128 -8
 3172 075f 00       		.byte	0
 3173 0760 22       		.uleb128 0x22
 3174 0761 A4030000 		.4byte	.LASF107
 3175 0765 07       		.byte	0x7
 3176 0766 7C       		.byte	0x7c
 3177 0767 E5010000 		.4byte	0x1e5
 3178 076b 00000000 		.4byte	.LFB122
 3179 076f 22000000 		.4byte	.LFE122-.LFB122
 3180 0773 01       		.uleb128 0x1
 3181 0774 9C       		.byte	0x9c
 3182 0775 95070000 		.4byte	0x795
 3183 0779 1E       		.uleb128 0x1e
 3184 077a 74717000 		.ascii	"tqp\000"
 3185 077e 07       		.byte	0x7
 3186 077f 7C       		.byte	0x7c
 3187 0780 46060000 		.4byte	0x646
 3188 0784 02       		.uleb128 0x2
 3189 0785 91       		.byte	0x91
 3190 0786 74       		.sleb128 -12
 3191 0787 21       		.uleb128 0x21
 3192 0788 747000   		.ascii	"tp\000"
 3193 078b 07       		.byte	0x7
 3194 078c 7D       		.byte	0x7d
 3195 078d E5010000 		.4byte	0x1e5
 3196 0791 02       		.uleb128 0x2
 3197 0792 91       		.byte	0x91
 3198 0793 7C       		.sleb128 -4
 3199 0794 00       		.byte	0
 3200 0795 22       		.uleb128 0x22
 3201 0796 42030000 		.4byte	.LASF108
 3202 079a 07       		.byte	0x7
 3203 079b 8F       		.byte	0x8f
 3204 079c E5010000 		.4byte	0x1e5
 3205 07a0 00000000 		.4byte	.LFB123
 3206 07a4 22000000 		.4byte	.LFE123-.LFB123
 3207 07a8 01       		.uleb128 0x1
 3208 07a9 9C       		.byte	0x9c
 3209 07aa CA070000 		.4byte	0x7ca
ARM GAS  /tmp/ccUb86vt.s 			page 121


 3210 07ae 1E       		.uleb128 0x1e
 3211 07af 74717000 		.ascii	"tqp\000"
 3212 07b3 07       		.byte	0x7
 3213 07b4 8F       		.byte	0x8f
 3214 07b5 46060000 		.4byte	0x646
 3215 07b9 02       		.uleb128 0x2
 3216 07ba 91       		.byte	0x91
 3217 07bb 74       		.sleb128 -12
 3218 07bc 21       		.uleb128 0x21
 3219 07bd 747000   		.ascii	"tp\000"
 3220 07c0 07       		.byte	0x7
 3221 07c1 90       		.byte	0x90
 3222 07c2 E5010000 		.4byte	0x1e5
 3223 07c6 02       		.uleb128 0x2
 3224 07c7 91       		.byte	0x91
 3225 07c8 7C       		.sleb128 -4
 3226 07c9 00       		.byte	0
 3227 07ca 22       		.uleb128 0x22
 3228 07cb 35050000 		.4byte	.LASF109
 3229 07cf 07       		.byte	0x7
 3230 07d0 A2       		.byte	0xa2
 3231 07d1 E5010000 		.4byte	0x1e5
 3232 07d5 00000000 		.4byte	.LFB124
 3233 07d9 20000000 		.4byte	.LFE124-.LFB124
 3234 07dd 01       		.uleb128 0x1
 3235 07de 9C       		.byte	0x9c
 3236 07df F1070000 		.4byte	0x7f1
 3237 07e3 1E       		.uleb128 0x1e
 3238 07e4 747000   		.ascii	"tp\000"
 3239 07e7 07       		.byte	0x7
 3240 07e8 A2       		.byte	0xa2
 3241 07e9 E5010000 		.4byte	0x1e5
 3242 07ed 02       		.uleb128 0x2
 3243 07ee 91       		.byte	0x91
 3244 07ef 7C       		.sleb128 -4
 3245 07f0 00       		.byte	0
 3246 07f1 20       		.uleb128 0x20
 3247 07f2 A0020000 		.4byte	.LASF110
 3248 07f6 07       		.byte	0x7
 3249 07f7 B2       		.byte	0xb2
 3250 07f8 00000000 		.4byte	.LFB125
 3251 07fc 18000000 		.4byte	.LFE125-.LFB125
 3252 0800 01       		.uleb128 0x1
 3253 0801 9C       		.byte	0x9c
 3254 0802 22080000 		.4byte	0x822
 3255 0806 1E       		.uleb128 0x1e
 3256 0807 747000   		.ascii	"tp\000"
 3257 080a 07       		.byte	0x7
 3258 080b B2       		.byte	0xb2
 3259 080c E5010000 		.4byte	0x1e5
 3260 0810 02       		.uleb128 0x2
 3261 0811 91       		.byte	0x91
 3262 0812 7C       		.sleb128 -4
 3263 0813 1E       		.uleb128 0x1e
 3264 0814 746C7000 		.ascii	"tlp\000"
 3265 0818 07       		.byte	0x7
 3266 0819 B2       		.byte	0xb2
ARM GAS  /tmp/ccUb86vt.s 			page 122


 3267 081a 22080000 		.4byte	0x822
 3268 081e 02       		.uleb128 0x2
 3269 081f 91       		.byte	0x91
 3270 0820 78       		.sleb128 -8
 3271 0821 00       		.byte	0
 3272 0822 09       		.uleb128 0x9
 3273 0823 04       		.byte	0x4
 3274 0824 EB010000 		.4byte	0x1eb
 3275 0828 22       		.uleb128 0x22
 3276 0829 80030000 		.4byte	.LASF111
 3277 082d 07       		.byte	0x7
 3278 082e C1       		.byte	0xc1
 3279 082f E5010000 		.4byte	0x1e5
 3280 0833 00000000 		.4byte	.LFB126
 3281 0837 1A000000 		.4byte	.LFE126-.LFB126
 3282 083b 01       		.uleb128 0x1
 3283 083c 9C       		.byte	0x9c
 3284 083d 5D080000 		.4byte	0x85d
 3285 0841 1E       		.uleb128 0x1e
 3286 0842 746C7000 		.ascii	"tlp\000"
 3287 0846 07       		.byte	0x7
 3288 0847 C1       		.byte	0xc1
 3289 0848 22080000 		.4byte	0x822
 3290 084c 02       		.uleb128 0x2
 3291 084d 91       		.byte	0x91
 3292 084e 74       		.sleb128 -12
 3293 084f 21       		.uleb128 0x21
 3294 0850 747000   		.ascii	"tp\000"
 3295 0853 07       		.byte	0x7
 3296 0854 C3       		.byte	0xc3
 3297 0855 E5010000 		.4byte	0x1e5
 3298 0859 02       		.uleb128 0x2
 3299 085a 91       		.byte	0x91
 3300 085b 7C       		.sleb128 -4
 3301 085c 00       		.byte	0
 3302 085d 22       		.uleb128 0x22
 3303 085e 41010000 		.4byte	.LASF112
 3304 0862 07       		.byte	0x7
 3305 0863 DA       		.byte	0xda
 3306 0864 E5010000 		.4byte	0x1e5
 3307 0868 00000000 		.4byte	.LFB127
 3308 086c 48000000 		.4byte	.LFE127-.LFB127
 3309 0870 01       		.uleb128 0x1
 3310 0871 9C       		.byte	0x9c
 3311 0872 9A080000 		.4byte	0x89a
 3312 0876 1E       		.uleb128 0x1e
 3313 0877 747000   		.ascii	"tp\000"
 3314 087a 07       		.byte	0x7
 3315 087b DA       		.byte	0xda
 3316 087c E5010000 		.4byte	0x1e5
 3317 0880 02       		.uleb128 0x2
 3318 0881 91       		.byte	0x91
 3319 0882 74       		.sleb128 -12
 3320 0883 21       		.uleb128 0x21
 3321 0884 637000   		.ascii	"cp\000"
 3322 0887 07       		.byte	0x7
 3323 0888 DB       		.byte	0xdb
ARM GAS  /tmp/ccUb86vt.s 			page 123


 3324 0889 E5010000 		.4byte	0x1e5
 3325 088d 02       		.uleb128 0x2
 3326 088e 91       		.byte	0x91
 3327 088f 7C       		.sleb128 -4
 3328 0890 23       		.uleb128 0x23
 3329 0891 43050000 		.4byte	.LASF119
 3330 0895 AA080000 		.4byte	0x8aa
 3331 0899 00       		.byte	0
 3332 089a 14       		.uleb128 0x14
 3333 089b 5E050000 		.4byte	0x55e
 3334 089f AA080000 		.4byte	0x8aa
 3335 08a3 15       		.uleb128 0x15
 3336 08a4 EC030000 		.4byte	0x3ec
 3337 08a8 0B       		.byte	0xb
 3338 08a9 00       		.byte	0
 3339 08aa 12       		.uleb128 0x12
 3340 08ab 9A080000 		.4byte	0x89a
 3341 08af 24       		.uleb128 0x24
 3342 08b0 51050000 		.4byte	.LASF113
 3343 08b4 07       		.byte	0x7
 3344 08b5 FA       		.byte	0xfa
 3345 08b6 00000000 		.4byte	.LFB128
 3346 08ba 48000000 		.4byte	.LFE128-.LFB128
 3347 08be 01       		.uleb128 0x1
 3348 08bf 9C       		.byte	0x9c
 3349 08c0 E1080000 		.4byte	0x8e1
 3350 08c4 25       		.uleb128 0x25
 3351 08c5 AB050000 		.4byte	.LASF114
 3352 08c9 07       		.byte	0x7
 3353 08ca FA       		.byte	0xfa
 3354 08cb EB000000 		.4byte	0xeb
 3355 08cf 02       		.uleb128 0x2
 3356 08d0 91       		.byte	0x91
 3357 08d1 6F       		.sleb128 -17
 3358 08d2 21       		.uleb128 0x21
 3359 08d3 6F747000 		.ascii	"otp\000"
 3360 08d7 07       		.byte	0x7
 3361 08d8 FB       		.byte	0xfb
 3362 08d9 E5010000 		.4byte	0x1e5
 3363 08dd 02       		.uleb128 0x2
 3364 08de 91       		.byte	0x91
 3365 08df 74       		.sleb128 -12
 3366 08e0 00       		.byte	0
 3367 08e1 26       		.uleb128 0x26
 3368 08e2 6D020000 		.4byte	.LASF115
 3369 08e6 07       		.byte	0x7
 3370 08e7 1301     		.2byte	0x113
 3371 08e9 00000000 		.4byte	.LFB129
 3372 08ed 64000000 		.4byte	.LFE129-.LFB129
 3373 08f1 01       		.uleb128 0x1
 3374 08f2 9C       		.byte	0x9c
 3375 08f3 13090000 		.4byte	0x913
 3376 08f7 1A       		.uleb128 0x1a
 3377 08f8 7000     		.ascii	"p\000"
 3378 08fa 07       		.byte	0x7
 3379 08fb 1301     		.2byte	0x113
 3380 08fd C2020000 		.4byte	0x2c2
ARM GAS  /tmp/ccUb86vt.s 			page 124


 3381 0901 02       		.uleb128 0x2
 3382 0902 91       		.byte	0x91
 3383 0903 6C       		.sleb128 -20
 3384 0904 27       		.uleb128 0x27
 3385 0905 747000   		.ascii	"tp\000"
 3386 0908 07       		.byte	0x7
 3387 0909 1401     		.2byte	0x114
 3388 090b E5010000 		.4byte	0x1e5
 3389 090f 02       		.uleb128 0x2
 3390 0910 91       		.byte	0x91
 3391 0911 74       		.sleb128 -12
 3392 0912 00       		.byte	0
 3393 0913 28       		.uleb128 0x28
 3394 0914 8E050000 		.4byte	.LASF116
 3395 0918 07       		.byte	0x7
 3396 0919 4A01     		.2byte	0x14a
 3397 091b 01010000 		.4byte	0x101
 3398 091f 00000000 		.4byte	.LFB130
 3399 0923 78000000 		.4byte	.LFE130-.LFB130
 3400 0927 01       		.uleb128 0x1
 3401 0928 9C       		.byte	0x9c
 3402 0929 64090000 		.4byte	0x964
 3403 092d 29       		.uleb128 0x29
 3404 092e AB050000 		.4byte	.LASF114
 3405 0932 07       		.byte	0x7
 3406 0933 4A01     		.2byte	0x14a
 3407 0935 EB000000 		.4byte	0xeb
 3408 0939 02       		.uleb128 0x2
 3409 093a 91       		.byte	0x91
 3410 093b 5F       		.sleb128 -33
 3411 093c 29       		.uleb128 0x29
 3412 093d FF010000 		.4byte	.LASF117
 3413 0941 07       		.byte	0x7
 3414 0942 4A01     		.2byte	0x14a
 3415 0944 17010000 		.4byte	0x117
 3416 0948 02       		.uleb128 0x2
 3417 0949 91       		.byte	0x91
 3418 094a 5C       		.sleb128 -36
 3419 094b 2A       		.uleb128 0x2a
 3420 094c 1C000000 		.4byte	.LBB10
 3421 0950 32000000 		.4byte	.LBE10-.LBB10
 3422 0954 27       		.uleb128 0x27
 3423 0955 767400   		.ascii	"vt\000"
 3424 0958 07       		.byte	0x7
 3425 0959 4F01     		.2byte	0x14f
 3426 095b C4020000 		.4byte	0x2c4
 3427 095f 02       		.uleb128 0x2
 3428 0960 91       		.byte	0x91
 3429 0961 64       		.sleb128 -28
 3430 0962 00       		.byte	0
 3431 0963 00       		.byte	0
 3432 0964 2B       		.uleb128 0x2b
 3433 0965 12060000 		.4byte	.LASF118
 3434 0969 07       		.byte	0x7
 3435 096a 6F01     		.2byte	0x16f
 3436 096c 00000000 		.4byte	.LFB131
 3437 0970 54000000 		.4byte	.LFE131-.LFB131
ARM GAS  /tmp/ccUb86vt.s 			page 125


 3438 0974 01       		.uleb128 0x1
 3439 0975 9C       		.byte	0x9c
 3440 0976 BB090000 		.4byte	0x9bb
 3441 097a 1A       		.uleb128 0x1a
 3442 097b 6E747000 		.ascii	"ntp\000"
 3443 097f 07       		.byte	0x7
 3444 0980 6F01     		.2byte	0x16f
 3445 0982 E5010000 		.4byte	0x1e5
 3446 0986 02       		.uleb128 0x2
 3447 0987 91       		.byte	0x91
 3448 0988 6C       		.sleb128 -20
 3449 0989 1A       		.uleb128 0x1a
 3450 098a 6D736700 		.ascii	"msg\000"
 3451 098e 07       		.byte	0x7
 3452 098f 6F01     		.2byte	0x16f
 3453 0991 01010000 		.4byte	0x101
 3454 0995 02       		.uleb128 0x2
 3455 0996 91       		.byte	0x91
 3456 0997 68       		.sleb128 -24
 3457 0998 23       		.uleb128 0x23
 3458 0999 A3060000 		.4byte	.LASF120
 3459 099d CB090000 		.4byte	0x9cb
 3460 09a1 2A       		.uleb128 0x2a
 3461 09a2 26000000 		.4byte	.LBB11
 3462 09a6 26000000 		.4byte	.LBE11-.LBB11
 3463 09aa 27       		.uleb128 0x27
 3464 09ab 6F747000 		.ascii	"otp\000"
 3465 09af 07       		.byte	0x7
 3466 09b0 8301     		.2byte	0x183
 3467 09b2 E5010000 		.4byte	0x1e5
 3468 09b6 02       		.uleb128 0x2
 3469 09b7 91       		.byte	0x91
 3470 09b8 74       		.sleb128 -12
 3471 09b9 00       		.byte	0
 3472 09ba 00       		.byte	0
 3473 09bb 14       		.uleb128 0x14
 3474 09bc 5E050000 		.4byte	0x55e
 3475 09c0 CB090000 		.4byte	0x9cb
 3476 09c4 15       		.uleb128 0x15
 3477 09c5 EC030000 		.4byte	0x3ec
 3478 09c9 0C       		.byte	0xc
 3479 09ca 00       		.byte	0
 3480 09cb 12       		.uleb128 0x12
 3481 09cc BB090000 		.4byte	0x9bb
 3482 09d0 2C       		.uleb128 0x2c
 3483 09d1 AC020000 		.4byte	.LASF122
 3484 09d5 07       		.byte	0x7
 3485 09d6 9601     		.2byte	0x196
 3486 09d8 00000000 		.4byte	.LFB132
 3487 09dc 12000000 		.4byte	.LFE132-.LFB132
 3488 09e0 01       		.uleb128 0x1
 3489 09e1 9C       		.byte	0x9c
 3490 09e2 2D       		.uleb128 0x2d
 3491 09e3 C7010000 		.4byte	.LASF123
 3492 09e7 07       		.byte	0x7
 3493 09e8 AC01     		.2byte	0x1ac
 3494 09ea 62060000 		.4byte	0x662
ARM GAS  /tmp/ccUb86vt.s 			page 126


 3495 09ee 00000000 		.4byte	.LFB133
 3496 09f2 28000000 		.4byte	.LFE133-.LFB133
 3497 09f6 01       		.uleb128 0x1
 3498 09f7 9C       		.byte	0x9c
 3499 09f8 190A0000 		.4byte	0xa19
 3500 09fc 27       		.uleb128 0x27
 3501 09fd 703100   		.ascii	"p1\000"
 3502 0a00 07       		.byte	0x7
 3503 0a01 AD01     		.2byte	0x1ad
 3504 0a03 F6000000 		.4byte	0xf6
 3505 0a07 02       		.uleb128 0x2
 3506 0a08 91       		.byte	0x91
 3507 0a09 7C       		.sleb128 -4
 3508 0a0a 27       		.uleb128 0x27
 3509 0a0b 703200   		.ascii	"p2\000"
 3510 0a0e 07       		.byte	0x7
 3511 0a0f AE01     		.2byte	0x1ae
 3512 0a11 F6000000 		.4byte	0xf6
 3513 0a15 02       		.uleb128 0x2
 3514 0a16 91       		.byte	0x91
 3515 0a17 78       		.sleb128 -8
 3516 0a18 00       		.byte	0
 3517 0a19 2B       		.uleb128 0x2b
 3518 0a1a 74020000 		.4byte	.LASF124
 3519 0a1e 07       		.byte	0x7
 3520 0a1f C701     		.2byte	0x1c7
 3521 0a21 00000000 		.4byte	.LFB134
 3522 0a25 40000000 		.4byte	.LFE134-.LFB134
 3523 0a29 01       		.uleb128 0x1
 3524 0a2a 9C       		.byte	0x9c
 3525 0a2b 3F0A0000 		.4byte	0xa3f
 3526 0a2f 27       		.uleb128 0x27
 3527 0a30 6F747000 		.ascii	"otp\000"
 3528 0a34 07       		.byte	0x7
 3529 0a35 C801     		.2byte	0x1c8
 3530 0a37 E5010000 		.4byte	0x1e5
 3531 0a3b 02       		.uleb128 0x2
 3532 0a3c 91       		.byte	0x91
 3533 0a3d 74       		.sleb128 -12
 3534 0a3e 00       		.byte	0
 3535 0a3f 2B       		.uleb128 0x2b
 3536 0a40 27060000 		.4byte	.LASF125
 3537 0a44 07       		.byte	0x7
 3538 0a45 E301     		.2byte	0x1e3
 3539 0a47 00000000 		.4byte	.LFB135
 3540 0a4b 70000000 		.4byte	.LFE135-.LFB135
 3541 0a4f 01       		.uleb128 0x1
 3542 0a50 9C       		.byte	0x9c
 3543 0a51 730A0000 		.4byte	0xa73
 3544 0a55 27       		.uleb128 0x27
 3545 0a56 6F747000 		.ascii	"otp\000"
 3546 0a5a 07       		.byte	0x7
 3547 0a5b E401     		.2byte	0x1e4
 3548 0a5d E5010000 		.4byte	0x1e5
 3549 0a61 02       		.uleb128 0x2
 3550 0a62 91       		.byte	0x91
 3551 0a63 70       		.sleb128 -16
ARM GAS  /tmp/ccUb86vt.s 			page 127


 3552 0a64 27       		.uleb128 0x27
 3553 0a65 637000   		.ascii	"cp\000"
 3554 0a68 07       		.byte	0x7
 3555 0a69 E401     		.2byte	0x1e4
 3556 0a6b E5010000 		.4byte	0x1e5
 3557 0a6f 02       		.uleb128 0x2
 3558 0a70 91       		.byte	0x91
 3559 0a71 74       		.sleb128 -12
 3560 0a72 00       		.byte	0
 3561 0a73 2C       		.uleb128 0x2c
 3562 0a74 2A000000 		.4byte	.LASF126
 3563 0a78 07       		.byte	0x7
 3564 0a79 0802     		.2byte	0x208
 3565 0a7b 00000000 		.4byte	.LFB136
 3566 0a7f 08000000 		.4byte	.LFE136-.LFB136
 3567 0a83 01       		.uleb128 0x1
 3568 0a84 9C       		.byte	0x9c
 3569 0a85 2E       		.uleb128 0x2e
 3570 0a86 636800   		.ascii	"ch\000"
 3571 0a89 07       		.byte	0x7
 3572 0a8a 2A       		.byte	0x2a
 3573 0a8b 91030000 		.4byte	0x391
 3574 0a8f 05       		.uleb128 0x5
 3575 0a90 03       		.byte	0x3
 3576 0a91 00000000 		.4byte	ch
 3577 0a95 00       		.byte	0
 3578              		.section	.debug_abbrev,"",%progbits
 3579              	.Ldebug_abbrev0:
 3580 0000 01       		.uleb128 0x1
 3581 0001 11       		.uleb128 0x11
 3582 0002 01       		.byte	0x1
 3583 0003 25       		.uleb128 0x25
 3584 0004 0E       		.uleb128 0xe
 3585 0005 13       		.uleb128 0x13
 3586 0006 0B       		.uleb128 0xb
 3587 0007 03       		.uleb128 0x3
 3588 0008 0E       		.uleb128 0xe
 3589 0009 55       		.uleb128 0x55
 3590 000a 17       		.uleb128 0x17
 3591 000b 11       		.uleb128 0x11
 3592 000c 01       		.uleb128 0x1
 3593 000d 10       		.uleb128 0x10
 3594 000e 17       		.uleb128 0x17
 3595 000f 00       		.byte	0
 3596 0010 00       		.byte	0
 3597 0011 02       		.uleb128 0x2
 3598 0012 24       		.uleb128 0x24
 3599 0013 00       		.byte	0
 3600 0014 0B       		.uleb128 0xb
 3601 0015 0B       		.uleb128 0xb
 3602 0016 3E       		.uleb128 0x3e
 3603 0017 0B       		.uleb128 0xb
 3604 0018 03       		.uleb128 0x3
 3605 0019 08       		.uleb128 0x8
 3606 001a 00       		.byte	0
 3607 001b 00       		.byte	0
 3608 001c 03       		.uleb128 0x3
ARM GAS  /tmp/ccUb86vt.s 			page 128


 3609 001d 16       		.uleb128 0x16
 3610 001e 00       		.byte	0
 3611 001f 03       		.uleb128 0x3
 3612 0020 0E       		.uleb128 0xe
 3613 0021 3A       		.uleb128 0x3a
 3614 0022 0B       		.uleb128 0xb
 3615 0023 3B       		.uleb128 0x3b
 3616 0024 0B       		.uleb128 0xb
 3617 0025 49       		.uleb128 0x49
 3618 0026 13       		.uleb128 0x13
 3619 0027 00       		.byte	0
 3620 0028 00       		.byte	0
 3621 0029 04       		.uleb128 0x4
 3622 002a 24       		.uleb128 0x24
 3623 002b 00       		.byte	0
 3624 002c 0B       		.uleb128 0xb
 3625 002d 0B       		.uleb128 0xb
 3626 002e 3E       		.uleb128 0x3e
 3627 002f 0B       		.uleb128 0xb
 3628 0030 03       		.uleb128 0x3
 3629 0031 0E       		.uleb128 0xe
 3630 0032 00       		.byte	0
 3631 0033 00       		.byte	0
 3632 0034 05       		.uleb128 0x5
 3633 0035 13       		.uleb128 0x13
 3634 0036 01       		.byte	0x1
 3635 0037 03       		.uleb128 0x3
 3636 0038 0E       		.uleb128 0xe
 3637 0039 0B       		.uleb128 0xb
 3638 003a 0B       		.uleb128 0xb
 3639 003b 3A       		.uleb128 0x3a
 3640 003c 0B       		.uleb128 0xb
 3641 003d 3B       		.uleb128 0x3b
 3642 003e 0B       		.uleb128 0xb
 3643 003f 01       		.uleb128 0x1
 3644 0040 13       		.uleb128 0x13
 3645 0041 00       		.byte	0
 3646 0042 00       		.byte	0
 3647 0043 06       		.uleb128 0x6
 3648 0044 0D       		.uleb128 0xd
 3649 0045 00       		.byte	0
 3650 0046 03       		.uleb128 0x3
 3651 0047 0E       		.uleb128 0xe
 3652 0048 3A       		.uleb128 0x3a
 3653 0049 0B       		.uleb128 0xb
 3654 004a 3B       		.uleb128 0x3b
 3655 004b 0B       		.uleb128 0xb
 3656 004c 49       		.uleb128 0x49
 3657 004d 13       		.uleb128 0x13
 3658 004e 38       		.uleb128 0x38
 3659 004f 0B       		.uleb128 0xb
 3660 0050 00       		.byte	0
 3661 0051 00       		.byte	0
 3662 0052 07       		.uleb128 0x7
 3663 0053 0D       		.uleb128 0xd
 3664 0054 00       		.byte	0
 3665 0055 03       		.uleb128 0x3
ARM GAS  /tmp/ccUb86vt.s 			page 129


 3666 0056 08       		.uleb128 0x8
 3667 0057 3A       		.uleb128 0x3a
 3668 0058 0B       		.uleb128 0xb
 3669 0059 3B       		.uleb128 0x3b
 3670 005a 05       		.uleb128 0x5
 3671 005b 49       		.uleb128 0x49
 3672 005c 13       		.uleb128 0x13
 3673 005d 38       		.uleb128 0x38
 3674 005e 0B       		.uleb128 0xb
 3675 005f 00       		.byte	0
 3676 0060 00       		.byte	0
 3677 0061 08       		.uleb128 0x8
 3678 0062 0D       		.uleb128 0xd
 3679 0063 00       		.byte	0
 3680 0064 03       		.uleb128 0x3
 3681 0065 0E       		.uleb128 0xe
 3682 0066 3A       		.uleb128 0x3a
 3683 0067 0B       		.uleb128 0xb
 3684 0068 3B       		.uleb128 0x3b
 3685 0069 05       		.uleb128 0x5
 3686 006a 49       		.uleb128 0x49
 3687 006b 13       		.uleb128 0x13
 3688 006c 38       		.uleb128 0x38
 3689 006d 0B       		.uleb128 0xb
 3690 006e 00       		.byte	0
 3691 006f 00       		.byte	0
 3692 0070 09       		.uleb128 0x9
 3693 0071 0F       		.uleb128 0xf
 3694 0072 00       		.byte	0
 3695 0073 0B       		.uleb128 0xb
 3696 0074 0B       		.uleb128 0xb
 3697 0075 49       		.uleb128 0x49
 3698 0076 13       		.uleb128 0x13
 3699 0077 00       		.byte	0
 3700 0078 00       		.byte	0
 3701 0079 0A       		.uleb128 0xa
 3702 007a 13       		.uleb128 0x13
 3703 007b 01       		.byte	0x1
 3704 007c 03       		.uleb128 0x3
 3705 007d 0E       		.uleb128 0xe
 3706 007e 0B       		.uleb128 0xb
 3707 007f 0B       		.uleb128 0xb
 3708 0080 3A       		.uleb128 0x3a
 3709 0081 0B       		.uleb128 0xb
 3710 0082 3B       		.uleb128 0x3b
 3711 0083 05       		.uleb128 0x5
 3712 0084 01       		.uleb128 0x1
 3713 0085 13       		.uleb128 0x13
 3714 0086 00       		.byte	0
 3715 0087 00       		.byte	0
 3716 0088 0B       		.uleb128 0xb
 3717 0089 15       		.uleb128 0x15
 3718 008a 01       		.byte	0x1
 3719 008b 27       		.uleb128 0x27
 3720 008c 19       		.uleb128 0x19
 3721 008d 01       		.uleb128 0x1
 3722 008e 13       		.uleb128 0x13
ARM GAS  /tmp/ccUb86vt.s 			page 130


 3723 008f 00       		.byte	0
 3724 0090 00       		.byte	0
 3725 0091 0C       		.uleb128 0xc
 3726 0092 05       		.uleb128 0x5
 3727 0093 00       		.byte	0
 3728 0094 49       		.uleb128 0x49
 3729 0095 13       		.uleb128 0x13
 3730 0096 00       		.byte	0
 3731 0097 00       		.byte	0
 3732 0098 0D       		.uleb128 0xd
 3733 0099 0F       		.uleb128 0xf
 3734 009a 00       		.byte	0
 3735 009b 0B       		.uleb128 0xb
 3736 009c 0B       		.uleb128 0xb
 3737 009d 00       		.byte	0
 3738 009e 00       		.byte	0
 3739 009f 0E       		.uleb128 0xe
 3740 00a0 13       		.uleb128 0x13
 3741 00a1 01       		.byte	0x1
 3742 00a2 03       		.uleb128 0x3
 3743 00a3 0E       		.uleb128 0xe
 3744 00a4 0B       		.uleb128 0xb
 3745 00a5 05       		.uleb128 0x5
 3746 00a6 3A       		.uleb128 0x3a
 3747 00a7 0B       		.uleb128 0xb
 3748 00a8 3B       		.uleb128 0x3b
 3749 00a9 05       		.uleb128 0x5
 3750 00aa 01       		.uleb128 0x1
 3751 00ab 13       		.uleb128 0x13
 3752 00ac 00       		.byte	0
 3753 00ad 00       		.byte	0
 3754 00ae 0F       		.uleb128 0xf
 3755 00af 0D       		.uleb128 0xd
 3756 00b0 00       		.byte	0
 3757 00b1 03       		.uleb128 0x3
 3758 00b2 08       		.uleb128 0x8
 3759 00b3 3A       		.uleb128 0x3a
 3760 00b4 0B       		.uleb128 0xb
 3761 00b5 3B       		.uleb128 0x3b
 3762 00b6 0B       		.uleb128 0xb
 3763 00b7 49       		.uleb128 0x49
 3764 00b8 13       		.uleb128 0x13
 3765 00b9 38       		.uleb128 0x38
 3766 00ba 0B       		.uleb128 0xb
 3767 00bb 00       		.byte	0
 3768 00bc 00       		.byte	0
 3769 00bd 10       		.uleb128 0x10
 3770 00be 17       		.uleb128 0x17
 3771 00bf 01       		.byte	0x1
 3772 00c0 0B       		.uleb128 0xb
 3773 00c1 0B       		.uleb128 0xb
 3774 00c2 3A       		.uleb128 0x3a
 3775 00c3 0B       		.uleb128 0xb
 3776 00c4 3B       		.uleb128 0x3b
 3777 00c5 0B       		.uleb128 0xb
 3778 00c6 01       		.uleb128 0x1
 3779 00c7 13       		.uleb128 0x13
ARM GAS  /tmp/ccUb86vt.s 			page 131


 3780 00c8 00       		.byte	0
 3781 00c9 00       		.byte	0
 3782 00ca 11       		.uleb128 0x11
 3783 00cb 0D       		.uleb128 0xd
 3784 00cc 00       		.byte	0
 3785 00cd 03       		.uleb128 0x3
 3786 00ce 0E       		.uleb128 0xe
 3787 00cf 3A       		.uleb128 0x3a
 3788 00d0 0B       		.uleb128 0xb
 3789 00d1 3B       		.uleb128 0x3b
 3790 00d2 05       		.uleb128 0x5
 3791 00d3 49       		.uleb128 0x49
 3792 00d4 13       		.uleb128 0x13
 3793 00d5 00       		.byte	0
 3794 00d6 00       		.byte	0
 3795 00d7 12       		.uleb128 0x12
 3796 00d8 26       		.uleb128 0x26
 3797 00d9 00       		.byte	0
 3798 00da 49       		.uleb128 0x49
 3799 00db 13       		.uleb128 0x13
 3800 00dc 00       		.byte	0
 3801 00dd 00       		.byte	0
 3802 00de 13       		.uleb128 0x13
 3803 00df 35       		.uleb128 0x35
 3804 00e0 00       		.byte	0
 3805 00e1 49       		.uleb128 0x49
 3806 00e2 13       		.uleb128 0x13
 3807 00e3 00       		.byte	0
 3808 00e4 00       		.byte	0
 3809 00e5 14       		.uleb128 0x14
 3810 00e6 01       		.uleb128 0x1
 3811 00e7 01       		.byte	0x1
 3812 00e8 49       		.uleb128 0x49
 3813 00e9 13       		.uleb128 0x13
 3814 00ea 01       		.uleb128 0x1
 3815 00eb 13       		.uleb128 0x13
 3816 00ec 00       		.byte	0
 3817 00ed 00       		.byte	0
 3818 00ee 15       		.uleb128 0x15
 3819 00ef 21       		.uleb128 0x21
 3820 00f0 00       		.byte	0
 3821 00f1 49       		.uleb128 0x49
 3822 00f2 13       		.uleb128 0x13
 3823 00f3 2F       		.uleb128 0x2f
 3824 00f4 0B       		.uleb128 0xb
 3825 00f5 00       		.byte	0
 3826 00f6 00       		.byte	0
 3827 00f7 16       		.uleb128 0x16
 3828 00f8 2E       		.uleb128 0x2e
 3829 00f9 00       		.byte	0
 3830 00fa 03       		.uleb128 0x3
 3831 00fb 0E       		.uleb128 0xe
 3832 00fc 3A       		.uleb128 0x3a
 3833 00fd 0B       		.uleb128 0xb
 3834 00fe 3B       		.uleb128 0x3b
 3835 00ff 05       		.uleb128 0x5
 3836 0100 27       		.uleb128 0x27
ARM GAS  /tmp/ccUb86vt.s 			page 132


 3837 0101 19       		.uleb128 0x19
 3838 0102 20       		.uleb128 0x20
 3839 0103 0B       		.uleb128 0xb
 3840 0104 00       		.byte	0
 3841 0105 00       		.byte	0
 3842 0106 17       		.uleb128 0x17
 3843 0107 2E       		.uleb128 0x2e
 3844 0108 01       		.byte	0x1
 3845 0109 03       		.uleb128 0x3
 3846 010a 0E       		.uleb128 0xe
 3847 010b 3A       		.uleb128 0x3a
 3848 010c 0B       		.uleb128 0xb
 3849 010d 3B       		.uleb128 0x3b
 3850 010e 05       		.uleb128 0x5
 3851 010f 27       		.uleb128 0x27
 3852 0110 19       		.uleb128 0x19
 3853 0111 11       		.uleb128 0x11
 3854 0112 01       		.uleb128 0x1
 3855 0113 12       		.uleb128 0x12
 3856 0114 06       		.uleb128 0x6
 3857 0115 40       		.uleb128 0x40
 3858 0116 18       		.uleb128 0x18
 3859 0117 9742     		.uleb128 0x2117
 3860 0119 19       		.uleb128 0x19
 3861 011a 01       		.uleb128 0x1
 3862 011b 13       		.uleb128 0x13
 3863 011c 00       		.byte	0
 3864 011d 00       		.byte	0
 3865 011e 18       		.uleb128 0x18
 3866 011f 1D       		.uleb128 0x1d
 3867 0120 00       		.byte	0
 3868 0121 31       		.uleb128 0x31
 3869 0122 13       		.uleb128 0x13
 3870 0123 11       		.uleb128 0x11
 3871 0124 01       		.uleb128 0x1
 3872 0125 12       		.uleb128 0x12
 3873 0126 06       		.uleb128 0x6
 3874 0127 58       		.uleb128 0x58
 3875 0128 0B       		.uleb128 0xb
 3876 0129 59       		.uleb128 0x59
 3877 012a 05       		.uleb128 0x5
 3878 012b 00       		.byte	0
 3879 012c 00       		.byte	0
 3880 012d 19       		.uleb128 0x19
 3881 012e 2E       		.uleb128 0x2e
 3882 012f 00       		.byte	0
 3883 0130 03       		.uleb128 0x3
 3884 0131 0E       		.uleb128 0xe
 3885 0132 3A       		.uleb128 0x3a
 3886 0133 0B       		.uleb128 0xb
 3887 0134 3B       		.uleb128 0x3b
 3888 0135 05       		.uleb128 0x5
 3889 0136 27       		.uleb128 0x27
 3890 0137 19       		.uleb128 0x19
 3891 0138 11       		.uleb128 0x11
 3892 0139 01       		.uleb128 0x1
 3893 013a 12       		.uleb128 0x12
ARM GAS  /tmp/ccUb86vt.s 			page 133


 3894 013b 06       		.uleb128 0x6
 3895 013c 40       		.uleb128 0x40
 3896 013d 18       		.uleb128 0x18
 3897 013e 9642     		.uleb128 0x2116
 3898 0140 19       		.uleb128 0x19
 3899 0141 00       		.byte	0
 3900 0142 00       		.byte	0
 3901 0143 1A       		.uleb128 0x1a
 3902 0144 05       		.uleb128 0x5
 3903 0145 00       		.byte	0
 3904 0146 03       		.uleb128 0x3
 3905 0147 08       		.uleb128 0x8
 3906 0148 3A       		.uleb128 0x3a
 3907 0149 0B       		.uleb128 0xb
 3908 014a 3B       		.uleb128 0x3b
 3909 014b 05       		.uleb128 0x5
 3910 014c 49       		.uleb128 0x49
 3911 014d 13       		.uleb128 0x13
 3912 014e 02       		.uleb128 0x2
 3913 014f 18       		.uleb128 0x18
 3914 0150 00       		.byte	0
 3915 0151 00       		.byte	0
 3916 0152 1B       		.uleb128 0x1b
 3917 0153 2E       		.uleb128 0x2e
 3918 0154 00       		.byte	0
 3919 0155 03       		.uleb128 0x3
 3920 0156 0E       		.uleb128 0xe
 3921 0157 3A       		.uleb128 0x3a
 3922 0158 0B       		.uleb128 0xb
 3923 0159 3B       		.uleb128 0x3b
 3924 015a 05       		.uleb128 0x5
 3925 015b 27       		.uleb128 0x27
 3926 015c 19       		.uleb128 0x19
 3927 015d 49       		.uleb128 0x49
 3928 015e 13       		.uleb128 0x13
 3929 015f 11       		.uleb128 0x11
 3930 0160 01       		.uleb128 0x1
 3931 0161 12       		.uleb128 0x12
 3932 0162 06       		.uleb128 0x6
 3933 0163 40       		.uleb128 0x40
 3934 0164 18       		.uleb128 0x18
 3935 0165 9742     		.uleb128 0x2117
 3936 0167 19       		.uleb128 0x19
 3937 0168 00       		.byte	0
 3938 0169 00       		.byte	0
 3939 016a 1C       		.uleb128 0x1c
 3940 016b 2E       		.uleb128 0x2e
 3941 016c 01       		.byte	0x1
 3942 016d 03       		.uleb128 0x3
 3943 016e 0E       		.uleb128 0xe
 3944 016f 3A       		.uleb128 0x3a
 3945 0170 0B       		.uleb128 0xb
 3946 0171 3B       		.uleb128 0x3b
 3947 0172 05       		.uleb128 0x5
 3948 0173 27       		.uleb128 0x27
 3949 0174 19       		.uleb128 0x19
 3950 0175 49       		.uleb128 0x49
ARM GAS  /tmp/ccUb86vt.s 			page 134


 3951 0176 13       		.uleb128 0x13
 3952 0177 11       		.uleb128 0x11
 3953 0178 01       		.uleb128 0x1
 3954 0179 12       		.uleb128 0x12
 3955 017a 06       		.uleb128 0x6
 3956 017b 40       		.uleb128 0x40
 3957 017c 18       		.uleb128 0x18
 3958 017d 9742     		.uleb128 0x2117
 3959 017f 19       		.uleb128 0x19
 3960 0180 01       		.uleb128 0x1
 3961 0181 13       		.uleb128 0x13
 3962 0182 00       		.byte	0
 3963 0183 00       		.byte	0
 3964 0184 1D       		.uleb128 0x1d
 3965 0185 2E       		.uleb128 0x2e
 3966 0186 01       		.byte	0x1
 3967 0187 03       		.uleb128 0x3
 3968 0188 0E       		.uleb128 0xe
 3969 0189 3A       		.uleb128 0x3a
 3970 018a 0B       		.uleb128 0xb
 3971 018b 3B       		.uleb128 0x3b
 3972 018c 0B       		.uleb128 0xb
 3973 018d 27       		.uleb128 0x27
 3974 018e 19       		.uleb128 0x19
 3975 018f 11       		.uleb128 0x11
 3976 0190 01       		.uleb128 0x1
 3977 0191 12       		.uleb128 0x12
 3978 0192 06       		.uleb128 0x6
 3979 0193 40       		.uleb128 0x40
 3980 0194 18       		.uleb128 0x18
 3981 0195 9742     		.uleb128 0x2117
 3982 0197 19       		.uleb128 0x19
 3983 0198 01       		.uleb128 0x1
 3984 0199 13       		.uleb128 0x13
 3985 019a 00       		.byte	0
 3986 019b 00       		.byte	0
 3987 019c 1E       		.uleb128 0x1e
 3988 019d 05       		.uleb128 0x5
 3989 019e 00       		.byte	0
 3990 019f 03       		.uleb128 0x3
 3991 01a0 08       		.uleb128 0x8
 3992 01a1 3A       		.uleb128 0x3a
 3993 01a2 0B       		.uleb128 0xb
 3994 01a3 3B       		.uleb128 0x3b
 3995 01a4 0B       		.uleb128 0xb
 3996 01a5 49       		.uleb128 0x49
 3997 01a6 13       		.uleb128 0x13
 3998 01a7 02       		.uleb128 0x2
 3999 01a8 18       		.uleb128 0x18
 4000 01a9 00       		.byte	0
 4001 01aa 00       		.byte	0
 4002 01ab 1F       		.uleb128 0x1f
 4003 01ac 2E       		.uleb128 0x2e
 4004 01ad 00       		.byte	0
 4005 01ae 3F       		.uleb128 0x3f
 4006 01af 19       		.uleb128 0x19
 4007 01b0 03       		.uleb128 0x3
ARM GAS  /tmp/ccUb86vt.s 			page 135


 4008 01b1 0E       		.uleb128 0xe
 4009 01b2 3A       		.uleb128 0x3a
 4010 01b3 0B       		.uleb128 0xb
 4011 01b4 3B       		.uleb128 0x3b
 4012 01b5 0B       		.uleb128 0xb
 4013 01b6 27       		.uleb128 0x27
 4014 01b7 19       		.uleb128 0x19
 4015 01b8 11       		.uleb128 0x11
 4016 01b9 01       		.uleb128 0x1
 4017 01ba 12       		.uleb128 0x12
 4018 01bb 06       		.uleb128 0x6
 4019 01bc 40       		.uleb128 0x40
 4020 01bd 18       		.uleb128 0x18
 4021 01be 9642     		.uleb128 0x2116
 4022 01c0 19       		.uleb128 0x19
 4023 01c1 00       		.byte	0
 4024 01c2 00       		.byte	0
 4025 01c3 20       		.uleb128 0x20
 4026 01c4 2E       		.uleb128 0x2e
 4027 01c5 01       		.byte	0x1
 4028 01c6 3F       		.uleb128 0x3f
 4029 01c7 19       		.uleb128 0x19
 4030 01c8 03       		.uleb128 0x3
 4031 01c9 0E       		.uleb128 0xe
 4032 01ca 3A       		.uleb128 0x3a
 4033 01cb 0B       		.uleb128 0xb
 4034 01cc 3B       		.uleb128 0x3b
 4035 01cd 0B       		.uleb128 0xb
 4036 01ce 27       		.uleb128 0x27
 4037 01cf 19       		.uleb128 0x19
 4038 01d0 11       		.uleb128 0x11
 4039 01d1 01       		.uleb128 0x1
 4040 01d2 12       		.uleb128 0x12
 4041 01d3 06       		.uleb128 0x6
 4042 01d4 40       		.uleb128 0x40
 4043 01d5 18       		.uleb128 0x18
 4044 01d6 9742     		.uleb128 0x2117
 4045 01d8 19       		.uleb128 0x19
 4046 01d9 01       		.uleb128 0x1
 4047 01da 13       		.uleb128 0x13
 4048 01db 00       		.byte	0
 4049 01dc 00       		.byte	0
 4050 01dd 21       		.uleb128 0x21
 4051 01de 34       		.uleb128 0x34
 4052 01df 00       		.byte	0
 4053 01e0 03       		.uleb128 0x3
 4054 01e1 08       		.uleb128 0x8
 4055 01e2 3A       		.uleb128 0x3a
 4056 01e3 0B       		.uleb128 0xb
 4057 01e4 3B       		.uleb128 0x3b
 4058 01e5 0B       		.uleb128 0xb
 4059 01e6 49       		.uleb128 0x49
 4060 01e7 13       		.uleb128 0x13
 4061 01e8 02       		.uleb128 0x2
 4062 01e9 18       		.uleb128 0x18
 4063 01ea 00       		.byte	0
 4064 01eb 00       		.byte	0
ARM GAS  /tmp/ccUb86vt.s 			page 136


 4065 01ec 22       		.uleb128 0x22
 4066 01ed 2E       		.uleb128 0x2e
 4067 01ee 01       		.byte	0x1
 4068 01ef 3F       		.uleb128 0x3f
 4069 01f0 19       		.uleb128 0x19
 4070 01f1 03       		.uleb128 0x3
 4071 01f2 0E       		.uleb128 0xe
 4072 01f3 3A       		.uleb128 0x3a
 4073 01f4 0B       		.uleb128 0xb
 4074 01f5 3B       		.uleb128 0x3b
 4075 01f6 0B       		.uleb128 0xb
 4076 01f7 27       		.uleb128 0x27
 4077 01f8 19       		.uleb128 0x19
 4078 01f9 49       		.uleb128 0x49
 4079 01fa 13       		.uleb128 0x13
 4080 01fb 11       		.uleb128 0x11
 4081 01fc 01       		.uleb128 0x1
 4082 01fd 12       		.uleb128 0x12
 4083 01fe 06       		.uleb128 0x6
 4084 01ff 40       		.uleb128 0x40
 4085 0200 18       		.uleb128 0x18
 4086 0201 9742     		.uleb128 0x2117
 4087 0203 19       		.uleb128 0x19
 4088 0204 01       		.uleb128 0x1
 4089 0205 13       		.uleb128 0x13
 4090 0206 00       		.byte	0
 4091 0207 00       		.byte	0
 4092 0208 23       		.uleb128 0x23
 4093 0209 34       		.uleb128 0x34
 4094 020a 00       		.byte	0
 4095 020b 03       		.uleb128 0x3
 4096 020c 0E       		.uleb128 0xe
 4097 020d 49       		.uleb128 0x49
 4098 020e 13       		.uleb128 0x13
 4099 020f 34       		.uleb128 0x34
 4100 0210 19       		.uleb128 0x19
 4101 0211 00       		.byte	0
 4102 0212 00       		.byte	0
 4103 0213 24       		.uleb128 0x24
 4104 0214 2E       		.uleb128 0x2e
 4105 0215 01       		.byte	0x1
 4106 0216 3F       		.uleb128 0x3f
 4107 0217 19       		.uleb128 0x19
 4108 0218 03       		.uleb128 0x3
 4109 0219 0E       		.uleb128 0xe
 4110 021a 3A       		.uleb128 0x3a
 4111 021b 0B       		.uleb128 0xb
 4112 021c 3B       		.uleb128 0x3b
 4113 021d 0B       		.uleb128 0xb
 4114 021e 27       		.uleb128 0x27
 4115 021f 19       		.uleb128 0x19
 4116 0220 11       		.uleb128 0x11
 4117 0221 01       		.uleb128 0x1
 4118 0222 12       		.uleb128 0x12
 4119 0223 06       		.uleb128 0x6
 4120 0224 40       		.uleb128 0x40
 4121 0225 18       		.uleb128 0x18
ARM GAS  /tmp/ccUb86vt.s 			page 137


 4122 0226 9642     		.uleb128 0x2116
 4123 0228 19       		.uleb128 0x19
 4124 0229 01       		.uleb128 0x1
 4125 022a 13       		.uleb128 0x13
 4126 022b 00       		.byte	0
 4127 022c 00       		.byte	0
 4128 022d 25       		.uleb128 0x25
 4129 022e 05       		.uleb128 0x5
 4130 022f 00       		.byte	0
 4131 0230 03       		.uleb128 0x3
 4132 0231 0E       		.uleb128 0xe
 4133 0232 3A       		.uleb128 0x3a
 4134 0233 0B       		.uleb128 0xb
 4135 0234 3B       		.uleb128 0x3b
 4136 0235 0B       		.uleb128 0xb
 4137 0236 49       		.uleb128 0x49
 4138 0237 13       		.uleb128 0x13
 4139 0238 02       		.uleb128 0x2
 4140 0239 18       		.uleb128 0x18
 4141 023a 00       		.byte	0
 4142 023b 00       		.byte	0
 4143 023c 26       		.uleb128 0x26
 4144 023d 2E       		.uleb128 0x2e
 4145 023e 01       		.byte	0x1
 4146 023f 03       		.uleb128 0x3
 4147 0240 0E       		.uleb128 0xe
 4148 0241 3A       		.uleb128 0x3a
 4149 0242 0B       		.uleb128 0xb
 4150 0243 3B       		.uleb128 0x3b
 4151 0244 05       		.uleb128 0x5
 4152 0245 27       		.uleb128 0x27
 4153 0246 19       		.uleb128 0x19
 4154 0247 11       		.uleb128 0x11
 4155 0248 01       		.uleb128 0x1
 4156 0249 12       		.uleb128 0x12
 4157 024a 06       		.uleb128 0x6
 4158 024b 40       		.uleb128 0x40
 4159 024c 18       		.uleb128 0x18
 4160 024d 9642     		.uleb128 0x2116
 4161 024f 19       		.uleb128 0x19
 4162 0250 01       		.uleb128 0x1
 4163 0251 13       		.uleb128 0x13
 4164 0252 00       		.byte	0
 4165 0253 00       		.byte	0
 4166 0254 27       		.uleb128 0x27
 4167 0255 34       		.uleb128 0x34
 4168 0256 00       		.byte	0
 4169 0257 03       		.uleb128 0x3
 4170 0258 08       		.uleb128 0x8
 4171 0259 3A       		.uleb128 0x3a
 4172 025a 0B       		.uleb128 0xb
 4173 025b 3B       		.uleb128 0x3b
 4174 025c 05       		.uleb128 0x5
 4175 025d 49       		.uleb128 0x49
 4176 025e 13       		.uleb128 0x13
 4177 025f 02       		.uleb128 0x2
 4178 0260 18       		.uleb128 0x18
ARM GAS  /tmp/ccUb86vt.s 			page 138


 4179 0261 00       		.byte	0
 4180 0262 00       		.byte	0
 4181 0263 28       		.uleb128 0x28
 4182 0264 2E       		.uleb128 0x2e
 4183 0265 01       		.byte	0x1
 4184 0266 3F       		.uleb128 0x3f
 4185 0267 19       		.uleb128 0x19
 4186 0268 03       		.uleb128 0x3
 4187 0269 0E       		.uleb128 0xe
 4188 026a 3A       		.uleb128 0x3a
 4189 026b 0B       		.uleb128 0xb
 4190 026c 3B       		.uleb128 0x3b
 4191 026d 05       		.uleb128 0x5
 4192 026e 27       		.uleb128 0x27
 4193 026f 19       		.uleb128 0x19
 4194 0270 49       		.uleb128 0x49
 4195 0271 13       		.uleb128 0x13
 4196 0272 11       		.uleb128 0x11
 4197 0273 01       		.uleb128 0x1
 4198 0274 12       		.uleb128 0x12
 4199 0275 06       		.uleb128 0x6
 4200 0276 40       		.uleb128 0x40
 4201 0277 18       		.uleb128 0x18
 4202 0278 9642     		.uleb128 0x2116
 4203 027a 19       		.uleb128 0x19
 4204 027b 01       		.uleb128 0x1
 4205 027c 13       		.uleb128 0x13
 4206 027d 00       		.byte	0
 4207 027e 00       		.byte	0
 4208 027f 29       		.uleb128 0x29
 4209 0280 05       		.uleb128 0x5
 4210 0281 00       		.byte	0
 4211 0282 03       		.uleb128 0x3
 4212 0283 0E       		.uleb128 0xe
 4213 0284 3A       		.uleb128 0x3a
 4214 0285 0B       		.uleb128 0xb
 4215 0286 3B       		.uleb128 0x3b
 4216 0287 05       		.uleb128 0x5
 4217 0288 49       		.uleb128 0x49
 4218 0289 13       		.uleb128 0x13
 4219 028a 02       		.uleb128 0x2
 4220 028b 18       		.uleb128 0x18
 4221 028c 00       		.byte	0
 4222 028d 00       		.byte	0
 4223 028e 2A       		.uleb128 0x2a
 4224 028f 0B       		.uleb128 0xb
 4225 0290 01       		.byte	0x1
 4226 0291 11       		.uleb128 0x11
 4227 0292 01       		.uleb128 0x1
 4228 0293 12       		.uleb128 0x12
 4229 0294 06       		.uleb128 0x6
 4230 0295 00       		.byte	0
 4231 0296 00       		.byte	0
 4232 0297 2B       		.uleb128 0x2b
 4233 0298 2E       		.uleb128 0x2e
 4234 0299 01       		.byte	0x1
 4235 029a 3F       		.uleb128 0x3f
ARM GAS  /tmp/ccUb86vt.s 			page 139


 4236 029b 19       		.uleb128 0x19
 4237 029c 03       		.uleb128 0x3
 4238 029d 0E       		.uleb128 0xe
 4239 029e 3A       		.uleb128 0x3a
 4240 029f 0B       		.uleb128 0xb
 4241 02a0 3B       		.uleb128 0x3b
 4242 02a1 05       		.uleb128 0x5
 4243 02a2 27       		.uleb128 0x27
 4244 02a3 19       		.uleb128 0x19
 4245 02a4 11       		.uleb128 0x11
 4246 02a5 01       		.uleb128 0x1
 4247 02a6 12       		.uleb128 0x12
 4248 02a7 06       		.uleb128 0x6
 4249 02a8 40       		.uleb128 0x40
 4250 02a9 18       		.uleb128 0x18
 4251 02aa 9642     		.uleb128 0x2116
 4252 02ac 19       		.uleb128 0x19
 4253 02ad 01       		.uleb128 0x1
 4254 02ae 13       		.uleb128 0x13
 4255 02af 00       		.byte	0
 4256 02b0 00       		.byte	0
 4257 02b1 2C       		.uleb128 0x2c
 4258 02b2 2E       		.uleb128 0x2e
 4259 02b3 00       		.byte	0
 4260 02b4 3F       		.uleb128 0x3f
 4261 02b5 19       		.uleb128 0x19
 4262 02b6 03       		.uleb128 0x3
 4263 02b7 0E       		.uleb128 0xe
 4264 02b8 3A       		.uleb128 0x3a
 4265 02b9 0B       		.uleb128 0xb
 4266 02ba 3B       		.uleb128 0x3b
 4267 02bb 05       		.uleb128 0x5
 4268 02bc 27       		.uleb128 0x27
 4269 02bd 19       		.uleb128 0x19
 4270 02be 11       		.uleb128 0x11
 4271 02bf 01       		.uleb128 0x1
 4272 02c0 12       		.uleb128 0x12
 4273 02c1 06       		.uleb128 0x6
 4274 02c2 40       		.uleb128 0x40
 4275 02c3 18       		.uleb128 0x18
 4276 02c4 9642     		.uleb128 0x2116
 4277 02c6 19       		.uleb128 0x19
 4278 02c7 00       		.byte	0
 4279 02c8 00       		.byte	0
 4280 02c9 2D       		.uleb128 0x2d
 4281 02ca 2E       		.uleb128 0x2e
 4282 02cb 01       		.byte	0x1
 4283 02cc 3F       		.uleb128 0x3f
 4284 02cd 19       		.uleb128 0x19
 4285 02ce 03       		.uleb128 0x3
 4286 02cf 0E       		.uleb128 0xe
 4287 02d0 3A       		.uleb128 0x3a
 4288 02d1 0B       		.uleb128 0xb
 4289 02d2 3B       		.uleb128 0x3b
 4290 02d3 05       		.uleb128 0x5
 4291 02d4 27       		.uleb128 0x27
 4292 02d5 19       		.uleb128 0x19
ARM GAS  /tmp/ccUb86vt.s 			page 140


 4293 02d6 49       		.uleb128 0x49
 4294 02d7 13       		.uleb128 0x13
 4295 02d8 11       		.uleb128 0x11
 4296 02d9 01       		.uleb128 0x1
 4297 02da 12       		.uleb128 0x12
 4298 02db 06       		.uleb128 0x6
 4299 02dc 40       		.uleb128 0x40
 4300 02dd 18       		.uleb128 0x18
 4301 02de 9742     		.uleb128 0x2117
 4302 02e0 19       		.uleb128 0x19
 4303 02e1 01       		.uleb128 0x1
 4304 02e2 13       		.uleb128 0x13
 4305 02e3 00       		.byte	0
 4306 02e4 00       		.byte	0
 4307 02e5 2E       		.uleb128 0x2e
 4308 02e6 34       		.uleb128 0x34
 4309 02e7 00       		.byte	0
 4310 02e8 03       		.uleb128 0x3
 4311 02e9 08       		.uleb128 0x8
 4312 02ea 3A       		.uleb128 0x3a
 4313 02eb 0B       		.uleb128 0xb
 4314 02ec 3B       		.uleb128 0x3b
 4315 02ed 0B       		.uleb128 0xb
 4316 02ee 49       		.uleb128 0x49
 4317 02ef 13       		.uleb128 0x13
 4318 02f0 3F       		.uleb128 0x3f
 4319 02f1 19       		.uleb128 0x19
 4320 02f2 02       		.uleb128 0x2
 4321 02f3 18       		.uleb128 0x18
 4322 02f4 00       		.byte	0
 4323 02f5 00       		.byte	0
 4324 02f6 00       		.byte	0
 4325              		.section	.debug_aranges,"",%progbits
 4326 0000 F4000000 		.4byte	0xf4
 4327 0004 0200     		.2byte	0x2
 4328 0006 00000000 		.4byte	.Ldebug_info0
 4329 000a 04       		.byte	0x4
 4330 000b 00       		.byte	0
 4331 000c 0000     		.2byte	0
 4332 000e 0000     		.2byte	0
 4333 0010 00000000 		.4byte	.LFB38
 4334 0014 04000000 		.4byte	.LFE38-.LFB38
 4335 0018 00000000 		.4byte	.LFB39
 4336 001c 04000000 		.4byte	.LFE39-.LFB39
 4337 0020 00000000 		.4byte	.LFB40
 4338 0024 08000000 		.4byte	.LFE40-.LFB40
 4339 0028 00000000 		.4byte	.LFB41
 4340 002c 08000000 		.4byte	.LFE41-.LFB41
 4341 0030 00000000 		.4byte	.LFB60
 4342 0034 14000000 		.4byte	.LFE60-.LFB60
 4343 0038 00000000 		.4byte	.LFB63
 4344 003c 1C000000 		.4byte	.LFE63-.LFB63
 4345 0040 00000000 		.4byte	.LFB72
 4346 0044 08000000 		.4byte	.LFE72-.LFB72
 4347 0048 00000000 		.4byte	.LFB73
 4348 004c 08000000 		.4byte	.LFE73-.LFB73
 4349 0050 00000000 		.4byte	.LFB85
ARM GAS  /tmp/ccUb86vt.s 			page 141


 4350 0054 14000000 		.4byte	.LFE85-.LFB85
 4351 0058 00000000 		.4byte	.LFB105
 4352 005c 12000000 		.4byte	.LFE105-.LFB105
 4353 0060 00000000 		.4byte	.LFB119
 4354 0064 24000000 		.4byte	.LFE119-.LFB119
 4355 0068 00000000 		.4byte	.LFB120
 4356 006c 44000000 		.4byte	.LFE120-.LFB120
 4357 0070 00000000 		.4byte	.LFB121
 4358 0074 26000000 		.4byte	.LFE121-.LFB121
 4359 0078 00000000 		.4byte	.LFB122
 4360 007c 22000000 		.4byte	.LFE122-.LFB122
 4361 0080 00000000 		.4byte	.LFB123
 4362 0084 22000000 		.4byte	.LFE123-.LFB123
 4363 0088 00000000 		.4byte	.LFB124
 4364 008c 20000000 		.4byte	.LFE124-.LFB124
 4365 0090 00000000 		.4byte	.LFB125
 4366 0094 18000000 		.4byte	.LFE125-.LFB125
 4367 0098 00000000 		.4byte	.LFB126
 4368 009c 1A000000 		.4byte	.LFE126-.LFB126
 4369 00a0 00000000 		.4byte	.LFB127
 4370 00a4 48000000 		.4byte	.LFE127-.LFB127
 4371 00a8 00000000 		.4byte	.LFB128
 4372 00ac 48000000 		.4byte	.LFE128-.LFB128
 4373 00b0 00000000 		.4byte	.LFB129
 4374 00b4 64000000 		.4byte	.LFE129-.LFB129
 4375 00b8 00000000 		.4byte	.LFB130
 4376 00bc 78000000 		.4byte	.LFE130-.LFB130
 4377 00c0 00000000 		.4byte	.LFB131
 4378 00c4 54000000 		.4byte	.LFE131-.LFB131
 4379 00c8 00000000 		.4byte	.LFB132
 4380 00cc 12000000 		.4byte	.LFE132-.LFB132
 4381 00d0 00000000 		.4byte	.LFB133
 4382 00d4 28000000 		.4byte	.LFE133-.LFB133
 4383 00d8 00000000 		.4byte	.LFB134
 4384 00dc 40000000 		.4byte	.LFE134-.LFB134
 4385 00e0 00000000 		.4byte	.LFB135
 4386 00e4 70000000 		.4byte	.LFE135-.LFB135
 4387 00e8 00000000 		.4byte	.LFB136
 4388 00ec 08000000 		.4byte	.LFE136-.LFB136
 4389 00f0 00000000 		.4byte	0
 4390 00f4 00000000 		.4byte	0
 4391              		.section	.debug_ranges,"",%progbits
 4392              	.Ldebug_ranges0:
 4393 0000 00000000 		.4byte	.LFB38
 4394 0004 04000000 		.4byte	.LFE38
 4395 0008 00000000 		.4byte	.LFB39
 4396 000c 04000000 		.4byte	.LFE39
 4397 0010 00000000 		.4byte	.LFB40
 4398 0014 08000000 		.4byte	.LFE40
 4399 0018 00000000 		.4byte	.LFB41
 4400 001c 08000000 		.4byte	.LFE41
 4401 0020 00000000 		.4byte	.LFB60
 4402 0024 14000000 		.4byte	.LFE60
 4403 0028 00000000 		.4byte	.LFB63
 4404 002c 1C000000 		.4byte	.LFE63
 4405 0030 00000000 		.4byte	.LFB72
 4406 0034 08000000 		.4byte	.LFE72
ARM GAS  /tmp/ccUb86vt.s 			page 142


 4407 0038 00000000 		.4byte	.LFB73
 4408 003c 08000000 		.4byte	.LFE73
 4409 0040 00000000 		.4byte	.LFB85
 4410 0044 14000000 		.4byte	.LFE85
 4411 0048 00000000 		.4byte	.LFB105
 4412 004c 12000000 		.4byte	.LFE105
 4413 0050 00000000 		.4byte	.LFB119
 4414 0054 24000000 		.4byte	.LFE119
 4415 0058 00000000 		.4byte	.LFB120
 4416 005c 44000000 		.4byte	.LFE120
 4417 0060 00000000 		.4byte	.LFB121
 4418 0064 26000000 		.4byte	.LFE121
 4419 0068 00000000 		.4byte	.LFB122
 4420 006c 22000000 		.4byte	.LFE122
 4421 0070 00000000 		.4byte	.LFB123
 4422 0074 22000000 		.4byte	.LFE123
 4423 0078 00000000 		.4byte	.LFB124
 4424 007c 20000000 		.4byte	.LFE124
 4425 0080 00000000 		.4byte	.LFB125
 4426 0084 18000000 		.4byte	.LFE125
 4427 0088 00000000 		.4byte	.LFB126
 4428 008c 1A000000 		.4byte	.LFE126
 4429 0090 00000000 		.4byte	.LFB127
 4430 0094 48000000 		.4byte	.LFE127
 4431 0098 00000000 		.4byte	.LFB128
 4432 009c 48000000 		.4byte	.LFE128
 4433 00a0 00000000 		.4byte	.LFB129
 4434 00a4 64000000 		.4byte	.LFE129
 4435 00a8 00000000 		.4byte	.LFB130
 4436 00ac 78000000 		.4byte	.LFE130
 4437 00b0 00000000 		.4byte	.LFB131
 4438 00b4 54000000 		.4byte	.LFE131
 4439 00b8 00000000 		.4byte	.LFB132
 4440 00bc 12000000 		.4byte	.LFE132
 4441 00c0 00000000 		.4byte	.LFB133
 4442 00c4 28000000 		.4byte	.LFE133
 4443 00c8 00000000 		.4byte	.LFB134
 4444 00cc 40000000 		.4byte	.LFE134
 4445 00d0 00000000 		.4byte	.LFB135
 4446 00d4 70000000 		.4byte	.LFE135
 4447 00d8 00000000 		.4byte	.LFB136
 4448 00dc 08000000 		.4byte	.LFE136
 4449 00e0 00000000 		.4byte	0
 4450 00e4 00000000 		.4byte	0
 4451              		.section	.debug_line,"",%progbits
 4452              	.Ldebug_line0:
 4453 0000 8B040000 		.section	.debug_str,"MS",%progbits,1
 4453      0200DE01 
 4453      00000201 
 4453      FB0E0D00 
 4453      01010101 
 4454              	.LASF42:
 4455 0000 63685F74 		.ascii	"ch_threads_list\000"
 4455      68726561 
 4455      64735F6C 
 4455      69737400 
 4456              	.LASF43:
ARM GAS  /tmp/ccUb86vt.s 			page 143


 4457 0010 74687265 		.ascii	"threads_queue_t\000"
 4457      6164735F 
 4457      71756575 
 4457      655F7400 
 4458              	.LASF36:
 4459 0020 705F7761 		.ascii	"p_waiting\000"
 4459      6974696E 
 4459      6700
 4460              	.LASF126:
 4461 002a 63685363 		.ascii	"chSchDoReschedule\000"
 4461      68446F52 
 4461      65736368 
 4461      6564756C 
 4461      6500
 4462              	.LASF83:
 4463 003c 77746D74 		.ascii	"wtmtxp\000"
 4463      787000
 4464              	.LASF91:
 4465 0043 63686172 		.ascii	"char\000"
 4465      00
 4466              	.LASF74:
 4467 0048 72656761 		.ascii	"regarm_t\000"
 4467      726D5F74 
 4467      00
 4468              	.LASF29:
 4469 0051 705F7072 		.ascii	"p_prio\000"
 4469      696F00
 4470              	.LASF25:
 4471 0058 73797374 		.ascii	"systime_t\000"
 4471      696D655F 
 4471      7400
 4472              	.LASF89:
 4473 0062 6D5F6F77 		.ascii	"m_owner\000"
 4473      6E657200 
 4474              	.LASF85:
 4475 006a 735F7175 		.ascii	"s_queue\000"
 4475      65756500 
 4476              	.LASF0:
 4477 0072 756E7369 		.ascii	"unsigned int\000"
 4477      676E6564 
 4477      20696E74 
 4477      00
 4478              	.LASF40:
 4479 007f 74687265 		.ascii	"threads_list_t\000"
 4479      6164735F 
 4479      6C697374 
 4479      5F7400
 4480              	.LASF8:
 4481 008e 5F5F696E 		.ascii	"__int32_t\000"
 4481      7433325F 
 4481      7400
 4482              	.LASF80:
 4483 0098 77746F62 		.ascii	"wtobjp\000"
 4483      6A7000
 4484              	.LASF96:
 4485 009f 706F7274 		.ascii	"port_lock\000"
 4485      5F6C6F63 
ARM GAS  /tmp/ccUb86vt.s 			page 144


 4485      6B00
 4486              	.LASF70:
 4487 00a9 76746C69 		.ascii	"vtlist\000"
 4487      737400
 4488              	.LASF98:
 4489 00b0 706F7274 		.ascii	"port_lock_from_isr\000"
 4489      5F6C6F63 
 4489      6B5F6672 
 4489      6F6D5F69 
 4489      737200
 4490              	.LASF46:
 4491 00c3 63685F72 		.ascii	"ch_ready_list\000"
 4491      65616479 
 4491      5F6C6973 
 4491      7400
 4492              	.LASF72:
 4493 00d1 69646C65 		.ascii	"idle_thread_wa\000"
 4493      5F746872 
 4493      6561645F 
 4493      776100
 4494              	.LASF44:
 4495 00e0 63685F74 		.ascii	"ch_threads_queue\000"
 4495      68726561 
 4495      64735F71 
 4495      75657565 
 4495      00
 4496              	.LASF102:
 4497 00f1 63685379 		.ascii	"chSysLockFromISR\000"
 4497      734C6F63 
 4497      6B46726F 
 4497      6D495352 
 4497      00
 4498              	.LASF128:
 4499 0102 2F686F6D 		.ascii	"/home/efe/ChibiOS/os/rt/src/chschd.c\000"
 4499      652F6566 
 4499      652F4368 
 4499      6962694F 
 4499      532F6F73 
 4500              	.LASF104:
 4501 0127 63685365 		.ascii	"chSemFastSignalI\000"
 4501      6D466173 
 4501      74536967 
 4501      6E616C49 
 4501      00
 4502              	.LASF53:
 4503 0138 76746675 		.ascii	"vtfunc_t\000"
 4503      6E635F74 
 4503      00
 4504              	.LASF112:
 4505 0141 63685363 		.ascii	"chSchReadyI\000"
 4505      68526561 
 4505      64794900 
 4506              	.LASF86:
 4507 014d 735F636E 		.ascii	"s_cnt\000"
 4507      7400
 4508              	.LASF65:
 4509 0153 63685F73 		.ascii	"ch_system_debug\000"
ARM GAS  /tmp/ccUb86vt.s 			page 145


 4509      79737465 
 4509      6D5F6465 
 4509      62756700 
 4510              	.LASF121:
 4511 0163 5F736368 		.ascii	"_scheduler_init\000"
 4511      6564756C 
 4511      65725F69 
 4511      6E697400 
 4512              	.LASF18:
 4513 0173 75696E74 		.ascii	"uint32_t\000"
 4513      33325F74 
 4513      00
 4514              	.LASF48:
 4515 017c 725F7072 		.ascii	"r_prio\000"
 4515      696F00
 4516              	.LASF60:
 4517 0183 76745F70 		.ascii	"vt_par\000"
 4517      617200
 4518              	.LASF84:
 4519 018a 63685F73 		.ascii	"ch_semaphore\000"
 4519      656D6170 
 4519      686F7265 
 4519      00
 4520              	.LASF22:
 4521 0197 74707269 		.ascii	"tprio_t\000"
 4521      6F5F7400 
 4522              	.LASF55:
 4523 019f 63685F76 		.ascii	"ch_virtual_timer\000"
 4523      69727475 
 4523      616C5F74 
 4523      696D6572 
 4523      00
 4524              	.LASF14:
 4525 01b0 6C6F6E67 		.ascii	"long long unsigned int\000"
 4525      206C6F6E 
 4525      6720756E 
 4525      7369676E 
 4525      65642069 
 4526              	.LASF123:
 4527 01c7 63685363 		.ascii	"chSchIsPreemptionRequired\000"
 4527      68497350 
 4527      7265656D 
 4527      7074696F 
 4527      6E526571 
 4528              	.LASF6:
 4529 01e1 5F5F7569 		.ascii	"__uint16_t\000"
 4529      6E743136 
 4529      5F7400
 4530              	.LASF24:
 4531 01ec 636E745F 		.ascii	"cnt_t\000"
 4531      7400
 4532              	.LASF130:
 4533 01f2 63685654 		.ascii	"chVTIsArmedI\000"
 4533      49734172 
 4533      6D656449 
 4533      00
 4534              	.LASF117:
ARM GAS  /tmp/ccUb86vt.s 			page 146


 4535 01ff 74696D65 		.ascii	"time\000"
 4535      00
 4536              	.LASF92:
 4537 0204 73656D61 		.ascii	"semaphore_t\000"
 4537      70686F72 
 4537      655F7400 
 4538              	.LASF31:
 4539 0210 705F6E65 		.ascii	"p_newer\000"
 4539      77657200 
 4540              	.LASF62:
 4541 0218 63685F76 		.ascii	"ch_virtual_timers_list\000"
 4541      69727475 
 4541      616C5F74 
 4541      696D6572 
 4541      735F6C69 
 4542              	.LASF26:
 4543 022f 74687265 		.ascii	"thread_t\000"
 4543      61645F74 
 4543      00
 4544              	.LASF103:
 4545 0238 63685379 		.ascii	"chSysUnlockFromISR\000"
 4545      73556E6C 
 4545      6F636B46 
 4545      726F6D49 
 4545      535200
 4546              	.LASF2:
 4547 024b 73697A65 		.ascii	"size_t\000"
 4547      5F7400
 4548              	.LASF78:
 4549 0252 7264796D 		.ascii	"rdymsg\000"
 4549      736700
 4550              	.LASF94:
 4551 0259 5F5F6469 		.ascii	"__disable_irq\000"
 4551      7361626C 
 4551      655F6972 
 4551      7100
 4552              	.LASF101:
 4553 0267 5F426F6F 		.ascii	"_Bool\000"
 4553      6C00
 4554              	.LASF115:
 4555 026d 77616B65 		.ascii	"wakeup\000"
 4555      757000
 4556              	.LASF124:
 4557 0274 63685363 		.ascii	"chSchDoRescheduleBehind\000"
 4557      68446F52 
 4557      65736368 
 4557      6564756C 
 4557      65426568 
 4558              	.LASF87:
 4559 028c 63685F6D 		.ascii	"ch_mutex\000"
 4559      75746578 
 4559      00
 4560              	.LASF13:
 4561 0295 5F5F7569 		.ascii	"__uint64_t\000"
 4561      6E743634 
 4561      5F7400
 4562              	.LASF110:
ARM GAS  /tmp/ccUb86vt.s 			page 147


 4563 02a0 6C697374 		.ascii	"list_insert\000"
 4563      5F696E73 
 4563      65727400 
 4564              	.LASF122:
 4565 02ac 63685363 		.ascii	"chSchRescheduleS\000"
 4565      68526573 
 4565      63686564 
 4565      756C6553 
 4565      00
 4566              	.LASF33:
 4567 02bd 705F6E61 		.ascii	"p_name\000"
 4567      6D6500
 4568              	.LASF105:
 4569 02c4 71756575 		.ascii	"queue_prio_insert\000"
 4569      655F7072 
 4569      696F5F69 
 4569      6E736572 
 4569      7400
 4570              	.LASF58:
 4571 02d6 76745F64 		.ascii	"vt_delta\000"
 4571      656C7461 
 4571      00
 4572              	.LASF39:
 4573 02df 74687265 		.ascii	"thread_reference_t\000"
 4573      61645F72 
 4573      65666572 
 4573      656E6365 
 4573      5F7400
 4574              	.LASF63:
 4575 02f2 76745F6C 		.ascii	"vt_lasttime\000"
 4575      61737474 
 4575      696D6500 
 4576              	.LASF21:
 4577 02fe 74737461 		.ascii	"tstate_t\000"
 4577      74655F74 
 4577      00
 4578              	.LASF32:
 4579 0307 705F6F6C 		.ascii	"p_older\000"
 4579      64657200 
 4580              	.LASF34:
 4581 030f 705F7374 		.ascii	"p_state\000"
 4581      61746500 
 4582              	.LASF15:
 4583 0317 75696E74 		.ascii	"uint8_t\000"
 4583      385F7400 
 4584              	.LASF37:
 4585 031f 705F6D74 		.ascii	"p_mtxlist\000"
 4585      786C6973 
 4585      7400
 4586              	.LASF41:
 4587 0329 63685F74 		.ascii	"ch_thread\000"
 4587      68726561 
 4587      6400
 4588              	.LASF64:
 4589 0333 73797374 		.ascii	"system_debug_t\000"
 4589      656D5F64 
 4589      65627567 
ARM GAS  /tmp/ccUb86vt.s 			page 148


 4589      5F7400
 4590              	.LASF108:
 4591 0342 71756575 		.ascii	"queue_lifo_remove\000"
 4591      655F6C69 
 4591      666F5F72 
 4591      656D6F76 
 4591      6500
 4592              	.LASF12:
 4593 0354 6C6F6E67 		.ascii	"long long int\000"
 4593      206C6F6E 
 4593      6720696E 
 4593      7400
 4594              	.LASF47:
 4595 0362 725F7175 		.ascii	"r_queue\000"
 4595      65756500 
 4596              	.LASF50:
 4597 036a 725F6E65 		.ascii	"r_newer\000"
 4597      77657200 
 4598              	.LASF23:
 4599 0372 6D73675F 		.ascii	"msg_t\000"
 4599      7400
 4600              	.LASF76:
 4601 0378 636F6E74 		.ascii	"context\000"
 4601      65787400 
 4602              	.LASF111:
 4603 0380 6C697374 		.ascii	"list_remove\000"
 4603      5F72656D 
 4603      6F766500 
 4604              	.LASF35:
 4605 038c 705F666C 		.ascii	"p_flags\000"
 4605      61677300 
 4606              	.LASF54:
 4607 0394 76697274 		.ascii	"virtual_timer_t\000"
 4607      75616C5F 
 4607      74696D65 
 4607      725F7400 
 4608              	.LASF107:
 4609 03a4 71756575 		.ascii	"queue_fifo_remove\000"
 4609      655F6669 
 4609      666F5F72 
 4609      656D6F76 
 4609      6500
 4610              	.LASF127:
 4611 03b6 474E5520 		.ascii	"GNU C 4.8.4 20141219 (release) -mcpu=cortex-m0 -mno"
 4611      4320342E 
 4611      382E3420 
 4611      32303134 
 4611      31323139 
 4612 03e9 2D746875 		.ascii	"-thumb-interwork -mthumb -ggdb -O0 -fomit-frame-poi"
 4612      6D622D69 
 4612      6E746572 
 4612      776F726B 
 4612      202D6D74 
 4613 041c 6E746572 		.ascii	"nter -falign-functions=16 -ffunction-sections -fdat"
 4613      202D6661 
 4613      6C69676E 
 4613      2D66756E 
ARM GAS  /tmp/ccUb86vt.s 			page 149


 4613      6374696F 
 4614 044f 612D7365 		.ascii	"a-sections -fno-common -flto\000"
 4614      6374696F 
 4614      6E73202D 
 4614      666E6F2D 
 4614      636F6D6D 
 4615              	.LASF51:
 4616 046c 725F6F6C 		.ascii	"r_older\000"
 4616      64657200 
 4617              	.LASF66:
 4618 0474 70616E69 		.ascii	"panic_msg\000"
 4618      635F6D73 
 4618      6700
 4619              	.LASF20:
 4620 047e 746D6F64 		.ascii	"tmode_t\000"
 4620      655F7400 
 4621              	.LASF71:
 4622 0486 6D61696E 		.ascii	"mainthread\000"
 4622      74687265 
 4622      616400
 4623              	.LASF129:
 4624 0491 63685363 		.ascii	"chSchIsRescRequiredI\000"
 4624      68497352 
 4624      65736352 
 4624      65717569 
 4624      72656449 
 4625              	.LASF16:
 4626 04a6 75696E74 		.ascii	"uint16_t\000"
 4626      31365F74 
 4626      00
 4627              	.LASF38:
 4628 04af 705F7265 		.ascii	"p_realprio\000"
 4628      616C7072 
 4628      696F00
 4629              	.LASF5:
 4630 04ba 73686F72 		.ascii	"short int\000"
 4630      7420696E 
 4630      7400
 4631              	.LASF52:
 4632 04c4 725F6375 		.ascii	"r_current\000"
 4632      7272656E 
 4632      7400
 4633              	.LASF88:
 4634 04ce 6D5F7175 		.ascii	"m_queue\000"
 4634      65756500 
 4635              	.LASF9:
 4636 04d6 6C6F6E67 		.ascii	"long int\000"
 4636      20696E74 
 4636      00
 4637              	.LASF77:
 4638 04df 706F7274 		.ascii	"port_intctx\000"
 4638      5F696E74 
 4638      63747800 
 4639              	.LASF95:
 4640 04eb 5F5F656E 		.ascii	"__enable_irq\000"
 4640      61626C65 
 4640      5F697271 
ARM GAS  /tmp/ccUb86vt.s 			page 150


 4640      00
 4641              	.LASF68:
 4642 04f8 63685F73 		.ascii	"ch_system\000"
 4642      79737465 
 4642      6D00
 4643              	.LASF106:
 4644 0502 71756575 		.ascii	"queue_insert\000"
 4644      655F696E 
 4644      73657274 
 4644      00
 4645              	.LASF27:
 4646 050f 705F6E65 		.ascii	"p_next\000"
 4646      787400
 4647              	.LASF19:
 4648 0516 75696E74 		.ascii	"uint64_t\000"
 4648      36345F74 
 4648      00
 4649              	.LASF30:
 4650 051f 705F6374 		.ascii	"p_ctx\000"
 4650      7800
 4651              	.LASF69:
 4652 0525 726C6973 		.ascii	"rlist\000"
 4652      7400
 4653              	.LASF3:
 4654 052b 5F5F7569 		.ascii	"__uint8_t\000"
 4654      6E74385F 
 4654      7400
 4655              	.LASF109:
 4656 0535 71756575 		.ascii	"queue_dequeue\000"
 4656      655F6465 
 4656      71756575 
 4656      6500
 4657              	.LASF119:
 4658 0543 5F5F6675 		.ascii	"__func__.5303\000"
 4658      6E635F5F 
 4658      2E353330 
 4658      3300
 4659              	.LASF113:
 4660 0551 63685363 		.ascii	"chSchGoSleepS\000"
 4660      68476F53 
 4660      6C656570 
 4660      5300
 4661              	.LASF28:
 4662 055f 705F7072 		.ascii	"p_prev\000"
 4662      657600
 4663              	.LASF73:
 4664 0566 73697A65 		.ascii	"sizetype\000"
 4664      74797065 
 4664      00
 4665              	.LASF11:
 4666 056f 6C6F6E67 		.ascii	"long unsigned int\000"
 4666      20756E73 
 4666      69676E65 
 4666      6420696E 
 4666      7400
 4667              	.LASF45:
 4668 0581 72656164 		.ascii	"ready_list_t\000"
ARM GAS  /tmp/ccUb86vt.s 			page 151


 4668      795F6C69 
 4668      73745F74 
 4668      00
 4669              	.LASF116:
 4670 058e 63685363 		.ascii	"chSchGoSleepTimeoutS\000"
 4670      68476F53 
 4670      6C656570 
 4670      54696D65 
 4670      6F757453 
 4671              	.LASF17:
 4672 05a3 696E7433 		.ascii	"int32_t\000"
 4672      325F7400 
 4673              	.LASF114:
 4674 05ab 6E657773 		.ascii	"newstate\000"
 4674      74617465 
 4674      00
 4675              	.LASF82:
 4676 05b4 77747365 		.ascii	"wtsemp\000"
 4676      6D7000
 4677              	.LASF93:
 4678 05bb 6D757465 		.ascii	"mutex_t\000"
 4678      785F7400 
 4679              	.LASF100:
 4680 05c3 71756575 		.ascii	"queue_init\000"
 4680      655F696E 
 4680      697400
 4681              	.LASF99:
 4682 05ce 706F7274 		.ascii	"port_unlock_from_isr\000"
 4682      5F756E6C 
 4682      6F636B5F 
 4682      66726F6D 
 4682      5F697372 
 4683              	.LASF4:
 4684 05e3 756E7369 		.ascii	"unsigned char\000"
 4684      676E6564 
 4684      20636861 
 4684      7200
 4685              	.LASF10:
 4686 05f1 5F5F7569 		.ascii	"__uint32_t\000"
 4686      6E743332 
 4686      5F7400
 4687              	.LASF61:
 4688 05fc 76697274 		.ascii	"virtual_timers_list_t\000"
 4688      75616C5F 
 4688      74696D65 
 4688      72735F6C 
 4688      6973745F 
 4689              	.LASF118:
 4690 0612 63685363 		.ascii	"chSchWakeupS\000"
 4690      6857616B 
 4690      65757053 
 4690      00
 4691              	.LASF56:
 4692 061f 76745F6E 		.ascii	"vt_next\000"
 4692      65787400 
 4693              	.LASF125:
 4694 0627 63685363 		.ascii	"chSchDoRescheduleAhead\000"
ARM GAS  /tmp/ccUb86vt.s 			page 152


 4694      68446F52 
 4694      65736368 
 4694      6564756C 
 4694      65416865 
 4695              	.LASF67:
 4696 063e 63685F73 		.ascii	"ch_system_t\000"
 4696      79737465 
 4696      6D5F7400 
 4697              	.LASF81:
 4698 064a 77747472 		.ascii	"wttrp\000"
 4698      7000
 4699              	.LASF90:
 4700 0650 6D5F6E65 		.ascii	"m_next\000"
 4700      787400
 4701              	.LASF1:
 4702 0657 7369676E 		.ascii	"signed char\000"
 4702      65642063 
 4702      68617200 
 4703              	.LASF7:
 4704 0663 73686F72 		.ascii	"short unsigned int\000"
 4704      7420756E 
 4704      7369676E 
 4704      65642069 
 4704      6E7400
 4705              	.LASF49:
 4706 0676 725F6374 		.ascii	"r_ctx\000"
 4706      7800
 4707              	.LASF75:
 4708 067c 73746B61 		.ascii	"stkalign_t\000"
 4708      6C69676E 
 4708      5F7400
 4709              	.LASF59:
 4710 0687 76745F66 		.ascii	"vt_func\000"
 4710      756E6300 
 4711              	.LASF97:
 4712 068f 706F7274 		.ascii	"port_unlock\000"
 4712      5F756E6C 
 4712      6F636B00 
 4713              	.LASF57:
 4714 069b 76745F70 		.ascii	"vt_prev\000"
 4714      72657600 
 4715              	.LASF120:
 4716 06a3 5F5F6675 		.ascii	"__func__.5330\000"
 4716      6E635F5F 
 4716      2E353333 
 4716      3000
 4717              	.LASF79:
 4718 06b1 65786974 		.ascii	"exitcode\000"
 4718      636F6465 
 4718      00
 4719              		.comm	__gnu_lto_v1,1,1
 4720              		.ident	"GCC: (4.8.4-1+11-1) 4.8.4 20141219 (release)"
ARM GAS  /tmp/ccUb86vt.s 			page 153


DEFINED SYMBOLS
                            *ABS*:0000000000000000 chschd.c
     /tmp/ccUb86vt.s:1062   .text.port_lock:0000000000000000 $t
     /tmp/ccUb86vt.s:1067   .text.port_lock:0000000000000000 port_lock
     /tmp/ccUb86vt.s:1089   .text.port_unlock:0000000000000000 $t
     /tmp/ccUb86vt.s:1094   .text.port_unlock:0000000000000000 port_unlock
     /tmp/ccUb86vt.s:1114   .text.port_lock_from_isr:0000000000000000 $t
     /tmp/ccUb86vt.s:1119   .text.port_lock_from_isr:0000000000000000 port_lock_from_isr
     /tmp/ccUb86vt.s:1136   .text.port_unlock_from_isr:0000000000000000 $t
     /tmp/ccUb86vt.s:1141   .text.port_unlock_from_isr:0000000000000000 port_unlock_from_isr
     /tmp/ccUb86vt.s:1158   .text.queue_init:0000000000000000 $t
     /tmp/ccUb86vt.s:1163   .text.queue_init:0000000000000000 queue_init
     /tmp/ccUb86vt.s:1187   .text.chSchIsRescRequiredI:0000000000000000 $t
     /tmp/ccUb86vt.s:1192   .text.chSchIsRescRequiredI:0000000000000000 chSchIsRescRequiredI
     /tmp/ccUb86vt.s:1214   .text.chSchIsRescRequiredI:0000000000000018 $d
     /tmp/ccUb86vt.s:1323   .bss.ch:0000000000000000 ch
     /tmp/ccUb86vt.s:1219   .text.chSysLockFromISR:0000000000000000 $t
     /tmp/ccUb86vt.s:1224   .text.chSysLockFromISR:0000000000000000 chSysLockFromISR
     /tmp/ccUb86vt.s:1242   .text.chSysUnlockFromISR:0000000000000000 $t
     /tmp/ccUb86vt.s:1247   .text.chSysUnlockFromISR:0000000000000000 chSysUnlockFromISR
     /tmp/ccUb86vt.s:1264   .text.chVTIsArmedI:0000000000000000 $t
     /tmp/ccUb86vt.s:1269   .text.chVTIsArmedI:0000000000000000 chVTIsArmedI
     /tmp/ccUb86vt.s:1292   .text.chSemFastSignalI:0000000000000000 $t
     /tmp/ccUb86vt.s:1297   .text.chSemFastSignalI:0000000000000000 chSemFastSignalI
     /tmp/ccUb86vt.s:1320   .bss.ch:0000000000000000 $d
     /tmp/ccUb86vt.s:1326   .text._scheduler_init:0000000000000000 $t
     /tmp/ccUb86vt.s:1332   .text._scheduler_init:0000000000000000 _scheduler_init
     /tmp/ccUb86vt.s:1363   .text._scheduler_init:0000000000000020 $d
     /tmp/ccUb86vt.s:1368   .text.queue_prio_insert:0000000000000000 $t
     /tmp/ccUb86vt.s:1374   .text.queue_prio_insert:0000000000000000 queue_prio_insert
     /tmp/ccUb86vt.s:1428   .text.queue_insert:0000000000000000 $t
     /tmp/ccUb86vt.s:1434   .text.queue_insert:0000000000000000 queue_insert
     /tmp/ccUb86vt.s:1468   .text.queue_fifo_remove:0000000000000000 $t
     /tmp/ccUb86vt.s:1474   .text.queue_fifo_remove:0000000000000000 queue_fifo_remove
     /tmp/ccUb86vt.s:1506   .text.queue_lifo_remove:0000000000000000 $t
     /tmp/ccUb86vt.s:1512   .text.queue_lifo_remove:0000000000000000 queue_lifo_remove
     /tmp/ccUb86vt.s:1544   .text.queue_dequeue:0000000000000000 $t
     /tmp/ccUb86vt.s:1550   .text.queue_dequeue:0000000000000000 queue_dequeue
     /tmp/ccUb86vt.s:1580   .text.list_insert:0000000000000000 $t
     /tmp/ccUb86vt.s:1586   .text.list_insert:0000000000000000 list_insert
     /tmp/ccUb86vt.s:1611   .text.list_remove:0000000000000000 $t
     /tmp/ccUb86vt.s:1617   .text.list_remove:0000000000000000 list_remove
     /tmp/ccUb86vt.s:1644   .text.chSchReadyI:0000000000000000 $t
     /tmp/ccUb86vt.s:1650   .text.chSchReadyI:0000000000000000 chSchReadyI
     /tmp/ccUb86vt.s:1704   .text.chSchReadyI:0000000000000044 $d
     /tmp/ccUb86vt.s:1709   .text.chSchGoSleepS:0000000000000000 $t
     /tmp/ccUb86vt.s:1715   .text.chSchGoSleepS:0000000000000000 chSchGoSleepS
     /tmp/ccUb86vt.s:1764   .text.chSchGoSleepS:0000000000000044 $d
     /tmp/ccUb86vt.s:1769   .text.wakeup:0000000000000000 $t
     /tmp/ccUb86vt.s:1774   .text.wakeup:0000000000000000 wakeup
     /tmp/ccUb86vt.s:1800   .rodata.wakeup:0000000000000000 $d
     /tmp/ccUb86vt.s:1860   .text.wakeup:0000000000000060 $d
     /tmp/ccUb86vt.s:1865   .text.chSchGoSleepTimeoutS:0000000000000000 $t
     /tmp/ccUb86vt.s:1871   .text.chSchGoSleepTimeoutS:0000000000000000 chSchGoSleepTimeoutS
     /tmp/ccUb86vt.s:1943   .text.chSchGoSleepTimeoutS:000000000000006c $d
     /tmp/ccUb86vt.s:1950   .text.chSchWakeupS:0000000000000000 $t
     /tmp/ccUb86vt.s:1956   .text.chSchWakeupS:0000000000000000 chSchWakeupS
ARM GAS  /tmp/ccUb86vt.s 			page 154


     /tmp/ccUb86vt.s:2016   .text.chSchWakeupS:0000000000000050 $d
     /tmp/ccUb86vt.s:2021   .text.chSchRescheduleS:0000000000000000 $t
     /tmp/ccUb86vt.s:2027   .text.chSchRescheduleS:0000000000000000 chSchRescheduleS
     /tmp/ccUb86vt.s:2152   .text.chSchDoRescheduleAhead:0000000000000000 chSchDoRescheduleAhead
     /tmp/ccUb86vt.s:2050   .text.chSchIsPreemptionRequired:0000000000000000 $t
     /tmp/ccUb86vt.s:2056   .text.chSchIsPreemptionRequired:0000000000000000 chSchIsPreemptionRequired
     /tmp/ccUb86vt.s:2087   .text.chSchIsPreemptionRequired:0000000000000024 $d
     /tmp/ccUb86vt.s:2092   .text.chSchDoRescheduleBehind:0000000000000000 $t
     /tmp/ccUb86vt.s:2098   .text.chSchDoRescheduleBehind:0000000000000000 chSchDoRescheduleBehind
     /tmp/ccUb86vt.s:2141   .text.chSchDoRescheduleBehind:000000000000003c $d
     /tmp/ccUb86vt.s:2146   .text.chSchDoRescheduleAhead:0000000000000000 $t
     /tmp/ccUb86vt.s:2228   .text.chSchDoRescheduleAhead:000000000000006c $d
     /tmp/ccUb86vt.s:2233   .text.chSchDoReschedule:0000000000000000 $t
     /tmp/ccUb86vt.s:2239   .text.chSchDoReschedule:0000000000000000 chSchDoReschedule
                            *COM*:0000000000000001 __gnu_lto_v1
                     .debug_frame:0000000000000010 $d
     /tmp/ccUb86vt.s:1218   .text.chSchIsRescRequiredI:000000000000001c $t
     /tmp/ccUb86vt.s:1367   .text._scheduler_init:0000000000000024 $t
     /tmp/ccUb86vt.s:1708   .text.chSchReadyI:0000000000000048 $t
     /tmp/ccUb86vt.s:1768   .text.chSchGoSleepS:0000000000000048 $t
     /tmp/ccUb86vt.s:1864   .text.wakeup:0000000000000064 $t
     /tmp/ccUb86vt.s:1949   .text.chSchGoSleepTimeoutS:0000000000000078 $t
     /tmp/ccUb86vt.s:2020   .text.chSchWakeupS:0000000000000054 $t
     /tmp/ccUb86vt.s:2091   .text.chSchIsPreemptionRequired:0000000000000028 $t

UNDEFINED SYMBOLS
_port_switch
chVTDoSetI
chVTDoResetI
