ARM GAS  /tmp/ccCDvVXP.s 			page 1


   1              		.syntax unified
   2              		.cpu cortex-m4
   3              		.fpu softvfp
   4              		.eabi_attribute 20, 1
   5              		.eabi_attribute 21, 1
   6              		.eabi_attribute 23, 3
   7              		.eabi_attribute 24, 1
   8              		.eabi_attribute 25, 1
   9              		.eabi_attribute 26, 1
  10              		.eabi_attribute 30, 6
  11              		.eabi_attribute 34, 1
  12              		.eabi_attribute 18, 4
  13              		.thumb
  14              		.file	"chschd.c"
  15              		.text
  16              	.Ltext0:
  17              		.cfi_sections	.debug_frame
  18              		.section	.text.port_lock,"ax",%progbits
  19              		.align	2
  20              		.p2align 4,,15
  21              		.thumb
  22              		.thumb_func
  23              		.type	port_lock, %function
  24              	port_lock:
  25              	.LFB127:
  26              		.file 1 "/home/efe/ChibiOS/os/rt/ports/ARMCMx/chcore_v7m.h"
  27              		.loc 1 456 0
  28              		.cfi_startproc
  29              		@ args = 0, pretend = 0, frame = 8
  30              		@ frame_needed = 0, uses_anonymous_args = 0
  31              		@ link register save eliminated.
  32 0000 82B0     		sub	sp, sp, #8
  33              		.cfi_def_cfa_offset 8
  34 0002 2023     		movs	r3, #32
  35 0004 0193     		str	r3, [sp, #4]
  36              	.LBB6:
  37              	.LBB7:
  38              		.file 2 "/home/efe/ChibiOS/os/ext/CMSIS/include/core_cmFunc.h"
  39              		.loc 2 548 0
  40 0006 019B     		ldr	r3, [sp, #4]
  41              	@ 548 "/home/efe/ChibiOS/os/ext/CMSIS/include/core_cmFunc.h" 1
  42 0008 83F31188 		MSR basepri, r3
  43              	@ 0 "" 2
  44              		.thumb
  45              	.LBE7:
  46              	.LBE6:
  47              		.loc 1 463 0
  48 000c 02B0     		add	sp, sp, #8
  49              		@ sp needed
  50 000e 7047     		bx	lr
  51              		.cfi_endproc
  52              	.LFE127:
  53              		.size	port_lock, .-port_lock
  54              		.section	.text.port_unlock,"ax",%progbits
  55              		.align	2
  56              		.p2align 4,,15
  57              		.thumb
ARM GAS  /tmp/ccCDvVXP.s 			page 2


  58              		.thumb_func
  59              		.type	port_unlock, %function
  60              	port_unlock:
  61              	.LFB128:
  62              		.loc 1 470 0
  63              		.cfi_startproc
  64              		@ args = 0, pretend = 0, frame = 8
  65              		@ frame_needed = 0, uses_anonymous_args = 0
  66              		@ link register save eliminated.
  67 0000 82B0     		sub	sp, sp, #8
  68              		.cfi_def_cfa_offset 8
  69 0002 0023     		movs	r3, #0
  70 0004 0193     		str	r3, [sp, #4]
  71              	.LBB8:
  72              	.LBB9:
  73              		.loc 2 548 0
  74 0006 019B     		ldr	r3, [sp, #4]
  75              	@ 548 "/home/efe/ChibiOS/os/ext/CMSIS/include/core_cmFunc.h" 1
  76 0008 83F31188 		MSR basepri, r3
  77              	@ 0 "" 2
  78              		.thumb
  79              	.LBE9:
  80              	.LBE8:
  81              		.loc 1 477 0
  82 000c 02B0     		add	sp, sp, #8
  83              		@ sp needed
  84 000e 7047     		bx	lr
  85              		.cfi_endproc
  86              	.LFE128:
  87              		.size	port_unlock, .-port_unlock
  88              		.section	.text.port_lock_from_isr,"ax",%progbits
  89              		.align	2
  90              		.p2align 4,,15
  91              		.thumb
  92              		.thumb_func
  93              		.type	port_lock_from_isr, %function
  94              	port_lock_from_isr:
  95              	.LFB129:
  96              		.loc 1 485 0
  97              		.cfi_startproc
  98              		@ args = 0, pretend = 0, frame = 0
  99              		@ frame_needed = 0, uses_anonymous_args = 0
 100 0000 08B5     		push	{r3, lr}
 101              		.cfi_def_cfa_offset 8
 102              		.cfi_offset 3, -8
 103              		.cfi_offset 14, -4
 104              		.loc 1 487 0
 105 0002 FFF7FEFF 		bl	port_lock
 106              		.loc 1 488 0
 107 0006 08BD     		pop	{r3, pc}
 108              		.cfi_endproc
 109              	.LFE129:
 110              		.size	port_lock_from_isr, .-port_lock_from_isr
 111 0008 AFF30080 		.section	.text.port_unlock_from_isr,"ax",%progbits
 111      AFF30080 
 112              		.align	2
 113              		.p2align 4,,15
ARM GAS  /tmp/ccCDvVXP.s 			page 3


 114              		.thumb
 115              		.thumb_func
 116              		.type	port_unlock_from_isr, %function
 117              	port_unlock_from_isr:
 118              	.LFB130:
 119              		.loc 1 496 0
 120              		.cfi_startproc
 121              		@ args = 0, pretend = 0, frame = 0
 122              		@ frame_needed = 0, uses_anonymous_args = 0
 123 0000 08B5     		push	{r3, lr}
 124              		.cfi_def_cfa_offset 8
 125              		.cfi_offset 3, -8
 126              		.cfi_offset 14, -4
 127              		.loc 1 498 0
 128 0002 FFF7FEFF 		bl	port_unlock
 129              		.loc 1 499 0
 130 0006 08BD     		pop	{r3, pc}
 131              		.cfi_endproc
 132              	.LFE130:
 133              		.size	port_unlock_from_isr, .-port_unlock_from_isr
 134 0008 AFF30080 		.section	.text.queue_init,"ax",%progbits
 134      AFF30080 
 135              		.align	2
 136              		.p2align 4,,15
 137              		.thumb
 138              		.thumb_func
 139              		.type	queue_init, %function
 140              	queue_init:
 141              	.LFB150:
 142              		.file 3 "/home/efe/ChibiOS/os/rt/include/chschd.h"
 143              		.loc 3 602 0
 144              		.cfi_startproc
 145              		@ args = 0, pretend = 0, frame = 8
 146              		@ frame_needed = 0, uses_anonymous_args = 0
 147              		@ link register save eliminated.
 148 0000 82B0     		sub	sp, sp, #8
 149              		.cfi_def_cfa_offset 8
 150 0002 0190     		str	r0, [sp, #4]
 151              		.loc 3 604 0
 152 0004 019B     		ldr	r3, [sp, #4]
 153 0006 019A     		ldr	r2, [sp, #4]
 154 0008 1A60     		str	r2, [r3]
 155              		.loc 3 605 0
 156 000a 019B     		ldr	r3, [sp, #4]
 157 000c 019A     		ldr	r2, [sp, #4]
 158 000e 5A60     		str	r2, [r3, #4]
 159              		.loc 3 606 0
 160 0010 02B0     		add	sp, sp, #8
 161              		@ sp needed
 162 0012 7047     		bx	lr
 163              		.cfi_endproc
 164              	.LFE150:
 165              		.size	queue_init, .-queue_init
 166 0014 AFF30080 		.section	.text.queue_fifo_remove,"ax",%progbits
 166      AFF30080 
 166      AFF30080 
 167              		.align	2
ARM GAS  /tmp/ccCDvVXP.s 			page 4


 168              		.p2align 4,,15
 169              		.thumb
 170              		.thumb_func
 171              		.type	queue_fifo_remove, %function
 172              	queue_fifo_remove:
 173              	.LFB157:
 174              		.loc 3 671 0
 175              		.cfi_startproc
 176              		@ args = 0, pretend = 0, frame = 16
 177              		@ frame_needed = 0, uses_anonymous_args = 0
 178              		@ link register save eliminated.
 179 0000 84B0     		sub	sp, sp, #16
 180              		.cfi_def_cfa_offset 16
 181 0002 0190     		str	r0, [sp, #4]
 182              		.loc 3 672 0
 183 0004 019B     		ldr	r3, [sp, #4]
 184 0006 1B68     		ldr	r3, [r3]
 185 0008 0393     		str	r3, [sp, #12]
 186              		.loc 3 674 0
 187 000a 039B     		ldr	r3, [sp, #12]
 188 000c 1A68     		ldr	r2, [r3]
 189 000e 019B     		ldr	r3, [sp, #4]
 190 0010 1A60     		str	r2, [r3]
 191              		.loc 3 675 0
 192 0012 019B     		ldr	r3, [sp, #4]
 193 0014 1B68     		ldr	r3, [r3]
 194 0016 019A     		ldr	r2, [sp, #4]
 195 0018 5A60     		str	r2, [r3, #4]
 196              		.loc 3 677 0
 197 001a 039B     		ldr	r3, [sp, #12]
 198              		.loc 3 678 0
 199 001c 1846     		mov	r0, r3
 200 001e 04B0     		add	sp, sp, #16
 201              		@ sp needed
 202 0020 7047     		bx	lr
 203              		.cfi_endproc
 204              	.LFE157:
 205              		.size	queue_fifo_remove, .-queue_fifo_remove
 206 0022 00BFAFF3 		.section	.text.queue_dequeue,"ax",%progbits
 206      0080AFF3 
 206      0080AFF3 
 206      0080
 207              		.align	2
 208              		.p2align 4,,15
 209              		.thumb
 210              		.thumb_func
 211              		.type	queue_dequeue, %function
 212              	queue_dequeue:
 213              	.LFB159:
 214              		.loc 3 689 0
 215              		.cfi_startproc
 216              		@ args = 0, pretend = 0, frame = 8
 217              		@ frame_needed = 0, uses_anonymous_args = 0
 218              		@ link register save eliminated.
 219 0000 82B0     		sub	sp, sp, #8
 220              		.cfi_def_cfa_offset 8
 221 0002 0190     		str	r0, [sp, #4]
ARM GAS  /tmp/ccCDvVXP.s 			page 5


 222              		.loc 3 691 0
 223 0004 019B     		ldr	r3, [sp, #4]
 224 0006 5B68     		ldr	r3, [r3, #4]
 225 0008 019A     		ldr	r2, [sp, #4]
 226 000a 1268     		ldr	r2, [r2]
 227 000c 1A60     		str	r2, [r3]
 228              		.loc 3 692 0
 229 000e 019B     		ldr	r3, [sp, #4]
 230 0010 1B68     		ldr	r3, [r3]
 231 0012 019A     		ldr	r2, [sp, #4]
 232 0014 5268     		ldr	r2, [r2, #4]
 233 0016 5A60     		str	r2, [r3, #4]
 234              		.loc 3 694 0
 235 0018 019B     		ldr	r3, [sp, #4]
 236              		.loc 3 695 0
 237 001a 1846     		mov	r0, r3
 238 001c 02B0     		add	sp, sp, #8
 239              		@ sp needed
 240 001e 7047     		bx	lr
 241              		.cfi_endproc
 242              	.LFE159:
 243              		.size	queue_dequeue, .-queue_dequeue
 244              		.section	.text.chSchIsRescRequiredI,"ax",%progbits
 245              		.align	2
 246              		.p2align 4,,15
 247              		.thumb
 248              		.thumb_func
 249              		.type	chSchIsRescRequiredI, %function
 250              	chSchIsRescRequiredI:
 251              	.LFB160:
 252              		.loc 3 709 0
 253              		.cfi_startproc
 254              		@ args = 0, pretend = 0, frame = 0
 255              		@ frame_needed = 0, uses_anonymous_args = 0
 256              		@ link register save eliminated.
 257              		.loc 3 713 0
 258 0000 064B     		ldr	r3, .L12
 259 0002 1B68     		ldr	r3, [r3]
 260 0004 9A68     		ldr	r2, [r3, #8]
 261 0006 054B     		ldr	r3, .L12
 262 0008 9B69     		ldr	r3, [r3, #24]
 263 000a 9B68     		ldr	r3, [r3, #8]
 264 000c 9A42     		cmp	r2, r3
 265 000e 94BF     		ite	ls
 266 0010 0023     		movls	r3, #0
 267 0012 0123     		movhi	r3, #1
 268 0014 DBB2     		uxtb	r3, r3
 269              		.loc 3 714 0
 270 0016 1846     		mov	r0, r3
 271 0018 7047     		bx	lr
 272              	.L13:
 273 001a 00BF     		.align	2
 274              	.L12:
 275 001c 00000000 		.word	ch
 276              		.cfi_endproc
 277              	.LFE160:
 278              		.size	chSchIsRescRequiredI, .-chSchIsRescRequiredI
ARM GAS  /tmp/ccCDvVXP.s 			page 6


 279              		.section	.text.chSysLockFromISR,"ax",%progbits
 280              		.align	2
 281              		.p2align 4,,15
 282              		.thumb
 283              		.thumb_func
 284              		.type	chSysLockFromISR, %function
 285              	chSysLockFromISR:
 286              	.LFB169:
 287              		.file 4 "/home/efe/ChibiOS/os/rt/include/chsys.h"
 288              		.loc 4 386 0
 289              		.cfi_startproc
 290              		@ args = 0, pretend = 0, frame = 0
 291              		@ frame_needed = 0, uses_anonymous_args = 0
 292 0000 08B5     		push	{r3, lr}
 293              		.cfi_def_cfa_offset 8
 294              		.cfi_offset 3, -8
 295              		.cfi_offset 14, -4
 296              		.loc 4 388 0
 297 0002 FFF7FEFF 		bl	port_lock_from_isr
 298              		.loc 4 391 0
 299 0006 08BD     		pop	{r3, pc}
 300              		.cfi_endproc
 301              	.LFE169:
 302              		.size	chSysLockFromISR, .-chSysLockFromISR
 303 0008 AFF30080 		.section	.text.chSysUnlockFromISR,"ax",%progbits
 303      AFF30080 
 304              		.align	2
 305              		.p2align 4,,15
 306              		.thumb
 307              		.thumb_func
 308              		.type	chSysUnlockFromISR, %function
 309              	chSysUnlockFromISR:
 310              	.LFB170:
 311              		.loc 4 406 0
 312              		.cfi_startproc
 313              		@ args = 0, pretend = 0, frame = 0
 314              		@ frame_needed = 0, uses_anonymous_args = 0
 315 0000 08B5     		push	{r3, lr}
 316              		.cfi_def_cfa_offset 8
 317              		.cfi_offset 3, -8
 318              		.cfi_offset 14, -4
 319              		.loc 4 410 0
 320 0002 FFF7FEFF 		bl	port_unlock_from_isr
 321              		.loc 4 411 0
 322 0006 08BD     		pop	{r3, pc}
 323              		.cfi_endproc
 324              	.LFE170:
 325              		.size	chSysUnlockFromISR, .-chSysUnlockFromISR
 326 0008 AFF30080 		.section	.text.chVTIsArmedI,"ax",%progbits
 326      AFF30080 
 327              		.align	2
 328              		.p2align 4,,15
 329              		.thumb
 330              		.thumb_func
 331              		.type	chVTIsArmedI, %function
 332              	chVTIsArmedI:
 333              	.LFB181:
ARM GAS  /tmp/ccCDvVXP.s 			page 7


 334              		.file 5 "/home/efe/ChibiOS/os/rt/include/chvt.h"
 335              		.loc 5 337 0
 336              		.cfi_startproc
 337              		@ args = 0, pretend = 0, frame = 8
 338              		@ frame_needed = 0, uses_anonymous_args = 0
 339              		@ link register save eliminated.
 340 0000 82B0     		sub	sp, sp, #8
 341              		.cfi_def_cfa_offset 8
 342 0002 0190     		str	r0, [sp, #4]
 343              		.loc 5 341 0
 344 0004 019B     		ldr	r3, [sp, #4]
 345 0006 DB68     		ldr	r3, [r3, #12]
 346 0008 002B     		cmp	r3, #0
 347 000a 0CBF     		ite	eq
 348 000c 0023     		moveq	r3, #0
 349 000e 0123     		movne	r3, #1
 350 0010 DBB2     		uxtb	r3, r3
 351              		.loc 5 342 0
 352 0012 1846     		mov	r0, r3
 353 0014 02B0     		add	sp, sp, #8
 354              		@ sp needed
 355 0016 7047     		bx	lr
 356              		.cfi_endproc
 357              	.LFE181:
 358              		.size	chVTIsArmedI, .-chVTIsArmedI
 359 0018 AFF30080 		.section	.text.chSemFastSignalI,"ax",%progbits
 359      AFF30080 
 360              		.align	2
 361              		.p2align 4,,15
 362              		.thumb
 363              		.thumb_func
 364              		.type	chSemFastSignalI, %function
 365              	chSemFastSignalI:
 366              	.LFB201:
 367              		.file 6 "/home/efe/ChibiOS/os/rt/include/chsem.h"
 368              		.loc 6 134 0
 369              		.cfi_startproc
 370              		@ args = 0, pretend = 0, frame = 8
 371              		@ frame_needed = 0, uses_anonymous_args = 0
 372              		@ link register save eliminated.
 373 0000 82B0     		sub	sp, sp, #8
 374              		.cfi_def_cfa_offset 8
 375 0002 0190     		str	r0, [sp, #4]
 376              		.loc 6 138 0
 377 0004 019B     		ldr	r3, [sp, #4]
 378 0006 9B68     		ldr	r3, [r3, #8]
 379 0008 5A1C     		adds	r2, r3, #1
 380 000a 019B     		ldr	r3, [sp, #4]
 381 000c 9A60     		str	r2, [r3, #8]
 382              		.loc 6 139 0
 383 000e 02B0     		add	sp, sp, #8
 384              		@ sp needed
 385 0010 7047     		bx	lr
 386              		.cfi_endproc
 387              	.LFE201:
 388              		.size	chSemFastSignalI, .-chSemFastSignalI
 389              		.global	ch
ARM GAS  /tmp/ccCDvVXP.s 			page 8


 390 0012 00BFAFF3 		.section	.bss.ch,"aw",%nobits
 390      0080AFF3 
 390      0080AFF3 
 390      0080
 391              		.align	3
 392              		.type	ch, %object
 393              		.size	ch, 336
 394              	ch:
 395 0000 00000000 		.space	336
 395      00000000 
 395      00000000 
 395      00000000 
 395      00000000 
 396              		.section	.text._scheduler_init,"ax",%progbits
 397              		.align	2
 398              		.p2align 4,,15
 399              		.global	_scheduler_init
 400              		.thumb
 401              		.thumb_func
 402              		.type	_scheduler_init, %function
 403              	_scheduler_init:
 404              	.LFB240:
 405              		.file 7 "/home/efe/ChibiOS/os/rt/src/chschd.c"
 406              		.loc 7 65 0
 407              		.cfi_startproc
 408              		@ args = 0, pretend = 0, frame = 0
 409              		@ frame_needed = 0, uses_anonymous_args = 0
 410 0000 08B5     		push	{r3, lr}
 411              		.cfi_def_cfa_offset 8
 412              		.cfi_offset 3, -8
 413              		.cfi_offset 14, -4
 414              		.loc 7 67 0
 415 0002 0648     		ldr	r0, .L20
 416 0004 FFF7FEFF 		bl	queue_init
 417              		.loc 7 68 0
 418 0008 044B     		ldr	r3, .L20
 419 000a 0022     		movs	r2, #0
 420 000c 9A60     		str	r2, [r3, #8]
 421              		.loc 7 70 0
 422 000e 034B     		ldr	r3, .L20
 423 0010 024A     		ldr	r2, .L20
 424 0012 1A61     		str	r2, [r3, #16]
 425              		.loc 7 71 0
 426 0014 014B     		ldr	r3, .L20
 427 0016 014A     		ldr	r2, .L20
 428 0018 5A61     		str	r2, [r3, #20]
 429              		.loc 7 73 0
 430 001a 08BD     		pop	{r3, pc}
 431              	.L21:
 432              		.align	2
 433              	.L20:
 434 001c 00000000 		.word	ch
 435              		.cfi_endproc
 436              	.LFE240:
 437              		.size	_scheduler_init, .-_scheduler_init
 438              		.section	.text.chSchReadyI,"ax",%progbits
 439              		.align	2
ARM GAS  /tmp/ccCDvVXP.s 			page 9


 440              		.p2align 4,,15
 441              		.global	chSchReadyI
 442              		.thumb
 443              		.thumb_func
 444              		.type	chSchReadyI, %function
 445              	chSchReadyI:
 446              	.LFB241:
 447              		.loc 7 218 0
 448              		.cfi_startproc
 449              		@ args = 0, pretend = 0, frame = 16
 450              		@ frame_needed = 0, uses_anonymous_args = 0
 451              		@ link register save eliminated.
 452 0000 84B0     		sub	sp, sp, #16
 453              		.cfi_def_cfa_offset 16
 454 0002 0190     		str	r0, [sp, #4]
 455              		.loc 7 227 0
 456 0004 019B     		ldr	r3, [sp, #4]
 457 0006 0022     		movs	r2, #0
 458 0008 1A77     		strb	r2, [r3, #28]
 459              		.loc 7 228 0
 460 000a 0E4B     		ldr	r3, .L25
 461 000c 0393     		str	r3, [sp, #12]
 462              	.L23:
 463              		.loc 7 230 0 discriminator 1
 464 000e 039B     		ldr	r3, [sp, #12]
 465 0010 1B68     		ldr	r3, [r3]
 466 0012 0393     		str	r3, [sp, #12]
 467              		.loc 7 231 0 discriminator 1
 468 0014 039B     		ldr	r3, [sp, #12]
 469 0016 9A68     		ldr	r2, [r3, #8]
 470 0018 019B     		ldr	r3, [sp, #4]
 471 001a 9B68     		ldr	r3, [r3, #8]
 472 001c 9A42     		cmp	r2, r3
 473 001e F6D2     		bcs	.L23
 474              		.loc 7 233 0
 475 0020 019B     		ldr	r3, [sp, #4]
 476 0022 039A     		ldr	r2, [sp, #12]
 477 0024 1A60     		str	r2, [r3]
 478              		.loc 7 234 0
 479 0026 039B     		ldr	r3, [sp, #12]
 480 0028 5A68     		ldr	r2, [r3, #4]
 481 002a 019B     		ldr	r3, [sp, #4]
 482 002c 5A60     		str	r2, [r3, #4]
 483              		.loc 7 235 0
 484 002e 019B     		ldr	r3, [sp, #4]
 485 0030 5B68     		ldr	r3, [r3, #4]
 486 0032 019A     		ldr	r2, [sp, #4]
 487 0034 1A60     		str	r2, [r3]
 488              		.loc 7 236 0
 489 0036 039B     		ldr	r3, [sp, #12]
 490 0038 019A     		ldr	r2, [sp, #4]
 491 003a 5A60     		str	r2, [r3, #4]
 492              		.loc 7 238 0
 493 003c 019B     		ldr	r3, [sp, #4]
 494              		.loc 7 239 0
 495 003e 1846     		mov	r0, r3
 496 0040 04B0     		add	sp, sp, #16
ARM GAS  /tmp/ccCDvVXP.s 			page 10


 497              		@ sp needed
 498 0042 7047     		bx	lr
 499              	.L26:
 500              		.align	2
 501              	.L25:
 502 0044 00000000 		.word	ch
 503              		.cfi_endproc
 504              	.LFE241:
 505              		.size	chSchReadyI, .-chSchReadyI
 506 0048 AFF30080 		.section	.text.chSchGoSleepS,"ax",%progbits
 506      AFF30080 
 507              		.align	2
 508              		.p2align 4,,15
 509              		.global	chSchGoSleepS
 510              		.thumb
 511              		.thumb_func
 512              		.type	chSchGoSleepS, %function
 513              	chSchGoSleepS:
 514              	.LFB242:
 515              		.loc 7 250 0
 516              		.cfi_startproc
 517              		@ args = 0, pretend = 0, frame = 16
 518              		@ frame_needed = 0, uses_anonymous_args = 0
 519 0000 00B5     		push	{lr}
 520              		.cfi_def_cfa_offset 4
 521              		.cfi_offset 14, -4
 522 0002 85B0     		sub	sp, sp, #20
 523              		.cfi_def_cfa_offset 24
 524 0004 0346     		mov	r3, r0
 525 0006 8DF80730 		strb	r3, [sp, #7]
 526              		.loc 7 255 0
 527 000a 0D4B     		ldr	r3, .L28
 528 000c 9B69     		ldr	r3, [r3, #24]
 529 000e 0393     		str	r3, [sp, #12]
 530              		.loc 7 256 0
 531 0010 039B     		ldr	r3, [sp, #12]
 532 0012 9DF80720 		ldrb	r2, [sp, #7]
 533 0016 1A77     		strb	r2, [r3, #28]
 534              		.loc 7 262 0
 535 0018 0948     		ldr	r0, .L28
 536 001a FFF7FEFF 		bl	queue_fifo_remove
 537 001e 0246     		mov	r2, r0
 538 0020 074B     		ldr	r3, .L28
 539 0022 9A61     		str	r2, [r3, #24]
 540              		.loc 7 268 0
 541 0024 064B     		ldr	r3, .L28
 542 0026 9B69     		ldr	r3, [r3, #24]
 543 0028 0122     		movs	r2, #1
 544 002a 1A77     		strb	r2, [r3, #28]
 545              		.loc 7 269 0
 546 002c 044B     		ldr	r3, .L28
 547 002e 9B69     		ldr	r3, [r3, #24]
 548 0030 1846     		mov	r0, r3
 549 0032 0399     		ldr	r1, [sp, #12]
 550 0034 FFF7FEFF 		bl	_port_switch
 551              		.loc 7 270 0
 552 0038 05B0     		add	sp, sp, #20
ARM GAS  /tmp/ccCDvVXP.s 			page 11


 553              		@ sp needed
 554 003a 5DF804FB 		ldr	pc, [sp], #4
 555              	.L29:
 556 003e 00BF     		.align	2
 557              	.L28:
 558 0040 00000000 		.word	ch
 559              		.cfi_endproc
 560              	.LFE242:
 561              		.size	chSchGoSleepS, .-chSchGoSleepS
 562 0044 AFF30080 		.section	.text.wakeup,"ax",%progbits
 562      AFF30080 
 562      AFF30080 
 563              		.align	2
 564              		.p2align 4,,15
 565              		.thumb
 566              		.thumb_func
 567              		.type	wakeup, %function
 568              	wakeup:
 569              	.LFB243:
 570              		.loc 7 275 0
 571              		.cfi_startproc
 572              		@ args = 0, pretend = 0, frame = 16
 573              		@ frame_needed = 0, uses_anonymous_args = 0
 574 0000 00B5     		push	{lr}
 575              		.cfi_def_cfa_offset 4
 576              		.cfi_offset 14, -4
 577 0002 85B0     		sub	sp, sp, #20
 578              		.cfi_def_cfa_offset 24
 579 0004 0190     		str	r0, [sp, #4]
 580              		.loc 7 276 0
 581 0006 019B     		ldr	r3, [sp, #4]
 582 0008 0393     		str	r3, [sp, #12]
 583              		.loc 7 278 0
 584 000a FFF7FEFF 		bl	chSysLockFromISR
 585              		.loc 7 279 0
 586 000e 039B     		ldr	r3, [sp, #12]
 587 0010 1B7F     		ldrb	r3, [r3, #28]	@ zero_extendqisi2
 588 0012 072B     		cmp	r3, #7
 589 0014 23D8     		bhi	.L39
 590 0016 01A2     		adr	r2, .L33
 591 0018 52F823F0 		ldr	pc, [r2, r3, lsl #2]
 592              		.p2align 2
 593              	.L33:
 594 001c 3D000000 		.word	.L32+1
 595 0020 5F000000 		.word	.L39+1
 596 0024 5F000000 		.word	.L39+1
 597 0028 43000000 		.word	.L34+1
 598 002c 57000000 		.word	.L35+1
 599 0030 4D000000 		.word	.L36+1
 600 0034 5F000000 		.word	.L39+1
 601 0038 57000000 		.word	.L35+1
 602              		.p2align 1
 603              	.L32:
 604              		.loc 7 283 0
 605 003c FFF7FEFF 		bl	chSysUnlockFromISR
 606              		.loc 7 284 0
 607 0040 17E0     		b	.L30
ARM GAS  /tmp/ccCDvVXP.s 			page 12


 608              	.L34:
 609              		.loc 7 286 0
 610 0042 039B     		ldr	r3, [sp, #12]
 611 0044 1B6A     		ldr	r3, [r3, #32]
 612 0046 0022     		movs	r2, #0
 613 0048 1A60     		str	r2, [r3]
 614              		.loc 7 287 0
 615 004a 09E0     		b	.L38
 616              	.L36:
 617              		.loc 7 290 0
 618 004c 039B     		ldr	r3, [sp, #12]
 619 004e 1B6A     		ldr	r3, [r3, #32]
 620 0050 1846     		mov	r0, r3
 621 0052 FFF7FEFF 		bl	chSemFastSignalI
 622              	.L35:
 623              		.loc 7 298 0
 624 0056 0398     		ldr	r0, [sp, #12]
 625 0058 FFF7FEFF 		bl	queue_dequeue
 626              		.loc 7 299 0
 627 005c 00E0     		b	.L38
 628              	.L39:
 629              		.loc 7 302 0
 630 005e 00BF     		nop
 631              	.L38:
 632              		.loc 7 304 0
 633 0060 039B     		ldr	r3, [sp, #12]
 634 0062 4FF0FF32 		mov	r2, #-1
 635 0066 1A62     		str	r2, [r3, #32]
 636              		.loc 7 305 0
 637 0068 0398     		ldr	r0, [sp, #12]
 638 006a FFF7FEFF 		bl	chSchReadyI
 639              		.loc 7 306 0
 640 006e FFF7FEFF 		bl	chSysUnlockFromISR
 641              	.L30:
 642              		.loc 7 307 0
 643 0072 05B0     		add	sp, sp, #20
 644              		@ sp needed
 645 0074 5DF804FB 		ldr	pc, [sp], #4
 646              		.cfi_endproc
 647              	.LFE243:
 648              		.size	wakeup, .-wakeup
 649 0078 AFF30080 		.section	.text.chSchGoSleepTimeoutS,"ax",%progbits
 649      AFF30080 
 650              		.align	2
 651              		.p2align 4,,15
 652              		.global	chSchGoSleepTimeoutS
 653              		.thumb
 654              		.thumb_func
 655              		.type	chSchGoSleepTimeoutS, %function
 656              	chSchGoSleepTimeoutS:
 657              	.LFB244:
 658              		.loc 7 330 0
 659              		.cfi_startproc
 660              		@ args = 0, pretend = 0, frame = 32
 661              		@ frame_needed = 0, uses_anonymous_args = 0
 662 0000 00B5     		push	{lr}
 663              		.cfi_def_cfa_offset 4
ARM GAS  /tmp/ccCDvVXP.s 			page 13


 664              		.cfi_offset 14, -4
 665 0002 89B0     		sub	sp, sp, #36
 666              		.cfi_def_cfa_offset 40
 667 0004 0346     		mov	r3, r0
 668 0006 0091     		str	r1, [sp]
 669 0008 8DF80730 		strb	r3, [sp, #7]
 670              		.loc 7 334 0
 671 000c 009B     		ldr	r3, [sp]
 672 000e B3F1FF3F 		cmp	r3, #-1
 673 0012 19D0     		beq	.L41
 674              	.LBB10:
 675              		.loc 7 337 0
 676 0014 124B     		ldr	r3, .L45
 677 0016 9B69     		ldr	r3, [r3, #24]
 678 0018 03AA     		add	r2, sp, #12
 679 001a 1046     		mov	r0, r2
 680 001c 0099     		ldr	r1, [sp]
 681 001e 114A     		ldr	r2, .L45+4
 682 0020 FFF7FEFF 		bl	chVTDoSetI
 683              		.loc 7 338 0
 684 0024 9DF80730 		ldrb	r3, [sp, #7]	@ zero_extendqisi2
 685 0028 1846     		mov	r0, r3
 686 002a FFF7FEFF 		bl	chSchGoSleepS
 687              		.loc 7 339 0
 688 002e 03AB     		add	r3, sp, #12
 689 0030 1846     		mov	r0, r3
 690 0032 FFF7FEFF 		bl	chVTIsArmedI
 691 0036 0346     		mov	r3, r0
 692 0038 002B     		cmp	r3, #0
 693 003a 04D0     		beq	.L42
 694              		.loc 7 340 0
 695 003c 03AB     		add	r3, sp, #12
 696 003e 1846     		mov	r0, r3
 697 0040 FFF7FEFF 		bl	chVTDoResetI
 698              	.LBE10:
 699 0044 05E0     		b	.L43
 700              	.L42:
 701 0046 04E0     		b	.L43
 702              	.L41:
 703              		.loc 7 344 0
 704 0048 9DF80730 		ldrb	r3, [sp, #7]	@ zero_extendqisi2
 705 004c 1846     		mov	r0, r3
 706 004e FFF7FEFF 		bl	chSchGoSleepS
 707              	.L43:
 708              		.loc 7 347 0
 709 0052 034B     		ldr	r3, .L45
 710 0054 9B69     		ldr	r3, [r3, #24]
 711 0056 1B6A     		ldr	r3, [r3, #32]
 712              		.loc 7 348 0
 713 0058 1846     		mov	r0, r3
 714 005a 09B0     		add	sp, sp, #36
 715              		@ sp needed
 716 005c 5DF804FB 		ldr	pc, [sp], #4
 717              	.L46:
 718              		.align	2
 719              	.L45:
 720 0060 00000000 		.word	ch
ARM GAS  /tmp/ccCDvVXP.s 			page 14


 721 0064 00000000 		.word	wakeup
 722              		.cfi_endproc
 723              	.LFE244:
 724              		.size	chSchGoSleepTimeoutS, .-chSchGoSleepTimeoutS
 725 0068 AFF30080 		.section	.text.chSchWakeupS,"ax",%progbits
 725      AFF30080 
 726              		.align	2
 727              		.p2align 4,,15
 728              		.global	chSchWakeupS
 729              		.thumb
 730              		.thumb_func
 731              		.type	chSchWakeupS, %function
 732              	chSchWakeupS:
 733              	.LFB245:
 734              		.loc 7 367 0
 735              		.cfi_startproc
 736              		@ args = 0, pretend = 0, frame = 16
 737              		@ frame_needed = 0, uses_anonymous_args = 0
 738 0000 00B5     		push	{lr}
 739              		.cfi_def_cfa_offset 4
 740              		.cfi_offset 14, -4
 741 0002 85B0     		sub	sp, sp, #20
 742              		.cfi_def_cfa_offset 24
 743 0004 0190     		str	r0, [sp, #4]
 744 0006 0091     		str	r1, [sp]
 745              		.loc 7 373 0
 746 0008 019B     		ldr	r3, [sp, #4]
 747 000a 009A     		ldr	r2, [sp]
 748 000c 1A62     		str	r2, [r3, #32]
 749              		.loc 7 379 0
 750 000e 019B     		ldr	r3, [sp, #4]
 751 0010 9A68     		ldr	r2, [r3, #8]
 752 0012 0E4B     		ldr	r3, .L50
 753 0014 9B69     		ldr	r3, [r3, #24]
 754 0016 9B68     		ldr	r3, [r3, #8]
 755 0018 9A42     		cmp	r2, r3
 756 001a 03D8     		bhi	.L48
 757              		.loc 7 380 0
 758 001c 0198     		ldr	r0, [sp, #4]
 759 001e FFF7FEFF 		bl	chSchReadyI
 760 0022 0FE0     		b	.L47
 761              	.L48:
 762              	.LBB11:
 763              		.loc 7 383 0
 764 0024 094B     		ldr	r3, .L50
 765 0026 9B69     		ldr	r3, [r3, #24]
 766 0028 1846     		mov	r0, r3
 767 002a FFF7FEFF 		bl	chSchReadyI
 768 002e 0390     		str	r0, [sp, #12]
 769              		.loc 7 384 0
 770 0030 064B     		ldr	r3, .L50
 771 0032 019A     		ldr	r2, [sp, #4]
 772 0034 9A61     		str	r2, [r3, #24]
 773              		.loc 7 390 0
 774 0036 019B     		ldr	r3, [sp, #4]
 775 0038 0122     		movs	r2, #1
 776 003a 1A77     		strb	r2, [r3, #28]
ARM GAS  /tmp/ccCDvVXP.s 			page 15


 777              		.loc 7 391 0
 778 003c 0198     		ldr	r0, [sp, #4]
 779 003e 0399     		ldr	r1, [sp, #12]
 780 0040 FFF7FEFF 		bl	_port_switch
 781              	.L47:
 782              	.LBE11:
 783              		.loc 7 393 0
 784 0044 05B0     		add	sp, sp, #20
 785              		@ sp needed
 786 0046 5DF804FB 		ldr	pc, [sp], #4
 787              	.L51:
 788 004a 00BF     		.align	2
 789              	.L50:
 790 004c 00000000 		.word	ch
 791              		.cfi_endproc
 792              	.LFE245:
 793              		.size	chSchWakeupS, .-chSchWakeupS
 794              		.section	.text.chSchRescheduleS,"ax",%progbits
 795              		.align	2
 796              		.p2align 4,,15
 797              		.global	chSchRescheduleS
 798              		.thumb
 799              		.thumb_func
 800              		.type	chSchRescheduleS, %function
 801              	chSchRescheduleS:
 802              	.LFB246:
 803              		.loc 7 402 0
 804              		.cfi_startproc
 805              		@ args = 0, pretend = 0, frame = 0
 806              		@ frame_needed = 0, uses_anonymous_args = 0
 807 0000 08B5     		push	{r3, lr}
 808              		.cfi_def_cfa_offset 8
 809              		.cfi_offset 3, -8
 810              		.cfi_offset 14, -4
 811              		.loc 7 406 0
 812 0002 FFF7FEFF 		bl	chSchIsRescRequiredI
 813 0006 0346     		mov	r3, r0
 814 0008 002B     		cmp	r3, #0
 815 000a 01D0     		beq	.L52
 816              		.loc 7 407 0
 817 000c FFF7FEFF 		bl	chSchDoRescheduleAhead
 818              	.L52:
 819              		.loc 7 409 0
 820 0010 08BD     		pop	{r3, pc}
 821              		.cfi_endproc
 822              	.LFE246:
 823              		.size	chSchRescheduleS, .-chSchRescheduleS
 824 0012 00BFAFF3 		.section	.text.chSchIsPreemptionRequired,"ax",%progbits
 824      0080AFF3 
 824      0080AFF3 
 824      0080
 825              		.align	2
 826              		.p2align 4,,15
 827              		.global	chSchIsPreemptionRequired
 828              		.thumb
 829              		.thumb_func
 830              		.type	chSchIsPreemptionRequired, %function
ARM GAS  /tmp/ccCDvVXP.s 			page 16


 831              	chSchIsPreemptionRequired:
 832              	.LFB247:
 833              		.loc 7 424 0
 834              		.cfi_startproc
 835              		@ args = 0, pretend = 0, frame = 8
 836              		@ frame_needed = 0, uses_anonymous_args = 0
 837              		@ link register save eliminated.
 838 0000 82B0     		sub	sp, sp, #8
 839              		.cfi_def_cfa_offset 8
 840              		.loc 7 425 0
 841 0002 094B     		ldr	r3, .L56
 842 0004 1B68     		ldr	r3, [r3]
 843 0006 9B68     		ldr	r3, [r3, #8]
 844 0008 0193     		str	r3, [sp, #4]
 845              		.loc 7 426 0
 846 000a 074B     		ldr	r3, .L56
 847 000c 9B69     		ldr	r3, [r3, #24]
 848 000e 9B68     		ldr	r3, [r3, #8]
 849 0010 0093     		str	r3, [sp]
 850              		.loc 7 437 0
 851 0012 019A     		ldr	r2, [sp, #4]
 852 0014 009B     		ldr	r3, [sp]
 853 0016 9A42     		cmp	r2, r3
 854 0018 94BF     		ite	ls
 855 001a 0023     		movls	r3, #0
 856 001c 0123     		movhi	r3, #1
 857 001e DBB2     		uxtb	r3, r3
 858              		.loc 7 439 0
 859 0020 1846     		mov	r0, r3
 860 0022 02B0     		add	sp, sp, #8
 861              		@ sp needed
 862 0024 7047     		bx	lr
 863              	.L57:
 864 0026 00BF     		.align	2
 865              	.L56:
 866 0028 00000000 		.word	ch
 867              		.cfi_endproc
 868              	.LFE247:
 869              		.size	chSchIsPreemptionRequired, .-chSchIsPreemptionRequired
 870 002c AFF30080 		.section	.text.chSchDoRescheduleBehind,"ax",%progbits
 871              		.align	2
 872              		.p2align 4,,15
 873              		.global	chSchDoRescheduleBehind
 874              		.thumb
 875              		.thumb_func
 876              		.type	chSchDoRescheduleBehind, %function
 877              	chSchDoRescheduleBehind:
 878              	.LFB248:
 879              		.loc 7 451 0
 880              		.cfi_startproc
 881              		@ args = 0, pretend = 0, frame = 8
 882              		@ frame_needed = 0, uses_anonymous_args = 0
 883 0000 00B5     		push	{lr}
 884              		.cfi_def_cfa_offset 4
 885              		.cfi_offset 14, -4
 886 0002 83B0     		sub	sp, sp, #12
 887              		.cfi_def_cfa_offset 16
ARM GAS  /tmp/ccCDvVXP.s 			page 17


 888              		.loc 7 454 0
 889 0004 0C4B     		ldr	r3, .L59
 890 0006 9B69     		ldr	r3, [r3, #24]
 891 0008 0193     		str	r3, [sp, #4]
 892              		.loc 7 456 0
 893 000a 0B48     		ldr	r0, .L59
 894 000c FFF7FEFF 		bl	queue_fifo_remove
 895 0010 0246     		mov	r2, r0
 896 0012 094B     		ldr	r3, .L59
 897 0014 9A61     		str	r2, [r3, #24]
 898              		.loc 7 462 0
 899 0016 084B     		ldr	r3, .L59
 900 0018 9B69     		ldr	r3, [r3, #24]
 901 001a 0122     		movs	r2, #1
 902 001c 1A77     		strb	r2, [r3, #28]
 903              		.loc 7 466 0
 904 001e 0198     		ldr	r0, [sp, #4]
 905 0020 FFF7FEFF 		bl	chSchReadyI
 906              		.loc 7 467 0
 907 0024 044B     		ldr	r3, .L59
 908 0026 9B69     		ldr	r3, [r3, #24]
 909 0028 1846     		mov	r0, r3
 910 002a 0199     		ldr	r1, [sp, #4]
 911 002c FFF7FEFF 		bl	_port_switch
 912              		.loc 7 468 0
 913 0030 03B0     		add	sp, sp, #12
 914              		@ sp needed
 915 0032 5DF804FB 		ldr	pc, [sp], #4
 916              	.L60:
 917 0036 00BF     		.align	2
 918              	.L59:
 919 0038 00000000 		.word	ch
 920              		.cfi_endproc
 921              	.LFE248:
 922              		.size	chSchDoRescheduleBehind, .-chSchDoRescheduleBehind
 923 003c AFF30080 		.section	.text.chSchDoRescheduleAhead,"ax",%progbits
 924              		.align	2
 925              		.p2align 4,,15
 926              		.global	chSchDoRescheduleAhead
 927              		.thumb
 928              		.thumb_func
 929              		.type	chSchDoRescheduleAhead, %function
 930              	chSchDoRescheduleAhead:
 931              	.LFB249:
 932              		.loc 7 479 0
 933              		.cfi_startproc
 934              		@ args = 0, pretend = 0, frame = 8
 935              		@ frame_needed = 0, uses_anonymous_args = 0
 936 0000 00B5     		push	{lr}
 937              		.cfi_def_cfa_offset 4
 938              		.cfi_offset 14, -4
 939 0002 83B0     		sub	sp, sp, #12
 940              		.cfi_def_cfa_offset 16
 941              		.loc 7 482 0
 942 0004 184B     		ldr	r3, .L63
 943 0006 9B69     		ldr	r3, [r3, #24]
 944 0008 0093     		str	r3, [sp]
ARM GAS  /tmp/ccCDvVXP.s 			page 18


 945              		.loc 7 484 0
 946 000a 1748     		ldr	r0, .L63
 947 000c FFF7FEFF 		bl	queue_fifo_remove
 948 0010 0246     		mov	r2, r0
 949 0012 154B     		ldr	r3, .L63
 950 0014 9A61     		str	r2, [r3, #24]
 951              		.loc 7 490 0
 952 0016 144B     		ldr	r3, .L63
 953 0018 9B69     		ldr	r3, [r3, #24]
 954 001a 0122     		movs	r2, #1
 955 001c 1A77     		strb	r2, [r3, #28]
 956              		.loc 7 492 0
 957 001e 009B     		ldr	r3, [sp]
 958 0020 0022     		movs	r2, #0
 959 0022 1A77     		strb	r2, [r3, #28]
 960              		.loc 7 493 0
 961 0024 104B     		ldr	r3, .L63
 962 0026 0193     		str	r3, [sp, #4]
 963              	.L62:
 964              		.loc 7 495 0 discriminator 1
 965 0028 019B     		ldr	r3, [sp, #4]
 966 002a 1B68     		ldr	r3, [r3]
 967 002c 0193     		str	r3, [sp, #4]
 968              		.loc 7 496 0 discriminator 1
 969 002e 019B     		ldr	r3, [sp, #4]
 970 0030 9A68     		ldr	r2, [r3, #8]
 971 0032 009B     		ldr	r3, [sp]
 972 0034 9B68     		ldr	r3, [r3, #8]
 973 0036 9A42     		cmp	r2, r3
 974 0038 F6D8     		bhi	.L62
 975              		.loc 7 498 0
 976 003a 009B     		ldr	r3, [sp]
 977 003c 019A     		ldr	r2, [sp, #4]
 978 003e 1A60     		str	r2, [r3]
 979              		.loc 7 499 0
 980 0040 019B     		ldr	r3, [sp, #4]
 981 0042 5A68     		ldr	r2, [r3, #4]
 982 0044 009B     		ldr	r3, [sp]
 983 0046 5A60     		str	r2, [r3, #4]
 984              		.loc 7 500 0
 985 0048 009B     		ldr	r3, [sp]
 986 004a 5B68     		ldr	r3, [r3, #4]
 987 004c 009A     		ldr	r2, [sp]
 988 004e 1A60     		str	r2, [r3]
 989              		.loc 7 501 0
 990 0050 019B     		ldr	r3, [sp, #4]
 991 0052 009A     		ldr	r2, [sp]
 992 0054 5A60     		str	r2, [r3, #4]
 993              		.loc 7 503 0
 994 0056 044B     		ldr	r3, .L63
 995 0058 9B69     		ldr	r3, [r3, #24]
 996 005a 1846     		mov	r0, r3
 997 005c 0099     		ldr	r1, [sp]
 998 005e FFF7FEFF 		bl	_port_switch
 999              		.loc 7 504 0
 1000 0062 03B0     		add	sp, sp, #12
 1001              		@ sp needed
ARM GAS  /tmp/ccCDvVXP.s 			page 19


 1002 0064 5DF804FB 		ldr	pc, [sp], #4
 1003              	.L64:
 1004              		.align	2
 1005              	.L63:
 1006 0068 00000000 		.word	ch
 1007              		.cfi_endproc
 1008              	.LFE249:
 1009              		.size	chSchDoRescheduleAhead, .-chSchDoRescheduleAhead
 1010 006c AFF30080 		.section	.text.chSchDoReschedule,"ax",%progbits
 1011              		.align	2
 1012              		.p2align 4,,15
 1013              		.global	chSchDoReschedule
 1014              		.thumb
 1015              		.thumb_func
 1016              		.type	chSchDoReschedule, %function
 1017              	chSchDoReschedule:
 1018              	.LFB250:
 1019              		.loc 7 516 0
 1020              		.cfi_startproc
 1021              		@ args = 0, pretend = 0, frame = 0
 1022              		@ frame_needed = 0, uses_anonymous_args = 0
 1023 0000 08B5     		push	{r3, lr}
 1024              		.cfi_def_cfa_offset 8
 1025              		.cfi_offset 3, -8
 1026              		.cfi_offset 14, -4
 1027              		.loc 7 534 0
 1028 0002 FFF7FEFF 		bl	chSchDoRescheduleAhead
 1029              		.loc 7 536 0
 1030 0006 08BD     		pop	{r3, pc}
 1031              		.cfi_endproc
 1032              	.LFE250:
 1033              		.size	chSchDoReschedule, .-chSchDoReschedule
 1034 0008 AFF30080 		.text
 1034      AFF30080 
 1035              	.Letext0:
 1036              		.file 8 "/usr/lib/gcc/arm-none-eabi/4.8/include/stddef.h"
 1037              		.file 9 "/usr/include/newlib/machine/_default_types.h"
 1038              		.file 10 "/usr/include/newlib/stdint.h"
 1039              		.file 11 "/home/efe/ChibiOS/os/rt/ports/ARMCMx/compilers/GCC/chtypes.h"
 1040              		.file 12 "/home/efe/ChibiOS/os/rt/include/chsystypes.h"
 1041              		.file 13 "/home/efe/ChibiOS/os/rt/ports/ARMCMx/chcore.h"
 1042              		.file 14 "/home/efe/ChibiOS/os/rt/include/chtm.h"
 1043              		.file 15 "/home/efe/ChibiOS/os/rt/include/chmtx.h"
 1044              		.file 16 "/home/efe/ChibiOS/os/ext/CMSIS/include/core_cm4.h"