ARM GAS  /tmp/cc6QHRP1.s 			page 1


   1              		.syntax unified
   2              		.cpu cortex-m4
   3              		.fpu softvfp
   4              		.eabi_attribute 20, 1
   5              		.eabi_attribute 21, 1
   6              		.eabi_attribute 23, 3
   7              		.eabi_attribute 24, 1
   8              		.eabi_attribute 25, 1
   9              		.eabi_attribute 26, 1
  10              		.eabi_attribute 30, 6
  11              		.eabi_attribute 34, 1
  12              		.eabi_attribute 18, 4
  13              		.thumb
  14              		.file	"chsem.c"
  15              		.text
  16              	.Ltext0:
  17              		.cfi_sections	.debug_frame
  18              		.section	.text.port_lock,"ax",%progbits
  19              		.align	2
  20              		.p2align 4,,15
  21              		.thumb
  22              		.thumb_func
  23              		.type	port_lock, %function
  24              	port_lock:
  25              	.LFB127:
  26              		.file 1 "/home/efe/ChibiOS/os/rt/ports/ARMCMx/chcore_v7m.h"
  27              		.loc 1 456 0
  28              		.cfi_startproc
  29              		@ args = 0, pretend = 0, frame = 8
  30              		@ frame_needed = 0, uses_anonymous_args = 0
  31              		@ link register save eliminated.
  32 0000 82B0     		sub	sp, sp, #8
  33              		.cfi_def_cfa_offset 8
  34 0002 2023     		movs	r3, #32
  35 0004 0193     		str	r3, [sp, #4]
  36              	.LBB6:
  37              	.LBB7:
  38              		.file 2 "/home/efe/ChibiOS/os/ext/CMSIS/include/core_cmFunc.h"
  39              		.loc 2 548 0
  40 0006 019B     		ldr	r3, [sp, #4]
  41              	@ 548 "/home/efe/ChibiOS/os/ext/CMSIS/include/core_cmFunc.h" 1
  42 0008 83F31188 		MSR basepri, r3
  43              	@ 0 "" 2
  44              		.thumb
  45              	.LBE7:
  46              	.LBE6:
  47              		.loc 1 463 0
  48 000c 02B0     		add	sp, sp, #8
  49              		@ sp needed
  50 000e 7047     		bx	lr
  51              		.cfi_endproc
  52              	.LFE127:
  53              		.size	port_lock, .-port_lock
  54              		.section	.text.port_unlock,"ax",%progbits
  55              		.align	2
  56              		.p2align 4,,15
  57              		.thumb
ARM GAS  /tmp/cc6QHRP1.s 			page 2


  58              		.thumb_func
  59              		.type	port_unlock, %function
  60              	port_unlock:
  61              	.LFB128:
  62              		.loc 1 470 0
  63              		.cfi_startproc
  64              		@ args = 0, pretend = 0, frame = 8
  65              		@ frame_needed = 0, uses_anonymous_args = 0
  66              		@ link register save eliminated.
  67 0000 82B0     		sub	sp, sp, #8
  68              		.cfi_def_cfa_offset 8
  69 0002 0023     		movs	r3, #0
  70 0004 0193     		str	r3, [sp, #4]
  71              	.LBB8:
  72              	.LBB9:
  73              		.loc 2 548 0
  74 0006 019B     		ldr	r3, [sp, #4]
  75              	@ 548 "/home/efe/ChibiOS/os/ext/CMSIS/include/core_cmFunc.h" 1
  76 0008 83F31188 		MSR basepri, r3
  77              	@ 0 "" 2
  78              		.thumb
  79              	.LBE9:
  80              	.LBE8:
  81              		.loc 1 477 0
  82 000c 02B0     		add	sp, sp, #8
  83              		@ sp needed
  84 000e 7047     		bx	lr
  85              		.cfi_endproc
  86              	.LFE128:
  87              		.size	port_unlock, .-port_unlock
  88              		.section	.text.queue_init,"ax",%progbits
  89              		.align	2
  90              		.p2align 4,,15
  91              		.thumb
  92              		.thumb_func
  93              		.type	queue_init, %function
  94              	queue_init:
  95              	.LFB150:
  96              		.file 3 "/home/efe/ChibiOS/os/rt/include/chschd.h"
  97              		.loc 3 602 0
  98              		.cfi_startproc
  99              		@ args = 0, pretend = 0, frame = 8
 100              		@ frame_needed = 0, uses_anonymous_args = 0
 101              		@ link register save eliminated.
 102 0000 82B0     		sub	sp, sp, #8
 103              		.cfi_def_cfa_offset 8
 104 0002 0190     		str	r0, [sp, #4]
 105              		.loc 3 604 0
 106 0004 019B     		ldr	r3, [sp, #4]
 107 0006 019A     		ldr	r2, [sp, #4]
 108 0008 1A60     		str	r2, [r3]
 109              		.loc 3 605 0
 110 000a 019B     		ldr	r3, [sp, #4]
 111 000c 019A     		ldr	r2, [sp, #4]
 112 000e 5A60     		str	r2, [r3, #4]
 113              		.loc 3 606 0
 114 0010 02B0     		add	sp, sp, #8
ARM GAS  /tmp/cc6QHRP1.s 			page 3


 115              		@ sp needed
 116 0012 7047     		bx	lr
 117              		.cfi_endproc
 118              	.LFE150:
 119              		.size	queue_init, .-queue_init
 120 0014 AFF30080 		.section	.text.queue_insert,"ax",%progbits
 120      AFF30080 
 120      AFF30080 
 121              		.align	2
 122              		.p2align 4,,15
 123              		.thumb
 124              		.thumb_func
 125              		.type	queue_insert, %function
 126              	queue_insert:
 127              	.LFB156:
 128              		.loc 3 663 0
 129              		.cfi_startproc
 130              		@ args = 0, pretend = 0, frame = 8
 131              		@ frame_needed = 0, uses_anonymous_args = 0
 132              		@ link register save eliminated.
 133 0000 82B0     		sub	sp, sp, #8
 134              		.cfi_def_cfa_offset 8
 135 0002 0190     		str	r0, [sp, #4]
 136 0004 0091     		str	r1, [sp]
 137              		.loc 3 665 0
 138 0006 019B     		ldr	r3, [sp, #4]
 139 0008 009A     		ldr	r2, [sp]
 140 000a 1A60     		str	r2, [r3]
 141              		.loc 3 666 0
 142 000c 009B     		ldr	r3, [sp]
 143 000e 5A68     		ldr	r2, [r3, #4]
 144 0010 019B     		ldr	r3, [sp, #4]
 145 0012 5A60     		str	r2, [r3, #4]
 146              		.loc 3 667 0
 147 0014 019B     		ldr	r3, [sp, #4]
 148 0016 5B68     		ldr	r3, [r3, #4]
 149 0018 019A     		ldr	r2, [sp, #4]
 150 001a 1A60     		str	r2, [r3]
 151              		.loc 3 668 0
 152 001c 009B     		ldr	r3, [sp]
 153 001e 019A     		ldr	r2, [sp, #4]
 154 0020 5A60     		str	r2, [r3, #4]
 155              		.loc 3 669 0
 156 0022 02B0     		add	sp, sp, #8
 157              		@ sp needed
 158 0024 7047     		bx	lr
 159              		.cfi_endproc
 160              	.LFE156:
 161              		.size	queue_insert, .-queue_insert
 162 0026 00BFAFF3 		.section	.text.queue_fifo_remove,"ax",%progbits
 162      0080AFF3 
 162      0080
 163              		.align	2
 164              		.p2align 4,,15
 165              		.thumb
 166              		.thumb_func
 167              		.type	queue_fifo_remove, %function
ARM GAS  /tmp/cc6QHRP1.s 			page 4


 168              	queue_fifo_remove:
 169              	.LFB157:
 170              		.loc 3 671 0
 171              		.cfi_startproc
 172              		@ args = 0, pretend = 0, frame = 16
 173              		@ frame_needed = 0, uses_anonymous_args = 0
 174              		@ link register save eliminated.
 175 0000 84B0     		sub	sp, sp, #16
 176              		.cfi_def_cfa_offset 16
 177 0002 0190     		str	r0, [sp, #4]
 178              		.loc 3 672 0
 179 0004 019B     		ldr	r3, [sp, #4]
 180 0006 1B68     		ldr	r3, [r3]
 181 0008 0393     		str	r3, [sp, #12]
 182              		.loc 3 674 0
 183 000a 039B     		ldr	r3, [sp, #12]
 184 000c 1A68     		ldr	r2, [r3]
 185 000e 019B     		ldr	r3, [sp, #4]
 186 0010 1A60     		str	r2, [r3]
 187              		.loc 3 675 0
 188 0012 019B     		ldr	r3, [sp, #4]
 189 0014 1B68     		ldr	r3, [r3]
 190 0016 019A     		ldr	r2, [sp, #4]
 191 0018 5A60     		str	r2, [r3, #4]
 192              		.loc 3 677 0
 193 001a 039B     		ldr	r3, [sp, #12]
 194              		.loc 3 678 0
 195 001c 1846     		mov	r0, r3
 196 001e 04B0     		add	sp, sp, #16
 197              		@ sp needed
 198 0020 7047     		bx	lr
 199              		.cfi_endproc
 200              	.LFE157:
 201              		.size	queue_fifo_remove, .-queue_fifo_remove
 202 0022 00BFAFF3 		.section	.text.queue_lifo_remove,"ax",%progbits
 202      0080AFF3 
 202      0080AFF3 
 202      0080
 203              		.align	2
 204              		.p2align 4,,15
 205              		.thumb
 206              		.thumb_func
 207              		.type	queue_lifo_remove, %function
 208              	queue_lifo_remove:
 209              	.LFB158:
 210              		.loc 3 680 0
 211              		.cfi_startproc
 212              		@ args = 0, pretend = 0, frame = 16
 213              		@ frame_needed = 0, uses_anonymous_args = 0
 214              		@ link register save eliminated.
 215 0000 84B0     		sub	sp, sp, #16
 216              		.cfi_def_cfa_offset 16
 217 0002 0190     		str	r0, [sp, #4]
 218              		.loc 3 681 0
 219 0004 019B     		ldr	r3, [sp, #4]
 220 0006 5B68     		ldr	r3, [r3, #4]
 221 0008 0393     		str	r3, [sp, #12]
ARM GAS  /tmp/cc6QHRP1.s 			page 5


 222              		.loc 3 683 0
 223 000a 039B     		ldr	r3, [sp, #12]
 224 000c 5A68     		ldr	r2, [r3, #4]
 225 000e 019B     		ldr	r3, [sp, #4]
 226 0010 5A60     		str	r2, [r3, #4]
 227              		.loc 3 684 0
 228 0012 019B     		ldr	r3, [sp, #4]
 229 0014 5B68     		ldr	r3, [r3, #4]
 230 0016 019A     		ldr	r2, [sp, #4]
 231 0018 1A60     		str	r2, [r3]
 232              		.loc 3 686 0
 233 001a 039B     		ldr	r3, [sp, #12]
 234              		.loc 3 687 0
 235 001c 1846     		mov	r0, r3
 236 001e 04B0     		add	sp, sp, #16
 237              		@ sp needed
 238 0020 7047     		bx	lr
 239              		.cfi_endproc
 240              	.LFE158:
 241              		.size	queue_lifo_remove, .-queue_lifo_remove
 242 0022 00BFAFF3 		.section	.text.chSysLock,"ax",%progbits
 242      0080AFF3 
 242      0080AFF3 
 242      0080
 243              		.align	2
 244              		.p2align 4,,15
 245              		.thumb
 246              		.thumb_func
 247              		.type	chSysLock, %function
 248              	chSysLock:
 249              	.LFB167:
 250              		.file 4 "/home/efe/ChibiOS/os/rt/include/chsys.h"
 251              		.loc 4 346 0
 252              		.cfi_startproc
 253              		@ args = 0, pretend = 0, frame = 0
 254              		@ frame_needed = 0, uses_anonymous_args = 0
 255 0000 08B5     		push	{r3, lr}
 256              		.cfi_def_cfa_offset 8
 257              		.cfi_offset 3, -8
 258              		.cfi_offset 14, -4
 259              		.loc 4 348 0
 260 0002 FFF7FEFF 		bl	port_lock
 261              		.loc 4 351 0
 262 0006 08BD     		pop	{r3, pc}
 263              		.cfi_endproc
 264              	.LFE167:
 265              		.size	chSysLock, .-chSysLock
 266 0008 AFF30080 		.section	.text.chSysUnlock,"ax",%progbits
 266      AFF30080 
 267              		.align	2
 268              		.p2align 4,,15
 269              		.thumb
 270              		.thumb_func
 271              		.type	chSysUnlock, %function
 272              	chSysUnlock:
 273              	.LFB168:
 274              		.loc 4 358 0
ARM GAS  /tmp/cc6QHRP1.s 			page 6


 275              		.cfi_startproc
 276              		@ args = 0, pretend = 0, frame = 0
 277              		@ frame_needed = 0, uses_anonymous_args = 0
 278 0000 08B5     		push	{r3, lr}
 279              		.cfi_def_cfa_offset 8
 280              		.cfi_offset 3, -8
 281              		.cfi_offset 14, -4
 282              		.loc 4 371 0
 283 0002 FFF7FEFF 		bl	port_unlock
 284              		.loc 4 372 0
 285 0006 08BD     		pop	{r3, pc}
 286              		.cfi_endproc
 287              	.LFE168:
 288              		.size	chSysUnlock, .-chSysUnlock
 289 0008 AFF30080 		.section	.text.chSemObjectInit,"ax",%progbits
 289      AFF30080 
 290              		.align	2
 291              		.p2align 4,,15
 292              		.global	chSemObjectInit
 293              		.thumb
 294              		.thumb_func
 295              		.type	chSemObjectInit, %function
 296              	chSemObjectInit:
 297              	.LFB240:
 298              		.file 5 "/home/efe/ChibiOS/os/rt/src/chsem.c"
 299              		.loc 5 97 0
 300              		.cfi_startproc
 301              		@ args = 0, pretend = 0, frame = 8
 302              		@ frame_needed = 0, uses_anonymous_args = 0
 303 0000 00B5     		push	{lr}
 304              		.cfi_def_cfa_offset 4
 305              		.cfi_offset 14, -4
 306 0002 83B0     		sub	sp, sp, #12
 307              		.cfi_def_cfa_offset 16
 308 0004 0190     		str	r0, [sp, #4]
 309 0006 0091     		str	r1, [sp]
 310              		.loc 5 101 0
 311 0008 019B     		ldr	r3, [sp, #4]
 312 000a 1846     		mov	r0, r3
 313 000c FFF7FEFF 		bl	queue_init
 314              		.loc 5 102 0
 315 0010 019B     		ldr	r3, [sp, #4]
 316 0012 009A     		ldr	r2, [sp]
 317 0014 9A60     		str	r2, [r3, #8]
 318              		.loc 5 103 0
 319 0016 03B0     		add	sp, sp, #12
 320              		@ sp needed
 321 0018 5DF804FB 		ldr	pc, [sp], #4
 322              		.cfi_endproc
 323              	.LFE240:
 324              		.size	chSemObjectInit, .-chSemObjectInit
 325 001c AFF30080 		.section	.text.chSemReset,"ax",%progbits
 326              		.align	2
 327              		.p2align 4,,15
 328              		.global	chSemReset
 329              		.thumb
 330              		.thumb_func
ARM GAS  /tmp/cc6QHRP1.s 			page 7


 331              		.type	chSemReset, %function
 332              	chSemReset:
 333              	.LFB241:
 334              		.loc 5 120 0
 335              		.cfi_startproc
 336              		@ args = 0, pretend = 0, frame = 8
 337              		@ frame_needed = 0, uses_anonymous_args = 0
 338 0000 00B5     		push	{lr}
 339              		.cfi_def_cfa_offset 4
 340              		.cfi_offset 14, -4
 341 0002 83B0     		sub	sp, sp, #12
 342              		.cfi_def_cfa_offset 16
 343 0004 0190     		str	r0, [sp, #4]
 344 0006 0091     		str	r1, [sp]
 345              		.loc 5 122 0
 346 0008 FFF7FEFF 		bl	chSysLock
 347              		.loc 5 123 0
 348 000c 0198     		ldr	r0, [sp, #4]
 349 000e 0099     		ldr	r1, [sp]
 350 0010 FFF7FEFF 		bl	chSemResetI
 351              		.loc 5 124 0
 352 0014 FFF7FEFF 		bl	chSchRescheduleS
 353              		.loc 5 125 0
 354 0018 FFF7FEFF 		bl	chSysUnlock
 355              		.loc 5 126 0
 356 001c 03B0     		add	sp, sp, #12
 357              		@ sp needed
 358 001e 5DF804FB 		ldr	pc, [sp], #4
 359              		.cfi_endproc
 360              	.LFE241:
 361              		.size	chSemReset, .-chSemReset
 362 0022 00BFAFF3 		.section	.text.chSemResetI,"ax",%progbits
 362      0080AFF3 
 362      0080AFF3 
 362      0080
 363              		.align	2
 364              		.p2align 4,,15
 365              		.global	chSemResetI
 366              		.thumb
 367              		.thumb_func
 368              		.type	chSemResetI, %function
 369              	chSemResetI:
 370              	.LFB242:
 371              		.loc 5 147 0
 372              		.cfi_startproc
 373              		@ args = 0, pretend = 0, frame = 16
 374              		@ frame_needed = 0, uses_anonymous_args = 0
 375 0000 00B5     		push	{lr}
 376              		.cfi_def_cfa_offset 4
 377              		.cfi_offset 14, -4
 378 0002 85B0     		sub	sp, sp, #20
 379              		.cfi_def_cfa_offset 24
 380 0004 0190     		str	r0, [sp, #4]
 381 0006 0091     		str	r1, [sp]
 382              		.loc 5 156 0
 383 0008 019B     		ldr	r3, [sp, #4]
 384 000a 9B68     		ldr	r3, [r3, #8]
ARM GAS  /tmp/cc6QHRP1.s 			page 8


 385 000c 0393     		str	r3, [sp, #12]
 386              		.loc 5 157 0
 387 000e 019B     		ldr	r3, [sp, #4]
 388 0010 009A     		ldr	r2, [sp]
 389 0012 9A60     		str	r2, [r3, #8]
 390              		.loc 5 158 0
 391 0014 0BE0     		b	.L14
 392              	.L15:
 393              		.loc 5 159 0
 394 0016 019B     		ldr	r3, [sp, #4]
 395 0018 1846     		mov	r0, r3
 396 001a FFF7FEFF 		bl	queue_lifo_remove
 397 001e 0346     		mov	r3, r0
 398 0020 1846     		mov	r0, r3
 399 0022 FFF7FEFF 		bl	chSchReadyI
 400 0026 0346     		mov	r3, r0
 401 0028 6FF00102 		mvn	r2, #1
 402 002c 1A62     		str	r2, [r3, #32]
 403              	.L14:
 404              		.loc 5 158 0 discriminator 1
 405 002e 039B     		ldr	r3, [sp, #12]
 406 0030 0133     		adds	r3, r3, #1
 407 0032 0393     		str	r3, [sp, #12]
 408 0034 039B     		ldr	r3, [sp, #12]
 409 0036 002B     		cmp	r3, #0
 410 0038 EDDD     		ble	.L15
 411              		.loc 5 161 0
 412 003a 05B0     		add	sp, sp, #20
 413              		@ sp needed
 414 003c 5DF804FB 		ldr	pc, [sp], #4
 415              		.cfi_endproc
 416              	.LFE242:
 417              		.size	chSemResetI, .-chSemResetI
 418              		.section	.text.chSemWait,"ax",%progbits
 419              		.align	2
 420              		.p2align 4,,15
 421              		.global	chSemWait
 422              		.thumb
 423              		.thumb_func
 424              		.type	chSemWait, %function
 425              	chSemWait:
 426              	.LFB243:
 427              		.loc 5 175 0
 428              		.cfi_startproc
 429              		@ args = 0, pretend = 0, frame = 16
 430              		@ frame_needed = 0, uses_anonymous_args = 0
 431 0000 00B5     		push	{lr}
 432              		.cfi_def_cfa_offset 4
 433              		.cfi_offset 14, -4
 434 0002 85B0     		sub	sp, sp, #20
 435              		.cfi_def_cfa_offset 24
 436 0004 0190     		str	r0, [sp, #4]
 437              		.loc 5 178 0
 438 0006 FFF7FEFF 		bl	chSysLock
 439              		.loc 5 179 0
 440 000a 0198     		ldr	r0, [sp, #4]
 441 000c FFF7FEFF 		bl	chSemWaitS
ARM GAS  /tmp/cc6QHRP1.s 			page 9


 442 0010 0390     		str	r0, [sp, #12]
 443              		.loc 5 180 0
 444 0012 FFF7FEFF 		bl	chSysUnlock
 445              		.loc 5 182 0
 446 0016 039B     		ldr	r3, [sp, #12]
 447              		.loc 5 183 0
 448 0018 1846     		mov	r0, r3
 449 001a 05B0     		add	sp, sp, #20
 450              		@ sp needed
 451 001c 5DF804FB 		ldr	pc, [sp], #4
 452              		.cfi_endproc
 453              	.LFE243:
 454              		.size	chSemWait, .-chSemWait
 455              		.section	.text.chSemWaitS,"ax",%progbits
 456              		.align	2
 457              		.p2align 4,,15
 458              		.global	chSemWaitS
 459              		.thumb
 460              		.thumb_func
 461              		.type	chSemWaitS, %function
 462              	chSemWaitS:
 463              	.LFB244:
 464              		.loc 5 197 0
 465              		.cfi_startproc
 466              		@ args = 0, pretend = 0, frame = 8
 467              		@ frame_needed = 0, uses_anonymous_args = 0
 468 0000 00B5     		push	{lr}
 469              		.cfi_def_cfa_offset 4
 470              		.cfi_offset 14, -4
 471 0002 83B0     		sub	sp, sp, #12
 472              		.cfi_def_cfa_offset 16
 473 0004 0190     		str	r0, [sp, #4]
 474              		.loc 5 205 0
 475 0006 019B     		ldr	r3, [sp, #4]
 476 0008 9B68     		ldr	r3, [r3, #8]
 477 000a 5A1E     		subs	r2, r3, #1
 478 000c 019B     		ldr	r3, [sp, #4]
 479 000e 9A60     		str	r2, [r3, #8]
 480 0010 019B     		ldr	r3, [sp, #4]
 481 0012 9B68     		ldr	r3, [r3, #8]
 482 0014 002B     		cmp	r3, #0
 483 0016 11DA     		bge	.L19
 484              		.loc 5 206 0
 485 0018 0B4B     		ldr	r3, .L21
 486 001a 9B69     		ldr	r3, [r3, #24]
 487 001c 019A     		ldr	r2, [sp, #4]
 488 001e 1A62     		str	r2, [r3, #32]
 489              		.loc 5 207 0
 490 0020 094B     		ldr	r3, .L21
 491 0022 9A69     		ldr	r2, [r3, #24]
 492 0024 019B     		ldr	r3, [sp, #4]
 493 0026 1046     		mov	r0, r2
 494 0028 1946     		mov	r1, r3
 495 002a FFF7FEFF 		bl	queue_insert
 496              		.loc 5 208 0
 497 002e 0520     		movs	r0, #5
 498 0030 FFF7FEFF 		bl	chSchGoSleepS
ARM GAS  /tmp/cc6QHRP1.s 			page 10


 499              		.loc 5 210 0
 500 0034 044B     		ldr	r3, .L21
 501 0036 9B69     		ldr	r3, [r3, #24]
 502 0038 1B6A     		ldr	r3, [r3, #32]
 503 003a 00E0     		b	.L20
 504              	.L19:
 505              		.loc 5 213 0
 506 003c 0023     		movs	r3, #0
 507              	.L20:
 508              		.loc 5 214 0
 509 003e 1846     		mov	r0, r3
 510 0040 03B0     		add	sp, sp, #12
 511              		@ sp needed
 512 0042 5DF804FB 		ldr	pc, [sp], #4
 513              	.L22:
 514 0046 00BF     		.align	2
 515              	.L21:
 516 0048 00000000 		.word	ch
 517              		.cfi_endproc
 518              	.LFE244:
 519              		.size	chSemWaitS, .-chSemWaitS
 520 004c AFF30080 		.section	.text.chSemWaitTimeout,"ax",%progbits
 521              		.align	2
 522              		.p2align 4,,15
 523              		.global	chSemWaitTimeout
 524              		.thumb
 525              		.thumb_func
 526              		.type	chSemWaitTimeout, %function
 527              	chSemWaitTimeout:
 528              	.LFB245:
 529              		.loc 5 235 0
 530              		.cfi_startproc
 531              		@ args = 0, pretend = 0, frame = 16
 532              		@ frame_needed = 0, uses_anonymous_args = 0
 533 0000 00B5     		push	{lr}
 534              		.cfi_def_cfa_offset 4
 535              		.cfi_offset 14, -4
 536 0002 85B0     		sub	sp, sp, #20
 537              		.cfi_def_cfa_offset 24
 538 0004 0190     		str	r0, [sp, #4]
 539 0006 0091     		str	r1, [sp]
 540              		.loc 5 238 0
 541 0008 FFF7FEFF 		bl	chSysLock
 542              		.loc 5 239 0
 543 000c 0198     		ldr	r0, [sp, #4]
 544 000e 0099     		ldr	r1, [sp]
 545 0010 FFF7FEFF 		bl	chSemWaitTimeoutS
 546 0014 0390     		str	r0, [sp, #12]
 547              		.loc 5 240 0
 548 0016 FFF7FEFF 		bl	chSysUnlock
 549              		.loc 5 242 0
 550 001a 039B     		ldr	r3, [sp, #12]
 551              		.loc 5 243 0
 552 001c 1846     		mov	r0, r3
 553 001e 05B0     		add	sp, sp, #20
 554              		@ sp needed
 555 0020 5DF804FB 		ldr	pc, [sp], #4
ARM GAS  /tmp/cc6QHRP1.s 			page 11


 556              		.cfi_endproc
 557              	.LFE245:
 558              		.size	chSemWaitTimeout, .-chSemWaitTimeout
 559 0024 AFF30080 		.section	.text.chSemWaitTimeoutS,"ax",%progbits
 559      AFF30080 
 559      AFF30080 
 560              		.align	2
 561              		.p2align 4,,15
 562              		.global	chSemWaitTimeoutS
 563              		.thumb
 564              		.thumb_func
 565              		.type	chSemWaitTimeoutS, %function
 566              	chSemWaitTimeoutS:
 567              	.LFB246:
 568              		.loc 5 264 0
 569              		.cfi_startproc
 570              		@ args = 0, pretend = 0, frame = 8
 571              		@ frame_needed = 0, uses_anonymous_args = 0
 572 0000 00B5     		push	{lr}
 573              		.cfi_def_cfa_offset 4
 574              		.cfi_offset 14, -4
 575 0002 83B0     		sub	sp, sp, #12
 576              		.cfi_def_cfa_offset 16
 577 0004 0190     		str	r0, [sp, #4]
 578 0006 0091     		str	r1, [sp]
 579              		.loc 5 272 0
 580 0008 019B     		ldr	r3, [sp, #4]
 581 000a 9B68     		ldr	r3, [r3, #8]
 582 000c 5A1E     		subs	r2, r3, #1
 583 000e 019B     		ldr	r3, [sp, #4]
 584 0010 9A60     		str	r2, [r3, #8]
 585 0012 019B     		ldr	r3, [sp, #4]
 586 0014 9B68     		ldr	r3, [r3, #8]
 587 0016 002B     		cmp	r3, #0
 588 0018 1BDA     		bge	.L26
 589              		.loc 5 273 0
 590 001a 009B     		ldr	r3, [sp]
 591 001c 002B     		cmp	r3, #0
 592 001e 07D1     		bne	.L27
 593              		.loc 5 274 0
 594 0020 019B     		ldr	r3, [sp, #4]
 595 0022 9B68     		ldr	r3, [r3, #8]
 596 0024 5A1C     		adds	r2, r3, #1
 597 0026 019B     		ldr	r3, [sp, #4]
 598 0028 9A60     		str	r2, [r3, #8]
 599              		.loc 5 276 0
 600 002a 4FF0FF33 		mov	r3, #-1
 601 002e 11E0     		b	.L28
 602              	.L27:
 603              		.loc 5 278 0
 604 0030 0A4B     		ldr	r3, .L29
 605 0032 9B69     		ldr	r3, [r3, #24]
 606 0034 019A     		ldr	r2, [sp, #4]
 607 0036 1A62     		str	r2, [r3, #32]
 608              		.loc 5 279 0
 609 0038 084B     		ldr	r3, .L29
 610 003a 9A69     		ldr	r2, [r3, #24]
ARM GAS  /tmp/cc6QHRP1.s 			page 12


 611 003c 019B     		ldr	r3, [sp, #4]
 612 003e 1046     		mov	r0, r2
 613 0040 1946     		mov	r1, r3
 614 0042 FFF7FEFF 		bl	queue_insert
 615              		.loc 5 281 0
 616 0046 0520     		movs	r0, #5
 617 0048 0099     		ldr	r1, [sp]
 618 004a FFF7FEFF 		bl	chSchGoSleepTimeoutS
 619 004e 0346     		mov	r3, r0
 620 0050 00E0     		b	.L28
 621              	.L26:
 622              		.loc 5 284 0
 623 0052 0023     		movs	r3, #0
 624              	.L28:
 625              		.loc 5 285 0
 626 0054 1846     		mov	r0, r3
 627 0056 03B0     		add	sp, sp, #12
 628              		@ sp needed
 629 0058 5DF804FB 		ldr	pc, [sp], #4
 630              	.L30:
 631              		.align	2
 632              	.L29:
 633 005c 00000000 		.word	ch
 634              		.cfi_endproc
 635              	.LFE246:
 636              		.size	chSemWaitTimeoutS, .-chSemWaitTimeoutS
 637              		.section	.text.chSemSignal,"ax",%progbits
 638              		.align	2
 639              		.p2align 4,,15
 640              		.global	chSemSignal
 641              		.thumb
 642              		.thumb_func
 643              		.type	chSemSignal, %function
 644              	chSemSignal:
 645              	.LFB247:
 646              		.loc 5 294 0
 647              		.cfi_startproc
 648              		@ args = 0, pretend = 0, frame = 8
 649              		@ frame_needed = 0, uses_anonymous_args = 0
 650 0000 00B5     		push	{lr}
 651              		.cfi_def_cfa_offset 4
 652              		.cfi_offset 14, -4
 653 0002 83B0     		sub	sp, sp, #12
 654              		.cfi_def_cfa_offset 16
 655 0004 0190     		str	r0, [sp, #4]
 656              		.loc 5 301 0
 657 0006 FFF7FEFF 		bl	chSysLock
 658              		.loc 5 302 0
 659 000a 019B     		ldr	r3, [sp, #4]
 660 000c 9B68     		ldr	r3, [r3, #8]
 661 000e 5A1C     		adds	r2, r3, #1
 662 0010 019B     		ldr	r3, [sp, #4]
 663 0012 9A60     		str	r2, [r3, #8]
 664 0014 019B     		ldr	r3, [sp, #4]
 665 0016 9B68     		ldr	r3, [r3, #8]
 666 0018 002B     		cmp	r3, #0
 667 001a 08DC     		bgt	.L32
ARM GAS  /tmp/cc6QHRP1.s 			page 13


 668              		.loc 5 303 0
 669 001c 019B     		ldr	r3, [sp, #4]
 670 001e 1846     		mov	r0, r3
 671 0020 FFF7FEFF 		bl	queue_fifo_remove
 672 0024 0346     		mov	r3, r0
 673 0026 1846     		mov	r0, r3
 674 0028 0021     		movs	r1, #0
 675 002a FFF7FEFF 		bl	chSchWakeupS
 676              	.L32:
 677              		.loc 5 305 0
 678 002e FFF7FEFF 		bl	chSysUnlock
 679              		.loc 5 306 0
 680 0032 03B0     		add	sp, sp, #12
 681              		@ sp needed
 682 0034 5DF804FB 		ldr	pc, [sp], #4
 683              		.cfi_endproc
 684              	.LFE247:
 685              		.size	chSemSignal, .-chSemSignal
 686 0038 AFF30080 		.section	.text.chSemSignalI,"ax",%progbits
 686      AFF30080 
 687              		.align	2
 688              		.p2align 4,,15
 689              		.global	chSemSignalI
 690              		.thumb
 691              		.thumb_func
 692              		.type	chSemSignalI, %function
 693              	chSemSignalI:
 694              	.LFB248:
 695              		.loc 5 319 0
 696              		.cfi_startproc
 697              		@ args = 0, pretend = 0, frame = 16
 698              		@ frame_needed = 0, uses_anonymous_args = 0
 699 0000 00B5     		push	{lr}
 700              		.cfi_def_cfa_offset 4
 701              		.cfi_offset 14, -4
 702 0002 85B0     		sub	sp, sp, #20
 703              		.cfi_def_cfa_offset 24
 704 0004 0190     		str	r0, [sp, #4]
 705              		.loc 5 327 0
 706 0006 019B     		ldr	r3, [sp, #4]
 707 0008 9B68     		ldr	r3, [r3, #8]
 708 000a 5A1C     		adds	r2, r3, #1
 709 000c 019B     		ldr	r3, [sp, #4]
 710 000e 9A60     		str	r2, [r3, #8]
 711 0010 019B     		ldr	r3, [sp, #4]
 712 0012 9B68     		ldr	r3, [r3, #8]
 713 0014 002B     		cmp	r3, #0
 714 0016 0ADC     		bgt	.L33
 715              	.LBB10:
 716              		.loc 5 330 0
 717 0018 019B     		ldr	r3, [sp, #4]
 718 001a 1846     		mov	r0, r3
 719 001c FFF7FEFF 		bl	queue_fifo_remove
 720 0020 0390     		str	r0, [sp, #12]
 721              		.loc 5 331 0
 722 0022 039B     		ldr	r3, [sp, #12]
 723 0024 0022     		movs	r2, #0
ARM GAS  /tmp/cc6QHRP1.s 			page 14


 724 0026 1A62     		str	r2, [r3, #32]
 725              		.loc 5 332 0
 726 0028 0398     		ldr	r0, [sp, #12]
 727 002a FFF7FEFF 		bl	chSchReadyI
 728              	.L33:
 729              	.LBE10:
 730              		.loc 5 334 0
 731 002e 05B0     		add	sp, sp, #20
 732              		@ sp needed
 733 0030 5DF804FB 		ldr	pc, [sp], #4
 734              		.cfi_endproc
 735              	.LFE248:
 736              		.size	chSemSignalI, .-chSemSignalI
 737 0034 AFF30080 		.section	.text.chSemAddCounterI,"ax",%progbits
 737      AFF30080 
 737      AFF30080 
 738              		.align	2
 739              		.p2align 4,,15
 740              		.global	chSemAddCounterI
 741              		.thumb
 742              		.thumb_func
 743              		.type	chSemAddCounterI, %function
 744              	chSemAddCounterI:
 745              	.LFB249:
 746              		.loc 5 349 0
 747              		.cfi_startproc
 748              		@ args = 0, pretend = 0, frame = 8
 749              		@ frame_needed = 0, uses_anonymous_args = 0
 750 0000 00B5     		push	{lr}
 751              		.cfi_def_cfa_offset 4
 752              		.cfi_offset 14, -4
 753 0002 83B0     		sub	sp, sp, #12
 754              		.cfi_def_cfa_offset 16
 755 0004 0190     		str	r0, [sp, #4]
 756 0006 0091     		str	r1, [sp]
 757              		.loc 5 357 0
 758 0008 16E0     		b	.L36
 759              	.L38:
 760              		.loc 5 358 0
 761 000a 019B     		ldr	r3, [sp, #4]
 762 000c 9B68     		ldr	r3, [r3, #8]
 763 000e 5A1C     		adds	r2, r3, #1
 764 0010 019B     		ldr	r3, [sp, #4]
 765 0012 9A60     		str	r2, [r3, #8]
 766 0014 019B     		ldr	r3, [sp, #4]
 767 0016 9B68     		ldr	r3, [r3, #8]
 768 0018 002B     		cmp	r3, #0
 769 001a 0ADC     		bgt	.L37
 770              		.loc 5 359 0
 771 001c 019B     		ldr	r3, [sp, #4]
 772 001e 1846     		mov	r0, r3
 773 0020 FFF7FEFF 		bl	queue_fifo_remove
 774 0024 0346     		mov	r3, r0
 775 0026 1846     		mov	r0, r3
 776 0028 FFF7FEFF 		bl	chSchReadyI
 777 002c 0346     		mov	r3, r0
 778 002e 0022     		movs	r2, #0
ARM GAS  /tmp/cc6QHRP1.s 			page 15


 779 0030 1A62     		str	r2, [r3, #32]
 780              	.L37:
 781              		.loc 5 361 0
 782 0032 009B     		ldr	r3, [sp]
 783 0034 013B     		subs	r3, r3, #1
 784 0036 0093     		str	r3, [sp]
 785              	.L36:
 786              		.loc 5 357 0 discriminator 1
 787 0038 009B     		ldr	r3, [sp]
 788 003a 002B     		cmp	r3, #0
 789 003c E5DC     		bgt	.L38
 790              		.loc 5 363 0
 791 003e 03B0     		add	sp, sp, #12
 792              		@ sp needed
 793 0040 5DF804FB 		ldr	pc, [sp], #4
 794              		.cfi_endproc
 795              	.LFE249:
 796              		.size	chSemAddCounterI, .-chSemAddCounterI
 797 0044 AFF30080 		.section	.text.chSemSignalWait,"ax",%progbits
 797      AFF30080 
 797      AFF30080 
 798              		.align	2
 799              		.p2align 4,,15
 800              		.global	chSemSignalWait
 801              		.thumb
 802              		.thumb_func
 803              		.type	chSemSignalWait, %function
 804              	chSemSignalWait:
 805              	.LFB250:
 806              		.loc 5 378 0
 807              		.cfi_startproc
 808              		@ args = 0, pretend = 0, frame = 16
 809              		@ frame_needed = 0, uses_anonymous_args = 0
 810 0000 00B5     		push	{lr}
 811              		.cfi_def_cfa_offset 4
 812              		.cfi_offset 14, -4
 813 0002 85B0     		sub	sp, sp, #20
 814              		.cfi_def_cfa_offset 24
 815 0004 0190     		str	r0, [sp, #4]
 816 0006 0091     		str	r1, [sp]
 817              		.loc 5 389 0
 818 0008 FFF7FEFF 		bl	chSysLock
 819              		.loc 5 390 0
 820 000c 019B     		ldr	r3, [sp, #4]
 821 000e 9B68     		ldr	r3, [r3, #8]
 822 0010 5A1C     		adds	r2, r3, #1
 823 0012 019B     		ldr	r3, [sp, #4]
 824 0014 9A60     		str	r2, [r3, #8]
 825 0016 019B     		ldr	r3, [sp, #4]
 826 0018 9B68     		ldr	r3, [r3, #8]
 827 001a 002B     		cmp	r3, #0
 828 001c 0ADC     		bgt	.L40
 829              		.loc 5 391 0
 830 001e 019B     		ldr	r3, [sp, #4]
 831 0020 1846     		mov	r0, r3
 832 0022 FFF7FEFF 		bl	queue_fifo_remove
 833 0026 0346     		mov	r3, r0
ARM GAS  /tmp/cc6QHRP1.s 			page 16


 834 0028 1846     		mov	r0, r3
 835 002a FFF7FEFF 		bl	chSchReadyI
 836 002e 0346     		mov	r3, r0
 837 0030 0022     		movs	r2, #0
 838 0032 1A62     		str	r2, [r3, #32]
 839              	.L40:
 840              		.loc 5 393 0
 841 0034 009B     		ldr	r3, [sp]
 842 0036 9B68     		ldr	r3, [r3, #8]
 843 0038 5A1E     		subs	r2, r3, #1
 844 003a 009B     		ldr	r3, [sp]
 845 003c 9A60     		str	r2, [r3, #8]
 846 003e 009B     		ldr	r3, [sp]
 847 0040 9B68     		ldr	r3, [r3, #8]
 848 0042 002B     		cmp	r3, #0
 849 0044 11DA     		bge	.L41
 850              	.LBB11:
 851              		.loc 5 394 0
 852 0046 0E4B     		ldr	r3, .L44
 853 0048 9B69     		ldr	r3, [r3, #24]
 854 004a 0293     		str	r3, [sp, #8]
 855              		.loc 5 395 0
 856 004c 009B     		ldr	r3, [sp]
 857 004e 0298     		ldr	r0, [sp, #8]
 858 0050 1946     		mov	r1, r3
 859 0052 FFF7FEFF 		bl	queue_insert
 860              		.loc 5 396 0
 861 0056 029B     		ldr	r3, [sp, #8]
 862 0058 009A     		ldr	r2, [sp]
 863 005a 1A62     		str	r2, [r3, #32]
 864              		.loc 5 397 0
 865 005c 0520     		movs	r0, #5
 866 005e FFF7FEFF 		bl	chSchGoSleepS
 867              		.loc 5 398 0
 868 0062 029B     		ldr	r3, [sp, #8]
 869 0064 1B6A     		ldr	r3, [r3, #32]
 870 0066 0393     		str	r3, [sp, #12]
 871              	.LBE11:
 872 0068 03E0     		b	.L42
 873              	.L41:
 874              		.loc 5 401 0
 875 006a FFF7FEFF 		bl	chSchRescheduleS
 876              		.loc 5 402 0
 877 006e 0023     		movs	r3, #0
 878 0070 0393     		str	r3, [sp, #12]
 879              	.L42:
 880              		.loc 5 404 0
 881 0072 FFF7FEFF 		bl	chSysUnlock
 882              		.loc 5 406 0
 883 0076 039B     		ldr	r3, [sp, #12]
 884              		.loc 5 407 0
 885 0078 1846     		mov	r0, r3
 886 007a 05B0     		add	sp, sp, #20
 887              		@ sp needed
 888 007c 5DF804FB 		ldr	pc, [sp], #4
 889              	.L45:
 890              		.align	2
ARM GAS  /tmp/cc6QHRP1.s 			page 17


 891              	.L44:
 892 0080 00000000 		.word	ch
 893              		.cfi_endproc
 894              	.LFE250:
 895              		.size	chSemSignalWait, .-chSemSignalWait
 896 0084 AFF30080 		.text
 896      AFF30080 
 896      AFF30080 
 897              	.Letext0:
 898              		.file 6 "/usr/include/newlib/machine/_default_types.h"
 899              		.file 7 "/usr/include/newlib/stdint.h"
 900              		.file 8 "/home/efe/ChibiOS/os/rt/ports/ARMCMx/compilers/GCC/chtypes.h"
 901              		.file 9 "/home/efe/ChibiOS/os/rt/include/chsystypes.h"
 902              		.file 10 "/home/efe/ChibiOS/os/rt/ports/ARMCMx/chcore.h"
 903              		.file 11 "/home/efe/ChibiOS/os/rt/include/chtm.h"
 904              		.file 12 "/home/efe/ChibiOS/os/rt/include/chsem.h"
 905              		.file 13 "/home/efe/ChibiOS/os/rt/include/chmtx.h"
 906              		.file 14 "/home/efe/ChibiOS/os/ext/CMSIS/include/core_cm4.h"