ARM GAS  /tmp/cctBGKwA.s 			page 1


   1              		.syntax unified
   2              		.cpu cortex-m4
   3              		.fpu softvfp
   4              		.eabi_attribute 20, 1
   5              		.eabi_attribute 21, 1
   6              		.eabi_attribute 23, 3
   7              		.eabi_attribute 24, 1
   8              		.eabi_attribute 25, 1
   9              		.eabi_attribute 26, 1
  10              		.eabi_attribute 30, 6
  11              		.eabi_attribute 34, 1
  12              		.eabi_attribute 18, 4
  13              		.thumb
  14              		.file	"chsys.c"
  15              		.text
  16              	.Ltext0:
  17              		.cfi_sections	.debug_frame
  18              		.section	.text.NVIC_SetPriorityGrouping,"ax",%progbits
  19              		.align	2
  20              		.p2align 4,,15
  21              		.thumb
  22              		.thumb_func
  23              		.type	NVIC_SetPriorityGrouping, %function
  24              	NVIC_SetPriorityGrouping:
  25              	.LFB106:
  26              		.file 1 "/home/efe/ChibiOS/os/ext/CMSIS/include/core_cm4.h"
  27              		.loc 1 1516 0
  28              		.cfi_startproc
  29              		@ args = 0, pretend = 0, frame = 16
  30              		@ frame_needed = 0, uses_anonymous_args = 0
  31              		@ link register save eliminated.
  32 0000 84B0     		sub	sp, sp, #16
  33              		.cfi_def_cfa_offset 16
  34 0002 0190     		str	r0, [sp, #4]
  35              		.loc 1 1518 0
  36 0004 019B     		ldr	r3, [sp, #4]
  37 0006 03F00703 		and	r3, r3, #7
  38 000a 0393     		str	r3, [sp, #12]
  39              		.loc 1 1520 0
  40 000c 0A4B     		ldr	r3, .L2
  41 000e DB68     		ldr	r3, [r3, #12]
  42 0010 0293     		str	r3, [sp, #8]
  43              		.loc 1 1521 0
  44 0012 029A     		ldr	r2, [sp, #8]
  45 0014 4FF6FF03 		movw	r3, #63743
  46 0018 1340     		ands	r3, r3, r2
  47 001a 0293     		str	r3, [sp, #8]
  48              		.loc 1 1524 0
  49 001c 039B     		ldr	r3, [sp, #12]
  50 001e 1A02     		lsls	r2, r3, #8
  51              		.loc 1 1523 0
  52 0020 029B     		ldr	r3, [sp, #8]
  53 0022 1343     		orrs	r3, r3, r2
  54              		.loc 1 1522 0
  55 0024 43F0BF63 		orr	r3, r3, #100139008
  56 0028 43F40033 		orr	r3, r3, #131072
  57 002c 0293     		str	r3, [sp, #8]
ARM GAS  /tmp/cctBGKwA.s 			page 2


  58              		.loc 1 1525 0
  59 002e 024B     		ldr	r3, .L2
  60 0030 029A     		ldr	r2, [sp, #8]
  61 0032 DA60     		str	r2, [r3, #12]
  62              		.loc 1 1526 0
  63 0034 04B0     		add	sp, sp, #16
  64              		@ sp needed
  65 0036 7047     		bx	lr
  66              	.L3:
  67              		.align	2
  68              	.L2:
  69 0038 00ED00E0 		.word	-536810240
  70              		.cfi_endproc
  71              	.LFE106:
  72              		.size	NVIC_SetPriorityGrouping, .-NVIC_SetPriorityGrouping
  73 003c AFF30080 		.section	.text.NVIC_SetPriority,"ax",%progbits
  74              		.align	2
  75              		.p2align 4,,15
  76              		.thumb
  77              		.thumb_func
  78              		.type	NVIC_SetPriority, %function
  79              	NVIC_SetPriority:
  80              	.LFB114:
  81              		.loc 1 1630 0
  82              		.cfi_startproc
  83              		@ args = 0, pretend = 0, frame = 8
  84              		@ frame_needed = 0, uses_anonymous_args = 0
  85              		@ link register save eliminated.
  86 0000 82B0     		sub	sp, sp, #8
  87              		.cfi_def_cfa_offset 8
  88 0002 0346     		mov	r3, r0
  89 0004 0091     		str	r1, [sp]
  90 0006 8DF80730 		strb	r3, [sp, #7]
  91              		.loc 1 1631 0
  92 000a 9DF90730 		ldrsb	r3, [sp, #7]
  93 000e 002B     		cmp	r3, #0
  94 0010 0CDA     		bge	.L5
  95              		.loc 1 1632 0
  96 0012 0C49     		ldr	r1, .L7
  97 0014 9DF80730 		ldrb	r3, [sp, #7]	@ zero_extendqisi2
  98 0018 03F00F03 		and	r3, r3, #15
  99 001c 043B     		subs	r3, r3, #4
 100 001e 009A     		ldr	r2, [sp]
 101 0020 D2B2     		uxtb	r2, r2
 102 0022 1201     		lsls	r2, r2, #4
 103 0024 D2B2     		uxtb	r2, r2
 104 0026 0B44     		add	r3, r3, r1
 105 0028 1A76     		strb	r2, [r3, #24]
 106 002a 09E0     		b	.L4
 107              	.L5:
 108              		.loc 1 1635 0
 109 002c 0649     		ldr	r1, .L7+4
 110 002e 9DF90730 		ldrsb	r3, [sp, #7]
 111 0032 009A     		ldr	r2, [sp]
 112 0034 D2B2     		uxtb	r2, r2
 113 0036 1201     		lsls	r2, r2, #4
 114 0038 D2B2     		uxtb	r2, r2
ARM GAS  /tmp/cctBGKwA.s 			page 3


 115 003a 0B44     		add	r3, r3, r1
 116 003c 83F80023 		strb	r2, [r3, #768]
 117              	.L4:
 118              		.loc 1 1637 0
 119 0040 02B0     		add	sp, sp, #8
 120              		@ sp needed
 121 0042 7047     		bx	lr
 122              	.L8:
 123              		.align	2
 124              	.L7:
 125 0044 00ED00E0 		.word	-536810240
 126 0048 00E100E0 		.word	-536813312
 127              		.cfi_endproc
 128              	.LFE114:
 129              		.size	NVIC_SetPriority, .-NVIC_SetPriority
 130 004c AFF30080 		.section	.text.port_init,"ax",%progbits
 131              		.align	2
 132              		.p2align 4,,15
 133              		.thumb
 134              		.thumb_func
 135              		.type	port_init, %function
 136              	port_init:
 137              	.LFB123:
 138              		.file 2 "/home/efe/ChibiOS/os/rt/ports/ARMCMx/chcore_v7m.h"
 139              		.loc 2 383 0
 140              		.cfi_startproc
 141              		@ args = 0, pretend = 0, frame = 0
 142              		@ frame_needed = 0, uses_anonymous_args = 0
 143 0000 08B5     		push	{r3, lr}
 144              		.cfi_def_cfa_offset 8
 145              		.cfi_offset 3, -8
 146              		.cfi_offset 14, -4
 147              		.loc 2 386 0
 148 0002 0E4B     		ldr	r3, .L10
 149 0004 0022     		movs	r2, #0
 150 0006 9A60     		str	r2, [r3, #8]
 151              		.loc 2 389 0
 152 0008 0320     		movs	r0, #3
 153 000a FFF7FEFF 		bl	NVIC_SetPriorityGrouping
 154              		.loc 2 392 0
 155 000e 0C4B     		ldr	r3, .L10+4
 156 0010 0B4A     		ldr	r2, .L10+4
 157 0012 D268     		ldr	r2, [r2, #12]
 158 0014 42F08072 		orr	r2, r2, #16777216
 159 0018 DA60     		str	r2, [r3, #12]
 160              		.loc 2 396 0
 161 001a 0A4B     		ldr	r3, .L10+8
 162 001c 094A     		ldr	r2, .L10+8
 163 001e 1268     		ldr	r2, [r2]
 164 0020 42F00102 		orr	r2, r2, #1
 165 0024 1A60     		str	r2, [r3]
 166              		.loc 2 400 0
 167 0026 6FF00400 		mvn	r0, #4
 168 002a 0121     		movs	r1, #1
 169 002c FFF7FEFF 		bl	NVIC_SetPriority
 170              		.loc 2 402 0
 171 0030 6FF00100 		mvn	r0, #1
ARM GAS  /tmp/cctBGKwA.s 			page 4


 172 0034 0221     		movs	r1, #2
 173 0036 FFF7FEFF 		bl	NVIC_SetPriority
 174              		.loc 2 403 0
 175 003a 08BD     		pop	{r3, pc}
 176              	.L11:
 177              		.align	2
 178              	.L10:
 179 003c 00ED00E0 		.word	-536810240
 180 0040 F0ED00E0 		.word	-536810000
 181 0044 001000E0 		.word	-536866816
 182              		.cfi_endproc
 183              	.LFE123:
 184              		.size	port_init, .-port_init
 185 0048 AFF30080 		.section	.text.port_get_irq_status,"ax",%progbits
 185      AFF30080 
 186              		.align	2
 187              		.p2align 4,,15
 188              		.thumb
 189              		.thumb_func
 190              		.type	port_get_irq_status, %function
 191              	port_get_irq_status:
 192              	.LFB124:
 193              		.loc 2 410 0
 194              		.cfi_startproc
 195              		@ args = 0, pretend = 0, frame = 8
 196              		@ frame_needed = 0, uses_anonymous_args = 0
 197              		@ link register save eliminated.
 198 0000 82B0     		sub	sp, sp, #8
 199              		.cfi_def_cfa_offset 8
 200              	.LBB16:
 201              	.LBB17:
 202              		.file 3 "/home/efe/ChibiOS/os/ext/CMSIS/include/core_cmFunc.h"
 203              		.loc 3 535 0
 204              	@ 535 "/home/efe/ChibiOS/os/ext/CMSIS/include/core_cmFunc.h" 1
 205 0002 EFF31183 		MRS r3, basepri
 206              	@ 0 "" 2
 207              		.thumb
 208 0006 0093     		str	r3, [sp]
 209              		.loc 3 536 0
 210 0008 009B     		ldr	r3, [sp]
 211              	.LBE17:
 212              	.LBE16:
 213              		.loc 2 414 0
 214 000a 0193     		str	r3, [sp, #4]
 215              		.loc 2 418 0
 216 000c 019B     		ldr	r3, [sp, #4]
 217              		.loc 2 419 0
 218 000e 1846     		mov	r0, r3
 219 0010 02B0     		add	sp, sp, #8
 220              		@ sp needed
 221 0012 7047     		bx	lr
 222              		.cfi_endproc
 223              	.LFE124:
 224              		.size	port_get_irq_status, .-port_get_irq_status
 225 0014 AFF30080 		.section	.text.port_irq_enabled,"ax",%progbits
 225      AFF30080 
 225      AFF30080 
ARM GAS  /tmp/cctBGKwA.s 			page 5


 226              		.align	2
 227              		.p2align 4,,15
 228              		.thumb
 229              		.thumb_func
 230              		.type	port_irq_enabled, %function
 231              	port_irq_enabled:
 232              	.LFB125:
 233              		.loc 2 430 0
 234              		.cfi_startproc
 235              		@ args = 0, pretend = 0, frame = 8
 236              		@ frame_needed = 0, uses_anonymous_args = 0
 237              		@ link register save eliminated.
 238 0000 82B0     		sub	sp, sp, #8
 239              		.cfi_def_cfa_offset 8
 240 0002 0190     		str	r0, [sp, #4]
 241              		.loc 2 433 0
 242 0004 019B     		ldr	r3, [sp, #4]
 243 0006 002B     		cmp	r3, #0
 244 0008 14BF     		ite	ne
 245 000a 0023     		movne	r3, #0
 246 000c 0123     		moveq	r3, #1
 247 000e DBB2     		uxtb	r3, r3
 248              		.loc 2 437 0
 249 0010 1846     		mov	r0, r3
 250 0012 02B0     		add	sp, sp, #8
 251              		@ sp needed
 252 0014 7047     		bx	lr
 253              		.cfi_endproc
 254              	.LFE125:
 255              		.size	port_irq_enabled, .-port_irq_enabled
 256 0016 00BFAFF3 		.section	.text.port_is_isr_context,"ax",%progbits
 256      0080AFF3 
 256      0080
 257              		.align	2
 258              		.p2align 4,,15
 259              		.thumb
 260              		.thumb_func
 261              		.type	port_is_isr_context, %function
 262              	port_is_isr_context:
 263              	.LFB126:
 264              		.loc 2 446 0
 265              		.cfi_startproc
 266              		@ args = 0, pretend = 0, frame = 8
 267              		@ frame_needed = 0, uses_anonymous_args = 0
 268              		@ link register save eliminated.
 269 0000 82B0     		sub	sp, sp, #8
 270              		.cfi_def_cfa_offset 8
 271              	.LBB18:
 272              	.LBB19:
 273              		.loc 3 385 0
 274              	@ 385 "/home/efe/ChibiOS/os/ext/CMSIS/include/core_cmFunc.h" 1
 275 0002 EFF30583 		MRS r3, ipsr
 276              	@ 0 "" 2
 277              		.thumb
 278 0006 0193     		str	r3, [sp, #4]
 279              		.loc 3 386 0
 280 0008 019B     		ldr	r3, [sp, #4]
ARM GAS  /tmp/cctBGKwA.s 			page 6


 281              	.LBE19:
 282              	.LBE18:
 283              		.loc 2 448 0
 284 000a C3F30803 		ubfx	r3, r3, #0, #9
 285 000e 002B     		cmp	r3, #0
 286 0010 0CBF     		ite	eq
 287 0012 0023     		moveq	r3, #0
 288 0014 0123     		movne	r3, #1
 289 0016 DBB2     		uxtb	r3, r3
 290              		.loc 2 449 0
 291 0018 1846     		mov	r0, r3
 292 001a 02B0     		add	sp, sp, #8
 293              		@ sp needed
 294 001c 7047     		bx	lr
 295              		.cfi_endproc
 296              	.LFE126:
 297              		.size	port_is_isr_context, .-port_is_isr_context
 298 001e 00BF     		.section	.text.port_lock,"ax",%progbits
 299              		.align	2
 300              		.p2align 4,,15
 301              		.thumb
 302              		.thumb_func
 303              		.type	port_lock, %function
 304              	port_lock:
 305              	.LFB127:
 306              		.loc 2 456 0
 307              		.cfi_startproc
 308              		@ args = 0, pretend = 0, frame = 8
 309              		@ frame_needed = 0, uses_anonymous_args = 0
 310              		@ link register save eliminated.
 311 0000 82B0     		sub	sp, sp, #8
 312              		.cfi_def_cfa_offset 8
 313 0002 2023     		movs	r3, #32
 314 0004 0193     		str	r3, [sp, #4]
 315              	.LBB20:
 316              	.LBB21:
 317              		.loc 3 548 0
 318 0006 019B     		ldr	r3, [sp, #4]
 319              	@ 548 "/home/efe/ChibiOS/os/ext/CMSIS/include/core_cmFunc.h" 1
 320 0008 83F31188 		MSR basepri, r3
 321              	@ 0 "" 2
 322              		.thumb
 323              	.LBE21:
 324              	.LBE20:
 325              		.loc 2 463 0
 326 000c 02B0     		add	sp, sp, #8
 327              		@ sp needed
 328 000e 7047     		bx	lr
 329              		.cfi_endproc
 330              	.LFE127:
 331              		.size	port_lock, .-port_lock
 332              		.section	.text.port_unlock,"ax",%progbits
 333              		.align	2
 334              		.p2align 4,,15
 335              		.thumb
 336              		.thumb_func
 337              		.type	port_unlock, %function
ARM GAS  /tmp/cctBGKwA.s 			page 7


 338              	port_unlock:
 339              	.LFB128:
 340              		.loc 2 470 0
 341              		.cfi_startproc
 342              		@ args = 0, pretend = 0, frame = 8
 343              		@ frame_needed = 0, uses_anonymous_args = 0
 344              		@ link register save eliminated.
 345 0000 82B0     		sub	sp, sp, #8
 346              		.cfi_def_cfa_offset 8
 347 0002 0023     		movs	r3, #0
 348 0004 0193     		str	r3, [sp, #4]
 349              	.LBB22:
 350              	.LBB23:
 351              		.loc 3 548 0
 352 0006 019B     		ldr	r3, [sp, #4]
 353              	@ 548 "/home/efe/ChibiOS/os/ext/CMSIS/include/core_cmFunc.h" 1
 354 0008 83F31188 		MSR basepri, r3
 355              	@ 0 "" 2
 356              		.thumb
 357              	.LBE23:
 358              	.LBE22:
 359              		.loc 2 477 0
 360 000c 02B0     		add	sp, sp, #8
 361              		@ sp needed
 362 000e 7047     		bx	lr
 363              		.cfi_endproc
 364              	.LFE128:
 365              		.size	port_unlock, .-port_unlock
 366              		.section	.text.port_lock_from_isr,"ax",%progbits
 367              		.align	2
 368              		.p2align 4,,15
 369              		.thumb
 370              		.thumb_func
 371              		.type	port_lock_from_isr, %function
 372              	port_lock_from_isr:
 373              	.LFB129:
 374              		.loc 2 485 0
 375              		.cfi_startproc
 376              		@ args = 0, pretend = 0, frame = 0
 377              		@ frame_needed = 0, uses_anonymous_args = 0
 378 0000 08B5     		push	{r3, lr}
 379              		.cfi_def_cfa_offset 8
 380              		.cfi_offset 3, -8
 381              		.cfi_offset 14, -4
 382              		.loc 2 487 0
 383 0002 FFF7FEFF 		bl	port_lock
 384              		.loc 2 488 0
 385 0006 08BD     		pop	{r3, pc}
 386              		.cfi_endproc
 387              	.LFE129:
 388              		.size	port_lock_from_isr, .-port_lock_from_isr
 389 0008 AFF30080 		.section	.text.port_unlock_from_isr,"ax",%progbits
 389      AFF30080 
 390              		.align	2
 391              		.p2align 4,,15
 392              		.thumb
 393              		.thumb_func
ARM GAS  /tmp/cctBGKwA.s 			page 8


 394              		.type	port_unlock_from_isr, %function
 395              	port_unlock_from_isr:
 396              	.LFB130:
 397              		.loc 2 496 0
 398              		.cfi_startproc
 399              		@ args = 0, pretend = 0, frame = 0
 400              		@ frame_needed = 0, uses_anonymous_args = 0
 401 0000 08B5     		push	{r3, lr}
 402              		.cfi_def_cfa_offset 8
 403              		.cfi_offset 3, -8
 404              		.cfi_offset 14, -4
 405              		.loc 2 498 0
 406 0002 FFF7FEFF 		bl	port_unlock
 407              		.loc 2 499 0
 408 0006 08BD     		pop	{r3, pc}
 409              		.cfi_endproc
 410              	.LFE130:
 411              		.size	port_unlock_from_isr, .-port_unlock_from_isr
 412 0008 AFF30080 		.section	.text.port_disable,"ax",%progbits
 412      AFF30080 
 413              		.align	2
 414              		.p2align 4,,15
 415              		.thumb
 416              		.thumb_func
 417              		.type	port_disable, %function
 418              	port_disable:
 419              	.LFB131:
 420              		.loc 2 506 0
 421              		.cfi_startproc
 422              		@ args = 0, pretend = 0, frame = 0
 423              		@ frame_needed = 0, uses_anonymous_args = 0
 424              		@ link register save eliminated.
 425              	.LBB24:
 426              	.LBB25:
 427              		.loc 3 344 0
 428              	@ 344 "/home/efe/ChibiOS/os/ext/CMSIS/include/core_cmFunc.h" 1
 429 0000 72B6     		cpsid i
 430              	@ 0 "" 2
 431              		.thumb
 432              	.LBE25:
 433              	.LBE24:
 434              		.loc 2 509 0
 435 0002 7047     		bx	lr
 436              		.cfi_endproc
 437              	.LFE131:
 438              		.size	port_disable, .-port_disable
 439 0004 AFF30080 		.section	.text.port_enable,"ax",%progbits
 439      AFF30080 
 439      AFF30080 
 440              		.align	2
 441              		.p2align 4,,15
 442              		.thumb
 443              		.thumb_func
 444              		.type	port_enable, %function
 445              	port_enable:
 446              	.LFB133:
 447              		.loc 2 530 0
ARM GAS  /tmp/cctBGKwA.s 			page 9


 448              		.cfi_startproc
 449              		@ args = 0, pretend = 0, frame = 8
 450              		@ frame_needed = 0, uses_anonymous_args = 0
 451              		@ link register save eliminated.
 452 0000 82B0     		sub	sp, sp, #8
 453              		.cfi_def_cfa_offset 8
 454 0002 0023     		movs	r3, #0
 455 0004 0193     		str	r3, [sp, #4]
 456              	.LBB26:
 457              	.LBB27:
 458              		.loc 3 548 0
 459 0006 019B     		ldr	r3, [sp, #4]
 460              	@ 548 "/home/efe/ChibiOS/os/ext/CMSIS/include/core_cmFunc.h" 1
 461 0008 83F31188 		MSR basepri, r3
 462              	@ 0 "" 2
 463              		.thumb
 464              	.LBE27:
 465              	.LBE26:
 466              	.LBB28:
 467              	.LBB29:
 468              		.loc 3 333 0
 469              	@ 333 "/home/efe/ChibiOS/os/ext/CMSIS/include/core_cmFunc.h" 1
 470 000c 62B6     		cpsie i
 471              	@ 0 "" 2
 472              		.thumb
 473              	.LBE29:
 474              	.LBE28:
 475              		.loc 2 536 0
 476 000e 02B0     		add	sp, sp, #8
 477              		@ sp needed
 478 0010 7047     		bx	lr
 479              		.cfi_endproc
 480              	.LFE133:
 481              		.size	port_enable, .-port_enable
 482 0012 00BFAFF3 		.section	.text.port_wait_for_interrupt,"ax",%progbits
 482      0080AFF3 
 482      0080AFF3 
 482      0080
 483              		.align	2
 484              		.p2align 4,,15
 485              		.thumb
 486              		.thumb_func
 487              		.type	port_wait_for_interrupt, %function
 488              	port_wait_for_interrupt:
 489              	.LFB134:
 490              		.loc 2 546 0
 491              		.cfi_startproc
 492              		@ args = 0, pretend = 0, frame = 0
 493              		@ frame_needed = 0, uses_anonymous_args = 0
 494              		@ link register save eliminated.
 495              		.loc 2 551 0
 496 0000 7047     		bx	lr
 497              		.cfi_endproc
 498              	.LFE134:
 499              		.size	port_wait_for_interrupt, .-port_wait_for_interrupt
 500 0002 00BFAFF3 		.section	.text.port_rt_get_counter_value,"ax",%progbits
 500      0080AFF3 
ARM GAS  /tmp/cctBGKwA.s 			page 10


 500      0080AFF3 
 500      0080
 501              		.align	2
 502              		.p2align 4,,15
 503              		.thumb
 504              		.thumb_func
 505              		.type	port_rt_get_counter_value, %function
 506              	port_rt_get_counter_value:
 507              	.LFB135:
 508              		.loc 2 558 0
 509              		.cfi_startproc
 510              		@ args = 0, pretend = 0, frame = 0
 511              		@ frame_needed = 0, uses_anonymous_args = 0
 512              		@ link register save eliminated.
 513              		.loc 2 560 0
 514 0000 014B     		ldr	r3, .L29
 515 0002 5B68     		ldr	r3, [r3, #4]
 516              		.loc 2 561 0
 517 0004 1846     		mov	r0, r3
 518 0006 7047     		bx	lr
 519              	.L30:
 520              		.align	2
 521              	.L29:
 522 0008 001000E0 		.word	-536866816
 523              		.cfi_endproc
 524              	.LFE135:
 525              		.size	port_rt_get_counter_value, .-port_rt_get_counter_value
 526 000c AFF30080 		.section	.text.st_lld_get_counter,"ax",%progbits
 527              		.align	2
 528              		.p2align 4,,15
 529              		.thumb
 530              		.thumb_func
 531              		.type	st_lld_get_counter, %function
 532              	st_lld_get_counter:
 533              	.LFB136:
 534              		.file 4 "/home/efe/ChibiOS/os/hal/ports/STM32/LLD/TIMv1/st_lld.h"
 535              		.loc 4 139 0
 536              		.cfi_startproc
 537              		@ args = 0, pretend = 0, frame = 0
 538              		@ frame_needed = 0, uses_anonymous_args = 0
 539              		@ link register save eliminated.
 540              		.loc 4 141 0
 541 0000 4FF08043 		mov	r3, #1073741824
 542 0004 5B6A     		ldr	r3, [r3, #36]
 543              		.loc 4 142 0
 544 0006 1846     		mov	r0, r3
 545 0008 7047     		bx	lr
 546              		.cfi_endproc
 547              	.LFE136:
 548              		.size	st_lld_get_counter, .-st_lld_get_counter
 549 000a 00BFAFF3 		.section	.text.port_timer_stop_alarm,"ax",%progbits
 549      0080
 550              		.align	2
 551              		.p2align 4,,15
 552              		.thumb
 553              		.thumb_func
 554              		.type	port_timer_stop_alarm, %function
ARM GAS  /tmp/cctBGKwA.s 			page 11


 555              	port_timer_stop_alarm:
 556              	.LFB143:
 557              		.file 5 "/home/efe/ChibiOS/os/rt/ports/ARMCMx/chcore_timer.h"
 558              		.loc 5 81 0
 559              		.cfi_startproc
 560              		@ args = 0, pretend = 0, frame = 0
 561              		@ frame_needed = 0, uses_anonymous_args = 0
 562 0000 08B5     		push	{r3, lr}
 563              		.cfi_def_cfa_offset 8
 564              		.cfi_offset 3, -8
 565              		.cfi_offset 14, -4
 566              		.loc 5 83 0
 567 0002 FFF7FEFF 		bl	stStopAlarm
 568              		.loc 5 84 0
 569 0006 08BD     		pop	{r3, pc}
 570              		.cfi_endproc
 571              	.LFE143:
 572              		.size	port_timer_stop_alarm, .-port_timer_stop_alarm
 573 0008 AFF30080 		.section	.text.port_timer_set_alarm,"ax",%progbits
 573      AFF30080 
 574              		.align	2
 575              		.p2align 4,,15
 576              		.thumb
 577              		.thumb_func
 578              		.type	port_timer_set_alarm, %function
 579              	port_timer_set_alarm:
 580              	.LFB144:
 581              		.loc 5 93 0
 582              		.cfi_startproc
 583              		@ args = 0, pretend = 0, frame = 8
 584              		@ frame_needed = 0, uses_anonymous_args = 0
 585 0000 00B5     		push	{lr}
 586              		.cfi_def_cfa_offset 4
 587              		.cfi_offset 14, -4
 588 0002 83B0     		sub	sp, sp, #12
 589              		.cfi_def_cfa_offset 16
 590 0004 0190     		str	r0, [sp, #4]
 591              		.loc 5 95 0
 592 0006 0198     		ldr	r0, [sp, #4]
 593 0008 FFF7FEFF 		bl	stSetAlarm
 594              		.loc 5 96 0
 595 000c 03B0     		add	sp, sp, #12
 596              		@ sp needed
 597 000e 5DF804FB 		ldr	pc, [sp], #4
 598              		.cfi_endproc
 599              	.LFE144:
 600              		.size	port_timer_set_alarm, .-port_timer_set_alarm
 601 0012 00BFAFF3 		.section	.text.port_timer_get_time,"ax",%progbits
 601      0080AFF3 
 601      0080AFF3 
 601      0080
 602              		.align	2
 603              		.p2align 4,,15
 604              		.thumb
 605              		.thumb_func
 606              		.type	port_timer_get_time, %function
 607              	port_timer_get_time:
ARM GAS  /tmp/cctBGKwA.s 			page 12


 608              	.LFB145:
 609              		.loc 5 105 0
 610              		.cfi_startproc
 611              		@ args = 0, pretend = 0, frame = 0
 612              		@ frame_needed = 0, uses_anonymous_args = 0
 613 0000 08B5     		push	{r3, lr}
 614              		.cfi_def_cfa_offset 8
 615              		.cfi_offset 3, -8
 616              		.cfi_offset 14, -4
 617              		.loc 5 107 0
 618 0002 FFF7FEFF 		bl	st_lld_get_counter
 619 0006 0346     		mov	r3, r0
 620              		.loc 5 108 0
 621 0008 1846     		mov	r0, r3
 622 000a 08BD     		pop	{r3, pc}
 623              		.cfi_endproc
 624              	.LFE145:
 625              		.size	port_timer_get_time, .-port_timer_get_time
 626 000c AFF30080 		.section	.text.chSysEnable,"ax",%progbits
 627              		.align	2
 628              		.p2align 4,,15
 629              		.thumb
 630              		.thumb_func
 631              		.type	chSysEnable, %function
 632              	chSysEnable:
 633              	.LFB166:
 634              		.file 6 "/home/efe/ChibiOS/os/rt/include/chsys.h"
 635              		.loc 6 335 0
 636              		.cfi_startproc
 637              		@ args = 0, pretend = 0, frame = 0
 638              		@ frame_needed = 0, uses_anonymous_args = 0
 639 0000 08B5     		push	{r3, lr}
 640              		.cfi_def_cfa_offset 8
 641              		.cfi_offset 3, -8
 642              		.cfi_offset 14, -4
 643              		.loc 6 338 0
 644 0002 FFF7FEFF 		bl	port_enable
 645              		.loc 6 339 0
 646 0006 08BD     		pop	{r3, pc}
 647              		.cfi_endproc
 648              	.LFE166:
 649              		.size	chSysEnable, .-chSysEnable
 650 0008 AFF30080 		.section	.text.chSysLock,"ax",%progbits
 650      AFF30080 
 651              		.align	2
 652              		.p2align 4,,15
 653              		.thumb
 654              		.thumb_func
 655              		.type	chSysLock, %function
 656              	chSysLock:
 657              	.LFB167:
 658              		.loc 6 346 0
 659              		.cfi_startproc
 660              		@ args = 0, pretend = 0, frame = 0
 661              		@ frame_needed = 0, uses_anonymous_args = 0
 662 0000 08B5     		push	{r3, lr}
 663              		.cfi_def_cfa_offset 8
ARM GAS  /tmp/cctBGKwA.s 			page 13


 664              		.cfi_offset 3, -8
 665              		.cfi_offset 14, -4
 666              		.loc 6 348 0
 667 0002 FFF7FEFF 		bl	port_lock
 668              		.loc 6 351 0
 669 0006 08BD     		pop	{r3, pc}
 670              		.cfi_endproc
 671              	.LFE167:
 672              		.size	chSysLock, .-chSysLock
 673 0008 AFF30080 		.section	.text.chSysUnlock,"ax",%progbits
 673      AFF30080 
 674              		.align	2
 675              		.p2align 4,,15
 676              		.thumb
 677              		.thumb_func
 678              		.type	chSysUnlock, %function
 679              	chSysUnlock:
 680              	.LFB168:
 681              		.loc 6 358 0
 682              		.cfi_startproc
 683              		@ args = 0, pretend = 0, frame = 0
 684              		@ frame_needed = 0, uses_anonymous_args = 0
 685 0000 08B5     		push	{r3, lr}
 686              		.cfi_def_cfa_offset 8
 687              		.cfi_offset 3, -8
 688              		.cfi_offset 14, -4
 689              		.loc 6 371 0
 690 0002 FFF7FEFF 		bl	port_unlock
 691              		.loc 6 372 0
 692 0006 08BD     		pop	{r3, pc}
 693              		.cfi_endproc
 694              	.LFE168:
 695              		.size	chSysUnlock, .-chSysUnlock
 696 0008 AFF30080 		.section	.text.chSysLockFromISR,"ax",%progbits
 696      AFF30080 
 697              		.align	2
 698              		.p2align 4,,15
 699              		.thumb
 700              		.thumb_func
 701              		.type	chSysLockFromISR, %function
 702              	chSysLockFromISR:
 703              	.LFB169:
 704              		.loc 6 386 0
 705              		.cfi_startproc
 706              		@ args = 0, pretend = 0, frame = 0
 707              		@ frame_needed = 0, uses_anonymous_args = 0
 708 0000 08B5     		push	{r3, lr}
 709              		.cfi_def_cfa_offset 8
 710              		.cfi_offset 3, -8
 711              		.cfi_offset 14, -4
 712              		.loc 6 388 0
 713 0002 FFF7FEFF 		bl	port_lock_from_isr
 714              		.loc 6 391 0
 715 0006 08BD     		pop	{r3, pc}
 716              		.cfi_endproc
 717              	.LFE169:
 718              		.size	chSysLockFromISR, .-chSysLockFromISR
ARM GAS  /tmp/cctBGKwA.s 			page 14


 719 0008 AFF30080 		.section	.text.chSysUnlockFromISR,"ax",%progbits
 719      AFF30080 
 720              		.align	2
 721              		.p2align 4,,15
 722              		.thumb
 723              		.thumb_func
 724              		.type	chSysUnlockFromISR, %function
 725              	chSysUnlockFromISR:
 726              	.LFB170:
 727              		.loc 6 406 0
 728              		.cfi_startproc
 729              		@ args = 0, pretend = 0, frame = 0
 730              		@ frame_needed = 0, uses_anonymous_args = 0
 731 0000 08B5     		push	{r3, lr}
 732              		.cfi_def_cfa_offset 8
 733              		.cfi_offset 3, -8
 734              		.cfi_offset 14, -4
 735              		.loc 6 410 0
 736 0002 FFF7FEFF 		bl	port_unlock_from_isr
 737              		.loc 6 411 0
 738 0006 08BD     		pop	{r3, pc}
 739              		.cfi_endproc
 740              	.LFE170:
 741              		.size	chSysUnlockFromISR, .-chSysUnlockFromISR
 742 0008 AFF30080 		.section	.text.chVTGetSystemTimeX,"ax",%progbits
 742      AFF30080 
 743              		.align	2
 744              		.p2align 4,,15
 745              		.thumb
 746              		.thumb_func
 747              		.type	chVTGetSystemTimeX, %function
 748              	chVTGetSystemTimeX:
 749              	.LFB175:
 750              		.file 7 "/home/efe/ChibiOS/os/rt/include/chvt.h"
 751              		.loc 7 228 0
 752              		.cfi_startproc
 753              		@ args = 0, pretend = 0, frame = 0
 754              		@ frame_needed = 0, uses_anonymous_args = 0
 755 0000 08B5     		push	{r3, lr}
 756              		.cfi_def_cfa_offset 8
 757              		.cfi_offset 3, -8
 758              		.cfi_offset 14, -4
 759              		.loc 7 233 0
 760 0002 FFF7FEFF 		bl	port_timer_get_time
 761 0006 0346     		mov	r3, r0
 762              		.loc 7 235 0
 763 0008 1846     		mov	r0, r3
 764 000a 08BD     		pop	{r3, pc}
 765              		.cfi_endproc
 766              	.LFE175:
 767              		.size	chVTGetSystemTimeX, .-chVTGetSystemTimeX
 768              		.section	.text.chVTDoTickI,"ax",%progbits
 769              		.align	2
 770              		.p2align 4,,15
 771              		.thumb
 772              		.thumb_func
 773              		.type	chVTDoTickI, %function
ARM GAS  /tmp/cctBGKwA.s 			page 15


 774              	chVTDoTickI:
 775              	.LFB187:
 776              		.loc 7 466 0
 777              		.cfi_startproc
 778              		@ args = 0, pretend = 0, frame = 16
 779              		@ frame_needed = 0, uses_anonymous_args = 0
 780 0000 00B5     		push	{lr}
 781              		.cfi_def_cfa_offset 4
 782              		.cfi_offset 14, -4
 783 0002 85B0     		sub	sp, sp, #20
 784              		.cfi_def_cfa_offset 24
 785              		.loc 7 494 0
 786 0004 2A4B     		ldr	r3, .L51
 787 0006 DB69     		ldr	r3, [r3, #28]
 788 0008 0393     		str	r3, [sp, #12]
 789              		.loc 7 495 0
 790 000a FFF7FEFF 		bl	chVTGetSystemTimeX
 791 000e 0290     		str	r0, [sp, #8]
 792              		.loc 7 501 0
 793 0010 2AE0     		b	.L45
 794              	.L47:
 795              	.LBB30:
 796              		.loc 7 505 0
 797 0012 274B     		ldr	r3, .L51
 798 0014 9A6A     		ldr	r2, [r3, #40]
 799 0016 039B     		ldr	r3, [sp, #12]
 800 0018 9B68     		ldr	r3, [r3, #8]
 801 001a 1A44     		add	r2, r2, r3
 802 001c 244B     		ldr	r3, .L51
 803 001e 9A62     		str	r2, [r3, #40]
 804              		.loc 7 507 0
 805 0020 039B     		ldr	r3, [sp, #12]
 806 0022 1B68     		ldr	r3, [r3]
 807 0024 234A     		ldr	r2, .L51+4
 808 0026 5A60     		str	r2, [r3, #4]
 809              		.loc 7 508 0
 810 0028 039B     		ldr	r3, [sp, #12]
 811 002a 1A68     		ldr	r2, [r3]
 812 002c 204B     		ldr	r3, .L51
 813 002e DA61     		str	r2, [r3, #28]
 814              		.loc 7 509 0
 815 0030 039B     		ldr	r3, [sp, #12]
 816 0032 DB68     		ldr	r3, [r3, #12]
 817 0034 0093     		str	r3, [sp]
 818              		.loc 7 510 0
 819 0036 039B     		ldr	r3, [sp, #12]
 820 0038 0022     		movs	r2, #0
 821 003a DA60     		str	r2, [r3, #12]
 822              		.loc 7 513 0
 823 003c 1C4B     		ldr	r3, .L51
 824 003e DA69     		ldr	r2, [r3, #28]
 825 0040 1C4B     		ldr	r3, .L51+4
 826 0042 9A42     		cmp	r2, r3
 827 0044 01D1     		bne	.L46
 828              		.loc 7 514 0
 829 0046 FFF7FEFF 		bl	port_timer_stop_alarm
 830              	.L46:
ARM GAS  /tmp/cctBGKwA.s 			page 16


 831              		.loc 7 520 0
 832 004a FFF7FEFF 		bl	chSysUnlockFromISR
 833              		.loc 7 523 0
 834 004e 039B     		ldr	r3, [sp, #12]
 835 0050 1A69     		ldr	r2, [r3, #16]
 836 0052 009B     		ldr	r3, [sp]
 837 0054 1046     		mov	r0, r2
 838 0056 9847     		blx	r3
 839              		.loc 7 527 0
 840 0058 FFF7FEFF 		bl	chSysLockFromISR
 841              		.loc 7 531 0
 842 005c 144B     		ldr	r3, .L51
 843 005e DB69     		ldr	r3, [r3, #28]
 844 0060 0393     		str	r3, [sp, #12]
 845              		.loc 7 532 0
 846 0062 FFF7FEFF 		bl	chVTGetSystemTimeX
 847 0066 0290     		str	r0, [sp, #8]
 848              	.L45:
 849              	.LBE30:
 850              		.loc 7 501 0 discriminator 1
 851 0068 039B     		ldr	r3, [sp, #12]
 852 006a 9A68     		ldr	r2, [r3, #8]
 853 006c 104B     		ldr	r3, .L51
 854 006e 9B6A     		ldr	r3, [r3, #40]
 855 0070 0299     		ldr	r1, [sp, #8]
 856 0072 CB1A     		subs	r3, r1, r3
 857 0074 9A42     		cmp	r2, r3
 858 0076 CCD9     		bls	.L47
 859              		.loc 7 536 0
 860 0078 0D4B     		ldr	r3, .L51
 861 007a DA69     		ldr	r2, [r3, #28]
 862 007c 0D4B     		ldr	r3, .L51+4
 863 007e 9A42     		cmp	r2, r3
 864 0080 00D1     		bne	.L48
 865              		.loc 7 537 0
 866 0082 12E0     		b	.L44
 867              	.L48:
 868              		.loc 7 541 0
 869 0084 0A4B     		ldr	r3, .L51
 870 0086 9A6A     		ldr	r2, [r3, #40]
 871 0088 039B     		ldr	r3, [sp, #12]
 872 008a 9B68     		ldr	r3, [r3, #8]
 873 008c 1A44     		add	r2, r2, r3
 874 008e 029B     		ldr	r3, [sp, #8]
 875 0090 D31A     		subs	r3, r2, r3
 876 0092 0193     		str	r3, [sp, #4]
 877              		.loc 7 542 0
 878 0094 019B     		ldr	r3, [sp, #4]
 879 0096 012B     		cmp	r3, #1
 880 0098 01D8     		bhi	.L50
 881              		.loc 7 543 0
 882 009a 0223     		movs	r3, #2
 883 009c 0193     		str	r3, [sp, #4]
 884              	.L50:
 885              		.loc 7 545 0
 886 009e 029A     		ldr	r2, [sp, #8]
 887 00a0 019B     		ldr	r3, [sp, #4]
ARM GAS  /tmp/cctBGKwA.s 			page 17


 888 00a2 1344     		add	r3, r3, r2
 889 00a4 1846     		mov	r0, r3
 890 00a6 FFF7FEFF 		bl	port_timer_set_alarm
 891              	.L44:
 892              		.loc 7 551 0
 893 00aa 05B0     		add	sp, sp, #20
 894              		@ sp needed
 895 00ac 5DF804FB 		ldr	pc, [sp], #4
 896              	.L52:
 897              		.align	2
 898              	.L51:
 899 00b0 00000000 		.word	ch
 900 00b4 1C000000 		.word	ch+28
 901              		.cfi_endproc
 902              	.LFE187:
 903              		.size	chVTDoTickI, .-chVTDoTickI
 904 00b8 AFF30080 		.section	.text.chRegSetThreadName,"ax",%progbits
 904      AFF30080 
 905              		.align	2
 906              		.p2align 4,,15
 907              		.thumb
 908              		.thumb_func
 909              		.type	chRegSetThreadName, %function
 910              	chRegSetThreadName:
 911              	.LFB197:
 912              		.file 8 "/home/efe/ChibiOS/os/rt/include/chregistry.h"
 913              		.loc 8 132 0
 914              		.cfi_startproc
 915              		@ args = 0, pretend = 0, frame = 8
 916              		@ frame_needed = 0, uses_anonymous_args = 0
 917              		@ link register save eliminated.
 918 0000 82B0     		sub	sp, sp, #8
 919              		.cfi_def_cfa_offset 8
 920 0002 0190     		str	r0, [sp, #4]
 921              		.loc 8 135 0
 922 0004 024B     		ldr	r3, .L54
 923 0006 9B69     		ldr	r3, [r3, #24]
 924 0008 019A     		ldr	r2, [sp, #4]
 925 000a 9A61     		str	r2, [r3, #24]
 926              		.loc 8 139 0
 927 000c 02B0     		add	sp, sp, #8
 928              		@ sp needed
 929 000e 7047     		bx	lr
 930              	.L55:
 931              		.align	2
 932              	.L54:
 933 0010 00000000 		.word	ch
 934              		.cfi_endproc
 935              	.LFE197:
 936              		.size	chRegSetThreadName, .-chRegSetThreadName
 937 0014 AFF30080 		.section	.text.chRegSetThreadNameX,"ax",%progbits
 937      AFF30080 
 937      AFF30080 
 938              		.align	2
 939              		.p2align 4,,15
 940              		.thumb
 941              		.thumb_func
ARM GAS  /tmp/cctBGKwA.s 			page 18


 942              		.type	chRegSetThreadNameX, %function
 943              	chRegSetThreadNameX:
 944              	.LFB199:
 945              		.loc 8 172 0
 946              		.cfi_startproc
 947              		@ args = 0, pretend = 0, frame = 8
 948              		@ frame_needed = 0, uses_anonymous_args = 0
 949              		@ link register save eliminated.
 950 0000 82B0     		sub	sp, sp, #8
 951              		.cfi_def_cfa_offset 8
 952 0002 0190     		str	r0, [sp, #4]
 953 0004 0091     		str	r1, [sp]
 954              		.loc 8 175 0
 955 0006 019B     		ldr	r3, [sp, #4]
 956 0008 009A     		ldr	r2, [sp]
 957 000a 9A61     		str	r2, [r3, #24]
 958              		.loc 8 180 0
 959 000c 02B0     		add	sp, sp, #8
 960              		@ sp needed
 961 000e 7047     		bx	lr
 962              		.cfi_endproc
 963              	.LFE199:
 964              		.size	chRegSetThreadNameX, .-chRegSetThreadNameX
 965              		.section	.text._idle_thread,"ax",%progbits
 966              		.align	2
 967              		.p2align 4,,15
 968              		.thumb
 969              		.thumb_func
 970              		.type	_idle_thread, %function
 971              	_idle_thread:
 972              	.LFB240:
 973              		.file 9 "/home/efe/ChibiOS/os/rt/src/chsys.c"
 974              		.loc 9 65 0
 975              		.cfi_startproc
 976              		@ args = 0, pretend = 0, frame = 8
 977              		@ frame_needed = 0, uses_anonymous_args = 0
 978 0000 00B5     		push	{lr}
 979              		.cfi_def_cfa_offset 4
 980              		.cfi_offset 14, -4
 981 0002 83B0     		sub	sp, sp, #12
 982              		.cfi_def_cfa_offset 16
 983 0004 0190     		str	r0, [sp, #4]
 984              	.L58:
 985              		.loc 9 72 0 discriminator 1
 986 0006 FFF7FEFF 		bl	port_wait_for_interrupt
 987              		.loc 9 75 0 discriminator 1
 988 000a FCE7     		b	.L58
 989              		.cfi_endproc
 990              	.LFE240:
 991              		.size	_idle_thread, .-_idle_thread
 992 000c AFF30080 		.section	.rodata
 993              		.align	2
 994              	.LC0:
 995 0000 69646C65 		.ascii	"idle\000"
 995      00
 996 0005 000000   		.section	.text.chSysInit,"ax",%progbits
 997              		.align	2
ARM GAS  /tmp/cctBGKwA.s 			page 19


 998              		.p2align 4,,15
 999              		.global	chSysInit
 1000              		.thumb
 1001              		.thumb_func
 1002              		.type	chSysInit, %function
 1003              	chSysInit:
 1004              	.LFB241:
 1005              		.loc 9 93 0
 1006              		.cfi_startproc
 1007              		@ args = 0, pretend = 0, frame = 8
 1008              		@ frame_needed = 0, uses_anonymous_args = 0
 1009 0000 00B5     		push	{lr}
 1010              		.cfi_def_cfa_offset 4
 1011              		.cfi_offset 14, -4
 1012 0002 85B0     		sub	sp, sp, #20
 1013              		.cfi_def_cfa_offset 24
 1014              		.loc 9 98 0
 1015 0004 FFF7FEFF 		bl	port_init
 1016              		.loc 9 99 0
 1017 0008 FFF7FEFF 		bl	_scheduler_init
 1018              		.loc 9 100 0
 1019 000c FFF7FEFF 		bl	_vt_init
 1020              		.loc 9 102 0
 1021 0010 FFF7FEFF 		bl	_tm_init
 1022              		.loc 9 105 0
 1023 0014 FFF7FEFF 		bl	_core_init
 1024              		.loc 9 108 0
 1025 0018 FFF7FEFF 		bl	_heap_init
 1026              		.loc 9 119 0
 1027 001c 0F48     		ldr	r0, .L60
 1028 001e 4021     		movs	r1, #64
 1029 0020 FFF7FEFF 		bl	_thread_init
 1030 0024 0246     		mov	r2, r0
 1031 0026 0E4B     		ldr	r3, .L60+4
 1032 0028 9A61     		str	r2, [r3, #24]
 1033              		.loc 9 125 0
 1034 002a 0D4B     		ldr	r3, .L60+4
 1035 002c 9B69     		ldr	r3, [r3, #24]
 1036 002e 0122     		movs	r2, #1
 1037 0030 1A77     		strb	r2, [r3, #28]
 1038              		.loc 9 131 0
 1039 0032 FFF7FEFF 		bl	chSysEnable
 1040              		.loc 9 136 0
 1041 0036 0B48     		ldr	r0, .L60+8
 1042 0038 FFF7FEFF 		bl	chRegSetThreadName
 1043              	.LBB31:
 1044              		.loc 9 144 0
 1045 003c 0023     		movs	r3, #0
 1046 003e 0093     		str	r3, [sp]
 1047 0040 0948     		ldr	r0, .L60+12
 1048 0042 D821     		movs	r1, #216
 1049 0044 0122     		movs	r2, #1
 1050 0046 094B     		ldr	r3, .L60+16
 1051 0048 FFF7FEFF 		bl	chThdCreateStatic
 1052 004c 0390     		str	r0, [sp, #12]
 1053              		.loc 9 149 0
 1054 004e 0398     		ldr	r0, [sp, #12]
ARM GAS  /tmp/cctBGKwA.s 			page 20


 1055 0050 0749     		ldr	r1, .L60+20
 1056 0052 FFF7FEFF 		bl	chRegSetThreadNameX
 1057              	.LBE31:
 1058              		.loc 9 152 0
 1059 0056 05B0     		add	sp, sp, #20
 1060              		@ sp needed
 1061 0058 5DF804FB 		ldr	pc, [sp], #4
 1062              	.L61:
 1063              		.align	2
 1064              	.L60:
 1065 005c 30000000 		.word	ch+48
 1066 0060 00000000 		.word	ch
 1067 0064 00000000 		.word	ch_debug
 1068 0068 78000000 		.word	ch+120
 1069 006c 00000000 		.word	_idle_thread
 1070 0070 00000000 		.word	.LC0
 1071              		.cfi_endproc
 1072              	.LFE241:
 1073              		.size	chSysInit, .-chSysInit
 1074 0074 AFF30080 		.section	.text.chSysHalt,"ax",%progbits
 1074      AFF30080 
 1074      AFF30080 
 1075              		.align	2
 1076              		.p2align 4,,15
 1077              		.global	chSysHalt
 1078              		.thumb
 1079              		.thumb_func
 1080              		.type	chSysHalt, %function
 1081              	chSysHalt:
 1082              	.LFB242:
 1083              		.loc 9 166 0
 1084              		.cfi_startproc
 1085              		@ args = 0, pretend = 0, frame = 8
 1086              		@ frame_needed = 0, uses_anonymous_args = 0
 1087 0000 00B5     		push	{lr}
 1088              		.cfi_def_cfa_offset 4
 1089              		.cfi_offset 14, -4
 1090 0002 83B0     		sub	sp, sp, #12
 1091              		.cfi_def_cfa_offset 16
 1092 0004 0190     		str	r0, [sp, #4]
 1093              		.loc 9 168 0
 1094 0006 FFF7FEFF 		bl	port_disable
 1095              		.loc 9 175 0
 1096 000a 024B     		ldr	r3, .L64
 1097 000c 019A     		ldr	r2, [sp, #4]
 1098 000e DA62     		str	r2, [r3, #44]
 1099              	.L63:
 1100              		.loc 9 179 0 discriminator 1
 1101 0010 FEE7     		b	.L63
 1102              	.L65:
 1103 0012 00BF     		.align	2
 1104              	.L64:
 1105 0014 00000000 		.word	ch
 1106              		.cfi_endproc
 1107              	.LFE242:
 1108              		.size	chSysHalt, .-chSysHalt
 1109 0018 AFF30080 		.section	.text.chSysIntegrityCheckI,"ax",%progbits
ARM GAS  /tmp/cctBGKwA.s 			page 21


 1109      AFF30080 
 1110              		.align	2
 1111              		.p2align 4,,15
 1112              		.global	chSysIntegrityCheckI
 1113              		.thumb
 1114              		.thumb_func
 1115              		.type	chSysIntegrityCheckI, %function
 1116              	chSysIntegrityCheckI:
 1117              	.LFB243:
 1118              		.loc 9 206 0
 1119              		.cfi_startproc
 1120              		@ args = 0, pretend = 0, frame = 24
 1121              		@ frame_needed = 0, uses_anonymous_args = 0
 1122              		@ link register save eliminated.
 1123 0000 86B0     		sub	sp, sp, #24
 1124              		.cfi_def_cfa_offset 24
 1125 0002 0190     		str	r0, [sp, #4]
 1126              		.loc 9 212 0
 1127 0004 019B     		ldr	r3, [sp, #4]
 1128 0006 03F00103 		and	r3, r3, #1
 1129 000a 002B     		cmp	r3, #0
 1130 000c 22D0     		beq	.L67
 1131              	.LBB32:
 1132              		.loc 9 216 0
 1133 000e 0023     		movs	r3, #0
 1134 0010 0593     		str	r3, [sp, #20]
 1135              		.loc 9 217 0
 1136 0012 3A4B     		ldr	r3, .L83
 1137 0014 1B68     		ldr	r3, [r3]
 1138 0016 0493     		str	r3, [sp, #16]
 1139              		.loc 9 218 0
 1140 0018 05E0     		b	.L68
 1141              	.L69:
 1142              		.loc 9 219 0
 1143 001a 059B     		ldr	r3, [sp, #20]
 1144 001c 0133     		adds	r3, r3, #1
 1145 001e 0593     		str	r3, [sp, #20]
 1146              		.loc 9 220 0
 1147 0020 049B     		ldr	r3, [sp, #16]
 1148 0022 1B68     		ldr	r3, [r3]
 1149 0024 0493     		str	r3, [sp, #16]
 1150              	.L68:
 1151              		.loc 9 218 0 discriminator 1
 1152 0026 049A     		ldr	r2, [sp, #16]
 1153 0028 344B     		ldr	r3, .L83
 1154 002a 9A42     		cmp	r2, r3
 1155 002c F5D1     		bne	.L69
 1156              		.loc 9 224 0
 1157 002e 334B     		ldr	r3, .L83
 1158 0030 5B68     		ldr	r3, [r3, #4]
 1159 0032 0493     		str	r3, [sp, #16]
 1160              		.loc 9 225 0
 1161 0034 05E0     		b	.L70
 1162              	.L71:
 1163              		.loc 9 226 0
 1164 0036 059B     		ldr	r3, [sp, #20]
 1165 0038 013B     		subs	r3, r3, #1
ARM GAS  /tmp/cctBGKwA.s 			page 22


 1166 003a 0593     		str	r3, [sp, #20]
 1167              		.loc 9 227 0
 1168 003c 049B     		ldr	r3, [sp, #16]
 1169 003e 5B68     		ldr	r3, [r3, #4]
 1170 0040 0493     		str	r3, [sp, #16]
 1171              	.L70:
 1172              		.loc 9 225 0 discriminator 1
 1173 0042 049A     		ldr	r2, [sp, #16]
 1174 0044 2D4B     		ldr	r3, .L83
 1175 0046 9A42     		cmp	r2, r3
 1176 0048 F5D1     		bne	.L71
 1177              		.loc 9 231 0
 1178 004a 059B     		ldr	r3, [sp, #20]
 1179 004c 002B     		cmp	r3, #0
 1180 004e 01D0     		beq	.L67
 1181              		.loc 9 232 0
 1182 0050 0123     		movs	r3, #1
 1183 0052 50E0     		b	.L72
 1184              	.L67:
 1185              	.LBE32:
 1186              		.loc 9 237 0
 1187 0054 019B     		ldr	r3, [sp, #4]
 1188 0056 03F00203 		and	r3, r3, #2
 1189 005a 002B     		cmp	r3, #0
 1190 005c 22D0     		beq	.L73
 1191              	.LBB33:
 1192              		.loc 9 241 0
 1193 005e 0023     		movs	r3, #0
 1194 0060 0593     		str	r3, [sp, #20]
 1195              		.loc 9 242 0
 1196 0062 264B     		ldr	r3, .L83
 1197 0064 DB69     		ldr	r3, [r3, #28]
 1198 0066 0393     		str	r3, [sp, #12]
 1199              		.loc 9 243 0
 1200 0068 05E0     		b	.L74
 1201              	.L75:
 1202              		.loc 9 244 0
 1203 006a 059B     		ldr	r3, [sp, #20]
 1204 006c 0133     		adds	r3, r3, #1
 1205 006e 0593     		str	r3, [sp, #20]
 1206              		.loc 9 245 0
 1207 0070 039B     		ldr	r3, [sp, #12]
 1208 0072 1B68     		ldr	r3, [r3]
 1209 0074 0393     		str	r3, [sp, #12]
 1210              	.L74:
 1211              		.loc 9 243 0 discriminator 1
 1212 0076 039A     		ldr	r2, [sp, #12]
 1213 0078 214B     		ldr	r3, .L83+4
 1214 007a 9A42     		cmp	r2, r3
 1215 007c F5D1     		bne	.L75
 1216              		.loc 9 249 0
 1217 007e 1F4B     		ldr	r3, .L83
 1218 0080 1B6A     		ldr	r3, [r3, #32]
 1219 0082 0393     		str	r3, [sp, #12]
 1220              		.loc 9 250 0
 1221 0084 05E0     		b	.L76
 1222              	.L77:
ARM GAS  /tmp/cctBGKwA.s 			page 23


 1223              		.loc 9 251 0
 1224 0086 059B     		ldr	r3, [sp, #20]
 1225 0088 013B     		subs	r3, r3, #1
 1226 008a 0593     		str	r3, [sp, #20]
 1227              		.loc 9 252 0
 1228 008c 039B     		ldr	r3, [sp, #12]
 1229 008e 5B68     		ldr	r3, [r3, #4]
 1230 0090 0393     		str	r3, [sp, #12]
 1231              	.L76:
 1232              		.loc 9 250 0 discriminator 1
 1233 0092 039A     		ldr	r2, [sp, #12]
 1234 0094 1A4B     		ldr	r3, .L83+4
 1235 0096 9A42     		cmp	r2, r3
 1236 0098 F5D1     		bne	.L77
 1237              		.loc 9 256 0
 1238 009a 059B     		ldr	r3, [sp, #20]
 1239 009c 002B     		cmp	r3, #0
 1240 009e 01D0     		beq	.L73
 1241              		.loc 9 257 0
 1242 00a0 0123     		movs	r3, #1
 1243 00a2 28E0     		b	.L72
 1244              	.L73:
 1245              	.LBE33:
 1246              		.loc 9 262 0
 1247 00a4 019B     		ldr	r3, [sp, #4]
 1248 00a6 03F00403 		and	r3, r3, #4
 1249 00aa 002B     		cmp	r3, #0
 1250 00ac 22D0     		beq	.L78
 1251              	.LBB34:
 1252              		.loc 9 266 0
 1253 00ae 0023     		movs	r3, #0
 1254 00b0 0593     		str	r3, [sp, #20]
 1255              		.loc 9 267 0
 1256 00b2 124B     		ldr	r3, .L83
 1257 00b4 1B69     		ldr	r3, [r3, #16]
 1258 00b6 0293     		str	r3, [sp, #8]
 1259              		.loc 9 268 0
 1260 00b8 05E0     		b	.L79
 1261              	.L80:
 1262              		.loc 9 269 0
 1263 00ba 059B     		ldr	r3, [sp, #20]
 1264 00bc 0133     		adds	r3, r3, #1
 1265 00be 0593     		str	r3, [sp, #20]
 1266              		.loc 9 270 0
 1267 00c0 029B     		ldr	r3, [sp, #8]
 1268 00c2 1B69     		ldr	r3, [r3, #16]
 1269 00c4 0293     		str	r3, [sp, #8]
 1270              	.L79:
 1271              		.loc 9 268 0 discriminator 1
 1272 00c6 029A     		ldr	r2, [sp, #8]
 1273 00c8 0C4B     		ldr	r3, .L83
 1274 00ca 9A42     		cmp	r2, r3
 1275 00cc F5D1     		bne	.L80
 1276              		.loc 9 274 0
 1277 00ce 0B4B     		ldr	r3, .L83
 1278 00d0 5B69     		ldr	r3, [r3, #20]
 1279 00d2 0293     		str	r3, [sp, #8]
ARM GAS  /tmp/cctBGKwA.s 			page 24


 1280              		.loc 9 275 0
 1281 00d4 05E0     		b	.L81
 1282              	.L82:
 1283              		.loc 9 276 0
 1284 00d6 059B     		ldr	r3, [sp, #20]
 1285 00d8 013B     		subs	r3, r3, #1
 1286 00da 0593     		str	r3, [sp, #20]
 1287              		.loc 9 277 0
 1288 00dc 029B     		ldr	r3, [sp, #8]
 1289 00de 5B69     		ldr	r3, [r3, #20]
 1290 00e0 0293     		str	r3, [sp, #8]
 1291              	.L81:
 1292              		.loc 9 275 0 discriminator 1
 1293 00e2 029A     		ldr	r2, [sp, #8]
 1294 00e4 054B     		ldr	r3, .L83
 1295 00e6 9A42     		cmp	r2, r3
 1296 00e8 F5D1     		bne	.L82
 1297              		.loc 9 281 0
 1298 00ea 059B     		ldr	r3, [sp, #20]
 1299 00ec 002B     		cmp	r3, #0
 1300 00ee 01D0     		beq	.L78
 1301              		.loc 9 282 0
 1302 00f0 0123     		movs	r3, #1
 1303 00f2 00E0     		b	.L72
 1304              	.L78:
 1305              	.LBE34:
 1306              		.loc 9 293 0
 1307 00f4 0023     		movs	r3, #0
 1308              	.L72:
 1309              		.loc 9 294 0
 1310 00f6 1846     		mov	r0, r3
 1311 00f8 06B0     		add	sp, sp, #24
 1312              		@ sp needed
 1313 00fa 7047     		bx	lr
 1314              	.L84:
 1315              		.align	2
 1316              	.L83:
 1317 00fc 00000000 		.word	ch
 1318 0100 1C000000 		.word	ch+28
 1319              		.cfi_endproc
 1320              	.LFE243:
 1321              		.size	chSysIntegrityCheckI, .-chSysIntegrityCheckI
 1322 0104 AFF30080 		.section	.text.chSysTimerHandlerI,"ax",%progbits
 1322      AFF30080 
 1322      AFF30080 
 1323              		.align	2
 1324              		.p2align 4,,15
 1325              		.global	chSysTimerHandlerI
 1326              		.thumb
 1327              		.thumb_func
 1328              		.type	chSysTimerHandlerI, %function
 1329              	chSysTimerHandlerI:
 1330              	.LFB244:
 1331              		.loc 9 307 0
 1332              		.cfi_startproc
 1333              		@ args = 0, pretend = 0, frame = 0
 1334              		@ frame_needed = 0, uses_anonymous_args = 0
ARM GAS  /tmp/cctBGKwA.s 			page 25


 1335 0000 08B5     		push	{r3, lr}
 1336              		.cfi_def_cfa_offset 8
 1337              		.cfi_offset 3, -8
 1338              		.cfi_offset 14, -4
 1339              		.loc 9 321 0
 1340 0002 FFF7FEFF 		bl	chVTDoTickI
 1341              		.loc 9 325 0
 1342 0006 08BD     		pop	{r3, pc}
 1343              		.cfi_endproc
 1344              	.LFE244:
 1345              		.size	chSysTimerHandlerI, .-chSysTimerHandlerI
 1346 0008 AFF30080 		.section	.text.chSysGetStatusAndLockX,"ax",%progbits
 1346      AFF30080 
 1347              		.align	2
 1348              		.p2align 4,,15
 1349              		.global	chSysGetStatusAndLockX
 1350              		.thumb
 1351              		.thumb_func
 1352              		.type	chSysGetStatusAndLockX, %function
 1353              	chSysGetStatusAndLockX:
 1354              	.LFB245:
 1355              		.loc 9 340 0
 1356              		.cfi_startproc
 1357              		@ args = 0, pretend = 0, frame = 8
 1358              		@ frame_needed = 0, uses_anonymous_args = 0
 1359 0000 00B5     		push	{lr}
 1360              		.cfi_def_cfa_offset 4
 1361              		.cfi_offset 14, -4
 1362 0002 83B0     		sub	sp, sp, #12
 1363              		.cfi_def_cfa_offset 16
 1364              		.loc 9 342 0
 1365 0004 FFF7FEFF 		bl	port_get_irq_status
 1366 0008 0190     		str	r0, [sp, #4]
 1367              		.loc 9 343 0
 1368 000a 0198     		ldr	r0, [sp, #4]
 1369 000c FFF7FEFF 		bl	port_irq_enabled
 1370 0010 0346     		mov	r3, r0
 1371 0012 002B     		cmp	r3, #0
 1372 0014 09D0     		beq	.L87
 1373              		.loc 9 344 0
 1374 0016 FFF7FEFF 		bl	port_is_isr_context
 1375 001a 0346     		mov	r3, r0
 1376 001c 002B     		cmp	r3, #0
 1377 001e 02D0     		beq	.L88
 1378              		.loc 9 345 0
 1379 0020 FFF7FEFF 		bl	chSysLockFromISR
 1380 0024 01E0     		b	.L87
 1381              	.L88:
 1382              		.loc 9 348 0
 1383 0026 FFF7FEFF 		bl	chSysLock
 1384              	.L87:
 1385              		.loc 9 351 0
 1386 002a 019B     		ldr	r3, [sp, #4]
 1387              		.loc 9 352 0
 1388 002c 1846     		mov	r0, r3
 1389 002e 03B0     		add	sp, sp, #12
 1390              		@ sp needed
ARM GAS  /tmp/cctBGKwA.s 			page 26


 1391 0030 5DF804FB 		ldr	pc, [sp], #4
 1392              		.cfi_endproc
 1393              	.LFE245:
 1394              		.size	chSysGetStatusAndLockX, .-chSysGetStatusAndLockX
 1395 0034 AFF30080 		.section	.text.chSysRestoreStatusX,"ax",%progbits
 1395      AFF30080 
 1395      AFF30080 
 1396              		.align	2
 1397              		.p2align 4,,15
 1398              		.global	chSysRestoreStatusX
 1399              		.thumb
 1400              		.thumb_func
 1401              		.type	chSysRestoreStatusX, %function
 1402              	chSysRestoreStatusX:
 1403              	.LFB246:
 1404              		.loc 9 363 0
 1405              		.cfi_startproc
 1406              		@ args = 0, pretend = 0, frame = 8
 1407              		@ frame_needed = 0, uses_anonymous_args = 0
 1408 0000 00B5     		push	{lr}
 1409              		.cfi_def_cfa_offset 4
 1410              		.cfi_offset 14, -4
 1411 0002 83B0     		sub	sp, sp, #12
 1412              		.cfi_def_cfa_offset 16
 1413 0004 0190     		str	r0, [sp, #4]
 1414              		.loc 9 365 0
 1415 0006 0198     		ldr	r0, [sp, #4]
 1416 0008 FFF7FEFF 		bl	port_irq_enabled
 1417 000c 0346     		mov	r3, r0
 1418 000e 002B     		cmp	r3, #0
 1419 0010 0BD0     		beq	.L90
 1420              		.loc 9 366 0
 1421 0012 FFF7FEFF 		bl	port_is_isr_context
 1422 0016 0346     		mov	r3, r0
 1423 0018 002B     		cmp	r3, #0
 1424 001a 02D0     		beq	.L92
 1425              		.loc 9 367 0
 1426 001c FFF7FEFF 		bl	chSysUnlockFromISR
 1427 0020 03E0     		b	.L90
 1428              	.L92:
 1429              		.loc 9 370 0
 1430 0022 FFF7FEFF 		bl	chSchRescheduleS
 1431              		.loc 9 371 0
 1432 0026 FFF7FEFF 		bl	chSysUnlock
 1433              	.L90:
 1434              		.loc 9 374 0
 1435 002a 03B0     		add	sp, sp, #12
 1436              		@ sp needed
 1437 002c 5DF804FB 		ldr	pc, [sp], #4
 1438              		.cfi_endproc
 1439              	.LFE246:
 1440              		.size	chSysRestoreStatusX, .-chSysRestoreStatusX
 1441              		.section	.text.chSysIsCounterWithinX,"ax",%progbits
 1442              		.align	2
 1443              		.p2align 4,,15
 1444              		.global	chSysIsCounterWithinX
 1445              		.thumb
ARM GAS  /tmp/cctBGKwA.s 			page 27


 1446              		.thumb_func
 1447              		.type	chSysIsCounterWithinX, %function
 1448              	chSysIsCounterWithinX:
 1449              	.LFB247:
 1450              		.loc 9 395 0
 1451              		.cfi_startproc
 1452              		@ args = 0, pretend = 0, frame = 16
 1453              		@ frame_needed = 0, uses_anonymous_args = 0
 1454              		@ link register save eliminated.
 1455 0000 84B0     		sub	sp, sp, #16
 1456              		.cfi_def_cfa_offset 16
 1457 0002 0390     		str	r0, [sp, #12]
 1458 0004 0291     		str	r1, [sp, #8]
 1459 0006 0192     		str	r2, [sp, #4]
 1460              		.loc 9 397 0
 1461 0008 039A     		ldr	r2, [sp, #12]
 1462 000a 029B     		ldr	r3, [sp, #8]
 1463 000c D21A     		subs	r2, r2, r3
 1464 000e 0199     		ldr	r1, [sp, #4]
 1465 0010 029B     		ldr	r3, [sp, #8]
 1466 0012 CB1A     		subs	r3, r1, r3
 1467 0014 9A42     		cmp	r2, r3
 1468 0016 2CBF     		ite	cs
 1469 0018 0023     		movcs	r3, #0
 1470 001a 0123     		movcc	r3, #1
 1471 001c DBB2     		uxtb	r3, r3
 1472              		.loc 9 398 0
 1473 001e 1846     		mov	r0, r3
 1474 0020 04B0     		add	sp, sp, #16
 1475              		@ sp needed
 1476 0022 7047     		bx	lr
 1477              		.cfi_endproc
 1478              	.LFE247:
 1479              		.size	chSysIsCounterWithinX, .-chSysIsCounterWithinX
 1480 0024 AFF30080 		.section	.text.chSysPolledDelayX,"ax",%progbits
 1480      AFF30080 
 1480      AFF30080 
 1481              		.align	2
 1482              		.p2align 4,,15
 1483              		.global	chSysPolledDelayX
 1484              		.thumb
 1485              		.thumb_func
 1486              		.type	chSysPolledDelayX, %function
 1487              	chSysPolledDelayX:
 1488              	.LFB248:
 1489              		.loc 9 411 0
 1490              		.cfi_startproc
 1491              		@ args = 0, pretend = 0, frame = 16
 1492              		@ frame_needed = 0, uses_anonymous_args = 0
 1493 0000 00B5     		push	{lr}
 1494              		.cfi_def_cfa_offset 4
 1495              		.cfi_offset 14, -4
 1496 0002 85B0     		sub	sp, sp, #20
 1497              		.cfi_def_cfa_offset 24
 1498 0004 0190     		str	r0, [sp, #4]
 1499              		.loc 9 412 0
 1500 0006 FFF7FEFF 		bl	port_rt_get_counter_value
ARM GAS  /tmp/cctBGKwA.s 			page 28


 1501 000a 0390     		str	r0, [sp, #12]
 1502              		.loc 9 413 0
 1503 000c 039A     		ldr	r2, [sp, #12]
 1504 000e 019B     		ldr	r3, [sp, #4]
 1505 0010 1344     		add	r3, r3, r2
 1506 0012 0293     		str	r3, [sp, #8]
 1507              		.loc 9 415 0
 1508 0014 00BF     		nop
 1509              	.L96:
 1510              		.loc 9 415 0 is_stmt 0 discriminator 1
 1511 0016 FFF7FEFF 		bl	port_rt_get_counter_value
 1512 001a 0346     		mov	r3, r0
 1513 001c 1846     		mov	r0, r3
 1514 001e 0399     		ldr	r1, [sp, #12]
 1515 0020 029A     		ldr	r2, [sp, #8]
 1516 0022 FFF7FEFF 		bl	chSysIsCounterWithinX
 1517 0026 0346     		mov	r3, r0
 1518 0028 002B     		cmp	r3, #0
 1519 002a F4D1     		bne	.L96
 1520              		.loc 9 417 0 is_stmt 1
 1521 002c 05B0     		add	sp, sp, #20
 1522              		@ sp needed
 1523 002e 5DF804FB 		ldr	pc, [sp], #4
 1524              		.cfi_endproc
 1525              	.LFE248:
 1526              		.size	chSysPolledDelayX, .-chSysPolledDelayX
 1527 0032 00BFAFF3 		.text
 1527      0080AFF3 
 1527      0080AFF3 
 1527      0080
 1528              	.Letext0:
 1529              		.file 10 "/usr/include/newlib/machine/_default_types.h"
 1530              		.file 11 "/usr/include/newlib/stdint.h"
 1531              		.file 12 "/home/efe/ChibiOS/os/rt/ports/ARMCMx/compilers/GCC/chtypes.h"
 1532              		.file 13 "/home/efe/ChibiOS/os/rt/include/chsystypes.h"
 1533              		.file 14 "/home/efe/ChibiOS/os/rt/include/chschd.h"
 1534              		.file 15 "/home/efe/ChibiOS/os/ext/CMSIS/ST/stm32f407xx.h"
 1535              		.file 16 "/home/efe/ChibiOS/os/rt/ports/ARMCMx/chcore.h"
 1536              		.file 17 "/home/efe/ChibiOS/os/hal/ports/STM32/LLD/TIMv1/stm32_tim.h"
 1537              		.file 18 "/home/efe/ChibiOS/os/rt/include/chtm.h"
 1538              		.file 19 "/home/efe/ChibiOS/os/rt/include/chsem.h"
 1539              		.file 20 "/home/efe/ChibiOS/os/rt/include/chmtx.h"
 1540              		.file 21 "/home/efe/ChibiOS/os/rt/include/chthreads.h"