ARM GAS  /tmp/cc72Hk9S.s 			page 1


   1              		.syntax unified
   2              		.cpu cortex-m4
   3              		.fpu softvfp
   4              		.eabi_attribute 20, 1
   5              		.eabi_attribute 21, 1
   6              		.eabi_attribute 23, 3
   7              		.eabi_attribute 24, 1
   8              		.eabi_attribute 25, 1
   9              		.eabi_attribute 26, 1
  10              		.eabi_attribute 30, 6
  11              		.eabi_attribute 34, 1
  12              		.eabi_attribute 18, 4
  13              		.thumb
  14              		.file	"chthreads.c"
  15              		.text
  16              	.Ltext0:
  17              		.cfi_sections	.debug_frame
  18              		.section	.text.port_lock,"ax",%progbits
  19              		.align	2
  20              		.p2align 4,,15
  21              		.thumb
  22              		.thumb_func
  23              		.type	port_lock, %function
  24              	port_lock:
  25              	.LFB127:
  26              		.file 1 "/home/efe/ChibiOS/os/rt/ports/ARMCMx/chcore_v7m.h"
  27              		.loc 1 456 0
  28              		.cfi_startproc
  29              		@ args = 0, pretend = 0, frame = 8
  30              		@ frame_needed = 0, uses_anonymous_args = 0
  31              		@ link register save eliminated.
  32 0000 82B0     		sub	sp, sp, #8
  33              		.cfi_def_cfa_offset 8
  34 0002 2023     		movs	r3, #32
  35 0004 0193     		str	r3, [sp, #4]
  36              	.LBB6:
  37              	.LBB7:
  38              		.file 2 "/home/efe/ChibiOS/os/ext/CMSIS/include/core_cmFunc.h"
  39              		.loc 2 548 0
  40 0006 019B     		ldr	r3, [sp, #4]
  41              	@ 548 "/home/efe/ChibiOS/os/ext/CMSIS/include/core_cmFunc.h" 1
  42 0008 83F31188 		MSR basepri, r3
  43              	@ 0 "" 2
  44              		.thumb
  45              	.LBE7:
  46              	.LBE6:
  47              		.loc 1 463 0
  48 000c 02B0     		add	sp, sp, #8
  49              		@ sp needed
  50 000e 7047     		bx	lr
  51              		.cfi_endproc
  52              	.LFE127:
  53              		.size	port_lock, .-port_lock
  54              		.section	.text.port_unlock,"ax",%progbits
  55              		.align	2
  56              		.p2align 4,,15
  57              		.thumb
ARM GAS  /tmp/cc72Hk9S.s 			page 2


  58              		.thumb_func
  59              		.type	port_unlock, %function
  60              	port_unlock:
  61              	.LFB128:
  62              		.loc 1 470 0
  63              		.cfi_startproc
  64              		@ args = 0, pretend = 0, frame = 8
  65              		@ frame_needed = 0, uses_anonymous_args = 0
  66              		@ link register save eliminated.
  67 0000 82B0     		sub	sp, sp, #8
  68              		.cfi_def_cfa_offset 8
  69 0002 0023     		movs	r3, #0
  70 0004 0193     		str	r3, [sp, #4]
  71              	.LBB8:
  72              	.LBB9:
  73              		.loc 2 548 0
  74 0006 019B     		ldr	r3, [sp, #4]
  75              	@ 548 "/home/efe/ChibiOS/os/ext/CMSIS/include/core_cmFunc.h" 1
  76 0008 83F31188 		MSR basepri, r3
  77              	@ 0 "" 2
  78              		.thumb
  79              	.LBE9:
  80              	.LBE8:
  81              		.loc 1 477 0
  82 000c 02B0     		add	sp, sp, #8
  83              		@ sp needed
  84 000e 7047     		bx	lr
  85              		.cfi_endproc
  86              	.LFE128:
  87              		.size	port_unlock, .-port_unlock
  88              		.section	.text.st_lld_get_counter,"ax",%progbits
  89              		.align	2
  90              		.p2align 4,,15
  91              		.thumb
  92              		.thumb_func
  93              		.type	st_lld_get_counter, %function
  94              	st_lld_get_counter:
  95              	.LFB136:
  96              		.file 3 "/home/efe/ChibiOS/os/hal/ports/STM32/LLD/TIMv1/st_lld.h"
  97              		.loc 3 139 0
  98              		.cfi_startproc
  99              		@ args = 0, pretend = 0, frame = 0
 100              		@ frame_needed = 0, uses_anonymous_args = 0
 101              		@ link register save eliminated.
 102              		.loc 3 141 0
 103 0000 4FF08043 		mov	r3, #1073741824
 104 0004 5B6A     		ldr	r3, [r3, #36]
 105              		.loc 3 142 0
 106 0006 1846     		mov	r0, r3
 107 0008 7047     		bx	lr
 108              		.cfi_endproc
 109              	.LFE136:
 110              		.size	st_lld_get_counter, .-st_lld_get_counter
 111 000a 00BFAFF3 		.section	.text.port_timer_get_time,"ax",%progbits
 111      0080
 112              		.align	2
 113              		.p2align 4,,15
ARM GAS  /tmp/cc72Hk9S.s 			page 3


 114              		.thumb
 115              		.thumb_func
 116              		.type	port_timer_get_time, %function
 117              	port_timer_get_time:
 118              	.LFB145:
 119              		.file 4 "/home/efe/ChibiOS/os/rt/ports/ARMCMx/chcore_timer.h"
 120              		.loc 4 105 0
 121              		.cfi_startproc
 122              		@ args = 0, pretend = 0, frame = 0
 123              		@ frame_needed = 0, uses_anonymous_args = 0
 124 0000 08B5     		push	{r3, lr}
 125              		.cfi_def_cfa_offset 8
 126              		.cfi_offset 3, -8
 127              		.cfi_offset 14, -4
 128              		.loc 4 107 0
 129 0002 FFF7FEFF 		bl	st_lld_get_counter
 130 0006 0346     		mov	r3, r0
 131              		.loc 4 108 0
 132 0008 1846     		mov	r0, r3
 133 000a 08BD     		pop	{r3, pc}
 134              		.cfi_endproc
 135              	.LFE145:
 136              		.size	port_timer_get_time, .-port_timer_get_time
 137              		.section	.text.list_init,"ax",%progbits
 138              		.align	2
 139              		.p2align 4,,15
 140              		.thumb
 141              		.thumb_func
 142              		.type	list_init, %function
 143              	list_init:
 144              	.LFB147:
 145              		.file 5 "/home/efe/ChibiOS/os/rt/include/chschd.h"
 146              		.loc 5 564 0
 147              		.cfi_startproc
 148              		@ args = 0, pretend = 0, frame = 8
 149              		@ frame_needed = 0, uses_anonymous_args = 0
 150              		@ link register save eliminated.
 151 0000 82B0     		sub	sp, sp, #8
 152              		.cfi_def_cfa_offset 8
 153 0002 0190     		str	r0, [sp, #4]
 154              		.loc 5 566 0
 155 0004 019B     		ldr	r3, [sp, #4]
 156 0006 019A     		ldr	r2, [sp, #4]
 157 0008 1A60     		str	r2, [r3]
 158              		.loc 5 567 0
 159 000a 02B0     		add	sp, sp, #8
 160              		@ sp needed
 161 000c 7047     		bx	lr
 162              		.cfi_endproc
 163              	.LFE147:
 164              		.size	list_init, .-list_init
 165 000e 00BF     		.section	.text.list_notempty,"ax",%progbits
 166              		.align	2
 167              		.p2align 4,,15
 168              		.thumb
 169              		.thumb_func
 170              		.type	list_notempty, %function
ARM GAS  /tmp/cc72Hk9S.s 			page 4


 171              	list_notempty:
 172              	.LFB149:
 173              		.loc 5 590 0
 174              		.cfi_startproc
 175              		@ args = 0, pretend = 0, frame = 8
 176              		@ frame_needed = 0, uses_anonymous_args = 0
 177              		@ link register save eliminated.
 178 0000 82B0     		sub	sp, sp, #8
 179              		.cfi_def_cfa_offset 8
 180 0002 0190     		str	r0, [sp, #4]
 181              		.loc 5 592 0
 182 0004 019B     		ldr	r3, [sp, #4]
 183 0006 1A68     		ldr	r2, [r3]
 184 0008 019B     		ldr	r3, [sp, #4]
 185 000a 9A42     		cmp	r2, r3
 186 000c 0CBF     		ite	eq
 187 000e 0023     		moveq	r3, #0
 188 0010 0123     		movne	r3, #1
 189 0012 DBB2     		uxtb	r3, r3
 190              		.loc 5 593 0
 191 0014 1846     		mov	r0, r3
 192 0016 02B0     		add	sp, sp, #8
 193              		@ sp needed
 194 0018 7047     		bx	lr
 195              		.cfi_endproc
 196              	.LFE149:
 197              		.size	list_notempty, .-list_notempty
 198 001a 00BFAFF3 		.section	.text.queue_init,"ax",%progbits
 198      0080
 199              		.align	2
 200              		.p2align 4,,15
 201              		.thumb
 202              		.thumb_func
 203              		.type	queue_init, %function
 204              	queue_init:
 205              	.LFB150:
 206              		.loc 5 602 0
 207              		.cfi_startproc
 208              		@ args = 0, pretend = 0, frame = 8
 209              		@ frame_needed = 0, uses_anonymous_args = 0
 210              		@ link register save eliminated.
 211 0000 82B0     		sub	sp, sp, #8
 212              		.cfi_def_cfa_offset 8
 213 0002 0190     		str	r0, [sp, #4]
 214              		.loc 5 604 0
 215 0004 019B     		ldr	r3, [sp, #4]
 216 0006 019A     		ldr	r2, [sp, #4]
 217 0008 1A60     		str	r2, [r3]
 218              		.loc 5 605 0
 219 000a 019B     		ldr	r3, [sp, #4]
 220 000c 019A     		ldr	r2, [sp, #4]
 221 000e 5A60     		str	r2, [r3, #4]
 222              		.loc 5 606 0
 223 0010 02B0     		add	sp, sp, #8
 224              		@ sp needed
 225 0012 7047     		bx	lr
 226              		.cfi_endproc
ARM GAS  /tmp/cc72Hk9S.s 			page 5


 227              	.LFE150:
 228              		.size	queue_init, .-queue_init
 229 0014 AFF30080 		.section	.text.queue_notempty,"ax",%progbits
 229      AFF30080 
 229      AFF30080 
 230              		.align	2
 231              		.p2align 4,,15
 232              		.thumb
 233              		.thumb_func
 234              		.type	queue_notempty, %function
 235              	queue_notempty:
 236              	.LFB152:
 237              		.loc 5 629 0
 238              		.cfi_startproc
 239              		@ args = 0, pretend = 0, frame = 8
 240              		@ frame_needed = 0, uses_anonymous_args = 0
 241              		@ link register save eliminated.
 242 0000 82B0     		sub	sp, sp, #8
 243              		.cfi_def_cfa_offset 8
 244 0002 0190     		str	r0, [sp, #4]
 245              		.loc 5 631 0
 246 0004 019B     		ldr	r3, [sp, #4]
 247 0006 1A68     		ldr	r2, [r3]
 248 0008 019B     		ldr	r3, [sp, #4]
 249 000a 9A42     		cmp	r2, r3
 250 000c 0CBF     		ite	eq
 251 000e 0023     		moveq	r3, #0
 252 0010 0123     		movne	r3, #1
 253 0012 DBB2     		uxtb	r3, r3
 254              		.loc 5 632 0
 255 0014 1846     		mov	r0, r3
 256 0016 02B0     		add	sp, sp, #8
 257              		@ sp needed
 258 0018 7047     		bx	lr
 259              		.cfi_endproc
 260              	.LFE152:
 261              		.size	queue_notempty, .-queue_notempty
 262 001a 00BFAFF3 		.section	.text.list_insert,"ax",%progbits
 262      0080
 263              		.align	2
 264              		.p2align 4,,15
 265              		.thumb
 266              		.thumb_func
 267              		.type	list_insert, %function
 268              	list_insert:
 269              	.LFB153:
 270              		.loc 5 637 0
 271              		.cfi_startproc
 272              		@ args = 0, pretend = 0, frame = 8
 273              		@ frame_needed = 0, uses_anonymous_args = 0
 274              		@ link register save eliminated.
 275 0000 82B0     		sub	sp, sp, #8
 276              		.cfi_def_cfa_offset 8
 277 0002 0190     		str	r0, [sp, #4]
 278 0004 0091     		str	r1, [sp]
 279              		.loc 5 639 0
 280 0006 009B     		ldr	r3, [sp]
ARM GAS  /tmp/cc72Hk9S.s 			page 6


 281 0008 1A68     		ldr	r2, [r3]
 282 000a 019B     		ldr	r3, [sp, #4]
 283 000c 1A60     		str	r2, [r3]
 284              		.loc 5 640 0
 285 000e 009B     		ldr	r3, [sp]
 286 0010 019A     		ldr	r2, [sp, #4]
 287 0012 1A60     		str	r2, [r3]
 288              		.loc 5 641 0
 289 0014 02B0     		add	sp, sp, #8
 290              		@ sp needed
 291 0016 7047     		bx	lr
 292              		.cfi_endproc
 293              	.LFE153:
 294              		.size	list_insert, .-list_insert
 295 0018 AFF30080 		.section	.text.list_remove,"ax",%progbits
 295      AFF30080 
 296              		.align	2
 297              		.p2align 4,,15
 298              		.thumb
 299              		.thumb_func
 300              		.type	list_remove, %function
 301              	list_remove:
 302              	.LFB154:
 303              		.loc 5 643 0
 304              		.cfi_startproc
 305              		@ args = 0, pretend = 0, frame = 16
 306              		@ frame_needed = 0, uses_anonymous_args = 0
 307              		@ link register save eliminated.
 308 0000 84B0     		sub	sp, sp, #16
 309              		.cfi_def_cfa_offset 16
 310 0002 0190     		str	r0, [sp, #4]
 311              		.loc 5 645 0
 312 0004 019B     		ldr	r3, [sp, #4]
 313 0006 1B68     		ldr	r3, [r3]
 314 0008 0393     		str	r3, [sp, #12]
 315              		.loc 5 646 0
 316 000a 039B     		ldr	r3, [sp, #12]
 317 000c 1A68     		ldr	r2, [r3]
 318 000e 019B     		ldr	r3, [sp, #4]
 319 0010 1A60     		str	r2, [r3]
 320              		.loc 5 648 0
 321 0012 039B     		ldr	r3, [sp, #12]
 322              		.loc 5 649 0
 323 0014 1846     		mov	r0, r3
 324 0016 04B0     		add	sp, sp, #16
 325              		@ sp needed
 326 0018 7047     		bx	lr
 327              		.cfi_endproc
 328              	.LFE154:
 329              		.size	list_remove, .-list_remove
 330 001a 00BFAFF3 		.section	.text.queue_insert,"ax",%progbits
 330      0080
 331              		.align	2
 332              		.p2align 4,,15
 333              		.thumb
 334              		.thumb_func
 335              		.type	queue_insert, %function
ARM GAS  /tmp/cc72Hk9S.s 			page 7


 336              	queue_insert:
 337              	.LFB156:
 338              		.loc 5 663 0
 339              		.cfi_startproc
 340              		@ args = 0, pretend = 0, frame = 8
 341              		@ frame_needed = 0, uses_anonymous_args = 0
 342              		@ link register save eliminated.
 343 0000 82B0     		sub	sp, sp, #8
 344              		.cfi_def_cfa_offset 8
 345 0002 0190     		str	r0, [sp, #4]
 346 0004 0091     		str	r1, [sp]
 347              		.loc 5 665 0
 348 0006 019B     		ldr	r3, [sp, #4]
 349 0008 009A     		ldr	r2, [sp]
 350 000a 1A60     		str	r2, [r3]
 351              		.loc 5 666 0
 352 000c 009B     		ldr	r3, [sp]
 353 000e 5A68     		ldr	r2, [r3, #4]
 354 0010 019B     		ldr	r3, [sp, #4]
 355 0012 5A60     		str	r2, [r3, #4]
 356              		.loc 5 667 0
 357 0014 019B     		ldr	r3, [sp, #4]
 358 0016 5B68     		ldr	r3, [r3, #4]
 359 0018 019A     		ldr	r2, [sp, #4]
 360 001a 1A60     		str	r2, [r3]
 361              		.loc 5 668 0
 362 001c 009B     		ldr	r3, [sp]
 363 001e 019A     		ldr	r2, [sp, #4]
 364 0020 5A60     		str	r2, [r3, #4]
 365              		.loc 5 669 0
 366 0022 02B0     		add	sp, sp, #8
 367              		@ sp needed
 368 0024 7047     		bx	lr
 369              		.cfi_endproc
 370              	.LFE156:
 371              		.size	queue_insert, .-queue_insert
 372 0026 00BFAFF3 		.section	.text.queue_fifo_remove,"ax",%progbits
 372      0080AFF3 
 372      0080
 373              		.align	2
 374              		.p2align 4,,15
 375              		.thumb
 376              		.thumb_func
 377              		.type	queue_fifo_remove, %function
 378              	queue_fifo_remove:
 379              	.LFB157:
 380              		.loc 5 671 0
 381              		.cfi_startproc
 382              		@ args = 0, pretend = 0, frame = 16
 383              		@ frame_needed = 0, uses_anonymous_args = 0
 384              		@ link register save eliminated.
 385 0000 84B0     		sub	sp, sp, #16
 386              		.cfi_def_cfa_offset 16
 387 0002 0190     		str	r0, [sp, #4]
 388              		.loc 5 672 0
 389 0004 019B     		ldr	r3, [sp, #4]
 390 0006 1B68     		ldr	r3, [r3]
ARM GAS  /tmp/cc72Hk9S.s 			page 8


 391 0008 0393     		str	r3, [sp, #12]
 392              		.loc 5 674 0
 393 000a 039B     		ldr	r3, [sp, #12]
 394 000c 1A68     		ldr	r2, [r3]
 395 000e 019B     		ldr	r3, [sp, #4]
 396 0010 1A60     		str	r2, [r3]
 397              		.loc 5 675 0
 398 0012 019B     		ldr	r3, [sp, #4]
 399 0014 1B68     		ldr	r3, [r3]
 400 0016 019A     		ldr	r2, [sp, #4]
 401 0018 5A60     		str	r2, [r3, #4]
 402              		.loc 5 677 0
 403 001a 039B     		ldr	r3, [sp, #12]
 404              		.loc 5 678 0
 405 001c 1846     		mov	r0, r3
 406 001e 04B0     		add	sp, sp, #16
 407              		@ sp needed
 408 0020 7047     		bx	lr
 409              		.cfi_endproc
 410              	.LFE157:
 411              		.size	queue_fifo_remove, .-queue_fifo_remove
 412 0022 00BFAFF3 		.section	.text.chSchCanYieldS,"ax",%progbits
 412      0080AFF3 
 412      0080AFF3 
 412      0080
 413              		.align	2
 414              		.p2align 4,,15
 415              		.thumb
 416              		.thumb_func
 417              		.type	chSchCanYieldS, %function
 418              	chSchCanYieldS:
 419              	.LFB161:
 420              		.loc 5 727 0
 421              		.cfi_startproc
 422              		@ args = 0, pretend = 0, frame = 0
 423              		@ frame_needed = 0, uses_anonymous_args = 0
 424              		@ link register save eliminated.
 425              		.loc 5 731 0
 426 0000 064B     		ldr	r3, .L21
 427 0002 1B68     		ldr	r3, [r3]
 428 0004 9A68     		ldr	r2, [r3, #8]
 429 0006 054B     		ldr	r3, .L21
 430 0008 9B69     		ldr	r3, [r3, #24]
 431 000a 9B68     		ldr	r3, [r3, #8]
 432 000c 9A42     		cmp	r2, r3
 433 000e 34BF     		ite	cc
 434 0010 0023     		movcc	r3, #0
 435 0012 0123     		movcs	r3, #1
 436 0014 DBB2     		uxtb	r3, r3
 437              		.loc 5 732 0
 438 0016 1846     		mov	r0, r3
 439 0018 7047     		bx	lr
 440              	.L22:
 441 001a 00BF     		.align	2
 442              	.L21:
 443 001c 00000000 		.word	ch
 444              		.cfi_endproc
ARM GAS  /tmp/cc72Hk9S.s 			page 9


 445              	.LFE161:
 446              		.size	chSchCanYieldS, .-chSchCanYieldS
 447              		.section	.text.chSchDoYieldS,"ax",%progbits
 448              		.align	2
 449              		.p2align 4,,15
 450              		.thumb
 451              		.thumb_func
 452              		.type	chSchDoYieldS, %function
 453              	chSchDoYieldS:
 454              	.LFB162:
 455              		.loc 5 741 0
 456              		.cfi_startproc
 457              		@ args = 0, pretend = 0, frame = 0
 458              		@ frame_needed = 0, uses_anonymous_args = 0
 459 0000 08B5     		push	{r3, lr}
 460              		.cfi_def_cfa_offset 8
 461              		.cfi_offset 3, -8
 462              		.cfi_offset 14, -4
 463              		.loc 5 745 0
 464 0002 FFF7FEFF 		bl	chSchCanYieldS
 465 0006 0346     		mov	r3, r0
 466 0008 002B     		cmp	r3, #0
 467 000a 01D0     		beq	.L23
 468              		.loc 5 746 0
 469 000c FFF7FEFF 		bl	chSchDoRescheduleBehind
 470              	.L23:
 471              		.loc 5 748 0
 472 0010 08BD     		pop	{r3, pc}
 473              		.cfi_endproc
 474              	.LFE162:
 475              		.size	chSchDoYieldS, .-chSchDoYieldS
 476 0012 00BFAFF3 		.section	.text.chSysLock,"ax",%progbits
 476      0080AFF3 
 476      0080AFF3 
 476      0080
 477              		.align	2
 478              		.p2align 4,,15
 479              		.thumb
 480              		.thumb_func
 481              		.type	chSysLock, %function
 482              	chSysLock:
 483              	.LFB167:
 484              		.file 6 "/home/efe/ChibiOS/os/rt/include/chsys.h"
 485              		.loc 6 346 0
 486              		.cfi_startproc
 487              		@ args = 0, pretend = 0, frame = 0
 488              		@ frame_needed = 0, uses_anonymous_args = 0
 489 0000 08B5     		push	{r3, lr}
 490              		.cfi_def_cfa_offset 8
 491              		.cfi_offset 3, -8
 492              		.cfi_offset 14, -4
 493              		.loc 6 348 0
 494 0002 FFF7FEFF 		bl	port_lock
 495              		.loc 6 351 0
 496 0006 08BD     		pop	{r3, pc}
 497              		.cfi_endproc
 498              	.LFE167:
ARM GAS  /tmp/cc72Hk9S.s 			page 10


 499              		.size	chSysLock, .-chSysLock
 500 0008 AFF30080 		.section	.text.chSysUnlock,"ax",%progbits
 500      AFF30080 
 501              		.align	2
 502              		.p2align 4,,15
 503              		.thumb
 504              		.thumb_func
 505              		.type	chSysUnlock, %function
 506              	chSysUnlock:
 507              	.LFB168:
 508              		.loc 6 358 0
 509              		.cfi_startproc
 510              		@ args = 0, pretend = 0, frame = 0
 511              		@ frame_needed = 0, uses_anonymous_args = 0
 512 0000 08B5     		push	{r3, lr}
 513              		.cfi_def_cfa_offset 8
 514              		.cfi_offset 3, -8
 515              		.cfi_offset 14, -4
 516              		.loc 6 371 0
 517 0002 FFF7FEFF 		bl	port_unlock
 518              		.loc 6 372 0
 519 0006 08BD     		pop	{r3, pc}
 520              		.cfi_endproc
 521              	.LFE168:
 522              		.size	chSysUnlock, .-chSysUnlock
 523 0008 AFF30080 		.section	.text.chVTGetSystemTimeX,"ax",%progbits
 523      AFF30080 
 524              		.align	2
 525              		.p2align 4,,15
 526              		.thumb
 527              		.thumb_func
 528              		.type	chVTGetSystemTimeX, %function
 529              	chVTGetSystemTimeX:
 530              	.LFB175:
 531              		.file 7 "/home/efe/ChibiOS/os/rt/include/chvt.h"
 532              		.loc 7 228 0
 533              		.cfi_startproc
 534              		@ args = 0, pretend = 0, frame = 0
 535              		@ frame_needed = 0, uses_anonymous_args = 0
 536 0000 08B5     		push	{r3, lr}
 537              		.cfi_def_cfa_offset 8
 538              		.cfi_offset 3, -8
 539              		.cfi_offset 14, -4
 540              		.loc 7 233 0
 541 0002 FFF7FEFF 		bl	port_timer_get_time
 542 0006 0346     		mov	r3, r0
 543              		.loc 7 235 0
 544 0008 1846     		mov	r0, r3
 545 000a 08BD     		pop	{r3, pc}
 546              		.cfi_endproc
 547              	.LFE175:
 548              		.size	chVTGetSystemTimeX, .-chVTGetSystemTimeX
 549              		.section	.text.chVTIsTimeWithinX,"ax",%progbits
 550              		.align	2
 551              		.p2align 4,,15
 552              		.thumb
 553              		.thumb_func
ARM GAS  /tmp/cc72Hk9S.s 			page 11


 554              		.type	chVTIsTimeWithinX, %function
 555              	chVTIsTimeWithinX:
 556              	.LFB178:
 557              		.loc 7 286 0
 558              		.cfi_startproc
 559              		@ args = 0, pretend = 0, frame = 16
 560              		@ frame_needed = 0, uses_anonymous_args = 0
 561              		@ link register save eliminated.
 562 0000 84B0     		sub	sp, sp, #16
 563              		.cfi_def_cfa_offset 16
 564 0002 0390     		str	r0, [sp, #12]
 565 0004 0291     		str	r1, [sp, #8]
 566 0006 0192     		str	r2, [sp, #4]
 567              		.loc 7 288 0
 568 0008 039A     		ldr	r2, [sp, #12]
 569 000a 029B     		ldr	r3, [sp, #8]
 570 000c D21A     		subs	r2, r2, r3
 571 000e 0199     		ldr	r1, [sp, #4]
 572 0010 029B     		ldr	r3, [sp, #8]
 573 0012 CB1A     		subs	r3, r1, r3
 574 0014 9A42     		cmp	r2, r3
 575 0016 2CBF     		ite	cs
 576 0018 0023     		movcs	r3, #0
 577 001a 0123     		movcc	r3, #1
 578 001c DBB2     		uxtb	r3, r3
 579              		.loc 7 289 0
 580 001e 1846     		mov	r0, r3
 581 0020 04B0     		add	sp, sp, #16
 582              		@ sp needed
 583 0022 7047     		bx	lr
 584              		.cfi_endproc
 585              	.LFE178:
 586              		.size	chVTIsTimeWithinX, .-chVTIsTimeWithinX
 587 0024 AFF30080 		.section	.text.chThdGetSelfX,"ax",%progbits
 587      AFF30080 
 587      AFF30080 
 588              		.align	2
 589              		.p2align 4,,15
 590              		.thumb
 591              		.thumb_func
 592              		.type	chThdGetSelfX, %function
 593              	chThdGetSelfX:
 594              	.LFB188:
 595              		.file 8 "/home/efe/ChibiOS/os/rt/include/chthreads.h"
 596              		.loc 8 174 0
 597              		.cfi_startproc
 598              		@ args = 0, pretend = 0, frame = 0
 599              		@ frame_needed = 0, uses_anonymous_args = 0
 600              		@ link register save eliminated.
 601              		.loc 8 176 0
 602 0000 014B     		ldr	r3, .L33
 603 0002 9B69     		ldr	r3, [r3, #24]
 604              		.loc 8 177 0
 605 0004 1846     		mov	r0, r3
 606 0006 7047     		bx	lr
 607              	.L34:
 608              		.align	2
ARM GAS  /tmp/cc72Hk9S.s 			page 12


 609              	.L33:
 610 0008 00000000 		.word	ch
 611              		.cfi_endproc
 612              	.LFE188:
 613              		.size	chThdGetSelfX, .-chThdGetSelfX
 614 000c AFF30080 		.section	.text.chThdStartI,"ax",%progbits
 615              		.align	2
 616              		.p2align 4,,15
 617              		.thumb
 618              		.thumb_func
 619              		.type	chThdStartI, %function
 620              	chThdStartI:
 621              	.LFB192:
 622              		.loc 8 245 0
 623              		.cfi_startproc
 624              		@ args = 0, pretend = 0, frame = 8
 625              		@ frame_needed = 0, uses_anonymous_args = 0
 626 0000 00B5     		push	{lr}
 627              		.cfi_def_cfa_offset 4
 628              		.cfi_offset 14, -4
 629 0002 83B0     		sub	sp, sp, #12
 630              		.cfi_def_cfa_offset 16
 631 0004 0190     		str	r0, [sp, #4]
 632              		.loc 8 249 0
 633 0006 0198     		ldr	r0, [sp, #4]
 634 0008 FFF7FEFF 		bl	chSchReadyI
 635 000c 0346     		mov	r3, r0
 636              		.loc 8 250 0
 637 000e 1846     		mov	r0, r3
 638 0010 03B0     		add	sp, sp, #12
 639              		@ sp needed
 640 0012 5DF804FB 		ldr	pc, [sp], #4
 641              		.cfi_endproc
 642              	.LFE192:
 643              		.size	chThdStartI, .-chThdStartI
 644 0016 00BFAFF3 		.section	.text.chThdSleepS,"ax",%progbits
 644      0080AFF3 
 644      0080
 645              		.align	2
 646              		.p2align 4,,15
 647              		.thumb
 648              		.thumb_func
 649              		.type	chThdSleepS, %function
 650              	chThdSleepS:
 651              	.LFB193:
 652              		.loc 8 264 0
 653              		.cfi_startproc
 654              		@ args = 0, pretend = 0, frame = 8
 655              		@ frame_needed = 0, uses_anonymous_args = 0
 656 0000 00B5     		push	{lr}
 657              		.cfi_def_cfa_offset 4
 658              		.cfi_offset 14, -4
 659 0002 83B0     		sub	sp, sp, #12
 660              		.cfi_def_cfa_offset 16
 661 0004 0190     		str	r0, [sp, #4]
 662              		.loc 8 268 0
 663 0006 0820     		movs	r0, #8
ARM GAS  /tmp/cc72Hk9S.s 			page 13


 664 0008 0199     		ldr	r1, [sp, #4]
 665 000a FFF7FEFF 		bl	chSchGoSleepTimeoutS
 666              		.loc 8 269 0
 667 000e 03B0     		add	sp, sp, #12
 668              		@ sp needed
 669 0010 5DF804FB 		ldr	pc, [sp], #4
 670              		.cfi_endproc
 671              	.LFE193:
 672              		.size	chThdSleepS, .-chThdSleepS
 673 0014 AFF30080 		.section	.text.chThdDoDequeueNextI,"ax",%progbits
 673      AFF30080 
 673      AFF30080 
 674              		.align	2
 675              		.p2align 4,,15
 676              		.thumb
 677              		.thumb_func
 678              		.type	chThdDoDequeueNextI, %function
 679              	chThdDoDequeueNextI:
 680              	.LFB196:
 681              		.loc 8 312 0
 682              		.cfi_startproc
 683              		@ args = 0, pretend = 0, frame = 16
 684              		@ frame_needed = 0, uses_anonymous_args = 0
 685 0000 00B5     		push	{lr}
 686              		.cfi_def_cfa_offset 4
 687              		.cfi_offset 14, -4
 688 0002 85B0     		sub	sp, sp, #20
 689              		.cfi_def_cfa_offset 24
 690 0004 0190     		str	r0, [sp, #4]
 691 0006 0091     		str	r1, [sp]
 692              		.loc 8 317 0
 693 0008 0198     		ldr	r0, [sp, #4]
 694 000a FFF7FEFF 		bl	queue_fifo_remove
 695 000e 0390     		str	r0, [sp, #12]
 696              		.loc 8 321 0
 697 0010 039B     		ldr	r3, [sp, #12]
 698 0012 009A     		ldr	r2, [sp]
 699 0014 1A62     		str	r2, [r3, #32]
 700              		.loc 8 322 0
 701 0016 0398     		ldr	r0, [sp, #12]
 702 0018 FFF7FEFF 		bl	chSchReadyI
 703              		.loc 8 323 0
 704 001c 05B0     		add	sp, sp, #20
 705              		@ sp needed
 706 001e 5DF804FB 		ldr	pc, [sp], #4
 707              		.cfi_endproc
 708              	.LFE196:
 709              		.size	chThdDoDequeueNextI, .-chThdDoDequeueNextI
 710 0022 00BFAFF3 		.section	.text._thread_init,"ax",%progbits
 710      0080AFF3 
 710      0080AFF3 
 710      0080
 711              		.align	2
 712              		.p2align 4,,15
 713              		.global	_thread_init
 714              		.thumb
 715              		.thumb_func
ARM GAS  /tmp/cc72Hk9S.s 			page 14


 716              		.type	_thread_init, %function
 717              	_thread_init:
 718              	.LFB240:
 719              		.file 9 "/home/efe/ChibiOS/os/rt/src/chthreads.c"
 720              		.loc 9 91 0
 721              		.cfi_startproc
 722              		@ args = 0, pretend = 0, frame = 8
 723              		@ frame_needed = 0, uses_anonymous_args = 0
 724 0000 00B5     		push	{lr}
 725              		.cfi_def_cfa_offset 4
 726              		.cfi_offset 14, -4
 727 0002 83B0     		sub	sp, sp, #12
 728              		.cfi_def_cfa_offset 16
 729 0004 0190     		str	r0, [sp, #4]
 730 0006 0091     		str	r1, [sp]
 731              		.loc 9 93 0
 732 0008 019B     		ldr	r3, [sp, #4]
 733 000a 009A     		ldr	r2, [sp]
 734 000c 9A60     		str	r2, [r3, #8]
 735              		.loc 9 94 0
 736 000e 019B     		ldr	r3, [sp, #4]
 737 0010 0222     		movs	r2, #2
 738 0012 1A77     		strb	r2, [r3, #28]
 739              		.loc 9 95 0
 740 0014 019B     		ldr	r3, [sp, #4]
 741 0016 0022     		movs	r2, #0
 742 0018 5A77     		strb	r2, [r3, #29]
 743              		.loc 9 100 0
 744 001a 019B     		ldr	r3, [sp, #4]
 745 001c 009A     		ldr	r2, [sp]
 746 001e DA63     		str	r2, [r3, #60]
 747              		.loc 9 101 0
 748 0020 019B     		ldr	r3, [sp, #4]
 749 0022 0022     		movs	r2, #0
 750 0024 9A63     		str	r2, [r3, #56]
 751              		.loc 9 104 0
 752 0026 019B     		ldr	r3, [sp, #4]
 753 0028 0022     		movs	r2, #0
 754 002a 5A63     		str	r2, [r3, #52]
 755              		.loc 9 110 0
 756 002c 019B     		ldr	r3, [sp, #4]
 757 002e 0122     		movs	r2, #1
 758 0030 9A77     		strb	r2, [r3, #30]
 759              		.loc 9 113 0
 760 0032 019B     		ldr	r3, [sp, #4]
 761 0034 0022     		movs	r2, #0
 762 0036 9A61     		str	r2, [r3, #24]
 763              		.loc 9 114 0
 764 0038 019B     		ldr	r3, [sp, #4]
 765 003a 0E4A     		ldr	r2, .L41
 766 003c 1A61     		str	r2, [r3, #16]
 767 003e 0D4B     		ldr	r3, .L41
 768 0040 5A69     		ldr	r2, [r3, #20]
 769 0042 019B     		ldr	r3, [sp, #4]
 770 0044 5A61     		str	r2, [r3, #20]
 771 0046 019B     		ldr	r3, [sp, #4]
 772 0048 5B69     		ldr	r3, [r3, #20]
ARM GAS  /tmp/cc72Hk9S.s 			page 15


 773 004a 019A     		ldr	r2, [sp, #4]
 774 004c 1A61     		str	r2, [r3, #16]
 775 004e 094B     		ldr	r3, .L41
 776 0050 019A     		ldr	r2, [sp, #4]
 777 0052 5A61     		str	r2, [r3, #20]
 778              		.loc 9 117 0
 779 0054 019B     		ldr	r3, [sp, #4]
 780 0056 2433     		adds	r3, r3, #36
 781 0058 1846     		mov	r0, r3
 782 005a FFF7FEFF 		bl	list_init
 783              		.loc 9 120 0
 784 005e 019B     		ldr	r3, [sp, #4]
 785 0060 2833     		adds	r3, r3, #40
 786 0062 1846     		mov	r0, r3
 787 0064 FFF7FEFF 		bl	queue_init
 788              		.loc 9 132 0
 789 0068 019B     		ldr	r3, [sp, #4]
 790              		.loc 9 133 0
 791 006a 1846     		mov	r0, r3
 792 006c 03B0     		add	sp, sp, #12
 793              		@ sp needed
 794 006e 5DF804FB 		ldr	pc, [sp], #4
 795              	.L42:
 796 0072 00BF     		.align	2
 797              	.L41:
 798 0074 00000000 		.word	ch
 799              		.cfi_endproc
 800              	.LFE240:
 801              		.size	_thread_init, .-_thread_init
 802 0078 AFF30080 		.section	.text.chThdCreateI,"ax",%progbits
 802      AFF30080 
 803              		.align	2
 804              		.p2align 4,,15
 805              		.global	chThdCreateI
 806              		.thumb
 807              		.thumb_func
 808              		.type	chThdCreateI, %function
 809              	chThdCreateI:
 810              	.LFB241:
 811              		.loc 9 178 0
 812              		.cfi_startproc
 813              		@ args = 4, pretend = 0, frame = 24
 814              		@ frame_needed = 0, uses_anonymous_args = 0
 815 0000 00B5     		push	{lr}
 816              		.cfi_def_cfa_offset 4
 817              		.cfi_offset 14, -4
 818 0002 87B0     		sub	sp, sp, #28
 819              		.cfi_def_cfa_offset 32
 820 0004 0390     		str	r0, [sp, #12]
 821 0006 0291     		str	r1, [sp, #8]
 822 0008 0192     		str	r2, [sp, #4]
 823 000a 0093     		str	r3, [sp]
 824              		.loc 9 181 0
 825 000c 039B     		ldr	r3, [sp, #12]
 826 000e 0593     		str	r3, [sp, #20]
 827              		.loc 9 187 0
 828 0010 029B     		ldr	r3, [sp, #8]
ARM GAS  /tmp/cc72Hk9S.s 			page 16


 829 0012 243B     		subs	r3, r3, #36
 830 0014 039A     		ldr	r2, [sp, #12]
 831 0016 1A44     		add	r2, r2, r3
 832 0018 059B     		ldr	r3, [sp, #20]
 833 001a DA60     		str	r2, [r3, #12]
 834 001c 059B     		ldr	r3, [sp, #20]
 835 001e DB68     		ldr	r3, [r3, #12]
 836 0020 009A     		ldr	r2, [sp]
 837 0022 1A60     		str	r2, [r3]
 838 0024 059B     		ldr	r3, [sp, #20]
 839 0026 DB68     		ldr	r3, [r3, #12]
 840 0028 089A     		ldr	r2, [sp, #32]
 841 002a 5A60     		str	r2, [r3, #4]
 842 002c 059B     		ldr	r3, [sp, #20]
 843 002e DB68     		ldr	r3, [r3, #12]
 844 0030 054A     		ldr	r2, .L45
 845 0032 1A62     		str	r2, [r3, #32]
 846              		.loc 9 189 0
 847 0034 0598     		ldr	r0, [sp, #20]
 848 0036 0199     		ldr	r1, [sp, #4]
 849 0038 FFF7FEFF 		bl	_thread_init
 850 003c 0346     		mov	r3, r0
 851              		.loc 9 190 0
 852 003e 1846     		mov	r0, r3
 853 0040 07B0     		add	sp, sp, #28
 854              		@ sp needed
 855 0042 5DF804FB 		ldr	pc, [sp], #4
 856              	.L46:
 857 0046 00BF     		.align	2
 858              	.L45:
 859 0048 00000000 		.word	_port_thread_start
 860              		.cfi_endproc
 861              	.LFE241:
 862              		.size	chThdCreateI, .-chThdCreateI
 863 004c AFF30080 		.section	.text.chThdCreateStatic,"ax",%progbits
 864              		.align	2
 865              		.p2align 4,,15
 866              		.global	chThdCreateStatic
 867              		.thumb
 868              		.thumb_func
 869              		.type	chThdCreateStatic, %function
 870              	chThdCreateStatic:
 871              	.LFB242:
 872              		.loc 9 209 0
 873              		.cfi_startproc
 874              		@ args = 4, pretend = 0, frame = 24
 875              		@ frame_needed = 0, uses_anonymous_args = 0
 876 0000 00B5     		push	{lr}
 877              		.cfi_def_cfa_offset 4
 878              		.cfi_offset 14, -4
 879 0002 89B0     		sub	sp, sp, #36
 880              		.cfi_def_cfa_offset 40
 881 0004 0590     		str	r0, [sp, #20]
 882 0006 0491     		str	r1, [sp, #16]
 883 0008 0392     		str	r2, [sp, #12]
 884 000a 0293     		str	r3, [sp, #8]
 885              		.loc 9 221 0
ARM GAS  /tmp/cc72Hk9S.s 			page 17


 886 000c FFF7FEFF 		bl	chSysLock
 887              		.loc 9 222 0
 888 0010 0A9B     		ldr	r3, [sp, #40]
 889 0012 0093     		str	r3, [sp]
 890 0014 0598     		ldr	r0, [sp, #20]
 891 0016 0499     		ldr	r1, [sp, #16]
 892 0018 039A     		ldr	r2, [sp, #12]
 893 001a 029B     		ldr	r3, [sp, #8]
 894 001c FFF7FEFF 		bl	chThdCreateI
 895 0020 0790     		str	r0, [sp, #28]
 896              		.loc 9 223 0
 897 0022 0798     		ldr	r0, [sp, #28]
 898 0024 0021     		movs	r1, #0
 899 0026 FFF7FEFF 		bl	chSchWakeupS
 900              		.loc 9 224 0
 901 002a FFF7FEFF 		bl	chSysUnlock
 902              		.loc 9 226 0
 903 002e 079B     		ldr	r3, [sp, #28]
 904              		.loc 9 227 0
 905 0030 1846     		mov	r0, r3
 906 0032 09B0     		add	sp, sp, #36
 907              		@ sp needed
 908 0034 5DF804FB 		ldr	pc, [sp], #4
 909              		.cfi_endproc
 910              	.LFE242:
 911              		.size	chThdCreateStatic, .-chThdCreateStatic
 912 0038 AFF30080 		.section	.text.chThdStart,"ax",%progbits
 912      AFF30080 
 913              		.align	2
 914              		.p2align 4,,15
 915              		.global	chThdStart
 916              		.thumb
 917              		.thumb_func
 918              		.type	chThdStart, %function
 919              	chThdStart:
 920              	.LFB243:
 921              		.loc 9 238 0
 922              		.cfi_startproc
 923              		@ args = 0, pretend = 0, frame = 8
 924              		@ frame_needed = 0, uses_anonymous_args = 0
 925 0000 00B5     		push	{lr}
 926              		.cfi_def_cfa_offset 4
 927              		.cfi_offset 14, -4
 928 0002 83B0     		sub	sp, sp, #12
 929              		.cfi_def_cfa_offset 16
 930 0004 0190     		str	r0, [sp, #4]
 931              		.loc 9 240 0
 932 0006 FFF7FEFF 		bl	chSysLock
 933              		.loc 9 241 0
 934 000a 0198     		ldr	r0, [sp, #4]
 935 000c FFF7FEFF 		bl	chThdStartI
 936 0010 0190     		str	r0, [sp, #4]
 937              		.loc 9 242 0
 938 0012 FFF7FEFF 		bl	chSysUnlock
 939              		.loc 9 244 0
 940 0016 019B     		ldr	r3, [sp, #4]
 941              		.loc 9 245 0
ARM GAS  /tmp/cc72Hk9S.s 			page 18


 942 0018 1846     		mov	r0, r3
 943 001a 03B0     		add	sp, sp, #12
 944              		@ sp needed
 945 001c 5DF804FB 		ldr	pc, [sp], #4
 946              		.cfi_endproc
 947              	.LFE243:
 948              		.size	chThdStart, .-chThdStart
 949              		.section	.text.chThdSetPriority,"ax",%progbits
 950              		.align	2
 951              		.p2align 4,,15
 952              		.global	chThdSetPriority
 953              		.thumb
 954              		.thumb_func
 955              		.type	chThdSetPriority, %function
 956              	chThdSetPriority:
 957              	.LFB244:
 958              		.loc 9 259 0
 959              		.cfi_startproc
 960              		@ args = 0, pretend = 0, frame = 16
 961              		@ frame_needed = 0, uses_anonymous_args = 0
 962 0000 00B5     		push	{lr}
 963              		.cfi_def_cfa_offset 4
 964              		.cfi_offset 14, -4
 965 0002 85B0     		sub	sp, sp, #20
 966              		.cfi_def_cfa_offset 24
 967 0004 0190     		str	r0, [sp, #4]
 968              		.loc 9 264 0
 969 0006 FFF7FEFF 		bl	chSysLock
 970              		.loc 9 266 0
 971 000a 114B     		ldr	r3, .L55
 972 000c 9B69     		ldr	r3, [r3, #24]
 973 000e DB6B     		ldr	r3, [r3, #60]
 974 0010 0393     		str	r3, [sp, #12]
 975              		.loc 9 267 0
 976 0012 0F4B     		ldr	r3, .L55
 977 0014 9B69     		ldr	r3, [r3, #24]
 978 0016 9A68     		ldr	r2, [r3, #8]
 979 0018 0D4B     		ldr	r3, .L55
 980 001a 9B69     		ldr	r3, [r3, #24]
 981 001c DB6B     		ldr	r3, [r3, #60]
 982 001e 9A42     		cmp	r2, r3
 983 0020 05D0     		beq	.L52
 984              		.loc 9 267 0 is_stmt 0 discriminator 1
 985 0022 0B4B     		ldr	r3, .L55
 986 0024 9B69     		ldr	r3, [r3, #24]
 987 0026 9A68     		ldr	r2, [r3, #8]
 988 0028 019B     		ldr	r3, [sp, #4]
 989 002a 9A42     		cmp	r2, r3
 990 002c 03D2     		bcs	.L53
 991              	.L52:
 992              		.loc 9 268 0 is_stmt 1
 993 002e 084B     		ldr	r3, .L55
 994 0030 9B69     		ldr	r3, [r3, #24]
 995 0032 019A     		ldr	r2, [sp, #4]
 996 0034 9A60     		str	r2, [r3, #8]
 997              	.L53:
 998              		.loc 9 270 0
ARM GAS  /tmp/cc72Hk9S.s 			page 19


 999 0036 064B     		ldr	r3, .L55
 1000 0038 9B69     		ldr	r3, [r3, #24]
 1001 003a 019A     		ldr	r2, [sp, #4]
 1002 003c DA63     		str	r2, [r3, #60]
 1003              		.loc 9 275 0
 1004 003e FFF7FEFF 		bl	chSchRescheduleS
 1005              		.loc 9 276 0
 1006 0042 FFF7FEFF 		bl	chSysUnlock
 1007              		.loc 9 278 0
 1008 0046 039B     		ldr	r3, [sp, #12]
 1009              		.loc 9 279 0
 1010 0048 1846     		mov	r0, r3
 1011 004a 05B0     		add	sp, sp, #20
 1012              		@ sp needed
 1013 004c 5DF804FB 		ldr	pc, [sp], #4
 1014              	.L56:
 1015              		.align	2
 1016              	.L55:
 1017 0050 00000000 		.word	ch
 1018              		.cfi_endproc
 1019              	.LFE244:
 1020              		.size	chThdSetPriority, .-chThdSetPriority
 1021 0054 AFF30080 		.section	.text.chThdTerminate,"ax",%progbits
 1021      AFF30080 
 1021      AFF30080 
 1022              		.align	2
 1023              		.p2align 4,,15
 1024              		.global	chThdTerminate
 1025              		.thumb
 1026              		.thumb_func
 1027              		.type	chThdTerminate, %function
 1028              	chThdTerminate:
 1029              	.LFB245:
 1030              		.loc 9 293 0
 1031              		.cfi_startproc
 1032              		@ args = 0, pretend = 0, frame = 8
 1033              		@ frame_needed = 0, uses_anonymous_args = 0
 1034 0000 00B5     		push	{lr}
 1035              		.cfi_def_cfa_offset 4
 1036              		.cfi_offset 14, -4
 1037 0002 83B0     		sub	sp, sp, #12
 1038              		.cfi_def_cfa_offset 16
 1039 0004 0190     		str	r0, [sp, #4]
 1040              		.loc 9 295 0
 1041 0006 FFF7FEFF 		bl	chSysLock
 1042              		.loc 9 296 0
 1043 000a 019B     		ldr	r3, [sp, #4]
 1044 000c 5B7F     		ldrb	r3, [r3, #29]	@ zero_extendqisi2
 1045 000e 43F00403 		orr	r3, r3, #4
 1046 0012 DAB2     		uxtb	r2, r3
 1047 0014 019B     		ldr	r3, [sp, #4]
 1048 0016 5A77     		strb	r2, [r3, #29]
 1049              		.loc 9 297 0
 1050 0018 FFF7FEFF 		bl	chSysUnlock
 1051              		.loc 9 298 0
 1052 001c 03B0     		add	sp, sp, #12
 1053              		@ sp needed
ARM GAS  /tmp/cc72Hk9S.s 			page 20


 1054 001e 5DF804FB 		ldr	pc, [sp], #4
 1055              		.cfi_endproc
 1056              	.LFE245:
 1057              		.size	chThdTerminate, .-chThdTerminate
 1058 0022 00BFAFF3 		.section	.text.chThdSleep,"ax",%progbits
 1058      0080AFF3 
 1058      0080AFF3 
 1058      0080
 1059              		.align	2
 1060              		.p2align 4,,15
 1061              		.global	chThdSleep
 1062              		.thumb
 1063              		.thumb_func
 1064              		.type	chThdSleep, %function
 1065              	chThdSleep:
 1066              	.LFB246:
 1067              		.loc 9 312 0
 1068              		.cfi_startproc
 1069              		@ args = 0, pretend = 0, frame = 8
 1070              		@ frame_needed = 0, uses_anonymous_args = 0
 1071 0000 00B5     		push	{lr}
 1072              		.cfi_def_cfa_offset 4
 1073              		.cfi_offset 14, -4
 1074 0002 83B0     		sub	sp, sp, #12
 1075              		.cfi_def_cfa_offset 16
 1076 0004 0190     		str	r0, [sp, #4]
 1077              		.loc 9 314 0
 1078 0006 FFF7FEFF 		bl	chSysLock
 1079              		.loc 9 315 0
 1080 000a 0198     		ldr	r0, [sp, #4]
 1081 000c FFF7FEFF 		bl	chThdSleepS
 1082              		.loc 9 316 0
 1083 0010 FFF7FEFF 		bl	chSysUnlock
 1084              		.loc 9 317 0
 1085 0014 03B0     		add	sp, sp, #12
 1086              		@ sp needed
 1087 0016 5DF804FB 		ldr	pc, [sp], #4
 1088              		.cfi_endproc
 1089              	.LFE246:
 1090              		.size	chThdSleep, .-chThdSleep
 1091 001a 00BFAFF3 		.section	.text.chThdSleepUntil,"ax",%progbits
 1091      0080
 1092              		.align	2
 1093              		.p2align 4,,15
 1094              		.global	chThdSleepUntil
 1095              		.thumb
 1096              		.thumb_func
 1097              		.type	chThdSleepUntil, %function
 1098              	chThdSleepUntil:
 1099              	.LFB247:
 1100              		.loc 9 332 0
 1101              		.cfi_startproc
 1102              		@ args = 0, pretend = 0, frame = 8
 1103              		@ frame_needed = 0, uses_anonymous_args = 0
 1104 0000 00B5     		push	{lr}
 1105              		.cfi_def_cfa_offset 4
 1106              		.cfi_offset 14, -4
ARM GAS  /tmp/cc72Hk9S.s 			page 21


 1107 0002 83B0     		sub	sp, sp, #12
 1108              		.cfi_def_cfa_offset 16
 1109 0004 0190     		str	r0, [sp, #4]
 1110              		.loc 9 334 0
 1111 0006 FFF7FEFF 		bl	chSysLock
 1112              		.loc 9 335 0
 1113 000a FFF7FEFF 		bl	chVTGetSystemTimeX
 1114 000e 0346     		mov	r3, r0
 1115 0010 019A     		ldr	r2, [sp, #4]
 1116 0012 D31A     		subs	r3, r2, r3
 1117 0014 0193     		str	r3, [sp, #4]
 1118              		.loc 9 336 0
 1119 0016 019B     		ldr	r3, [sp, #4]
 1120 0018 002B     		cmp	r3, #0
 1121 001a 02D0     		beq	.L60
 1122              		.loc 9 337 0
 1123 001c 0198     		ldr	r0, [sp, #4]
 1124 001e FFF7FEFF 		bl	chThdSleepS
 1125              	.L60:
 1126              		.loc 9 339 0
 1127 0022 FFF7FEFF 		bl	chSysUnlock
 1128              		.loc 9 340 0
 1129 0026 03B0     		add	sp, sp, #12
 1130              		@ sp needed
 1131 0028 5DF804FB 		ldr	pc, [sp], #4
 1132              		.cfi_endproc
 1133              	.LFE247:
 1134              		.size	chThdSleepUntil, .-chThdSleepUntil
 1135 002c AFF30080 		.section	.text.chThdSleepUntilWindowed,"ax",%progbits
 1136              		.align	2
 1137              		.p2align 4,,15
 1138              		.global	chThdSleepUntilWindowed
 1139              		.thumb
 1140              		.thumb_func
 1141              		.type	chThdSleepUntilWindowed, %function
 1142              	chThdSleepUntilWindowed:
 1143              	.LFB248:
 1144              		.loc 9 356 0
 1145              		.cfi_startproc
 1146              		@ args = 0, pretend = 0, frame = 16
 1147              		@ frame_needed = 0, uses_anonymous_args = 0
 1148 0000 00B5     		push	{lr}
 1149              		.cfi_def_cfa_offset 4
 1150              		.cfi_offset 14, -4
 1151 0002 85B0     		sub	sp, sp, #20
 1152              		.cfi_def_cfa_offset 24
 1153 0004 0190     		str	r0, [sp, #4]
 1154 0006 0091     		str	r1, [sp]
 1155              		.loc 9 359 0
 1156 0008 FFF7FEFF 		bl	chSysLock
 1157              		.loc 9 360 0
 1158 000c FFF7FEFF 		bl	chVTGetSystemTimeX
 1159 0010 0390     		str	r0, [sp, #12]
 1160              		.loc 9 361 0
 1161 0012 0398     		ldr	r0, [sp, #12]
 1162 0014 0199     		ldr	r1, [sp, #4]
 1163 0016 009A     		ldr	r2, [sp]
ARM GAS  /tmp/cc72Hk9S.s 			page 22


 1164 0018 FFF7FEFF 		bl	chVTIsTimeWithinX
 1165 001c 0346     		mov	r3, r0
 1166 001e 002B     		cmp	r3, #0
 1167 0020 05D0     		beq	.L62
 1168              		.loc 9 362 0
 1169 0022 009A     		ldr	r2, [sp]
 1170 0024 039B     		ldr	r3, [sp, #12]
 1171 0026 D31A     		subs	r3, r2, r3
 1172 0028 1846     		mov	r0, r3
 1173 002a FFF7FEFF 		bl	chThdSleepS
 1174              	.L62:
 1175              		.loc 9 364 0
 1176 002e FFF7FEFF 		bl	chSysUnlock
 1177              		.loc 9 366 0
 1178 0032 009B     		ldr	r3, [sp]
 1179              		.loc 9 367 0
 1180 0034 1846     		mov	r0, r3
 1181 0036 05B0     		add	sp, sp, #20
 1182              		@ sp needed
 1183 0038 5DF804FB 		ldr	pc, [sp], #4
 1184              		.cfi_endproc
 1185              	.LFE248:
 1186              		.size	chThdSleepUntilWindowed, .-chThdSleepUntilWindowed
 1187 003c AFF30080 		.section	.text.chThdYield,"ax",%progbits
 1188              		.align	2
 1189              		.p2align 4,,15
 1190              		.global	chThdYield
 1191              		.thumb
 1192              		.thumb_func
 1193              		.type	chThdYield, %function
 1194              	chThdYield:
 1195              	.LFB249:
 1196              		.loc 9 376 0
 1197              		.cfi_startproc
 1198              		@ args = 0, pretend = 0, frame = 0
 1199              		@ frame_needed = 0, uses_anonymous_args = 0
 1200 0000 08B5     		push	{r3, lr}
 1201              		.cfi_def_cfa_offset 8
 1202              		.cfi_offset 3, -8
 1203              		.cfi_offset 14, -4
 1204              		.loc 9 378 0
 1205 0002 FFF7FEFF 		bl	chSysLock
 1206              		.loc 9 379 0
 1207 0006 FFF7FEFF 		bl	chSchDoYieldS
 1208              		.loc 9 380 0
 1209 000a FFF7FEFF 		bl	chSysUnlock
 1210              		.loc 9 381 0
 1211 000e 08BD     		pop	{r3, pc}
 1212              		.cfi_endproc
 1213              	.LFE249:
 1214              		.size	chThdYield, .-chThdYield
 1215              		.section	.text.chThdExit,"ax",%progbits
 1216              		.align	2
 1217              		.p2align 4,,15
 1218              		.global	chThdExit
 1219              		.thumb
 1220              		.thumb_func
ARM GAS  /tmp/cc72Hk9S.s 			page 23


 1221              		.type	chThdExit, %function
 1222              	chThdExit:
 1223              	.LFB250:
 1224              		.loc 9 397 0
 1225              		.cfi_startproc
 1226              		@ args = 0, pretend = 0, frame = 8
 1227              		@ frame_needed = 0, uses_anonymous_args = 0
 1228 0000 00B5     		push	{lr}
 1229              		.cfi_def_cfa_offset 4
 1230              		.cfi_offset 14, -4
 1231 0002 83B0     		sub	sp, sp, #12
 1232              		.cfi_def_cfa_offset 16
 1233 0004 0190     		str	r0, [sp, #4]
 1234              		.loc 9 399 0
 1235 0006 FFF7FEFF 		bl	chSysLock
 1236              		.loc 9 400 0
 1237 000a 0198     		ldr	r0, [sp, #4]
 1238 000c FFF7FEFF 		bl	chThdExitS
 1239              		.loc 9 402 0
 1240 0010 03B0     		add	sp, sp, #12
 1241              		@ sp needed
 1242 0012 5DF804FB 		ldr	pc, [sp], #4
 1243              		.cfi_endproc
 1244              	.LFE250:
 1245              		.size	chThdExit, .-chThdExit
 1246 0016 00BFAFF3 		.section	.text.chThdExitS,"ax",%progbits
 1246      0080AFF3 
 1246      0080
 1247              		.align	2
 1248              		.p2align 4,,15
 1249              		.global	chThdExitS
 1250              		.thumb
 1251              		.thumb_func
 1252              		.type	chThdExitS, %function
 1253              	chThdExitS:
 1254              	.LFB251:
 1255              		.loc 9 418 0
 1256              		.cfi_startproc
 1257              		@ args = 0, pretend = 0, frame = 16
 1258              		@ frame_needed = 0, uses_anonymous_args = 0
 1259 0000 00B5     		push	{lr}
 1260              		.cfi_def_cfa_offset 4
 1261              		.cfi_offset 14, -4
 1262 0002 85B0     		sub	sp, sp, #20
 1263              		.cfi_def_cfa_offset 24
 1264 0004 0190     		str	r0, [sp, #4]
 1265              		.loc 9 419 0
 1266 0006 174B     		ldr	r3, .L70
 1267 0008 9B69     		ldr	r3, [r3, #24]
 1268 000a 0393     		str	r3, [sp, #12]
 1269              		.loc 9 421 0
 1270 000c 039B     		ldr	r3, [sp, #12]
 1271 000e 019A     		ldr	r2, [sp, #4]
 1272 0010 1A62     		str	r2, [r3, #32]
 1273              		.loc 9 426 0
 1274 0012 08E0     		b	.L67
 1275              	.L68:
ARM GAS  /tmp/cc72Hk9S.s 			page 24


 1276              		.loc 9 427 0
 1277 0014 039B     		ldr	r3, [sp, #12]
 1278 0016 2433     		adds	r3, r3, #36
 1279 0018 1846     		mov	r0, r3
 1280 001a FFF7FEFF 		bl	list_remove
 1281 001e 0346     		mov	r3, r0
 1282 0020 1846     		mov	r0, r3
 1283 0022 FFF7FEFF 		bl	chSchReadyI
 1284              	.L67:
 1285              		.loc 9 426 0 discriminator 1
 1286 0026 039B     		ldr	r3, [sp, #12]
 1287 0028 2433     		adds	r3, r3, #36
 1288 002a 1846     		mov	r0, r3
 1289 002c FFF7FEFF 		bl	list_notempty
 1290 0030 0346     		mov	r3, r0
 1291 0032 002B     		cmp	r3, #0
 1292 0034 EED1     		bne	.L68
 1293              		.loc 9 433 0
 1294 0036 039B     		ldr	r3, [sp, #12]
 1295 0038 5B7F     		ldrb	r3, [r3, #29]	@ zero_extendqisi2
 1296 003a 03F00303 		and	r3, r3, #3
 1297 003e 002B     		cmp	r3, #0
 1298 0040 09D1     		bne	.L69
 1299              		.loc 9 434 0
 1300 0042 039B     		ldr	r3, [sp, #12]
 1301 0044 5B69     		ldr	r3, [r3, #20]
 1302 0046 039A     		ldr	r2, [sp, #12]
 1303 0048 1269     		ldr	r2, [r2, #16]
 1304 004a 1A61     		str	r2, [r3, #16]
 1305 004c 039B     		ldr	r3, [sp, #12]
 1306 004e 1B69     		ldr	r3, [r3, #16]
 1307 0050 039A     		ldr	r2, [sp, #12]
 1308 0052 5269     		ldr	r2, [r2, #20]
 1309 0054 5A61     		str	r2, [r3, #20]
 1310              	.L69:
 1311              		.loc 9 437 0
 1312 0056 0F20     		movs	r0, #15
 1313 0058 FFF7FEFF 		bl	chSchGoSleepS
 1314              		.loc 9 441 0
 1315 005c 05B0     		add	sp, sp, #20
 1316              		@ sp needed
 1317 005e 5DF804FB 		ldr	pc, [sp], #4
 1318              	.L71:
 1319 0062 00BF     		.align	2
 1320              	.L70:
 1321 0064 00000000 		.word	ch
 1322              		.cfi_endproc
 1323              	.LFE251:
 1324              		.size	chThdExitS, .-chThdExitS
 1325 0068 AFF30080 		.section	.text.chThdWait,"ax",%progbits
 1325      AFF30080 
 1326              		.align	2
 1327              		.p2align 4,,15
 1328              		.global	chThdWait
 1329              		.thumb
 1330              		.thumb_func
 1331              		.type	chThdWait, %function
ARM GAS  /tmp/cc72Hk9S.s 			page 25


 1332              	chThdWait:
 1333              	.LFB252:
 1334              		.loc 9 475 0
 1335              		.cfi_startproc
 1336              		@ args = 0, pretend = 0, frame = 16
 1337              		@ frame_needed = 0, uses_anonymous_args = 0
 1338 0000 00B5     		push	{lr}
 1339              		.cfi_def_cfa_offset 4
 1340              		.cfi_offset 14, -4
 1341 0002 85B0     		sub	sp, sp, #20
 1342              		.cfi_def_cfa_offset 24
 1343 0004 0190     		str	r0, [sp, #4]
 1344              		.loc 9 480 0
 1345 0006 FFF7FEFF 		bl	chSysLock
 1346              		.loc 9 485 0
 1347 000a 019B     		ldr	r3, [sp, #4]
 1348 000c 1B7F     		ldrb	r3, [r3, #28]	@ zero_extendqisi2
 1349 000e 0F2B     		cmp	r3, #15
 1350 0010 0AD0     		beq	.L73
 1351              		.loc 9 486 0
 1352 0012 0C4B     		ldr	r3, .L75
 1353 0014 9A69     		ldr	r2, [r3, #24]
 1354 0016 019B     		ldr	r3, [sp, #4]
 1355 0018 2433     		adds	r3, r3, #36
 1356 001a 1046     		mov	r0, r2
 1357 001c 1946     		mov	r1, r3
 1358 001e FFF7FEFF 		bl	list_insert
 1359              		.loc 9 487 0
 1360 0022 0920     		movs	r0, #9
 1361 0024 FFF7FEFF 		bl	chSchGoSleepS
 1362              	.L73:
 1363              		.loc 9 489 0
 1364 0028 019B     		ldr	r3, [sp, #4]
 1365 002a 1B6A     		ldr	r3, [r3, #32]
 1366 002c 0393     		str	r3, [sp, #12]
 1367              		.loc 9 490 0
 1368 002e FFF7FEFF 		bl	chSysUnlock
 1369              		.loc 9 494 0
 1370 0032 0198     		ldr	r0, [sp, #4]
 1371 0034 FFF7FEFF 		bl	chThdRelease
 1372              		.loc 9 497 0
 1373 0038 039B     		ldr	r3, [sp, #12]
 1374              		.loc 9 498 0
 1375 003a 1846     		mov	r0, r3
 1376 003c 05B0     		add	sp, sp, #20
 1377              		@ sp needed
 1378 003e 5DF804FB 		ldr	pc, [sp], #4
 1379              	.L76:
 1380 0042 00BF     		.align	2
 1381              	.L75:
 1382 0044 00000000 		.word	ch
 1383              		.cfi_endproc
 1384              	.LFE252:
 1385              		.size	chThdWait, .-chThdWait
 1386 0048 AFF30080 		.section	.text.chThdSuspendS,"ax",%progbits
 1386      AFF30080 
 1387              		.align	2
ARM GAS  /tmp/cc72Hk9S.s 			page 26


 1388              		.p2align 4,,15
 1389              		.global	chThdSuspendS
 1390              		.thumb
 1391              		.thumb_func
 1392              		.type	chThdSuspendS, %function
 1393              	chThdSuspendS:
 1394              	.LFB253:
 1395              		.loc 9 511 0
 1396              		.cfi_startproc
 1397              		@ args = 0, pretend = 0, frame = 16
 1398              		@ frame_needed = 0, uses_anonymous_args = 0
 1399 0000 00B5     		push	{lr}
 1400              		.cfi_def_cfa_offset 4
 1401              		.cfi_offset 14, -4
 1402 0002 85B0     		sub	sp, sp, #20
 1403              		.cfi_def_cfa_offset 24
 1404 0004 0190     		str	r0, [sp, #4]
 1405              		.loc 9 512 0
 1406 0006 FFF7FEFF 		bl	chThdGetSelfX
 1407 000a 0390     		str	r0, [sp, #12]
 1408              		.loc 9 516 0
 1409 000c 019B     		ldr	r3, [sp, #4]
 1410 000e 039A     		ldr	r2, [sp, #12]
 1411 0010 1A60     		str	r2, [r3]
 1412              		.loc 9 517 0
 1413 0012 039B     		ldr	r3, [sp, #12]
 1414 0014 019A     		ldr	r2, [sp, #4]
 1415 0016 1A62     		str	r2, [r3, #32]
 1416              		.loc 9 518 0
 1417 0018 0320     		movs	r0, #3
 1418 001a FFF7FEFF 		bl	chSchGoSleepS
 1419              		.loc 9 520 0
 1420 001e FFF7FEFF 		bl	chThdGetSelfX
 1421 0022 0346     		mov	r3, r0
 1422 0024 1B6A     		ldr	r3, [r3, #32]
 1423              		.loc 9 521 0
 1424 0026 1846     		mov	r0, r3
 1425 0028 05B0     		add	sp, sp, #20
 1426              		@ sp needed
 1427 002a 5DF804FB 		ldr	pc, [sp], #4
 1428              		.cfi_endproc
 1429              	.LFE253:
 1430              		.size	chThdSuspendS, .-chThdSuspendS
 1431 002e 00BF     		.section	.text.chThdSuspendTimeoutS,"ax",%progbits
 1432              		.align	2
 1433              		.p2align 4,,15
 1434              		.global	chThdSuspendTimeoutS
 1435              		.thumb
 1436              		.thumb_func
 1437              		.type	chThdSuspendTimeoutS, %function
 1438              	chThdSuspendTimeoutS:
 1439              	.LFB254:
 1440              		.loc 9 542 0
 1441              		.cfi_startproc
 1442              		@ args = 0, pretend = 0, frame = 16
 1443              		@ frame_needed = 0, uses_anonymous_args = 0
 1444 0000 00B5     		push	{lr}
ARM GAS  /tmp/cc72Hk9S.s 			page 27


 1445              		.cfi_def_cfa_offset 4
 1446              		.cfi_offset 14, -4
 1447 0002 85B0     		sub	sp, sp, #20
 1448              		.cfi_def_cfa_offset 24
 1449 0004 0190     		str	r0, [sp, #4]
 1450 0006 0091     		str	r1, [sp]
 1451              		.loc 9 543 0
 1452 0008 FFF7FEFF 		bl	chThdGetSelfX
 1453 000c 0390     		str	r0, [sp, #12]
 1454              		.loc 9 547 0
 1455 000e 009B     		ldr	r3, [sp]
 1456 0010 002B     		cmp	r3, #0
 1457 0012 02D1     		bne	.L80
 1458              		.loc 9 548 0
 1459 0014 4FF0FF33 		mov	r3, #-1
 1460 0018 0AE0     		b	.L81
 1461              	.L80:
 1462              		.loc 9 551 0
 1463 001a 019B     		ldr	r3, [sp, #4]
 1464 001c 039A     		ldr	r2, [sp, #12]
 1465 001e 1A60     		str	r2, [r3]
 1466              		.loc 9 552 0
 1467 0020 039B     		ldr	r3, [sp, #12]
 1468 0022 019A     		ldr	r2, [sp, #4]
 1469 0024 1A62     		str	r2, [r3, #32]
 1470              		.loc 9 554 0
 1471 0026 0320     		movs	r0, #3
 1472 0028 0099     		ldr	r1, [sp]
 1473 002a FFF7FEFF 		bl	chSchGoSleepTimeoutS
 1474 002e 0346     		mov	r3, r0
 1475              	.L81:
 1476              		.loc 9 555 0
 1477 0030 1846     		mov	r0, r3
 1478 0032 05B0     		add	sp, sp, #20
 1479              		@ sp needed
 1480 0034 5DF804FB 		ldr	pc, [sp], #4
 1481              		.cfi_endproc
 1482              	.LFE254:
 1483              		.size	chThdSuspendTimeoutS, .-chThdSuspendTimeoutS
 1484 0038 AFF30080 		.section	.text.chThdResumeI,"ax",%progbits
 1484      AFF30080 
 1485              		.align	2
 1486              		.p2align 4,,15
 1487              		.global	chThdResumeI
 1488              		.thumb
 1489              		.thumb_func
 1490              		.type	chThdResumeI, %function
 1491              	chThdResumeI:
 1492              	.LFB255:
 1493              		.loc 9 567 0
 1494              		.cfi_startproc
 1495              		@ args = 0, pretend = 0, frame = 16
 1496              		@ frame_needed = 0, uses_anonymous_args = 0
 1497 0000 00B5     		push	{lr}
 1498              		.cfi_def_cfa_offset 4
 1499              		.cfi_offset 14, -4
 1500 0002 85B0     		sub	sp, sp, #20
ARM GAS  /tmp/cc72Hk9S.s 			page 28


 1501              		.cfi_def_cfa_offset 24
 1502 0004 0190     		str	r0, [sp, #4]
 1503 0006 0091     		str	r1, [sp]
 1504              		.loc 9 569 0
 1505 0008 019B     		ldr	r3, [sp, #4]
 1506 000a 1B68     		ldr	r3, [r3]
 1507 000c 002B     		cmp	r3, #0
 1508 000e 0BD0     		beq	.L82
 1509              	.LBB10:
 1510              		.loc 9 570 0
 1511 0010 019B     		ldr	r3, [sp, #4]
 1512 0012 1B68     		ldr	r3, [r3]
 1513 0014 0393     		str	r3, [sp, #12]
 1514              		.loc 9 575 0
 1515 0016 019B     		ldr	r3, [sp, #4]
 1516 0018 0022     		movs	r2, #0
 1517 001a 1A60     		str	r2, [r3]
 1518              		.loc 9 576 0
 1519 001c 039B     		ldr	r3, [sp, #12]
 1520 001e 009A     		ldr	r2, [sp]
 1521 0020 1A62     		str	r2, [r3, #32]
 1522              		.loc 9 577 0
 1523 0022 0398     		ldr	r0, [sp, #12]
 1524 0024 FFF7FEFF 		bl	chSchReadyI
 1525              	.L82:
 1526              	.LBE10:
 1527              		.loc 9 579 0
 1528 0028 05B0     		add	sp, sp, #20
 1529              		@ sp needed
 1530 002a 5DF804FB 		ldr	pc, [sp], #4
 1531              		.cfi_endproc
 1532              	.LFE255:
 1533              		.size	chThdResumeI, .-chThdResumeI
 1534 002e 00BF     		.section	.text.chThdResumeS,"ax",%progbits
 1535              		.align	2
 1536              		.p2align 4,,15
 1537              		.global	chThdResumeS
 1538              		.thumb
 1539              		.thumb_func
 1540              		.type	chThdResumeS, %function
 1541              	chThdResumeS:
 1542              	.LFB256:
 1543              		.loc 9 591 0
 1544              		.cfi_startproc
 1545              		@ args = 0, pretend = 0, frame = 16
 1546              		@ frame_needed = 0, uses_anonymous_args = 0
 1547 0000 00B5     		push	{lr}
 1548              		.cfi_def_cfa_offset 4
 1549              		.cfi_offset 14, -4
 1550 0002 85B0     		sub	sp, sp, #20
 1551              		.cfi_def_cfa_offset 24
 1552 0004 0190     		str	r0, [sp, #4]
 1553 0006 0091     		str	r1, [sp]
 1554              		.loc 9 593 0
 1555 0008 019B     		ldr	r3, [sp, #4]
 1556 000a 1B68     		ldr	r3, [r3]
 1557 000c 002B     		cmp	r3, #0
ARM GAS  /tmp/cc72Hk9S.s 			page 29


 1558 000e 09D0     		beq	.L84
 1559              	.LBB11:
 1560              		.loc 9 594 0
 1561 0010 019B     		ldr	r3, [sp, #4]
 1562 0012 1B68     		ldr	r3, [r3]
 1563 0014 0393     		str	r3, [sp, #12]
 1564              		.loc 9 599 0
 1565 0016 019B     		ldr	r3, [sp, #4]
 1566 0018 0022     		movs	r2, #0
 1567 001a 1A60     		str	r2, [r3]
 1568              		.loc 9 600 0
 1569 001c 0398     		ldr	r0, [sp, #12]
 1570 001e 0099     		ldr	r1, [sp]
 1571 0020 FFF7FEFF 		bl	chSchWakeupS
 1572              	.L84:
 1573              	.LBE11:
 1574              		.loc 9 602 0
 1575 0024 05B0     		add	sp, sp, #20
 1576              		@ sp needed
 1577 0026 5DF804FB 		ldr	pc, [sp], #4
 1578              		.cfi_endproc
 1579              	.LFE256:
 1580              		.size	chThdResumeS, .-chThdResumeS
 1581 002a 00BFAFF3 		.section	.text.chThdResume,"ax",%progbits
 1581      0080
 1582              		.align	2
 1583              		.p2align 4,,15
 1584              		.global	chThdResume
 1585              		.thumb
 1586              		.thumb_func
 1587              		.type	chThdResume, %function
 1588              	chThdResume:
 1589              	.LFB257:
 1590              		.loc 9 614 0
 1591              		.cfi_startproc
 1592              		@ args = 0, pretend = 0, frame = 8
 1593              		@ frame_needed = 0, uses_anonymous_args = 0
 1594 0000 00B5     		push	{lr}
 1595              		.cfi_def_cfa_offset 4
 1596              		.cfi_offset 14, -4
 1597 0002 83B0     		sub	sp, sp, #12
 1598              		.cfi_def_cfa_offset 16
 1599 0004 0190     		str	r0, [sp, #4]
 1600 0006 0091     		str	r1, [sp]
 1601              		.loc 9 616 0
 1602 0008 FFF7FEFF 		bl	chSysLock
 1603              		.loc 9 617 0
 1604 000c 0198     		ldr	r0, [sp, #4]
 1605 000e 0099     		ldr	r1, [sp]
 1606 0010 FFF7FEFF 		bl	chThdResumeS
 1607              		.loc 9 618 0
 1608 0014 FFF7FEFF 		bl	chSysUnlock
 1609              		.loc 9 619 0
 1610 0018 03B0     		add	sp, sp, #12
 1611              		@ sp needed
 1612 001a 5DF804FB 		ldr	pc, [sp], #4
 1613              		.cfi_endproc
ARM GAS  /tmp/cc72Hk9S.s 			page 30


 1614              	.LFE257:
 1615              		.size	chThdResume, .-chThdResume
 1616 001e 00BF     		.section	.text.chThdEnqueueTimeoutS,"ax",%progbits
 1617              		.align	2
 1618              		.p2align 4,,15
 1619              		.global	chThdEnqueueTimeoutS
 1620              		.thumb
 1621              		.thumb_func
 1622              		.type	chThdEnqueueTimeoutS, %function
 1623              	chThdEnqueueTimeoutS:
 1624              	.LFB258:
 1625              		.loc 9 644 0
 1626              		.cfi_startproc
 1627              		@ args = 0, pretend = 0, frame = 8
 1628              		@ frame_needed = 0, uses_anonymous_args = 0
 1629 0000 00B5     		push	{lr}
 1630              		.cfi_def_cfa_offset 4
 1631              		.cfi_offset 14, -4
 1632 0002 83B0     		sub	sp, sp, #12
 1633              		.cfi_def_cfa_offset 16
 1634 0004 0190     		str	r0, [sp, #4]
 1635 0006 0091     		str	r1, [sp]
 1636              		.loc 9 646 0
 1637 0008 009B     		ldr	r3, [sp]
 1638 000a 002B     		cmp	r3, #0
 1639 000c 02D1     		bne	.L88
 1640              		.loc 9 647 0
 1641 000e 4FF0FF33 		mov	r3, #-1
 1642 0012 0AE0     		b	.L89
 1643              	.L88:
 1644              		.loc 9 650 0
 1645 0014 074B     		ldr	r3, .L90
 1646 0016 9B69     		ldr	r3, [r3, #24]
 1647 0018 1846     		mov	r0, r3
 1648 001a 0199     		ldr	r1, [sp, #4]
 1649 001c FFF7FEFF 		bl	queue_insert
 1650              		.loc 9 652 0
 1651 0020 0420     		movs	r0, #4
 1652 0022 0099     		ldr	r1, [sp]
 1653 0024 FFF7FEFF 		bl	chSchGoSleepTimeoutS
 1654 0028 0346     		mov	r3, r0
 1655              	.L89:
 1656              		.loc 9 653 0
 1657 002a 1846     		mov	r0, r3
 1658 002c 03B0     		add	sp, sp, #12
 1659              		@ sp needed
 1660 002e 5DF804FB 		ldr	pc, [sp], #4
 1661              	.L91:
 1662 0032 00BF     		.align	2
 1663              	.L90:
 1664 0034 00000000 		.word	ch
 1665              		.cfi_endproc
 1666              	.LFE258:
 1667              		.size	chThdEnqueueTimeoutS, .-chThdEnqueueTimeoutS
 1668 0038 AFF30080 		.section	.text.chThdDequeueNextI,"ax",%progbits
 1668      AFF30080 
 1669              		.align	2
ARM GAS  /tmp/cc72Hk9S.s 			page 31


 1670              		.p2align 4,,15
 1671              		.global	chThdDequeueNextI
 1672              		.thumb
 1673              		.thumb_func
 1674              		.type	chThdDequeueNextI, %function
 1675              	chThdDequeueNextI:
 1676              	.LFB259:
 1677              		.loc 9 664 0
 1678              		.cfi_startproc
 1679              		@ args = 0, pretend = 0, frame = 8
 1680              		@ frame_needed = 0, uses_anonymous_args = 0
 1681 0000 00B5     		push	{lr}
 1682              		.cfi_def_cfa_offset 4
 1683              		.cfi_offset 14, -4
 1684 0002 83B0     		sub	sp, sp, #12
 1685              		.cfi_def_cfa_offset 16
 1686 0004 0190     		str	r0, [sp, #4]
 1687 0006 0091     		str	r1, [sp]
 1688              		.loc 9 666 0
 1689 0008 0198     		ldr	r0, [sp, #4]
 1690 000a FFF7FEFF 		bl	queue_notempty
 1691 000e 0346     		mov	r3, r0
 1692 0010 002B     		cmp	r3, #0
 1693 0012 03D0     		beq	.L92
 1694              		.loc 9 667 0
 1695 0014 0198     		ldr	r0, [sp, #4]
 1696 0016 0099     		ldr	r1, [sp]
 1697 0018 FFF7FEFF 		bl	chThdDoDequeueNextI
 1698              	.L92:
 1699              		.loc 9 669 0
 1700 001c 03B0     		add	sp, sp, #12
 1701              		@ sp needed
 1702 001e 5DF804FB 		ldr	pc, [sp], #4
 1703              		.cfi_endproc
 1704              	.LFE259:
 1705              		.size	chThdDequeueNextI, .-chThdDequeueNextI
 1706 0022 00BFAFF3 		.section	.text.chThdDequeueAllI,"ax",%progbits
 1706      0080AFF3 
 1706      0080AFF3 
 1706      0080
 1707              		.align	2
 1708              		.p2align 4,,15
 1709              		.global	chThdDequeueAllI
 1710              		.thumb
 1711              		.thumb_func
 1712              		.type	chThdDequeueAllI, %function
 1713              	chThdDequeueAllI:
 1714              	.LFB260:
 1715              		.loc 9 679 0
 1716              		.cfi_startproc
 1717              		@ args = 0, pretend = 0, frame = 8
 1718              		@ frame_needed = 0, uses_anonymous_args = 0
 1719 0000 00B5     		push	{lr}
 1720              		.cfi_def_cfa_offset 4
 1721              		.cfi_offset 14, -4
 1722 0002 83B0     		sub	sp, sp, #12
 1723              		.cfi_def_cfa_offset 16
ARM GAS  /tmp/cc72Hk9S.s 			page 32


 1724 0004 0190     		str	r0, [sp, #4]
 1725 0006 0091     		str	r1, [sp]
 1726              		.loc 9 681 0
 1727 0008 03E0     		b	.L95
 1728              	.L96:
 1729              		.loc 9 682 0
 1730 000a 0198     		ldr	r0, [sp, #4]
 1731 000c 0099     		ldr	r1, [sp]
 1732 000e FFF7FEFF 		bl	chThdDoDequeueNextI
 1733              	.L95:
 1734              		.loc 9 681 0 discriminator 1
 1735 0012 0198     		ldr	r0, [sp, #4]
 1736 0014 FFF7FEFF 		bl	queue_notempty
 1737 0018 0346     		mov	r3, r0
 1738 001a 002B     		cmp	r3, #0
 1739 001c F5D1     		bne	.L96
 1740              		.loc 9 684 0
 1741 001e 03B0     		add	sp, sp, #12
 1742              		@ sp needed
 1743 0020 5DF804FB 		ldr	pc, [sp], #4
 1744              		.cfi_endproc
 1745              	.LFE260:
 1746              		.size	chThdDequeueAllI, .-chThdDequeueAllI
 1747 0024 AFF30080 		.text
 1747      AFF30080 
 1747      AFF30080 
 1748              	.Letext0:
 1749              		.file 10 "/usr/lib/gcc/arm-none-eabi/4.8/include/stddef.h"
 1750              		.file 11 "/usr/include/newlib/machine/_default_types.h"
 1751              		.file 12 "/usr/include/newlib/stdint.h"
 1752              		.file 13 "/home/efe/ChibiOS/os/rt/ports/ARMCMx/compilers/GCC/chtypes.h"
 1753              		.file 14 "/home/efe/ChibiOS/os/rt/include/chsystypes.h"
 1754              		.file 15 "/home/efe/ChibiOS/os/rt/ports/ARMCMx/chcore.h"
 1755              		.file 16 "/home/efe/ChibiOS/os/hal/ports/STM32/LLD/TIMv1/stm32_tim.h"
 1756              		.file 17 "/home/efe/ChibiOS/os/rt/include/chtm.h"
 1757              		.file 18 "/home/efe/ChibiOS/os/rt/include/chsem.h"
 1758              		.file 19 "/home/efe/ChibiOS/os/rt/include/chmtx.h"
 1759              		.file 20 "/home/efe/ChibiOS/os/ext/CMSIS/include/core_cm4.h"