ARM GAS  /tmp/cc72Hk9S.s 			page 1


   1              		.syntax unified
   2              		.cpu cortex-m4
   3              		.fpu softvfp
   4              		.eabi_attribute 20, 1
   5              		.eabi_attribute 21, 1
   6              		.eabi_attribute 23, 3
   7              		.eabi_attribute 24, 1
   8              		.eabi_attribute 25, 1
   9              		.eabi_attribute 26, 1
  10              		.eabi_attribute 30, 6
  11              		.eabi_attribute 34, 1
  12              		.eabi_attribute 18, 4
  13              		.thumb
  14              		.file	"chthreads.c"
  15              		.text
  16              	.Ltext0:
  17              		.cfi_sections	.debug_frame
  18              		.section	.text.port_lock,"ax",%progbits
  19              		.align	2
  20              		.p2align 4,,15
  21              		.thumb
  22              		.thumb_func
  23              		.type	port_lock, %function
  24              	port_lock:
  25              	.LFB127:
  26              		.file 1 "/home/efe/ChibiOS/os/rt/ports/ARMCMx/chcore_v7m.h"
  27              		.loc 1 456 0
  28              		.cfi_startproc
  29              		@ args = 0, pretend = 0, frame = 8
  30              		@ frame_needed = 0, uses_anonymous_args = 0
  31              		@ link register save eliminated.
  32 0000 82B0     		sub	sp, sp, #8
  33              		.cfi_def_cfa_offset 8
  34 0002 2023     		movs	r3, #32
  35 0004 0193     		str	r3, [sp, #4]
  36              	.LBB6:
  37              	.LBB7:
  38              		.file 2 "/home/efe/ChibiOS/os/ext/CMSIS/include/core_cmFunc.h"
  39              		.loc 2 548 0
  40 0006 019B     		ldr	r3, [sp, #4]
  41              	@ 548 "/home/efe/ChibiOS/os/ext/CMSIS/include/core_cmFunc.h" 1
  42 0008 83F31188 		MSR basepri, r3
  43              	@ 0 "" 2
  44              		.thumb
  45              	.LBE7:
  46              	.LBE6:
  47              		.loc 1 463 0
  48 000c 02B0     		add	sp, sp, #8
  49              		@ sp needed
  50 000e 7047     		bx	lr
  51              		.cfi_endproc
  52              	.LFE127:
  53              		.size	port_lock, .-port_lock
  54              		.section	.text.port_unlock,"ax",%progbits
  55              		.align	2
  56              		.p2align 4,,15
  57              		.thumb
ARM GAS  /tmp/cc72Hk9S.s 			page 2


  58              		.thumb_func
  59              		.type	port_unlock, %function
  60              	port_unlock:
  61              	.LFB128:
  62              		.loc 1 470 0
  63              		.cfi_startproc
  64              		@ args = 0, pretend = 0, frame = 8
  65              		@ frame_needed = 0, uses_anonymous_args = 0
  66              		@ link register save eliminated.
  67 0000 82B0     		sub	sp, sp, #8
  68              		.cfi_def_cfa_offset 8
  69 0002 0023     		movs	r3, #0
  70 0004 0193     		str	r3, [sp, #4]
  71              	.LBB8:
  72              	.LBB9:
  73              		.loc 2 548 0
  74 0006 019B     		ldr	r3, [sp, #4]
  75              	@ 548 "/home/efe/ChibiOS/os/ext/CMSIS/include/core_cmFunc.h" 1
  76 0008 83F31188 		MSR basepri, r3
  77              	@ 0 "" 2
  78              		.thumb
  79              	.LBE9:
  80              	.LBE8:
  81              		.loc 1 477 0
  82 000c 02B0     		add	sp, sp, #8
  83              		@ sp needed
  84 000e 7047     		bx	lr
  85              		.cfi_endproc
  86              	.LFE128:
  87              		.size	port_unlock, .-port_unlock
  88              		.section	.text.st_lld_get_counter,"ax",%progbits
  89              		.align	2
  90              		.p2align 4,,15
  91              		.thumb
  92              		.thumb_func
  93              		.type	st_lld_get_counter, %function
  94              	st_lld_get_counter:
  95              	.LFB136:
  96              		.file 3 "/home/efe/ChibiOS/os/hal/ports/STM32/LLD/TIMv1/st_lld.h"
  97              		.loc 3 139 0
  98              		.cfi_startproc
  99              		@ args = 0, pretend = 0, frame = 0
 100              		@ frame_needed = 0, uses_anonymous_args = 0
 101              		@ link register save eliminated.
 102              		.loc 3 141 0
 103 0000 4FF08043 		mov	r3, #1073741824
 104 0004 5B6A     		ldr	r3, [r3, #36]
 105              		.loc 3 142 0
 106 0006 1846     		mov	r0, r3
 107 0008 7047     		bx	lr
 108              		.cfi_endproc
 109              	.LFE136:
 110              		.size	st_lld_get_counter, .-st_lld_get_counter
 111 000a 00BFAFF3 		.section	.text.port_timer_get_time,"ax",%progbits
 111      0080
 112              		.align	2
 113              		.p2align 4,,15
ARM GAS  /tmp/cc72Hk9S.s 			page 3


 114              		.thumb
 115              		.thumb_func
 116              		.type	port_timer_get_time, %function
 117              	port_timer_get_time:
 118              	.LFB145:
 119              		.file 4 "/home/efe/ChibiOS/os/rt/ports/ARMCMx/chcore_timer.h"
 120              		.loc 4 105 0
 121              		.cfi_startproc
 122              		@ args = 0, pretend = 0, frame = 0
 123              		@ frame_needed = 0, uses_anonymous_args = 0
 124 0000 08B5     		push	{r3, lr}
 125              		.cfi_def_cfa_offset 8
 126              		.cfi_offset 3, -8
 127              		.cfi_offset 14, -4
 128              		.loc 4 107 0
 129 0002 FFF7FEFF 		bl	st_lld_get_counter
 130 0006 0346     		mov	r3, r0
 131              		.loc 4 108 0
 132 0008 1846     		mov	r0, r3
 133 000a 08BD     		pop	{r3, pc}
 134              		.cfi_endproc
 135              	.LFE145:
 136              		.size	port_timer_get_time, .-port_timer_get_time
 137              		.section	.text.list_init,"ax",%progbits
 138              		.align	2
 139              		.p2align 4,,15
 140              		.thumb
 141              		.thumb_func
 142              		.type	list_init, %function
 143              	list_init:
 144              	.LFB147:
 145              		.file 5 "/home/efe/ChibiOS/os/rt/include/chschd.h"
 146              		.loc 5 564 0
 147              		.cfi_startproc
 148              		@ args = 0, pretend = 0, frame = 8
 149              		@ frame_needed = 0, uses_anonymous_args = 0
 150              		@ link register save eliminated.
 151 0000 82B0     		sub	sp, sp, #8
 152              		.cfi_def_cfa_offset 8
 153 0002 0190     		str	r0, [sp, #4]
 154              		.loc 5 566 0
 155 0004 019B     		ldr	r3, [sp, #4]
 156 0006 019A     		ldr	r2, [sp, #4]
 157 0008 1A60     		str	r2, [r3]
 158              		.loc 5 567 0
 159 000a 02B0     		add	sp, sp, #8
 160              		@ sp needed
 161 000c 7047     		bx	lr
 162              		.cfi_endproc
 163              	.LFE147:
 164              		.size	list_init, .-list_init
 165 000e 00BF     		.section	.text.list_notempty,"ax",%progbits
 166              		.align	2
 167              		.p2align 4,,15
 168              		.thumb
 169              		.thumb_func
 170              		.type	list_notempty, %function
ARM GAS  /tmp/cc72Hk9S.s 			page 4


 171              	list_notempty:
 172              	.LFB149:
 173              		.loc 5 590 0
 174              		.cfi_startproc
 175              		@ args = 0, pretend = 0, frame = 8
 176              		@ frame_needed = 0, uses_anonymous_args = 0
 177              		@ link register save eliminated.
 178 0000 82B0     		sub	sp, sp, #8
 179              		.cfi_def_cfa_offset 8
 180 0002 0190     		str	r0, [sp, #4]
 181              		.loc 5 592 0
 182 0004 019B     		ldr	r3, [sp, #4]
 183 0006 1A68     		ldr	r2, [r3]
 184 0008 019B     		ldr	r3, [sp, #4]
 185 000a 9A42     		cmp	r2, r3
 186 000c 0CBF     		ite	eq
 187 000e 0023     		moveq	r3, #0
 188 0010 0123     		movne	r3, #1
 189 0012 DBB2     		uxtb	r3, r3
 190              		.loc 5 593 0
 191 0014 1846     		mov	r0, r3
 192 0016 02B0     		add	sp, sp, #8
 193              		@ sp needed
 194 0018 7047     		bx	lr
 195              		.cfi_endproc
 196              	.LFE149:
 197              		.size	list_notempty, .-list_notempty
 198 001a 00BFAFF3 		.section	.text.queue_init,"ax",%progbits
 198      0080
 199              		.align	2
 200              		.p2align 4,,15
 201              		.thumb
 202              		.thumb_func
 203              		.type	queue_init, %function
 204              	queue_init:
 205              	.LFB150:
 206              		.loc 5 602 0
 207              		.cfi_startproc
 208              		@ args = 0, pretend = 0, frame = 8
 209              		@ frame_needed = 0, uses_anonymous_args = 0
 210              		@ link register save eliminated.
 211 0000 82B0     		sub	sp, sp, #8
 212              		.cfi_def_cfa_offset 8
 213 0002 0190     		str	r0, [sp, #4]
 214              		.loc 5 604 0
 215 0004 019B     		ldr	r3, [sp, #4]
 216 0006 019A     		ldr	r2, [sp, #4]
 217 0008 1A60     		str	r2, [r3]
 218              		.loc 5 605 0
 219 000a 019B     		ldr	r3, [sp, #4]
 220 000c 019A     		ldr	r2, [sp, #4]
 221 000e 5A60     		str	r2, [r3, #4]
 222              		.loc 5 606 0
 223 0010 02B0     		add	sp, sp, #8
 224              		@ sp needed
 225 0012 7047     		bx	lr
 226              		.cfi_endproc
ARM GAS  /tmp/cc72Hk9S.s 			page 5


 227              	.LFE150:
 228              		.size	queue_init, .-queue_init
 229 0014 AFF30080 		.section	.text.queue_notempty,"ax",%progbits
 229      AFF30080 
 229      AFF30080 
 230              		.align	2
 231              		.p2align 4,,15
 232              		.thumb
 233              		.thumb_func
 234              		.type	queue_notempty, %function
 235              	queue_notempty:
 236              	.LFB152:
 237              		.loc 5 629 0
 238              		.cfi_startproc
 239              		@ args = 0, pretend = 0, frame = 8
 240              		@ frame_needed = 0, uses_anonymous_args = 0
 241              		@ link register save eliminated.
 242 0000 82B0     		sub	sp, sp, #8
 243              		.cfi_def_cfa_offset 8
 244 0002 0190     		str	r0, [sp, #4]
 245              		.loc 5 631 0
 246 0004 019B     		ldr	r3, [sp, #4]
 247 0006 1A68     		ldr	r2, [r3]
 248 0008 019B     		ldr	r3, [sp, #4]
 249 000a 9A42     		cmp	r2, r3
 250 000c 0CBF     		ite	eq
 251 000e 0023     		moveq	r3, #0
 252 0010 0123     		movne	r3, #1
 253 0012 DBB2     		uxtb	r3, r3
 254              		.loc 5 632 0
 255 0014 1846     		mov	r0, r3
 256 0016 02B0     		add	sp, sp, #8
 257              		@ sp needed
 258 0018 7047     		bx	lr
 259              		.cfi_endproc
 260              	.LFE152:
 261              		.size	queue_notempty, .-queue_notempty
 262 001a 00BFAFF3 		.section	.text.list_insert,"ax",%progbits
 262      0080
 263              		.align	2
 264              		.p2align 4,,15
 265              		.thumb
 266              		.thumb_func
 267              		.type	list_insert, %function
 268              	list_insert:
 269              	.LFB153:
 270              		.loc 5 637 0
 271              		.cfi_startproc
 272              		@ args = 0, pretend = 0, frame = 8
 273              		@ frame_needed = 0, uses_anonymous_args = 0
 274              		@ link register save eliminated.
 275 0000 82B0     		sub	sp, sp, #8
 276              		.cfi_def_cfa_offset 8
 277 0002 0190     		str	r0, [sp, #4]
 278 0004 0091     		str	r1, [sp]
 279              		.loc 5 639 0
 280 0006 009B     		ldr	r3, [sp]
ARM GAS  /tmp/cc72Hk9S.s 			page 6


 281 0008 1A68     		ldr	r2, [r3]
 282 000a 019B     		ldr	r3, [sp, #4]
 283 000c 1A60     		str	r2, [r3]
 284              		.loc 5 640 0
 285 000e 009B     		ldr	r3, [sp]
 286 0010 019A     		ldr	r2, [sp, #4]
 287 0012 1A60     		str	r2, [r3]
 288              		.loc 5 641 0
 289 0014 02B0     		add	sp, sp, #8
 290              		@ sp needed
 291 0016 7047     		bx	lr
 292              		.cfi_endproc
 293              	.LFE153:
 294              		.size	list_insert, .-list_insert
 295 0018 AFF30080 		.section	.text.list_remove,"ax",%progbits
 295      AFF30080 
 296              		.align	2
 297              		.p2align 4,,15
 298              		.thumb
 299              		.thumb_func
 300              		.type	list_remove, %function
 301              	list_remove:
 302              	.LFB154:
 303              		.loc 5 643 0
 304              		.cfi_startproc
 305              		@ args = 0, pretend = 0, frame = 16
 306              		@ frame_needed = 0, uses_anonymous_args = 0
 307              		@ link register save eliminated.
 308 0000 84B0     		sub	sp, sp, #16
 309              		.cfi_def_cfa_offset 16
 310 0002 0190     		str	r0, [sp, #4]
 311              		.loc 5 645 0
 312 0004 019B     		ldr	r3, [sp, #4]
 313 0006 1B68     		ldr	r3, [r3]
 314 0008 0393     		str	r3, [sp, #12]
 315              		.loc 5 646 0
 316 000a 039B     		ldr	r3, [sp, #12]
 317 000c 1A68     		ldr	r2, [r3]
 318 000e 019B     		ldr	r3, [sp, #4]
 319 0010 1A60     		str	r2, [r3]
 320              		.loc 5 648 0
 321 0012 039B     		ldr	r3, [sp, #12]
 322              		.loc 5 649 0
 323 0014 1846     		mov	r0, r3
 324 0016 04B0     		add	sp, sp, #16
 325              		@ sp needed
 326 0018 7047     		bx	lr
 327              		.cfi_endproc
 328              	.LFE154:
 329              		.size	list_remove, .-list_remove
 330 001a 00BFAFF3 		.section	.text.queue_insert,"ax",%progbits
 330      0080
 331              		.align	2
 332              		.p2align 4,,15
 333              		.thumb
 334              		.thumb_func
 335              		.type	queue_insert, %function
ARM GAS  /tmp/cc72Hk9S.s 			page 7


 336              	queue_insert:
 337              	.LFB156:
 338              		.loc 5 663 0
 339              		.cfi_startproc
 340              		@ args = 0, pretend = 0, frame = 8
 341              		@ frame_needed = 0, uses_anonymous_args = 0
 342              		@ link register save eliminated.
 343 0000 82B0     		sub	sp, sp, #8
 344              		.cfi_def_cfa_offset 8
 345 0002 0190     		str	r0, [sp, #4]
 346 0004 0091     		str	r1, [sp]
 347              		.loc 5 665 0
 348 0006 019B     		ldr	r3, [sp, #4]
 349 0008 009A     		ldr	r2, [sp]
 350 000a 1A60     		str	r2, [r3]
 351              		.loc 5 666 0
 352 000c 009B     		ldr	r3, [sp]
 353 000e 5A68     		ldr	r2, [r3, #4]
 354 0010 019B     		ldr	r3, [sp, #4]
 355 0012 5A60     		str	r2, [r3, #4]
 356              		.loc 5 667 0
 357 0014 019B     		ldr	r3, [sp, #4]
 358 0016 5B68     		ldr	r3, [r3, #4]
 359 0018 019A     		ldr	r2, [sp, #4]
 360 001a 1A60     		str	r2, [r3]
 361              		.loc 5 668 0
 362 001c 009B     		ldr	r3, [sp]
 363 001e 019A     		ldr	r2, [sp, #4]
 364 0020 5A60     		str	r2, [r3, #4]
 365              		.loc 5 669 0
 366 0022 02B0     		add	sp, sp, #8
 367              		@ sp needed
 368 0024 7047     		bx	lr
 369              		.cfi_endproc
 370              	.LFE156:
 371              		.size	queue_insert, .-queue_insert
 372 0026 00BFAFF3 		.section	.text.queue_fifo_remove,"ax",%progbits
 372      0080AFF3 
 372      0080
 373              		.align	2
 374              		.p2align 4,,15
 375              		.thumb
 376              		.thumb_func
 377              		.type	queue_fifo_remove, %function
 378              	queue_fifo_remove:
 379              	.LFB157:
 380              		.loc 5 671 0
 381              		.cfi_startproc
 382              		@ args = 0, pretend = 0, frame = 16
 383              		@ frame_needed = 0, uses_anonymous_args = 0
 384              		@ link register save eliminated.
 385 0000 84B0     		sub	sp, sp, #16
 386              		.cfi_def_cfa_offset 16
 387 0002 0190     		str	r0, [sp, #4]
 388              		.loc 5 672 0
 389 0004 019B     		ldr	r3, [sp, #4]
 390 0006 1B68     		ldr	r3, [r3]
ARM GAS  /tmp/cc72Hk9S.s 			page 8


 391 0008 0393     		str	r3, [sp, #12]
 392              		.loc 5 674 0
 393 000a 039B     		ldr	r3, [sp, #12]
 394 000c 1A68     		ldr	r2, [r3]
 395 000e 019B     		ldr	r3, [sp, #4]
 396 0010 1A60     		str	r2, [r3]
 397              		.loc 5 675 0
 398 0012 019B     		ldr	r3, [sp, #4]
 399 0014 1B68     		ldr	r3, [r3]
 400 0016 019A     		ldr	r2, [sp, #4]
 401 0018 5A60     		str	r2, [r3, #4]
 402              		.loc 5 677 0
 403 001a 039B     		ldr	r3, [sp, #12]
 404              		.loc 5 678 0
 405 001c 1846     		mov	r0, r3
 406 001e 04B0     		add	sp, sp, #16
 407              		@ sp needed
 408 0020 7047     		bx	lr
 409              		.cfi_endproc
 410              	.LFE157:
 411              		.size	queue_fifo_remove, .-queue_fifo_remove
 412 0022 00BFAFF3 		.section	.text.chSchCanYieldS,"ax",%progbits
 412      0080AFF3 
 412      0080AFF3 
 412      0080
 413              		.align	2
 414              		.p2align 4,,15
 415              		.thumb
 416              		.thumb_func
 417              		.type	chSchCanYieldS, %function
 418              	chSchCanYieldS:
 419              	.LFB161:
 420              		.loc 5 727 0
 421              		.cfi_startproc
 422              		@ args = 0, pretend = 0, frame = 0
 423              		@ frame_needed = 0, uses_anonymous_args = 0
 424              		@ link register save eliminated.
 425              		.loc 5 731 0
 426 0000 064B     		ldr	r3, .L21
 427 0002 1B68     		ldr	r3, [r3]
 428 0004 9A68     		ldr	r2, [r3, #8]
 429 0006 054B     		ldr	r3, .L21
 430 0008 9B69     		ldr	r3, [r3, #24]
 431 000a 9B68     		ldr	r3, [r3, #8]
 432 000c 9A42     		cmp	r2, r3
 433 000e 34BF     		ite	cc
 434 0010 0023     		movcc	r3, #0
 435 0012 0123     		movcs	r3, #1
 436 0014 DBB2     		uxtb	r3, r3
 437              		.loc 5 732 0
 438 0016 1846     		mov	r0, r3
 439 0018 7047     		bx	lr
 440              	.L22:
 441 001a 00BF     		.align	2
 442              	.L21:
 443 001c 00000000 		.word	ch
 444              		.cfi_endproc
ARM GAS  /tmp/cc72Hk9S.s 			page 9


 445              	.LFE161:
 446              		.size	chSchCanYieldS, .-chSchCanYieldS
 447              		.section	.text.chSchDoYieldS,"ax",%progbits
 448              		.align	2
 449              		.p2align 4,,15
 450              		.thumb
 451              		.thumb_func
 452              		.type	chSchDoYieldS, %function
 453              	chSchDoYieldS:
 454              	.LFB162:
 455              		.loc 5 741 0
 456              		.cfi_startproc
 457              		@ args = 0, pretend = 0, frame = 0
 458              		@ frame_needed = 0, uses_anonymous_args = 0
 459 0000 08B5     		push	{r3, lr}
 460              		.cfi_def_cfa_offset 8
 461              		.cfi_offset 3, -8
 462              		.cfi_offset 14, -4
 463              		.loc 5 745 0
 464 0002 FFF7FEFF 		bl	chSchCanYieldS
 465 0006 0346     		mov	r3, r0
 466 0008 002B     		cmp	r3, #0
 467 000a 01D0     		beq	.L23
 468              		.loc 5 746 0
 469 000c FFF7FEFF 		bl	chSchDoRescheduleBehind
 470              	.L23:
 471              		.loc 5 748 0
 472 0010 08BD     		pop	{r3, pc}
 473              		.cfi_endproc
 474              	.LFE162:
 475              		.size	chSchDoYieldS, .-chSchDoYieldS
 476 0012 00BFAFF3 		.section	.text.chSysLock,"ax",%progbits
 476      0080AFF3 
 476      0080AFF3 
 476      0080
 477              		.align	2
 478              		.p2align 4,,15
 479              		.thumb
 480              		.thumb_func
 481              		.type	chSysLock, %function
 482              	chSysLock:
 483              	.LFB167:
 484              		.file 6 "/home/efe/ChibiOS/os/rt/include/chsys.h"
 485              		.loc 6 346 0
 486              		.cfi_startproc
 487              		@ args = 0, pretend = 0, frame = 0
 488              		@ frame_needed = 0, uses_anonymous_args = 0
 489 0000 08B5     		push	{r3, lr}
 490              		.cfi_def_cfa_offset 8
 491              		.cfi_offset 3, -8
 492              		.cfi_offset 14, -4
 493              		.loc 6 348 0
 494 0002 FFF7FEFF 		bl	port_lock
 495              		.loc 6 351 0
 496 0006 08BD     		pop	{r3, pc}
 497              		.cfi_endproc
 498              	.LFE167:
ARM GAS  /tmp/cc72Hk9S.s 			page 10


 499              		.size	chSysLock, .-chSysLock
 500 0008 AFF30080 		.section	.text.chSysUnlock,"ax",%progbits
 500      AFF30080 
 501              		.align	2
 502              		.p2align 4,,15
 503              		.thumb
 504              		.thumb_func
 505              		.type	chSysUnlock, %function
 506              	chSysUnlock:
 507              	.LFB168:
 508              		.loc 6 358 0
 509              		.cfi_startproc
 510              		@ args = 0, pretend = 0, frame = 0
 511              		@ frame_needed = 0, uses_anonymous_args = 0
 512 0000 08B5     		push	{r3, lr}
 513              		.cfi_def_cfa_offset 8
 514              		.cfi_offset 3, -8
 515              		.cfi_offset 14, -4
 516              		.loc 6 371 0
 517 0002 FFF7FEFF 		bl	port_unlock
 518              		.loc 6 372 0
 519 0006 08BD     		pop	{r3, pc}
 520              		.cfi_endproc
 521              	.LFE168:
 522              		.size	chSysUnlock, .-chSysUnlock
 523 0008 AFF30080 		.section	.text.chVTGetSystemTimeX,"ax",%progbits
 523      AFF30080 
 524              		.align	2
 525              		.p2align 4,,15
 526              		.thumb
 527              		.thumb_func
 528              		.type	chVTGetSystemTimeX, %function
 529              	chVTGetSystemTimeX:
 530              	.LFB175:
 531              		.file 7 "/home/efe/ChibiOS/os/rt/include/chvt.h"
 532              		.loc 7 228 0
 533              		.cfi_startproc
 534              		@ args = 0, pretend = 0, frame = 0
 535              		@ frame_needed = 0, uses_anonymous_args = 0
 536 0000 08B5     		push	{r3, lr}
 537              		.cfi_def_cfa_offset 8
 538              		.cfi_offset 3, -8
 539              		.cfi_offset 14, -4
 540              		.loc 7 233 0
 541 0002 FFF7FEFF 		bl	port_timer_get_time
 542 0006 0346     		mov	r3, r0
 543              		.loc 7 235 0
 544 0008 1846     		mov	r0, r3
 545 000a 08BD     		pop	{r3, pc}
 546              		.cfi_endproc
 547              	.LFE175:
 548              		.size	chVTGetSystemTimeX, .-chVTGetSystemTimeX
 549              		.section	.text.chVTIsTimeWithinX,"ax",%progbits
 550              		.align	2
 551              		.p2align 4,,15
 552              		.thumb
 553              		.thumb_func
ARM GAS  /tmp/cc72Hk9S.s 			page 11


 554              		.type	chVTIsTimeWithinX, %function
 555              	chVTIsTimeWithinX:
 556              	.LFB178:
 557              		.loc 7 286 0
 558              		.cfi_startproc
 559              		@ args = 0, pretend = 0, frame = 16
 560              		@ frame_needed = 0, uses_anonymous_args = 0
 561              		@ link register save eliminated.
 562 0000 84B0     		sub	sp, sp, #16
 563              		.cfi_def_cfa_offset 16
 564 0002 0390     		str	r0, [sp, #12]
 565 0004 0291     		str	r1, [sp, #8]
 566 0006 0192     		str	r2, [sp, #4]
 567              		.loc 7 288 0
 568 0008 039A     		ldr	r2, [sp, #12]
 569 000a 029B     		ldr	r3, [sp, #8]
 570 000c D21A     		subs	r2, r2, r3
 571 000e 0199     		ldr	r1, [sp, #4]
 572 0010 029B     		ldr	r3, [sp, #8]
 573 0012 CB1A     		subs	r3, r1, r3
 574 0014 9A42     		cmp	r2, r3
 575 0016 2CBF     		ite	cs
 576 0018 0023     		movcs	r3, #0
 577 001a 0123     		movcc	r3, #1
 578 001c DBB2     		uxtb	r3, r3
 579              		.loc 7 289 0
 580 001e 1846     		mov	r0, r3
 581 0020 04B0     		add	sp, sp, #16
 582              		@ sp needed
 583 0022 7047     		bx	lr
 584              		.cfi_endproc
 585              	.LFE178:
 586              		.size	chVTIsTimeWithinX, .-chVTIsTimeWithinX
 587 0024 AFF30080 		.section	.text.chThdGetSelfX,"ax",%progbits
 587      AFF30080 
 587      AFF30080 
 588              		.align	2
 589              		.p2align 4,,15
 590              		.thumb
 591              		.thumb_func
 592              		.type	chThdGetSelfX, %function
 593              	chThdGetSelfX:
 594              	.LFB188:
 595              		.file 8 "/home/efe/ChibiOS/os/rt/include/chthreads.h"
 596              		.loc 8 174 0
 597              		.cfi_startproc
 598              		@ args = 0, pretend = 0, frame = 0
 599              		@ frame_needed = 0, uses_anonymous_args = 0
 600              		@ link register save eliminated.
 601              		.loc 8 176 0
 602 0000 014B     		ldr	r3, .L33
 603 0002 9B69     		ldr	r3, [r3, #24]
 604              		.loc 8 177 0
 605 0004 1846     		mov	r0, r3
 606 0006 7047     		bx	lr
 607              	.L34:
 608              		.align	2
ARM GAS  /tmp/cc72Hk9S.s 			page 12


 609              	.L33:
 610 0008 00000000 		.word	ch
 611              		.cfi_endproc
 612              	.LFE188:
 613              		.size	chThdGetSelfX, .-chThdGetSelfX
 614 000c AFF30080 		.section	.text.chThdStartI,"ax",%progbits
 615              		.align	2
 616              		.p2align 4,,15
 617              		.thumb
 618              		.thumb_func
 619              		.type	chThdStartI, %function
 620              	chThdStartI:
 621              	.LFB192:
 622              		.loc 8 245 0
 623              		.cfi_startproc
 624              		@ args = 0, pretend = 0, frame = 8
 625              		@ frame_needed = 0, uses_anonymous_args = 0
 626 0000 00B5     		push	{lr}
 627              		.cfi_def_cfa_offset 4
 628              		.cfi_offset 14, -4
 629 0002 83B0     		sub	sp, sp, #12
 630              		.cfi_def_cfa_offset 16
 631 0004 0190     		str	r0, [sp, #4]
 632              		.loc 8 249 0
 633 0006 0198     		ldr	r0, [sp, #4]
 634 0008 FFF7FEFF 		bl	chSchReadyI
 635 000c 0346     		mov	r3, r0
 636              		.loc 8 250 0
 637 000e 1846     		mov	r0, r3
 638 0010 03B0     		add	sp, sp, #12
 639              		@ sp needed
 640 0012 5DF804FB 		ldr	pc, [sp], #4
 641              		.cfi_endproc
 642              	.LFE192:
 643              		.size	chThdStartI, .-chThdStartI
 644 0016 00BFAFF3 		.section	.text.chThdSleepS,"ax",%progbits
 644      0080AFF3 
 644      0080
 645              		.align	2
 646              		.p2align 4,,15
 647              		.thumb
 648              		.thumb_func
 649              		.type	chThdSleepS, %function
 650              	chThdSleepS:
 651              	.LFB193:
 652              		.loc 8 264 0
 653              		.cfi_startproc
 654              		@ args = 0, pretend = 0, frame = 8
 655              		@ frame_needed = 0, uses_anonymous_args = 0
 656 0000 00B5     		push	{lr}
 657              		.cfi_def_cfa_offset 4
 658              		.cfi_offset 14, -4
 659 0002 83B0     		sub	sp, sp, #12
 660              		.cfi_def_cfa_offset 16
 661 0004 0190     		str	r0, [sp, #4]
 662              		.loc 8 268 0
 663 0006 0820     		movs	r0, #8
ARM GAS  /tmp/cc72Hk9S.s 			page 13


 664 0008 0199     		ldr	r1, [sp, #4]
 665 000a FFF7FEFF 		bl	chSchGoSleepTimeoutS
 666              		.loc 8 269 0
 667 000e 03B0     		add	sp, sp, #12
 668              		@ sp needed
 669 0010 5DF804FB 		ldr	pc, [sp], #4
 670              		.cfi_endproc
 671              	.LFE193:
 672              		.size	chThdSleepS, .-chThdSleepS
 673 0014 AFF30080 		.section	.text.chThdDoDequeueNextI,"ax",%progbits
 673      AFF30080 
 673      AFF30080 
 674              		.align	2
 675              		.p2align 4,,15
 676              		.thumb
 677              		.thumb_func
 678              		.type	chThdDoDequeueNextI, %function
 679              	chThdDoDequeueNextI:
 680              	.LFB196:
 681              		.loc 8 312 0
 682              		.cfi_startproc
 683              		@ args = 0, pretend = 0, frame = 16
 684              		@ frame_needed = 0, uses_anonymous_args = 0
 685 0000 00B5     		push	{lr}
 686              		.cfi_def_cfa_offset 4
 687              		.cfi_offset 14, -4
 688 0002 85B0     		sub	sp, sp, #20
 689              		.cfi_def_cfa_offset 24
 690 0004 0190     		str	r0, [sp, #4]
 691 0006 0091     		str	r1, [sp]
 692              		.loc 8 317 0
 693 0008 0198     		ldr	r0, [sp, #4]
 694 000a FFF7FEFF 		bl	queue_fifo_remove
 695 000e 0390     		str	r0, [sp, #12]
 696              		.loc 8 321 0
 697 0010 039B     		ldr	r3, [sp, #12]
 698 0012 009A     		ldr	r2, [sp]
 699 0014 1A62     		str	r2, [r3, #32]
 700              		.loc 8 322 0
 701 0016 0398     		ldr	r0, [sp, #12]
 702 0018 FFF7FEFF 		bl	chSchReadyI
 703              		.loc 8 323 0
 704 001c 05B0     		add	sp, sp, #20
 705              		@ sp needed
 706 001e 5DF804FB 		ldr	pc, [sp], #4
 707              		.cfi_endproc
 708              	.LFE196:
 709              		.size	chThdDoDequeueNextI, .-chThdDoDequeueNextI
 710 0022 00BFAFF3 		.section	.text._thread_init,"ax",%progbits
 710      0080AFF3 
 710      0080AFF3 
 710      0080
 711              		.align	2
 712              		.p2align 4,,15
 713              		.global	_thread_init
 714              		.thumb
 715              		.thumb_func
ARM GAS  /tmp/cc72Hk9S.s 			page 14


 716              		.type	_thread_init, %function
 717              	_thread_init:
 718              	.LFB240:
 719              		.file 9 "/home/efe/ChibiOS/os/rt/src/chthreads.c"
 720              		.loc 9 91 0
 721              		.cfi_startproc
 722              		@ args = 0, pretend = 0, frame = 8
 723              		@ frame_needed = 0, uses_anonymous_args = 0
 724 0000 00B5     		push	{lr}
 725              		.cfi_def_cfa_offset 4
 726              		.cfi_offset 14, -4
 727 0002 83B0     		sub	sp, sp, #12
 728              		.cfi_def_cfa_offset 16
 729 0004 0190     		str	r0, [sp, #4]
 730 0006 0091     		str	r1, [sp]
 731              		.loc 9 93 0
 732 0008 019B     		ldr	r3, [sp, #4]
 733 000a 009A     		ldr	r2, [sp]
 734 000c 9A60     		str	r2, [r3, #8]
 735              		.loc 9 94 0
 736 000e 019B     		ldr	r3, [sp, #4]
 737 0010 0222     		movs	r2, #2
 738 0012 1A77     		strb	r2, [r3, #28]
 739              		.loc 9 95 0
 740 0014 019B     		ldr	r3, [sp, #4]
 741 0016 0022     		movs	r2, #0
 742 0018 5A77     		strb	r2, [r3, #29]
 743              		.loc 9 100 0
 744 001a 019B     		ldr	r3, [sp, #4]
 745 001c 009A     		ldr	r2, [sp]
 746 001e DA63     		str	r2, [r3, #60]
 747              		.loc 9 101 0
 748 0020 019B     		ldr	r3, [sp, #4]
 749 0022 0022     		movs	r2, #0
 750 0024 9A63     		str	r2, [r3, #56]
 751              		.loc 9 104 0
 752 0026 019B     		ldr	r3, [sp, #4]
 753 0028 0022     		movs	r2, #0
 754 002a 5A63     		str	r2, [r3, #52]
 755              		.loc 9 110 0
 756 002c 019B     		ldr	r3, [sp, #4]
 757 002e 0122     		movs	r2, #1
 758 0030 9A77     		strb	r2, [r3, #30]
 759              		.loc 9 113 0
 760 0032 019B     		ldr	r3, [sp, #4]
 761 0034 0022     		movs	r2, #0
 762 0036 9A61     		str	r2, [r3, #24]
 763              		.loc 9 114 0
 764 0038 019B     		ldr	r3, [sp, #4]
 765 003a 0E4A     		ldr	r2, .L41
 766 003c 1A61     		str	r2, [r3, #16]
 767 003e 0D4B     		ldr	r3, .L41
 768 0040 5A69     		ldr	r2, [r3, #20]
 769 0042 019B     		ldr	r3, [sp, #4]
 770 0044 5A61     		str	r2, [r3, #20]
 771 0046 019B     		ldr	r3, [sp, #4]
 772 0048 5B69     		ldr	r3, [r3, #20]
ARM GAS  /tmp/cc72Hk9S.s 			page 15


 773 004a 019A     		ldr	r2, [sp, #4]
 774 004c 1A61     		str	r2, [r3, #16]
 775 004e 094B     		ldr	r3, .L41
 776 0050 019A     		ldr	r2, [sp, #4]
 777 0052 5A61     		str	r2, [r3, #20]
 778              		.loc 9 117 0
 779 0054 019B     		ldr	r3, [sp, #4]
 780 0056 2433     		adds	r3, r3, #36
 781 0058 1846     		mov	r0, r3
 782 005a FFF7FEFF 		bl	list_init
 783              		.loc 9 120 0
 784 005e 019B     		ldr	r3, [sp, #4]
 785 0060 2833     		adds	r3, r3, #40
 786 0062 1846     		mov	r0, r3
 787 0064 FFF7FEFF 		bl	queue_init
 788              		.loc 9 132 0
 789 0068 019B     		ldr	r3, [sp, #4]
 790              		.loc 9 133 0
 791 006a 1846     		mov	r0, r3
 792 006c 03B0     		add	sp, sp, #12
 793              		@ sp needed
 794 006e 5DF804FB 		ldr	pc, [sp], #4
 795              	.L42:
 796 0072 00BF     		.align	2
 797              	.L41:
 798 0074 00000000 		.word	ch
 799              		.cfi_endproc
 800              	.LFE240:
 801              		.size	_thread_init, .-_thread_init
 802 0078 AFF30080 		.section	.text.chThdCreateI,"ax",%progbits
 802      AFF30080 
 803              		.align	2
 804              		.p2align 4,,15
 805              		.global	chThdCreateI
 806              		.thumb
 807              		.thumb_func
 808              		.type	chThdCreateI, %function
 809              	chThdCreateI:
 810              	.LFB241:
 811              		.loc 9 178 0
 812              		.cfi_startproc
 813              		@ args = 4, pretend = 0, frame = 24
 814              		@ frame_needed = 0, uses_anonymous_args = 0
 815 0000 00B5     		push	{lr}
 816              		.cfi_def_cfa_offset 4
 817              		.cfi_offset 14, -4
 818 0002 87B0     		sub	sp, sp, #28
 819              		.cfi_def_cfa_offset 32
 820 0004 0390     		str	r0, [sp, #12]
 821 0006 0291     		str	r1, [sp, #8]
 822 0008 0192     		str	r2, [sp, #4]
 823 000a 0093     		str	r3, [sp]
 824              		.loc 9 181 0
 825 000c 039B     		ldr	r3, [sp, #12]
 826 000e 0593     		str	r3, [sp, #20]
 827              		.loc 9 187 0
 828 0010 029B     		ldr	r3, [sp, #8]
ARM GAS  /tmp/cc72Hk9S.s 			page 16


 829 0012 243B     		subs	r3, r3, #36
 830 0014 039A     		ldr	r2, [sp, #12]
 831 0016 1A44     		add	r2, r2, r3
 832 0018 059B     		ldr	r3, [sp, #20]
 833 001a DA60     		str	r2, [r3, #12]
 834 001c 059B     		ldr	r3, [sp, #20]
 835 001e DB68     		ldr	r3, [r3, #12]
 836 0020 009A     		ldr	r2, [sp]
 837 0022 1A60     		str	r2, [r3]
 838 0024 059B     		ldr	r3, [sp, #20]
 839 0026 DB68     		ldr	r3, [r3, #12]
 840 0028 089A     		ldr	r2, [sp, #32]
 841 002a 5A60     		str	r2, [r3, #4]
 842 002c 059B     		ldr	r3, [sp, #20]
 843 002e DB68     		ldr	r3, [r3, #12]
 844 0030 054A     		ldr	r2, .L45
 845 0032 1A62     		str	r2, [r3, #32]
 846              		.loc 9 189 0
 847 0034 0598     		ldr	r0, [sp, #20]
 848 0036 0199     		ldr	r1, [sp, #4]
 849 0038 FFF7FEFF 		bl	_thread_init
 850 003c 0346     		mov	r3, r0
 851              		.loc 9 190 0
 852 003e 1846     		mov	r0, r3
 853 0040 07B0     		add	sp, sp, #28
 854              		@ sp needed
 855 0042 5DF804FB 		ldr	pc, [sp], #4
 856              	.L46:
 857 0046 00BF     		.align	2
 858              	.L45:
 859 0048 00000000 		.word	_port_thread_start
 860              		.cfi_endproc
 861              	.LFE241:
 862              		.size	chThdCreateI, .-chThdCreateI
 863 004c AFF30080 		.section	.text.chThdCreateStatic,"ax",%progbits
 864              		.align	2
 865              		.p2align 4,,15
 866              		.global	chThdCreateStatic
 867              		.thumb
 868              		.thumb_func
 869              		.type	chThdCreateStatic, %function
 870              	chThdCreateStatic:
 871              	.LFB242:
 872              		.loc 9 209 0
 873              		.cfi_startproc
 874              		@ args = 4, pretend = 0, frame = 24
 875              		@ frame_needed = 0, uses_anonymous_args = 0
 876 0000 00B5     		push	{lr}
 877              		.cfi_def_cfa_offset 4
 878              		.cfi_offset 14, -4
 879 0002 89B0     		sub	sp, sp, #36
 880              		.cfi_def_cfa_offset 40
 881 0004 0590     		str	r0, [sp, #20]
 882 0006 0491     		str	r1, [sp, #16]
 883 0008 0392     		str	r2, [sp, #12]
 884 000a 0293     		str	r3, [sp, #8]
 885              		.loc 9 221 0
ARM GAS  /tmp/cc72Hk9S.s 			page 17


 886 000c FFF7FEFF 		bl	chSysLock
 887              		.loc 9 222 0
 888 0010 0A9B     		ldr	r3, [sp, #40]
 889 0012 0093     		str	r3, [sp]
 890 0014 0598     		ldr	r0, [sp, #20]
 891 0016 0499     		ldr	r1, [sp, #16]
 892 0018 039A     		ldr	r2, [sp, #12]
 893 001a 029B     		ldr	r3, [sp, #8]
 894 001c FFF7FEFF 		bl	chThdCreateI
 895 0020 0790     		str	r0, [sp, #28]
 896              		.loc 9 223 0
 897 0022 0798     		ldr	r0, [sp, #28]
 898 0024 0021     		movs	r1, #0
 899 0026 FFF7FEFF 		bl	chSchWakeupS
 900              		.loc 9 224 0
 901 002a FFF7FEFF 		bl	chSysUnlock
 902              		.loc 9 226 0
 903 002e 079B     		ldr	r3, [sp, #28]
 904              		.loc 9 227 0
 905 0030 1846     		mov	r0, r3
 906 0032 09B0     		add	sp, sp, #36
 907              		@ sp needed
 908 0034 5DF804FB 		ldr	pc, [sp], #4
 909              		.cfi_endproc
 910              	.LFE242:
 911              		.size	chThdCreateStatic, .-chThdCreateStatic
 912 0038 AFF30080 		.section	.text.chThdStart,"ax",%progbits
 912      AFF30080 
 913              		.align	2
 914              		.p2align 4,,15
 915              		.global	chThdStart
 916              		.thumb
 917              		.thumb_func
 918              		.type	chThdStart, %function
 919              	chThdStart:
 920              	.LFB243:
 921              		.loc 9 238 0
 922              		.cfi_startproc
 923              		@ args = 0, pretend = 0, frame = 8
 924              		@ frame_needed = 0, uses_anonymous_args = 0
 925 0000 00B5     		push	{lr}
 926              		.cfi_def_cfa_offset 4
 927              		.cfi_offset 14, -4
 928 0002 83B0     		sub	sp, sp, #12
 929              		.cfi_def_cfa_offset 16
 930 0004 0190     		str	r0, [sp, #4]
 931              		.loc 9 240 0
 932 0006 FFF7FEFF 		bl	chSysLock
 933              		.loc 9 241 0
 934 000a 0198     		ldr	r0, [sp, #4]
 935 000c FFF7FEFF 		bl	chThdStartI
 936 0010 0190     		str	r0, [sp, #4]
 937              		.loc 9 242 0
 938 0012 FFF7FEFF 		bl	chSysUnlock
 939              		.loc 9 244 0
 940 0016 019B     		ldr	r3, [sp, #4]
 941              		.loc 9 245 0
ARM GAS  /tmp/cc72Hk9S.s 			page 18


 942 0018 1846     		mov	r0, r3
 943 001a 03B0     		add	sp, sp, #12
 944              		@ sp needed
 945 001c 5DF804FB 		ldr	pc, [sp], #4
 946              		.cfi_endproc
 947              	.LFE243:
 948              		.size	chThdStart, .-chThdStart
 949              		.section	.text.chThdSetPriority,"ax",%progbits
 950              		.align	2
 951              		.p2align 4,,15
 952              		.global	chThdSetPriority
 953              		.thumb
 954              		.thumb_func
 955              		.type	chThdSetPriority, %function
 956              	chThdSetPriority:
 957              	.LFB244:
 958              		.loc 9 259 0
 959              		.cfi_startproc
 960              		@ args = 0, pretend = 0, frame = 16
 961              		@ frame_needed = 0, uses_anonymous_args = 0
 962 0000 00B5     		push	{lr}
 963              		.cfi_def_cfa_offset 4
 964              		.cfi_offset 14, -4
 965 0002 85B0     		sub	sp, sp, #20
 966              		.cfi_def_cfa_offset 24
 967 0004 0190     		str	r0, [sp, #4]
 968              		.loc 9 264 0
 969 0006 FFF7FEFF 		bl	chSysLock
 970              		.loc 9 266 0
 971 000a 114B     		ldr	r3, .L55
 972 000c 9B69     		ldr	r3, [r3, #24]
 973 000e DB6B     		ldr	r3, [r3, #60]
 974 0010 0393     		str	r3, [sp, #12]
 975              		.loc 9 267 0
 976 0012 0F4B     		ldr	r3, .L55
 977 0014 9B69     		ldr	r3, [r3, #24]
 978 0016 9A68     		ldr	r2, [r3, #8]
 979 0018 0D4B     		ldr	r3, .L55
 980 001a 9B69     		ldr	r3, [r3, #24]
 981 001c DB6B     		ldr	r3, [r3, #60]
 982 001e 9A42     		cmp	r2, r3
 983 0020 05D0     		beq	.L52
 984              		.loc 9 267 0 is_stmt 0 discriminator 1
 985 0022 0B4B     		ldr	r3, .L55
 986 0024 9B69     		ldr	r3, [r3, #24]
 987 0026 9A68     		ldr	r2, [r3, #8]
 988 0028 019B     		ldr	r3, [sp, #4]
 989 002a 9A42     		cmp	r2, r3
 990 002c 03D2     		bcs	.L53
 991              	.L52:
 992              		.loc 9 268 0 is_stmt 1
 993 002e 084B     		ldr	r3, .L55
 994 0030 9B69     		ldr	r3, [r3, #24]
 995 0032 019A     		ldr	r2, [sp, #4]
 996 0034 9A60     		str	r2, [r3, #8]
 997              	.L53:
 998              		.loc 9 270 0
ARM GAS  /tmp/cc72Hk9S.s 			page 19


 999 0036 064B     		ldr	r3, .L55
 1000 0038 9B69     		ldr	r3, [r3, #24]
 1001 003a 019A     		ldr	r2, [sp, #4]
 1002 003c DA63     		str	r2, [r3, #60]
 1003              		.loc 9 275 0
 1004 003e FFF7FEFF 		bl	chSchRescheduleS
 1005              		.loc 9 276 0
 1006 0042 FFF7FEFF 		bl	chSysUnlock
 1007              		.loc 9 278 0
 1008 0046 039B     		ldr	r3, [sp, #12]
 1009              		.loc 9 279 0
 1010 0048 1846     		mov	r0, r3
 1011 004a 05B0     		add	sp, sp, #20
 1012              		@ sp needed
 1013 004c 5DF804FB 		ldr	pc, [sp], #4
 1014              	.L56:
 1015              		.align	2
 1016              	.L55:
 1017 0050 00000000 		.word	ch
 1018              		.cfi_endproc
 1019              	.LFE244:
 1020              		.size	chThdSetPriority, .-chThdSetPriority
 1021 0054 AFF30080 		.section	.text.chThdTerminate,"ax",%progbits
 1021      AFF30080 
 1021      AFF30080 
 1022              		.align	2
 1023              		.p2align 4,,15
 1024              		.global	chThdTerminate
 1025              		.thumb
 1026              		.thumb_func
 1027              		.type	chThdTerminate, %function
 1028              	chThdTerminate:
 1029              	.LFB245:
 1030              		.loc 9 293 0
 1031              		.cfi_startproc
 1032              		@ args = 0, pretend = 0, frame = 8
 1033              		@ frame_needed = 0, uses_anonymous_args = 0
 1034 0000 00B5     		push	{lr}
 1035              		.cfi_def_cfa_offset 4
 1036              		.cfi_offset 14, -4
 1037 0002 83B0     		sub	sp, sp, #12
 1038              		.cfi_def_cfa_offset 16
 1039 0004 0190     		str	r0, [sp, #4]
 1040              		.loc 9 295 0
 1041 0006 FFF7FEFF 		bl	chSysLock
 1042              		.loc 9 296 0
 1043 000a 019B     		ldr	r3, [sp, #4]
 1044 000c 5B7F     		ldrb	r3, [r3, #29]	@ zero_extendqisi2
 1045 000e 43F00403 		orr	r3, r3, #4
 1046 0012 DAB2     		uxtb	r2, r3
 1047 0014 019B     		ldr	r3, [sp, #4]
 1048 0016 5A77     		strb	r2, [r3, #29]
 1049              		.loc 9 297 0
 1050 0018 FFF7FEFF 		bl	chSysUnlock
 1051              		.loc 9 298 0
 1052 001c 03B0     		add	sp, sp, #12
 1053              		@ sp needed
ARM GAS  /tmp/cc72Hk9S.s 			page 20


 1054 001e 5DF804FB 		ldr	pc, [sp], #4
 1055              		.cfi_endproc
 1056              	.LFE245:
 1057              		.size	chThdTerminate, .-chThdTerminate
 1058 0022 00BFAFF3 		.section	.text.chThdSleep,"ax",%progbits
 1058      0080AFF3 
 1058      0080AFF3 
 1058      0080
 1059              		.align	2
 1060              		.p2align 4,,15
 1061              		.global	chThdSleep
 1062              		.thumb
 1063              		.thumb_func
 1064              		.type	chThdSleep, %function
 1065              	chThdSleep:
 1066              	.LFB246:
 1067              		.loc 9 312 0
 1068              		.cfi_startproc
 1069              		@ args = 0, pretend = 0, frame = 8
 1070              		@ frame_needed = 0, uses_anonymous_args = 0
 1071 0000 00B5     		push	{lr}
 1072              		.cfi_def_cfa_offset 4
 1073              		.cfi_offset 14, -4
 1074 0002 83B0     		sub	sp, sp, #12
 1075              		.cfi_def_cfa_offset 16
 1076 0004 0190     		str	r0, [sp, #4]
 1077              		.loc 9 314 0
 1078 0006 FFF7FEFF 		bl	chSysLock
 1079              		.loc 9 315 0
 1080 000a 0198     		ldr	r0, [sp, #4]
 1081 000c FFF7FEFF 		bl	chThdSleepS
 1082              		.loc 9 316 0
 1083 0010 FFF7FEFF 		bl	chSysUnlock
 1084              		.loc 9 317 0
 1085 0014 03B0     		add	sp, sp, #12
 1086              		@ sp needed
 1087 0016 5DF804FB 		ldr	pc, [sp], #4
 1088              		.cfi_endproc
 1089              	.LFE246:
 1090              		.size	chThdSleep, .-chThdSleep
 1091 001a 00BFAFF3 		.section	.text.chThdSleepUntil,"ax",%progbits
 1091      0080
 1092              		.align	2
 1093              		.p2align 4,,15
 1094              		.global	chThdSleepUntil
 1095              		.thumb
 1096              		.thumb_func
 1097              		.type	chThdSleepUntil, %function
 1098              	chThdSleepUntil:
 1099              	.LFB247:
 1100              		.loc 9 332 0
 1101              		.cfi_startproc
 1102              		@ args = 0, pretend = 0, frame = 8
 1103              		@ frame_needed = 0, uses_anonymous_args = 0
 1104 0000 00B5     		push	{lr}
 1105              		.cfi_def_cfa_offset 4
 1106              		.cfi_offset 14, -4
ARM GAS  /tmp/cc72Hk9S.s 			page 21


 1107 0002 83B0     		sub	sp, sp, #12
 1108              		.cfi_def_cfa_offset 16
 1109 0004 0190     		str	r0, [sp, #4]
 1110              		.loc 9 334 0
 1111 0006 FFF7FEFF 		bl	chSysLock
 1112              		.loc 9 335 0
 1113 000a FFF7FEFF 		bl	chVTGetSystemTimeX
 1114 000e 0346     		mov	r3, r0
 1115 0010 019A     		ldr	r2, [sp, #4]
 1116 0012 D31A     		subs	r3, r2, r3
 1117 0014 0193     		str	r3, [sp, #4]
 1118              		.loc 9 336 0
 1119 0016 019B     		ldr	r3, [sp, #4]
 1120 0018 002B     		cmp	r3, #0
 1121 001a 02D0     		beq	.L60
 1122              		.loc 9 337 0
 1123 001c 0198     		ldr	r0, [sp, #4]
 1124 001e FFF7FEFF 		bl	chThdSleepS
 1125              	.L60:
 1126              		.loc 9 339 0
 1127 0022 FFF7FEFF 		bl	chSysUnlock
 1128              		.loc 9 340 0
 1129 0026 03B0     		add	sp, sp, #12
 1130              		@ sp needed
 1131 0028 5DF804FB 		ldr	pc, [sp], #4
 1132              		.cfi_endproc
 1133              	.LFE247:
 1134              		.size	chThdSleepUntil, .-chThdSleepUntil
 1135 002c AFF30080 		.section	.text.chThdSleepUntilWindowed,"ax",%progbits
 1136              		.align	2
 1137              		.p2align 4,,15
 1138              		.global	chThdSleepUntilWindowed
 1139              		.thumb
 1140              		.thumb_func
 1141              		.type	chThdSleepUntilWindowed, %function
 1142              	chThdSleepUntilWindowed:
 1143              	.LFB248:
 1144              		.loc 9 356 0
 1145              		.cfi_startproc
 1146              		@ args = 0, pretend = 0, frame = 16
 1147              		@ frame_needed = 0, uses_anonymous_args = 0
 1148 0000 00B5     		push	{lr}
 1149              		.cfi_def_cfa_offset 4
 1150              		.cfi_offset 14, -4
 1151 0002 85B0     		sub	sp, sp, #20
 1152              		.cfi_def_cfa_offset 24
 1153 0004 0190     		str	r0, [sp, #4]
 1154 0006 0091     		str	r1, [sp]
 1155              		.loc 9 359 0
 1156 0008 FFF7FEFF 		bl	chSysLock
 1157              		.loc 9 360 0
 1158 000c FFF7FEFF 		bl	chVTGetSystemTimeX
 1159 0010 0390     		str	r0, [sp, #12]
 1160              		.loc 9 361 0
 1161 0012 0398     		ldr	r0, [sp, #12]
 1162 0014 0199     		ldr	r1, [sp, #4]
 1163 0016 009A     		ldr	r2, [sp]
ARM GAS  /tmp/cc72Hk9S.s 			page 22


 1164 0018 FFF7FEFF 		bl	chVTIsTimeWithinX
 1165 001c 0346     		mov	r3, r0
 1166 001e 002B     		cmp	r3, #0
 1167 0020 05D0     		beq	.L62
 1168              		.loc 9 362 0
 1169 0022 009A     		ldr	r2, [sp]
 1170 0024 039B     		ldr	r3, [sp, #12]
 1171 0026 D31A     		subs	r3, r2, r3
 1172 0028 1846     		mov	r0, r3
 1173 002a FFF7FEFF 		bl	chThdSleepS
 1174              	.L62:
 1175              		.loc 9 364 0
 1176 002e FFF7FEFF 		bl	chSysUnlock
 1177              		.loc 9 366 0
 1178 0032 009B     		ldr	r3, [sp]
 1179              		.loc 9 367 0
 1180 0034 1846     		mov	r0, r3
 1181 0036 05B0     		add	sp, sp, #20
 1182              		@ sp needed
 1183 0038 5DF804FB 		ldr	pc, [sp], #4
 1184              		.cfi_endproc
 1185              	.LFE248:
 1186              		.size	chThdSleepUntilWindowed, .-chThdSleepUntilWindowed
 1187 003c AFF30080 		.section	.text.chThdYield,"ax",%progbits
 1188              		.align	2
 1189              		.p2align 4,,15
 1190              		.global	chThdYield
 1191              		.thumb
 1192              		.thumb_func
 1193              		.type	chThdYield, %function
 1194              	chThdYield:
 1195              	.LFB249:
 1196              		.loc 9 376 0
 1197              		.cfi_startproc
 1198              		@ args = 0, pretend = 0, frame = 0
 1199              		@ frame_needed = 0, uses_anonymous_args = 0
 1200 0000 08B5     		push	{r3, lr}
 1201              		.cfi_def_cfa_offset 8
 1202              		.cfi_offset 3, -8
 1203              		.cfi_offset 14, -4
 1204              		.loc 9 378 0
 1205 0002 FFF7FEFF 		bl	chSysLock
 1206              		.loc 9 379 0
 1207 0006 FFF7FEFF 		bl	chSchDoYieldS
 1208              		.loc 9 380 0
 1209 000a FFF7FEFF 		bl	chSysUnlock
 1210              		.loc 9 381 0
 1211 000e 08BD     		pop	{r3, pc}
 1212              		.cfi_endproc
 1213              	.LFE249:
 1214              		.size	chThdYield, .-chThdYield
 1215              		.section	.text.chThdExit,"ax",%progbits
 1216              		.align	2
 1217              		.p2align 4,,15
 1218              		.global	chThdExit
 1219              		.thumb
 1220              		.thumb_func
ARM GAS  /tmp/cc72Hk9S.s 			page 23


 1221              		.type	chThdExit, %function
 1222              	chThdExit:
 1223              	.LFB250:
 1224              		.loc 9 397 0
 1225              		.cfi_startproc
 1226              		@ args = 0, pretend = 0, frame = 8
 1227              		@ frame_needed = 0, uses_anonymous_args = 0
 1228 0000 00B5     		push	{lr}
 1229              		.cfi_def_cfa_offset 4
 1230              		.cfi_offset 14, -4
 1231 0002 83B0     		sub	sp, sp, #12
 1232              		.cfi_def_cfa_offset 16
 1233 0004 0190     		str	r0, [sp, #4]
 1234              		.loc 9 399 0
 1235 0006 FFF7FEFF 		bl	chSysLock
 1236              		.loc 9 400 0
 1237 000a 0198     		ldr	r0, [sp, #4]
 1238 000c FFF7FEFF 		bl	chThdExitS
 1239              		.loc 9 402 0
 1240 0010 03B0     		add	sp, sp, #12
 1241              		@ sp needed
 1242 0012 5DF804FB 		ldr	pc, [sp], #4
 1243              		.cfi_endproc
 1244              	.LFE250:
 1245              		.size	chThdExit, .-chThdExit
 1246 0016 00BFAFF3 		.section	.text.chThdExitS,"ax",%progbits
 1246      0080AFF3 
 1246      0080
 1247              		.align	2
 1248              		.p2align 4,,15
 1249              		.global	chThdExitS
 1250              		.thumb
 1251              		.thumb_func
 1252              		.type	chThdExitS, %function
 1253              	chThdExitS:
 1254              	.LFB251:
 1255              		.loc 9 418 0
 1256              		.cfi_startproc
 1257              		@ args = 0, pretend = 0, frame = 16
 1258              		@ frame_needed = 0, uses_anonymous_args = 0
 1259 0000 00B5     		push	{lr}
 1260              		.cfi_def_cfa_offset 4
 1261              		.cfi_offset 14, -4
 1262 0002 85B0     		sub	sp, sp, #20
 1263              		.cfi_def_cfa_offset 24
 1264 0004 0190     		str	r0, [sp, #4]
 1265              		.loc 9 419 0
 1266 0006 174B     		ldr	r3, .L70
 1267 0008 9B69     		ldr	r3, [r3, #24]
 1268 000a 0393     		str	r3, [sp, #12]
 1269              		.loc 9 421 0
 1270 000c 039B     		ldr	r3, [sp, #12]
 1271 000e 019A     		ldr	r2, [sp, #4]
 1272 0010 1A62     		str	r2, [r3, #32]
 1273              		.loc 9 426 0
 1274 0012 08E0     		b	.L67
 1275              	.L68:
ARM GAS  /tmp/cc72Hk9S.s 			page 24


 1276              		.loc 9 427 0
 1277 0014 039B     		ldr	r3, [sp, #12]
 1278 0016 2433     		adds	r3, r3, #36
 1279 0018 1846     		mov	r0, r3
 1280 001a FFF7FEFF 		bl	list_remove
 1281 001e 0346     		mov	r3, r0
 1282 0020 1846     		mov	r0, r3
 1283 0022 FFF7FEFF 		bl	chSchReadyI
 1284              	.L67:
 1285              		.loc 9 426 0 discriminator 1
 1286 0026 039B     		ldr	r3, [sp, #12]
 1287 0028 2433     		adds	r3, r3, #36
 1288 002a 1846     		mov	r0, r3
 1289 002c FFF7FEFF 		bl	list_notempty
 1290 0030 0346     		mov	r3, r0
 1291 0032 002B     		cmp	r3, #0
 1292 0034 EED1     		bne	.L68
 1293              		.loc 9 433 0
 1294 0036 039B     		ldr	r3, [sp, #12]
 1295 0038 5B7F     		ldrb	r3, [r3, #29]	@ zero_extendqisi2
 1296 003a 03F00303 		and	r3, r3, #3
 1297 003e 002B     		cmp	r3, #0
 1298 0040 09D1     		bne	.L69
 1299              		.loc 9 434 0
 1300 0042 039B     		ldr	r3, [sp, #12]
 1301 0044 5B69     		ldr	r3, [r3, #20]
 1302 0046 039A     		ldr	r2, [sp, #12]
 1303 0048 1269     		ldr	r2, [r2, #16]
 1304 004a 1A61     		str	r2, [r3, #16]
 1305 004c 039B     		ldr	r3, [sp, #12]
 1306 004e 1B69     		ldr	r3, [r3, #16]
 1307 0050 039A     		ldr	r2, [sp, #12]
 1308 0052 5269     		ldr	r2, [r2, #20]
 1309 0054 5A61     		str	r2, [r3, #20]
 1310              	.L69:
 1311              		.loc 9 437 0
 1312 0056 0F20     		movs	r0, #15
 1313 0058 FFF7FEFF 		bl	chSchGoSleepS
 1314              		.loc 9 441 0
 1315 005c 05B0     		add	sp, sp, #20
 1316              		@ sp needed
 1317 005e 5DF804FB 		ldr	pc, [sp], #4
 1318              	.L71:
 1319 0062 00BF     		.align	2
 1320              	.L70:
 1321 0064 00000000 		.word	ch
 1322              		.cfi_endproc
 1323              	.LFE251:
 1324              		.size	chThdExitS, .-chThdExitS
 1325 0068 AFF30080 		.section	.text.chThdWait,"ax",%progbits
 1325      AFF30080 
 1326              		.align	2
 1327              		.p2align 4,,15
 1328              		.global	chThdWait
 1329              		.thumb
 1330              		.thumb_func
 1331              		.type	chThdWait, %function
ARM GAS  /tmp/cc72Hk9S.s 			page 25


 1332              	chThdWait:
 1333              	.LFB252:
 1334              		.loc 9 475 0
 1335              		.cfi_startproc
 1336              		@ args = 0, pretend = 0, frame = 16
 1337              		@ frame_needed = 0, uses_anonymous_args = 0
 1338 0000 00B5     		push	{lr}
 1339              		.cfi_def_cfa_offset 4
 1340              		.cfi_offset 14, -4
 1341 0002 85B0     		sub	sp, sp, #20
 1342              		.cfi_def_cfa_offset 24
 1343 0004 0190     		str	r0, [sp, #4]
 1344              		.loc 9 480 0
 1345 0006 FFF7FEFF 		bl	chSysLock
 1346              		.loc 9 485 0
 1347 000a 019B     		ldr	r3, [sp, #4]
 1348 000c 1B7F     		ldrb	r3, [r3, #28]	@ zero_extendqisi2
 1349 000e 0F2B     		cmp	r3, #15
 1350 0010 0AD0     		beq	.L73
 1351              		.loc 9 486 0
 1352 0012 0C4B     		ldr	r3, .L75
 1353 0014 9A69     		ldr	r2, [r3, #24]
 1354 0016 019B     		ldr	r3, [sp, #4]
 1355 0018 2433     		adds	r3, r3, #36
 1356 001a 1046     		mov	r0, r2
 1357 001c 1946     		mov	r1, r3
 1358 001e FFF7FEFF 		bl	list_insert
 1359              		.loc 9 487 0
 1360 0022 0920     		movs	r0, #9
 1361 0024 FFF7FEFF 		bl	chSchGoSleepS
 1362              	.L73:
 1363              		.loc 9 489 0
 1364 0028 019B     		ldr	r3, [sp, #4]
 1365 002a 1B6A     		ldr	r3, [r3, #32]
 1366 002c 0393     		str	r3, [sp, #12]
 1367              		.loc 9 490 0
 1368 002e FFF7FEFF 		bl	chSysUnlock
 1369              		.loc 9 494 0
 1370 0032 0198     		ldr	r0, [sp, #4]
 1371 0034 FFF7FEFF 		bl	chThdRelease
 1372              		.loc 9 497 0
 1373 0038 039B     		ldr	r3, [sp, #12]
 1374              		.loc 9 498 0
 1375 003a 1846     		mov	r0, r3
 1376 003c 05B0     		add	sp, sp, #20
 1377              		@ sp needed
 1378 003e 5DF804FB 		ldr	pc, [sp], #4
 1379              	.L76:
 1380 0042 00BF     		.align	2
 1381              	.L75:
 1382 0044 00000000 		.word	ch
 1383              		.cfi_endproc
 1384              	.LFE252:
 1385              		.size	chThdWait, .-chThdWait
 1386 0048 AFF30080 		.section	.text.chThdSuspendS,"ax",%progbits
 1386      AFF30080 
 1387              		.align	2
ARM GAS  /tmp/cc72Hk9S.s 			page 26


 1388              		.p2align 4,,15
 1389              		.global	chThdSuspendS
 1390              		.thumb
 1391              		.thumb_func
 1392              		.type	chThdSuspendS, %function
 1393              	chThdSuspendS:
 1394              	.LFB253:
 1395              		.loc 9 511 0
 1396              		.cfi_startproc
 1397              		@ args = 0, pretend = 0, frame = 16
 1398              		@ frame_needed = 0, uses_anonymous_args = 0
 1399 0000 00B5     		push	{lr}
 1400              		.cfi_def_cfa_offset 4
 1401              		.cfi_offset 14, -4
 1402 0002 85B0     		sub	sp, sp, #20
 1403              		.cfi_def_cfa_offset 24
 1404 0004 0190     		str	r0, [sp, #4]
 1405              		.loc 9 512 0
 1406 0006 FFF7FEFF 		bl	chThdGetSelfX
 1407 000a 0390     		str	r0, [sp, #12]
 1408              		.loc 9 516 0
 1409 000c 019B     		ldr	r3, [sp, #4]
 1410 000e 039A     		ldr	r2, [sp, #12]
 1411 0010 1A60     		str	r2, [r3]
 1412              		.loc 9 517 0
 1413 0012 039B     		ldr	r3, [sp, #12]
 1414 0014 019A     		ldr	r2, [sp, #4]
 1415 0016 1A62     		str	r2, [r3, #32]
 1416              		.loc 9 518 0
 1417 0018 0320     		movs	r0, #3
 1418 001a FFF7FEFF 		bl	chSchGoSleepS
 1419              		.loc 9 520 0
 1420 001e FFF7FEFF 		bl	chThdGetSelfX
 1421 0022 0346     		mov	r3, r0
 1422 0024 1B6A     		ldr	r3, [r3, #32]
 1423              		.loc 9 521 0
 1424 0026 1846     		mov	r0, r3
 1425 0028 05B0     		add	sp, sp, #20
 1426              		@ sp needed
 1427 002a 5DF804FB 		ldr	pc, [sp], #4
 1428              		.cfi_endproc
 1429              	.LFE253:
 1430              		.size	chThdSuspendS, .-chThdSuspendS
 1431 002e 00BF     		.section	.text.chThdSuspendTimeoutS,"ax",%progbits
 1432              		.align	2
 1433              		.p2align 4,,15
 1434              		.global	chThdSuspendTimeoutS
 1435              		.thumb
 1436              		.thumb_func
 1437              		.type	chThdSuspendTimeoutS, %function
 1438              	chThdSuspendTimeoutS:
 1439              	.LFB254:
 1440              		.loc 9 542 0
 1441              		.cfi_startproc
 1442              		@ args = 0, pretend = 0, frame = 16
 1443              		@ frame_needed = 0, uses_anonymous_args = 0
 1444 0000 00B5     		push	{lr}
ARM GAS  /tmp/cc72Hk9S.s 			page 27


 1445              		.cfi_def_cfa_offset 4
 1446              		.cfi_offset 14, -4
 1447 0002 85B0     		sub	sp, sp, #20
 1448              		.cfi_def_cfa_offset 24
 1449 0004 0190     		str	r0, [sp, #4]
 1450 0006 0091     		str	r1, [sp]
 1451              		.loc 9 543 0
 1452 0008 FFF7FEFF 		bl	chThdGetSelfX
 1453 000c 0390     		str	r0, [sp, #12]
 1454              		.loc 9 547 0
 1455 000e 009B     		ldr	r3, [sp]
 1456 0010 002B     		cmp	r3, #0
 1457 0012 02D1     		bne	.L80
 1458              		.loc 9 548 0
 1459 0014 4FF0FF33 		mov	r3, #-1
 1460 0018 0AE0     		b	.L81
 1461              	.L80:
 1462              		.loc 9 551 0
 1463 001a 019B     		ldr	r3, [sp, #4]
 1464 001c 039A     		ldr	r2, [sp, #12]
 1465 001e 1A60     		str	r2, [r3]
 1466              		.loc 9 552 0
 1467 0020 039B     		ldr	r3, [sp, #12]
 1468 0022 019A     		ldr	r2, [sp, #4]
 1469 0024 1A62     		str	r2, [r3, #32]
 1470              		.loc 9 554 0
 1471 0026 0320     		movs	r0, #3
 1472 0028 0099     		ldr	r1, [sp]
 1473 002a FFF7FEFF 		bl	chSchGoSleepTimeoutS
 1474 002e 0346     		mov	r3, r0
 1475              	.L81:
 1476              		.loc 9 555 0
 1477 0030 1846     		mov	r0, r3
 1478 0032 05B0     		add	sp, sp, #20
 1479              		@ sp needed
 1480 0034 5DF804FB 		ldr	pc, [sp], #4
 1481              		.cfi_endproc
 1482              	.LFE254:
 1483              		.size	chThdSuspendTimeoutS, .-chThdSuspendTimeoutS
 1484 0038 AFF30080 		.section	.text.chThdResumeI,"ax",%progbits
 1484      AFF30080 
 1485              		.align	2
 1486              		.p2align 4,,15
 1487              		.global	chThdResumeI
 1488              		.thumb
 1489              		.thumb_func
 1490              		.type	chThdResumeI, %function
 1491              	chThdResumeI:
 1492              	.LFB255:
 1493              		.loc 9 567 0
 1494              		.cfi_startproc
 1495              		@ args = 0, pretend = 0, frame = 16
 1496              		@ frame_needed = 0, uses_anonymous_args = 0
 1497 0000 00B5     		push	{lr}
 1498              		.cfi_def_cfa_offset 4
 1499              		.cfi_offset 14, -4
 1500 0002 85B0     		sub	sp, sp, #20
ARM GAS  /tmp/cc72Hk9S.s 			page 28


 1501              		.cfi_def_cfa_offset 24
 1502 0004 0190     		str	r0, [sp, #4]
 1503 0006 0091     		str	r1, [sp]
 1504              		.loc 9 569 0
 1505 0008 019B     		ldr	r3, [sp, #4]
 1506 000a 1B68     		ldr	r3, [r3]
 1507 000c 002B     		cmp	r3, #0
 1508 000e 0BD0     		beq	.L82
 1509              	.LBB10:
 1510              		.loc 9 570 0
 1511 0010 019B     		ldr	r3, [sp, #4]
 1512 0012 1B68     		ldr	r3, [r3]
 1513 0014 0393     		str	r3, [sp, #12]
 1514              		.loc 9 575 0
 1515 0016 019B     		ldr	r3, [sp, #4]
 1516 0018 0022     		movs	r2, #0
 1517 001a 1A60     		str	r2, [r3]
 1518              		.loc 9 576 0
 1519 001c 039B     		ldr	r3, [sp, #12]
 1520 001e 009A     		ldr	r2, [sp]
 1521 0020 1A62     		str	r2, [r3, #32]
 1522              		.loc 9 577 0
 1523 0022 0398     		ldr	r0, [sp, #12]
 1524 0024 FFF7FEFF 		bl	chSchReadyI
 1525              	.L82:
 1526              	.LBE10:
 1527              		.loc 9 579 0
 1528 0028 05B0     		add	sp, sp, #20
 1529              		@ sp needed
 1530 002a 5DF804FB 		ldr	pc, [sp], #4
 1531              		.cfi_endproc
 1532              	.LFE255:
 1533              		.size	chThdResumeI, .-chThdResumeI
 1534 002e 00BF     		.section	.text.chThdResumeS,"ax",%progbits
 1535              		.align	2
 1536              		.p2align 4,,15
 1537              		.global	chThdResumeS
 1538              		.thumb
 1539              		.thumb_func
 1540              		.type	chThdResumeS, %function
 1541              	chThdResumeS:
 1542              	.LFB256:
 1543              		.loc 9 591 0
 1544              		.cfi_startproc
 1545              		@ args = 0, pretend = 0, frame = 16
 1546              		@ frame_needed = 0, uses_anonymous_args = 0
 1547 0000 00B5     		push	{lr}
 1548              		.cfi_def_cfa_offset 4
 1549              		.cfi_offset 14, -4
 1550 0002 85B0     		sub	sp, sp, #20
 1551              		.cfi_def_cfa_offset 24
 1552 0004 0190     		str	r0, [sp, #4]
 1553 0006 0091     		str	r1, [sp]
 1554              		.loc 9 593 0
 1555 0008 019B     		ldr	r3, [sp, #4]
 1556 000a 1B68     		ldr	r3, [r3]
 1557 000c 002B     		cmp	r3, #0
ARM GAS  /tmp/cc72Hk9S.s 			page 29


 1558 000e 09D0     		beq	.L84
 1559              	.LBB11:
 1560              		.loc 9 594 0
 1561 0010 019B     		ldr	r3, [sp, #4]
 1562 0012 1B68     		ldr	r3, [r3]
 1563 0014 0393     		str	r3, [sp, #12]
 1564              		.loc 9 599 0
 1565 0016 019B     		ldr	r3, [sp, #4]
 1566 0018 0022     		movs	r2, #0
 1567 001a 1A60     		str	r2, [r3]
 1568              		.loc 9 600 0
 1569 001c 0398     		ldr	r0, [sp, #12]
 1570 001e 0099     		ldr	r1, [sp]
 1571 0020 FFF7FEFF 		bl	chSchWakeupS
 1572              	.L84:
 1573              	.LBE11:
 1574              		.loc 9 602 0
 1575 0024 05B0     		add	sp, sp, #20
 1576              		@ sp needed
 1577 0026 5DF804FB 		ldr	pc, [sp], #4
 1578              		.cfi_endproc
 1579              	.LFE256:
 1580              		.size	chThdResumeS, .-chThdResumeS
 1581 002a 00BFAFF3 		.section	.text.chThdResume,"ax",%progbits
 1581      0080
 1582              		.align	2
 1583              		.p2align 4,,15
 1584              		.global	chThdResume
 1585              		.thumb
 1586              		.thumb_func
 1587              		.type	chThdResume, %function
 1588              	chThdResume:
 1589              	.LFB257:
 1590              		.loc 9 614 0
 1591              		.cfi_startproc
 1592              		@ args = 0, pretend = 0, frame = 8
 1593              		@ frame_needed = 0, uses_anonymous_args = 0
 1594 0000 00B5     		push	{lr}
 1595              		.cfi_def_cfa_offset 4
 1596              		.cfi_offset 14, -4
 1597 0002 83B0     		sub	sp, sp, #12
 1598              		.cfi_def_cfa_offset 16
 1599 0004 0190     		str	r0, [sp, #4]
 1600 0006 0091     		str	r1, [sp]
 1601              		.loc 9 616 0
 1602 0008 FFF7FEFF 		bl	chSysLock
 1603              		.loc 9 617 0
 1604 000c 0198     		ldr	r0, [sp, #4]
 1605 000e 0099     		ldr	r1, [sp]
 1606 0010 FFF7FEFF 		bl	chThdResumeS
 1607              		.loc 9 618 0
 1608 0014 FFF7FEFF 		bl	chSysUnlock
 1609              		.loc 9 619 0
 1610 0018 03B0     		add	sp, sp, #12
 1611              		@ sp needed
 1612 001a 5DF804FB 		ldr	pc, [sp], #4
 1613              		.cfi_endproc
ARM GAS  /tmp/cc72Hk9S.s 			page 30


 1614              	.LFE257:
 1615              		.size	chThdResume, .-chThdResume
 1616 001e 00BF     		.section	.text.chThdEnqueueTimeoutS,"ax",%progbits
 1617              		.align	2
 1618              		.p2align 4,,15
 1619              		.global	chThdEnqueueTimeoutS
 1620              		.thumb
 1621              		.thumb_func
 1622              		.type	chThdEnqueueTimeoutS, %function
 1623              	chThdEnqueueTimeoutS:
 1624              	.LFB258:
 1625              		.loc 9 644 0
 1626              		.cfi_startproc
 1627              		@ args = 0, pretend = 0, frame = 8
 1628              		@ frame_needed = 0, uses_anonymous_args = 0
 1629 0000 00B5     		push	{lr}
 1630              		.cfi_def_cfa_offset 4
 1631              		.cfi_offset 14, -4
 1632 0002 83B0     		sub	sp, sp, #12
 1633              		.cfi_def_cfa_offset 16
 1634 0004 0190     		str	r0, [sp, #4]
 1635 0006 0091     		str	r1, [sp]
 1636              		.loc 9 646 0
 1637 0008 009B     		ldr	r3, [sp]
 1638 000a 002B     		cmp	r3, #0
 1639 000c 02D1     		bne	.L88
 1640              		.loc 9 647 0
 1641 000e 4FF0FF33 		mov	r3, #-1
 1642 0012 0AE0     		b	.L89
 1643              	.L88:
 1644              		.loc 9 650 0
 1645 0014 074B     		ldr	r3, .L90
 1646 0016 9B69     		ldr	r3, [r3, #24]
 1647 0018 1846     		mov	r0, r3
 1648 001a 0199     		ldr	r1, [sp, #4]
 1649 001c FFF7FEFF 		bl	queue_insert
 1650              		.loc 9 652 0
 1651 0020 0420     		movs	r0, #4
 1652 0022 0099     		ldr	r1, [sp]
 1653 0024 FFF7FEFF 		bl	chSchGoSleepTimeoutS
 1654 0028 0346     		mov	r3, r0
 1655              	.L89:
 1656              		.loc 9 653 0
 1657 002a 1846     		mov	r0, r3
 1658 002c 03B0     		add	sp, sp, #12
 1659              		@ sp needed
 1660 002e 5DF804FB 		ldr	pc, [sp], #4
 1661              	.L91:
 1662 0032 00BF     		.align	2
 1663              	.L90:
 1664 0034 00000000 		.word	ch
 1665              		.cfi_endproc
 1666              	.LFE258:
 1667              		.size	chThdEnqueueTimeoutS, .-chThdEnqueueTimeoutS
 1668 0038 AFF30080 		.section	.text.chThdDequeueNextI,"ax",%progbits
 1668      AFF30080 
 1669              		.align	2
ARM GAS  /tmp/cc72Hk9S.s 			page 31


 1670              		.p2align 4,,15
 1671              		.global	chThdDequeueNextI
 1672              		.thumb
 1673              		.thumb_func
 1674              		.type	chThdDequeueNextI, %function
 1675              	chThdDequeueNextI:
 1676              	.LFB259:
 1677              		.loc 9 664 0
 1678              		.cfi_startproc
 1679              		@ args = 0, pretend = 0, frame = 8
 1680              		@ frame_needed = 0, uses_anonymous_args = 0
 1681 0000 00B5     		push	{lr}
 1682              		.cfi_def_cfa_offset 4
 1683              		.cfi_offset 14, -4
 1684 0002 83B0     		sub	sp, sp, #12
 1685              		.cfi_def_cfa_offset 16
 1686 0004 0190     		str	r0, [sp, #4]
 1687 0006 0091     		str	r1, [sp]
 1688              		.loc 9 666 0
 1689 0008 0198     		ldr	r0, [sp, #4]
 1690 000a FFF7FEFF 		bl	queue_notempty
 1691 000e 0346     		mov	r3, r0
 1692 0010 002B     		cmp	r3, #0
 1693 0012 03D0     		beq	.L92
 1694              		.loc 9 667 0
 1695 0014 0198     		ldr	r0, [sp, #4]
 1696 0016 0099     		ldr	r1, [sp]
 1697 0018 FFF7FEFF 		bl	chThdDoDequeueNextI
 1698              	.L92:
 1699              		.loc 9 669 0
 1700 001c 03B0     		add	sp, sp, #12
 1701              		@ sp needed
 1702 001e 5DF804FB 		ldr	pc, [sp], #4
 1703              		.cfi_endproc
 1704              	.LFE259:
 1705              		.size	chThdDequeueNextI, .-chThdDequeueNextI
 1706 0022 00BFAFF3 		.section	.text.chThdDequeueAllI,"ax",%progbits
 1706      0080AFF3 
 1706      0080AFF3 
 1706      0080
 1707              		.align	2
 1708              		.p2align 4,,15
 1709              		.global	chThdDequeueAllI
 1710              		.thumb
 1711              		.thumb_func
 1712              		.type	chThdDequeueAllI, %function
 1713              	chThdDequeueAllI:
 1714              	.LFB260:
 1715              		.loc 9 679 0
 1716              		.cfi_startproc
 1717              		@ args = 0, pretend = 0, frame = 8
 1718              		@ frame_needed = 0, uses_anonymous_args = 0
 1719 0000 00B5     		push	{lr}
 1720              		.cfi_def_cfa_offset 4
 1721              		.cfi_offset 14, -4
 1722 0002 83B0     		sub	sp, sp, #12
 1723              		.cfi_def_cfa_offset 16
ARM GAS  /tmp/cc72Hk9S.s 			page 32


 1724 0004 0190     		str	r0, [sp, #4]
 1725 0006 0091     		str	r1, [sp]
 1726              		.loc 9 681 0
 1727 0008 03E0     		b	.L95
 1728              	.L96:
 1729              		.loc 9 682 0
 1730 000a 0198     		ldr	r0, [sp, #4]
 1731 000c 0099     		ldr	r1, [sp]
 1732 000e FFF7FEFF 		bl	chThdDoDequeueNextI
 1733              	.L95:
 1734              		.loc 9 681 0 discriminator 1
 1735 0012 0198     		ldr	r0, [sp, #4]
 1736 0014 FFF7FEFF 		bl	queue_notempty
 1737 0018 0346     		mov	r3, r0
 1738 001a 002B     		cmp	r3, #0
 1739 001c F5D1     		bne	.L96
 1740              		.loc 9 684 0
 1741 001e 03B0     		add	sp, sp, #12
 1742              		@ sp needed
 1743 0020 5DF804FB 		ldr	pc, [sp], #4
 1744              		.cfi_endproc
 1745              	.LFE260:
 1746              		.size	chThdDequeueAllI, .-chThdDequeueAllI
 1747 0024 AFF30080 		.text
 1747      AFF30080 
 1747      AFF30080 
 1748              	.Letext0:
 1749              		.file 10 "/usr/lib/gcc/arm-none-eabi/4.8/include/stddef.h"
 1750              		.file 11 "/usr/include/newlib/machine/_default_types.h"
 1751              		.file 12 "/usr/include/newlib/stdint.h"
 1752              		.file 13 "/home/efe/ChibiOS/os/rt/ports/ARMCMx/compilers/GCC/chtypes.h"
 1753              		.file 14 "/home/efe/ChibiOS/os/rt/include/chsystypes.h"
 1754              		.file 15 "/home/efe/ChibiOS/os/rt/ports/ARMCMx/chcore.h"
 1755              		.file 16 "/home/efe/ChibiOS/os/hal/ports/STM32/LLD/TIMv1/stm32_tim.h"
 1756              		.file 17 "/home/efe/ChibiOS/os/rt/include/chtm.h"
 1757              		.file 18 "/home/efe/ChibiOS/os/rt/include/chsem.h"
 1758              		.file 19 "/home/efe/ChibiOS/os/rt/include/chmtx.h"
 1759              		.file 20 "/home/efe/ChibiOS/os/ext/CMSIS/include/core_cm4.h"
 1760              		.section	.debug_info,"",%progbits
 1761              	.Ldebug_info0:
 1762 0000 F8100000 		.4byte	0x10f8
 1763 0004 0400     		.2byte	0x4
 1764 0006 00000000 		.4byte	.Ldebug_abbrev0
 1765 000a 04       		.byte	0x4
 1766 000b 01       		.uleb128 0x1
 1767 000c C9010000 		.4byte	.LASF167
 1768 0010 01       		.byte	0x1
 1769 0011 71070000 		.4byte	.LASF168
 1770 0015 00000000 		.4byte	.Ldebug_ranges0+0
 1771 0019 00000000 		.4byte	0
 1772 001d 00000000 		.4byte	.Ldebug_line0
 1773 0021 02       		.uleb128 0x2
 1774 0022 04       		.byte	0x4
 1775 0023 05       		.byte	0x5
 1776 0024 696E7400 		.ascii	"int\000"
 1777 0028 03       		.uleb128 0x3
 1778 0029 22000000 		.4byte	.LASF2
ARM GAS  /tmp/cc72Hk9S.s 			page 33


 1779 002d 0A       		.byte	0xa
 1780 002e D4       		.byte	0xd4
 1781 002f 33000000 		.4byte	0x33
 1782 0033 04       		.uleb128 0x4
 1783 0034 04       		.byte	0x4
 1784 0035 07       		.byte	0x7
 1785 0036 13030000 		.4byte	.LASF0
 1786 003a 04       		.uleb128 0x4
 1787 003b 01       		.byte	0x1
 1788 003c 06       		.byte	0x6
 1789 003d 38010000 		.4byte	.LASF1
 1790 0041 03       		.uleb128 0x3
 1791 0042 4F000000 		.4byte	.LASF3
 1792 0046 0B       		.byte	0xb
 1793 0047 1D       		.byte	0x1d
 1794 0048 4C000000 		.4byte	0x4c
 1795 004c 04       		.uleb128 0x4
 1796 004d 01       		.byte	0x1
 1797 004e 08       		.byte	0x8
 1798 004f 35050000 		.4byte	.LASF4
 1799 0053 04       		.uleb128 0x4
 1800 0054 02       		.byte	0x2
 1801 0055 05       		.byte	0x5
 1802 0056 4D050000 		.4byte	.LASF5
 1803 005a 04       		.uleb128 0x4
 1804 005b 02       		.byte	0x2
 1805 005c 07       		.byte	0x7
 1806 005d 89020000 		.4byte	.LASF6
 1807 0061 03       		.uleb128 0x3
 1808 0062 DD030000 		.4byte	.LASF7
 1809 0066 0B       		.byte	0xb
 1810 0067 3F       		.byte	0x3f
 1811 0068 6C000000 		.4byte	0x6c
 1812 006c 04       		.uleb128 0x4
 1813 006d 04       		.byte	0x4
 1814 006e 05       		.byte	0x5
 1815 006f 95010000 		.4byte	.LASF8
 1816 0073 03       		.uleb128 0x3
 1817 0074 DE060000 		.4byte	.LASF9
 1818 0078 0B       		.byte	0xb
 1819 0079 41       		.byte	0x41
 1820 007a 7E000000 		.4byte	0x7e
 1821 007e 04       		.uleb128 0x4
 1822 007f 04       		.byte	0x4
 1823 0080 07       		.byte	0x7
 1824 0081 30060000 		.4byte	.LASF10
 1825 0085 04       		.uleb128 0x4
 1826 0086 08       		.byte	0x8
 1827 0087 05       		.byte	0x5
 1828 0088 BB010000 		.4byte	.LASF11
 1829 008c 03       		.uleb128 0x3
 1830 008d DE040000 		.4byte	.LASF12
 1831 0091 0B       		.byte	0xb
 1832 0092 5B       		.byte	0x5b
 1833 0093 97000000 		.4byte	0x97
 1834 0097 04       		.uleb128 0x4
 1835 0098 08       		.byte	0x8
ARM GAS  /tmp/cc72Hk9S.s 			page 34


 1836 0099 07       		.byte	0x7
 1837 009a B1000000 		.4byte	.LASF13
 1838 009e 03       		.uleb128 0x3
 1839 009f 36070000 		.4byte	.LASF14
 1840 00a3 0C       		.byte	0xc
 1841 00a4 2A       		.byte	0x2a
 1842 00a5 41000000 		.4byte	0x41
 1843 00a9 03       		.uleb128 0x3
 1844 00aa 2D050000 		.4byte	.LASF15
 1845 00ae 0C       		.byte	0xc
 1846 00af 41       		.byte	0x41
 1847 00b0 61000000 		.4byte	0x61
 1848 00b4 03       		.uleb128 0x3
 1849 00b5 FC050000 		.4byte	.LASF16
 1850 00b9 0C       		.byte	0xc
 1851 00ba 42       		.byte	0x42
 1852 00bb 73000000 		.4byte	0x73
 1853 00bf 03       		.uleb128 0x3
 1854 00c0 35000000 		.4byte	.LASF17
 1855 00c4 0C       		.byte	0xc
 1856 00c5 4E       		.byte	0x4e
 1857 00c6 8C000000 		.4byte	0x8c
 1858 00ca 05       		.uleb128 0x5
 1859 00cb A9000000 		.4byte	0xa9
 1860 00cf 05       		.uleb128 0x5
 1861 00d0 B4000000 		.4byte	0xb4
 1862 00d4 03       		.uleb128 0x3
 1863 00d5 E9060000 		.4byte	.LASF18
 1864 00d9 0D       		.byte	0xd
 1865 00da 45       		.byte	0x45
 1866 00db B4000000 		.4byte	0xb4
 1867 00df 03       		.uleb128 0x3
 1868 00e0 99070000 		.4byte	.LASF19
 1869 00e4 0D       		.byte	0xd
 1870 00e5 48       		.byte	0x48
 1871 00e6 9E000000 		.4byte	0x9e
 1872 00ea 03       		.uleb128 0x3
 1873 00eb 9E010000 		.4byte	.LASF20
 1874 00ef 0D       		.byte	0xd
 1875 00f0 49       		.byte	0x49
 1876 00f1 9E000000 		.4byte	0x9e
 1877 00f5 03       		.uleb128 0x3
 1878 00f6 E9040000 		.4byte	.LASF21
 1879 00fa 0D       		.byte	0xd
 1880 00fb 4A       		.byte	0x4a
 1881 00fc 9E000000 		.4byte	0x9e
 1882 0100 03       		.uleb128 0x3
 1883 0101 08050000 		.4byte	.LASF22
 1884 0105 0D       		.byte	0xd
 1885 0106 4C       		.byte	0x4c
 1886 0107 B4000000 		.4byte	0xb4
 1887 010b 03       		.uleb128 0x3
 1888 010c 79030000 		.4byte	.LASF23
 1889 0110 0D       		.byte	0xd
 1890 0111 4D       		.byte	0x4d
 1891 0112 A9000000 		.4byte	0xa9
 1892 0116 03       		.uleb128 0x3
ARM GAS  /tmp/cc72Hk9S.s 			page 35


 1893 0117 D1030000 		.4byte	.LASF24
 1894 011b 0D       		.byte	0xd
 1895 011c 4F       		.byte	0x4f
 1896 011d B4000000 		.4byte	0xb4
 1897 0121 03       		.uleb128 0x3
 1898 0122 FA020000 		.4byte	.LASF25
 1899 0126 0D       		.byte	0xd
 1900 0127 51       		.byte	0x51
 1901 0128 A9000000 		.4byte	0xa9
 1902 012c 03       		.uleb128 0x3
 1903 012d 85060000 		.4byte	.LASF26
 1904 0131 0E       		.byte	0xe
 1905 0132 33       		.byte	0x33
 1906 0133 B4000000 		.4byte	0xb4
 1907 0137 03       		.uleb128 0x3
 1908 0138 56060000 		.4byte	.LASF27
 1909 013c 0E       		.byte	0xe
 1910 013d 3F       		.byte	0x3f
 1911 013e 42010000 		.4byte	0x142
 1912 0142 06       		.uleb128 0x6
 1913 0143 6F030000 		.4byte	.LASF47
 1914 0147 44       		.byte	0x44
 1915 0148 05       		.byte	0x5
 1916 0149 C2       		.byte	0xc2
 1917 014a 2F020000 		.4byte	0x22f
 1918 014e 07       		.uleb128 0x7
 1919 014f 6D050000 		.4byte	.LASF28
 1920 0153 05       		.byte	0x5
 1921 0154 C3       		.byte	0xc3
 1922 0155 3A020000 		.4byte	0x23a
 1923 0159 00       		.byte	0
 1924 015a 07       		.uleb128 0x7
 1925 015b 01050000 		.4byte	.LASF29
 1926 015f 05       		.byte	0x5
 1927 0160 C5       		.byte	0xc5
 1928 0161 3A020000 		.4byte	0x23a
 1929 0165 04       		.byte	0x4
 1930 0166 07       		.uleb128 0x7
 1931 0167 1F010000 		.4byte	.LASF30
 1932 016b 05       		.byte	0x5
 1933 016c C7       		.byte	0xc7
 1934 016d 00010000 		.4byte	0x100
 1935 0171 08       		.byte	0x8
 1936 0172 07       		.uleb128 0x7
 1937 0173 CD070000 		.4byte	.LASF31
 1938 0177 05       		.byte	0x5
 1939 0178 C8       		.byte	0xc8
 1940 0179 8A040000 		.4byte	0x48a
 1941 017d 0C       		.byte	0xc
 1942 017e 07       		.uleb128 0x7
 1943 017f 79020000 		.4byte	.LASF32
 1944 0183 05       		.byte	0x5
 1945 0184 CA       		.byte	0xca
 1946 0185 3A020000 		.4byte	0x23a
 1947 0189 10       		.byte	0x10
 1948 018a 07       		.uleb128 0x7
 1949 018b 71040000 		.4byte	.LASF33
ARM GAS  /tmp/cc72Hk9S.s 			page 36


 1950 018f 05       		.byte	0x5
 1951 0190 CB       		.byte	0xcb
 1952 0191 3A020000 		.4byte	0x23a
 1953 0195 14       		.byte	0x14
 1954 0196 07       		.uleb128 0x7
 1955 0197 10050000 		.4byte	.LASF34
 1956 019b 05       		.byte	0x5
 1957 019c D2       		.byte	0xd2
 1958 019d 2B070000 		.4byte	0x72b
 1959 01a1 18       		.byte	0x18
 1960 01a2 07       		.uleb128 0x7
 1961 01a3 57050000 		.4byte	.LASF35
 1962 01a7 05       		.byte	0x5
 1963 01a8 DD       		.byte	0xdd
 1964 01a9 EA000000 		.4byte	0xea
 1965 01ad 1C       		.byte	0x1c
 1966 01ae 07       		.uleb128 0x7
 1967 01af 86050000 		.4byte	.LASF36
 1968 01b3 05       		.byte	0x5
 1969 01b4 E1       		.byte	0xe1
 1970 01b5 DF000000 		.4byte	0xdf
 1971 01b9 1D       		.byte	0x1d
 1972 01ba 07       		.uleb128 0x7
 1973 01bb 1B070000 		.4byte	.LASF37
 1974 01bf 05       		.byte	0x5
 1975 01c0 E6       		.byte	0xe6
 1976 01c1 F5000000 		.4byte	0xf5
 1977 01c5 1E       		.byte	0x1e
 1978 01c6 08       		.uleb128 0x8
 1979 01c7 705F7500 		.ascii	"p_u\000"
 1980 01cb 05       		.byte	0x5
 1981 01cc 3101     		.2byte	0x131
 1982 01ce 66060000 		.4byte	0x666
 1983 01d2 20       		.byte	0x20
 1984 01d3 09       		.uleb128 0x9
 1985 01d4 28040000 		.4byte	.LASF38
 1986 01d8 05       		.byte	0x5
 1987 01d9 3601     		.2byte	0x136
 1988 01db 40020000 		.4byte	0x240
 1989 01df 24       		.byte	0x24
 1990 01e0 09       		.uleb128 0x9
 1991 01e1 45030000 		.4byte	.LASF39
 1992 01e5 05       		.byte	0x5
 1993 01e6 3C01     		.2byte	0x13c
 1994 01e8 64020000 		.4byte	0x264
 1995 01ec 28       		.byte	0x28
 1996 01ed 09       		.uleb128 0x9
 1997 01ee AD070000 		.4byte	.LASF40
 1998 01f2 05       		.byte	0x5
 1999 01f3 4001     		.2byte	0x140
 2000 01f5 0B010000 		.4byte	0x10b
 2001 01f9 30       		.byte	0x30
 2002 01fa 09       		.uleb128 0x9
 2003 01fb D3050000 		.4byte	.LASF41
 2004 01ff 05       		.byte	0x5
 2005 0200 4601     		.2byte	0x146
 2006 0202 16010000 		.4byte	0x116
ARM GAS  /tmp/cc72Hk9S.s 			page 37


 2007 0206 34       		.byte	0x34
 2008 0207 09       		.uleb128 0x9
 2009 0208 43050000 		.4byte	.LASF42
 2010 020c 05       		.byte	0x5
 2011 020d 4D01     		.2byte	0x14d
 2012 020f 25070000 		.4byte	0x725
 2013 0213 38       		.byte	0x38
 2014 0214 09       		.uleb128 0x9
 2015 0215 8F060000 		.4byte	.LASF43
 2016 0219 05       		.byte	0x5
 2017 021a 5101     		.2byte	0x151
 2018 021c 00010000 		.4byte	0x100
 2019 0220 3C       		.byte	0x3c
 2020 0221 09       		.uleb128 0x9
 2021 0222 B5020000 		.4byte	.LASF44
 2022 0226 05       		.byte	0x5
 2023 0227 5801     		.2byte	0x158
 2024 0229 17030000 		.4byte	0x317
 2025 022d 40       		.byte	0x40
 2026 022e 00       		.byte	0
 2027 022f 03       		.uleb128 0x3
 2028 0230 3B040000 		.4byte	.LASF45
 2029 0234 0E       		.byte	0xe
 2030 0235 44       		.byte	0x44
 2031 0236 3A020000 		.4byte	0x23a
 2032 023a 0A       		.uleb128 0xa
 2033 023b 04       		.byte	0x4
 2034 023c 37010000 		.4byte	0x137
 2035 0240 03       		.uleb128 0x3
 2036 0241 04040000 		.4byte	.LASF46
 2037 0245 0E       		.byte	0xe
 2038 0246 49       		.byte	0x49
 2039 0247 4B020000 		.4byte	0x24b
 2040 024b 06       		.uleb128 0x6
 2041 024c 20060000 		.4byte	.LASF48
 2042 0250 04       		.byte	0x4
 2043 0251 05       		.byte	0x5
 2044 0252 B0       		.byte	0xb0
 2045 0253 64020000 		.4byte	0x264
 2046 0257 07       		.uleb128 0x7
 2047 0258 6D050000 		.4byte	.LASF28
 2048 025c 05       		.byte	0x5
 2049 025d B1       		.byte	0xb1
 2050 025e 3A020000 		.4byte	0x23a
 2051 0262 00       		.byte	0
 2052 0263 00       		.byte	0
 2053 0264 03       		.uleb128 0x3
 2054 0265 02070000 		.4byte	.LASF49
 2055 0269 0E       		.byte	0xe
 2056 026a 50       		.byte	0x50
 2057 026b 6F020000 		.4byte	0x26f
 2058 026f 06       		.uleb128 0x6
 2059 0270 04010000 		.4byte	.LASF50
 2060 0274 08       		.byte	0x8
 2061 0275 05       		.byte	0x5
 2062 0276 B7       		.byte	0xb7
 2063 0277 94020000 		.4byte	0x294
ARM GAS  /tmp/cc72Hk9S.s 			page 38


 2064 027b 07       		.uleb128 0x7
 2065 027c 6D050000 		.4byte	.LASF28
 2066 0280 05       		.byte	0x5
 2067 0281 B8       		.byte	0xb8
 2068 0282 3A020000 		.4byte	0x23a
 2069 0286 00       		.byte	0
 2070 0287 07       		.uleb128 0x7
 2071 0288 01050000 		.4byte	.LASF29
 2072 028c 05       		.byte	0x5
 2073 028d B9       		.byte	0xb9
 2074 028e 3A020000 		.4byte	0x23a
 2075 0292 04       		.byte	0x4
 2076 0293 00       		.byte	0
 2077 0294 03       		.uleb128 0x3
 2078 0295 10000000 		.4byte	.LASF51
 2079 0299 0E       		.byte	0xe
 2080 029a 57       		.byte	0x57
 2081 029b 9F020000 		.4byte	0x29f
 2082 029f 0B       		.uleb128 0xb
 2083 02a0 C3030000 		.4byte	.LASF52
 2084 02a4 1C       		.byte	0x1c
 2085 02a5 05       		.byte	0x5
 2086 02a6 9001     		.2byte	0x190
 2087 02a8 FB020000 		.4byte	0x2fb
 2088 02ac 09       		.uleb128 0x9
 2089 02ad 0C060000 		.4byte	.LASF53
 2090 02b1 05       		.byte	0x5
 2091 02b2 9101     		.2byte	0x191
 2092 02b4 64020000 		.4byte	0x264
 2093 02b8 00       		.byte	0
 2094 02b9 09       		.uleb128 0x9
 2095 02ba 5F050000 		.4byte	.LASF54
 2096 02be 05       		.byte	0x5
 2097 02bf 9201     		.2byte	0x192
 2098 02c1 00010000 		.4byte	0x100
 2099 02c5 08       		.byte	0x8
 2100 02c6 09       		.uleb128 0x9
 2101 02c7 79040000 		.4byte	.LASF55
 2102 02cb 05       		.byte	0x5
 2103 02cc 9401     		.2byte	0x194
 2104 02ce 8A040000 		.4byte	0x48a
 2105 02d2 0C       		.byte	0xc
 2106 02d3 09       		.uleb128 0x9
 2107 02d4 7F030000 		.4byte	.LASF56
 2108 02d8 05       		.byte	0x5
 2109 02d9 9701     		.2byte	0x197
 2110 02db 3A020000 		.4byte	0x23a
 2111 02df 10       		.byte	0x10
 2112 02e0 09       		.uleb128 0x9
 2113 02e1 AD040000 		.4byte	.LASF57
 2114 02e5 05       		.byte	0x5
 2115 02e6 9801     		.2byte	0x198
 2116 02e8 3A020000 		.4byte	0x23a
 2117 02ec 14       		.byte	0x14
 2118 02ed 09       		.uleb128 0x9
 2119 02ee 42060000 		.4byte	.LASF58
 2120 02f2 05       		.byte	0x5
ARM GAS  /tmp/cc72Hk9S.s 			page 39


 2121 02f3 9B01     		.2byte	0x19b
 2122 02f5 3A020000 		.4byte	0x23a
 2123 02f9 18       		.byte	0x18
 2124 02fa 00       		.byte	0
 2125 02fb 03       		.uleb128 0x3
 2126 02fc 9A060000 		.4byte	.LASF59
 2127 0300 0E       		.byte	0xe
 2128 0301 5C       		.byte	0x5c
 2129 0302 06030000 		.4byte	0x306
 2130 0306 0A       		.uleb128 0xa
 2131 0307 04       		.byte	0x4
 2132 0308 0C030000 		.4byte	0x30c
 2133 030c 0C       		.uleb128 0xc
 2134 030d 17030000 		.4byte	0x317
 2135 0311 0D       		.uleb128 0xd
 2136 0312 17030000 		.4byte	0x317
 2137 0316 00       		.byte	0
 2138 0317 0E       		.uleb128 0xe
 2139 0318 04       		.byte	0x4
 2140 0319 03       		.uleb128 0x3
 2141 031a F1040000 		.4byte	.LASF60
 2142 031e 0E       		.byte	0xe
 2143 031f 61       		.byte	0x61
 2144 0320 24030000 		.4byte	0x324
 2145 0324 0B       		.uleb128 0xb
 2146 0325 B0050000 		.4byte	.LASF61
 2147 0329 14       		.byte	0x14
 2148 032a 05       		.byte	0x5
 2149 032b 6B01     		.2byte	0x16b
 2150 032d 73030000 		.4byte	0x373
 2151 0331 09       		.uleb128 0x9
 2152 0332 2D030000 		.4byte	.LASF62
 2153 0336 05       		.byte	0x5
 2154 0337 6C01     		.2byte	0x16c
 2155 0339 3D070000 		.4byte	0x73d
 2156 033d 00       		.byte	0
 2157 033e 09       		.uleb128 0x9
 2158 033f C6020000 		.4byte	.LASF63
 2159 0343 05       		.byte	0x5
 2160 0344 6D01     		.2byte	0x16d
 2161 0346 3D070000 		.4byte	0x73d
 2162 034a 04       		.byte	0x4
 2163 034b 09       		.uleb128 0x9
 2164 034c 3C030000 		.4byte	.LASF64
 2165 0350 05       		.byte	0x5
 2166 0351 6E01     		.2byte	0x16e
 2167 0353 2C010000 		.4byte	0x12c
 2168 0357 08       		.byte	0x8
 2169 0358 09       		.uleb128 0x9
 2170 0359 D3070000 		.4byte	.LASF65
 2171 035d 05       		.byte	0x5
 2172 035e 6F01     		.2byte	0x16f
 2173 0360 FB020000 		.4byte	0x2fb
 2174 0364 0C       		.byte	0xc
 2175 0365 09       		.uleb128 0x9
 2176 0366 FB060000 		.4byte	.LASF66
 2177 036a 05       		.byte	0x5
ARM GAS  /tmp/cc72Hk9S.s 			page 40


 2178 036b 7101     		.2byte	0x171
 2179 036d 17030000 		.4byte	0x317
 2180 0371 10       		.byte	0x10
 2181 0372 00       		.byte	0
 2182 0373 03       		.uleb128 0x3
 2183 0374 DC000000 		.4byte	.LASF67
 2184 0378 0E       		.byte	0xe
 2185 0379 66       		.byte	0x66
 2186 037a 7E030000 		.4byte	0x37e
 2187 037e 0B       		.uleb128 0xb
 2188 037f 4E040000 		.4byte	.LASF68
 2189 0383 10       		.byte	0x10
 2190 0384 05       		.byte	0x5
 2191 0385 7B01     		.2byte	0x17b
 2192 0387 C0030000 		.4byte	0x3c0
 2193 038b 09       		.uleb128 0x9
 2194 038c 2D030000 		.4byte	.LASF62
 2195 0390 05       		.byte	0x5
 2196 0391 7C01     		.2byte	0x17c
 2197 0393 3D070000 		.4byte	0x73d
 2198 0397 00       		.byte	0
 2199 0398 09       		.uleb128 0x9
 2200 0399 C6020000 		.4byte	.LASF63
 2201 039d 05       		.byte	0x5
 2202 039e 7E01     		.2byte	0x17e
 2203 03a0 3D070000 		.4byte	0x73d
 2204 03a4 04       		.byte	0x4
 2205 03a5 09       		.uleb128 0x9
 2206 03a6 3C030000 		.4byte	.LASF64
 2207 03aa 05       		.byte	0x5
 2208 03ab 8001     		.2byte	0x180
 2209 03ad 2C010000 		.4byte	0x12c
 2210 03b1 08       		.byte	0x8
 2211 03b2 09       		.uleb128 0x9
 2212 03b3 65040000 		.4byte	.LASF69
 2213 03b7 05       		.byte	0x5
 2214 03b8 8801     		.2byte	0x188
 2215 03ba 2C010000 		.4byte	0x12c
 2216 03be 0C       		.byte	0xc
 2217 03bf 00       		.byte	0
 2218 03c0 03       		.uleb128 0x3
 2219 03c1 6A000000 		.4byte	.LASF70
 2220 03c5 0E       		.byte	0xe
 2221 03c6 6B       		.byte	0x6b
 2222 03c7 CB030000 		.4byte	0x3cb
 2223 03cb 0B       		.uleb128 0xb
 2224 03cc 17050000 		.4byte	.LASF71
 2225 03d0 04       		.byte	0x4
 2226 03d1 05       		.byte	0x5
 2227 03d2 A201     		.2byte	0x1a2
 2228 03d4 E6030000 		.4byte	0x3e6
 2229 03d8 09       		.uleb128 0x9
 2230 03d9 B1060000 		.4byte	.LASF72
 2231 03dd 05       		.byte	0x5
 2232 03de AA01     		.2byte	0x1aa
 2233 03e0 43070000 		.4byte	0x743
 2234 03e4 00       		.byte	0
ARM GAS  /tmp/cc72Hk9S.s 			page 41


 2235 03e5 00       		.byte	0
 2236 03e6 03       		.uleb128 0x3
 2237 03e7 87030000 		.4byte	.LASF73
 2238 03eb 0E       		.byte	0xe
 2239 03ec 70       		.byte	0x70
 2240 03ed F1030000 		.4byte	0x3f1
 2241 03f1 0F       		.uleb128 0xf
 2242 03f2 8B010000 		.4byte	.LASF74
 2243 03f6 5001     		.2byte	0x150
 2244 03f8 05       		.byte	0x5
 2245 03f9 C201     		.2byte	0x1c2
 2246 03fb 4D040000 		.4byte	0x44d
 2247 03ff 09       		.uleb128 0x9
 2248 0400 22070000 		.4byte	.LASF75
 2249 0404 05       		.byte	0x5
 2250 0405 C601     		.2byte	0x1c6
 2251 0407 94020000 		.4byte	0x294
 2252 040b 00       		.byte	0
 2253 040c 09       		.uleb128 0x9
 2254 040d 65010000 		.4byte	.LASF76
 2255 0411 05       		.byte	0x5
 2256 0412 CA01     		.2byte	0x1ca
 2257 0414 73030000 		.4byte	0x373
 2258 0418 1C       		.byte	0x1c
 2259 0419 08       		.uleb128 0x8
 2260 041a 64626700 		.ascii	"dbg\000"
 2261 041e 05       		.byte	0x5
 2262 041f CE01     		.2byte	0x1ce
 2263 0421 C0030000 		.4byte	0x3c0
 2264 0425 2C       		.byte	0x2c
 2265 0426 09       		.uleb128 0x9
 2266 0427 D1000000 		.4byte	.LASF77
 2267 042b 05       		.byte	0x5
 2268 042c D201     		.2byte	0x1d2
 2269 042e 37010000 		.4byte	0x137
 2270 0432 30       		.byte	0x30
 2271 0433 08       		.uleb128 0x8
 2272 0434 746D00   		.ascii	"tm\000"
 2273 0437 05       		.byte	0x5
 2274 0438 D701     		.2byte	0x1d7
 2275 043a 5B060000 		.4byte	0x65b
 2276 043e 74       		.byte	0x74
 2277 043f 09       		.uleb128 0x9
 2278 0440 97050000 		.4byte	.LASF78
 2279 0444 05       		.byte	0x5
 2280 0445 E301     		.2byte	0x1e3
 2281 0447 48070000 		.4byte	0x748
 2282 044b 78       		.byte	0x78
 2283 044c 00       		.byte	0
 2284 044d 04       		.uleb128 0x4
 2285 044e 04       		.byte	0x4
 2286 044f 07       		.byte	0x7
 2287 0450 32040000 		.4byte	.LASF79
 2288 0454 10       		.uleb128 0x10
 2289 0455 B4000000 		.4byte	0xb4
 2290 0459 64040000 		.4byte	0x464
 2291 045d 11       		.uleb128 0x11
ARM GAS  /tmp/cc72Hk9S.s 			page 42


 2292 045e 4D040000 		.4byte	0x44d
 2293 0462 01       		.byte	0x1
 2294 0463 00       		.byte	0
 2295 0464 10       		.uleb128 0x10
 2296 0465 B4000000 		.4byte	0xb4
 2297 0469 74040000 		.4byte	0x474
 2298 046d 11       		.uleb128 0x11
 2299 046e 4D040000 		.4byte	0x44d
 2300 0472 03       		.byte	0x3
 2301 0473 00       		.byte	0
 2302 0474 03       		.uleb128 0x3
 2303 0475 BD020000 		.4byte	.LASF80
 2304 0479 0F       		.byte	0xf
 2305 047a 65       		.byte	0x65
 2306 047b 17030000 		.4byte	0x317
 2307 047f 03       		.uleb128 0x3
 2308 0480 E7030000 		.4byte	.LASF81
 2309 0484 0F       		.byte	0xf
 2310 0485 6D       		.byte	0x6d
 2311 0486 BF000000 		.4byte	0xbf
 2312 048a 06       		.uleb128 0x6
 2313 048b C2060000 		.4byte	.LASF82
 2314 048f 04       		.byte	0x4
 2315 0490 0F       		.byte	0xf
 2316 0491 89       		.byte	0x89
 2317 0492 A3040000 		.4byte	0x4a3
 2318 0496 12       		.uleb128 0x12
 2319 0497 72313300 		.ascii	"r13\000"
 2320 049b 0F       		.byte	0xf
 2321 049c 8A       		.byte	0x8a
 2322 049d 1E050000 		.4byte	0x51e
 2323 04a1 00       		.byte	0
 2324 04a2 00       		.byte	0
 2325 04a3 06       		.uleb128 0x6
 2326 04a4 5E000000 		.4byte	.LASF83
 2327 04a8 24       		.byte	0x24
 2328 04a9 01       		.byte	0x1
 2329 04aa FD       		.byte	0xfd
 2330 04ab 1E050000 		.4byte	0x51e
 2331 04af 08       		.uleb128 0x8
 2332 04b0 723400   		.ascii	"r4\000"
 2333 04b3 01       		.byte	0x1
 2334 04b4 1001     		.2byte	0x110
 2335 04b6 74040000 		.4byte	0x474
 2336 04ba 00       		.byte	0
 2337 04bb 08       		.uleb128 0x8
 2338 04bc 723500   		.ascii	"r5\000"
 2339 04bf 01       		.byte	0x1
 2340 04c0 1101     		.2byte	0x111
 2341 04c2 74040000 		.4byte	0x474
 2342 04c6 04       		.byte	0x4
 2343 04c7 08       		.uleb128 0x8
 2344 04c8 723600   		.ascii	"r6\000"
 2345 04cb 01       		.byte	0x1
 2346 04cc 1201     		.2byte	0x112
 2347 04ce 74040000 		.4byte	0x474
 2348 04d2 08       		.byte	0x8
ARM GAS  /tmp/cc72Hk9S.s 			page 43


 2349 04d3 08       		.uleb128 0x8
 2350 04d4 723700   		.ascii	"r7\000"
 2351 04d7 01       		.byte	0x1
 2352 04d8 1301     		.2byte	0x113
 2353 04da 74040000 		.4byte	0x474
 2354 04de 0C       		.byte	0xc
 2355 04df 08       		.uleb128 0x8
 2356 04e0 723800   		.ascii	"r8\000"
 2357 04e3 01       		.byte	0x1
 2358 04e4 1401     		.2byte	0x114
 2359 04e6 74040000 		.4byte	0x474
 2360 04ea 10       		.byte	0x10
 2361 04eb 08       		.uleb128 0x8
 2362 04ec 723900   		.ascii	"r9\000"
 2363 04ef 01       		.byte	0x1
 2364 04f0 1501     		.2byte	0x115
 2365 04f2 74040000 		.4byte	0x474
 2366 04f6 14       		.byte	0x14
 2367 04f7 08       		.uleb128 0x8
 2368 04f8 72313000 		.ascii	"r10\000"
 2369 04fc 01       		.byte	0x1
 2370 04fd 1601     		.2byte	0x116
 2371 04ff 74040000 		.4byte	0x474
 2372 0503 18       		.byte	0x18
 2373 0504 08       		.uleb128 0x8
 2374 0505 72313100 		.ascii	"r11\000"
 2375 0509 01       		.byte	0x1
 2376 050a 1701     		.2byte	0x117
 2377 050c 74040000 		.4byte	0x474
 2378 0510 1C       		.byte	0x1c
 2379 0511 08       		.uleb128 0x8
 2380 0512 6C7200   		.ascii	"lr\000"
 2381 0515 01       		.byte	0x1
 2382 0516 1801     		.2byte	0x118
 2383 0518 74040000 		.4byte	0x474
 2384 051c 20       		.byte	0x20
 2385 051d 00       		.byte	0
 2386 051e 0A       		.uleb128 0xa
 2387 051f 04       		.byte	0x4
 2388 0520 A3040000 		.4byte	0x4a3
 2389 0524 13       		.uleb128 0x13
 2390 0525 60       		.byte	0x60
 2391 0526 10       		.byte	0x10
 2392 0527 A101     		.2byte	0x1a1
 2393 0529 30060000 		.4byte	0x630
 2394 052d 08       		.uleb128 0x8
 2395 052e 43523100 		.ascii	"CR1\000"
 2396 0532 10       		.byte	0x10
 2397 0533 A201     		.2byte	0x1a2
 2398 0535 CF000000 		.4byte	0xcf
 2399 0539 00       		.byte	0
 2400 053a 08       		.uleb128 0x8
 2401 053b 43523200 		.ascii	"CR2\000"
 2402 053f 10       		.byte	0x10
 2403 0540 A301     		.2byte	0x1a3
 2404 0542 CF000000 		.4byte	0xcf
 2405 0546 04       		.byte	0x4
ARM GAS  /tmp/cc72Hk9S.s 			page 44


 2406 0547 09       		.uleb128 0x9
 2407 0548 6A030000 		.4byte	.LASF84
 2408 054c 10       		.byte	0x10
 2409 054d A401     		.2byte	0x1a4
 2410 054f CF000000 		.4byte	0xcf
 2411 0553 08       		.byte	0x8
 2412 0554 09       		.uleb128 0x9
 2413 0555 1D000000 		.4byte	.LASF85
 2414 0559 10       		.byte	0x10
 2415 055a A501     		.2byte	0x1a5
 2416 055c CF000000 		.4byte	0xcf
 2417 0560 0C       		.byte	0xc
 2418 0561 08       		.uleb128 0x8
 2419 0562 535200   		.ascii	"SR\000"
 2420 0565 10       		.byte	0x10
 2421 0566 A601     		.2byte	0x1a6
 2422 0568 CF000000 		.4byte	0xcf
 2423 056c 10       		.byte	0x10
 2424 056d 08       		.uleb128 0x8
 2425 056e 45475200 		.ascii	"EGR\000"
 2426 0572 10       		.byte	0x10
 2427 0573 A701     		.2byte	0x1a7
 2428 0575 CF000000 		.4byte	0xcf
 2429 0579 14       		.byte	0x14
 2430 057a 09       		.uleb128 0x9
 2431 057b 26010000 		.4byte	.LASF86
 2432 057f 10       		.byte	0x10
 2433 0580 A801     		.2byte	0x1a8
 2434 0582 CF000000 		.4byte	0xcf
 2435 0586 18       		.byte	0x18
 2436 0587 09       		.uleb128 0x9
 2437 0588 2C010000 		.4byte	.LASF87
 2438 058c 10       		.byte	0x10
 2439 058d A901     		.2byte	0x1a9
 2440 058f CF000000 		.4byte	0xcf
 2441 0593 1C       		.byte	0x1c
 2442 0594 09       		.uleb128 0x9
 2443 0595 B6010000 		.4byte	.LASF88
 2444 0599 10       		.byte	0x10
 2445 059a AA01     		.2byte	0x1aa
 2446 059c CF000000 		.4byte	0xcf
 2447 05a0 20       		.byte	0x20
 2448 05a1 08       		.uleb128 0x8
 2449 05a2 434E5400 		.ascii	"CNT\000"
 2450 05a6 10       		.byte	0x10
 2451 05a7 AB01     		.2byte	0x1ab
 2452 05a9 CF000000 		.4byte	0xcf
 2453 05ad 24       		.byte	0x24
 2454 05ae 08       		.uleb128 0x8
 2455 05af 50534300 		.ascii	"PSC\000"
 2456 05b3 10       		.byte	0x10
 2457 05b4 AC01     		.2byte	0x1ac
 2458 05b6 CF000000 		.4byte	0xcf
 2459 05ba 28       		.byte	0x28
 2460 05bb 08       		.uleb128 0x8
 2461 05bc 41525200 		.ascii	"ARR\000"
 2462 05c0 10       		.byte	0x10
ARM GAS  /tmp/cc72Hk9S.s 			page 45


 2463 05c1 AD01     		.2byte	0x1ad
 2464 05c3 CF000000 		.4byte	0xcf
 2465 05c7 2C       		.byte	0x2c
 2466 05c8 08       		.uleb128 0x8
 2467 05c9 52435200 		.ascii	"RCR\000"
 2468 05cd 10       		.byte	0x10
 2469 05ce AE01     		.2byte	0x1ae
 2470 05d0 CF000000 		.4byte	0xcf
 2471 05d4 30       		.byte	0x30
 2472 05d5 08       		.uleb128 0x8
 2473 05d6 43435200 		.ascii	"CCR\000"
 2474 05da 10       		.byte	0x10
 2475 05db AF01     		.2byte	0x1af
 2476 05dd 30060000 		.4byte	0x630
 2477 05e1 34       		.byte	0x34
 2478 05e2 09       		.uleb128 0x9
 2479 05e3 FF000000 		.4byte	.LASF89
 2480 05e7 10       		.byte	0x10
 2481 05e8 B001     		.2byte	0x1b0
 2482 05ea CF000000 		.4byte	0xcf
 2483 05ee 44       		.byte	0x44
 2484 05ef 08       		.uleb128 0x8
 2485 05f0 44435200 		.ascii	"DCR\000"
 2486 05f4 10       		.byte	0x10
 2487 05f5 B101     		.2byte	0x1b1
 2488 05f7 CF000000 		.4byte	0xcf
 2489 05fb 48       		.byte	0x48
 2490 05fc 09       		.uleb128 0x9
 2491 05fd 51060000 		.4byte	.LASF90
 2492 0601 10       		.byte	0x10
 2493 0602 B201     		.2byte	0x1b2
 2494 0604 CF000000 		.4byte	0xcf
 2495 0608 4C       		.byte	0x4c
 2496 0609 08       		.uleb128 0x8
 2497 060a 4F5200   		.ascii	"OR\000"
 2498 060d 10       		.byte	0x10
 2499 060e B301     		.2byte	0x1b3
 2500 0610 CF000000 		.4byte	0xcf
 2501 0614 50       		.byte	0x50
 2502 0615 09       		.uleb128 0x9
 2503 0616 32010000 		.4byte	.LASF91
 2504 061a 10       		.byte	0x10
 2505 061b B401     		.2byte	0x1b4
 2506 061d CF000000 		.4byte	0xcf
 2507 0621 54       		.byte	0x54
 2508 0622 09       		.uleb128 0x9
 2509 0623 CE050000 		.4byte	.LASF92
 2510 0627 10       		.byte	0x10
 2511 0628 B501     		.2byte	0x1b5
 2512 062a 35060000 		.4byte	0x635
 2513 062e 58       		.byte	0x58
 2514 062f 00       		.byte	0
 2515 0630 05       		.uleb128 0x5
 2516 0631 64040000 		.4byte	0x464
 2517 0635 05       		.uleb128 0x5
 2518 0636 54040000 		.4byte	0x454
 2519 063a 14       		.uleb128 0x14
ARM GAS  /tmp/cc72Hk9S.s 			page 46


 2520 063b A8030000 		.4byte	.LASF93
 2521 063f 10       		.byte	0x10
 2522 0640 B601     		.2byte	0x1b6
 2523 0642 24050000 		.4byte	0x524
 2524 0646 15       		.uleb128 0x15
 2525 0647 04       		.byte	0x4
 2526 0648 11       		.byte	0x11
 2527 0649 38       		.byte	0x38
 2528 064a 5B060000 		.4byte	0x65b
 2529 064e 07       		.uleb128 0x7
 2530 064f BB060000 		.4byte	.LASF94
 2531 0653 11       		.byte	0x11
 2532 0654 3C       		.byte	0x3c
 2533 0655 D4000000 		.4byte	0xd4
 2534 0659 00       		.byte	0
 2535 065a 00       		.byte	0
 2536 065b 03       		.uleb128 0x3
 2537 065c 7F040000 		.4byte	.LASF95
 2538 0660 11       		.byte	0x11
 2539 0661 3D       		.byte	0x3d
 2540 0662 46060000 		.4byte	0x646
 2541 0666 16       		.uleb128 0x16
 2542 0667 04       		.byte	0x4
 2543 0668 05       		.byte	0x5
 2544 0669 FA       		.byte	0xfa
 2545 066a C3060000 		.4byte	0x6c3
 2546 066e 17       		.uleb128 0x17
 2547 066f 2E000000 		.4byte	.LASF96
 2548 0673 05       		.byte	0x5
 2549 0674 0101     		.2byte	0x101
 2550 0676 0B010000 		.4byte	0x10b
 2551 067a 17       		.uleb128 0x17
 2552 067b C8000000 		.4byte	.LASF97
 2553 067f 05       		.byte	0x5
 2554 0680 0801     		.2byte	0x108
 2555 0682 0B010000 		.4byte	0x10b
 2556 0686 17       		.uleb128 0x17
 2557 0687 49070000 		.4byte	.LASF98
 2558 068b 05       		.byte	0x5
 2559 068c 0F01     		.2byte	0x10f
 2560 068e 17030000 		.4byte	0x317
 2561 0692 17       		.uleb128 0x17
 2562 0693 85010000 		.4byte	.LASF99
 2563 0697 05       		.byte	0x5
 2564 0698 1601     		.2byte	0x116
 2565 069a C3060000 		.4byte	0x6c3
 2566 069e 17       		.uleb128 0x17
 2567 069f 35030000 		.4byte	.LASF100
 2568 06a3 05       		.byte	0x5
 2569 06a4 1E01     		.2byte	0x11e
 2570 06a6 EE060000 		.4byte	0x6ee
 2571 06aa 17       		.uleb128 0x17
 2572 06ab 05060000 		.4byte	.LASF101
 2573 06af 05       		.byte	0x5
 2574 06b0 2701     		.2byte	0x127
 2575 06b2 25070000 		.4byte	0x725
 2576 06b6 17       		.uleb128 0x17
ARM GAS  /tmp/cc72Hk9S.s 			page 47


 2577 06b7 66050000 		.4byte	.LASF102
 2578 06bb 05       		.byte	0x5
 2579 06bc 2F01     		.2byte	0x12f
 2580 06be 16010000 		.4byte	0x116
 2581 06c2 00       		.byte	0
 2582 06c3 0A       		.uleb128 0xa
 2583 06c4 04       		.byte	0x4
 2584 06c5 2F020000 		.4byte	0x22f
 2585 06c9 06       		.uleb128 0x6
 2586 06ca C1050000 		.4byte	.LASF103
 2587 06ce 0C       		.byte	0xc
 2588 06cf 12       		.byte	0x12
 2589 06d0 34       		.byte	0x34
 2590 06d1 EE060000 		.4byte	0x6ee
 2591 06d5 07       		.uleb128 0x7
 2592 06d6 81020000 		.4byte	.LASF104
 2593 06da 12       		.byte	0x12
 2594 06db 35       		.byte	0x35
 2595 06dc 64020000 		.4byte	0x264
 2596 06e0 00       		.byte	0
 2597 06e1 07       		.uleb128 0x7
 2598 06e2 64030000 		.4byte	.LASF105
 2599 06e6 12       		.byte	0x12
 2600 06e7 37       		.byte	0x37
 2601 06e8 21010000 		.4byte	0x121
 2602 06ec 08       		.byte	0x8
 2603 06ed 00       		.byte	0
 2604 06ee 0A       		.uleb128 0xa
 2605 06ef 04       		.byte	0x4
 2606 06f0 C9060000 		.4byte	0x6c9
 2607 06f4 06       		.uleb128 0x6
 2608 06f5 12070000 		.4byte	.LASF106
 2609 06f9 10       		.byte	0x10
 2610 06fa 13       		.byte	0x13
 2611 06fb 39       		.byte	0x39
 2612 06fc 25070000 		.4byte	0x725
 2613 0700 07       		.uleb128 0x7
 2614 0701 5D010000 		.4byte	.LASF107
 2615 0705 13       		.byte	0x13
 2616 0706 3A       		.byte	0x3a
 2617 0707 64020000 		.4byte	0x264
 2618 070b 00       		.byte	0
 2619 070c 07       		.uleb128 0x7
 2620 070d B9070000 		.4byte	.LASF108
 2621 0711 13       		.byte	0x13
 2622 0712 3C       		.byte	0x3c
 2623 0713 3A020000 		.4byte	0x23a
 2624 0717 08       		.byte	0x8
 2625 0718 07       		.uleb128 0x7
 2626 0719 90040000 		.4byte	.LASF109
 2627 071d 13       		.byte	0x13
 2628 071e 3E       		.byte	0x3e
 2629 071f 6E070000 		.4byte	0x76e
 2630 0723 0C       		.byte	0xc
 2631 0724 00       		.byte	0
 2632 0725 0A       		.uleb128 0xa
 2633 0726 04       		.byte	0x4
ARM GAS  /tmp/cc72Hk9S.s 			page 48


 2634 0727 F4060000 		.4byte	0x6f4
 2635 072b 0A       		.uleb128 0xa
 2636 072c 04       		.byte	0x4
 2637 072d 31070000 		.4byte	0x731
 2638 0731 18       		.uleb128 0x18
 2639 0732 36070000 		.4byte	0x736
 2640 0736 04       		.uleb128 0x4
 2641 0737 01       		.byte	0x1
 2642 0738 08       		.byte	0x8
 2643 0739 4C060000 		.4byte	.LASF110
 2644 073d 0A       		.uleb128 0xa
 2645 073e 04       		.byte	0x4
 2646 073f 19030000 		.4byte	0x319
 2647 0743 05       		.uleb128 0x5
 2648 0744 2B070000 		.4byte	0x72b
 2649 0748 10       		.uleb128 0x10
 2650 0749 7F040000 		.4byte	0x47f
 2651 074d 58070000 		.4byte	0x758
 2652 0751 11       		.uleb128 0x11
 2653 0752 4D040000 		.4byte	0x44d
 2654 0756 1A       		.byte	0x1a
 2655 0757 00       		.byte	0
 2656 0758 03       		.uleb128 0x3
 2657 0759 00000000 		.4byte	.LASF111
 2658 075d 08       		.byte	0x8
 2659 075e 34       		.byte	0x34
 2660 075f 06030000 		.4byte	0x306
 2661 0763 03       		.uleb128 0x3
 2662 0764 DB020000 		.4byte	.LASF112
 2663 0768 13       		.byte	0x13
 2664 0769 34       		.byte	0x34
 2665 076a F4060000 		.4byte	0x6f4
 2666 076e 0A       		.uleb128 0xa
 2667 076f 04       		.byte	0x4
 2668 0770 63070000 		.4byte	0x763
 2669 0774 19       		.uleb128 0x19
 2670 0775 A3060000 		.4byte	.LASF169
 2671 0779 02       		.byte	0x2
 2672 077a 2202     		.2byte	0x222
 2673 077c 03       		.byte	0x3
 2674 077d 8E070000 		.4byte	0x78e
 2675 0781 1A       		.uleb128 0x1a
 2676 0782 E3020000 		.4byte	.LASF170
 2677 0786 02       		.byte	0x2
 2678 0787 2202     		.2byte	0x222
 2679 0789 B4000000 		.4byte	0xb4
 2680 078d 00       		.byte	0
 2681 078e 1B       		.uleb128 0x1b
 2682 078f 9C000000 		.4byte	.LASF113
 2683 0793 01       		.byte	0x1
 2684 0794 C801     		.2byte	0x1c8
 2685 0796 00000000 		.4byte	.LFB127
 2686 079a 10000000 		.4byte	.LFE127-.LFB127
 2687 079e 01       		.uleb128 0x1
 2688 079f 9C       		.byte	0x9c
 2689 07a0 BE070000 		.4byte	0x7be
 2690 07a4 1C       		.uleb128 0x1c
ARM GAS  /tmp/cc72Hk9S.s 			page 49


 2691 07a5 74070000 		.4byte	0x774
 2692 07a9 06000000 		.4byte	.LBB6
 2693 07ad 06000000 		.4byte	.LBE6-.LBB6
 2694 07b1 01       		.byte	0x1
 2695 07b2 CB01     		.2byte	0x1cb
 2696 07b4 1D       		.uleb128 0x1d
 2697 07b5 81070000 		.4byte	0x781
 2698 07b9 02       		.uleb128 0x2
 2699 07ba 91       		.byte	0x91
 2700 07bb 7C       		.sleb128 -4
 2701 07bc 00       		.byte	0
 2702 07bd 00       		.byte	0
 2703 07be 1B       		.uleb128 0x1b
 2704 07bf 6C010000 		.4byte	.LASF114
 2705 07c3 01       		.byte	0x1
 2706 07c4 D601     		.2byte	0x1d6
 2707 07c6 00000000 		.4byte	.LFB128
 2708 07ca 10000000 		.4byte	.LFE128-.LFB128
 2709 07ce 01       		.uleb128 0x1
 2710 07cf 9C       		.byte	0x9c
 2711 07d0 EE070000 		.4byte	0x7ee
 2712 07d4 1C       		.uleb128 0x1c
 2713 07d5 74070000 		.4byte	0x774
 2714 07d9 06000000 		.4byte	.LBB8
 2715 07dd 06000000 		.4byte	.LBE8-.LBB8
 2716 07e1 01       		.byte	0x1
 2717 07e2 D901     		.2byte	0x1d9
 2718 07e4 1D       		.uleb128 0x1d
 2719 07e5 81070000 		.4byte	0x781
 2720 07e9 02       		.uleb128 0x2
 2721 07ea 91       		.byte	0x91
 2722 07eb 7C       		.sleb128 -4
 2723 07ec 00       		.byte	0
 2724 07ed 00       		.byte	0
 2725 07ee 1E       		.uleb128 0x1e
 2726 07ef E9050000 		.4byte	.LASF115
 2727 07f3 03       		.byte	0x3
 2728 07f4 8B       		.byte	0x8b
 2729 07f5 2C010000 		.4byte	0x12c
 2730 07f9 00000000 		.4byte	.LFB136
 2731 07fd 0A000000 		.4byte	.LFE136-.LFB136
 2732 0801 01       		.uleb128 0x1
 2733 0802 9C       		.byte	0x9c
 2734 0803 1F       		.uleb128 0x1f
 2735 0804 CA060000 		.4byte	.LASF116
 2736 0808 04       		.byte	0x4
 2737 0809 69       		.byte	0x69
 2738 080a 2C010000 		.4byte	0x12c
 2739 080e 00000000 		.4byte	.LFB145
 2740 0812 0C000000 		.4byte	.LFE145-.LFB145
 2741 0816 01       		.uleb128 0x1
 2742 0817 9C       		.byte	0x9c
 2743 0818 1B       		.uleb128 0x1b
 2744 0819 15010000 		.4byte	.LASF117
 2745 081d 05       		.byte	0x5
 2746 081e 3402     		.2byte	0x234
 2747 0820 00000000 		.4byte	.LFB147
ARM GAS  /tmp/cc72Hk9S.s 			page 50


 2748 0824 0E000000 		.4byte	.LFE147-.LFB147
 2749 0828 01       		.uleb128 0x1
 2750 0829 9C       		.byte	0x9c
 2751 082a 3E080000 		.4byte	0x83e
 2752 082e 20       		.uleb128 0x20
 2753 082f 746C7000 		.ascii	"tlp\000"
 2754 0833 05       		.byte	0x5
 2755 0834 3402     		.2byte	0x234
 2756 0836 3E080000 		.4byte	0x83e
 2757 083a 02       		.uleb128 0x2
 2758 083b 91       		.byte	0x91
 2759 083c 7C       		.sleb128 -4
 2760 083d 00       		.byte	0
 2761 083e 0A       		.uleb128 0xa
 2762 083f 04       		.byte	0x4
 2763 0840 40020000 		.4byte	0x240
 2764 0844 21       		.uleb128 0x21
 2765 0845 63070000 		.4byte	.LASF120
 2766 0849 05       		.byte	0x5
 2767 084a 4E02     		.2byte	0x24e
 2768 084c 6E080000 		.4byte	0x86e
 2769 0850 00000000 		.4byte	.LFB149
 2770 0854 1A000000 		.4byte	.LFE149-.LFB149
 2771 0858 01       		.uleb128 0x1
 2772 0859 9C       		.byte	0x9c
 2773 085a 6E080000 		.4byte	0x86e
 2774 085e 20       		.uleb128 0x20
 2775 085f 746C7000 		.ascii	"tlp\000"
 2776 0863 05       		.byte	0x5
 2777 0864 4E02     		.2byte	0x24e
 2778 0866 3E080000 		.4byte	0x83e
 2779 086a 02       		.uleb128 0x2
 2780 086b 91       		.byte	0x91
 2781 086c 7C       		.sleb128 -4
 2782 086d 00       		.byte	0
 2783 086e 04       		.uleb128 0x4
 2784 086f 01       		.byte	0x1
 2785 0870 02       		.byte	0x2
 2786 0871 27050000 		.4byte	.LASF118
 2787 0875 1B       		.uleb128 0x1b
 2788 0876 91000000 		.4byte	.LASF119
 2789 087a 05       		.byte	0x5
 2790 087b 5A02     		.2byte	0x25a
 2791 087d 00000000 		.4byte	.LFB150
 2792 0881 14000000 		.4byte	.LFE150-.LFB150
 2793 0885 01       		.uleb128 0x1
 2794 0886 9C       		.byte	0x9c
 2795 0887 9B080000 		.4byte	0x89b
 2796 088b 20       		.uleb128 0x20
 2797 088c 74717000 		.ascii	"tqp\000"
 2798 0890 05       		.byte	0x5
 2799 0891 5A02     		.2byte	0x25a
 2800 0893 9B080000 		.4byte	0x89b
 2801 0897 02       		.uleb128 0x2
 2802 0898 91       		.byte	0x91
 2803 0899 7C       		.sleb128 -4
 2804 089a 00       		.byte	0
ARM GAS  /tmp/cc72Hk9S.s 			page 51


 2805 089b 0A       		.uleb128 0xa
 2806 089c 04       		.byte	0x4
 2807 089d 64020000 		.4byte	0x264
 2808 08a1 21       		.uleb128 0x21
 2809 08a2 A7010000 		.4byte	.LASF121
 2810 08a6 05       		.byte	0x5
 2811 08a7 7502     		.2byte	0x275
 2812 08a9 6E080000 		.4byte	0x86e
 2813 08ad 00000000 		.4byte	.LFB152
 2814 08b1 1A000000 		.4byte	.LFE152-.LFB152
 2815 08b5 01       		.uleb128 0x1
 2816 08b6 9C       		.byte	0x9c
 2817 08b7 CB080000 		.4byte	0x8cb
 2818 08bb 20       		.uleb128 0x20
 2819 08bc 74717000 		.ascii	"tqp\000"
 2820 08c0 05       		.byte	0x5
 2821 08c1 7502     		.2byte	0x275
 2822 08c3 CB080000 		.4byte	0x8cb
 2823 08c7 02       		.uleb128 0x2
 2824 08c8 91       		.byte	0x91
 2825 08c9 7C       		.sleb128 -4
 2826 08ca 00       		.byte	0
 2827 08cb 0A       		.uleb128 0xa
 2828 08cc 04       		.byte	0x4
 2829 08cd D1080000 		.4byte	0x8d1
 2830 08d1 18       		.uleb128 0x18
 2831 08d2 64020000 		.4byte	0x264
 2832 08d6 1B       		.uleb128 0x1b
 2833 08d7 9C040000 		.4byte	.LASF122
 2834 08db 05       		.byte	0x5
 2835 08dc 7D02     		.2byte	0x27d
 2836 08de 00000000 		.4byte	.LFB153
 2837 08e2 18000000 		.4byte	.LFE153-.LFB153
 2838 08e6 01       		.uleb128 0x1
 2839 08e7 9C       		.byte	0x9c
 2840 08e8 0A090000 		.4byte	0x90a
 2841 08ec 20       		.uleb128 0x20
 2842 08ed 747000   		.ascii	"tp\000"
 2843 08f0 05       		.byte	0x5
 2844 08f1 7D02     		.2byte	0x27d
 2845 08f3 3A020000 		.4byte	0x23a
 2846 08f7 02       		.uleb128 0x2
 2847 08f8 91       		.byte	0x91
 2848 08f9 7C       		.sleb128 -4
 2849 08fa 20       		.uleb128 0x20
 2850 08fb 746C7000 		.ascii	"tlp\000"
 2851 08ff 05       		.byte	0x5
 2852 0900 7D02     		.2byte	0x27d
 2853 0902 3E080000 		.4byte	0x83e
 2854 0906 02       		.uleb128 0x2
 2855 0907 91       		.byte	0x91
 2856 0908 78       		.sleb128 -8
 2857 0909 00       		.byte	0
 2858 090a 21       		.uleb128 0x21
 2859 090b 9C020000 		.4byte	.LASF123
 2860 090f 05       		.byte	0x5
 2861 0910 8302     		.2byte	0x283
ARM GAS  /tmp/cc72Hk9S.s 			page 52


 2862 0912 3A020000 		.4byte	0x23a
 2863 0916 00000000 		.4byte	.LFB154
 2864 091a 1A000000 		.4byte	.LFE154-.LFB154
 2865 091e 01       		.uleb128 0x1
 2866 091f 9C       		.byte	0x9c
 2867 0920 42090000 		.4byte	0x942
 2868 0924 20       		.uleb128 0x20
 2869 0925 746C7000 		.ascii	"tlp\000"
 2870 0929 05       		.byte	0x5
 2871 092a 8302     		.2byte	0x283
 2872 092c 3E080000 		.4byte	0x83e
 2873 0930 02       		.uleb128 0x2
 2874 0931 91       		.byte	0x91
 2875 0932 74       		.sleb128 -12
 2876 0933 22       		.uleb128 0x22
 2877 0934 747000   		.ascii	"tp\000"
 2878 0937 05       		.byte	0x5
 2879 0938 8502     		.2byte	0x285
 2880 093a 3A020000 		.4byte	0x23a
 2881 093e 02       		.uleb128 0x2
 2882 093f 91       		.byte	0x91
 2883 0940 7C       		.sleb128 -4
 2884 0941 00       		.byte	0
 2885 0942 1B       		.uleb128 0x1b
 2886 0943 93030000 		.4byte	.LASF124
 2887 0947 05       		.byte	0x5
 2888 0948 9702     		.2byte	0x297
 2889 094a 00000000 		.4byte	.LFB156
 2890 094e 26000000 		.4byte	.LFE156-.LFB156
 2891 0952 01       		.uleb128 0x1
 2892 0953 9C       		.byte	0x9c
 2893 0954 76090000 		.4byte	0x976
 2894 0958 20       		.uleb128 0x20
 2895 0959 747000   		.ascii	"tp\000"
 2896 095c 05       		.byte	0x5
 2897 095d 9702     		.2byte	0x297
 2898 095f 3A020000 		.4byte	0x23a
 2899 0963 02       		.uleb128 0x2
 2900 0964 91       		.byte	0x91
 2901 0965 7C       		.sleb128 -4
 2902 0966 20       		.uleb128 0x20
 2903 0967 74717000 		.ascii	"tqp\000"
 2904 096b 05       		.byte	0x5
 2905 096c 9702     		.2byte	0x297
 2906 096e 9B080000 		.4byte	0x89b
 2907 0972 02       		.uleb128 0x2
 2908 0973 91       		.byte	0x91
 2909 0974 78       		.sleb128 -8
 2910 0975 00       		.byte	0
 2911 0976 21       		.uleb128 0x21
 2912 0977 73060000 		.4byte	.LASF125
 2913 097b 05       		.byte	0x5
 2914 097c 9F02     		.2byte	0x29f
 2915 097e 3A020000 		.4byte	0x23a
 2916 0982 00000000 		.4byte	.LFB157
 2917 0986 22000000 		.4byte	.LFE157-.LFB157
 2918 098a 01       		.uleb128 0x1
ARM GAS  /tmp/cc72Hk9S.s 			page 53


 2919 098b 9C       		.byte	0x9c
 2920 098c AE090000 		.4byte	0x9ae
 2921 0990 20       		.uleb128 0x20
 2922 0991 74717000 		.ascii	"tqp\000"
 2923 0995 05       		.byte	0x5
 2924 0996 9F02     		.2byte	0x29f
 2925 0998 9B080000 		.4byte	0x89b
 2926 099c 02       		.uleb128 0x2
 2927 099d 91       		.byte	0x91
 2928 099e 74       		.sleb128 -12
 2929 099f 22       		.uleb128 0x22
 2930 09a0 747000   		.ascii	"tp\000"
 2931 09a3 05       		.byte	0x5
 2932 09a4 A002     		.2byte	0x2a0
 2933 09a6 3A020000 		.4byte	0x23a
 2934 09aa 02       		.uleb128 0x2
 2935 09ab 91       		.byte	0x91
 2936 09ac 7C       		.sleb128 -4
 2937 09ad 00       		.byte	0
 2938 09ae 23       		.uleb128 0x23
 2939 09af 4E010000 		.4byte	.LASF126
 2940 09b3 05       		.byte	0x5
 2941 09b4 D702     		.2byte	0x2d7
 2942 09b6 6E080000 		.4byte	0x86e
 2943 09ba 00000000 		.4byte	.LFB161
 2944 09be 20000000 		.4byte	.LFE161-.LFB161
 2945 09c2 01       		.uleb128 0x1
 2946 09c3 9C       		.byte	0x9c
 2947 09c4 24       		.uleb128 0x24
 2948 09c5 50070000 		.4byte	.LASF127
 2949 09c9 05       		.byte	0x5
 2950 09ca E502     		.2byte	0x2e5
 2951 09cc 00000000 		.4byte	.LFB162
 2952 09d0 12000000 		.4byte	.LFE162-.LFB162
 2953 09d4 01       		.uleb128 0x1
 2954 09d5 9C       		.byte	0x9c
 2955 09d6 24       		.uleb128 0x24
 2956 09d7 A6050000 		.4byte	.LASF128
 2957 09db 06       		.byte	0x6
 2958 09dc 5A01     		.2byte	0x15a
 2959 09de 00000000 		.4byte	.LFB167
 2960 09e2 08000000 		.4byte	.LFE167-.LFB167
 2961 09e6 01       		.uleb128 0x1
 2962 09e7 9C       		.byte	0x9c
 2963 09e8 25       		.uleb128 0x25
 2964 09e9 A1070000 		.4byte	.LASF129
 2965 09ed 06       		.byte	0x6
 2966 09ee 6601     		.2byte	0x166
 2967 09f0 00000000 		.4byte	.LFB168
 2968 09f4 08000000 		.4byte	.LFE168-.LFB168
 2969 09f8 01       		.uleb128 0x1
 2970 09f9 9C       		.byte	0x9c
 2971 09fa 080A0000 		.4byte	0xa08
 2972 09fe 26       		.uleb128 0x26
 2973 09ff 8E050000 		.4byte	.LASF136
 2974 0a03 180A0000 		.4byte	0xa18
 2975 0a07 00       		.byte	0
ARM GAS  /tmp/cc72Hk9S.s 			page 54


 2976 0a08 10       		.uleb128 0x10
 2977 0a09 36070000 		.4byte	0x736
 2978 0a0d 180A0000 		.4byte	0xa18
 2979 0a11 11       		.uleb128 0x11
 2980 0a12 4D040000 		.4byte	0x44d
 2981 0a16 0B       		.byte	0xb
 2982 0a17 00       		.byte	0
 2983 0a18 18       		.uleb128 0x18
 2984 0a19 080A0000 		.4byte	0xa08
 2985 0a1d 1F       		.uleb128 0x1f
 2986 0a1e 00030000 		.4byte	.LASF130
 2987 0a22 07       		.byte	0x7
 2988 0a23 E4       		.byte	0xe4
 2989 0a24 2C010000 		.4byte	0x12c
 2990 0a28 00000000 		.4byte	.LFB175
 2991 0a2c 0C000000 		.4byte	.LFE175-.LFB175
 2992 0a30 01       		.uleb128 0x1
 2993 0a31 9C       		.byte	0x9c
 2994 0a32 21       		.uleb128 0x21
 2995 0a33 74050000 		.4byte	.LASF131
 2996 0a37 07       		.byte	0x7
 2997 0a38 1C01     		.2byte	0x11c
 2998 0a3a 6E080000 		.4byte	0x86e
 2999 0a3e 00000000 		.4byte	.LFB178
 3000 0a42 24000000 		.4byte	.LFE178-.LFB178
 3001 0a46 01       		.uleb128 0x1
 3002 0a47 9C       		.byte	0x9c
 3003 0a48 7A0A0000 		.4byte	0xa7a
 3004 0a4c 27       		.uleb128 0x27
 3005 0a4d 97040000 		.4byte	.LASF132
 3006 0a51 07       		.byte	0x7
 3007 0a52 1C01     		.2byte	0x11c
 3008 0a54 2C010000 		.4byte	0x12c
 3009 0a58 02       		.uleb128 0x2
 3010 0a59 91       		.byte	0x91
 3011 0a5a 7C       		.sleb128 -4
 3012 0a5b 27       		.uleb128 0x27
 3013 0a5c B3070000 		.4byte	.LASF133
 3014 0a60 07       		.byte	0x7
 3015 0a61 1D01     		.2byte	0x11d
 3016 0a63 2C010000 		.4byte	0x12c
 3017 0a67 02       		.uleb128 0x2
 3018 0a68 91       		.byte	0x91
 3019 0a69 78       		.sleb128 -8
 3020 0a6a 20       		.uleb128 0x20
 3021 0a6b 656E6400 		.ascii	"end\000"
 3022 0a6f 07       		.byte	0x7
 3023 0a70 1E01     		.2byte	0x11e
 3024 0a72 2C010000 		.4byte	0x12c
 3025 0a76 02       		.uleb128 0x2
 3026 0a77 91       		.byte	0x91
 3027 0a78 74       		.sleb128 -12
 3028 0a79 00       		.byte	0
 3029 0a7a 1E       		.uleb128 0x1e
 3030 0a7b 28070000 		.4byte	.LASF134
 3031 0a7f 08       		.byte	0x8
 3032 0a80 AE       		.byte	0xae
ARM GAS  /tmp/cc72Hk9S.s 			page 55


 3033 0a81 3A020000 		.4byte	0x23a
 3034 0a85 00000000 		.4byte	.LFB188
 3035 0a89 0C000000 		.4byte	.LFE188-.LFB188
 3036 0a8d 01       		.uleb128 0x1
 3037 0a8e 9C       		.byte	0x9c
 3038 0a8f 28       		.uleb128 0x28
 3039 0a90 C1070000 		.4byte	.LASF135
 3040 0a94 08       		.byte	0x8
 3041 0a95 F5       		.byte	0xf5
 3042 0a96 3A020000 		.4byte	0x23a
 3043 0a9a 00000000 		.4byte	.LFB192
 3044 0a9e 16000000 		.4byte	.LFE192-.LFB192
 3045 0aa2 01       		.uleb128 0x1
 3046 0aa3 9C       		.byte	0x9c
 3047 0aa4 BF0A0000 		.4byte	0xabf
 3048 0aa8 29       		.uleb128 0x29
 3049 0aa9 747000   		.ascii	"tp\000"
 3050 0aac 08       		.byte	0x8
 3051 0aad F5       		.byte	0xf5
 3052 0aae 3A020000 		.4byte	0x23a
 3053 0ab2 02       		.uleb128 0x2
 3054 0ab3 91       		.byte	0x91
 3055 0ab4 74       		.sleb128 -12
 3056 0ab5 26       		.uleb128 0x26
 3057 0ab6 8E050000 		.4byte	.LASF136
 3058 0aba BF0A0000 		.4byte	0xabf
 3059 0abe 00       		.byte	0
 3060 0abf 18       		.uleb128 0x18
 3061 0ac0 080A0000 		.4byte	0xa08
 3062 0ac4 25       		.uleb128 0x25
 3063 0ac5 50030000 		.4byte	.LASF137
 3064 0ac9 08       		.byte	0x8
 3065 0aca 0801     		.2byte	0x108
 3066 0acc 00000000 		.4byte	.LFB193
 3067 0ad0 14000000 		.4byte	.LFE193-.LFB193
 3068 0ad4 01       		.uleb128 0x1
 3069 0ad5 9C       		.byte	0x9c
 3070 0ad6 F30A0000 		.4byte	0xaf3
 3071 0ada 27       		.uleb128 0x27
 3072 0adb 97040000 		.4byte	.LASF132
 3073 0adf 08       		.byte	0x8
 3074 0ae0 0801     		.2byte	0x108
 3075 0ae2 2C010000 		.4byte	0x12c
 3076 0ae6 02       		.uleb128 0x2
 3077 0ae7 91       		.byte	0x91
 3078 0ae8 74       		.sleb128 -12
 3079 0ae9 26       		.uleb128 0x26
 3080 0aea 8E050000 		.4byte	.LASF136
 3081 0aee F30A0000 		.4byte	0xaf3
 3082 0af2 00       		.byte	0
 3083 0af3 18       		.uleb128 0x18
 3084 0af4 080A0000 		.4byte	0xa08
 3085 0af8 25       		.uleb128 0x25
 3086 0af9 5F060000 		.4byte	.LASF138
 3087 0afd 08       		.byte	0x8
 3088 0afe 3801     		.2byte	0x138
 3089 0b00 00000000 		.4byte	.LFB196
ARM GAS  /tmp/cc72Hk9S.s 			page 56


 3090 0b04 22000000 		.4byte	.LFE196-.LFB196
 3091 0b08 01       		.uleb128 0x1
 3092 0b09 9C       		.byte	0x9c
 3093 0b0a 440B0000 		.4byte	0xb44
 3094 0b0e 20       		.uleb128 0x20
 3095 0b0f 74717000 		.ascii	"tqp\000"
 3096 0b13 08       		.byte	0x8
 3097 0b14 3801     		.2byte	0x138
 3098 0b16 9B080000 		.4byte	0x89b
 3099 0b1a 02       		.uleb128 0x2
 3100 0b1b 91       		.byte	0x91
 3101 0b1c 6C       		.sleb128 -20
 3102 0b1d 20       		.uleb128 0x20
 3103 0b1e 6D736700 		.ascii	"msg\000"
 3104 0b22 08       		.byte	0x8
 3105 0b23 3801     		.2byte	0x138
 3106 0b25 0B010000 		.4byte	0x10b
 3107 0b29 02       		.uleb128 0x2
 3108 0b2a 91       		.byte	0x91
 3109 0b2b 68       		.sleb128 -24
 3110 0b2c 22       		.uleb128 0x22
 3111 0b2d 747000   		.ascii	"tp\000"
 3112 0b30 08       		.byte	0x8
 3113 0b31 3901     		.2byte	0x139
 3114 0b33 3A020000 		.4byte	0x23a
 3115 0b37 02       		.uleb128 0x2
 3116 0b38 91       		.byte	0x91
 3117 0b39 74       		.sleb128 -12
 3118 0b3a 26       		.uleb128 0x26
 3119 0b3b 8E050000 		.4byte	.LASF136
 3120 0b3f 540B0000 		.4byte	0xb54
 3121 0b43 00       		.byte	0
 3122 0b44 10       		.uleb128 0x10
 3123 0b45 36070000 		.4byte	0x736
 3124 0b49 540B0000 		.4byte	0xb54
 3125 0b4d 11       		.uleb128 0x11
 3126 0b4e 4D040000 		.4byte	0x44d
 3127 0b52 13       		.byte	0x13
 3128 0b53 00       		.byte	0
 3129 0b54 18       		.uleb128 0x18
 3130 0b55 440B0000 		.4byte	0xb44
 3131 0b59 2A       		.uleb128 0x2a
 3132 0b5a 20030000 		.4byte	.LASF140
 3133 0b5e 09       		.byte	0x9
 3134 0b5f 5B       		.byte	0x5b
 3135 0b60 3A020000 		.4byte	0x23a
 3136 0b64 00000000 		.4byte	.LFB240
 3137 0b68 78000000 		.4byte	.LFE240-.LFB240
 3138 0b6c 01       		.uleb128 0x1
 3139 0b6d 9C       		.byte	0x9c
 3140 0b6e 8E0B0000 		.4byte	0xb8e
 3141 0b72 29       		.uleb128 0x29
 3142 0b73 747000   		.ascii	"tp\000"
 3143 0b76 09       		.byte	0x9
 3144 0b77 5B       		.byte	0x5b
 3145 0b78 3A020000 		.4byte	0x23a
 3146 0b7c 02       		.uleb128 0x2
ARM GAS  /tmp/cc72Hk9S.s 			page 57


 3147 0b7d 91       		.byte	0x91
 3148 0b7e 74       		.sleb128 -12
 3149 0b7f 2B       		.uleb128 0x2b
 3150 0b80 A8040000 		.4byte	.LASF139
 3151 0b84 09       		.byte	0x9
 3152 0b85 5B       		.byte	0x5b
 3153 0b86 00010000 		.4byte	0x100
 3154 0b8a 02       		.uleb128 0x2
 3155 0b8b 91       		.byte	0x91
 3156 0b8c 70       		.sleb128 -16
 3157 0b8d 00       		.byte	0
 3158 0b8e 2A       		.uleb128 0x2a
 3159 0b8f 78010000 		.4byte	.LASF141
 3160 0b93 09       		.byte	0x9
 3161 0b94 B1       		.byte	0xb1
 3162 0b95 3A020000 		.4byte	0x23a
 3163 0b99 00000000 		.4byte	.LFB241
 3164 0b9d 4C000000 		.4byte	.LFE241-.LFB241
 3165 0ba1 01       		.uleb128 0x1
 3166 0ba2 9C       		.byte	0x9c
 3167 0ba3 030C0000 		.4byte	0xc03
 3168 0ba7 29       		.uleb128 0x29
 3169 0ba8 77737000 		.ascii	"wsp\000"
 3170 0bac 09       		.byte	0x9
 3171 0bad B1       		.byte	0xb1
 3172 0bae 17030000 		.4byte	0x317
 3173 0bb2 02       		.uleb128 0x2
 3174 0bb3 91       		.byte	0x91
 3175 0bb4 6C       		.sleb128 -20
 3176 0bb5 2B       		.uleb128 0x2b
 3177 0bb6 5E070000 		.4byte	.LASF142
 3178 0bba 09       		.byte	0x9
 3179 0bbb B1       		.byte	0xb1
 3180 0bbc 28000000 		.4byte	0x28
 3181 0bc0 02       		.uleb128 0x2
 3182 0bc1 91       		.byte	0x91
 3183 0bc2 68       		.sleb128 -24
 3184 0bc3 2B       		.uleb128 0x2b
 3185 0bc4 A8040000 		.4byte	.LASF139
 3186 0bc8 09       		.byte	0x9
 3187 0bc9 B2       		.byte	0xb2
 3188 0bca 00010000 		.4byte	0x100
 3189 0bce 02       		.uleb128 0x2
 3190 0bcf 91       		.byte	0x91
 3191 0bd0 64       		.sleb128 -28
 3192 0bd1 29       		.uleb128 0x29
 3193 0bd2 706600   		.ascii	"pf\000"
 3194 0bd5 09       		.byte	0x9
 3195 0bd6 B2       		.byte	0xb2
 3196 0bd7 58070000 		.4byte	0x758
 3197 0bdb 02       		.uleb128 0x2
 3198 0bdc 91       		.byte	0x91
 3199 0bdd 60       		.sleb128 -32
 3200 0bde 29       		.uleb128 0x29
 3201 0bdf 61726700 		.ascii	"arg\000"
 3202 0be3 09       		.byte	0x9
 3203 0be4 B2       		.byte	0xb2
ARM GAS  /tmp/cc72Hk9S.s 			page 58


 3204 0be5 17030000 		.4byte	0x317
 3205 0be9 02       		.uleb128 0x2
 3206 0bea 91       		.byte	0x91
 3207 0beb 00       		.sleb128 0
 3208 0bec 2C       		.uleb128 0x2c
 3209 0bed 747000   		.ascii	"tp\000"
 3210 0bf0 09       		.byte	0x9
 3211 0bf1 B5       		.byte	0xb5
 3212 0bf2 3A020000 		.4byte	0x23a
 3213 0bf6 02       		.uleb128 0x2
 3214 0bf7 91       		.byte	0x91
 3215 0bf8 74       		.sleb128 -12
 3216 0bf9 26       		.uleb128 0x26
 3217 0bfa 8E050000 		.4byte	.LASF136
 3218 0bfe 130C0000 		.4byte	0xc13
 3219 0c02 00       		.byte	0
 3220 0c03 10       		.uleb128 0x10
 3221 0c04 36070000 		.4byte	0x736
 3222 0c08 130C0000 		.4byte	0xc13
 3223 0c0c 11       		.uleb128 0x11
 3224 0c0d 4D040000 		.4byte	0x44d
 3225 0c11 0C       		.byte	0xc
 3226 0c12 00       		.byte	0
 3227 0c13 18       		.uleb128 0x18
 3228 0c14 030C0000 		.4byte	0xc03
 3229 0c18 2A       		.uleb128 0x2a
 3230 0c19 F2030000 		.4byte	.LASF143
 3231 0c1d 09       		.byte	0x9
 3232 0c1e D0       		.byte	0xd0
 3233 0c1f 3A020000 		.4byte	0x23a
 3234 0c23 00000000 		.4byte	.LFB242
 3235 0c27 38000000 		.4byte	.LFE242-.LFB242
 3236 0c2b 01       		.uleb128 0x1
 3237 0c2c 9C       		.byte	0x9c
 3238 0c2d 840C0000 		.4byte	0xc84
 3239 0c31 29       		.uleb128 0x29
 3240 0c32 77737000 		.ascii	"wsp\000"
 3241 0c36 09       		.byte	0x9
 3242 0c37 D0       		.byte	0xd0
 3243 0c38 17030000 		.4byte	0x317
 3244 0c3c 02       		.uleb128 0x2
 3245 0c3d 91       		.byte	0x91
 3246 0c3e 6C       		.sleb128 -20
 3247 0c3f 2B       		.uleb128 0x2b
 3248 0c40 5E070000 		.4byte	.LASF142
 3249 0c44 09       		.byte	0x9
 3250 0c45 D0       		.byte	0xd0
 3251 0c46 28000000 		.4byte	0x28
 3252 0c4a 02       		.uleb128 0x2
 3253 0c4b 91       		.byte	0x91
 3254 0c4c 68       		.sleb128 -24
 3255 0c4d 2B       		.uleb128 0x2b
 3256 0c4e A8040000 		.4byte	.LASF139
 3257 0c52 09       		.byte	0x9
 3258 0c53 D1       		.byte	0xd1
 3259 0c54 00010000 		.4byte	0x100
 3260 0c58 02       		.uleb128 0x2
ARM GAS  /tmp/cc72Hk9S.s 			page 59


 3261 0c59 91       		.byte	0x91
 3262 0c5a 64       		.sleb128 -28
 3263 0c5b 29       		.uleb128 0x29
 3264 0c5c 706600   		.ascii	"pf\000"
 3265 0c5f 09       		.byte	0x9
 3266 0c60 D1       		.byte	0xd1
 3267 0c61 58070000 		.4byte	0x758
 3268 0c65 02       		.uleb128 0x2
 3269 0c66 91       		.byte	0x91
 3270 0c67 60       		.sleb128 -32
 3271 0c68 29       		.uleb128 0x29
 3272 0c69 61726700 		.ascii	"arg\000"
 3273 0c6d 09       		.byte	0x9
 3274 0c6e D1       		.byte	0xd1
 3275 0c6f 17030000 		.4byte	0x317
 3276 0c73 02       		.uleb128 0x2
 3277 0c74 91       		.byte	0x91
 3278 0c75 00       		.sleb128 0
 3279 0c76 2C       		.uleb128 0x2c
 3280 0c77 747000   		.ascii	"tp\000"
 3281 0c7a 09       		.byte	0x9
 3282 0c7b D2       		.byte	0xd2
 3283 0c7c 3A020000 		.4byte	0x23a
 3284 0c80 02       		.uleb128 0x2
 3285 0c81 91       		.byte	0x91
 3286 0c82 74       		.sleb128 -12
 3287 0c83 00       		.byte	0
 3288 0c84 2A       		.uleb128 0x2a
 3289 0c85 C5040000 		.4byte	.LASF144
 3290 0c89 09       		.byte	0x9
 3291 0c8a EE       		.byte	0xee
 3292 0c8b 3A020000 		.4byte	0x23a
 3293 0c8f 00000000 		.4byte	.LFB243
 3294 0c93 20000000 		.4byte	.LFE243-.LFB243
 3295 0c97 01       		.uleb128 0x1
 3296 0c98 9C       		.byte	0x9c
 3297 0c99 AB0C0000 		.4byte	0xcab
 3298 0c9d 29       		.uleb128 0x29
 3299 0c9e 747000   		.ascii	"tp\000"
 3300 0ca1 09       		.byte	0x9
 3301 0ca2 EE       		.byte	0xee
 3302 0ca3 3A020000 		.4byte	0x23a
 3303 0ca7 02       		.uleb128 0x2
 3304 0ca8 91       		.byte	0x91
 3305 0ca9 74       		.sleb128 -12
 3306 0caa 00       		.byte	0
 3307 0cab 2D       		.uleb128 0x2d
 3308 0cac E9020000 		.4byte	.LASF145
 3309 0cb0 09       		.byte	0x9
 3310 0cb1 0301     		.2byte	0x103
 3311 0cb3 00010000 		.4byte	0x100
 3312 0cb7 00000000 		.4byte	.LFB244
 3313 0cbb 54000000 		.4byte	.LFE244-.LFB244
 3314 0cbf 01       		.uleb128 0x1
 3315 0cc0 9C       		.byte	0x9c
 3316 0cc1 ED0C0000 		.4byte	0xced
 3317 0cc5 27       		.uleb128 0x27
ARM GAS  /tmp/cc72Hk9S.s 			page 60


 3318 0cc6 A0030000 		.4byte	.LASF146
 3319 0cca 09       		.byte	0x9
 3320 0ccb 0301     		.2byte	0x103
 3321 0ccd 00010000 		.4byte	0x100
 3322 0cd1 02       		.uleb128 0x2
 3323 0cd2 91       		.byte	0x91
 3324 0cd3 6C       		.sleb128 -20
 3325 0cd4 2E       		.uleb128 0x2e
 3326 0cd5 08000000 		.4byte	.LASF147
 3327 0cd9 09       		.byte	0x9
 3328 0cda 0401     		.2byte	0x104
 3329 0cdc 00010000 		.4byte	0x100
 3330 0ce0 02       		.uleb128 0x2
 3331 0ce1 91       		.byte	0x91
 3332 0ce2 74       		.sleb128 -12
 3333 0ce3 26       		.uleb128 0x26
 3334 0ce4 8E050000 		.4byte	.LASF136
 3335 0ce8 FD0C0000 		.4byte	0xcfd
 3336 0cec 00       		.byte	0
 3337 0ced 10       		.uleb128 0x10
 3338 0cee 36070000 		.4byte	0x736
 3339 0cf2 FD0C0000 		.4byte	0xcfd
 3340 0cf6 11       		.uleb128 0x11
 3341 0cf7 4D040000 		.4byte	0x44d
 3342 0cfb 10       		.byte	0x10
 3343 0cfc 00       		.byte	0
 3344 0cfd 18       		.uleb128 0x18
 3345 0cfe ED0C0000 		.4byte	0xced
 3346 0d02 2F       		.uleb128 0x2f
 3347 0d03 B4030000 		.4byte	.LASF148
 3348 0d07 09       		.byte	0x9
 3349 0d08 2501     		.2byte	0x125
 3350 0d0a 00000000 		.4byte	.LFB245
 3351 0d0e 22000000 		.4byte	.LFE245-.LFB245
 3352 0d12 01       		.uleb128 0x1
 3353 0d13 9C       		.byte	0x9c
 3354 0d14 270D0000 		.4byte	0xd27
 3355 0d18 20       		.uleb128 0x20
 3356 0d19 747000   		.ascii	"tp\000"
 3357 0d1c 09       		.byte	0x9
 3358 0d1d 2501     		.2byte	0x125
 3359 0d1f 3A020000 		.4byte	0x23a
 3360 0d23 02       		.uleb128 0x2
 3361 0d24 91       		.byte	0x91
 3362 0d25 74       		.sleb128 -12
 3363 0d26 00       		.byte	0
 3364 0d27 2F       		.uleb128 0x2f
 3365 0d28 DE050000 		.4byte	.LASF149
 3366 0d2c 09       		.byte	0x9
 3367 0d2d 3801     		.2byte	0x138
 3368 0d2f 00000000 		.4byte	.LFB246
 3369 0d33 1A000000 		.4byte	.LFE246-.LFB246
 3370 0d37 01       		.uleb128 0x1
 3371 0d38 9C       		.byte	0x9c
 3372 0d39 4D0D0000 		.4byte	0xd4d
 3373 0d3d 27       		.uleb128 0x27
 3374 0d3e 97040000 		.4byte	.LASF132
ARM GAS  /tmp/cc72Hk9S.s 			page 61


 3375 0d42 09       		.byte	0x9
 3376 0d43 3801     		.2byte	0x138
 3377 0d45 2C010000 		.4byte	0x12c
 3378 0d49 02       		.uleb128 0x2
 3379 0d4a 91       		.byte	0x91
 3380 0d4b 74       		.sleb128 -12
 3381 0d4c 00       		.byte	0
 3382 0d4d 2F       		.uleb128 0x2f
 3383 0d4e B5040000 		.4byte	.LASF150
 3384 0d52 09       		.byte	0x9
 3385 0d53 4C01     		.2byte	0x14c
 3386 0d55 00000000 		.4byte	.LFB247
 3387 0d59 2C000000 		.4byte	.LFE247-.LFB247
 3388 0d5d 01       		.uleb128 0x1
 3389 0d5e 9C       		.byte	0x9c
 3390 0d5f 730D0000 		.4byte	0xd73
 3391 0d63 27       		.uleb128 0x27
 3392 0d64 97040000 		.4byte	.LASF132
 3393 0d68 09       		.byte	0x9
 3394 0d69 4C01     		.2byte	0x14c
 3395 0d6b 2C010000 		.4byte	0x12c
 3396 0d6f 02       		.uleb128 0x2
 3397 0d70 91       		.byte	0x91
 3398 0d71 74       		.sleb128 -12
 3399 0d72 00       		.byte	0
 3400 0d73 2D       		.uleb128 0x2d
 3401 0d74 79000000 		.4byte	.LASF151
 3402 0d78 09       		.byte	0x9
 3403 0d79 6401     		.2byte	0x164
 3404 0d7b 2C010000 		.4byte	0x12c
 3405 0d7f 00000000 		.4byte	.LFB248
 3406 0d83 3C000000 		.4byte	.LFE248-.LFB248
 3407 0d87 01       		.uleb128 0x1
 3408 0d88 9C       		.byte	0x9c
 3409 0d89 BB0D0000 		.4byte	0xdbb
 3410 0d8d 27       		.uleb128 0x27
 3411 0d8e 59000000 		.4byte	.LASF152
 3412 0d92 09       		.byte	0x9
 3413 0d93 6401     		.2byte	0x164
 3414 0d95 2C010000 		.4byte	0x12c
 3415 0d99 02       		.uleb128 0x2
 3416 0d9a 91       		.byte	0x91
 3417 0d9b 6C       		.sleb128 -20
 3418 0d9c 27       		.uleb128 0x27
 3419 0d9d 29000000 		.4byte	.LASF153
 3420 0da1 09       		.byte	0x9
 3421 0da2 6401     		.2byte	0x164
 3422 0da4 2C010000 		.4byte	0x12c
 3423 0da8 02       		.uleb128 0x2
 3424 0da9 91       		.byte	0x91
 3425 0daa 68       		.sleb128 -24
 3426 0dab 2E       		.uleb128 0x2e
 3427 0dac 97040000 		.4byte	.LASF132
 3428 0db0 09       		.byte	0x9
 3429 0db1 6501     		.2byte	0x165
 3430 0db3 2C010000 		.4byte	0x12c
 3431 0db7 02       		.uleb128 0x2
ARM GAS  /tmp/cc72Hk9S.s 			page 62


 3432 0db8 91       		.byte	0x91
 3433 0db9 74       		.sleb128 -12
 3434 0dba 00       		.byte	0
 3435 0dbb 30       		.uleb128 0x30
 3436 0dbc 3E070000 		.4byte	.LASF171
 3437 0dc0 09       		.byte	0x9
 3438 0dc1 7801     		.2byte	0x178
 3439 0dc3 00000000 		.4byte	.LFB249
 3440 0dc7 10000000 		.4byte	.LFE249-.LFB249
 3441 0dcb 01       		.uleb128 0x1
 3442 0dcc 9C       		.byte	0x9c
 3443 0dcd 2F       		.uleb128 0x2f
 3444 0dce 44010000 		.4byte	.LASF154
 3445 0dd2 09       		.byte	0x9
 3446 0dd3 8D01     		.2byte	0x18d
 3447 0dd5 00000000 		.4byte	.LFB250
 3448 0dd9 16000000 		.4byte	.LFE250-.LFB250
 3449 0ddd 01       		.uleb128 0x1
 3450 0dde 9C       		.byte	0x9c
 3451 0ddf F30D0000 		.4byte	0xdf3
 3452 0de3 20       		.uleb128 0x20
 3453 0de4 6D736700 		.ascii	"msg\000"
 3454 0de8 09       		.byte	0x9
 3455 0de9 8D01     		.2byte	0x18d
 3456 0deb 0B010000 		.4byte	0x10b
 3457 0def 02       		.uleb128 0x2
 3458 0df0 91       		.byte	0x91
 3459 0df1 74       		.sleb128 -12
 3460 0df2 00       		.byte	0
 3461 0df3 2F       		.uleb128 0x2f
 3462 0df4 A6000000 		.4byte	.LASF155
 3463 0df8 09       		.byte	0x9
 3464 0df9 A201     		.2byte	0x1a2
 3465 0dfb 00000000 		.4byte	.LFB251
 3466 0dff 68000000 		.4byte	.LFE251-.LFB251
 3467 0e03 01       		.uleb128 0x1
 3468 0e04 9C       		.byte	0x9c
 3469 0e05 300E0000 		.4byte	0xe30
 3470 0e09 20       		.uleb128 0x20
 3471 0e0a 6D736700 		.ascii	"msg\000"
 3472 0e0e 09       		.byte	0x9
 3473 0e0f A201     		.2byte	0x1a2
 3474 0e11 0B010000 		.4byte	0x10b
 3475 0e15 02       		.uleb128 0x2
 3476 0e16 91       		.byte	0x91
 3477 0e17 6C       		.sleb128 -20
 3478 0e18 22       		.uleb128 0x22
 3479 0e19 747000   		.ascii	"tp\000"
 3480 0e1c 09       		.byte	0x9
 3481 0e1d A301     		.2byte	0x1a3
 3482 0e1f 3A020000 		.4byte	0x23a
 3483 0e23 02       		.uleb128 0x2
 3484 0e24 91       		.byte	0x91
 3485 0e25 74       		.sleb128 -12
 3486 0e26 26       		.uleb128 0x26
 3487 0e27 8E050000 		.4byte	.LASF136
 3488 0e2b 400E0000 		.4byte	0xe40
ARM GAS  /tmp/cc72Hk9S.s 			page 63


 3489 0e2f 00       		.byte	0
 3490 0e30 10       		.uleb128 0x10
 3491 0e31 36070000 		.4byte	0x736
 3492 0e35 400E0000 		.4byte	0xe40
 3493 0e39 11       		.uleb128 0x11
 3494 0e3a 4D040000 		.4byte	0x44d
 3495 0e3e 0A       		.byte	0xa
 3496 0e3f 00       		.byte	0
 3497 0e40 18       		.uleb128 0x18
 3498 0e41 300E0000 		.4byte	0xe30
 3499 0e45 2D       		.uleb128 0x2d
 3500 0e46 F1060000 		.4byte	.LASF156
 3501 0e4a 09       		.byte	0x9
 3502 0e4b DB01     		.2byte	0x1db
 3503 0e4d 0B010000 		.4byte	0x10b
 3504 0e51 00000000 		.4byte	.LFB252
 3505 0e55 48000000 		.4byte	.LFE252-.LFB252
 3506 0e59 01       		.uleb128 0x1
 3507 0e5a 9C       		.byte	0x9c
 3508 0e5b 860E0000 		.4byte	0xe86
 3509 0e5f 20       		.uleb128 0x20
 3510 0e60 747000   		.ascii	"tp\000"
 3511 0e63 09       		.byte	0x9
 3512 0e64 DB01     		.2byte	0x1db
 3513 0e66 3A020000 		.4byte	0x23a
 3514 0e6a 02       		.uleb128 0x2
 3515 0e6b 91       		.byte	0x91
 3516 0e6c 6C       		.sleb128 -20
 3517 0e6d 22       		.uleb128 0x22
 3518 0e6e 6D736700 		.ascii	"msg\000"
 3519 0e72 09       		.byte	0x9
 3520 0e73 DC01     		.2byte	0x1dc
 3521 0e75 0B010000 		.4byte	0x10b
 3522 0e79 02       		.uleb128 0x2
 3523 0e7a 91       		.byte	0x91
 3524 0e7b 74       		.sleb128 -12
 3525 0e7c 26       		.uleb128 0x26
 3526 0e7d 8E050000 		.4byte	.LASF136
 3527 0e81 960E0000 		.4byte	0xe96
 3528 0e85 00       		.byte	0
 3529 0e86 10       		.uleb128 0x10
 3530 0e87 36070000 		.4byte	0x736
 3531 0e8b 960E0000 		.4byte	0xe96
 3532 0e8f 11       		.uleb128 0x11
 3533 0e90 4D040000 		.4byte	0x44d
 3534 0e94 09       		.byte	0x9
 3535 0e95 00       		.byte	0
 3536 0e96 18       		.uleb128 0x18
 3537 0e97 860E0000 		.4byte	0xe86
 3538 0e9b 2D       		.uleb128 0x2d
 3539 0e9c D0040000 		.4byte	.LASF157
 3540 0ea0 09       		.byte	0x9
 3541 0ea1 FF01     		.2byte	0x1ff
 3542 0ea3 0B010000 		.4byte	0x10b
 3543 0ea7 00000000 		.4byte	.LFB253
 3544 0eab 2E000000 		.4byte	.LFE253-.LFB253
 3545 0eaf 01       		.uleb128 0x1
ARM GAS  /tmp/cc72Hk9S.s 			page 64


 3546 0eb0 9C       		.byte	0x9c
 3547 0eb1 DC0E0000 		.4byte	0xedc
 3548 0eb5 20       		.uleb128 0x20
 3549 0eb6 74727000 		.ascii	"trp\000"
 3550 0eba 09       		.byte	0x9
 3551 0ebb FF01     		.2byte	0x1ff
 3552 0ebd C3060000 		.4byte	0x6c3
 3553 0ec1 02       		.uleb128 0x2
 3554 0ec2 91       		.byte	0x91
 3555 0ec3 6C       		.sleb128 -20
 3556 0ec4 22       		.uleb128 0x22
 3557 0ec5 747000   		.ascii	"tp\000"
 3558 0ec8 09       		.byte	0x9
 3559 0ec9 0002     		.2byte	0x200
 3560 0ecb 3A020000 		.4byte	0x23a
 3561 0ecf 02       		.uleb128 0x2
 3562 0ed0 91       		.byte	0x91
 3563 0ed1 74       		.sleb128 -12
 3564 0ed2 26       		.uleb128 0x26
 3565 0ed3 8E050000 		.4byte	.LASF136
 3566 0ed7 EC0E0000 		.4byte	0xeec
 3567 0edb 00       		.byte	0
 3568 0edc 10       		.uleb128 0x10
 3569 0edd 36070000 		.4byte	0x736
 3570 0ee1 EC0E0000 		.4byte	0xeec
 3571 0ee5 11       		.uleb128 0x11
 3572 0ee6 4D040000 		.4byte	0x44d
 3573 0eea 0D       		.byte	0xd
 3574 0eeb 00       		.byte	0
 3575 0eec 18       		.uleb128 0x18
 3576 0eed DC0E0000 		.4byte	0xedc
 3577 0ef1 2D       		.uleb128 0x2d
 3578 0ef2 13040000 		.4byte	.LASF158
 3579 0ef6 09       		.byte	0x9
 3580 0ef7 1E02     		.2byte	0x21e
 3581 0ef9 0B010000 		.4byte	0x10b
 3582 0efd 00000000 		.4byte	.LFB254
 3583 0f01 38000000 		.4byte	.LFE254-.LFB254
 3584 0f05 01       		.uleb128 0x1
 3585 0f06 9C       		.byte	0x9c
 3586 0f07 410F0000 		.4byte	0xf41
 3587 0f0b 20       		.uleb128 0x20
 3588 0f0c 74727000 		.ascii	"trp\000"
 3589 0f10 09       		.byte	0x9
 3590 0f11 1E02     		.2byte	0x21e
 3591 0f13 C3060000 		.4byte	0x6c3
 3592 0f17 02       		.uleb128 0x2
 3593 0f18 91       		.byte	0x91
 3594 0f19 6C       		.sleb128 -20
 3595 0f1a 27       		.uleb128 0x27
 3596 0f1b 5C030000 		.4byte	.LASF159
 3597 0f1f 09       		.byte	0x9
 3598 0f20 1E02     		.2byte	0x21e
 3599 0f22 2C010000 		.4byte	0x12c
 3600 0f26 02       		.uleb128 0x2
 3601 0f27 91       		.byte	0x91
 3602 0f28 68       		.sleb128 -24
ARM GAS  /tmp/cc72Hk9S.s 			page 65


 3603 0f29 22       		.uleb128 0x22
 3604 0f2a 747000   		.ascii	"tp\000"
 3605 0f2d 09       		.byte	0x9
 3606 0f2e 1F02     		.2byte	0x21f
 3607 0f30 3A020000 		.4byte	0x23a
 3608 0f34 02       		.uleb128 0x2
 3609 0f35 91       		.byte	0x91
 3610 0f36 74       		.sleb128 -12
 3611 0f37 26       		.uleb128 0x26
 3612 0f38 8E050000 		.4byte	.LASF136
 3613 0f3c 510F0000 		.4byte	0xf51
 3614 0f40 00       		.byte	0
 3615 0f41 10       		.uleb128 0x10
 3616 0f42 36070000 		.4byte	0x736
 3617 0f46 510F0000 		.4byte	0xf51
 3618 0f4a 11       		.uleb128 0x11
 3619 0f4b 4D040000 		.4byte	0x44d
 3620 0f4f 14       		.byte	0x14
 3621 0f50 00       		.byte	0
 3622 0f51 18       		.uleb128 0x18
 3623 0f52 410F0000 		.4byte	0xf41
 3624 0f56 2F       		.uleb128 0x2f
 3625 0f57 A8020000 		.4byte	.LASF160
 3626 0f5b 09       		.byte	0x9
 3627 0f5c 3702     		.2byte	0x237
 3628 0f5e 00000000 		.4byte	.LFB255
 3629 0f62 2E000000 		.4byte	.LFE255-.LFB255
 3630 0f66 01       		.uleb128 0x1
 3631 0f67 9C       		.byte	0x9c
 3632 0f68 AC0F0000 		.4byte	0xfac
 3633 0f6c 20       		.uleb128 0x20
 3634 0f6d 74727000 		.ascii	"trp\000"
 3635 0f71 09       		.byte	0x9
 3636 0f72 3702     		.2byte	0x237
 3637 0f74 C3060000 		.4byte	0x6c3
 3638 0f78 02       		.uleb128 0x2
 3639 0f79 91       		.byte	0x91
 3640 0f7a 6C       		.sleb128 -20
 3641 0f7b 20       		.uleb128 0x20
 3642 0f7c 6D736700 		.ascii	"msg\000"
 3643 0f80 09       		.byte	0x9
 3644 0f81 3702     		.2byte	0x237
 3645 0f83 0B010000 		.4byte	0x10b
 3646 0f87 02       		.uleb128 0x2
 3647 0f88 91       		.byte	0x91
 3648 0f89 68       		.sleb128 -24
 3649 0f8a 26       		.uleb128 0x26
 3650 0f8b 8E050000 		.4byte	.LASF136
 3651 0f8f AC0F0000 		.4byte	0xfac
 3652 0f93 31       		.uleb128 0x31
 3653 0f94 10000000 		.4byte	.LBB10
 3654 0f98 18000000 		.4byte	.LBE10-.LBB10
 3655 0f9c 22       		.uleb128 0x22
 3656 0f9d 747000   		.ascii	"tp\000"
 3657 0fa0 09       		.byte	0x9
 3658 0fa1 3A02     		.2byte	0x23a
 3659 0fa3 3A020000 		.4byte	0x23a
ARM GAS  /tmp/cc72Hk9S.s 			page 66


 3660 0fa7 02       		.uleb128 0x2
 3661 0fa8 91       		.byte	0x91
 3662 0fa9 74       		.sleb128 -12
 3663 0faa 00       		.byte	0
 3664 0fab 00       		.byte	0
 3665 0fac 18       		.uleb128 0x18
 3666 0fad 030C0000 		.4byte	0xc03
 3667 0fb1 2F       		.uleb128 0x2f
 3668 0fb2 CE020000 		.4byte	.LASF161
 3669 0fb6 09       		.byte	0x9
 3670 0fb7 4F02     		.2byte	0x24f
 3671 0fb9 00000000 		.4byte	.LFB256
 3672 0fbd 2A000000 		.4byte	.LFE256-.LFB256
 3673 0fc1 01       		.uleb128 0x1
 3674 0fc2 9C       		.byte	0x9c
 3675 0fc3 07100000 		.4byte	0x1007
 3676 0fc7 20       		.uleb128 0x20
 3677 0fc8 74727000 		.ascii	"trp\000"
 3678 0fcc 09       		.byte	0x9
 3679 0fcd 4F02     		.2byte	0x24f
 3680 0fcf C3060000 		.4byte	0x6c3
 3681 0fd3 02       		.uleb128 0x2
 3682 0fd4 91       		.byte	0x91
 3683 0fd5 6C       		.sleb128 -20
 3684 0fd6 20       		.uleb128 0x20
 3685 0fd7 6D736700 		.ascii	"msg\000"
 3686 0fdb 09       		.byte	0x9
 3687 0fdc 4F02     		.2byte	0x24f
 3688 0fde 0B010000 		.4byte	0x10b
 3689 0fe2 02       		.uleb128 0x2
 3690 0fe3 91       		.byte	0x91
 3691 0fe4 68       		.sleb128 -24
 3692 0fe5 26       		.uleb128 0x26
 3693 0fe6 8E050000 		.4byte	.LASF136
 3694 0fea 07100000 		.4byte	0x1007
 3695 0fee 31       		.uleb128 0x31
 3696 0fef 10000000 		.4byte	.LBB11
 3697 0ff3 14000000 		.4byte	.LBE11-.LBB11
 3698 0ff7 22       		.uleb128 0x22
 3699 0ff8 747000   		.ascii	"tp\000"
 3700 0ffb 09       		.byte	0x9
 3701 0ffc 5202     		.2byte	0x252
 3702 0ffe 3A020000 		.4byte	0x23a
 3703 1002 02       		.uleb128 0x2
 3704 1003 91       		.byte	0x91
 3705 1004 74       		.sleb128 -12
 3706 1005 00       		.byte	0
 3707 1006 00       		.byte	0
 3708 1007 18       		.uleb128 0x18
 3709 1008 030C0000 		.4byte	0xc03
 3710 100c 2F       		.uleb128 0x2f
 3711 100d 14060000 		.4byte	.LASF162
 3712 1011 09       		.byte	0x9
 3713 1012 6602     		.2byte	0x266
 3714 1014 00000000 		.4byte	.LFB257
 3715 1018 1E000000 		.4byte	.LFE257-.LFB257
 3716 101c 01       		.uleb128 0x1
ARM GAS  /tmp/cc72Hk9S.s 			page 67


 3717 101d 9C       		.byte	0x9c
 3718 101e 41100000 		.4byte	0x1041
 3719 1022 20       		.uleb128 0x20
 3720 1023 74727000 		.ascii	"trp\000"
 3721 1027 09       		.byte	0x9
 3722 1028 6602     		.2byte	0x266
 3723 102a C3060000 		.4byte	0x6c3
 3724 102e 02       		.uleb128 0x2
 3725 102f 91       		.byte	0x91
 3726 1030 74       		.sleb128 -12
 3727 1031 20       		.uleb128 0x20
 3728 1032 6D736700 		.ascii	"msg\000"
 3729 1036 09       		.byte	0x9
 3730 1037 6602     		.2byte	0x266
 3731 1039 0B010000 		.4byte	0x10b
 3732 103d 02       		.uleb128 0x2
 3733 103e 91       		.byte	0x91
 3734 103f 70       		.sleb128 -16
 3735 1040 00       		.byte	0
 3736 1041 2D       		.uleb128 0x2d
 3737 1042 DB070000 		.4byte	.LASF163
 3738 1046 09       		.byte	0x9
 3739 1047 8402     		.2byte	0x284
 3740 1049 0B010000 		.4byte	0x10b
 3741 104d 00000000 		.4byte	.LFB258
 3742 1051 38000000 		.4byte	.LFE258-.LFB258
 3743 1055 01       		.uleb128 0x1
 3744 1056 9C       		.byte	0x9c
 3745 1057 7A100000 		.4byte	0x107a
 3746 105b 20       		.uleb128 0x20
 3747 105c 74717000 		.ascii	"tqp\000"
 3748 1060 09       		.byte	0x9
 3749 1061 8402     		.2byte	0x284
 3750 1063 9B080000 		.4byte	0x89b
 3751 1067 02       		.uleb128 0x2
 3752 1068 91       		.byte	0x91
 3753 1069 74       		.sleb128 -12
 3754 106a 27       		.uleb128 0x27
 3755 106b 5C030000 		.4byte	.LASF159
 3756 106f 09       		.byte	0x9
 3757 1070 8402     		.2byte	0x284
 3758 1072 2C010000 		.4byte	0x12c
 3759 1076 02       		.uleb128 0x2
 3760 1077 91       		.byte	0x91
 3761 1078 70       		.sleb128 -16
 3762 1079 00       		.byte	0
 3763 107a 2F       		.uleb128 0x2f
 3764 107b F0070000 		.4byte	.LASF164
 3765 107f 09       		.byte	0x9
 3766 1080 9802     		.2byte	0x298
 3767 1082 00000000 		.4byte	.LFB259
 3768 1086 22000000 		.4byte	.LFE259-.LFB259
 3769 108a 01       		.uleb128 0x1
 3770 108b 9C       		.byte	0x9c
 3771 108c AF100000 		.4byte	0x10af
 3772 1090 20       		.uleb128 0x20
 3773 1091 74717000 		.ascii	"tqp\000"
ARM GAS  /tmp/cc72Hk9S.s 			page 68


 3774 1095 09       		.byte	0x9
 3775 1096 9802     		.2byte	0x298
 3776 1098 9B080000 		.4byte	0x89b
 3777 109c 02       		.uleb128 0x2
 3778 109d 91       		.byte	0x91
 3779 109e 74       		.sleb128 -12
 3780 109f 20       		.uleb128 0x20
 3781 10a0 6D736700 		.ascii	"msg\000"
 3782 10a4 09       		.byte	0x9
 3783 10a5 9802     		.2byte	0x298
 3784 10a7 0B010000 		.4byte	0x10b
 3785 10ab 02       		.uleb128 0x2
 3786 10ac 91       		.byte	0x91
 3787 10ad 70       		.sleb128 -16
 3788 10ae 00       		.byte	0
 3789 10af 2F       		.uleb128 0x2f
 3790 10b0 3E000000 		.4byte	.LASF165
 3791 10b4 09       		.byte	0x9
 3792 10b5 A702     		.2byte	0x2a7
 3793 10b7 00000000 		.4byte	.LFB260
 3794 10bb 24000000 		.4byte	.LFE260-.LFB260
 3795 10bf 01       		.uleb128 0x1
 3796 10c0 9C       		.byte	0x9c
 3797 10c1 E4100000 		.4byte	0x10e4
 3798 10c5 20       		.uleb128 0x20
 3799 10c6 74717000 		.ascii	"tqp\000"
 3800 10ca 09       		.byte	0x9
 3801 10cb A702     		.2byte	0x2a7
 3802 10cd 9B080000 		.4byte	0x89b
 3803 10d1 02       		.uleb128 0x2
 3804 10d2 91       		.byte	0x91
 3805 10d3 74       		.sleb128 -12
 3806 10d4 20       		.uleb128 0x20
 3807 10d5 6D736700 		.ascii	"msg\000"
 3808 10d9 09       		.byte	0x9
 3809 10da A702     		.2byte	0x2a7
 3810 10dc 0B010000 		.4byte	0x10b
 3811 10e0 02       		.uleb128 0x2
 3812 10e1 91       		.byte	0x91
 3813 10e2 70       		.sleb128 -16
 3814 10e3 00       		.byte	0
 3815 10e4 32       		.uleb128 0x32
 3816 10e5 F2000000 		.4byte	.LASF166
 3817 10e9 14       		.byte	0x14
 3818 10ea FA06     		.2byte	0x6fa
 3819 10ec CA000000 		.4byte	0xca
 3820 10f0 33       		.uleb128 0x33
 3821 10f1 636800   		.ascii	"ch\000"
 3822 10f4 05       		.byte	0x5
 3823 10f5 0902     		.2byte	0x209
 3824 10f7 E6030000 		.4byte	0x3e6
 3825 10fb 00       		.byte	0
 3826              		.section	.debug_abbrev,"",%progbits
 3827              	.Ldebug_abbrev0:
 3828 0000 01       		.uleb128 0x1
 3829 0001 11       		.uleb128 0x11
 3830 0002 01       		.byte	0x1
ARM GAS  /tmp/cc72Hk9S.s 			page 69


 3831 0003 25       		.uleb128 0x25
 3832 0004 0E       		.uleb128 0xe
 3833 0005 13       		.uleb128 0x13
 3834 0006 0B       		.uleb128 0xb
 3835 0007 03       		.uleb128 0x3
 3836 0008 0E       		.uleb128 0xe
 3837 0009 55       		.uleb128 0x55
 3838 000a 17       		.uleb128 0x17
 3839 000b 11       		.uleb128 0x11
 3840 000c 01       		.uleb128 0x1
 3841 000d 10       		.uleb128 0x10
 3842 000e 17       		.uleb128 0x17
 3843 000f 00       		.byte	0
 3844 0010 00       		.byte	0
 3845 0011 02       		.uleb128 0x2
 3846 0012 24       		.uleb128 0x24
 3847 0013 00       		.byte	0
 3848 0014 0B       		.uleb128 0xb
 3849 0015 0B       		.uleb128 0xb
 3850 0016 3E       		.uleb128 0x3e
 3851 0017 0B       		.uleb128 0xb
 3852 0018 03       		.uleb128 0x3
 3853 0019 08       		.uleb128 0x8
 3854 001a 00       		.byte	0
 3855 001b 00       		.byte	0
 3856 001c 03       		.uleb128 0x3
 3857 001d 16       		.uleb128 0x16
 3858 001e 00       		.byte	0
 3859 001f 03       		.uleb128 0x3
 3860 0020 0E       		.uleb128 0xe
 3861 0021 3A       		.uleb128 0x3a
 3862 0022 0B       		.uleb128 0xb
 3863 0023 3B       		.uleb128 0x3b
 3864 0024 0B       		.uleb128 0xb
 3865 0025 49       		.uleb128 0x49
 3866 0026 13       		.uleb128 0x13
 3867 0027 00       		.byte	0
 3868 0028 00       		.byte	0
 3869 0029 04       		.uleb128 0x4
 3870 002a 24       		.uleb128 0x24
 3871 002b 00       		.byte	0
 3872 002c 0B       		.uleb128 0xb
 3873 002d 0B       		.uleb128 0xb
 3874 002e 3E       		.uleb128 0x3e
 3875 002f 0B       		.uleb128 0xb
 3876 0030 03       		.uleb128 0x3
 3877 0031 0E       		.uleb128 0xe
 3878 0032 00       		.byte	0
 3879 0033 00       		.byte	0
 3880 0034 05       		.uleb128 0x5
 3881 0035 35       		.uleb128 0x35
 3882 0036 00       		.byte	0
 3883 0037 49       		.uleb128 0x49
 3884 0038 13       		.uleb128 0x13
 3885 0039 00       		.byte	0
 3886 003a 00       		.byte	0
 3887 003b 06       		.uleb128 0x6
ARM GAS  /tmp/cc72Hk9S.s 			page 70


 3888 003c 13       		.uleb128 0x13
 3889 003d 01       		.byte	0x1
 3890 003e 03       		.uleb128 0x3
 3891 003f 0E       		.uleb128 0xe
 3892 0040 0B       		.uleb128 0xb
 3893 0041 0B       		.uleb128 0xb
 3894 0042 3A       		.uleb128 0x3a
 3895 0043 0B       		.uleb128 0xb
 3896 0044 3B       		.uleb128 0x3b
 3897 0045 0B       		.uleb128 0xb
 3898 0046 01       		.uleb128 0x1
 3899 0047 13       		.uleb128 0x13
 3900 0048 00       		.byte	0
 3901 0049 00       		.byte	0
 3902 004a 07       		.uleb128 0x7
 3903 004b 0D       		.uleb128 0xd
 3904 004c 00       		.byte	0
 3905 004d 03       		.uleb128 0x3
 3906 004e 0E       		.uleb128 0xe
 3907 004f 3A       		.uleb128 0x3a
 3908 0050 0B       		.uleb128 0xb
 3909 0051 3B       		.uleb128 0x3b
 3910 0052 0B       		.uleb128 0xb
 3911 0053 49       		.uleb128 0x49
 3912 0054 13       		.uleb128 0x13
 3913 0055 38       		.uleb128 0x38
 3914 0056 0B       		.uleb128 0xb
 3915 0057 00       		.byte	0
 3916 0058 00       		.byte	0
 3917 0059 08       		.uleb128 0x8
 3918 005a 0D       		.uleb128 0xd
 3919 005b 00       		.byte	0
 3920 005c 03       		.uleb128 0x3
 3921 005d 08       		.uleb128 0x8
 3922 005e 3A       		.uleb128 0x3a
 3923 005f 0B       		.uleb128 0xb
 3924 0060 3B       		.uleb128 0x3b
 3925 0061 05       		.uleb128 0x5
 3926 0062 49       		.uleb128 0x49
 3927 0063 13       		.uleb128 0x13
 3928 0064 38       		.uleb128 0x38
 3929 0065 0B       		.uleb128 0xb
 3930 0066 00       		.byte	0
 3931 0067 00       		.byte	0
 3932 0068 09       		.uleb128 0x9
 3933 0069 0D       		.uleb128 0xd
 3934 006a 00       		.byte	0
 3935 006b 03       		.uleb128 0x3
 3936 006c 0E       		.uleb128 0xe
 3937 006d 3A       		.uleb128 0x3a
 3938 006e 0B       		.uleb128 0xb
 3939 006f 3B       		.uleb128 0x3b
 3940 0070 05       		.uleb128 0x5
 3941 0071 49       		.uleb128 0x49
 3942 0072 13       		.uleb128 0x13
 3943 0073 38       		.uleb128 0x38
 3944 0074 0B       		.uleb128 0xb
ARM GAS  /tmp/cc72Hk9S.s 			page 71


 3945 0075 00       		.byte	0
 3946 0076 00       		.byte	0
 3947 0077 0A       		.uleb128 0xa
 3948 0078 0F       		.uleb128 0xf
 3949 0079 00       		.byte	0
 3950 007a 0B       		.uleb128 0xb
 3951 007b 0B       		.uleb128 0xb
 3952 007c 49       		.uleb128 0x49
 3953 007d 13       		.uleb128 0x13
 3954 007e 00       		.byte	0
 3955 007f 00       		.byte	0
 3956 0080 0B       		.uleb128 0xb
 3957 0081 13       		.uleb128 0x13
 3958 0082 01       		.byte	0x1
 3959 0083 03       		.uleb128 0x3
 3960 0084 0E       		.uleb128 0xe
 3961 0085 0B       		.uleb128 0xb
 3962 0086 0B       		.uleb128 0xb
 3963 0087 3A       		.uleb128 0x3a
 3964 0088 0B       		.uleb128 0xb
 3965 0089 3B       		.uleb128 0x3b
 3966 008a 05       		.uleb128 0x5
 3967 008b 01       		.uleb128 0x1
 3968 008c 13       		.uleb128 0x13
 3969 008d 00       		.byte	0
 3970 008e 00       		.byte	0
 3971 008f 0C       		.uleb128 0xc
 3972 0090 15       		.uleb128 0x15
 3973 0091 01       		.byte	0x1
 3974 0092 27       		.uleb128 0x27
 3975 0093 19       		.uleb128 0x19
 3976 0094 01       		.uleb128 0x1
 3977 0095 13       		.uleb128 0x13
 3978 0096 00       		.byte	0
 3979 0097 00       		.byte	0
 3980 0098 0D       		.uleb128 0xd
 3981 0099 05       		.uleb128 0x5
 3982 009a 00       		.byte	0
 3983 009b 49       		.uleb128 0x49
 3984 009c 13       		.uleb128 0x13
 3985 009d 00       		.byte	0
 3986 009e 00       		.byte	0
 3987 009f 0E       		.uleb128 0xe
 3988 00a0 0F       		.uleb128 0xf
 3989 00a1 00       		.byte	0
 3990 00a2 0B       		.uleb128 0xb
 3991 00a3 0B       		.uleb128 0xb
 3992 00a4 00       		.byte	0
 3993 00a5 00       		.byte	0
 3994 00a6 0F       		.uleb128 0xf
 3995 00a7 13       		.uleb128 0x13
 3996 00a8 01       		.byte	0x1
 3997 00a9 03       		.uleb128 0x3
 3998 00aa 0E       		.uleb128 0xe
 3999 00ab 0B       		.uleb128 0xb
 4000 00ac 05       		.uleb128 0x5
 4001 00ad 3A       		.uleb128 0x3a
ARM GAS  /tmp/cc72Hk9S.s 			page 72


 4002 00ae 0B       		.uleb128 0xb
 4003 00af 3B       		.uleb128 0x3b
 4004 00b0 05       		.uleb128 0x5
 4005 00b1 01       		.uleb128 0x1
 4006 00b2 13       		.uleb128 0x13
 4007 00b3 00       		.byte	0
 4008 00b4 00       		.byte	0
 4009 00b5 10       		.uleb128 0x10
 4010 00b6 01       		.uleb128 0x1
 4011 00b7 01       		.byte	0x1
 4012 00b8 49       		.uleb128 0x49
 4013 00b9 13       		.uleb128 0x13
 4014 00ba 01       		.uleb128 0x1
 4015 00bb 13       		.uleb128 0x13
 4016 00bc 00       		.byte	0
 4017 00bd 00       		.byte	0
 4018 00be 11       		.uleb128 0x11
 4019 00bf 21       		.uleb128 0x21
 4020 00c0 00       		.byte	0
 4021 00c1 49       		.uleb128 0x49
 4022 00c2 13       		.uleb128 0x13
 4023 00c3 2F       		.uleb128 0x2f
 4024 00c4 0B       		.uleb128 0xb
 4025 00c5 00       		.byte	0
 4026 00c6 00       		.byte	0
 4027 00c7 12       		.uleb128 0x12
 4028 00c8 0D       		.uleb128 0xd
 4029 00c9 00       		.byte	0
 4030 00ca 03       		.uleb128 0x3
 4031 00cb 08       		.uleb128 0x8
 4032 00cc 3A       		.uleb128 0x3a
 4033 00cd 0B       		.uleb128 0xb
 4034 00ce 3B       		.uleb128 0x3b
 4035 00cf 0B       		.uleb128 0xb
 4036 00d0 49       		.uleb128 0x49
 4037 00d1 13       		.uleb128 0x13
 4038 00d2 38       		.uleb128 0x38
 4039 00d3 0B       		.uleb128 0xb
 4040 00d4 00       		.byte	0
 4041 00d5 00       		.byte	0
 4042 00d6 13       		.uleb128 0x13
 4043 00d7 13       		.uleb128 0x13
 4044 00d8 01       		.byte	0x1
 4045 00d9 0B       		.uleb128 0xb
 4046 00da 0B       		.uleb128 0xb
 4047 00db 3A       		.uleb128 0x3a
 4048 00dc 0B       		.uleb128 0xb
 4049 00dd 3B       		.uleb128 0x3b
 4050 00de 05       		.uleb128 0x5
 4051 00df 01       		.uleb128 0x1
 4052 00e0 13       		.uleb128 0x13
 4053 00e1 00       		.byte	0
 4054 00e2 00       		.byte	0
 4055 00e3 14       		.uleb128 0x14
 4056 00e4 16       		.uleb128 0x16
 4057 00e5 00       		.byte	0
 4058 00e6 03       		.uleb128 0x3
ARM GAS  /tmp/cc72Hk9S.s 			page 73


 4059 00e7 0E       		.uleb128 0xe
 4060 00e8 3A       		.uleb128 0x3a
 4061 00e9 0B       		.uleb128 0xb
 4062 00ea 3B       		.uleb128 0x3b
 4063 00eb 05       		.uleb128 0x5
 4064 00ec 49       		.uleb128 0x49
 4065 00ed 13       		.uleb128 0x13
 4066 00ee 00       		.byte	0
 4067 00ef 00       		.byte	0
 4068 00f0 15       		.uleb128 0x15
 4069 00f1 13       		.uleb128 0x13
 4070 00f2 01       		.byte	0x1
 4071 00f3 0B       		.uleb128 0xb
 4072 00f4 0B       		.uleb128 0xb
 4073 00f5 3A       		.uleb128 0x3a
 4074 00f6 0B       		.uleb128 0xb
 4075 00f7 3B       		.uleb128 0x3b
 4076 00f8 0B       		.uleb128 0xb
 4077 00f9 01       		.uleb128 0x1
 4078 00fa 13       		.uleb128 0x13
 4079 00fb 00       		.byte	0
 4080 00fc 00       		.byte	0
 4081 00fd 16       		.uleb128 0x16
 4082 00fe 17       		.uleb128 0x17
 4083 00ff 01       		.byte	0x1
 4084 0100 0B       		.uleb128 0xb
 4085 0101 0B       		.uleb128 0xb
 4086 0102 3A       		.uleb128 0x3a
 4087 0103 0B       		.uleb128 0xb
 4088 0104 3B       		.uleb128 0x3b
 4089 0105 0B       		.uleb128 0xb
 4090 0106 01       		.uleb128 0x1
 4091 0107 13       		.uleb128 0x13
 4092 0108 00       		.byte	0
 4093 0109 00       		.byte	0
 4094 010a 17       		.uleb128 0x17
 4095 010b 0D       		.uleb128 0xd
 4096 010c 00       		.byte	0
 4097 010d 03       		.uleb128 0x3
 4098 010e 0E       		.uleb128 0xe
 4099 010f 3A       		.uleb128 0x3a
 4100 0110 0B       		.uleb128 0xb
 4101 0111 3B       		.uleb128 0x3b
 4102 0112 05       		.uleb128 0x5
 4103 0113 49       		.uleb128 0x49
 4104 0114 13       		.uleb128 0x13
 4105 0115 00       		.byte	0
 4106 0116 00       		.byte	0
 4107 0117 18       		.uleb128 0x18
 4108 0118 26       		.uleb128 0x26
 4109 0119 00       		.byte	0
 4110 011a 49       		.uleb128 0x49
 4111 011b 13       		.uleb128 0x13
 4112 011c 00       		.byte	0
 4113 011d 00       		.byte	0
 4114 011e 19       		.uleb128 0x19
 4115 011f 2E       		.uleb128 0x2e
ARM GAS  /tmp/cc72Hk9S.s 			page 74


 4116 0120 01       		.byte	0x1
 4117 0121 03       		.uleb128 0x3
 4118 0122 0E       		.uleb128 0xe
 4119 0123 3A       		.uleb128 0x3a
 4120 0124 0B       		.uleb128 0xb
 4121 0125 3B       		.uleb128 0x3b
 4122 0126 05       		.uleb128 0x5
 4123 0127 27       		.uleb128 0x27
 4124 0128 19       		.uleb128 0x19
 4125 0129 20       		.uleb128 0x20
 4126 012a 0B       		.uleb128 0xb
 4127 012b 01       		.uleb128 0x1
 4128 012c 13       		.uleb128 0x13
 4129 012d 00       		.byte	0
 4130 012e 00       		.byte	0
 4131 012f 1A       		.uleb128 0x1a
 4132 0130 05       		.uleb128 0x5
 4133 0131 00       		.byte	0
 4134 0132 03       		.uleb128 0x3
 4135 0133 0E       		.uleb128 0xe
 4136 0134 3A       		.uleb128 0x3a
 4137 0135 0B       		.uleb128 0xb
 4138 0136 3B       		.uleb128 0x3b
 4139 0137 05       		.uleb128 0x5
 4140 0138 49       		.uleb128 0x49
 4141 0139 13       		.uleb128 0x13
 4142 013a 00       		.byte	0
 4143 013b 00       		.byte	0
 4144 013c 1B       		.uleb128 0x1b
 4145 013d 2E       		.uleb128 0x2e
 4146 013e 01       		.byte	0x1
 4147 013f 03       		.uleb128 0x3
 4148 0140 0E       		.uleb128 0xe
 4149 0141 3A       		.uleb128 0x3a
 4150 0142 0B       		.uleb128 0xb
 4151 0143 3B       		.uleb128 0x3b
 4152 0144 05       		.uleb128 0x5
 4153 0145 27       		.uleb128 0x27
 4154 0146 19       		.uleb128 0x19
 4155 0147 11       		.uleb128 0x11
 4156 0148 01       		.uleb128 0x1
 4157 0149 12       		.uleb128 0x12
 4158 014a 06       		.uleb128 0x6
 4159 014b 40       		.uleb128 0x40
 4160 014c 18       		.uleb128 0x18
 4161 014d 9742     		.uleb128 0x2117
 4162 014f 19       		.uleb128 0x19
 4163 0150 01       		.uleb128 0x1
 4164 0151 13       		.uleb128 0x13
 4165 0152 00       		.byte	0
 4166 0153 00       		.byte	0
 4167 0154 1C       		.uleb128 0x1c
 4168 0155 1D       		.uleb128 0x1d
 4169 0156 01       		.byte	0x1
 4170 0157 31       		.uleb128 0x31
 4171 0158 13       		.uleb128 0x13
 4172 0159 11       		.uleb128 0x11
ARM GAS  /tmp/cc72Hk9S.s 			page 75


 4173 015a 01       		.uleb128 0x1
 4174 015b 12       		.uleb128 0x12
 4175 015c 06       		.uleb128 0x6
 4176 015d 58       		.uleb128 0x58
 4177 015e 0B       		.uleb128 0xb
 4178 015f 59       		.uleb128 0x59
 4179 0160 05       		.uleb128 0x5
 4180 0161 00       		.byte	0
 4181 0162 00       		.byte	0
 4182 0163 1D       		.uleb128 0x1d
 4183 0164 05       		.uleb128 0x5
 4184 0165 00       		.byte	0
 4185 0166 31       		.uleb128 0x31
 4186 0167 13       		.uleb128 0x13
 4187 0168 02       		.uleb128 0x2
 4188 0169 18       		.uleb128 0x18
 4189 016a 00       		.byte	0
 4190 016b 00       		.byte	0
 4191 016c 1E       		.uleb128 0x1e
 4192 016d 2E       		.uleb128 0x2e
 4193 016e 00       		.byte	0
 4194 016f 03       		.uleb128 0x3
 4195 0170 0E       		.uleb128 0xe
 4196 0171 3A       		.uleb128 0x3a
 4197 0172 0B       		.uleb128 0xb
 4198 0173 3B       		.uleb128 0x3b
 4199 0174 0B       		.uleb128 0xb
 4200 0175 27       		.uleb128 0x27
 4201 0176 19       		.uleb128 0x19
 4202 0177 49       		.uleb128 0x49
 4203 0178 13       		.uleb128 0x13
 4204 0179 11       		.uleb128 0x11
 4205 017a 01       		.uleb128 0x1
 4206 017b 12       		.uleb128 0x12
 4207 017c 06       		.uleb128 0x6
 4208 017d 40       		.uleb128 0x40
 4209 017e 18       		.uleb128 0x18
 4210 017f 9742     		.uleb128 0x2117
 4211 0181 19       		.uleb128 0x19
 4212 0182 00       		.byte	0
 4213 0183 00       		.byte	0
 4214 0184 1F       		.uleb128 0x1f
 4215 0185 2E       		.uleb128 0x2e
 4216 0186 00       		.byte	0
 4217 0187 03       		.uleb128 0x3
 4218 0188 0E       		.uleb128 0xe
 4219 0189 3A       		.uleb128 0x3a
 4220 018a 0B       		.uleb128 0xb
 4221 018b 3B       		.uleb128 0x3b
 4222 018c 0B       		.uleb128 0xb
 4223 018d 27       		.uleb128 0x27
 4224 018e 19       		.uleb128 0x19
 4225 018f 49       		.uleb128 0x49
 4226 0190 13       		.uleb128 0x13
 4227 0191 11       		.uleb128 0x11
 4228 0192 01       		.uleb128 0x1
 4229 0193 12       		.uleb128 0x12
ARM GAS  /tmp/cc72Hk9S.s 			page 76


 4230 0194 06       		.uleb128 0x6
 4231 0195 40       		.uleb128 0x40
 4232 0196 18       		.uleb128 0x18
 4233 0197 9642     		.uleb128 0x2116
 4234 0199 19       		.uleb128 0x19
 4235 019a 00       		.byte	0
 4236 019b 00       		.byte	0
 4237 019c 20       		.uleb128 0x20
 4238 019d 05       		.uleb128 0x5
 4239 019e 00       		.byte	0
 4240 019f 03       		.uleb128 0x3
 4241 01a0 08       		.uleb128 0x8
 4242 01a1 3A       		.uleb128 0x3a
 4243 01a2 0B       		.uleb128 0xb
 4244 01a3 3B       		.uleb128 0x3b
 4245 01a4 05       		.uleb128 0x5
 4246 01a5 49       		.uleb128 0x49
 4247 01a6 13       		.uleb128 0x13
 4248 01a7 02       		.uleb128 0x2
 4249 01a8 18       		.uleb128 0x18
 4250 01a9 00       		.byte	0
 4251 01aa 00       		.byte	0
 4252 01ab 21       		.uleb128 0x21
 4253 01ac 2E       		.uleb128 0x2e
 4254 01ad 01       		.byte	0x1
 4255 01ae 03       		.uleb128 0x3
 4256 01af 0E       		.uleb128 0xe
 4257 01b0 3A       		.uleb128 0x3a
 4258 01b1 0B       		.uleb128 0xb
 4259 01b2 3B       		.uleb128 0x3b
 4260 01b3 05       		.uleb128 0x5
 4261 01b4 27       		.uleb128 0x27
 4262 01b5 19       		.uleb128 0x19
 4263 01b6 49       		.uleb128 0x49
 4264 01b7 13       		.uleb128 0x13
 4265 01b8 11       		.uleb128 0x11
 4266 01b9 01       		.uleb128 0x1
 4267 01ba 12       		.uleb128 0x12
 4268 01bb 06       		.uleb128 0x6
 4269 01bc 40       		.uleb128 0x40
 4270 01bd 18       		.uleb128 0x18
 4271 01be 9742     		.uleb128 0x2117
 4272 01c0 19       		.uleb128 0x19
 4273 01c1 01       		.uleb128 0x1
 4274 01c2 13       		.uleb128 0x13
 4275 01c3 00       		.byte	0
 4276 01c4 00       		.byte	0
 4277 01c5 22       		.uleb128 0x22
 4278 01c6 34       		.uleb128 0x34
 4279 01c7 00       		.byte	0
 4280 01c8 03       		.uleb128 0x3
 4281 01c9 08       		.uleb128 0x8
 4282 01ca 3A       		.uleb128 0x3a
 4283 01cb 0B       		.uleb128 0xb
 4284 01cc 3B       		.uleb128 0x3b
 4285 01cd 05       		.uleb128 0x5
 4286 01ce 49       		.uleb128 0x49
ARM GAS  /tmp/cc72Hk9S.s 			page 77


 4287 01cf 13       		.uleb128 0x13
 4288 01d0 02       		.uleb128 0x2
 4289 01d1 18       		.uleb128 0x18
 4290 01d2 00       		.byte	0
 4291 01d3 00       		.byte	0
 4292 01d4 23       		.uleb128 0x23
 4293 01d5 2E       		.uleb128 0x2e
 4294 01d6 00       		.byte	0
 4295 01d7 03       		.uleb128 0x3
 4296 01d8 0E       		.uleb128 0xe
 4297 01d9 3A       		.uleb128 0x3a
 4298 01da 0B       		.uleb128 0xb
 4299 01db 3B       		.uleb128 0x3b
 4300 01dc 05       		.uleb128 0x5
 4301 01dd 27       		.uleb128 0x27
 4302 01de 19       		.uleb128 0x19
 4303 01df 49       		.uleb128 0x49
 4304 01e0 13       		.uleb128 0x13
 4305 01e1 11       		.uleb128 0x11
 4306 01e2 01       		.uleb128 0x1
 4307 01e3 12       		.uleb128 0x12
 4308 01e4 06       		.uleb128 0x6
 4309 01e5 40       		.uleb128 0x40
 4310 01e6 18       		.uleb128 0x18
 4311 01e7 9742     		.uleb128 0x2117
 4312 01e9 19       		.uleb128 0x19
 4313 01ea 00       		.byte	0
 4314 01eb 00       		.byte	0
 4315 01ec 24       		.uleb128 0x24
 4316 01ed 2E       		.uleb128 0x2e
 4317 01ee 00       		.byte	0
 4318 01ef 03       		.uleb128 0x3
 4319 01f0 0E       		.uleb128 0xe
 4320 01f1 3A       		.uleb128 0x3a
 4321 01f2 0B       		.uleb128 0xb
 4322 01f3 3B       		.uleb128 0x3b
 4323 01f4 05       		.uleb128 0x5
 4324 01f5 27       		.uleb128 0x27
 4325 01f6 19       		.uleb128 0x19
 4326 01f7 11       		.uleb128 0x11
 4327 01f8 01       		.uleb128 0x1
 4328 01f9 12       		.uleb128 0x12
 4329 01fa 06       		.uleb128 0x6
 4330 01fb 40       		.uleb128 0x40
 4331 01fc 18       		.uleb128 0x18
 4332 01fd 9642     		.uleb128 0x2116
 4333 01ff 19       		.uleb128 0x19
 4334 0200 00       		.byte	0
 4335 0201 00       		.byte	0
 4336 0202 25       		.uleb128 0x25
 4337 0203 2E       		.uleb128 0x2e
 4338 0204 01       		.byte	0x1
 4339 0205 03       		.uleb128 0x3
 4340 0206 0E       		.uleb128 0xe
 4341 0207 3A       		.uleb128 0x3a
 4342 0208 0B       		.uleb128 0xb
 4343 0209 3B       		.uleb128 0x3b
ARM GAS  /tmp/cc72Hk9S.s 			page 78


 4344 020a 05       		.uleb128 0x5
 4345 020b 27       		.uleb128 0x27
 4346 020c 19       		.uleb128 0x19
 4347 020d 11       		.uleb128 0x11
 4348 020e 01       		.uleb128 0x1
 4349 020f 12       		.uleb128 0x12
 4350 0210 06       		.uleb128 0x6
 4351 0211 40       		.uleb128 0x40
 4352 0212 18       		.uleb128 0x18
 4353 0213 9642     		.uleb128 0x2116
 4354 0215 19       		.uleb128 0x19
 4355 0216 01       		.uleb128 0x1
 4356 0217 13       		.uleb128 0x13
 4357 0218 00       		.byte	0
 4358 0219 00       		.byte	0
 4359 021a 26       		.uleb128 0x26
 4360 021b 34       		.uleb128 0x34
 4361 021c 00       		.byte	0
 4362 021d 03       		.uleb128 0x3
 4363 021e 0E       		.uleb128 0xe
 4364 021f 49       		.uleb128 0x49
 4365 0220 13       		.uleb128 0x13
 4366 0221 34       		.uleb128 0x34
 4367 0222 19       		.uleb128 0x19
 4368 0223 00       		.byte	0
 4369 0224 00       		.byte	0
 4370 0225 27       		.uleb128 0x27
 4371 0226 05       		.uleb128 0x5
 4372 0227 00       		.byte	0
 4373 0228 03       		.uleb128 0x3
 4374 0229 0E       		.uleb128 0xe
 4375 022a 3A       		.uleb128 0x3a
 4376 022b 0B       		.uleb128 0xb
 4377 022c 3B       		.uleb128 0x3b
 4378 022d 05       		.uleb128 0x5
 4379 022e 49       		.uleb128 0x49
 4380 022f 13       		.uleb128 0x13
 4381 0230 02       		.uleb128 0x2
 4382 0231 18       		.uleb128 0x18
 4383 0232 00       		.byte	0
 4384 0233 00       		.byte	0
 4385 0234 28       		.uleb128 0x28
 4386 0235 2E       		.uleb128 0x2e
 4387 0236 01       		.byte	0x1
 4388 0237 03       		.uleb128 0x3
 4389 0238 0E       		.uleb128 0xe
 4390 0239 3A       		.uleb128 0x3a
 4391 023a 0B       		.uleb128 0xb
 4392 023b 3B       		.uleb128 0x3b
 4393 023c 0B       		.uleb128 0xb
 4394 023d 27       		.uleb128 0x27
 4395 023e 19       		.uleb128 0x19
 4396 023f 49       		.uleb128 0x49
 4397 0240 13       		.uleb128 0x13
 4398 0241 11       		.uleb128 0x11
 4399 0242 01       		.uleb128 0x1
 4400 0243 12       		.uleb128 0x12
ARM GAS  /tmp/cc72Hk9S.s 			page 79


 4401 0244 06       		.uleb128 0x6
 4402 0245 40       		.uleb128 0x40
 4403 0246 18       		.uleb128 0x18
 4404 0247 9642     		.uleb128 0x2116
 4405 0249 19       		.uleb128 0x19
 4406 024a 01       		.uleb128 0x1
 4407 024b 13       		.uleb128 0x13
 4408 024c 00       		.byte	0
 4409 024d 00       		.byte	0
 4410 024e 29       		.uleb128 0x29
 4411 024f 05       		.uleb128 0x5
 4412 0250 00       		.byte	0
 4413 0251 03       		.uleb128 0x3
 4414 0252 08       		.uleb128 0x8
 4415 0253 3A       		.uleb128 0x3a
 4416 0254 0B       		.uleb128 0xb
 4417 0255 3B       		.uleb128 0x3b
 4418 0256 0B       		.uleb128 0xb
 4419 0257 49       		.uleb128 0x49
 4420 0258 13       		.uleb128 0x13
 4421 0259 02       		.uleb128 0x2
 4422 025a 18       		.uleb128 0x18
 4423 025b 00       		.byte	0
 4424 025c 00       		.byte	0
 4425 025d 2A       		.uleb128 0x2a
 4426 025e 2E       		.uleb128 0x2e
 4427 025f 01       		.byte	0x1
 4428 0260 3F       		.uleb128 0x3f
 4429 0261 19       		.uleb128 0x19
 4430 0262 03       		.uleb128 0x3
 4431 0263 0E       		.uleb128 0xe
 4432 0264 3A       		.uleb128 0x3a
 4433 0265 0B       		.uleb128 0xb
 4434 0266 3B       		.uleb128 0x3b
 4435 0267 0B       		.uleb128 0xb
 4436 0268 27       		.uleb128 0x27
 4437 0269 19       		.uleb128 0x19
 4438 026a 49       		.uleb128 0x49
 4439 026b 13       		.uleb128 0x13
 4440 026c 11       		.uleb128 0x11
 4441 026d 01       		.uleb128 0x1
 4442 026e 12       		.uleb128 0x12
 4443 026f 06       		.uleb128 0x6
 4444 0270 40       		.uleb128 0x40
 4445 0271 18       		.uleb128 0x18
 4446 0272 9642     		.uleb128 0x2116
 4447 0274 19       		.uleb128 0x19
 4448 0275 01       		.uleb128 0x1
 4449 0276 13       		.uleb128 0x13
 4450 0277 00       		.byte	0
 4451 0278 00       		.byte	0
 4452 0279 2B       		.uleb128 0x2b
 4453 027a 05       		.uleb128 0x5
 4454 027b 00       		.byte	0
 4455 027c 03       		.uleb128 0x3
 4456 027d 0E       		.uleb128 0xe
 4457 027e 3A       		.uleb128 0x3a
ARM GAS  /tmp/cc72Hk9S.s 			page 80


 4458 027f 0B       		.uleb128 0xb
 4459 0280 3B       		.uleb128 0x3b
 4460 0281 0B       		.uleb128 0xb
 4461 0282 49       		.uleb128 0x49
 4462 0283 13       		.uleb128 0x13
 4463 0284 02       		.uleb128 0x2
 4464 0285 18       		.uleb128 0x18
 4465 0286 00       		.byte	0
 4466 0287 00       		.byte	0
 4467 0288 2C       		.uleb128 0x2c
 4468 0289 34       		.uleb128 0x34
 4469 028a 00       		.byte	0
 4470 028b 03       		.uleb128 0x3
 4471 028c 08       		.uleb128 0x8
 4472 028d 3A       		.uleb128 0x3a
 4473 028e 0B       		.uleb128 0xb
 4474 028f 3B       		.uleb128 0x3b
 4475 0290 0B       		.uleb128 0xb
 4476 0291 49       		.uleb128 0x49
 4477 0292 13       		.uleb128 0x13
 4478 0293 02       		.uleb128 0x2
 4479 0294 18       		.uleb128 0x18
 4480 0295 00       		.byte	0
 4481 0296 00       		.byte	0
 4482 0297 2D       		.uleb128 0x2d
 4483 0298 2E       		.uleb128 0x2e
 4484 0299 01       		.byte	0x1
 4485 029a 3F       		.uleb128 0x3f
 4486 029b 19       		.uleb128 0x19
 4487 029c 03       		.uleb128 0x3
 4488 029d 0E       		.uleb128 0xe
 4489 029e 3A       		.uleb128 0x3a
 4490 029f 0B       		.uleb128 0xb
 4491 02a0 3B       		.uleb128 0x3b
 4492 02a1 05       		.uleb128 0x5
 4493 02a2 27       		.uleb128 0x27
 4494 02a3 19       		.uleb128 0x19
 4495 02a4 49       		.uleb128 0x49
 4496 02a5 13       		.uleb128 0x13
 4497 02a6 11       		.uleb128 0x11
 4498 02a7 01       		.uleb128 0x1
 4499 02a8 12       		.uleb128 0x12
 4500 02a9 06       		.uleb128 0x6
 4501 02aa 40       		.uleb128 0x40
 4502 02ab 18       		.uleb128 0x18
 4503 02ac 9642     		.uleb128 0x2116
 4504 02ae 19       		.uleb128 0x19
 4505 02af 01       		.uleb128 0x1
 4506 02b0 13       		.uleb128 0x13
 4507 02b1 00       		.byte	0
 4508 02b2 00       		.byte	0
 4509 02b3 2E       		.uleb128 0x2e
 4510 02b4 34       		.uleb128 0x34
 4511 02b5 00       		.byte	0
 4512 02b6 03       		.uleb128 0x3
 4513 02b7 0E       		.uleb128 0xe
 4514 02b8 3A       		.uleb128 0x3a
ARM GAS  /tmp/cc72Hk9S.s 			page 81


 4515 02b9 0B       		.uleb128 0xb
 4516 02ba 3B       		.uleb128 0x3b
 4517 02bb 05       		.uleb128 0x5
 4518 02bc 49       		.uleb128 0x49
 4519 02bd 13       		.uleb128 0x13
 4520 02be 02       		.uleb128 0x2
 4521 02bf 18       		.uleb128 0x18
 4522 02c0 00       		.byte	0
 4523 02c1 00       		.byte	0
 4524 02c2 2F       		.uleb128 0x2f
 4525 02c3 2E       		.uleb128 0x2e
 4526 02c4 01       		.byte	0x1
 4527 02c5 3F       		.uleb128 0x3f
 4528 02c6 19       		.uleb128 0x19
 4529 02c7 03       		.uleb128 0x3
 4530 02c8 0E       		.uleb128 0xe
 4531 02c9 3A       		.uleb128 0x3a
 4532 02ca 0B       		.uleb128 0xb
 4533 02cb 3B       		.uleb128 0x3b
 4534 02cc 05       		.uleb128 0x5
 4535 02cd 27       		.uleb128 0x27
 4536 02ce 19       		.uleb128 0x19
 4537 02cf 11       		.uleb128 0x11
 4538 02d0 01       		.uleb128 0x1
 4539 02d1 12       		.uleb128 0x12
 4540 02d2 06       		.uleb128 0x6
 4541 02d3 40       		.uleb128 0x40
 4542 02d4 18       		.uleb128 0x18
 4543 02d5 9642     		.uleb128 0x2116
 4544 02d7 19       		.uleb128 0x19
 4545 02d8 01       		.uleb128 0x1
 4546 02d9 13       		.uleb128 0x13
 4547 02da 00       		.byte	0
 4548 02db 00       		.byte	0
 4549 02dc 30       		.uleb128 0x30
 4550 02dd 2E       		.uleb128 0x2e
 4551 02de 00       		.byte	0
 4552 02df 3F       		.uleb128 0x3f
 4553 02e0 19       		.uleb128 0x19
 4554 02e1 03       		.uleb128 0x3
 4555 02e2 0E       		.uleb128 0xe
 4556 02e3 3A       		.uleb128 0x3a
 4557 02e4 0B       		.uleb128 0xb
 4558 02e5 3B       		.uleb128 0x3b
 4559 02e6 05       		.uleb128 0x5
 4560 02e7 27       		.uleb128 0x27
 4561 02e8 19       		.uleb128 0x19
 4562 02e9 11       		.uleb128 0x11
 4563 02ea 01       		.uleb128 0x1
 4564 02eb 12       		.uleb128 0x12
 4565 02ec 06       		.uleb128 0x6
 4566 02ed 40       		.uleb128 0x40
 4567 02ee 18       		.uleb128 0x18
 4568 02ef 9642     		.uleb128 0x2116
 4569 02f1 19       		.uleb128 0x19
 4570 02f2 00       		.byte	0
 4571 02f3 00       		.byte	0
ARM GAS  /tmp/cc72Hk9S.s 			page 82


 4572 02f4 31       		.uleb128 0x31
 4573 02f5 0B       		.uleb128 0xb
 4574 02f6 01       		.byte	0x1
 4575 02f7 11       		.uleb128 0x11
 4576 02f8 01       		.uleb128 0x1
 4577 02f9 12       		.uleb128 0x12
 4578 02fa 06       		.uleb128 0x6
 4579 02fb 00       		.byte	0
 4580 02fc 00       		.byte	0
 4581 02fd 32       		.uleb128 0x32
 4582 02fe 34       		.uleb128 0x34
 4583 02ff 00       		.byte	0
 4584 0300 03       		.uleb128 0x3
 4585 0301 0E       		.uleb128 0xe
 4586 0302 3A       		.uleb128 0x3a
 4587 0303 0B       		.uleb128 0xb
 4588 0304 3B       		.uleb128 0x3b
 4589 0305 05       		.uleb128 0x5
 4590 0306 49       		.uleb128 0x49
 4591 0307 13       		.uleb128 0x13
 4592 0308 3F       		.uleb128 0x3f
 4593 0309 19       		.uleb128 0x19
 4594 030a 3C       		.uleb128 0x3c
 4595 030b 19       		.uleb128 0x19
 4596 030c 00       		.byte	0
 4597 030d 00       		.byte	0
 4598 030e 33       		.uleb128 0x33
 4599 030f 34       		.uleb128 0x34
 4600 0310 00       		.byte	0
 4601 0311 03       		.uleb128 0x3
 4602 0312 08       		.uleb128 0x8
 4603 0313 3A       		.uleb128 0x3a
 4604 0314 0B       		.uleb128 0xb
 4605 0315 3B       		.uleb128 0x3b
 4606 0316 05       		.uleb128 0x5
 4607 0317 49       		.uleb128 0x49
 4608 0318 13       		.uleb128 0x13
 4609 0319 3F       		.uleb128 0x3f
 4610 031a 19       		.uleb128 0x19
 4611 031b 3C       		.uleb128 0x3c
 4612 031c 19       		.uleb128 0x19
 4613 031d 00       		.byte	0
 4614 031e 00       		.byte	0
 4615 031f 00       		.byte	0
 4616              		.section	.debug_aranges,"",%progbits
 4617 0000 6C010000 		.4byte	0x16c
 4618 0004 0200     		.2byte	0x2
 4619 0006 00000000 		.4byte	.Ldebug_info0
 4620 000a 04       		.byte	0x4
 4621 000b 00       		.byte	0
 4622 000c 0000     		.2byte	0
 4623 000e 0000     		.2byte	0
 4624 0010 00000000 		.4byte	.LFB127
 4625 0014 10000000 		.4byte	.LFE127-.LFB127
 4626 0018 00000000 		.4byte	.LFB128
 4627 001c 10000000 		.4byte	.LFE128-.LFB128
 4628 0020 00000000 		.4byte	.LFB136
ARM GAS  /tmp/cc72Hk9S.s 			page 83


 4629 0024 0A000000 		.4byte	.LFE136-.LFB136
 4630 0028 00000000 		.4byte	.LFB145
 4631 002c 0C000000 		.4byte	.LFE145-.LFB145
 4632 0030 00000000 		.4byte	.LFB147
 4633 0034 0E000000 		.4byte	.LFE147-.LFB147
 4634 0038 00000000 		.4byte	.LFB149
 4635 003c 1A000000 		.4byte	.LFE149-.LFB149
 4636 0040 00000000 		.4byte	.LFB150
 4637 0044 14000000 		.4byte	.LFE150-.LFB150
 4638 0048 00000000 		.4byte	.LFB152
 4639 004c 1A000000 		.4byte	.LFE152-.LFB152
 4640 0050 00000000 		.4byte	.LFB153
 4641 0054 18000000 		.4byte	.LFE153-.LFB153
 4642 0058 00000000 		.4byte	.LFB154
 4643 005c 1A000000 		.4byte	.LFE154-.LFB154
 4644 0060 00000000 		.4byte	.LFB156
 4645 0064 26000000 		.4byte	.LFE156-.LFB156
 4646 0068 00000000 		.4byte	.LFB157
 4647 006c 22000000 		.4byte	.LFE157-.LFB157
 4648 0070 00000000 		.4byte	.LFB161
 4649 0074 20000000 		.4byte	.LFE161-.LFB161
 4650 0078 00000000 		.4byte	.LFB162
 4651 007c 12000000 		.4byte	.LFE162-.LFB162
 4652 0080 00000000 		.4byte	.LFB167
 4653 0084 08000000 		.4byte	.LFE167-.LFB167
 4654 0088 00000000 		.4byte	.LFB168
 4655 008c 08000000 		.4byte	.LFE168-.LFB168
 4656 0090 00000000 		.4byte	.LFB175
 4657 0094 0C000000 		.4byte	.LFE175-.LFB175
 4658 0098 00000000 		.4byte	.LFB178
 4659 009c 24000000 		.4byte	.LFE178-.LFB178
 4660 00a0 00000000 		.4byte	.LFB188
 4661 00a4 0C000000 		.4byte	.LFE188-.LFB188
 4662 00a8 00000000 		.4byte	.LFB192
 4663 00ac 16000000 		.4byte	.LFE192-.LFB192
 4664 00b0 00000000 		.4byte	.LFB193
 4665 00b4 14000000 		.4byte	.LFE193-.LFB193
 4666 00b8 00000000 		.4byte	.LFB196
 4667 00bc 22000000 		.4byte	.LFE196-.LFB196
 4668 00c0 00000000 		.4byte	.LFB240
 4669 00c4 78000000 		.4byte	.LFE240-.LFB240
 4670 00c8 00000000 		.4byte	.LFB241
 4671 00cc 4C000000 		.4byte	.LFE241-.LFB241
 4672 00d0 00000000 		.4byte	.LFB242
 4673 00d4 38000000 		.4byte	.LFE242-.LFB242
 4674 00d8 00000000 		.4byte	.LFB243
 4675 00dc 20000000 		.4byte	.LFE243-.LFB243
 4676 00e0 00000000 		.4byte	.LFB244
 4677 00e4 54000000 		.4byte	.LFE244-.LFB244
 4678 00e8 00000000 		.4byte	.LFB245
 4679 00ec 22000000 		.4byte	.LFE245-.LFB245
 4680 00f0 00000000 		.4byte	.LFB246
 4681 00f4 1A000000 		.4byte	.LFE246-.LFB246
 4682 00f8 00000000 		.4byte	.LFB247
 4683 00fc 2C000000 		.4byte	.LFE247-.LFB247
 4684 0100 00000000 		.4byte	.LFB248
 4685 0104 3C000000 		.4byte	.LFE248-.LFB248
ARM GAS  /tmp/cc72Hk9S.s 			page 84


 4686 0108 00000000 		.4byte	.LFB249
 4687 010c 10000000 		.4byte	.LFE249-.LFB249
 4688 0110 00000000 		.4byte	.LFB250
 4689 0114 16000000 		.4byte	.LFE250-.LFB250
 4690 0118 00000000 		.4byte	.LFB251
 4691 011c 68000000 		.4byte	.LFE251-.LFB251
 4692 0120 00000000 		.4byte	.LFB252
 4693 0124 48000000 		.4byte	.LFE252-.LFB252
 4694 0128 00000000 		.4byte	.LFB253
 4695 012c 2E000000 		.4byte	.LFE253-.LFB253
 4696 0130 00000000 		.4byte	.LFB254
 4697 0134 38000000 		.4byte	.LFE254-.LFB254
 4698 0138 00000000 		.4byte	.LFB255
 4699 013c 2E000000 		.4byte	.LFE255-.LFB255
 4700 0140 00000000 		.4byte	.LFB256
 4701 0144 2A000000 		.4byte	.LFE256-.LFB256
 4702 0148 00000000 		.4byte	.LFB257
 4703 014c 1E000000 		.4byte	.LFE257-.LFB257
 4704 0150 00000000 		.4byte	.LFB258
 4705 0154 38000000 		.4byte	.LFE258-.LFB258
 4706 0158 00000000 		.4byte	.LFB259
 4707 015c 22000000 		.4byte	.LFE259-.LFB259
 4708 0160 00000000 		.4byte	.LFB260
 4709 0164 24000000 		.4byte	.LFE260-.LFB260
 4710 0168 00000000 		.4byte	0
 4711 016c 00000000 		.4byte	0
 4712              		.section	.debug_ranges,"",%progbits
 4713              	.Ldebug_ranges0:
 4714 0000 00000000 		.4byte	.LFB127
 4715 0004 10000000 		.4byte	.LFE127
 4716 0008 00000000 		.4byte	.LFB128
 4717 000c 10000000 		.4byte	.LFE128
 4718 0010 00000000 		.4byte	.LFB136
 4719 0014 0A000000 		.4byte	.LFE136
 4720 0018 00000000 		.4byte	.LFB145
 4721 001c 0C000000 		.4byte	.LFE145
 4722 0020 00000000 		.4byte	.LFB147
 4723 0024 0E000000 		.4byte	.LFE147
 4724 0028 00000000 		.4byte	.LFB149
 4725 002c 1A000000 		.4byte	.LFE149
 4726 0030 00000000 		.4byte	.LFB150
 4727 0034 14000000 		.4byte	.LFE150
 4728 0038 00000000 		.4byte	.LFB152
 4729 003c 1A000000 		.4byte	.LFE152
 4730 0040 00000000 		.4byte	.LFB153
 4731 0044 18000000 		.4byte	.LFE153
 4732 0048 00000000 		.4byte	.LFB154
 4733 004c 1A000000 		.4byte	.LFE154
 4734 0050 00000000 		.4byte	.LFB156
 4735 0054 26000000 		.4byte	.LFE156
 4736 0058 00000000 		.4byte	.LFB157
 4737 005c 22000000 		.4byte	.LFE157
 4738 0060 00000000 		.4byte	.LFB161
 4739 0064 20000000 		.4byte	.LFE161
 4740 0068 00000000 		.4byte	.LFB162
 4741 006c 12000000 		.4byte	.LFE162
 4742 0070 00000000 		.4byte	.LFB167
ARM GAS  /tmp/cc72Hk9S.s 			page 85


 4743 0074 08000000 		.4byte	.LFE167
 4744 0078 00000000 		.4byte	.LFB168
 4745 007c 08000000 		.4byte	.LFE168
 4746 0080 00000000 		.4byte	.LFB175
 4747 0084 0C000000 		.4byte	.LFE175
 4748 0088 00000000 		.4byte	.LFB178
 4749 008c 24000000 		.4byte	.LFE178
 4750 0090 00000000 		.4byte	.LFB188
 4751 0094 0C000000 		.4byte	.LFE188
 4752 0098 00000000 		.4byte	.LFB192
 4753 009c 16000000 		.4byte	.LFE192
 4754 00a0 00000000 		.4byte	.LFB193
 4755 00a4 14000000 		.4byte	.LFE193
 4756 00a8 00000000 		.4byte	.LFB196
 4757 00ac 22000000 		.4byte	.LFE196
 4758 00b0 00000000 		.4byte	.LFB240
 4759 00b4 78000000 		.4byte	.LFE240
 4760 00b8 00000000 		.4byte	.LFB241
 4761 00bc 4C000000 		.4byte	.LFE241
 4762 00c0 00000000 		.4byte	.LFB242
 4763 00c4 38000000 		.4byte	.LFE242
 4764 00c8 00000000 		.4byte	.LFB243
 4765 00cc 20000000 		.4byte	.LFE243
 4766 00d0 00000000 		.4byte	.LFB244
 4767 00d4 54000000 		.4byte	.LFE244
 4768 00d8 00000000 		.4byte	.LFB245
 4769 00dc 22000000 		.4byte	.LFE245
 4770 00e0 00000000 		.4byte	.LFB246
 4771 00e4 1A000000 		.4byte	.LFE246
 4772 00e8 00000000 		.4byte	.LFB247
 4773 00ec 2C000000 		.4byte	.LFE247
 4774 00f0 00000000 		.4byte	.LFB248
 4775 00f4 3C000000 		.4byte	.LFE248
 4776 00f8 00000000 		.4byte	.LFB249
 4777 00fc 10000000 		.4byte	.LFE249
 4778 0100 00000000 		.4byte	.LFB250
 4779 0104 16000000 		.4byte	.LFE250
 4780 0108 00000000 		.4byte	.LFB251
 4781 010c 68000000 		.4byte	.LFE251
 4782 0110 00000000 		.4byte	.LFB252
 4783 0114 48000000 		.4byte	.LFE252
 4784 0118 00000000 		.4byte	.LFB253
 4785 011c 2E000000 		.4byte	.LFE253
 4786 0120 00000000 		.4byte	.LFB254
 4787 0124 38000000 		.4byte	.LFE254
 4788 0128 00000000 		.4byte	.LFB255
 4789 012c 2E000000 		.4byte	.LFE255
 4790 0130 00000000 		.4byte	.LFB256
 4791 0134 2A000000 		.4byte	.LFE256
 4792 0138 00000000 		.4byte	.LFB257
 4793 013c 1E000000 		.4byte	.LFE257
 4794 0140 00000000 		.4byte	.LFB258
 4795 0144 38000000 		.4byte	.LFE258
 4796 0148 00000000 		.4byte	.LFB259
 4797 014c 22000000 		.4byte	.LFE259
 4798 0150 00000000 		.4byte	.LFB260
 4799 0154 24000000 		.4byte	.LFE260
ARM GAS  /tmp/cc72Hk9S.s 			page 86


 4800 0158 00000000 		.4byte	0
 4801 015c 00000000 		.4byte	0
 4802              		.section	.debug_line,"",%progbits
 4803              	.Ldebug_line0:
 4804 0000 4A060000 		.section	.debug_str,"MS",%progbits,1
 4804      02006402 
 4804      00000201 
 4804      FB0E0D00 
 4804      01010101 
 4805              	.LASF111:
 4806 0000 7466756E 		.ascii	"tfunc_t\000"
 4806      635F7400 
 4807              	.LASF147:
 4808 0008 6F6C6470 		.ascii	"oldprio\000"
 4808      72696F00 
 4809              	.LASF51:
 4810 0010 72656164 		.ascii	"ready_list_t\000"
 4810      795F6C69 
 4810      73745F74 
 4810      00
 4811              	.LASF85:
 4812 001d 44494552 		.ascii	"DIER\000"
 4812      00
 4813              	.LASF2:
 4814 0022 73697A65 		.ascii	"size_t\000"
 4814      5F7400
 4815              	.LASF153:
 4816 0029 6E657874 		.ascii	"next\000"
 4816      00
 4817              	.LASF96:
 4818 002e 7264796D 		.ascii	"rdymsg\000"
 4818      736700
 4819              	.LASF17:
 4820 0035 75696E74 		.ascii	"uint64_t\000"
 4820      36345F74 
 4820      00
 4821              	.LASF165:
 4822 003e 63685468 		.ascii	"chThdDequeueAllI\000"
 4822      64446571 
 4822      75657565 
 4822      416C6C49 
 4822      00
 4823              	.LASF3:
 4824 004f 5F5F7569 		.ascii	"__uint8_t\000"
 4824      6E74385F 
 4824      7400
 4825              	.LASF152:
 4826 0059 70726576 		.ascii	"prev\000"
 4826      00
 4827              	.LASF83:
 4828 005e 706F7274 		.ascii	"port_intctx\000"
 4828      5F696E74 
 4828      63747800 
 4829              	.LASF70:
 4830 006a 73797374 		.ascii	"system_debug_t\000"
 4830      656D5F64 
 4830      65627567 
ARM GAS  /tmp/cc72Hk9S.s 			page 87


 4830      5F7400
 4831              	.LASF151:
 4832 0079 63685468 		.ascii	"chThdSleepUntilWindowed\000"
 4832      64536C65 
 4832      6570556E 
 4832      74696C57 
 4832      696E646F 
 4833              	.LASF119:
 4834 0091 71756575 		.ascii	"queue_init\000"
 4834      655F696E 
 4834      697400
 4835              	.LASF113:
 4836 009c 706F7274 		.ascii	"port_lock\000"
 4836      5F6C6F63 
 4836      6B00
 4837              	.LASF155:
 4838 00a6 63685468 		.ascii	"chThdExitS\000"
 4838      64457869 
 4838      745300
 4839              	.LASF13:
 4840 00b1 6C6F6E67 		.ascii	"long long unsigned int\000"
 4840      206C6F6E 
 4840      6720756E 
 4840      7369676E 
 4840      65642069 
 4841              	.LASF97:
 4842 00c8 65786974 		.ascii	"exitcode\000"
 4842      636F6465 
 4842      00
 4843              	.LASF77:
 4844 00d1 6D61696E 		.ascii	"mainthread\000"
 4844      74687265 
 4844      616400
 4845              	.LASF67:
 4846 00dc 76697274 		.ascii	"virtual_timers_list_t\000"
 4846      75616C5F 
 4846      74696D65 
 4846      72735F6C 
 4846      6973745F 
 4847              	.LASF166:
 4848 00f2 49544D5F 		.ascii	"ITM_RxBuffer\000"
 4848      52784275 
 4848      66666572 
 4848      00
 4849              	.LASF89:
 4850 00ff 42445452 		.ascii	"BDTR\000"
 4850      00
 4851              	.LASF50:
 4852 0104 63685F74 		.ascii	"ch_threads_queue\000"
 4852      68726561 
 4852      64735F71 
 4852      75657565 
 4852      00
 4853              	.LASF117:
 4854 0115 6C697374 		.ascii	"list_init\000"
 4854      5F696E69 
 4854      7400
ARM GAS  /tmp/cc72Hk9S.s 			page 88


 4855              	.LASF30:
 4856 011f 705F7072 		.ascii	"p_prio\000"
 4856      696F00
 4857              	.LASF86:
 4858 0126 43434D52 		.ascii	"CCMR1\000"
 4858      3100
 4859              	.LASF87:
 4860 012c 43434D52 		.ascii	"CCMR2\000"
 4860      3200
 4861              	.LASF91:
 4862 0132 43434D52 		.ascii	"CCMR3\000"
 4862      3300
 4863              	.LASF1:
 4864 0138 7369676E 		.ascii	"signed char\000"
 4864      65642063 
 4864      68617200 
 4865              	.LASF154:
 4866 0144 63685468 		.ascii	"chThdExit\000"
 4866      64457869 
 4866      7400
 4867              	.LASF126:
 4868 014e 63685363 		.ascii	"chSchCanYieldS\000"
 4868      6843616E 
 4868      5969656C 
 4868      645300
 4869              	.LASF107:
 4870 015d 6D5F7175 		.ascii	"m_queue\000"
 4870      65756500 
 4871              	.LASF76:
 4872 0165 76746C69 		.ascii	"vtlist\000"
 4872      737400
 4873              	.LASF114:
 4874 016c 706F7274 		.ascii	"port_unlock\000"
 4874      5F756E6C 
 4874      6F636B00 
 4875              	.LASF141:
 4876 0178 63685468 		.ascii	"chThdCreateI\000"
 4876      64437265 
 4876      61746549 
 4876      00
 4877              	.LASF99:
 4878 0185 77747472 		.ascii	"wttrp\000"
 4878      7000
 4879              	.LASF74:
 4880 018b 63685F73 		.ascii	"ch_system\000"
 4880      79737465 
 4880      6D00
 4881              	.LASF8:
 4882 0195 6C6F6E67 		.ascii	"long int\000"
 4882      20696E74 
 4882      00
 4883              	.LASF20:
 4884 019e 74737461 		.ascii	"tstate_t\000"
 4884      74655F74 
 4884      00
 4885              	.LASF121:
 4886 01a7 71756575 		.ascii	"queue_notempty\000"
ARM GAS  /tmp/cc72Hk9S.s 			page 89


 4886      655F6E6F 
 4886      74656D70 
 4886      747900
 4887              	.LASF88:
 4888 01b6 43434552 		.ascii	"CCER\000"
 4888      00
 4889              	.LASF11:
 4890 01bb 6C6F6E67 		.ascii	"long long int\000"
 4890      206C6F6E 
 4890      6720696E 
 4890      7400
 4891              	.LASF167:
 4892 01c9 474E5520 		.ascii	"GNU C 4.8.4 20141219 (release) -mcpu=cortex-m4 -mno"
 4892      4320342E 
 4892      382E3420 
 4892      32303134 
 4892      31323139 
 4893 01fc 2D746875 		.ascii	"-thumb-interwork -mthumb -ggdb -O0 -fomit-frame-poi"
 4893      6D622D69 
 4893      6E746572 
 4893      776F726B 
 4893      202D6D74 
 4894 022f 6E746572 		.ascii	"nter -falign-functions=16 -ffunction-sections -fdat"
 4894      202D6661 
 4894      6C69676E 
 4894      2D66756E 
 4894      6374696F 
 4895 0262 612D7365 		.ascii	"a-sections -fno-common\000"
 4895      6374696F 
 4895      6E73202D 
 4895      666E6F2D 
 4895      636F6D6D 
 4896              	.LASF32:
 4897 0279 705F6E65 		.ascii	"p_newer\000"
 4897      77657200 
 4898              	.LASF104:
 4899 0281 735F7175 		.ascii	"s_queue\000"
 4899      65756500 
 4900              	.LASF6:
 4901 0289 73686F72 		.ascii	"short unsigned int\000"
 4901      7420756E 
 4901      7369676E 
 4901      65642069 
 4901      6E7400
 4902              	.LASF123:
 4903 029c 6C697374 		.ascii	"list_remove\000"
 4903      5F72656D 
 4903      6F766500 
 4904              	.LASF160:
 4905 02a8 63685468 		.ascii	"chThdResumeI\000"
 4905      64526573 
 4905      756D6549 
 4905      00
 4906              	.LASF44:
 4907 02b5 705F6D70 		.ascii	"p_mpool\000"
 4907      6F6F6C00 
 4908              	.LASF80:
ARM GAS  /tmp/cc72Hk9S.s 			page 90


 4909 02bd 72656761 		.ascii	"regarm_t\000"
 4909      726D5F74 
 4909      00
 4910              	.LASF63:
 4911 02c6 76745F70 		.ascii	"vt_prev\000"
 4911      72657600 
 4912              	.LASF161:
 4913 02ce 63685468 		.ascii	"chThdResumeS\000"
 4913      64526573 
 4913      756D6553 
 4913      00
 4914              	.LASF112:
 4915 02db 6D757465 		.ascii	"mutex_t\000"
 4915      785F7400 
 4916              	.LASF170:
 4917 02e3 76616C75 		.ascii	"value\000"
 4917      6500
 4918              	.LASF145:
 4919 02e9 63685468 		.ascii	"chThdSetPriority\000"
 4919      64536574 
 4919      5072696F 
 4919      72697479 
 4919      00
 4920              	.LASF25:
 4921 02fa 636E745F 		.ascii	"cnt_t\000"
 4921      7400
 4922              	.LASF130:
 4923 0300 63685654 		.ascii	"chVTGetSystemTimeX\000"
 4923      47657453 
 4923      79737465 
 4923      6D54696D 
 4923      655800
 4924              	.LASF0:
 4925 0313 756E7369 		.ascii	"unsigned int\000"
 4925      676E6564 
 4925      20696E74 
 4925      00
 4926              	.LASF140:
 4927 0320 5F746872 		.ascii	"_thread_init\000"
 4927      6561645F 
 4927      696E6974 
 4927      00
 4928              	.LASF62:
 4929 032d 76745F6E 		.ascii	"vt_next\000"
 4929      65787400 
 4930              	.LASF100:
 4931 0335 77747365 		.ascii	"wtsemp\000"
 4931      6D7000
 4932              	.LASF64:
 4933 033c 76745F64 		.ascii	"vt_delta\000"
 4933      656C7461 
 4933      00
 4934              	.LASF39:
 4935 0345 705F6D73 		.ascii	"p_msgqueue\000"
 4935      67717565 
 4935      756500
 4936              	.LASF137:
ARM GAS  /tmp/cc72Hk9S.s 			page 91


 4937 0350 63685468 		.ascii	"chThdSleepS\000"
 4937      64536C65 
 4937      65705300 
 4938              	.LASF159:
 4939 035c 74696D65 		.ascii	"timeout\000"
 4939      6F757400 
 4940              	.LASF105:
 4941 0364 735F636E 		.ascii	"s_cnt\000"
 4941      7400
 4942              	.LASF84:
 4943 036a 534D4352 		.ascii	"SMCR\000"
 4943      00
 4944              	.LASF47:
 4945 036f 63685F74 		.ascii	"ch_thread\000"
 4945      68726561 
 4945      6400
 4946              	.LASF23:
 4947 0379 6D73675F 		.ascii	"msg_t\000"
 4947      7400
 4948              	.LASF56:
 4949 037f 725F6E65 		.ascii	"r_newer\000"
 4949      77657200 
 4950              	.LASF73:
 4951 0387 63685F73 		.ascii	"ch_system_t\000"
 4951      79737465 
 4951      6D5F7400 
 4952              	.LASF124:
 4953 0393 71756575 		.ascii	"queue_insert\000"
 4953      655F696E 
 4953      73657274 
 4953      00
 4954              	.LASF146:
 4955 03a0 6E657770 		.ascii	"newprio\000"
 4955      72696F00 
 4956              	.LASF93:
 4957 03a8 73746D33 		.ascii	"stm32_tim_t\000"
 4957      325F7469 
 4957      6D5F7400 
 4958              	.LASF148:
 4959 03b4 63685468 		.ascii	"chThdTerminate\000"
 4959      64546572 
 4959      6D696E61 
 4959      746500
 4960              	.LASF52:
 4961 03c3 63685F72 		.ascii	"ch_ready_list\000"
 4961      65616479 
 4961      5F6C6973 
 4961      7400
 4962              	.LASF24:
 4963 03d1 6576656E 		.ascii	"eventmask_t\000"
 4963      746D6173 
 4963      6B5F7400 
 4964              	.LASF7:
 4965 03dd 5F5F696E 		.ascii	"__int32_t\000"
 4965      7433325F 
 4965      7400
 4966              	.LASF81:
ARM GAS  /tmp/cc72Hk9S.s 			page 92


 4967 03e7 73746B61 		.ascii	"stkalign_t\000"
 4967      6C69676E 
 4967      5F7400
 4968              	.LASF143:
 4969 03f2 63685468 		.ascii	"chThdCreateStatic\000"
 4969      64437265 
 4969      61746553 
 4969      74617469 
 4969      6300
 4970              	.LASF46:
 4971 0404 74687265 		.ascii	"threads_list_t\000"
 4971      6164735F 
 4971      6C697374 
 4971      5F7400
 4972              	.LASF158:
 4973 0413 63685468 		.ascii	"chThdSuspendTimeoutS\000"
 4973      64537573 
 4973      70656E64 
 4973      54696D65 
 4973      6F757453 
 4974              	.LASF38:
 4975 0428 705F7761 		.ascii	"p_waiting\000"
 4975      6974696E 
 4975      6700
 4976              	.LASF79:
 4977 0432 73697A65 		.ascii	"sizetype\000"
 4977      74797065 
 4977      00
 4978              	.LASF45:
 4979 043b 74687265 		.ascii	"thread_reference_t\000"
 4979      61645F72 
 4979      65666572 
 4979      656E6365 
 4979      5F7400
 4980              	.LASF68:
 4981 044e 63685F76 		.ascii	"ch_virtual_timers_list\000"
 4981      69727475 
 4981      616C5F74 
 4981      696D6572 
 4981      735F6C69 
 4982              	.LASF69:
 4983 0465 76745F6C 		.ascii	"vt_lasttime\000"
 4983      61737474 
 4983      696D6500 
 4984              	.LASF33:
 4985 0471 705F6F6C 		.ascii	"p_older\000"
 4985      64657200 
 4986              	.LASF55:
 4987 0479 725F6374 		.ascii	"r_ctx\000"
 4987      7800
 4988              	.LASF95:
 4989 047f 746D5F63 		.ascii	"tm_calibration_t\000"
 4989      616C6962 
 4989      72617469 
 4989      6F6E5F74 
 4989      00
 4990              	.LASF109:
ARM GAS  /tmp/cc72Hk9S.s 			page 93


 4991 0490 6D5F6E65 		.ascii	"m_next\000"
 4991      787400
 4992              	.LASF132:
 4993 0497 74696D65 		.ascii	"time\000"
 4993      00
 4994              	.LASF122:
 4995 049c 6C697374 		.ascii	"list_insert\000"
 4995      5F696E73 
 4995      65727400 
 4996              	.LASF139:
 4997 04a8 7072696F 		.ascii	"prio\000"
 4997      00
 4998              	.LASF57:
 4999 04ad 725F6F6C 		.ascii	"r_older\000"
 4999      64657200 
 5000              	.LASF150:
 5001 04b5 63685468 		.ascii	"chThdSleepUntil\000"
 5001      64536C65 
 5001      6570556E 
 5001      74696C00 
 5002              	.LASF144:
 5003 04c5 63685468 		.ascii	"chThdStart\000"
 5003      64537461 
 5003      727400
 5004              	.LASF157:
 5005 04d0 63685468 		.ascii	"chThdSuspendS\000"
 5005      64537573 
 5005      70656E64 
 5005      5300
 5006              	.LASF12:
 5007 04de 5F5F7569 		.ascii	"__uint64_t\000"
 5007      6E743634 
 5007      5F7400
 5008              	.LASF21:
 5009 04e9 74726566 		.ascii	"trefs_t\000"
 5009      735F7400 
 5010              	.LASF60:
 5011 04f1 76697274 		.ascii	"virtual_timer_t\000"
 5011      75616C5F 
 5011      74696D65 
 5011      725F7400 
 5012              	.LASF29:
 5013 0501 705F7072 		.ascii	"p_prev\000"
 5013      657600
 5014              	.LASF22:
 5015 0508 74707269 		.ascii	"tprio_t\000"
 5015      6F5F7400 
 5016              	.LASF34:
 5017 0510 705F6E61 		.ascii	"p_name\000"
 5017      6D6500
 5018              	.LASF71:
 5019 0517 63685F73 		.ascii	"ch_system_debug\000"
 5019      79737465 
 5019      6D5F6465 
 5019      62756700 
 5020              	.LASF118:
 5021 0527 5F426F6F 		.ascii	"_Bool\000"
ARM GAS  /tmp/cc72Hk9S.s 			page 94


 5021      6C00
 5022              	.LASF15:
 5023 052d 696E7433 		.ascii	"int32_t\000"
 5023      325F7400 
 5024              	.LASF4:
 5025 0535 756E7369 		.ascii	"unsigned char\000"
 5025      676E6564 
 5025      20636861 
 5025      7200
 5026              	.LASF42:
 5027 0543 705F6D74 		.ascii	"p_mtxlist\000"
 5027      786C6973 
 5027      7400
 5028              	.LASF5:
 5029 054d 73686F72 		.ascii	"short int\000"
 5029      7420696E 
 5029      7400
 5030              	.LASF35:
 5031 0557 705F7374 		.ascii	"p_state\000"
 5031      61746500 
 5032              	.LASF54:
 5033 055f 725F7072 		.ascii	"r_prio\000"
 5033      696F00
 5034              	.LASF102:
 5035 0566 65776D61 		.ascii	"ewmask\000"
 5035      736B00
 5036              	.LASF28:
 5037 056d 705F6E65 		.ascii	"p_next\000"
 5037      787400
 5038              	.LASF131:
 5039 0574 63685654 		.ascii	"chVTIsTimeWithinX\000"
 5039      49735469 
 5039      6D655769 
 5039      7468696E 
 5039      5800
 5040              	.LASF36:
 5041 0586 705F666C 		.ascii	"p_flags\000"
 5041      61677300 
 5042              	.LASF136:
 5043 058e 5F5F6675 		.ascii	"__func__\000"
 5043      6E635F5F 
 5043      00
 5044              	.LASF78:
 5045 0597 69646C65 		.ascii	"idle_thread_wa\000"
 5045      5F746872 
 5045      6561645F 
 5045      776100
 5046              	.LASF128:
 5047 05a6 63685379 		.ascii	"chSysLock\000"
 5047      734C6F63 
 5047      6B00
 5048              	.LASF61:
 5049 05b0 63685F76 		.ascii	"ch_virtual_timer\000"
 5049      69727475 
 5049      616C5F74 
 5049      696D6572 
 5049      00
ARM GAS  /tmp/cc72Hk9S.s 			page 95


 5050              	.LASF103:
 5051 05c1 63685F73 		.ascii	"ch_semaphore\000"
 5051      656D6170 
 5051      686F7265 
 5051      00
 5052              	.LASF92:
 5053 05ce 43435852 		.ascii	"CCXR\000"
 5053      00
 5054              	.LASF41:
 5055 05d3 705F6570 		.ascii	"p_epending\000"
 5055      656E6469 
 5055      6E6700
 5056              	.LASF149:
 5057 05de 63685468 		.ascii	"chThdSleep\000"
 5057      64536C65 
 5057      657000
 5058              	.LASF115:
 5059 05e9 73745F6C 		.ascii	"st_lld_get_counter\000"
 5059      6C645F67 
 5059      65745F63 
 5059      6F756E74 
 5059      657200
 5060              	.LASF16:
 5061 05fc 75696E74 		.ascii	"uint32_t\000"
 5061      33325F74 
 5061      00
 5062              	.LASF101:
 5063 0605 77746D74 		.ascii	"wtmtxp\000"
 5063      787000
 5064              	.LASF53:
 5065 060c 725F7175 		.ascii	"r_queue\000"
 5065      65756500 
 5066              	.LASF162:
 5067 0614 63685468 		.ascii	"chThdResume\000"
 5067      64526573 
 5067      756D6500 
 5068              	.LASF48:
 5069 0620 63685F74 		.ascii	"ch_threads_list\000"
 5069      68726561 
 5069      64735F6C 
 5069      69737400 
 5070              	.LASF10:
 5071 0630 6C6F6E67 		.ascii	"long unsigned int\000"
 5071      20756E73 
 5071      69676E65 
 5071      6420696E 
 5071      7400
 5072              	.LASF58:
 5073 0642 725F6375 		.ascii	"r_current\000"
 5073      7272656E 
 5073      7400
 5074              	.LASF110:
 5075 064c 63686172 		.ascii	"char\000"
 5075      00
 5076              	.LASF90:
 5077 0651 444D4152 		.ascii	"DMAR\000"
 5077      00
ARM GAS  /tmp/cc72Hk9S.s 			page 96


 5078              	.LASF27:
 5079 0656 74687265 		.ascii	"thread_t\000"
 5079      61645F74 
 5079      00
 5080              	.LASF138:
 5081 065f 63685468 		.ascii	"chThdDoDequeueNextI\000"
 5081      64446F44 
 5081      65717565 
 5081      75654E65 
 5081      78744900 
 5082              	.LASF125:
 5083 0673 71756575 		.ascii	"queue_fifo_remove\000"
 5083      655F6669 
 5083      666F5F72 
 5083      656D6F76 
 5083      6500
 5084              	.LASF26:
 5085 0685 73797374 		.ascii	"systime_t\000"
 5085      696D655F 
 5085      7400
 5086              	.LASF43:
 5087 068f 705F7265 		.ascii	"p_realprio\000"
 5087      616C7072 
 5087      696F00
 5088              	.LASF59:
 5089 069a 76746675 		.ascii	"vtfunc_t\000"
 5089      6E635F74 
 5089      00
 5090              	.LASF169:
 5091 06a3 5F5F7365 		.ascii	"__set_BASEPRI\000"
 5091      745F4241 
 5091      53455052 
 5091      4900
 5092              	.LASF72:
 5093 06b1 70616E69 		.ascii	"panic_msg\000"
 5093      635F6D73 
 5093      6700
 5094              	.LASF94:
 5095 06bb 6F666673 		.ascii	"offset\000"
 5095      657400
 5096              	.LASF82:
 5097 06c2 636F6E74 		.ascii	"context\000"
 5097      65787400 
 5098              	.LASF116:
 5099 06ca 706F7274 		.ascii	"port_timer_get_time\000"
 5099      5F74696D 
 5099      65725F67 
 5099      65745F74 
 5099      696D6500 
 5100              	.LASF9:
 5101 06de 5F5F7569 		.ascii	"__uint32_t\000"
 5101      6E743332 
 5101      5F7400
 5102              	.LASF18:
 5103 06e9 7274636E 		.ascii	"rtcnt_t\000"
 5103      745F7400 
 5104              	.LASF156:
ARM GAS  /tmp/cc72Hk9S.s 			page 97


 5105 06f1 63685468 		.ascii	"chThdWait\000"
 5105      64576169 
 5105      7400
 5106              	.LASF66:
 5107 06fb 76745F70 		.ascii	"vt_par\000"
 5107      617200
 5108              	.LASF49:
 5109 0702 74687265 		.ascii	"threads_queue_t\000"
 5109      6164735F 
 5109      71756575 
 5109      655F7400 
 5110              	.LASF106:
 5111 0712 63685F6D 		.ascii	"ch_mutex\000"
 5111      75746578 
 5111      00
 5112              	.LASF37:
 5113 071b 705F7265 		.ascii	"p_refs\000"
 5113      667300
 5114              	.LASF75:
 5115 0722 726C6973 		.ascii	"rlist\000"
 5115      7400
 5116              	.LASF134:
 5117 0728 63685468 		.ascii	"chThdGetSelfX\000"
 5117      64476574 
 5117      53656C66 
 5117      5800
 5118              	.LASF14:
 5119 0736 75696E74 		.ascii	"uint8_t\000"
 5119      385F7400 
 5120              	.LASF171:
 5121 073e 63685468 		.ascii	"chThdYield\000"
 5121      64596965 
 5121      6C6400
 5122              	.LASF98:
 5123 0749 77746F62 		.ascii	"wtobjp\000"
 5123      6A7000
 5124              	.LASF127:
 5125 0750 63685363 		.ascii	"chSchDoYieldS\000"
 5125      68446F59 
 5125      69656C64 
 5125      5300
 5126              	.LASF142:
 5127 075e 73697A65 		.ascii	"size\000"
 5127      00
 5128              	.LASF120:
 5129 0763 6C697374 		.ascii	"list_notempty\000"
 5129      5F6E6F74 
 5129      656D7074 
 5129      7900
 5130              	.LASF168:
 5131 0771 2F686F6D 		.ascii	"/home/efe/ChibiOS/os/rt/src/chthreads.c\000"
 5131      652F6566 
 5131      652F4368 
 5131      6962694F 
 5131      532F6F73 
 5132              	.LASF19:
 5133 0799 746D6F64 		.ascii	"tmode_t\000"
ARM GAS  /tmp/cc72Hk9S.s 			page 98


 5133      655F7400 
 5134              	.LASF129:
 5135 07a1 63685379 		.ascii	"chSysUnlock\000"
 5135      73556E6C 
 5135      6F636B00 
 5136              	.LASF40:
 5137 07ad 705F6D73 		.ascii	"p_msg\000"
 5137      6700
 5138              	.LASF133:
 5139 07b3 73746172 		.ascii	"start\000"
 5139      7400
 5140              	.LASF108:
 5141 07b9 6D5F6F77 		.ascii	"m_owner\000"
 5141      6E657200 
 5142              	.LASF135:
 5143 07c1 63685468 		.ascii	"chThdStartI\000"
 5143      64537461 
 5143      72744900 
 5144              	.LASF31:
 5145 07cd 705F6374 		.ascii	"p_ctx\000"
 5145      7800
 5146              	.LASF65:
 5147 07d3 76745F66 		.ascii	"vt_func\000"
 5147      756E6300 
 5148              	.LASF163:
 5149 07db 63685468 		.ascii	"chThdEnqueueTimeoutS\000"
 5149      64456E71 
 5149      75657565 
 5149      54696D65 
 5149      6F757453 
 5150              	.LASF164:
 5151 07f0 63685468 		.ascii	"chThdDequeueNextI\000"
 5151      64446571 
 5151      75657565 
 5151      4E657874 
 5151      4900
 5152              		.ident	"GCC: (4.8.4-1+11-1) 4.8.4 20141219 (release)"
ARM GAS  /tmp/cc72Hk9S.s 			page 99


DEFINED SYMBOLS
                            *ABS*:0000000000000000 chthreads.c
     /tmp/cc72Hk9S.s:19     .text.port_lock:0000000000000000 $t
     /tmp/cc72Hk9S.s:24     .text.port_lock:0000000000000000 port_lock
     /tmp/cc72Hk9S.s:55     .text.port_unlock:0000000000000000 $t
     /tmp/cc72Hk9S.s:60     .text.port_unlock:0000000000000000 port_unlock
     /tmp/cc72Hk9S.s:89     .text.st_lld_get_counter:0000000000000000 $t
     /tmp/cc72Hk9S.s:94     .text.st_lld_get_counter:0000000000000000 st_lld_get_counter
     /tmp/cc72Hk9S.s:112    .text.port_timer_get_time:0000000000000000 $t
     /tmp/cc72Hk9S.s:117    .text.port_timer_get_time:0000000000000000 port_timer_get_time
     /tmp/cc72Hk9S.s:138    .text.list_init:0000000000000000 $t
     /tmp/cc72Hk9S.s:143    .text.list_init:0000000000000000 list_init
     /tmp/cc72Hk9S.s:166    .text.list_notempty:0000000000000000 $t
     /tmp/cc72Hk9S.s:171    .text.list_notempty:0000000000000000 list_notempty
     /tmp/cc72Hk9S.s:199    .text.queue_init:0000000000000000 $t
     /tmp/cc72Hk9S.s:204    .text.queue_init:0000000000000000 queue_init
     /tmp/cc72Hk9S.s:230    .text.queue_notempty:0000000000000000 $t
     /tmp/cc72Hk9S.s:235    .text.queue_notempty:0000000000000000 queue_notempty
     /tmp/cc72Hk9S.s:263    .text.list_insert:0000000000000000 $t
     /tmp/cc72Hk9S.s:268    .text.list_insert:0000000000000000 list_insert
     /tmp/cc72Hk9S.s:296    .text.list_remove:0000000000000000 $t
     /tmp/cc72Hk9S.s:301    .text.list_remove:0000000000000000 list_remove
     /tmp/cc72Hk9S.s:331    .text.queue_insert:0000000000000000 $t
     /tmp/cc72Hk9S.s:336    .text.queue_insert:0000000000000000 queue_insert
     /tmp/cc72Hk9S.s:373    .text.queue_fifo_remove:0000000000000000 $t
     /tmp/cc72Hk9S.s:378    .text.queue_fifo_remove:0000000000000000 queue_fifo_remove
     /tmp/cc72Hk9S.s:413    .text.chSchCanYieldS:0000000000000000 $t
     /tmp/cc72Hk9S.s:418    .text.chSchCanYieldS:0000000000000000 chSchCanYieldS
     /tmp/cc72Hk9S.s:443    .text.chSchCanYieldS:000000000000001c $d
     /tmp/cc72Hk9S.s:448    .text.chSchDoYieldS:0000000000000000 $t
     /tmp/cc72Hk9S.s:453    .text.chSchDoYieldS:0000000000000000 chSchDoYieldS
     /tmp/cc72Hk9S.s:477    .text.chSysLock:0000000000000000 $t
     /tmp/cc72Hk9S.s:482    .text.chSysLock:0000000000000000 chSysLock
     /tmp/cc72Hk9S.s:501    .text.chSysUnlock:0000000000000000 $t
     /tmp/cc72Hk9S.s:506    .text.chSysUnlock:0000000000000000 chSysUnlock
     /tmp/cc72Hk9S.s:524    .text.chVTGetSystemTimeX:0000000000000000 $t
     /tmp/cc72Hk9S.s:529    .text.chVTGetSystemTimeX:0000000000000000 chVTGetSystemTimeX
     /tmp/cc72Hk9S.s:550    .text.chVTIsTimeWithinX:0000000000000000 $t
     /tmp/cc72Hk9S.s:555    .text.chVTIsTimeWithinX:0000000000000000 chVTIsTimeWithinX
     /tmp/cc72Hk9S.s:588    .text.chThdGetSelfX:0000000000000000 $t
     /tmp/cc72Hk9S.s:593    .text.chThdGetSelfX:0000000000000000 chThdGetSelfX
     /tmp/cc72Hk9S.s:610    .text.chThdGetSelfX:0000000000000008 $d
     /tmp/cc72Hk9S.s:615    .text.chThdStartI:0000000000000000 $t
     /tmp/cc72Hk9S.s:620    .text.chThdStartI:0000000000000000 chThdStartI
     /tmp/cc72Hk9S.s:645    .text.chThdSleepS:0000000000000000 $t
     /tmp/cc72Hk9S.s:650    .text.chThdSleepS:0000000000000000 chThdSleepS
     /tmp/cc72Hk9S.s:674    .text.chThdDoDequeueNextI:0000000000000000 $t
     /tmp/cc72Hk9S.s:679    .text.chThdDoDequeueNextI:0000000000000000 chThdDoDequeueNextI
     /tmp/cc72Hk9S.s:711    .text._thread_init:0000000000000000 $t
     /tmp/cc72Hk9S.s:717    .text._thread_init:0000000000000000 _thread_init
     /tmp/cc72Hk9S.s:798    .text._thread_init:0000000000000074 $d
     /tmp/cc72Hk9S.s:803    .text.chThdCreateI:0000000000000000 $t
     /tmp/cc72Hk9S.s:809    .text.chThdCreateI:0000000000000000 chThdCreateI
     /tmp/cc72Hk9S.s:859    .text.chThdCreateI:0000000000000048 $d
     /tmp/cc72Hk9S.s:864    .text.chThdCreateStatic:0000000000000000 $t
     /tmp/cc72Hk9S.s:870    .text.chThdCreateStatic:0000000000000000 chThdCreateStatic
     /tmp/cc72Hk9S.s:913    .text.chThdStart:0000000000000000 $t
ARM GAS  /tmp/cc72Hk9S.s 			page 100


     /tmp/cc72Hk9S.s:919    .text.chThdStart:0000000000000000 chThdStart
     /tmp/cc72Hk9S.s:950    .text.chThdSetPriority:0000000000000000 $t
     /tmp/cc72Hk9S.s:956    .text.chThdSetPriority:0000000000000000 chThdSetPriority
     /tmp/cc72Hk9S.s:1017   .text.chThdSetPriority:0000000000000050 $d
     /tmp/cc72Hk9S.s:1022   .text.chThdTerminate:0000000000000000 $t
     /tmp/cc72Hk9S.s:1028   .text.chThdTerminate:0000000000000000 chThdTerminate
     /tmp/cc72Hk9S.s:1059   .text.chThdSleep:0000000000000000 $t
     /tmp/cc72Hk9S.s:1065   .text.chThdSleep:0000000000000000 chThdSleep
     /tmp/cc72Hk9S.s:1092   .text.chThdSleepUntil:0000000000000000 $t
     /tmp/cc72Hk9S.s:1098   .text.chThdSleepUntil:0000000000000000 chThdSleepUntil
     /tmp/cc72Hk9S.s:1136   .text.chThdSleepUntilWindowed:0000000000000000 $t
     /tmp/cc72Hk9S.s:1142   .text.chThdSleepUntilWindowed:0000000000000000 chThdSleepUntilWindowed
     /tmp/cc72Hk9S.s:1188   .text.chThdYield:0000000000000000 $t
     /tmp/cc72Hk9S.s:1194   .text.chThdYield:0000000000000000 chThdYield
     /tmp/cc72Hk9S.s:1216   .text.chThdExit:0000000000000000 $t
     /tmp/cc72Hk9S.s:1222   .text.chThdExit:0000000000000000 chThdExit
     /tmp/cc72Hk9S.s:1253   .text.chThdExitS:0000000000000000 chThdExitS
     /tmp/cc72Hk9S.s:1247   .text.chThdExitS:0000000000000000 $t
     /tmp/cc72Hk9S.s:1321   .text.chThdExitS:0000000000000064 $d
     /tmp/cc72Hk9S.s:1326   .text.chThdWait:0000000000000000 $t
     /tmp/cc72Hk9S.s:1332   .text.chThdWait:0000000000000000 chThdWait
     /tmp/cc72Hk9S.s:1382   .text.chThdWait:0000000000000044 $d
     /tmp/cc72Hk9S.s:1387   .text.chThdSuspendS:0000000000000000 $t
     /tmp/cc72Hk9S.s:1393   .text.chThdSuspendS:0000000000000000 chThdSuspendS
     /tmp/cc72Hk9S.s:1432   .text.chThdSuspendTimeoutS:0000000000000000 $t
     /tmp/cc72Hk9S.s:1438   .text.chThdSuspendTimeoutS:0000000000000000 chThdSuspendTimeoutS
     /tmp/cc72Hk9S.s:1485   .text.chThdResumeI:0000000000000000 $t
     /tmp/cc72Hk9S.s:1491   .text.chThdResumeI:0000000000000000 chThdResumeI
     /tmp/cc72Hk9S.s:1535   .text.chThdResumeS:0000000000000000 $t
     /tmp/cc72Hk9S.s:1541   .text.chThdResumeS:0000000000000000 chThdResumeS
     /tmp/cc72Hk9S.s:1582   .text.chThdResume:0000000000000000 $t
     /tmp/cc72Hk9S.s:1588   .text.chThdResume:0000000000000000 chThdResume
     /tmp/cc72Hk9S.s:1617   .text.chThdEnqueueTimeoutS:0000000000000000 $t
     /tmp/cc72Hk9S.s:1623   .text.chThdEnqueueTimeoutS:0000000000000000 chThdEnqueueTimeoutS
     /tmp/cc72Hk9S.s:1664   .text.chThdEnqueueTimeoutS:0000000000000034 $d
     /tmp/cc72Hk9S.s:1669   .text.chThdDequeueNextI:0000000000000000 $t
     /tmp/cc72Hk9S.s:1675   .text.chThdDequeueNextI:0000000000000000 chThdDequeueNextI
     /tmp/cc72Hk9S.s:1707   .text.chThdDequeueAllI:0000000000000000 $t
     /tmp/cc72Hk9S.s:1713   .text.chThdDequeueAllI:0000000000000000 chThdDequeueAllI
                     .debug_frame:0000000000000010 $d
     /tmp/cc72Hk9S.s:614    .text.chThdGetSelfX:000000000000000c $t
     /tmp/cc72Hk9S.s:802    .text._thread_init:0000000000000078 $t
     /tmp/cc72Hk9S.s:863    .text.chThdCreateI:000000000000004c $t
     /tmp/cc72Hk9S.s:1021   .text.chThdSetPriority:0000000000000054 $t
     /tmp/cc72Hk9S.s:1325   .text.chThdExitS:0000000000000068 $t
     /tmp/cc72Hk9S.s:1386   .text.chThdWait:0000000000000048 $t
     /tmp/cc72Hk9S.s:1668   .text.chThdEnqueueTimeoutS:0000000000000038 $t

UNDEFINED SYMBOLS
ch
chSchDoRescheduleBehind
chSchReadyI
chSchGoSleepTimeoutS
_port_thread_start
chSchWakeupS
chSchRescheduleS
chSchGoSleepS
ARM GAS  /tmp/cc72Hk9S.s 			page 101


chThdRelease
