ARM GAS  /tmp/ccjMvKi1.s 			page 1


   1              		.syntax unified
   2              		.cpu cortex-m4
   3              		.fpu softvfp
   4              		.eabi_attribute 20, 1
   5              		.eabi_attribute 21, 1
   6              		.eabi_attribute 23, 3
   7              		.eabi_attribute 24, 1
   8              		.eabi_attribute 25, 1
   9              		.eabi_attribute 26, 1
  10              		.eabi_attribute 30, 6
  11              		.eabi_attribute 34, 1
  12              		.eabi_attribute 18, 4
  13              		.thumb
  14              		.file	"chtm.c"
  15              		.text
  16              	.Ltext0:
  17              		.cfi_sections	.debug_frame
  18              		.section	.text.port_rt_get_counter_value,"ax",%progbits
  19              		.align	2
  20              		.p2align 4,,15
  21              		.thumb
  22              		.thumb_func
  23              		.type	port_rt_get_counter_value, %function
  24              	port_rt_get_counter_value:
  25              	.LFB135:
  26              		.file 1 "/home/efe/ChibiOS/os/rt/ports/ARMCMx/chcore_v7m.h"
  27              		.loc 1 558 0
  28              		.cfi_startproc
  29              		@ args = 0, pretend = 0, frame = 0
  30              		@ frame_needed = 0, uses_anonymous_args = 0
  31              		@ link register save eliminated.
  32              		.loc 1 560 0
  33 0000 014B     		ldr	r3, .L3
  34 0002 5B68     		ldr	r3, [r3, #4]
  35              		.loc 1 561 0
  36 0004 1846     		mov	r0, r3
  37 0006 7047     		bx	lr
  38              	.L4:
  39              		.align	2
  40              	.L3:
  41 0008 001000E0 		.word	-536866816
  42              		.cfi_endproc
  43              	.LFE135:
  44              		.size	port_rt_get_counter_value, .-port_rt_get_counter_value
  45 000c AFF30080 		.section	.text.tm_stop,"ax",%progbits
  46              		.align	2
  47              		.p2align 4,,15
  48              		.thumb
  49              		.thumb_func
  50              		.type	tm_stop, %function
  51              	tm_stop:
  52              	.LFB240:
  53              		.file 2 "/home/efe/ChibiOS/os/rt/src/chtm.c"
  54              		.loc 2 55 0
  55              		.cfi_startproc
  56              		@ args = 0, pretend = 0, frame = 16
  57              		@ frame_needed = 0, uses_anonymous_args = 0
ARM GAS  /tmp/ccjMvKi1.s 			page 2


  58              		@ link register save eliminated.
  59 0000 84B0     		sub	sp, sp, #16
  60              		.cfi_def_cfa_offset 16
  61 0002 0390     		str	r0, [sp, #12]
  62 0004 0291     		str	r1, [sp, #8]
  63 0006 0192     		str	r2, [sp, #4]
  64              		.loc 2 57 0
  65 0008 039B     		ldr	r3, [sp, #12]
  66 000a DB68     		ldr	r3, [r3, #12]
  67 000c 5A1C     		adds	r2, r3, #1
  68 000e 039B     		ldr	r3, [sp, #12]
  69 0010 DA60     		str	r2, [r3, #12]
  70              		.loc 2 58 0
  71 0012 039B     		ldr	r3, [sp, #12]
  72 0014 9B68     		ldr	r3, [r3, #8]
  73 0016 029A     		ldr	r2, [sp, #8]
  74 0018 D21A     		subs	r2, r2, r3
  75 001a 019B     		ldr	r3, [sp, #4]
  76 001c D21A     		subs	r2, r2, r3
  77 001e 039B     		ldr	r3, [sp, #12]
  78 0020 9A60     		str	r2, [r3, #8]
  79              		.loc 2 59 0
  80 0022 039B     		ldr	r3, [sp, #12]
  81 0024 D3E90401 		ldrd	r0, [r3, #16]
  82 0028 039B     		ldr	r3, [sp, #12]
  83 002a 9B68     		ldr	r3, [r3, #8]
  84 002c 1A46     		mov	r2, r3
  85 002e 4FF00003 		mov	r3, #0
  86 0032 1218     		adds	r2, r2, r0
  87 0034 43EB0103 		adc	r3, r3, r1
  88 0038 0399     		ldr	r1, [sp, #12]
  89 003a C1E90423 		strd	r2, [r1, #16]
  90              		.loc 2 61 0
  91 003e 039B     		ldr	r3, [sp, #12]
  92 0040 9A68     		ldr	r2, [r3, #8]
  93 0042 039B     		ldr	r3, [sp, #12]
  94 0044 5B68     		ldr	r3, [r3, #4]
  95 0046 9A42     		cmp	r2, r3
  96 0048 04D9     		bls	.L6
  97              		.loc 2 62 0
  98 004a 039B     		ldr	r3, [sp, #12]
  99 004c 9A68     		ldr	r2, [r3, #8]
 100 004e 039B     		ldr	r3, [sp, #12]
 101 0050 5A60     		str	r2, [r3, #4]
 102 0052 09E0     		b	.L5
 103              	.L6:
 104              		.loc 2 64 0
 105 0054 039B     		ldr	r3, [sp, #12]
 106 0056 9A68     		ldr	r2, [r3, #8]
 107 0058 039B     		ldr	r3, [sp, #12]
 108 005a 1B68     		ldr	r3, [r3]
 109 005c 9A42     		cmp	r2, r3
 110 005e 03D2     		bcs	.L5
 111              		.loc 2 65 0
 112 0060 039B     		ldr	r3, [sp, #12]
 113 0062 9A68     		ldr	r2, [r3, #8]
 114 0064 039B     		ldr	r3, [sp, #12]
ARM GAS  /tmp/ccjMvKi1.s 			page 3


 115 0066 1A60     		str	r2, [r3]
 116              	.L5:
 117              		.loc 2 68 0
 118 0068 04B0     		add	sp, sp, #16
 119              		@ sp needed
 120 006a 7047     		bx	lr
 121              		.cfi_endproc
 122              	.LFE240:
 123              		.size	tm_stop, .-tm_stop
 124 006c AFF30080 		.section	.text._tm_init,"ax",%progbits
 125              		.align	2
 126              		.p2align 4,,15
 127              		.global	_tm_init
 128              		.thumb
 129              		.thumb_func
 130              		.type	_tm_init, %function
 131              	_tm_init:
 132              	.LFB241:
 133              		.loc 2 79 0
 134              		.cfi_startproc
 135              		@ args = 0, pretend = 0, frame = 24
 136              		@ frame_needed = 0, uses_anonymous_args = 0
 137 0000 00B5     		push	{lr}
 138              		.cfi_def_cfa_offset 4
 139              		.cfi_offset 14, -4
 140 0002 87B0     		sub	sp, sp, #28
 141              		.cfi_def_cfa_offset 32
 142              		.loc 2 85 0
 143 0004 0A4B     		ldr	r3, .L9
 144 0006 0022     		movs	r2, #0
 145 0008 5A67     		str	r2, [r3, #116]
 146              		.loc 2 86 0
 147 000a 6B46     		mov	r3, sp
 148 000c 1846     		mov	r0, r3
 149 000e FFF7FEFF 		bl	chTMObjectInit
 150              		.loc 2 87 0
 151 0012 6B46     		mov	r3, sp
 152 0014 1846     		mov	r0, r3
 153 0016 FFF7FEFF 		bl	chTMStartMeasurementX
 154              		.loc 2 88 0
 155 001a 6B46     		mov	r3, sp
 156 001c 1846     		mov	r0, r3
 157 001e FFF7FEFF 		bl	chTMStopMeasurementX
 158              		.loc 2 89 0
 159 0022 029A     		ldr	r2, [sp, #8]
 160 0024 024B     		ldr	r3, .L9
 161 0026 5A67     		str	r2, [r3, #116]
 162              		.loc 2 90 0
 163 0028 07B0     		add	sp, sp, #28
 164              		@ sp needed
 165 002a 5DF804FB 		ldr	pc, [sp], #4
 166              	.L10:
 167 002e 00BF     		.align	2
 168              	.L9:
 169 0030 00000000 		.word	ch
 170              		.cfi_endproc
 171              	.LFE241:
ARM GAS  /tmp/ccjMvKi1.s 			page 4


 172              		.size	_tm_init, .-_tm_init
 173 0034 AFF30080 		.section	.text.chTMObjectInit,"ax",%progbits
 173      AFF30080 
 173      AFF30080 
 174              		.align	2
 175              		.p2align 4,,15
 176              		.global	chTMObjectInit
 177              		.thumb
 178              		.thumb_func
 179              		.type	chTMObjectInit, %function
 180              	chTMObjectInit:
 181              	.LFB242:
 182              		.loc 2 99 0
 183              		.cfi_startproc
 184              		@ args = 0, pretend = 0, frame = 8
 185              		@ frame_needed = 0, uses_anonymous_args = 0
 186              		@ link register save eliminated.
 187 0000 82B0     		sub	sp, sp, #8
 188              		.cfi_def_cfa_offset 8
 189 0002 0190     		str	r0, [sp, #4]
 190              		.loc 2 101 0
 191 0004 019B     		ldr	r3, [sp, #4]
 192 0006 4FF0FF32 		mov	r2, #-1
 193 000a 1A60     		str	r2, [r3]
 194              		.loc 2 102 0
 195 000c 019B     		ldr	r3, [sp, #4]
 196 000e 0022     		movs	r2, #0
 197 0010 5A60     		str	r2, [r3, #4]
 198              		.loc 2 103 0
 199 0012 019B     		ldr	r3, [sp, #4]
 200 0014 0022     		movs	r2, #0
 201 0016 9A60     		str	r2, [r3, #8]
 202              		.loc 2 104 0
 203 0018 019B     		ldr	r3, [sp, #4]
 204 001a 0022     		movs	r2, #0
 205 001c DA60     		str	r2, [r3, #12]
 206              		.loc 2 105 0
 207 001e 0199     		ldr	r1, [sp, #4]
 208 0020 4FF00002 		mov	r2, #0
 209 0024 4FF00003 		mov	r3, #0
 210 0028 C1E90423 		strd	r2, [r1, #16]
 211              		.loc 2 106 0
 212 002c 02B0     		add	sp, sp, #8
 213              		@ sp needed
 214 002e 7047     		bx	lr
 215              		.cfi_endproc
 216              	.LFE242:
 217              		.size	chTMObjectInit, .-chTMObjectInit
 218              		.section	.text.chTMStartMeasurementX,"ax",%progbits
 219              		.align	2
 220              		.p2align 4,,15
 221              		.global	chTMStartMeasurementX
 222              		.thumb
 223              		.thumb_func
 224              		.type	chTMStartMeasurementX, %function
 225              	chTMStartMeasurementX:
 226              	.LFB243:
ARM GAS  /tmp/ccjMvKi1.s 			page 5


 227              		.loc 2 116 0
 228              		.cfi_startproc
 229              		@ args = 0, pretend = 0, frame = 8
 230              		@ frame_needed = 0, uses_anonymous_args = 0
 231 0000 00B5     		push	{lr}
 232              		.cfi_def_cfa_offset 4
 233              		.cfi_offset 14, -4
 234 0002 83B0     		sub	sp, sp, #12
 235              		.cfi_def_cfa_offset 16
 236 0004 0190     		str	r0, [sp, #4]
 237              		.loc 2 118 0
 238 0006 FFF7FEFF 		bl	port_rt_get_counter_value
 239 000a 0246     		mov	r2, r0
 240 000c 019B     		ldr	r3, [sp, #4]
 241 000e 9A60     		str	r2, [r3, #8]
 242              		.loc 2 119 0
 243 0010 03B0     		add	sp, sp, #12
 244              		@ sp needed
 245 0012 5DF804FB 		ldr	pc, [sp], #4
 246              		.cfi_endproc
 247              	.LFE243:
 248              		.size	chTMStartMeasurementX, .-chTMStartMeasurementX
 249 0016 00BFAFF3 		.section	.text.chTMStopMeasurementX,"ax",%progbits
 249      0080AFF3 
 249      0080
 250              		.align	2
 251              		.p2align 4,,15
 252              		.global	chTMStopMeasurementX
 253              		.thumb
 254              		.thumb_func
 255              		.type	chTMStopMeasurementX, %function
 256              	chTMStopMeasurementX:
 257              	.LFB244:
 258              		.loc 2 129 0
 259              		.cfi_startproc
 260              		@ args = 0, pretend = 0, frame = 8
 261              		@ frame_needed = 0, uses_anonymous_args = 0
 262 0000 00B5     		push	{lr}
 263              		.cfi_def_cfa_offset 4
 264              		.cfi_offset 14, -4
 265 0002 83B0     		sub	sp, sp, #12
 266              		.cfi_def_cfa_offset 16
 267 0004 0190     		str	r0, [sp, #4]
 268              		.loc 2 131 0
 269 0006 FFF7FEFF 		bl	port_rt_get_counter_value
 270 000a 0246     		mov	r2, r0
 271 000c 044B     		ldr	r3, .L14
 272 000e 5B6F     		ldr	r3, [r3, #116]
 273 0010 0198     		ldr	r0, [sp, #4]
 274 0012 1146     		mov	r1, r2
 275 0014 1A46     		mov	r2, r3
 276 0016 FFF7FEFF 		bl	tm_stop
 277              		.loc 2 132 0
 278 001a 03B0     		add	sp, sp, #12
 279              		@ sp needed
 280 001c 5DF804FB 		ldr	pc, [sp], #4
 281              	.L15:
ARM GAS  /tmp/ccjMvKi1.s 			page 6


 282              		.align	2
 283              	.L14:
 284 0020 00000000 		.word	ch
 285              		.cfi_endproc
 286              	.LFE244:
 287              		.size	chTMStopMeasurementX, .-chTMStopMeasurementX
 288 0024 AFF30080 		.section	.text.chTMChainMeasurementToX,"ax",%progbits
 288      AFF30080 
 288      AFF30080 
 289              		.align	2
 290              		.p2align 4,,15
 291              		.global	chTMChainMeasurementToX
 292              		.thumb
 293              		.thumb_func
 294              		.type	chTMChainMeasurementToX, %function
 295              	chTMChainMeasurementToX:
 296              	.LFB245:
 297              		.loc 2 147 0
 298              		.cfi_startproc
 299              		@ args = 0, pretend = 0, frame = 8
 300              		@ frame_needed = 0, uses_anonymous_args = 0
 301 0000 00B5     		push	{lr}
 302              		.cfi_def_cfa_offset 4
 303              		.cfi_offset 14, -4
 304 0002 83B0     		sub	sp, sp, #12
 305              		.cfi_def_cfa_offset 16
 306 0004 0190     		str	r0, [sp, #4]
 307 0006 0091     		str	r1, [sp]
 308              		.loc 2 150 0
 309 0008 FFF7FEFF 		bl	port_rt_get_counter_value
 310 000c 0246     		mov	r2, r0
 311 000e 009B     		ldr	r3, [sp]
 312 0010 9A60     		str	r2, [r3, #8]
 313              		.loc 2 153 0
 314 0012 009B     		ldr	r3, [sp]
 315 0014 9B68     		ldr	r3, [r3, #8]
 316 0016 0198     		ldr	r0, [sp, #4]
 317 0018 1946     		mov	r1, r3
 318 001a 0022     		movs	r2, #0
 319 001c FFF7FEFF 		bl	tm_stop
 320              		.loc 2 154 0
 321 0020 03B0     		add	sp, sp, #12
 322              		@ sp needed
 323 0022 5DF804FB 		ldr	pc, [sp], #4
 324              		.cfi_endproc
 325              	.LFE245:
 326              		.size	chTMChainMeasurementToX, .-chTMChainMeasurementToX
 327 0026 00BFAFF3 		.text
 327      0080AFF3 
 327      0080
 328              	.Letext0:
 329              		.file 3 "/usr/include/newlib/machine/_default_types.h"
 330              		.file 4 "/usr/include/newlib/stdint.h"
 331              		.file 5 "/home/efe/ChibiOS/os/rt/ports/ARMCMx/compilers/GCC/chtypes.h"
 332              		.file 6 "/home/efe/ChibiOS/os/rt/include/chsystypes.h"
 333              		.file 7 "/home/efe/ChibiOS/os/rt/include/chschd.h"
 334              		.file 8 "/home/efe/ChibiOS/os/ext/CMSIS/include/core_cm4.h"
ARM GAS  /tmp/ccjMvKi1.s 			page 7


 335              		.file 9 "/home/efe/ChibiOS/os/rt/ports/ARMCMx/chcore.h"
 336              		.file 10 "/home/efe/ChibiOS/os/rt/include/chtm.h"
 337              		.file 11 "/home/efe/ChibiOS/os/rt/include/chsem.h"
 338              		.file 12 "/home/efe/ChibiOS/os/rt/include/chmtx.h"
 339              		.section	.debug_info,"",%progbits
 340              	.Ldebug_info0:
 341 0000 07090000 		.4byte	0x907
 342 0004 0400     		.2byte	0x4
 343 0006 00000000 		.4byte	.Ldebug_abbrev0
 344 000a 04       		.byte	0x4
 345 000b 01       		.uleb128 0x1
 346 000c 62010000 		.4byte	.LASF140
 347 0010 01       		.byte	0x1
 348 0011 9F050000 		.4byte	.LASF141
 349 0015 00000000 		.4byte	.Ldebug_ranges0+0
 350 0019 00000000 		.4byte	0
 351 001d 00000000 		.4byte	.Ldebug_line0
 352 0021 02       		.uleb128 0x2
 353 0022 04       		.byte	0x4
 354 0023 05       		.byte	0x5
 355 0024 696E7400 		.ascii	"int\000"
 356 0028 03       		.uleb128 0x3
 357 0029 04       		.byte	0x4
 358 002a 07       		.byte	0x7
 359 002b 68020000 		.4byte	.LASF0
 360 002f 03       		.uleb128 0x3
 361 0030 01       		.byte	0x1
 362 0031 06       		.byte	0x6
 363 0032 F2000000 		.4byte	.LASF1
 364 0036 04       		.uleb128 0x4
 365 0037 23000000 		.4byte	.LASF5
 366 003b 03       		.byte	0x3
 367 003c 1D       		.byte	0x1d
 368 003d 41000000 		.4byte	0x41
 369 0041 03       		.uleb128 0x3
 370 0042 01       		.byte	0x1
 371 0043 08       		.byte	0x8
 372 0044 4E040000 		.4byte	.LASF2
 373 0048 03       		.uleb128 0x3
 374 0049 02       		.byte	0x2
 375 004a 05       		.byte	0x5
 376 004b 91040000 		.4byte	.LASF3
 377 004f 03       		.uleb128 0x3
 378 0050 02       		.byte	0x2
 379 0051 07       		.byte	0x7
 380 0052 B4020000 		.4byte	.LASF4
 381 0056 04       		.uleb128 0x4
 382 0057 14030000 		.4byte	.LASF6
 383 005b 03       		.byte	0x3
 384 005c 3F       		.byte	0x3f
 385 005d 61000000 		.4byte	0x61
 386 0061 03       		.uleb128 0x3
 387 0062 04       		.byte	0x4
 388 0063 05       		.byte	0x5
 389 0064 47010000 		.4byte	.LASF7
 390 0068 04       		.uleb128 0x4
 391 0069 8A050000 		.4byte	.LASF8
ARM GAS  /tmp/ccjMvKi1.s 			page 8


 392 006d 03       		.byte	0x3
 393 006e 41       		.byte	0x41
 394 006f 73000000 		.4byte	0x73
 395 0073 03       		.uleb128 0x3
 396 0074 04       		.byte	0x4
 397 0075 07       		.byte	0x7
 398 0076 2B050000 		.4byte	.LASF9
 399 007a 03       		.uleb128 0x3
 400 007b 08       		.byte	0x8
 401 007c 05       		.byte	0x5
 402 007d E4000000 		.4byte	.LASF10
 403 0081 04       		.uleb128 0x4
 404 0082 DA030000 		.4byte	.LASF11
 405 0086 03       		.byte	0x3
 406 0087 5B       		.byte	0x5b
 407 0088 8C000000 		.4byte	0x8c
 408 008c 03       		.uleb128 0x3
 409 008d 08       		.byte	0x8
 410 008e 07       		.byte	0x7
 411 008f 72000000 		.4byte	.LASF12
 412 0093 04       		.uleb128 0x4
 413 0094 1A060000 		.4byte	.LASF13
 414 0098 04       		.byte	0x4
 415 0099 2A       		.byte	0x2a
 416 009a 36000000 		.4byte	0x36
 417 009e 04       		.uleb128 0x4
 418 009f 46040000 		.4byte	.LASF14
 419 00a3 04       		.byte	0x4
 420 00a4 41       		.byte	0x41
 421 00a5 56000000 		.4byte	0x56
 422 00a9 04       		.uleb128 0x4
 423 00aa FA040000 		.4byte	.LASF15
 424 00ae 04       		.byte	0x4
 425 00af 42       		.byte	0x42
 426 00b0 68000000 		.4byte	0x68
 427 00b4 04       		.uleb128 0x4
 428 00b5 1A000000 		.4byte	.LASF16
 429 00b9 04       		.byte	0x4
 430 00ba 4E       		.byte	0x4e
 431 00bb 81000000 		.4byte	0x81
 432 00bf 05       		.uleb128 0x5
 433 00c0 9E000000 		.4byte	0x9e
 434 00c4 05       		.uleb128 0x5
 435 00c5 A9000000 		.4byte	0xa9
 436 00c9 04       		.uleb128 0x4
 437 00ca DA050000 		.4byte	.LASF17
 438 00ce 05       		.byte	0x5
 439 00cf 45       		.byte	0x45
 440 00d0 A9000000 		.4byte	0xa9
 441 00d4 04       		.uleb128 0x4
 442 00d5 CA000000 		.4byte	.LASF18
 443 00d9 05       		.byte	0x5
 444 00da 46       		.byte	0x46
 445 00db B4000000 		.4byte	0xb4
 446 00df 04       		.uleb128 0x4
 447 00e0 F6020000 		.4byte	.LASF19
 448 00e4 05       		.byte	0x5
ARM GAS  /tmp/ccjMvKi1.s 			page 9


 449 00e5 48       		.byte	0x48
 450 00e6 93000000 		.4byte	0x93
 451 00ea 04       		.uleb128 0x4
 452 00eb 50010000 		.4byte	.LASF20
 453 00ef 05       		.byte	0x5
 454 00f0 49       		.byte	0x49
 455 00f1 93000000 		.4byte	0x93
 456 00f5 04       		.uleb128 0x4
 457 00f6 F0030000 		.4byte	.LASF21
 458 00fa 05       		.byte	0x5
 459 00fb 4A       		.byte	0x4a
 460 00fc 93000000 		.4byte	0x93
 461 0100 04       		.uleb128 0x4
 462 0101 2D040000 		.4byte	.LASF22
 463 0105 05       		.byte	0x5
 464 0106 4C       		.byte	0x4c
 465 0107 A9000000 		.4byte	0xa9
 466 010b 04       		.uleb128 0x4
 467 010c D8020000 		.4byte	.LASF23
 468 0110 05       		.byte	0x5
 469 0111 4D       		.byte	0x4d
 470 0112 9E000000 		.4byte	0x9e
 471 0116 04       		.uleb128 0x4
 472 0117 08030000 		.4byte	.LASF24
 473 011b 05       		.byte	0x5
 474 011c 4F       		.byte	0x4f
 475 011d A9000000 		.4byte	0xa9
 476 0121 04       		.uleb128 0x4
 477 0122 62020000 		.4byte	.LASF25
 478 0126 05       		.byte	0x5
 479 0127 51       		.byte	0x51
 480 0128 9E000000 		.4byte	0x9e
 481 012c 04       		.uleb128 0x4
 482 012d E3020000 		.4byte	.LASF26
 483 0131 05       		.byte	0x5
 484 0132 52       		.byte	0x52
 485 0133 A9000000 		.4byte	0xa9
 486 0137 04       		.uleb128 0x4
 487 0138 6C050000 		.4byte	.LASF27
 488 013c 06       		.byte	0x6
 489 013d 33       		.byte	0x33
 490 013e A9000000 		.4byte	0xa9
 491 0142 04       		.uleb128 0x4
 492 0143 42050000 		.4byte	.LASF28
 493 0147 06       		.byte	0x6
 494 0148 3F       		.byte	0x3f
 495 0149 4D010000 		.4byte	0x14d
 496 014d 06       		.uleb128 0x6
 497 014e C7020000 		.4byte	.LASF48
 498 0152 44       		.byte	0x44
 499 0153 07       		.byte	0x7
 500 0154 C2       		.byte	0xc2
 501 0155 3A020000 		.4byte	0x23a
 502 0159 07       		.uleb128 0x7
 503 015a B1040000 		.4byte	.LASF29
 504 015e 07       		.byte	0x7
 505 015f C3       		.byte	0xc3
ARM GAS  /tmp/ccjMvKi1.s 			page 10


 506 0160 45020000 		.4byte	0x245
 507 0164 00       		.byte	0
 508 0165 07       		.uleb128 0x7
 509 0166 26040000 		.4byte	.LASF30
 510 016a 07       		.byte	0x7
 511 016b C5       		.byte	0xc5
 512 016c 45020000 		.4byte	0x245
 513 0170 04       		.byte	0x4
 514 0171 07       		.uleb128 0x7
 515 0172 D3000000 		.4byte	.LASF31
 516 0176 07       		.byte	0x7
 517 0177 C7       		.byte	0xc7
 518 0178 00010000 		.4byte	0x100
 519 017c 08       		.byte	0x8
 520 017d 07       		.uleb128 0x7
 521 017e B0030000 		.4byte	.LASF32
 522 0182 07       		.byte	0x7
 523 0183 C8       		.byte	0xc8
 524 0184 CB050000 		.4byte	0x5cb
 525 0188 0C       		.byte	0xc
 526 0189 07       		.uleb128 0x7
 527 018a 12020000 		.4byte	.LASF33
 528 018e 07       		.byte	0x7
 529 018f CA       		.byte	0xca
 530 0190 45020000 		.4byte	0x245
 531 0194 10       		.byte	0x10
 532 0195 07       		.uleb128 0x7
 533 0196 A2030000 		.4byte	.LASF34
 534 019a 07       		.byte	0x7
 535 019b CB       		.byte	0xcb
 536 019c 45020000 		.4byte	0x245
 537 01a0 14       		.byte	0x14
 538 01a1 07       		.uleb128 0x7
 539 01a2 31060000 		.4byte	.LASF35
 540 01a6 07       		.byte	0x7
 541 01a7 D2       		.byte	0xd2
 542 01a8 98070000 		.4byte	0x798
 543 01ac 18       		.byte	0x18
 544 01ad 07       		.uleb128 0x7
 545 01ae 9B040000 		.4byte	.LASF36
 546 01b2 07       		.byte	0x7
 547 01b3 DD       		.byte	0xdd
 548 01b4 EA000000 		.4byte	0xea
 549 01b8 1C       		.byte	0x1c
 550 01b9 07       		.uleb128 0x7
 551 01ba B8040000 		.4byte	.LASF37
 552 01be 07       		.byte	0x7
 553 01bf E1       		.byte	0xe1
 554 01c0 DF000000 		.4byte	0xdf
 555 01c4 1D       		.byte	0x1d
 556 01c5 07       		.uleb128 0x7
 557 01c6 0D060000 		.4byte	.LASF38
 558 01ca 07       		.byte	0x7
 559 01cb E6       		.byte	0xe6
 560 01cc F5000000 		.4byte	0xf5
 561 01d0 1E       		.byte	0x1e
 562 01d1 08       		.uleb128 0x8
ARM GAS  /tmp/ccjMvKi1.s 			page 11


 563 01d2 705F7500 		.ascii	"p_u\000"
 564 01d6 07       		.byte	0x7
 565 01d7 3101     		.2byte	0x131
 566 01d9 D3060000 		.4byte	0x6d3
 567 01dd 20       		.byte	0x20
 568 01de 09       		.uleb128 0x9
 569 01df 48030000 		.4byte	.LASF39
 570 01e3 07       		.byte	0x7
 571 01e4 3601     		.2byte	0x136
 572 01e6 4B020000 		.4byte	0x24b
 573 01ea 24       		.byte	0x24
 574 01eb 09       		.uleb128 0x9
 575 01ec 90020000 		.4byte	.LASF40
 576 01f0 07       		.byte	0x7
 577 01f1 3C01     		.2byte	0x13c
 578 01f3 6F020000 		.4byte	0x26f
 579 01f7 28       		.byte	0x28
 580 01f8 09       		.uleb128 0x9
 581 01f9 47060000 		.4byte	.LASF41
 582 01fd 07       		.byte	0x7
 583 01fe 4001     		.2byte	0x140
 584 0200 0B010000 		.4byte	0x10b
 585 0204 30       		.byte	0x30
 586 0205 09       		.uleb128 0x9
 587 0206 E8040000 		.4byte	.LASF42
 588 020a 07       		.byte	0x7
 589 020b 4601     		.2byte	0x146
 590 020d 16010000 		.4byte	0x116
 591 0211 34       		.byte	0x34
 592 0212 09       		.uleb128 0x9
 593 0213 FE020000 		.4byte	.LASF43
 594 0217 07       		.byte	0x7
 595 0218 4D01     		.2byte	0x14d
 596 021a 92070000 		.4byte	0x792
 597 021e 38       		.byte	0x38
 598 021f 09       		.uleb128 0x9
 599 0220 76050000 		.4byte	.LASF44
 600 0224 07       		.byte	0x7
 601 0225 5101     		.2byte	0x151
 602 0227 00010000 		.4byte	0x100
 603 022b 3C       		.byte	0x3c
 604 022c 09       		.uleb128 0x9
 605 022d FE000000 		.4byte	.LASF45
 606 0231 07       		.byte	0x7
 607 0232 5801     		.2byte	0x158
 608 0234 22030000 		.4byte	0x322
 609 0238 40       		.byte	0x40
 610 0239 00       		.byte	0
 611 023a 04       		.uleb128 0x4
 612 023b 5B030000 		.4byte	.LASF46
 613 023f 06       		.byte	0x6
 614 0240 44       		.byte	0x44
 615 0241 45020000 		.4byte	0x245
 616 0245 0A       		.uleb128 0xa
 617 0246 04       		.byte	0x4
 618 0247 42010000 		.4byte	0x142
 619 024b 04       		.uleb128 0x4
ARM GAS  /tmp/ccjMvKi1.s 			page 12


 620 024c 38060000 		.4byte	.LASF47
 621 0250 06       		.byte	0x6
 622 0251 49       		.byte	0x49
 623 0252 56020000 		.4byte	0x256
 624 0256 06       		.uleb128 0x6
 625 0257 1B050000 		.4byte	.LASF49
 626 025b 04       		.byte	0x4
 627 025c 07       		.byte	0x7
 628 025d B0       		.byte	0xb0
 629 025e 6F020000 		.4byte	0x26f
 630 0262 07       		.uleb128 0x7
 631 0263 B1040000 		.4byte	.LASF29
 632 0267 07       		.byte	0x7
 633 0268 B1       		.byte	0xb1
 634 0269 45020000 		.4byte	0x245
 635 026d 00       		.byte	0
 636 026e 00       		.byte	0
 637 026f 04       		.uleb128 0x4
 638 0270 F4050000 		.4byte	.LASF50
 639 0274 06       		.byte	0x6
 640 0275 50       		.byte	0x50
 641 0276 7A020000 		.4byte	0x27a
 642 027a 06       		.uleb128 0x6
 643 027b 39000000 		.4byte	.LASF51
 644 027f 08       		.byte	0x8
 645 0280 07       		.byte	0x7
 646 0281 B7       		.byte	0xb7
 647 0282 9F020000 		.4byte	0x29f
 648 0286 07       		.uleb128 0x7
 649 0287 B1040000 		.4byte	.LASF29
 650 028b 07       		.byte	0x7
 651 028c B8       		.byte	0xb8
 652 028d 45020000 		.4byte	0x245
 653 0291 00       		.byte	0
 654 0292 07       		.uleb128 0x7
 655 0293 26040000 		.4byte	.LASF30
 656 0297 07       		.byte	0x7
 657 0298 B9       		.byte	0xb9
 658 0299 45020000 		.4byte	0x245
 659 029d 04       		.byte	0x4
 660 029e 00       		.byte	0
 661 029f 04       		.uleb128 0x4
 662 02a0 00000000 		.4byte	.LASF52
 663 02a4 06       		.byte	0x6
 664 02a5 57       		.byte	0x57
 665 02a6 AA020000 		.4byte	0x2aa
 666 02aa 0B       		.uleb128 0xb
 667 02ab 9B020000 		.4byte	.LASF53
 668 02af 1C       		.byte	0x1c
 669 02b0 07       		.byte	0x7
 670 02b1 9001     		.2byte	0x190
 671 02b3 06030000 		.4byte	0x306
 672 02b7 09       		.uleb128 0x9
 673 02b8 0A050000 		.4byte	.LASF54
 674 02bc 07       		.byte	0x7
 675 02bd 9101     		.2byte	0x191
 676 02bf 6F020000 		.4byte	0x26f
ARM GAS  /tmp/ccjMvKi1.s 			page 13


 677 02c3 00       		.byte	0
 678 02c4 09       		.uleb128 0x9
 679 02c5 A3040000 		.4byte	.LASF55
 680 02c9 07       		.byte	0x7
 681 02ca 9201     		.2byte	0x192
 682 02cc 00010000 		.4byte	0x100
 683 02d0 08       		.byte	0x8
 684 02d1 09       		.uleb128 0x9
 685 02d2 AA030000 		.4byte	.LASF56
 686 02d6 07       		.byte	0x7
 687 02d7 9401     		.2byte	0x194
 688 02d9 CB050000 		.4byte	0x5cb
 689 02dd 0C       		.byte	0xc
 690 02de 09       		.uleb128 0x9
 691 02df 22020000 		.4byte	.LASF57
 692 02e3 07       		.byte	0x7
 693 02e4 9701     		.2byte	0x197
 694 02e6 45020000 		.4byte	0x245
 695 02ea 10       		.byte	0x10
 696 02eb 09       		.uleb128 0x9
 697 02ec D2030000 		.4byte	.LASF58
 698 02f0 07       		.byte	0x7
 699 02f1 9801     		.2byte	0x198
 700 02f3 45020000 		.4byte	0x245
 701 02f7 14       		.byte	0x14
 702 02f8 09       		.uleb128 0x9
 703 02f9 C8030000 		.4byte	.LASF59
 704 02fd 07       		.byte	0x7
 705 02fe 9B01     		.2byte	0x19b
 706 0300 45020000 		.4byte	0x245
 707 0304 18       		.byte	0x18
 708 0305 00       		.byte	0
 709 0306 04       		.uleb128 0x4
 710 0307 81050000 		.4byte	.LASF60
 711 030b 06       		.byte	0x6
 712 030c 5C       		.byte	0x5c
 713 030d 11030000 		.4byte	0x311
 714 0311 0A       		.uleb128 0xa
 715 0312 04       		.byte	0x4
 716 0313 17030000 		.4byte	0x317
 717 0317 0C       		.uleb128 0xc
 718 0318 22030000 		.4byte	0x322
 719 031c 0D       		.uleb128 0xd
 720 031d 22030000 		.4byte	0x322
 721 0321 00       		.byte	0
 722 0322 0E       		.uleb128 0xe
 723 0323 04       		.byte	0x4
 724 0324 04       		.uleb128 0x4
 725 0325 16040000 		.4byte	.LASF61
 726 0329 06       		.byte	0x6
 727 032a 61       		.byte	0x61
 728 032b 2F030000 		.4byte	0x32f
 729 032f 0B       		.uleb128 0xb
 730 0330 CA040000 		.4byte	.LASF62
 731 0334 14       		.byte	0x14
 732 0335 07       		.byte	0x7
 733 0336 6B01     		.2byte	0x16b
ARM GAS  /tmp/ccjMvKi1.s 			page 14


 734 0338 7E030000 		.4byte	0x37e
 735 033c 09       		.uleb128 0x9
 736 033d 75020000 		.4byte	.LASF63
 737 0341 07       		.byte	0x7
 738 0342 6C01     		.2byte	0x16c
 739 0344 AA070000 		.4byte	0x7aa
 740 0348 00       		.byte	0
 741 0349 09       		.uleb128 0x9
 742 034a 33020000 		.4byte	.LASF64
 743 034e 07       		.byte	0x7
 744 034f 6D01     		.2byte	0x16d
 745 0351 AA070000 		.4byte	0x7aa
 746 0355 04       		.byte	0x4
 747 0356 09       		.uleb128 0x9
 748 0357 12050000 		.4byte	.LASF65
 749 035b 07       		.byte	0x7
 750 035c 6E01     		.2byte	0x16e
 751 035e 37010000 		.4byte	0x137
 752 0362 08       		.byte	0x8
 753 0363 09       		.uleb128 0x9
 754 0364 55060000 		.4byte	.LASF66
 755 0368 07       		.byte	0x7
 756 0369 6F01     		.2byte	0x16f
 757 036b 06030000 		.4byte	0x306
 758 036f 0C       		.byte	0xc
 759 0370 09       		.uleb128 0x9
 760 0371 E7050000 		.4byte	.LASF67
 761 0375 07       		.byte	0x7
 762 0376 7101     		.2byte	0x171
 763 0378 22030000 		.4byte	0x322
 764 037c 10       		.byte	0x10
 765 037d 00       		.byte	0
 766 037e 04       		.uleb128 0x4
 767 037f A5000000 		.4byte	.LASF68
 768 0383 06       		.byte	0x6
 769 0384 66       		.byte	0x66
 770 0385 89030000 		.4byte	0x389
 771 0389 0B       		.uleb128 0xb
 772 038a 6E030000 		.4byte	.LASF69
 773 038e 10       		.byte	0x10
 774 038f 07       		.byte	0x7
 775 0390 7B01     		.2byte	0x17b
 776 0392 CB030000 		.4byte	0x3cb
 777 0396 09       		.uleb128 0x9
 778 0397 75020000 		.4byte	.LASF63
 779 039b 07       		.byte	0x7
 780 039c 7C01     		.2byte	0x17c
 781 039e AA070000 		.4byte	0x7aa
 782 03a2 00       		.byte	0
 783 03a3 09       		.uleb128 0x9
 784 03a4 33020000 		.4byte	.LASF64
 785 03a8 07       		.byte	0x7
 786 03a9 7E01     		.2byte	0x17e
 787 03ab AA070000 		.4byte	0x7aa
 788 03af 04       		.byte	0x4
 789 03b0 09       		.uleb128 0x9
 790 03b1 12050000 		.4byte	.LASF65
ARM GAS  /tmp/ccjMvKi1.s 			page 15


 791 03b5 07       		.byte	0x7
 792 03b6 8001     		.2byte	0x180
 793 03b8 37010000 		.4byte	0x137
 794 03bc 08       		.byte	0x8
 795 03bd 09       		.uleb128 0x9
 796 03be 96030000 		.4byte	.LASF70
 797 03c2 07       		.byte	0x7
 798 03c3 8801     		.2byte	0x188
 799 03c5 37010000 		.4byte	0x137
 800 03c9 0C       		.byte	0xc
 801 03ca 00       		.byte	0
 802 03cb 04       		.uleb128 0x4
 803 03cc 4A000000 		.4byte	.LASF71
 804 03d0 06       		.byte	0x6
 805 03d1 6B       		.byte	0x6b
 806 03d2 D6030000 		.4byte	0x3d6
 807 03d6 0B       		.uleb128 0xb
 808 03d7 3B020000 		.4byte	.LASF72
 809 03db 04       		.byte	0x4
 810 03dc 07       		.byte	0x7
 811 03dd A201     		.2byte	0x1a2
 812 03df F1030000 		.4byte	0x3f1
 813 03e3 09       		.uleb128 0x9
 814 03e4 95050000 		.4byte	.LASF73
 815 03e8 07       		.byte	0x7
 816 03e9 AA01     		.2byte	0x1aa
 817 03eb B0070000 		.4byte	0x7b0
 818 03ef 00       		.byte	0
 819 03f0 00       		.byte	0
 820 03f1 04       		.uleb128 0x4
 821 03f2 EA020000 		.4byte	.LASF74
 822 03f6 06       		.byte	0x6
 823 03f7 70       		.byte	0x70
 824 03f8 FC030000 		.4byte	0x3fc
 825 03fc 0F       		.uleb128 0xf
 826 03fd C0040000 		.4byte	.LASF75
 827 0401 5001     		.2byte	0x150
 828 0403 07       		.byte	0x7
 829 0404 C201     		.2byte	0x1c2
 830 0406 58040000 		.4byte	0x458
 831 040a 09       		.uleb128 0x9
 832 040b 14060000 		.4byte	.LASF76
 833 040f 07       		.byte	0x7
 834 0410 C601     		.2byte	0x1c6
 835 0412 9F020000 		.4byte	0x29f
 836 0416 00       		.byte	0
 837 0417 09       		.uleb128 0x9
 838 0418 15010000 		.4byte	.LASF77
 839 041c 07       		.byte	0x7
 840 041d CA01     		.2byte	0x1ca
 841 041f 7E030000 		.4byte	0x37e
 842 0423 1C       		.byte	0x1c
 843 0424 08       		.uleb128 0x8
 844 0425 64626700 		.ascii	"dbg\000"
 845 0429 07       		.byte	0x7
 846 042a CE01     		.2byte	0x1ce
 847 042c CB030000 		.4byte	0x3cb
ARM GAS  /tmp/ccjMvKi1.s 			page 16


 848 0430 2C       		.byte	0x2c
 849 0431 09       		.uleb128 0x9
 850 0432 92000000 		.4byte	.LASF78
 851 0436 07       		.byte	0x7
 852 0437 D201     		.2byte	0x1d2
 853 0439 42010000 		.4byte	0x142
 854 043d 30       		.byte	0x30
 855 043e 08       		.uleb128 0x8
 856 043f 746D00   		.ascii	"tm\000"
 857 0442 07       		.byte	0x7
 858 0443 D701     		.2byte	0x1d7
 859 0445 7A060000 		.4byte	0x67a
 860 0449 74       		.byte	0x74
 861 044a 09       		.uleb128 0x9
 862 044b 53020000 		.4byte	.LASF79
 863 044f 07       		.byte	0x7
 864 0450 E301     		.2byte	0x1e3
 865 0452 B5070000 		.4byte	0x7b5
 866 0456 78       		.byte	0x78
 867 0457 00       		.byte	0
 868 0458 03       		.uleb128 0x3
 869 0459 04       		.byte	0x4
 870 045a 07       		.byte	0x7
 871 045b 52030000 		.4byte	.LASF80
 872 045f 10       		.uleb128 0x10
 873 0460 C4000000 		.4byte	0xc4
 874 0464 11       		.uleb128 0x11
 875 0465 A9000000 		.4byte	0xa9
 876 0469 74040000 		.4byte	0x474
 877 046d 12       		.uleb128 0x12
 878 046e 58040000 		.4byte	0x458
 879 0472 00       		.byte	0
 880 0473 00       		.byte	0
 881 0474 13       		.uleb128 0x13
 882 0475 5C       		.byte	0x5c
 883 0476 08       		.byte	0x8
 884 0477 5603     		.2byte	0x356
 885 0479 A9050000 		.4byte	0x5a9
 886 047d 09       		.uleb128 0x9
 887 047e E2050000 		.4byte	.LASF81
 888 0482 08       		.byte	0x8
 889 0483 5803     		.2byte	0x358
 890 0485 C4000000 		.4byte	0xc4
 891 0489 00       		.byte	0
 892 048a 09       		.uleb128 0x9
 893 048b 41030000 		.4byte	.LASF82
 894 048f 08       		.byte	0x8
 895 0490 5903     		.2byte	0x359
 896 0492 C4000000 		.4byte	0xc4
 897 0496 04       		.byte	0x4
 898 0497 09       		.uleb128 0x9
 899 0498 06010000 		.4byte	.LASF83
 900 049c 08       		.byte	0x8
 901 049d 5A03     		.2byte	0x35a
 902 049f C4000000 		.4byte	0xc4
 903 04a3 08       		.byte	0x8
 904 04a4 09       		.uleb128 0x9
ARM GAS  /tmp/ccjMvKi1.s 			page 17


 905 04a5 D1020000 		.4byte	.LASF84
 906 04a9 08       		.byte	0x8
 907 04aa 5B03     		.2byte	0x35b
 908 04ac C4000000 		.4byte	0xc4
 909 04b0 0C       		.byte	0xc
 910 04b1 09       		.uleb128 0x9
 911 04b2 59010000 		.4byte	.LASF85
 912 04b6 08       		.byte	0x8
 913 04b7 5C03     		.2byte	0x35c
 914 04b9 C4000000 		.4byte	0xc4
 915 04bd 10       		.byte	0x10
 916 04be 09       		.uleb128 0x9
 917 04bf F3040000 		.4byte	.LASF86
 918 04c3 08       		.byte	0x8
 919 04c4 5D03     		.2byte	0x35d
 920 04c6 C4000000 		.4byte	0xc4
 921 04ca 14       		.byte	0x14
 922 04cb 09       		.uleb128 0x9
 923 04cc 22060000 		.4byte	.LASF87
 924 04d0 08       		.byte	0x8
 925 04d1 5E03     		.2byte	0x35e
 926 04d3 C4000000 		.4byte	0xc4
 927 04d7 18       		.byte	0x18
 928 04d8 09       		.uleb128 0x9
 929 04d9 35040000 		.4byte	.LASF88
 930 04dd 08       		.byte	0x8
 931 04de 5F03     		.2byte	0x35f
 932 04e0 5F040000 		.4byte	0x45f
 933 04e4 1C       		.byte	0x1c
 934 04e5 09       		.uleb128 0x9
 935 04e6 EE050000 		.4byte	.LASF89
 936 04ea 08       		.byte	0x8
 937 04eb 6003     		.2byte	0x360
 938 04ed C4000000 		.4byte	0xc4
 939 04f1 20       		.byte	0x20
 940 04f2 09       		.uleb128 0x9
 941 04f3 3A040000 		.4byte	.LASF90
 942 04f7 08       		.byte	0x8
 943 04f8 6103     		.2byte	0x361
 944 04fa C4000000 		.4byte	0xc4
 945 04fe 24       		.byte	0x24
 946 04ff 09       		.uleb128 0x9
 947 0500 69040000 		.4byte	.LASF91
 948 0504 08       		.byte	0x8
 949 0505 6203     		.2byte	0x362
 950 0507 C4000000 		.4byte	0xc4
 951 050b 28       		.byte	0x28
 952 050c 09       		.uleb128 0x9
 953 050d F8030000 		.4byte	.LASF92
 954 0511 08       		.byte	0x8
 955 0512 6303     		.2byte	0x363
 956 0514 64040000 		.4byte	0x464
 957 0518 2C       		.byte	0x2c
 958 0519 09       		.uleb128 0x9
 959 051a B6030000 		.4byte	.LASF93
 960 051e 08       		.byte	0x8
 961 051f 6403     		.2byte	0x364
ARM GAS  /tmp/ccjMvKi1.s 			page 18


 962 0521 C4000000 		.4byte	0xc4
 963 0525 30       		.byte	0x30
 964 0526 09       		.uleb128 0x9
 965 0527 40040000 		.4byte	.LASF94
 966 052b 08       		.byte	0x8
 967 052c 6503     		.2byte	0x365
 968 052e C4000000 		.4byte	0xc4
 969 0532 34       		.byte	0x34
 970 0533 09       		.uleb128 0x9
 971 0534 73040000 		.4byte	.LASF95
 972 0538 08       		.byte	0x8
 973 0539 6603     		.2byte	0x366
 974 053b C4000000 		.4byte	0xc4
 975 053f 38       		.byte	0x38
 976 0540 09       		.uleb128 0x9
 977 0541 02040000 		.4byte	.LASF96
 978 0545 08       		.byte	0x8
 979 0546 6703     		.2byte	0x367
 980 0548 64040000 		.4byte	0x464
 981 054c 3C       		.byte	0x3c
 982 054d 09       		.uleb128 0x9
 983 054e BC030000 		.4byte	.LASF97
 984 0552 08       		.byte	0x8
 985 0553 6803     		.2byte	0x368
 986 0555 C4000000 		.4byte	0xc4
 987 0559 40       		.byte	0x40
 988 055a 09       		.uleb128 0x9
 989 055b 7D020000 		.4byte	.LASF98
 990 055f 08       		.byte	0x8
 991 0560 6903     		.2byte	0x369
 992 0562 C4000000 		.4byte	0xc4
 993 0566 44       		.byte	0x44
 994 0567 09       		.uleb128 0x9
 995 0568 7D040000 		.4byte	.LASF99
 996 056c 08       		.byte	0x8
 997 056d 6A03     		.2byte	0x36a
 998 056f C4000000 		.4byte	0xc4
 999 0573 48       		.byte	0x48
 1000 0574 09       		.uleb128 0x9
 1001 0575 0C040000 		.4byte	.LASF100
 1002 0579 08       		.byte	0x8
 1003 057a 6B03     		.2byte	0x36b
 1004 057c 64040000 		.4byte	0x464
 1005 0580 4C       		.byte	0x4c
 1006 0581 09       		.uleb128 0x9
 1007 0582 C2030000 		.4byte	.LASF101
 1008 0586 08       		.byte	0x8
 1009 0587 6C03     		.2byte	0x36c
 1010 0589 C4000000 		.4byte	0xc4
 1011 058d 50       		.byte	0x50
 1012 058e 09       		.uleb128 0x9
 1013 058f 83020000 		.4byte	.LASF102
 1014 0593 08       		.byte	0x8
 1015 0594 6D03     		.2byte	0x36d
 1016 0596 C4000000 		.4byte	0xc4
 1017 059a 54       		.byte	0x54
 1018 059b 09       		.uleb128 0x9
ARM GAS  /tmp/ccjMvKi1.s 			page 19


 1019 059c 87040000 		.4byte	.LASF103
 1020 05a0 08       		.byte	0x8
 1021 05a1 6E03     		.2byte	0x36e
 1022 05a3 C4000000 		.4byte	0xc4
 1023 05a7 58       		.byte	0x58
 1024 05a8 00       		.byte	0
 1025 05a9 14       		.uleb128 0x14
 1026 05aa D1050000 		.4byte	.LASF104
 1027 05ae 08       		.byte	0x8
 1028 05af 6F03     		.2byte	0x36f
 1029 05b1 74040000 		.4byte	0x474
 1030 05b5 04       		.uleb128 0x4
 1031 05b6 2A020000 		.4byte	.LASF105
 1032 05ba 09       		.byte	0x9
 1033 05bb 65       		.byte	0x65
 1034 05bc 22030000 		.4byte	0x322
 1035 05c0 04       		.uleb128 0x4
 1036 05c1 36030000 		.4byte	.LASF106
 1037 05c5 09       		.byte	0x9
 1038 05c6 6D       		.byte	0x6d
 1039 05c7 B4000000 		.4byte	0xb4
 1040 05cb 06       		.uleb128 0x6
 1041 05cc C9050000 		.4byte	.LASF107
 1042 05d0 04       		.byte	0x4
 1043 05d1 09       		.byte	0x9
 1044 05d2 89       		.byte	0x89
 1045 05d3 E4050000 		.4byte	0x5e4
 1046 05d7 15       		.uleb128 0x15
 1047 05d8 72313300 		.ascii	"r13\000"
 1048 05dc 09       		.byte	0x9
 1049 05dd 8A       		.byte	0x8a
 1050 05de 5F060000 		.4byte	0x65f
 1051 05e2 00       		.byte	0
 1052 05e3 00       		.byte	0
 1053 05e4 06       		.uleb128 0x6
 1054 05e5 2D000000 		.4byte	.LASF108
 1055 05e9 24       		.byte	0x24
 1056 05ea 01       		.byte	0x1
 1057 05eb FD       		.byte	0xfd
 1058 05ec 5F060000 		.4byte	0x65f
 1059 05f0 08       		.uleb128 0x8
 1060 05f1 723400   		.ascii	"r4\000"
 1061 05f4 01       		.byte	0x1
 1062 05f5 1001     		.2byte	0x110
 1063 05f7 B5050000 		.4byte	0x5b5
 1064 05fb 00       		.byte	0
 1065 05fc 08       		.uleb128 0x8
 1066 05fd 723500   		.ascii	"r5\000"
 1067 0600 01       		.byte	0x1
 1068 0601 1101     		.2byte	0x111
 1069 0603 B5050000 		.4byte	0x5b5
 1070 0607 04       		.byte	0x4
 1071 0608 08       		.uleb128 0x8
 1072 0609 723600   		.ascii	"r6\000"
 1073 060c 01       		.byte	0x1
 1074 060d 1201     		.2byte	0x112
 1075 060f B5050000 		.4byte	0x5b5
ARM GAS  /tmp/ccjMvKi1.s 			page 20


 1076 0613 08       		.byte	0x8
 1077 0614 08       		.uleb128 0x8
 1078 0615 723700   		.ascii	"r7\000"
 1079 0618 01       		.byte	0x1
 1080 0619 1301     		.2byte	0x113
 1081 061b B5050000 		.4byte	0x5b5
 1082 061f 0C       		.byte	0xc
 1083 0620 08       		.uleb128 0x8
 1084 0621 723800   		.ascii	"r8\000"
 1085 0624 01       		.byte	0x1
 1086 0625 1401     		.2byte	0x114
 1087 0627 B5050000 		.4byte	0x5b5
 1088 062b 10       		.byte	0x10
 1089 062c 08       		.uleb128 0x8
 1090 062d 723900   		.ascii	"r9\000"
 1091 0630 01       		.byte	0x1
 1092 0631 1501     		.2byte	0x115
 1093 0633 B5050000 		.4byte	0x5b5
 1094 0637 14       		.byte	0x14
 1095 0638 08       		.uleb128 0x8
 1096 0639 72313000 		.ascii	"r10\000"
 1097 063d 01       		.byte	0x1
 1098 063e 1601     		.2byte	0x116
 1099 0640 B5050000 		.4byte	0x5b5
 1100 0644 18       		.byte	0x18
 1101 0645 08       		.uleb128 0x8
 1102 0646 72313100 		.ascii	"r11\000"
 1103 064a 01       		.byte	0x1
 1104 064b 1701     		.2byte	0x117
 1105 064d B5050000 		.4byte	0x5b5
 1106 0651 1C       		.byte	0x1c
 1107 0652 08       		.uleb128 0x8
 1108 0653 6C7200   		.ascii	"lr\000"
 1109 0656 01       		.byte	0x1
 1110 0657 1801     		.2byte	0x118
 1111 0659 B5050000 		.4byte	0x5b5
 1112 065d 20       		.byte	0x20
 1113 065e 00       		.byte	0
 1114 065f 0A       		.uleb128 0xa
 1115 0660 04       		.byte	0x4
 1116 0661 E4050000 		.4byte	0x5e4
 1117 0665 16       		.uleb128 0x16
 1118 0666 04       		.byte	0x4
 1119 0667 0A       		.byte	0xa
 1120 0668 38       		.byte	0x38
 1121 0669 7A060000 		.4byte	0x67a
 1122 066d 07       		.uleb128 0x7
 1123 066e C2050000 		.4byte	.LASF109
 1124 0672 0A       		.byte	0xa
 1125 0673 3C       		.byte	0x3c
 1126 0674 C9000000 		.4byte	0xc9
 1127 0678 00       		.byte	0
 1128 0679 00       		.byte	0
 1129 067a 04       		.uleb128 0x4
 1130 067b 85030000 		.4byte	.LASF110
 1131 067f 0A       		.byte	0xa
 1132 0680 3D       		.byte	0x3d
ARM GAS  /tmp/ccjMvKi1.s 			page 21


 1133 0681 65060000 		.4byte	0x665
 1134 0685 16       		.uleb128 0x16
 1135 0686 18       		.byte	0x18
 1136 0687 0A       		.byte	0xa
 1137 0688 48       		.byte	0x48
 1138 0689 C8060000 		.4byte	0x6c8
 1139 068d 07       		.uleb128 0x7
 1140 068e AF020000 		.4byte	.LASF111
 1141 0692 0A       		.byte	0xa
 1142 0693 49       		.byte	0x49
 1143 0694 C9000000 		.4byte	0xc9
 1144 0698 00       		.byte	0
 1145 0699 07       		.uleb128 0x7
 1146 069a 59000000 		.4byte	.LASF112
 1147 069e 0A       		.byte	0xa
 1148 069f 4A       		.byte	0x4a
 1149 06a0 C9000000 		.4byte	0xc9
 1150 06a4 04       		.byte	0x4
 1151 06a5 07       		.uleb128 0x7
 1152 06a6 DE020000 		.4byte	.LASF113
 1153 06aa 0A       		.byte	0xa
 1154 06ab 4B       		.byte	0x4b
 1155 06ac C9000000 		.4byte	0xc9
 1156 06b0 08       		.byte	0x8
 1157 06b1 15       		.uleb128 0x15
 1158 06b2 6E00     		.ascii	"n\000"
 1159 06b4 0A       		.byte	0xa
 1160 06b5 4C       		.byte	0x4c
 1161 06b6 2C010000 		.4byte	0x12c
 1162 06ba 0C       		.byte	0xc
 1163 06bb 07       		.uleb128 0x7
 1164 06bc E5030000 		.4byte	.LASF114
 1165 06c0 0A       		.byte	0xa
 1166 06c1 4D       		.byte	0x4d
 1167 06c2 D4000000 		.4byte	0xd4
 1168 06c6 10       		.byte	0x10
 1169 06c7 00       		.byte	0
 1170 06c8 04       		.uleb128 0x4
 1171 06c9 5F000000 		.4byte	.LASF115
 1172 06cd 0A       		.byte	0xa
 1173 06ce 4E       		.byte	0x4e
 1174 06cf 85060000 		.4byte	0x685
 1175 06d3 17       		.uleb128 0x17
 1176 06d4 04       		.byte	0x4
 1177 06d5 07       		.byte	0x7
 1178 06d6 FA       		.byte	0xfa
 1179 06d7 30070000 		.4byte	0x730
 1180 06db 18       		.uleb128 0x18
 1181 06dc 13000000 		.4byte	.LASF116
 1182 06e0 07       		.byte	0x7
 1183 06e1 0101     		.2byte	0x101
 1184 06e3 0B010000 		.4byte	0x10b
 1185 06e7 18       		.uleb128 0x18
 1186 06e8 89000000 		.4byte	.LASF117
 1187 06ec 07       		.byte	0x7
 1188 06ed 0801     		.2byte	0x108
 1189 06ef 0B010000 		.4byte	0x10b
ARM GAS  /tmp/ccjMvKi1.s 			page 22


 1190 06f3 18       		.uleb128 0x18
 1191 06f4 2A060000 		.4byte	.LASF118
 1192 06f8 07       		.byte	0x7
 1193 06f9 0F01     		.2byte	0x10f
 1194 06fb 22030000 		.4byte	0x322
 1195 06ff 18       		.uleb128 0x18
 1196 0700 0D000000 		.4byte	.LASF119
 1197 0704 07       		.byte	0x7
 1198 0705 1601     		.2byte	0x116
 1199 0707 30070000 		.4byte	0x730
 1200 070b 18       		.uleb128 0x18
 1201 070c 89020000 		.4byte	.LASF120
 1202 0710 07       		.byte	0x7
 1203 0711 1E01     		.2byte	0x11e
 1204 0713 5B070000 		.4byte	0x75b
 1205 0717 18       		.uleb128 0x18
 1206 0718 03050000 		.4byte	.LASF121
 1207 071c 07       		.byte	0x7
 1208 071d 2701     		.2byte	0x127
 1209 071f 92070000 		.4byte	0x792
 1210 0723 18       		.uleb128 0x18
 1211 0724 AA040000 		.4byte	.LASF122
 1212 0728 07       		.byte	0x7
 1213 0729 2F01     		.2byte	0x12f
 1214 072b 16010000 		.4byte	0x116
 1215 072f 00       		.byte	0
 1216 0730 0A       		.uleb128 0xa
 1217 0731 04       		.byte	0x4
 1218 0732 3A020000 		.4byte	0x23a
 1219 0736 06       		.uleb128 0x6
 1220 0737 DB040000 		.4byte	.LASF123
 1221 073b 0C       		.byte	0xc
 1222 073c 0B       		.byte	0xb
 1223 073d 34       		.byte	0x34
 1224 073e 5B070000 		.4byte	0x75b
 1225 0742 07       		.uleb128 0x7
 1226 0743 1A020000 		.4byte	.LASF124
 1227 0747 0B       		.byte	0xb
 1228 0748 35       		.byte	0x35
 1229 0749 6F020000 		.4byte	0x26f
 1230 074d 00       		.byte	0
 1231 074e 07       		.uleb128 0x7
 1232 074f A9020000 		.4byte	.LASF125
 1233 0753 0B       		.byte	0xb
 1234 0754 37       		.byte	0x37
 1235 0755 21010000 		.4byte	0x121
 1236 0759 08       		.byte	0x8
 1237 075a 00       		.byte	0
 1238 075b 0A       		.uleb128 0xa
 1239 075c 04       		.byte	0x4
 1240 075d 36070000 		.4byte	0x736
 1241 0761 06       		.uleb128 0x6
 1242 0762 04060000 		.4byte	.LASF126
 1243 0766 10       		.byte	0x10
 1244 0767 0C       		.byte	0xc
 1245 0768 39       		.byte	0x39
 1246 0769 92070000 		.4byte	0x792
ARM GAS  /tmp/ccjMvKi1.s 			page 23


 1247 076d 07       		.uleb128 0x7
 1248 076e 0D010000 		.4byte	.LASF127
 1249 0772 0C       		.byte	0xc
 1250 0773 3A       		.byte	0x3a
 1251 0774 6F020000 		.4byte	0x26f
 1252 0778 00       		.byte	0
 1253 0779 07       		.uleb128 0x7
 1254 077a 4D060000 		.4byte	.LASF128
 1255 077e 0C       		.byte	0xc
 1256 077f 3C       		.byte	0x3c
 1257 0780 45020000 		.4byte	0x245
 1258 0784 08       		.byte	0x8
 1259 0785 07       		.uleb128 0x7
 1260 0786 65050000 		.4byte	.LASF129
 1261 078a 0C       		.byte	0xc
 1262 078b 3E       		.byte	0x3e
 1263 078c D0070000 		.4byte	0x7d0
 1264 0790 0C       		.byte	0xc
 1265 0791 00       		.byte	0
 1266 0792 0A       		.uleb128 0xa
 1267 0793 04       		.byte	0x4
 1268 0794 61070000 		.4byte	0x761
 1269 0798 0A       		.uleb128 0xa
 1270 0799 04       		.byte	0x4
 1271 079a 9E070000 		.4byte	0x79e
 1272 079e 10       		.uleb128 0x10
 1273 079f A3070000 		.4byte	0x7a3
 1274 07a3 03       		.uleb128 0x3
 1275 07a4 01       		.byte	0x1
 1276 07a5 08       		.byte	0x8
 1277 07a6 3D050000 		.4byte	.LASF130
 1278 07aa 0A       		.uleb128 0xa
 1279 07ab 04       		.byte	0x4
 1280 07ac 24030000 		.4byte	0x324
 1281 07b0 05       		.uleb128 0x5
 1282 07b1 98070000 		.4byte	0x798
 1283 07b5 11       		.uleb128 0x11
 1284 07b6 C0050000 		.4byte	0x5c0
 1285 07ba C5070000 		.4byte	0x7c5
 1286 07be 12       		.uleb128 0x12
 1287 07bf 58040000 		.4byte	0x458
 1288 07c3 1A       		.byte	0x1a
 1289 07c4 00       		.byte	0
 1290 07c5 04       		.uleb128 0x4
 1291 07c6 4B020000 		.4byte	.LASF131
 1292 07ca 0C       		.byte	0xc
 1293 07cb 34       		.byte	0x34
 1294 07cc 61070000 		.4byte	0x761
 1295 07d0 0A       		.uleb128 0xa
 1296 07d1 04       		.byte	0x4
 1297 07d2 C5070000 		.4byte	0x7c5
 1298 07d6 19       		.uleb128 0x19
 1299 07d7 4B050000 		.4byte	.LASF142
 1300 07db 01       		.byte	0x1
 1301 07dc 2E02     		.2byte	0x22e
 1302 07de C9000000 		.4byte	0xc9
 1303 07e2 00000000 		.4byte	.LFB135
ARM GAS  /tmp/ccjMvKi1.s 			page 24


 1304 07e6 0C000000 		.4byte	.LFE135-.LFB135
 1305 07ea 01       		.uleb128 0x1
 1306 07eb 9C       		.byte	0x9c
 1307 07ec 1A       		.uleb128 0x1a
 1308 07ed 9D000000 		.4byte	.LASF143
 1309 07f1 02       		.byte	0x2
 1310 07f2 35       		.byte	0x35
 1311 07f3 00000000 		.4byte	.LFB240
 1312 07f7 6C000000 		.4byte	.LFE240-.LFB240
 1313 07fb 01       		.uleb128 0x1
 1314 07fc 9C       		.byte	0x9c
 1315 07fd 2C080000 		.4byte	0x82c
 1316 0801 1B       		.uleb128 0x1b
 1317 0802 746D7000 		.ascii	"tmp\000"
 1318 0806 02       		.byte	0x2
 1319 0807 35       		.byte	0x35
 1320 0808 2C080000 		.4byte	0x82c
 1321 080c 02       		.uleb128 0x2
 1322 080d 91       		.byte	0x91
 1323 080e 7C       		.sleb128 -4
 1324 080f 1B       		.uleb128 0x1b
 1325 0810 6E6F7700 		.ascii	"now\000"
 1326 0814 02       		.byte	0x2
 1327 0815 36       		.byte	0x36
 1328 0816 C9000000 		.4byte	0xc9
 1329 081a 02       		.uleb128 0x2
 1330 081b 91       		.byte	0x91
 1331 081c 78       		.sleb128 -8
 1332 081d 1C       		.uleb128 0x1c
 1333 081e C2050000 		.4byte	.LASF109
 1334 0822 02       		.byte	0x2
 1335 0823 37       		.byte	0x37
 1336 0824 C9000000 		.4byte	0xc9
 1337 0828 02       		.uleb128 0x2
 1338 0829 91       		.byte	0x91
 1339 082a 74       		.sleb128 -12
 1340 082b 00       		.byte	0
 1341 082c 0A       		.uleb128 0xa
 1342 082d 04       		.byte	0x4
 1343 082e C8060000 		.4byte	0x6c8
 1344 0832 1D       		.uleb128 0x1d
 1345 0833 5D060000 		.4byte	.LASF132
 1346 0837 02       		.byte	0x2
 1347 0838 4F       		.byte	0x4f
 1348 0839 00000000 		.4byte	.LFB241
 1349 083d 34000000 		.4byte	.LFE241-.LFB241
 1350 0841 01       		.uleb128 0x1
 1351 0842 9C       		.byte	0x9c
 1352 0843 55080000 		.4byte	0x855
 1353 0847 1E       		.uleb128 0x1e
 1354 0848 746D00   		.ascii	"tm\000"
 1355 084b 02       		.byte	0x2
 1356 084c 50       		.byte	0x50
 1357 084d C8060000 		.4byte	0x6c8
 1358 0851 02       		.uleb128 0x2
 1359 0852 91       		.byte	0x91
 1360 0853 60       		.sleb128 -32
ARM GAS  /tmp/ccjMvKi1.s 			page 25


 1361 0854 00       		.byte	0
 1362 0855 1F       		.uleb128 0x1f
 1363 0856 BB000000 		.4byte	.LASF133
 1364 085a 02       		.byte	0x2
 1365 085b 63       		.byte	0x63
 1366 085c 00000000 		.4byte	.LFB242
 1367 0860 30000000 		.4byte	.LFE242-.LFB242
 1368 0864 01       		.uleb128 0x1
 1369 0865 9C       		.byte	0x9c
 1370 0866 79080000 		.4byte	0x879
 1371 086a 1B       		.uleb128 0x1b
 1372 086b 746D7000 		.ascii	"tmp\000"
 1373 086f 02       		.byte	0x2
 1374 0870 63       		.byte	0x63
 1375 0871 2C080000 		.4byte	0x82c
 1376 0875 02       		.uleb128 0x2
 1377 0876 91       		.byte	0x91
 1378 0877 7C       		.sleb128 -4
 1379 0878 00       		.byte	0
 1380 0879 1D       		.uleb128 0x1d
 1381 087a 1C010000 		.4byte	.LASF134
 1382 087e 02       		.byte	0x2
 1383 087f 74       		.byte	0x74
 1384 0880 00000000 		.4byte	.LFB243
 1385 0884 16000000 		.4byte	.LFE243-.LFB243
 1386 0888 01       		.uleb128 0x1
 1387 0889 9C       		.byte	0x9c
 1388 088a 9D080000 		.4byte	0x89d
 1389 088e 1B       		.uleb128 0x1b
 1390 088f 746D7000 		.ascii	"tmp\000"
 1391 0893 02       		.byte	0x2
 1392 0894 74       		.byte	0x74
 1393 0895 2C080000 		.4byte	0x82c
 1394 0899 02       		.uleb128 0x2
 1395 089a 91       		.byte	0x91
 1396 089b 74       		.sleb128 -12
 1397 089c 00       		.byte	0
 1398 089d 1D       		.uleb128 0x1d
 1399 089e 32010000 		.4byte	.LASF135
 1400 08a2 02       		.byte	0x2
 1401 08a3 81       		.byte	0x81
 1402 08a4 00000000 		.4byte	.LFB244
 1403 08a8 24000000 		.4byte	.LFE244-.LFB244
 1404 08ac 01       		.uleb128 0x1
 1405 08ad 9C       		.byte	0x9c
 1406 08ae C1080000 		.4byte	0x8c1
 1407 08b2 1B       		.uleb128 0x1b
 1408 08b3 746D7000 		.ascii	"tmp\000"
 1409 08b7 02       		.byte	0x2
 1410 08b8 81       		.byte	0x81
 1411 08b9 2C080000 		.4byte	0x82c
 1412 08bd 02       		.uleb128 0x2
 1413 08be 91       		.byte	0x91
 1414 08bf 74       		.sleb128 -12
 1415 08c0 00       		.byte	0
 1416 08c1 1D       		.uleb128 0x1d
 1417 08c2 1E030000 		.4byte	.LASF136
ARM GAS  /tmp/ccjMvKi1.s 			page 26


 1418 08c6 02       		.byte	0x2
 1419 08c7 92       		.byte	0x92
 1420 08c8 00000000 		.4byte	.LFB245
 1421 08cc 26000000 		.4byte	.LFE245-.LFB245
 1422 08d0 01       		.uleb128 0x1
 1423 08d1 9C       		.byte	0x9c
 1424 08d2 F3080000 		.4byte	0x8f3
 1425 08d6 1C       		.uleb128 0x1c
 1426 08d7 DA000000 		.4byte	.LASF137
 1427 08db 02       		.byte	0x2
 1428 08dc 92       		.byte	0x92
 1429 08dd 2C080000 		.4byte	0x82c
 1430 08e1 02       		.uleb128 0x2
 1431 08e2 91       		.byte	0x91
 1432 08e3 74       		.sleb128 -12
 1433 08e4 1C       		.uleb128 0x1c
 1434 08e5 DF000000 		.4byte	.LASF138
 1435 08e9 02       		.byte	0x2
 1436 08ea 93       		.byte	0x93
 1437 08eb 2C080000 		.4byte	0x82c
 1438 08ef 02       		.uleb128 0x2
 1439 08f0 91       		.byte	0x91
 1440 08f1 70       		.sleb128 -16
 1441 08f2 00       		.byte	0
 1442 08f3 20       		.uleb128 0x20
 1443 08f4 5C040000 		.4byte	.LASF139
 1444 08f8 08       		.byte	0x8
 1445 08f9 FA06     		.2byte	0x6fa
 1446 08fb BF000000 		.4byte	0xbf
 1447 08ff 21       		.uleb128 0x21
 1448 0900 636800   		.ascii	"ch\000"
 1449 0903 07       		.byte	0x7
 1450 0904 0902     		.2byte	0x209
 1451 0906 F1030000 		.4byte	0x3f1
 1452 090a 00       		.byte	0
 1453              		.section	.debug_abbrev,"",%progbits
 1454              	.Ldebug_abbrev0:
 1455 0000 01       		.uleb128 0x1
 1456 0001 11       		.uleb128 0x11
 1457 0002 01       		.byte	0x1
 1458 0003 25       		.uleb128 0x25
 1459 0004 0E       		.uleb128 0xe
 1460 0005 13       		.uleb128 0x13
 1461 0006 0B       		.uleb128 0xb
 1462 0007 03       		.uleb128 0x3
 1463 0008 0E       		.uleb128 0xe
 1464 0009 55       		.uleb128 0x55
 1465 000a 17       		.uleb128 0x17
 1466 000b 11       		.uleb128 0x11
 1467 000c 01       		.uleb128 0x1
 1468 000d 10       		.uleb128 0x10
 1469 000e 17       		.uleb128 0x17
 1470 000f 00       		.byte	0
 1471 0010 00       		.byte	0
 1472 0011 02       		.uleb128 0x2
 1473 0012 24       		.uleb128 0x24
 1474 0013 00       		.byte	0
ARM GAS  /tmp/ccjMvKi1.s 			page 27


 1475 0014 0B       		.uleb128 0xb
 1476 0015 0B       		.uleb128 0xb
 1477 0016 3E       		.uleb128 0x3e
 1478 0017 0B       		.uleb128 0xb
 1479 0018 03       		.uleb128 0x3
 1480 0019 08       		.uleb128 0x8
 1481 001a 00       		.byte	0
 1482 001b 00       		.byte	0
 1483 001c 03       		.uleb128 0x3
 1484 001d 24       		.uleb128 0x24
 1485 001e 00       		.byte	0
 1486 001f 0B       		.uleb128 0xb
 1487 0020 0B       		.uleb128 0xb
 1488 0021 3E       		.uleb128 0x3e
 1489 0022 0B       		.uleb128 0xb
 1490 0023 03       		.uleb128 0x3
 1491 0024 0E       		.uleb128 0xe
 1492 0025 00       		.byte	0
 1493 0026 00       		.byte	0
 1494 0027 04       		.uleb128 0x4
 1495 0028 16       		.uleb128 0x16
 1496 0029 00       		.byte	0
 1497 002a 03       		.uleb128 0x3
 1498 002b 0E       		.uleb128 0xe
 1499 002c 3A       		.uleb128 0x3a
 1500 002d 0B       		.uleb128 0xb
 1501 002e 3B       		.uleb128 0x3b
 1502 002f 0B       		.uleb128 0xb
 1503 0030 49       		.uleb128 0x49
 1504 0031 13       		.uleb128 0x13
 1505 0032 00       		.byte	0
 1506 0033 00       		.byte	0
 1507 0034 05       		.uleb128 0x5
 1508 0035 35       		.uleb128 0x35
 1509 0036 00       		.byte	0
 1510 0037 49       		.uleb128 0x49
 1511 0038 13       		.uleb128 0x13
 1512 0039 00       		.byte	0
 1513 003a 00       		.byte	0
 1514 003b 06       		.uleb128 0x6
 1515 003c 13       		.uleb128 0x13
 1516 003d 01       		.byte	0x1
 1517 003e 03       		.uleb128 0x3
 1518 003f 0E       		.uleb128 0xe
 1519 0040 0B       		.uleb128 0xb
 1520 0041 0B       		.uleb128 0xb
 1521 0042 3A       		.uleb128 0x3a
 1522 0043 0B       		.uleb128 0xb
 1523 0044 3B       		.uleb128 0x3b
 1524 0045 0B       		.uleb128 0xb
 1525 0046 01       		.uleb128 0x1
 1526 0047 13       		.uleb128 0x13
 1527 0048 00       		.byte	0
 1528 0049 00       		.byte	0
 1529 004a 07       		.uleb128 0x7
 1530 004b 0D       		.uleb128 0xd
 1531 004c 00       		.byte	0
ARM GAS  /tmp/ccjMvKi1.s 			page 28


 1532 004d 03       		.uleb128 0x3
 1533 004e 0E       		.uleb128 0xe
 1534 004f 3A       		.uleb128 0x3a
 1535 0050 0B       		.uleb128 0xb
 1536 0051 3B       		.uleb128 0x3b
 1537 0052 0B       		.uleb128 0xb
 1538 0053 49       		.uleb128 0x49
 1539 0054 13       		.uleb128 0x13
 1540 0055 38       		.uleb128 0x38
 1541 0056 0B       		.uleb128 0xb
 1542 0057 00       		.byte	0
 1543 0058 00       		.byte	0
 1544 0059 08       		.uleb128 0x8
 1545 005a 0D       		.uleb128 0xd
 1546 005b 00       		.byte	0
 1547 005c 03       		.uleb128 0x3
 1548 005d 08       		.uleb128 0x8
 1549 005e 3A       		.uleb128 0x3a
 1550 005f 0B       		.uleb128 0xb
 1551 0060 3B       		.uleb128 0x3b
 1552 0061 05       		.uleb128 0x5
 1553 0062 49       		.uleb128 0x49
 1554 0063 13       		.uleb128 0x13
 1555 0064 38       		.uleb128 0x38
 1556 0065 0B       		.uleb128 0xb
 1557 0066 00       		.byte	0
 1558 0067 00       		.byte	0
 1559 0068 09       		.uleb128 0x9
 1560 0069 0D       		.uleb128 0xd
 1561 006a 00       		.byte	0
 1562 006b 03       		.uleb128 0x3
 1563 006c 0E       		.uleb128 0xe
 1564 006d 3A       		.uleb128 0x3a
 1565 006e 0B       		.uleb128 0xb
 1566 006f 3B       		.uleb128 0x3b
 1567 0070 05       		.uleb128 0x5
 1568 0071 49       		.uleb128 0x49
 1569 0072 13       		.uleb128 0x13
 1570 0073 38       		.uleb128 0x38
 1571 0074 0B       		.uleb128 0xb
 1572 0075 00       		.byte	0
 1573 0076 00       		.byte	0
 1574 0077 0A       		.uleb128 0xa
 1575 0078 0F       		.uleb128 0xf
 1576 0079 00       		.byte	0
 1577 007a 0B       		.uleb128 0xb
 1578 007b 0B       		.uleb128 0xb
 1579 007c 49       		.uleb128 0x49
 1580 007d 13       		.uleb128 0x13
 1581 007e 00       		.byte	0
 1582 007f 00       		.byte	0
 1583 0080 0B       		.uleb128 0xb
 1584 0081 13       		.uleb128 0x13
 1585 0082 01       		.byte	0x1
 1586 0083 03       		.uleb128 0x3
 1587 0084 0E       		.uleb128 0xe
 1588 0085 0B       		.uleb128 0xb
ARM GAS  /tmp/ccjMvKi1.s 			page 29


 1589 0086 0B       		.uleb128 0xb
 1590 0087 3A       		.uleb128 0x3a
 1591 0088 0B       		.uleb128 0xb
 1592 0089 3B       		.uleb128 0x3b
 1593 008a 05       		.uleb128 0x5
 1594 008b 01       		.uleb128 0x1
 1595 008c 13       		.uleb128 0x13
 1596 008d 00       		.byte	0
 1597 008e 00       		.byte	0
 1598 008f 0C       		.uleb128 0xc
 1599 0090 15       		.uleb128 0x15
 1600 0091 01       		.byte	0x1
 1601 0092 27       		.uleb128 0x27
 1602 0093 19       		.uleb128 0x19
 1603 0094 01       		.uleb128 0x1
 1604 0095 13       		.uleb128 0x13
 1605 0096 00       		.byte	0
 1606 0097 00       		.byte	0
 1607 0098 0D       		.uleb128 0xd
 1608 0099 05       		.uleb128 0x5
 1609 009a 00       		.byte	0
 1610 009b 49       		.uleb128 0x49
 1611 009c 13       		.uleb128 0x13
 1612 009d 00       		.byte	0
 1613 009e 00       		.byte	0
 1614 009f 0E       		.uleb128 0xe
 1615 00a0 0F       		.uleb128 0xf
 1616 00a1 00       		.byte	0
 1617 00a2 0B       		.uleb128 0xb
 1618 00a3 0B       		.uleb128 0xb
 1619 00a4 00       		.byte	0
 1620 00a5 00       		.byte	0
 1621 00a6 0F       		.uleb128 0xf
 1622 00a7 13       		.uleb128 0x13
 1623 00a8 01       		.byte	0x1
 1624 00a9 03       		.uleb128 0x3
 1625 00aa 0E       		.uleb128 0xe
 1626 00ab 0B       		.uleb128 0xb
 1627 00ac 05       		.uleb128 0x5
 1628 00ad 3A       		.uleb128 0x3a
 1629 00ae 0B       		.uleb128 0xb
 1630 00af 3B       		.uleb128 0x3b
 1631 00b0 05       		.uleb128 0x5
 1632 00b1 01       		.uleb128 0x1
 1633 00b2 13       		.uleb128 0x13
 1634 00b3 00       		.byte	0
 1635 00b4 00       		.byte	0
 1636 00b5 10       		.uleb128 0x10
 1637 00b6 26       		.uleb128 0x26
 1638 00b7 00       		.byte	0
 1639 00b8 49       		.uleb128 0x49
 1640 00b9 13       		.uleb128 0x13
 1641 00ba 00       		.byte	0
 1642 00bb 00       		.byte	0
 1643 00bc 11       		.uleb128 0x11
 1644 00bd 01       		.uleb128 0x1
 1645 00be 01       		.byte	0x1
ARM GAS  /tmp/ccjMvKi1.s 			page 30


 1646 00bf 49       		.uleb128 0x49
 1647 00c0 13       		.uleb128 0x13
 1648 00c1 01       		.uleb128 0x1
 1649 00c2 13       		.uleb128 0x13
 1650 00c3 00       		.byte	0
 1651 00c4 00       		.byte	0
 1652 00c5 12       		.uleb128 0x12
 1653 00c6 21       		.uleb128 0x21
 1654 00c7 00       		.byte	0
 1655 00c8 49       		.uleb128 0x49
 1656 00c9 13       		.uleb128 0x13
 1657 00ca 2F       		.uleb128 0x2f
 1658 00cb 0B       		.uleb128 0xb
 1659 00cc 00       		.byte	0
 1660 00cd 00       		.byte	0
 1661 00ce 13       		.uleb128 0x13
 1662 00cf 13       		.uleb128 0x13
 1663 00d0 01       		.byte	0x1
 1664 00d1 0B       		.uleb128 0xb
 1665 00d2 0B       		.uleb128 0xb
 1666 00d3 3A       		.uleb128 0x3a
 1667 00d4 0B       		.uleb128 0xb
 1668 00d5 3B       		.uleb128 0x3b
 1669 00d6 05       		.uleb128 0x5
 1670 00d7 01       		.uleb128 0x1
 1671 00d8 13       		.uleb128 0x13
 1672 00d9 00       		.byte	0
 1673 00da 00       		.byte	0
 1674 00db 14       		.uleb128 0x14
 1675 00dc 16       		.uleb128 0x16
 1676 00dd 00       		.byte	0
 1677 00de 03       		.uleb128 0x3
 1678 00df 0E       		.uleb128 0xe
 1679 00e0 3A       		.uleb128 0x3a
 1680 00e1 0B       		.uleb128 0xb
 1681 00e2 3B       		.uleb128 0x3b
 1682 00e3 05       		.uleb128 0x5
 1683 00e4 49       		.uleb128 0x49
 1684 00e5 13       		.uleb128 0x13
 1685 00e6 00       		.byte	0
 1686 00e7 00       		.byte	0
 1687 00e8 15       		.uleb128 0x15
 1688 00e9 0D       		.uleb128 0xd
 1689 00ea 00       		.byte	0
 1690 00eb 03       		.uleb128 0x3
 1691 00ec 08       		.uleb128 0x8
 1692 00ed 3A       		.uleb128 0x3a
 1693 00ee 0B       		.uleb128 0xb
 1694 00ef 3B       		.uleb128 0x3b
 1695 00f0 0B       		.uleb128 0xb
 1696 00f1 49       		.uleb128 0x49
 1697 00f2 13       		.uleb128 0x13
 1698 00f3 38       		.uleb128 0x38
 1699 00f4 0B       		.uleb128 0xb
 1700 00f5 00       		.byte	0
 1701 00f6 00       		.byte	0
 1702 00f7 16       		.uleb128 0x16
ARM GAS  /tmp/ccjMvKi1.s 			page 31


 1703 00f8 13       		.uleb128 0x13
 1704 00f9 01       		.byte	0x1
 1705 00fa 0B       		.uleb128 0xb
 1706 00fb 0B       		.uleb128 0xb
 1707 00fc 3A       		.uleb128 0x3a
 1708 00fd 0B       		.uleb128 0xb
 1709 00fe 3B       		.uleb128 0x3b
 1710 00ff 0B       		.uleb128 0xb
 1711 0100 01       		.uleb128 0x1
 1712 0101 13       		.uleb128 0x13
 1713 0102 00       		.byte	0
 1714 0103 00       		.byte	0
 1715 0104 17       		.uleb128 0x17
 1716 0105 17       		.uleb128 0x17
 1717 0106 01       		.byte	0x1
 1718 0107 0B       		.uleb128 0xb
 1719 0108 0B       		.uleb128 0xb
 1720 0109 3A       		.uleb128 0x3a
 1721 010a 0B       		.uleb128 0xb
 1722 010b 3B       		.uleb128 0x3b
 1723 010c 0B       		.uleb128 0xb
 1724 010d 01       		.uleb128 0x1
 1725 010e 13       		.uleb128 0x13
 1726 010f 00       		.byte	0
 1727 0110 00       		.byte	0
 1728 0111 18       		.uleb128 0x18
 1729 0112 0D       		.uleb128 0xd
 1730 0113 00       		.byte	0
 1731 0114 03       		.uleb128 0x3
 1732 0115 0E       		.uleb128 0xe
 1733 0116 3A       		.uleb128 0x3a
 1734 0117 0B       		.uleb128 0xb
 1735 0118 3B       		.uleb128 0x3b
 1736 0119 05       		.uleb128 0x5
 1737 011a 49       		.uleb128 0x49
 1738 011b 13       		.uleb128 0x13
 1739 011c 00       		.byte	0
 1740 011d 00       		.byte	0
 1741 011e 19       		.uleb128 0x19
 1742 011f 2E       		.uleb128 0x2e
 1743 0120 00       		.byte	0
 1744 0121 03       		.uleb128 0x3
 1745 0122 0E       		.uleb128 0xe
 1746 0123 3A       		.uleb128 0x3a
 1747 0124 0B       		.uleb128 0xb
 1748 0125 3B       		.uleb128 0x3b
 1749 0126 05       		.uleb128 0x5
 1750 0127 27       		.uleb128 0x27
 1751 0128 19       		.uleb128 0x19
 1752 0129 49       		.uleb128 0x49
 1753 012a 13       		.uleb128 0x13
 1754 012b 11       		.uleb128 0x11
 1755 012c 01       		.uleb128 0x1
 1756 012d 12       		.uleb128 0x12
 1757 012e 06       		.uleb128 0x6
 1758 012f 40       		.uleb128 0x40
 1759 0130 18       		.uleb128 0x18
ARM GAS  /tmp/ccjMvKi1.s 			page 32


 1760 0131 9742     		.uleb128 0x2117
 1761 0133 19       		.uleb128 0x19
 1762 0134 00       		.byte	0
 1763 0135 00       		.byte	0
 1764 0136 1A       		.uleb128 0x1a
 1765 0137 2E       		.uleb128 0x2e
 1766 0138 01       		.byte	0x1
 1767 0139 03       		.uleb128 0x3
 1768 013a 0E       		.uleb128 0xe
 1769 013b 3A       		.uleb128 0x3a
 1770 013c 0B       		.uleb128 0xb
 1771 013d 3B       		.uleb128 0x3b
 1772 013e 0B       		.uleb128 0xb
 1773 013f 27       		.uleb128 0x27
 1774 0140 19       		.uleb128 0x19
 1775 0141 11       		.uleb128 0x11
 1776 0142 01       		.uleb128 0x1
 1777 0143 12       		.uleb128 0x12
 1778 0144 06       		.uleb128 0x6
 1779 0145 40       		.uleb128 0x40
 1780 0146 18       		.uleb128 0x18
 1781 0147 9742     		.uleb128 0x2117
 1782 0149 19       		.uleb128 0x19
 1783 014a 01       		.uleb128 0x1
 1784 014b 13       		.uleb128 0x13
 1785 014c 00       		.byte	0
 1786 014d 00       		.byte	0
 1787 014e 1B       		.uleb128 0x1b
 1788 014f 05       		.uleb128 0x5
 1789 0150 00       		.byte	0
 1790 0151 03       		.uleb128 0x3
 1791 0152 08       		.uleb128 0x8
 1792 0153 3A       		.uleb128 0x3a
 1793 0154 0B       		.uleb128 0xb
 1794 0155 3B       		.uleb128 0x3b
 1795 0156 0B       		.uleb128 0xb
 1796 0157 49       		.uleb128 0x49
 1797 0158 13       		.uleb128 0x13
 1798 0159 02       		.uleb128 0x2
 1799 015a 18       		.uleb128 0x18
 1800 015b 00       		.byte	0
 1801 015c 00       		.byte	0
 1802 015d 1C       		.uleb128 0x1c
 1803 015e 05       		.uleb128 0x5
 1804 015f 00       		.byte	0
 1805 0160 03       		.uleb128 0x3
 1806 0161 0E       		.uleb128 0xe
 1807 0162 3A       		.uleb128 0x3a
 1808 0163 0B       		.uleb128 0xb
 1809 0164 3B       		.uleb128 0x3b
 1810 0165 0B       		.uleb128 0xb
 1811 0166 49       		.uleb128 0x49
 1812 0167 13       		.uleb128 0x13
 1813 0168 02       		.uleb128 0x2
 1814 0169 18       		.uleb128 0x18
 1815 016a 00       		.byte	0
 1816 016b 00       		.byte	0
ARM GAS  /tmp/ccjMvKi1.s 			page 33


 1817 016c 1D       		.uleb128 0x1d
 1818 016d 2E       		.uleb128 0x2e
 1819 016e 01       		.byte	0x1
 1820 016f 3F       		.uleb128 0x3f
 1821 0170 19       		.uleb128 0x19
 1822 0171 03       		.uleb128 0x3
 1823 0172 0E       		.uleb128 0xe
 1824 0173 3A       		.uleb128 0x3a
 1825 0174 0B       		.uleb128 0xb
 1826 0175 3B       		.uleb128 0x3b
 1827 0176 0B       		.uleb128 0xb
 1828 0177 27       		.uleb128 0x27
 1829 0178 19       		.uleb128 0x19
 1830 0179 11       		.uleb128 0x11
 1831 017a 01       		.uleb128 0x1
 1832 017b 12       		.uleb128 0x12
 1833 017c 06       		.uleb128 0x6
 1834 017d 40       		.uleb128 0x40
 1835 017e 18       		.uleb128 0x18
 1836 017f 9642     		.uleb128 0x2116
 1837 0181 19       		.uleb128 0x19
 1838 0182 01       		.uleb128 0x1
 1839 0183 13       		.uleb128 0x13
 1840 0184 00       		.byte	0
 1841 0185 00       		.byte	0
 1842 0186 1E       		.uleb128 0x1e
 1843 0187 34       		.uleb128 0x34
 1844 0188 00       		.byte	0
 1845 0189 03       		.uleb128 0x3
 1846 018a 08       		.uleb128 0x8
 1847 018b 3A       		.uleb128 0x3a
 1848 018c 0B       		.uleb128 0xb
 1849 018d 3B       		.uleb128 0x3b
 1850 018e 0B       		.uleb128 0xb
 1851 018f 49       		.uleb128 0x49
 1852 0190 13       		.uleb128 0x13
 1853 0191 02       		.uleb128 0x2
 1854 0192 18       		.uleb128 0x18
 1855 0193 00       		.byte	0
 1856 0194 00       		.byte	0
 1857 0195 1F       		.uleb128 0x1f
 1858 0196 2E       		.uleb128 0x2e
 1859 0197 01       		.byte	0x1
 1860 0198 3F       		.uleb128 0x3f
 1861 0199 19       		.uleb128 0x19
 1862 019a 03       		.uleb128 0x3
 1863 019b 0E       		.uleb128 0xe
 1864 019c 3A       		.uleb128 0x3a
 1865 019d 0B       		.uleb128 0xb
 1866 019e 3B       		.uleb128 0x3b
 1867 019f 0B       		.uleb128 0xb
 1868 01a0 27       		.uleb128 0x27
 1869 01a1 19       		.uleb128 0x19
 1870 01a2 11       		.uleb128 0x11
 1871 01a3 01       		.uleb128 0x1
 1872 01a4 12       		.uleb128 0x12
 1873 01a5 06       		.uleb128 0x6
ARM GAS  /tmp/ccjMvKi1.s 			page 34


 1874 01a6 40       		.uleb128 0x40
 1875 01a7 18       		.uleb128 0x18
 1876 01a8 9742     		.uleb128 0x2117
 1877 01aa 19       		.uleb128 0x19
 1878 01ab 01       		.uleb128 0x1
 1879 01ac 13       		.uleb128 0x13
 1880 01ad 00       		.byte	0
 1881 01ae 00       		.byte	0
 1882 01af 20       		.uleb128 0x20
 1883 01b0 34       		.uleb128 0x34
 1884 01b1 00       		.byte	0
 1885 01b2 03       		.uleb128 0x3
 1886 01b3 0E       		.uleb128 0xe
 1887 01b4 3A       		.uleb128 0x3a
 1888 01b5 0B       		.uleb128 0xb
 1889 01b6 3B       		.uleb128 0x3b
 1890 01b7 05       		.uleb128 0x5
 1891 01b8 49       		.uleb128 0x49
 1892 01b9 13       		.uleb128 0x13
 1893 01ba 3F       		.uleb128 0x3f
 1894 01bb 19       		.uleb128 0x19
 1895 01bc 3C       		.uleb128 0x3c
 1896 01bd 19       		.uleb128 0x19
 1897 01be 00       		.byte	0
 1898 01bf 00       		.byte	0
 1899 01c0 21       		.uleb128 0x21
 1900 01c1 34       		.uleb128 0x34
 1901 01c2 00       		.byte	0
 1902 01c3 03       		.uleb128 0x3
 1903 01c4 08       		.uleb128 0x8
 1904 01c5 3A       		.uleb128 0x3a
 1905 01c6 0B       		.uleb128 0xb
 1906 01c7 3B       		.uleb128 0x3b
 1907 01c8 05       		.uleb128 0x5
 1908 01c9 49       		.uleb128 0x49
 1909 01ca 13       		.uleb128 0x13
 1910 01cb 3F       		.uleb128 0x3f
 1911 01cc 19       		.uleb128 0x19
 1912 01cd 3C       		.uleb128 0x3c
 1913 01ce 19       		.uleb128 0x19
 1914 01cf 00       		.byte	0
 1915 01d0 00       		.byte	0
 1916 01d1 00       		.byte	0
 1917              		.section	.debug_aranges,"",%progbits
 1918 0000 4C000000 		.4byte	0x4c
 1919 0004 0200     		.2byte	0x2
 1920 0006 00000000 		.4byte	.Ldebug_info0
 1921 000a 04       		.byte	0x4
 1922 000b 00       		.byte	0
 1923 000c 0000     		.2byte	0
 1924 000e 0000     		.2byte	0
 1925 0010 00000000 		.4byte	.LFB135
 1926 0014 0C000000 		.4byte	.LFE135-.LFB135
 1927 0018 00000000 		.4byte	.LFB240
 1928 001c 6C000000 		.4byte	.LFE240-.LFB240
 1929 0020 00000000 		.4byte	.LFB241
 1930 0024 34000000 		.4byte	.LFE241-.LFB241
ARM GAS  /tmp/ccjMvKi1.s 			page 35


 1931 0028 00000000 		.4byte	.LFB242
 1932 002c 30000000 		.4byte	.LFE242-.LFB242
 1933 0030 00000000 		.4byte	.LFB243
 1934 0034 16000000 		.4byte	.LFE243-.LFB243
 1935 0038 00000000 		.4byte	.LFB244
 1936 003c 24000000 		.4byte	.LFE244-.LFB244
 1937 0040 00000000 		.4byte	.LFB245
 1938 0044 26000000 		.4byte	.LFE245-.LFB245
 1939 0048 00000000 		.4byte	0
 1940 004c 00000000 		.4byte	0
 1941              		.section	.debug_ranges,"",%progbits
 1942              	.Ldebug_ranges0:
 1943 0000 00000000 		.4byte	.LFB135
 1944 0004 0C000000 		.4byte	.LFE135
 1945 0008 00000000 		.4byte	.LFB240
 1946 000c 6C000000 		.4byte	.LFE240
 1947 0010 00000000 		.4byte	.LFB241
 1948 0014 34000000 		.4byte	.LFE241
 1949 0018 00000000 		.4byte	.LFB242
 1950 001c 30000000 		.4byte	.LFE242
 1951 0020 00000000 		.4byte	.LFB243
 1952 0024 16000000 		.4byte	.LFE243
 1953 0028 00000000 		.4byte	.LFB244
 1954 002c 24000000 		.4byte	.LFE244
 1955 0030 00000000 		.4byte	.LFB245
 1956 0034 26000000 		.4byte	.LFE245
 1957 0038 00000000 		.4byte	0
 1958 003c 00000000 		.4byte	0
 1959              		.section	.debug_line,"",%progbits
 1960              	.Ldebug_line0:
 1961 0000 39020000 		.section	.debug_str,"MS",%progbits,1
 1961      02009B01 
 1961      00000201 
 1961      FB0E0D00 
 1961      01010101 
 1962              	.LASF52:
 1963 0000 72656164 		.ascii	"ready_list_t\000"
 1963      795F6C69 
 1963      73745F74 
 1963      00
 1964              	.LASF119:
 1965 000d 77747472 		.ascii	"wttrp\000"
 1965      7000
 1966              	.LASF116:
 1967 0013 7264796D 		.ascii	"rdymsg\000"
 1967      736700
 1968              	.LASF16:
 1969 001a 75696E74 		.ascii	"uint64_t\000"
 1969      36345F74 
 1969      00
 1970              	.LASF5:
 1971 0023 5F5F7569 		.ascii	"__uint8_t\000"
 1971      6E74385F 
 1971      7400
 1972              	.LASF108:
 1973 002d 706F7274 		.ascii	"port_intctx\000"
 1973      5F696E74 
ARM GAS  /tmp/ccjMvKi1.s 			page 36


 1973      63747800 
 1974              	.LASF51:
 1975 0039 63685F74 		.ascii	"ch_threads_queue\000"
 1975      68726561 
 1975      64735F71 
 1975      75657565 
 1975      00
 1976              	.LASF71:
 1977 004a 73797374 		.ascii	"system_debug_t\000"
 1977      656D5F64 
 1977      65627567 
 1977      5F7400
 1978              	.LASF112:
 1979 0059 776F7273 		.ascii	"worst\000"
 1979      7400
 1980              	.LASF115:
 1981 005f 74696D65 		.ascii	"time_measurement_t\000"
 1981      5F6D6561 
 1981      73757265 
 1981      6D656E74 
 1981      5F7400
 1982              	.LASF12:
 1983 0072 6C6F6E67 		.ascii	"long long unsigned int\000"
 1983      206C6F6E 
 1983      6720756E 
 1983      7369676E 
 1983      65642069 
 1984              	.LASF117:
 1985 0089 65786974 		.ascii	"exitcode\000"
 1985      636F6465 
 1985      00
 1986              	.LASF78:
 1987 0092 6D61696E 		.ascii	"mainthread\000"
 1987      74687265 
 1987      616400
 1988              	.LASF143:
 1989 009d 746D5F73 		.ascii	"tm_stop\000"
 1989      746F7000 
 1990              	.LASF68:
 1991 00a5 76697274 		.ascii	"virtual_timers_list_t\000"
 1991      75616C5F 
 1991      74696D65 
 1991      72735F6C 
 1991      6973745F 
 1992              	.LASF133:
 1993 00bb 6368544D 		.ascii	"chTMObjectInit\000"
 1993      4F626A65 
 1993      6374496E 
 1993      697400
 1994              	.LASF18:
 1995 00ca 72747469 		.ascii	"rttime_t\000"
 1995      6D655F74 
 1995      00
 1996              	.LASF31:
 1997 00d3 705F7072 		.ascii	"p_prio\000"
 1997      696F00
 1998              	.LASF137:
ARM GAS  /tmp/ccjMvKi1.s 			page 37


 1999 00da 746D7031 		.ascii	"tmp1\000"
 1999      00
 2000              	.LASF138:
 2001 00df 746D7032 		.ascii	"tmp2\000"
 2001      00
 2002              	.LASF10:
 2003 00e4 6C6F6E67 		.ascii	"long long int\000"
 2003      206C6F6E 
 2003      6720696E 
 2003      7400
 2004              	.LASF1:
 2005 00f2 7369676E 		.ascii	"signed char\000"
 2005      65642063 
 2005      68617200 
 2006              	.LASF45:
 2007 00fe 705F6D70 		.ascii	"p_mpool\000"
 2007      6F6F6C00 
 2008              	.LASF83:
 2009 0106 43504943 		.ascii	"CPICNT\000"
 2009      4E5400
 2010              	.LASF127:
 2011 010d 6D5F7175 		.ascii	"m_queue\000"
 2011      65756500 
 2012              	.LASF77:
 2013 0115 76746C69 		.ascii	"vtlist\000"
 2013      737400
 2014              	.LASF134:
 2015 011c 6368544D 		.ascii	"chTMStartMeasurementX\000"
 2015      53746172 
 2015      744D6561 
 2015      73757265 
 2015      6D656E74 
 2016              	.LASF135:
 2017 0132 6368544D 		.ascii	"chTMStopMeasurementX\000"
 2017      53746F70 
 2017      4D656173 
 2017      7572656D 
 2017      656E7458 
 2018              	.LASF7:
 2019 0147 6C6F6E67 		.ascii	"long int\000"
 2019      20696E74 
 2019      00
 2020              	.LASF20:
 2021 0150 74737461 		.ascii	"tstate_t\000"
 2021      74655F74 
 2021      00
 2022              	.LASF85:
 2023 0159 534C4545 		.ascii	"SLEEPCNT\000"
 2023      50434E54 
 2023      00
 2024              	.LASF140:
 2025 0162 474E5520 		.ascii	"GNU C 4.8.4 20141219 (release) -mcpu=cortex-m4 -mno"
 2025      4320342E 
 2025      382E3420 
 2025      32303134 
 2025      31323139 
 2026 0195 2D746875 		.ascii	"-thumb-interwork -mthumb -ggdb -O0 -fomit-frame-poi"
ARM GAS  /tmp/ccjMvKi1.s 			page 38


 2026      6D622D69 
 2026      6E746572 
 2026      776F726B 
 2026      202D6D74 
 2027 01c8 6E746572 		.ascii	"nter -falign-functions=16 -ffunction-sections -fdat"
 2027      202D6661 
 2027      6C69676E 
 2027      2D66756E 
 2027      6374696F 
 2028 01fb 612D7365 		.ascii	"a-sections -fno-common\000"
 2028      6374696F 
 2028      6E73202D 
 2028      666E6F2D 
 2028      636F6D6D 
 2029              	.LASF33:
 2030 0212 705F6E65 		.ascii	"p_newer\000"
 2030      77657200 
 2031              	.LASF124:
 2032 021a 735F7175 		.ascii	"s_queue\000"
 2032      65756500 
 2033              	.LASF57:
 2034 0222 725F6E65 		.ascii	"r_newer\000"
 2034      77657200 
 2035              	.LASF105:
 2036 022a 72656761 		.ascii	"regarm_t\000"
 2036      726D5F74 
 2036      00
 2037              	.LASF64:
 2038 0233 76745F70 		.ascii	"vt_prev\000"
 2038      72657600 
 2039              	.LASF72:
 2040 023b 63685F73 		.ascii	"ch_system_debug\000"
 2040      79737465 
 2040      6D5F6465 
 2040      62756700 
 2041              	.LASF131:
 2042 024b 6D757465 		.ascii	"mutex_t\000"
 2042      785F7400 
 2043              	.LASF79:
 2044 0253 69646C65 		.ascii	"idle_thread_wa\000"
 2044      5F746872 
 2044      6561645F 
 2044      776100
 2045              	.LASF25:
 2046 0262 636E745F 		.ascii	"cnt_t\000"
 2046      7400
 2047              	.LASF0:
 2048 0268 756E7369 		.ascii	"unsigned int\000"
 2048      676E6564 
 2048      20696E74 
 2048      00
 2049              	.LASF63:
 2050 0275 76745F6E 		.ascii	"vt_next\000"
 2050      65787400 
 2051              	.LASF98:
 2052 027d 4D41534B 		.ascii	"MASK2\000"
 2052      3200
ARM GAS  /tmp/ccjMvKi1.s 			page 39


 2053              	.LASF102:
 2054 0283 4D41534B 		.ascii	"MASK3\000"
 2054      3300
 2055              	.LASF120:
 2056 0289 77747365 		.ascii	"wtsemp\000"
 2056      6D7000
 2057              	.LASF40:
 2058 0290 705F6D73 		.ascii	"p_msgqueue\000"
 2058      67717565 
 2058      756500
 2059              	.LASF53:
 2060 029b 63685F72 		.ascii	"ch_ready_list\000"
 2060      65616479 
 2060      5F6C6973 
 2060      7400
 2061              	.LASF125:
 2062 02a9 735F636E 		.ascii	"s_cnt\000"
 2062      7400
 2063              	.LASF111:
 2064 02af 62657374 		.ascii	"best\000"
 2064      00
 2065              	.LASF4:
 2066 02b4 73686F72 		.ascii	"short unsigned int\000"
 2066      7420756E 
 2066      7369676E 
 2066      65642069 
 2066      6E7400
 2067              	.LASF48:
 2068 02c7 63685F74 		.ascii	"ch_thread\000"
 2068      68726561 
 2068      6400
 2069              	.LASF84:
 2070 02d1 45584343 		.ascii	"EXCCNT\000"
 2070      4E5400
 2071              	.LASF23:
 2072 02d8 6D73675F 		.ascii	"msg_t\000"
 2072      7400
 2073              	.LASF113:
 2074 02de 6C617374 		.ascii	"last\000"
 2074      00
 2075              	.LASF26:
 2076 02e3 75636E74 		.ascii	"ucnt_t\000"
 2076      5F7400
 2077              	.LASF74:
 2078 02ea 63685F73 		.ascii	"ch_system_t\000"
 2078      79737465 
 2078      6D5F7400 
 2079              	.LASF19:
 2080 02f6 746D6F64 		.ascii	"tmode_t\000"
 2080      655F7400 
 2081              	.LASF43:
 2082 02fe 705F6D74 		.ascii	"p_mtxlist\000"
 2082      786C6973 
 2082      7400
 2083              	.LASF24:
 2084 0308 6576656E 		.ascii	"eventmask_t\000"
 2084      746D6173 
ARM GAS  /tmp/ccjMvKi1.s 			page 40


 2084      6B5F7400 
 2085              	.LASF6:
 2086 0314 5F5F696E 		.ascii	"__int32_t\000"
 2086      7433325F 
 2086      7400
 2087              	.LASF136:
 2088 031e 6368544D 		.ascii	"chTMChainMeasurementToX\000"
 2088      43686169 
 2088      6E4D6561 
 2088      73757265 
 2088      6D656E74 
 2089              	.LASF106:
 2090 0336 73746B61 		.ascii	"stkalign_t\000"
 2090      6C69676E 
 2090      5F7400
 2091              	.LASF82:
 2092 0341 43594343 		.ascii	"CYCCNT\000"
 2092      4E5400
 2093              	.LASF39:
 2094 0348 705F7761 		.ascii	"p_waiting\000"
 2094      6974696E 
 2094      6700
 2095              	.LASF80:
 2096 0352 73697A65 		.ascii	"sizetype\000"
 2096      74797065 
 2096      00
 2097              	.LASF46:
 2098 035b 74687265 		.ascii	"thread_reference_t\000"
 2098      61645F72 
 2098      65666572 
 2098      656E6365 
 2098      5F7400
 2099              	.LASF69:
 2100 036e 63685F76 		.ascii	"ch_virtual_timers_list\000"
 2100      69727475 
 2100      616C5F74 
 2100      696D6572 
 2100      735F6C69 
 2101              	.LASF110:
 2102 0385 746D5F63 		.ascii	"tm_calibration_t\000"
 2102      616C6962 
 2102      72617469 
 2102      6F6E5F74 
 2102      00
 2103              	.LASF70:
 2104 0396 76745F6C 		.ascii	"vt_lasttime\000"
 2104      61737474 
 2104      696D6500 
 2105              	.LASF34:
 2106 03a2 705F6F6C 		.ascii	"p_older\000"
 2106      64657200 
 2107              	.LASF56:
 2108 03aa 725F6374 		.ascii	"r_ctx\000"
 2108      7800
 2109              	.LASF32:
 2110 03b0 705F6374 		.ascii	"p_ctx\000"
 2110      7800
ARM GAS  /tmp/ccjMvKi1.s 			page 41


 2111              	.LASF93:
 2112 03b6 434F4D50 		.ascii	"COMP1\000"
 2112      3100
 2113              	.LASF97:
 2114 03bc 434F4D50 		.ascii	"COMP2\000"
 2114      3200
 2115              	.LASF101:
 2116 03c2 434F4D50 		.ascii	"COMP3\000"
 2116      3300
 2117              	.LASF59:
 2118 03c8 725F6375 		.ascii	"r_current\000"
 2118      7272656E 
 2118      7400
 2119              	.LASF58:
 2120 03d2 725F6F6C 		.ascii	"r_older\000"
 2120      64657200 
 2121              	.LASF11:
 2122 03da 5F5F7569 		.ascii	"__uint64_t\000"
 2122      6E743634 
 2122      5F7400
 2123              	.LASF114:
 2124 03e5 63756D75 		.ascii	"cumulative\000"
 2124      6C617469 
 2124      766500
 2125              	.LASF21:
 2126 03f0 74726566 		.ascii	"trefs_t\000"
 2126      735F7400 
 2127              	.LASF92:
 2128 03f8 52455345 		.ascii	"RESERVED0\000"
 2128      52564544 
 2128      3000
 2129              	.LASF96:
 2130 0402 52455345 		.ascii	"RESERVED1\000"
 2130      52564544 
 2130      3100
 2131              	.LASF100:
 2132 040c 52455345 		.ascii	"RESERVED2\000"
 2132      52564544 
 2132      3200
 2133              	.LASF61:
 2134 0416 76697274 		.ascii	"virtual_timer_t\000"
 2134      75616C5F 
 2134      74696D65 
 2134      725F7400 
 2135              	.LASF30:
 2136 0426 705F7072 		.ascii	"p_prev\000"
 2136      657600
 2137              	.LASF22:
 2138 042d 74707269 		.ascii	"tprio_t\000"
 2138      6F5F7400 
 2139              	.LASF88:
 2140 0435 50435352 		.ascii	"PCSR\000"
 2140      00
 2141              	.LASF90:
 2142 043a 4D41534B 		.ascii	"MASK0\000"
 2142      3000
 2143              	.LASF94:
ARM GAS  /tmp/ccjMvKi1.s 			page 42


 2144 0440 4D41534B 		.ascii	"MASK1\000"
 2144      3100
 2145              	.LASF14:
 2146 0446 696E7433 		.ascii	"int32_t\000"
 2146      325F7400 
 2147              	.LASF2:
 2148 044e 756E7369 		.ascii	"unsigned char\000"
 2148      676E6564 
 2148      20636861 
 2148      7200
 2149              	.LASF139:
 2150 045c 49544D5F 		.ascii	"ITM_RxBuffer\000"
 2150      52784275 
 2150      66666572 
 2150      00
 2151              	.LASF91:
 2152 0469 46554E43 		.ascii	"FUNCTION0\000"
 2152      54494F4E 
 2152      3000
 2153              	.LASF95:
 2154 0473 46554E43 		.ascii	"FUNCTION1\000"
 2154      54494F4E 
 2154      3100
 2155              	.LASF99:
 2156 047d 46554E43 		.ascii	"FUNCTION2\000"
 2156      54494F4E 
 2156      3200
 2157              	.LASF103:
 2158 0487 46554E43 		.ascii	"FUNCTION3\000"
 2158      54494F4E 
 2158      3300
 2159              	.LASF3:
 2160 0491 73686F72 		.ascii	"short int\000"
 2160      7420696E 
 2160      7400
 2161              	.LASF36:
 2162 049b 705F7374 		.ascii	"p_state\000"
 2162      61746500 
 2163              	.LASF55:
 2164 04a3 725F7072 		.ascii	"r_prio\000"
 2164      696F00
 2165              	.LASF122:
 2166 04aa 65776D61 		.ascii	"ewmask\000"
 2166      736B00
 2167              	.LASF29:
 2168 04b1 705F6E65 		.ascii	"p_next\000"
 2168      787400
 2169              	.LASF37:
 2170 04b8 705F666C 		.ascii	"p_flags\000"
 2170      61677300 
 2171              	.LASF75:
 2172 04c0 63685F73 		.ascii	"ch_system\000"
 2172      79737465 
 2172      6D00
 2173              	.LASF62:
 2174 04ca 63685F76 		.ascii	"ch_virtual_timer\000"
 2174      69727475 
ARM GAS  /tmp/ccjMvKi1.s 			page 43


 2174      616C5F74 
 2174      696D6572 
 2174      00
 2175              	.LASF123:
 2176 04db 63685F73 		.ascii	"ch_semaphore\000"
 2176      656D6170 
 2176      686F7265 
 2176      00
 2177              	.LASF42:
 2178 04e8 705F6570 		.ascii	"p_epending\000"
 2178      656E6469 
 2178      6E6700
 2179              	.LASF86:
 2180 04f3 4C535543 		.ascii	"LSUCNT\000"
 2180      4E5400
 2181              	.LASF15:
 2182 04fa 75696E74 		.ascii	"uint32_t\000"
 2182      33325F74 
 2182      00
 2183              	.LASF121:
 2184 0503 77746D74 		.ascii	"wtmtxp\000"
 2184      787000
 2185              	.LASF54:
 2186 050a 725F7175 		.ascii	"r_queue\000"
 2186      65756500 
 2187              	.LASF65:
 2188 0512 76745F64 		.ascii	"vt_delta\000"
 2188      656C7461 
 2188      00
 2189              	.LASF49:
 2190 051b 63685F74 		.ascii	"ch_threads_list\000"
 2190      68726561 
 2190      64735F6C 
 2190      69737400 
 2191              	.LASF9:
 2192 052b 6C6F6E67 		.ascii	"long unsigned int\000"
 2192      20756E73 
 2192      69676E65 
 2192      6420696E 
 2192      7400
 2193              	.LASF130:
 2194 053d 63686172 		.ascii	"char\000"
 2194      00
 2195              	.LASF28:
 2196 0542 74687265 		.ascii	"thread_t\000"
 2196      61645F74 
 2196      00
 2197              	.LASF142:
 2198 054b 706F7274 		.ascii	"port_rt_get_counter_value\000"
 2198      5F72745F 
 2198      6765745F 
 2198      636F756E 
 2198      7465725F 
 2199              	.LASF129:
 2200 0565 6D5F6E65 		.ascii	"m_next\000"
 2200      787400
 2201              	.LASF27:
ARM GAS  /tmp/ccjMvKi1.s 			page 44


 2202 056c 73797374 		.ascii	"systime_t\000"
 2202      696D655F 
 2202      7400
 2203              	.LASF44:
 2204 0576 705F7265 		.ascii	"p_realprio\000"
 2204      616C7072 
 2204      696F00
 2205              	.LASF60:
 2206 0581 76746675 		.ascii	"vtfunc_t\000"
 2206      6E635F74 
 2206      00
 2207              	.LASF8:
 2208 058a 5F5F7569 		.ascii	"__uint32_t\000"
 2208      6E743332 
 2208      5F7400
 2209              	.LASF73:
 2210 0595 70616E69 		.ascii	"panic_msg\000"
 2210      635F6D73 
 2210      6700
 2211              	.LASF141:
 2212 059f 2F686F6D 		.ascii	"/home/efe/ChibiOS/os/rt/src/chtm.c\000"
 2212      652F6566 
 2212      652F4368 
 2212      6962694F 
 2212      532F6F73 
 2213              	.LASF109:
 2214 05c2 6F666673 		.ascii	"offset\000"
 2214      657400
 2215              	.LASF107:
 2216 05c9 636F6E74 		.ascii	"context\000"
 2216      65787400 
 2217              	.LASF104:
 2218 05d1 4457545F 		.ascii	"DWT_Type\000"
 2218      54797065 
 2218      00
 2219              	.LASF17:
 2220 05da 7274636E 		.ascii	"rtcnt_t\000"
 2220      745F7400 
 2221              	.LASF81:
 2222 05e2 4354524C 		.ascii	"CTRL\000"
 2222      00
 2223              	.LASF67:
 2224 05e7 76745F70 		.ascii	"vt_par\000"
 2224      617200
 2225              	.LASF89:
 2226 05ee 434F4D50 		.ascii	"COMP0\000"
 2226      3000
 2227              	.LASF50:
 2228 05f4 74687265 		.ascii	"threads_queue_t\000"
 2228      6164735F 
 2228      71756575 
 2228      655F7400 
 2229              	.LASF126:
 2230 0604 63685F6D 		.ascii	"ch_mutex\000"
 2230      75746578 
 2230      00
 2231              	.LASF38:
ARM GAS  /tmp/ccjMvKi1.s 			page 45


 2232 060d 705F7265 		.ascii	"p_refs\000"
 2232      667300
 2233              	.LASF76:
 2234 0614 726C6973 		.ascii	"rlist\000"
 2234      7400
 2235              	.LASF13:
 2236 061a 75696E74 		.ascii	"uint8_t\000"
 2236      385F7400 
 2237              	.LASF87:
 2238 0622 464F4C44 		.ascii	"FOLDCNT\000"
 2238      434E5400 
 2239              	.LASF118:
 2240 062a 77746F62 		.ascii	"wtobjp\000"
 2240      6A7000
 2241              	.LASF35:
 2242 0631 705F6E61 		.ascii	"p_name\000"
 2242      6D6500
 2243              	.LASF47:
 2244 0638 74687265 		.ascii	"threads_list_t\000"
 2244      6164735F 
 2244      6C697374 
 2244      5F7400
 2245              	.LASF41:
 2246 0647 705F6D73 		.ascii	"p_msg\000"
 2246      6700
 2247              	.LASF128:
 2248 064d 6D5F6F77 		.ascii	"m_owner\000"
 2248      6E657200 
 2249              	.LASF66:
 2250 0655 76745F66 		.ascii	"vt_func\000"
 2250      756E6300 
 2251              	.LASF132:
 2252 065d 5F746D5F 		.ascii	"_tm_init\000"
 2252      696E6974 
 2252      00
 2253              		.ident	"GCC: (4.8.4-1+11-1) 4.8.4 20141219 (release)"
ARM GAS  /tmp/ccjMvKi1.s 			page 46


DEFINED SYMBOLS
                            *ABS*:0000000000000000 chtm.c
     /tmp/ccjMvKi1.s:19     .text.port_rt_get_counter_value:0000000000000000 $t
     /tmp/ccjMvKi1.s:24     .text.port_rt_get_counter_value:0000000000000000 port_rt_get_counter_value
     /tmp/ccjMvKi1.s:41     .text.port_rt_get_counter_value:0000000000000008 $d
     /tmp/ccjMvKi1.s:46     .text.tm_stop:0000000000000000 $t
     /tmp/ccjMvKi1.s:51     .text.tm_stop:0000000000000000 tm_stop
     /tmp/ccjMvKi1.s:125    .text._tm_init:0000000000000000 $t
     /tmp/ccjMvKi1.s:131    .text._tm_init:0000000000000000 _tm_init
     /tmp/ccjMvKi1.s:180    .text.chTMObjectInit:0000000000000000 chTMObjectInit
     /tmp/ccjMvKi1.s:225    .text.chTMStartMeasurementX:0000000000000000 chTMStartMeasurementX
     /tmp/ccjMvKi1.s:256    .text.chTMStopMeasurementX:0000000000000000 chTMStopMeasurementX
     /tmp/ccjMvKi1.s:169    .text._tm_init:0000000000000030 $d
     /tmp/ccjMvKi1.s:174    .text.chTMObjectInit:0000000000000000 $t
     /tmp/ccjMvKi1.s:219    .text.chTMStartMeasurementX:0000000000000000 $t
     /tmp/ccjMvKi1.s:250    .text.chTMStopMeasurementX:0000000000000000 $t
     /tmp/ccjMvKi1.s:284    .text.chTMStopMeasurementX:0000000000000020 $d
     /tmp/ccjMvKi1.s:289    .text.chTMChainMeasurementToX:0000000000000000 $t
     /tmp/ccjMvKi1.s:295    .text.chTMChainMeasurementToX:0000000000000000 chTMChainMeasurementToX
                     .debug_frame:0000000000000010 $d
     /tmp/ccjMvKi1.s:45     .text.port_rt_get_counter_value:000000000000000c $t
     /tmp/ccjMvKi1.s:173    .text._tm_init:0000000000000034 $t
     /tmp/ccjMvKi1.s:288    .text.chTMStopMeasurementX:0000000000000024 $t

UNDEFINED SYMBOLS
ch
