ARM GAS  /tmp/ccjMvKi1.s 			page 1


   1              		.syntax unified
   2              		.cpu cortex-m4
   3              		.fpu softvfp
   4              		.eabi_attribute 20, 1
   5              		.eabi_attribute 21, 1
   6              		.eabi_attribute 23, 3
   7              		.eabi_attribute 24, 1
   8              		.eabi_attribute 25, 1
   9              		.eabi_attribute 26, 1
  10              		.eabi_attribute 30, 6
  11              		.eabi_attribute 34, 1
  12              		.eabi_attribute 18, 4
  13              		.thumb
  14              		.file	"chtm.c"
  15              		.text
  16              	.Ltext0:
  17              		.cfi_sections	.debug_frame
  18              		.section	.text.port_rt_get_counter_value,"ax",%progbits
  19              		.align	2
  20              		.p2align 4,,15
  21              		.thumb
  22              		.thumb_func
  23              		.type	port_rt_get_counter_value, %function
  24              	port_rt_get_counter_value:
  25              	.LFB135:
  26              		.file 1 "/home/efe/ChibiOS/os/rt/ports/ARMCMx/chcore_v7m.h"
  27              		.loc 1 558 0
  28              		.cfi_startproc
  29              		@ args = 0, pretend = 0, frame = 0
  30              		@ frame_needed = 0, uses_anonymous_args = 0
  31              		@ link register save eliminated.
  32              		.loc 1 560 0
  33 0000 014B     		ldr	r3, .L3
  34 0002 5B68     		ldr	r3, [r3, #4]
  35              		.loc 1 561 0
  36 0004 1846     		mov	r0, r3
  37 0006 7047     		bx	lr
  38              	.L4:
  39              		.align	2
  40              	.L3:
  41 0008 001000E0 		.word	-536866816
  42              		.cfi_endproc
  43              	.LFE135:
  44              		.size	port_rt_get_counter_value, .-port_rt_get_counter_value
  45 000c AFF30080 		.section	.text.tm_stop,"ax",%progbits
  46              		.align	2
  47              		.p2align 4,,15
  48              		.thumb
  49              		.thumb_func
  50              		.type	tm_stop, %function
  51              	tm_stop:
  52              	.LFB240:
  53              		.file 2 "/home/efe/ChibiOS/os/rt/src/chtm.c"
  54              		.loc 2 55 0
  55              		.cfi_startproc
  56              		@ args = 0, pretend = 0, frame = 16
  57              		@ frame_needed = 0, uses_anonymous_args = 0
ARM GAS  /tmp/ccjMvKi1.s 			page 2


  58              		@ link register save eliminated.
  59 0000 84B0     		sub	sp, sp, #16
  60              		.cfi_def_cfa_offset 16
  61 0002 0390     		str	r0, [sp, #12]
  62 0004 0291     		str	r1, [sp, #8]
  63 0006 0192     		str	r2, [sp, #4]
  64              		.loc 2 57 0
  65 0008 039B     		ldr	r3, [sp, #12]
  66 000a DB68     		ldr	r3, [r3, #12]
  67 000c 5A1C     		adds	r2, r3, #1
  68 000e 039B     		ldr	r3, [sp, #12]
  69 0010 DA60     		str	r2, [r3, #12]
  70              		.loc 2 58 0
  71 0012 039B     		ldr	r3, [sp, #12]
  72 0014 9B68     		ldr	r3, [r3, #8]
  73 0016 029A     		ldr	r2, [sp, #8]
  74 0018 D21A     		subs	r2, r2, r3
  75 001a 019B     		ldr	r3, [sp, #4]
  76 001c D21A     		subs	r2, r2, r3
  77 001e 039B     		ldr	r3, [sp, #12]
  78 0020 9A60     		str	r2, [r3, #8]
  79              		.loc 2 59 0
  80 0022 039B     		ldr	r3, [sp, #12]
  81 0024 D3E90401 		ldrd	r0, [r3, #16]
  82 0028 039B     		ldr	r3, [sp, #12]
  83 002a 9B68     		ldr	r3, [r3, #8]
  84 002c 1A46     		mov	r2, r3
  85 002e 4FF00003 		mov	r3, #0
  86 0032 1218     		adds	r2, r2, r0
  87 0034 43EB0103 		adc	r3, r3, r1
  88 0038 0399     		ldr	r1, [sp, #12]
  89 003a C1E90423 		strd	r2, [r1, #16]
  90              		.loc 2 61 0
  91 003e 039B     		ldr	r3, [sp, #12]
  92 0040 9A68     		ldr	r2, [r3, #8]
  93 0042 039B     		ldr	r3, [sp, #12]
  94 0044 5B68     		ldr	r3, [r3, #4]
  95 0046 9A42     		cmp	r2, r3
  96 0048 04D9     		bls	.L6
  97              		.loc 2 62 0
  98 004a 039B     		ldr	r3, [sp, #12]
  99 004c 9A68     		ldr	r2, [r3, #8]
 100 004e 039B     		ldr	r3, [sp, #12]
 101 0050 5A60     		str	r2, [r3, #4]
 102 0052 09E0     		b	.L5
 103              	.L6:
 104              		.loc 2 64 0
 105 0054 039B     		ldr	r3, [sp, #12]
 106 0056 9A68     		ldr	r2, [r3, #8]
 107 0058 039B     		ldr	r3, [sp, #12]
 108 005a 1B68     		ldr	r3, [r3]
 109 005c 9A42     		cmp	r2, r3
 110 005e 03D2     		bcs	.L5
 111              		.loc 2 65 0
 112 0060 039B     		ldr	r3, [sp, #12]
 113 0062 9A68     		ldr	r2, [r3, #8]
 114 0064 039B     		ldr	r3, [sp, #12]
ARM GAS  /tmp/ccjMvKi1.s 			page 3


 115 0066 1A60     		str	r2, [r3]
 116              	.L5:
 117              		.loc 2 68 0
 118 0068 04B0     		add	sp, sp, #16
 119              		@ sp needed
 120 006a 7047     		bx	lr
 121              		.cfi_endproc
 122              	.LFE240:
 123              		.size	tm_stop, .-tm_stop
 124 006c AFF30080 		.section	.text._tm_init,"ax",%progbits
 125              		.align	2
 126              		.p2align 4,,15
 127              		.global	_tm_init
 128              		.thumb
 129              		.thumb_func
 130              		.type	_tm_init, %function
 131              	_tm_init:
 132              	.LFB241:
 133              		.loc 2 79 0
 134              		.cfi_startproc
 135              		@ args = 0, pretend = 0, frame = 24
 136              		@ frame_needed = 0, uses_anonymous_args = 0
 137 0000 00B5     		push	{lr}
 138              		.cfi_def_cfa_offset 4
 139              		.cfi_offset 14, -4
 140 0002 87B0     		sub	sp, sp, #28
 141              		.cfi_def_cfa_offset 32
 142              		.loc 2 85 0
 143 0004 0A4B     		ldr	r3, .L9
 144 0006 0022     		movs	r2, #0
 145 0008 5A67     		str	r2, [r3, #116]
 146              		.loc 2 86 0
 147 000a 6B46     		mov	r3, sp
 148 000c 1846     		mov	r0, r3
 149 000e FFF7FEFF 		bl	chTMObjectInit
 150              		.loc 2 87 0
 151 0012 6B46     		mov	r3, sp
 152 0014 1846     		mov	r0, r3
 153 0016 FFF7FEFF 		bl	chTMStartMeasurementX
 154              		.loc 2 88 0
 155 001a 6B46     		mov	r3, sp
 156 001c 1846     		mov	r0, r3
 157 001e FFF7FEFF 		bl	chTMStopMeasurementX
 158              		.loc 2 89 0
 159 0022 029A     		ldr	r2, [sp, #8]
 160 0024 024B     		ldr	r3, .L9
 161 0026 5A67     		str	r2, [r3, #116]
 162              		.loc 2 90 0
 163 0028 07B0     		add	sp, sp, #28
 164              		@ sp needed
 165 002a 5DF804FB 		ldr	pc, [sp], #4
 166              	.L10:
 167 002e 00BF     		.align	2
 168              	.L9:
 169 0030 00000000 		.word	ch
 170              		.cfi_endproc
 171              	.LFE241:
ARM GAS  /tmp/ccjMvKi1.s 			page 4


 172              		.size	_tm_init, .-_tm_init
 173 0034 AFF30080 		.section	.text.chTMObjectInit,"ax",%progbits
 173      AFF30080 
 173      AFF30080 
 174              		.align	2
 175              		.p2align 4,,15
 176              		.global	chTMObjectInit
 177              		.thumb
 178              		.thumb_func
 179              		.type	chTMObjectInit, %function
 180              	chTMObjectInit:
 181              	.LFB242:
 182              		.loc 2 99 0
 183              		.cfi_startproc
 184              		@ args = 0, pretend = 0, frame = 8
 185              		@ frame_needed = 0, uses_anonymous_args = 0
 186              		@ link register save eliminated.
 187 0000 82B0     		sub	sp, sp, #8
 188              		.cfi_def_cfa_offset 8
 189 0002 0190     		str	r0, [sp, #4]
 190              		.loc 2 101 0
 191 0004 019B     		ldr	r3, [sp, #4]
 192 0006 4FF0FF32 		mov	r2, #-1
 193 000a 1A60     		str	r2, [r3]
 194              		.loc 2 102 0
 195 000c 019B     		ldr	r3, [sp, #4]
 196 000e 0022     		movs	r2, #0
 197 0010 5A60     		str	r2, [r3, #4]
 198              		.loc 2 103 0
 199 0012 019B     		ldr	r3, [sp, #4]
 200 0014 0022     		movs	r2, #0
 201 0016 9A60     		str	r2, [r3, #8]
 202              		.loc 2 104 0
 203 0018 019B     		ldr	r3, [sp, #4]
 204 001a 0022     		movs	r2, #0
 205 001c DA60     		str	r2, [r3, #12]
 206              		.loc 2 105 0
 207 001e 0199     		ldr	r1, [sp, #4]
 208 0020 4FF00002 		mov	r2, #0
 209 0024 4FF00003 		mov	r3, #0
 210 0028 C1E90423 		strd	r2, [r1, #16]
 211              		.loc 2 106 0
 212 002c 02B0     		add	sp, sp, #8
 213              		@ sp needed
 214 002e 7047     		bx	lr
 215              		.cfi_endproc
 216              	.LFE242:
 217              		.size	chTMObjectInit, .-chTMObjectInit
 218              		.section	.text.chTMStartMeasurementX,"ax",%progbits
 219              		.align	2
 220              		.p2align 4,,15
 221              		.global	chTMStartMeasurementX
 222              		.thumb
 223              		.thumb_func
 224              		.type	chTMStartMeasurementX, %function
 225              	chTMStartMeasurementX:
 226              	.LFB243:
ARM GAS  /tmp/ccjMvKi1.s 			page 5


 227              		.loc 2 116 0
 228              		.cfi_startproc
 229              		@ args = 0, pretend = 0, frame = 8
 230              		@ frame_needed = 0, uses_anonymous_args = 0
 231 0000 00B5     		push	{lr}
 232              		.cfi_def_cfa_offset 4
 233              		.cfi_offset 14, -4
 234 0002 83B0     		sub	sp, sp, #12
 235              		.cfi_def_cfa_offset 16
 236 0004 0190     		str	r0, [sp, #4]
 237              		.loc 2 118 0
 238 0006 FFF7FEFF 		bl	port_rt_get_counter_value
 239 000a 0246     		mov	r2, r0
 240 000c 019B     		ldr	r3, [sp, #4]
 241 000e 9A60     		str	r2, [r3, #8]
 242              		.loc 2 119 0
 243 0010 03B0     		add	sp, sp, #12
 244              		@ sp needed
 245 0012 5DF804FB 		ldr	pc, [sp], #4
 246              		.cfi_endproc
 247              	.LFE243:
 248              		.size	chTMStartMeasurementX, .-chTMStartMeasurementX
 249 0016 00BFAFF3 		.section	.text.chTMStopMeasurementX,"ax",%progbits
 249      0080AFF3 
 249      0080
 250              		.align	2
 251              		.p2align 4,,15
 252              		.global	chTMStopMeasurementX
 253              		.thumb
 254              		.thumb_func
 255              		.type	chTMStopMeasurementX, %function
 256              	chTMStopMeasurementX:
 257              	.LFB244:
 258              		.loc 2 129 0
 259              		.cfi_startproc
 260              		@ args = 0, pretend = 0, frame = 8
 261              		@ frame_needed = 0, uses_anonymous_args = 0
 262 0000 00B5     		push	{lr}
 263              		.cfi_def_cfa_offset 4
 264              		.cfi_offset 14, -4
 265 0002 83B0     		sub	sp, sp, #12
 266              		.cfi_def_cfa_offset 16
 267 0004 0190     		str	r0, [sp, #4]
 268              		.loc 2 131 0
 269 0006 FFF7FEFF 		bl	port_rt_get_counter_value
 270 000a 0246     		mov	r2, r0
 271 000c 044B     		ldr	r3, .L14
 272 000e 5B6F     		ldr	r3, [r3, #116]
 273 0010 0198     		ldr	r0, [sp, #4]
 274 0012 1146     		mov	r1, r2
 275 0014 1A46     		mov	r2, r3
 276 0016 FFF7FEFF 		bl	tm_stop
 277              		.loc 2 132 0
 278 001a 03B0     		add	sp, sp, #12
 279              		@ sp needed
 280 001c 5DF804FB 		ldr	pc, [sp], #4
 281              	.L15:
ARM GAS  /tmp/ccjMvKi1.s 			page 6


 282              		.align	2
 283              	.L14:
 284 0020 00000000 		.word	ch
 285              		.cfi_endproc
 286              	.LFE244:
 287              		.size	chTMStopMeasurementX, .-chTMStopMeasurementX
 288 0024 AFF30080 		.section	.text.chTMChainMeasurementToX,"ax",%progbits
 288      AFF30080 
 288      AFF30080 
 289              		.align	2
 290              		.p2align 4,,15
 291              		.global	chTMChainMeasurementToX
 292              		.thumb
 293              		.thumb_func
 294              		.type	chTMChainMeasurementToX, %function
 295              	chTMChainMeasurementToX:
 296              	.LFB245:
 297              		.loc 2 147 0
 298              		.cfi_startproc
 299              		@ args = 0, pretend = 0, frame = 8
 300              		@ frame_needed = 0, uses_anonymous_args = 0
 301 0000 00B5     		push	{lr}
 302              		.cfi_def_cfa_offset 4
 303              		.cfi_offset 14, -4
 304 0002 83B0     		sub	sp, sp, #12
 305              		.cfi_def_cfa_offset 16
 306 0004 0190     		str	r0, [sp, #4]
 307 0006 0091     		str	r1, [sp]
 308              		.loc 2 150 0
 309 0008 FFF7FEFF 		bl	port_rt_get_counter_value
 310 000c 0246     		mov	r2, r0
 311 000e 009B     		ldr	r3, [sp]
 312 0010 9A60     		str	r2, [r3, #8]
 313              		.loc 2 153 0
 314 0012 009B     		ldr	r3, [sp]
 315 0014 9B68     		ldr	r3, [r3, #8]
 316 0016 0198     		ldr	r0, [sp, #4]
 317 0018 1946     		mov	r1, r3
 318 001a 0022     		movs	r2, #0
 319 001c FFF7FEFF 		bl	tm_stop
 320              		.loc 2 154 0
 321 0020 03B0     		add	sp, sp, #12
 322              		@ sp needed
 323 0022 5DF804FB 		ldr	pc, [sp], #4
 324              		.cfi_endproc
 325              	.LFE245:
 326              		.size	chTMChainMeasurementToX, .-chTMChainMeasurementToX
 327 0026 00BFAFF3 		.text
 327      0080AFF3 
 327      0080
 328              	.Letext0:
 329              		.file 3 "/usr/include/newlib/machine/_default_types.h"
 330              		.file 4 "/usr/include/newlib/stdint.h"
 331              		.file 5 "/home/efe/ChibiOS/os/rt/ports/ARMCMx/compilers/GCC/chtypes.h"
 332              		.file 6 "/home/efe/ChibiOS/os/rt/include/chsystypes.h"
 333              		.file 7 "/home/efe/ChibiOS/os/rt/include/chschd.h"
 334              		.file 8 "/home/efe/ChibiOS/os/ext/CMSIS/include/core_cm4.h"
ARM GAS  /tmp/ccjMvKi1.s 			page 7


 335              		.file 9 "/home/efe/ChibiOS/os/rt/ports/ARMCMx/chcore.h"
 336              		.file 10 "/home/efe/ChibiOS/os/rt/include/chtm.h"
 337              		.file 11 "/home/efe/ChibiOS/os/rt/include/chsem.h"
 338              		.file 12 "/home/efe/ChibiOS/os/rt/include/chmtx.h"