ARM GAS  /tmp/cczbjoPn.s 			page 1


   1              		.cpu cortex-m0
   2              		.fpu softvfp
   3              		.eabi_attribute 20, 1
   4              		.eabi_attribute 21, 1
   5              		.eabi_attribute 23, 3
   6              		.eabi_attribute 24, 1
   7              		.eabi_attribute 25, 1
   8              		.eabi_attribute 26, 1
   9              		.eabi_attribute 30, 6
  10              		.eabi_attribute 34, 0
  11              		.eabi_attribute 18, 4
  12              		.code	16
  13              		.file	"chvt.c"
  14              		.text
  15              	.Ltext0:
  16              		.section	.gnu.lto_.inline.343822de5b6c438b,"",%progbits
  17 0000 789C6362 		.ascii	"x\234cb`b\300\006\356CiN\006\006\026f\006\006&\226\017"
  17      6062C006 
  17      EE43694E 
  17      06061666 
  17      06062696 
  18 0015 7A0C2C10 		.ascii	"z\014,\020\265\214\014\254\274@\021\246\005\3620\021"
  18      B58C0CAC 
  18      BC4011A6 
  18      05F23011 
  19 0025 266E1081 		.ascii	"&n\020\201]\230\031\2730\013vaV\006\026\036TaF. \301"
  19      5D9819BB 
  19      300B7661 
  19      5606161E 
  19      5461462E 
  20 003b C6C0CE06 		.ascii	"\306\300\316\006\024\346z\020\013\023\346`09\007\322"
  20      14E67A10 
  20      0B13E660 
  20      303907D2 
  21 004b 1431613F 		.ascii	"\0241a?+\2523\340\004'\203\371E\020;\341\302_,J\300"
  21      2BAA33E0 
  21      042783F9 
  21      45103BE1 
  21      C25F2C4A 
  22 0060 E6320000 		.ascii	"\3462\000\000\011C\016h"
  22      09430E68 
  23              		.text
  24              		.section	.gnu.lto_st_lld_get_counter.343822de5b6c438b,"",%progbits
  25 0000 789C6362 		.ascii	"x\234cb`b@\007\322@\\\306\310\300`\005\342\26000\002"
  25      60624007 
  25      D2405CC6 
  25      C8C06005 
  25      E2B03030 
  26 0015 55303231 		.ascii	"U0212\003IfF\2400\003#C=\0233c}$\210\315\300\254\304"
  26      32034966 
  26      46A03003 
  26      23433D13 
  26      33637D24 
  27 002e B0B0A161 		.ascii	"\260\260\241a\326\203\245\313gJt-h\234\320\360\357\377"
  27      D683A5CB 
  27      674A742D 
  27      689CD0F0 
ARM GAS  /tmp/cczbjoPn.s 			page 2


  27      EFFF
  28 0040 7FC64C90 		.ascii	"\177\306L\220T2#C\004\220\305(\000\246\230\320\354\001"
  28      54322343 
  28      0490C528 
  28      00A698D0 
  28      EC01
  29 0052 6B9BD430 		.ascii	"k\233\3240\371i\300\211\206\226\003\377\377\333g\202"
  29      F969C089 
  29      869603FF 
  29      FFDB6782 
  30 0062 6C80E951 		.ascii	"l\200\351Q\200\350a\301\252g\323\212\006\316\005\015"
  30      80E861C1 
  30      AA67D38A 
  30      06CE050D 
  31 0072 7FFEFF67 		.ascii	"\177\376\377g\316dd!\244g=\323\201\007\377\377\357\271"
  31      CE646421 
  31      A4673DD3 
  31      8107FFFF 
  31      EFB9
  32 0084 BCE2F13C 		.ascii	"\274\342\361<F!\026F\006\2405L@\202\205\231\001\354"
  32      46211646 
  32      06A0354C 
  32      40828599 
  32      01EC
  33 0096 48065686 		.ascii	"H\006V\206\226\206\206\011\012`c\200 \004L\206\202\374"
  33      96868609 
  33      0A606380 
  33      20044C86 
  33      82FC
  34 00a8 CC7C96A1 		.ascii	"\314|\226\241i\307\216\345'Y\022\031\2270\2622\2443"
  34      69C78EE5 
  34      27591219 
  34      9730B232 
  34      A433
  35 00ba 3282CC67 		.ascii	"2\202\314gn\350hh\000\331q\226\341P\024L\206I\233aU"
  35      6EE86868 
  35      00D97196 
  35      E150144C 
  35      86499B61 
  36 00cf 430B5096 		.ascii	"C\013P\226u6\303, \305\006S\014vB\022#\3141@\023\337"
  36      7536C32C 
  36      20C50653 
  36      0C764212 
  36      23CC3140 
  37 00e5 35F3C174 		.ascii	"5\363\301t1\2473B\003%\024\244\222\3714C#\007\003C\012"
  37      31A73342 
  37      032514A4 
  37      92F93443 
  37      23070343 
  38 00fa 48F54506 		.ascii	"H\365E\006F\270*\210\222\020P\320\203\224[\350g\344"
  38      46B82A88 
  38      921050D0 
  38      83945BE8 
  38      67E4
  39 010c E7A6EAA7 		.ascii	"\347\246\352\247\246\245\352;gd&e\372\007\353\347\027"
  39      A6A5EA3B 
  39      67642665 
ARM GAS  /tmp/cczbjoPn.s 			page 3


  39      FA07EBE7 
  39      17
  40 011d EB6724E6 		.ascii	"\353g$\346\350\027\344\027\225\024\353\007\207\370\032"
  40      E817E417 
  40      9514EB07 
  40      87F81A
  41 012c 1BE9FBF8 		.ascii	"\033\351\373\370\270\350\207x\372\226\031\352\027\227"
  41      B8E88778 
  41      FA9619EA 
  41      1797
  42 013a C4E7E4A4 		.ascii	"\304\347\344\244\350e0\000\000\362\025`\344"
  42      E8653000 
  42      00F21560 
  42      E4
  43              		.text
  44              		.section	.gnu.lto_port_timer_get_time.343822de5b6c438b,"",%progbits
  45 0000 789C6362 		.ascii	"x\234cb`b@\007\322@|\004\210\315@\034\026\006F\240\012"
  45      60624007 
  45      D2407C04 
  45      88CD401C 
  45      160646A0 
  46 0015 46264666 		.ascii	"F&Ff \311\314\310\010\024bd\250gbf\254\217\004\261\031"
  46      20C9CCC8 
  46      08146264 
  46      A8676266 
  46      AC8F04B1 
  47 002a 18951816 		.ascii	"\030\225\030\02664\314z\360\364\333\014\211\256\005"
  47      3634CC7A 
  47      F0F4DB0C 
  47      89AE05
  48 0039 8D131AFE 		.ascii	"\215\023\032\376\375\377\317\230\011\222Jfd\210\000"
  48      FDFFCF98 
  48      09924A66 
  48      648800
  49 0048 B21805C0 		.ascii	"\262\030\005\300\024\023\232=\353\231\016<\370\377\177"
  49      14139A3D 
  49      EB990E3C 
  49      F8FF7F
  50 0057 CEEE358F 		.ascii	"\316\3565\217\3570\012212\200\2650\2602\26444LP\000"
  50      EF300A32 
  50      313280B5 
  50      30B032B4 
  50      34344C50 
  51 006c 6B068210 		.ascii	"k\006\202\0200\031\012r\001\363y\206\346\007\267\223"
  51      30190A72 
  51      01F37986 
  51      E607B793 
  52 007c 13191731 		.ascii	"\023\031\0271\2622\24432V3\374j\350h\020\310ddN\006"
  52      B232A433 
  52      325633FC 
  52      6AE86810 
  52      C864644E 
  53 0091 3B8A0168 		.ascii	";\212\001h\002\013\304\350P\220[\231O34r00\244\200\344"
  53      020BC4E8 
  53      50905B99 
  53      4F333472 
  53      3030A480 
ARM GAS  /tmp/cczbjoPn.s 			page 4


  54 00a6 2E3230C2 		.ascii	".20\302\365A\224\204\200\030 \027\231\350g\344\347\246"
  54      F5419484 
  54      80182017 
  54      99E867E4 
  54      E7A6
  55 00b8 EAA7A6A5 		.ascii	"\352\247\246\245\352;gd&e\372\007\353\347\027\353\027"
  55      EA3B6764 
  55      2665FA07 
  55      EBE717EB 
  55      17
  56 00c9 95E817E4 		.ascii	"\225\350\027\344\027\225\024\353;\006\371:\373V\350"
  56      179514EB 
  56      3B06F93A 
  56      FB56E8
  57 00d8 276724E7 		.ascii	"'g$\347\027\245\306\227d\346\246\026\351e0\000\000@"
  57      17A5C697 
  57      64E6A616 
  57      E9653000 
  57      0040
  58 00ea BB3CAE   		.ascii	"\273<\256"
  59              		.text
  60              		.section	.gnu.lto_chVTGetSystemTimeX.343822de5b6c438b,"",%progbits
  61 0000 789C6362 		.ascii	"x\234cb`b@\007\322@|\004\2105A\034\026\006F\240\012"
  61      60624007 
  61      D2407C04 
  61      8835411C 
  61      160646A0 
  62 0015 46264666 		.ascii	"F&Ff \311\314\310\010\024bd\250gbf\254\217\004\261\031"
  62      20C9CCC8 
  62      08146264 
  62      A8676266 
  62      AC8F04B1 
  63 002a 18951816 		.ascii	"\030\225\030\02664\314z\260\364\333L\211\256\005\215"
  63      3634CC7A 
  63      B0F4DB4C 
  63      89AE058D 
  64 003a 131AFEFD 		.ascii	"\023\032\376\375\377\317\230\011\222Jfd\210\000\262"
  64      FFCF9809 
  64      924A6664 
  64      8800B2
  65 0049 1805C014 		.ascii	"\030\005\300\024\023\232=\353\231\016<\370\377\377\314"
  65      139A3DEB 
  65      990E3CF8 
  65      FFFFCC
  66 0058 CF158F6F 		.ascii	"\317\025\217o3\012312\200\2650\2602\26444LP\000k\006"
  66      330A3331 
  66      3280B530 
  66      B032B434 
  66      344C5000 
  67 006e 82103019 		.ascii	"\202\0200\031\012r\001\363y\206\346\0077\323\023\031"
  67      0A7201F3 
  67      7986E607 
  67      37D31319 
  68 007e 1731B232 		.ascii	"\0271\2622\24432V3\374j\350h\020\310ddN\006;\212\001"
  68      A4333256 
  68      33FC6AE8 
  68      6810C864 
ARM GAS  /tmp/cczbjoPn.s 			page 5


  68      644E063B 
  69 0094 68020BC4 		.ascii	"h\002\013\304\350P\220[\231O34r00\244\200\344.20\302"
  69      E850905B 
  69      994F3334 
  69      723030A4 
  69      80E42E32 
  70 00aa F5419484 		.ascii	"\365A\224\204\200\030 \027\251\353g\344\347\246\352"
  70      80182017 
  70      A9EB67E4 
  70      E7A6EA
  71 00b9 A7A6A5EA 		.ascii	"\247\246\245\352;gd&e\372\007\353\347\027\353\027\225"
  71      3B676426 
  71      65FA07EB 
  71      E717EB17 
  71      95
  72 00ca E867E625 		.ascii	"\350g\346%\347\224\246\244\352'g\224\225\350e0\000\000"
  72      E794A6A4 
  72      EA276794 
  72      95E86530 
  72      0000
  73 00dc 48353818 		.ascii	"H58\030"
  74              		.text
  75              		.section	.gnu.lto_port_timer_start_alarm.343822de5b6c438b,"",%progbits
  76 0000 789C6362 		.ascii	"x\234cb`b@\007\"@\\\007\304f \0163\003#P\005#\023##"
  76      60624007 
  76      22405C07 
  76      C466200E 
  76      33032350 
  77 0019 90C3C850 		.ascii	"\220\303\310P\317\304X\037\311\010V\266\236\351\300"
  77      CFC4581F 
  77      C90856B6 
  77      9EE9C0
  78 0028 83FFFFD7 		.ascii	"\203\377\377\327\315;\266w\015\343L&\240\202\\\2608"
  78      CD3BB677 
  78      0DE34C26 
  78      A0825CB0 
  78      38
  79 0039 2B434B43 		.ascii	"+CKC\303\004\005\006\206d07\004L\206\202\014a>\317\320"
  79      C3040506 
  79      86643037 
  79      044C8682 
  79      0C613ECF 
  80 004e F260E663 		.ascii	"\362`\346c\366D\306\205\214\254@\301j\206_\015\035\015"
  80      F644C685 
  80      8CAC40C1 
  80      6A865F0D 
  80      1D0D
  81 0060 02998C40 		.ascii	"\002\231\214@\245\020#\323\031\0313A\314\213\014\215"
  81      A51023D3 
  81      19193341 
  81      CC8B0C8D 
  82 0070 0F6629C3 		.ascii	"\017f)\303\324A@\010H\002\344X\023\375\214\374\334T"
  82      D4414008 
  82      4802E458 
  82      13FD8CFC 
  82      DC54
  83 0082 FDD4B454 		.ascii	"\375\324\264T}\347\214\314\244L\377`\375\374b\375\242"
ARM GAS  /tmp/cczbjoPn.s 			page 6


  83      7DE78CCC 
  83      A44CFF60 
  83      FDFC62FD 
  83      A2
  84 0093 12FD82FC 		.ascii	"\022\375\202\374\242\222b}\307 _g\337\012\375\344\214"
  84      A292627D 
  84      C7205F67 
  84      DF0AFDE4 
  84      8C
  85 00a4 E4FCA2D4 		.ascii	"\344\374\242\324\370\222\314\334\324\"\275\014\006\000"
  85      F892CCDC 
  85      D422BD0C 
  85      0600
  86 00b2 8A062E90 		.ascii	"\212\006.\220"
  87              		.text
  88              		.section	.gnu.lto_port_timer_set_alarm.343822de5b6c438b,"",%progbits
  89 0000 789C6362 		.ascii	"x\234cb`b@\007\"@\\\007\304f \0163\003#P\005#\023##"
  89      60624007 
  89      22405C07 
  89      C466200E 
  89      33032350 
  90 0019 90C3C850 		.ascii	"\220\303\310P\317\304X\037\311\010V\266\236\351\300"
  90      CFC4581F 
  90      C90856B6 
  90      9EE9C0
  91 0028 83FFFFD7 		.ascii	"\203\377\377\327\375:\266\247\207q\016\023PA.X\234\225"
  91      FD3AB6A7 
  91      87710E13 
  91      50412E58 
  91      9C95
  92 003a A1A5A161 		.ascii	"\241\245\241a\202\002\003C2\230\033\002&CA\2060\237"
  92      82020343 
  92      32981B02 
  92      26434186 
  92      309F
  93 004c 676879B0 		.ascii	"ghy\260\1771{\"\343BFV\240`5\303\257\206\216\006\201"
  93      7F317B22 
  93      E3424656 
  93      A06035C3 
  93      AF868E06 
  94 0061 4C46A052 		.ascii	"LF\240R\210\221\351\214\214\231 \346E\206\306\007'\224"
  94      8891E98C 
  94      8C9920E6 
  94      4586C607 
  94      2794
  95 0073 61EA2020 		.ascii	"a\352  \004$\001r\254\211~F~n\252~jZ\252\276sFfR\246"
  95      04240172 
  95      AC897E46 
  95      7E6EAA7E 
  95      6A5AAABE 
  96 008c 7FB07E7E 		.ascii	"\177\260~~\261~Q\211~A~QI\261\276c\220\257\263o\205"
  96      B17E5189 
  96      7E417E51 
  96      49B1BE63 
  96      90AFB36F 
  97 00a1 7E724672 		.ascii	"~rFr~Qj|Ifnj\221^\006\003\000\264\273.\342"
  97      7E516A7C 
ARM GAS  /tmp/cczbjoPn.s 			page 7


  97      49666E6A 
  97      915E0603 
  97      00B4BB2E 
  98              		.text
  99              		.section	.gnu.lto_port_timer_stop_alarm.343822de5b6c438b,"",%progbits
 100 0000 789C6362 		.ascii	"x\234cb`b@\007\"@\\\006\304f \0163\003#P\005#\023##"
 100      60624007 
 100      22405C06 
 100      C466200E 
 100      33032350 
 101 0019 90C3C850 		.ascii	"\220\303\310P\317\304X\037\311\010V\266\236\351\300"
 101      CFC4581F 
 101      C90856B6 
 101      9EE9C0
 102 0028 83FFFFD7 		.ascii	"\203\377\377\327]j\333r\206q\026\023H\214\225\241\245"
 102      5D6ADB72 
 102      86711613 
 102      488C95A1 
 102      A5
 103 0039 A1618202 		.ascii	"\241a\202\002\003C2XE\010\230\014\005\351g>\317\320"
 103      03433258 
 103      4508980C 
 103      05E9673E 
 103      CFD0
 104 004b FC60F561 		.ascii	"\374`\365a\366D\306\205\214\254@\301j\206_\015\035\015"
 104      F644C685 
 104      8CAC40C1 
 104      6A865F0D 
 104      1D0D
 105 005d 02998C40 		.ascii	"\002\231\214@\245\020\3232A\364E\206\306\007k\224a\212"
 105      A510D332 
 105      41F44586 
 105      C6076B94 
 105      618A
 106 006f 20200424 		.ascii	"  \004$\001r\244\211~F~n\252~jZ\252\276sFfR\246\177"
 106      0172A489 
 106      7E467E6E 
 106      AA7E6A5A 
 106      AABE7346 
 107 0087 B07E7EB1 		.ascii	"\260~~\261~Q\211~A~QI\261\276c\220\257\263o\205~rFr"
 107      7E51897E 
 107      417E5149 
 107      B1BE6390 
 107      AFB36F85 
 108 009f 7E516A7C 		.ascii	"~Qj|Ifnj\221^\006\003\000\247\202-\275"
 108      49666E6A 
 108      915E0603 
 108      00A7822D 
 108      BD
 109              		.text
 110              		.section	.gnu.lto__vt_init.343822de5b6c438b,"",%progbits
 111 0000 789C6362 		.ascii	"x\234cb`b@\007\"@,\014\024V\005q\230\031\030\201LF&"
 111      60624007 
 111      22402C0C 
 111      14560571 
 111      98191881 
 112 0017 46462087 		.ascii	"FF \207\221\241\236\211\261>\222\021\254l=\323\201\007"
ARM GAS  /tmp/cczbjoPn.s 			page 8


 112      91A19E89 
 112      B13E9211 
 112      AC6C3DD3 
 112      8107
 113 0029 FFFFAFFB 		.ascii	"\377\377\257\373\265\365a?\243 H\210\225\241\245\241"
 113      B5F5613F 
 113      A3204888 
 113      95A1A5A1 
 114 0039 61820203 		.ascii	"a\202\002\003C2XA\010\230\014\005ig>\313\320\364\253"
 114      43325841 
 114      08980C05 
 114      69673ECB 
 114      D0F4AB
 115 004c F9FF6BA6 		.ascii	"\371\377k\246D\306\205\214\254\014\332\014\253\032\200"
 115      44C6858C 
 115      AC0CDA0C 
 115      AB1A80
 116 005b C0329311 		.ascii	"\3002\223\021\306\344\316dd\234\3150\253\261\241A \223"
 116      C6E4CE64 
 116      649CCD30 
 116      ABB1A141 
 116      2093
 117 006d 91A99AE1 		.ascii	"\221\251\232\341WC\007\210\305\234\0136#\202\021\310"
 117      57430788 
 117      C59C0B36 
 117      238211C8 
 118 007d 04DB9904 		.ascii	"\004\333\231\004\261\032HC\030\020\225\015[\201\012"
 118      B11A4843 
 118      1810950D 
 118      5B810A
 119 008c 58A046ED 		.ascii	"X\240F\355\006\262\031\201\372`J\301\000l\377\342\036"
 119      06B21981 
 119      FA604AC1 
 119      006CFFE2 
 119      1E
 120 009d 5DEAD9CF 		.ascii	"]\352\331\317D\252\375;v<\372\200\341\177V\262\355\207"
 120      44AAFD3B 
 120      763CFA80 
 120      E17F56B2 
 120      ED87
 121 00af F041326C 		.ascii	"\360A2l\377\3773\303\254x|\202\231zV\260 \254\0001."
 121      FFFF33C3 
 121      AC787C82 
 121      997A56B0 
 121      20AC0031 
 122 00c4 32343EE8 		.ascii	"24>\350W\206\030\017\003!\240x\000\005\205\262~F~n\252"
 122      5786180F 
 122      0321A078 
 122      000585B2 
 122      7E467E6E 
 123 00d9 7E6A5AAA 		.ascii	"~jZ\252\276sFfR\246\177\260~~\261~Q\211~qQ\262~rFY\211"
 123      BE734666 
 123      52A67FB0 
 123      7E7EB17E 
 123      51897E71 
 124 00f4 5E320300 		.ascii	"^2\003\000\273\216\207\302"
 124      BB8E87C2 
ARM GAS  /tmp/cczbjoPn.s 			page 9


 125              		.text
 126              		.section	.gnu.lto_chVTDoSetI.343822de5b6c438b,"",%progbits
 127 0000 789CAD57 		.ascii	"x\234\255WmhSW\030>\357\271\367\346\346;\351\207\332"
 127      6D685357 
 127      183EEFB9 
 127      F7E6E63B 
 127      E987DA
 128 0013 2F873818 		.ascii	"/\2078\030\333\034\006)\373\321_\376\330\257\375\232"
 128      DB1C0629 
 128      FBD15FFE 
 128      D8AFFD9A 
 129 0023 638AEEDF 		.ascii	"c\212\356\337j\354\322\200\261C\313\306\220\341\215"
 129      6AECD280 
 129      B143CBC6 
 129      90E18D
 130 0032 2DE83AB7 		.ascii	"-\350:\267v\363\203:\035\324\301T&X\265\214\245\340"
 130      76F3833A 
 130      1DD4C154 
 130      2658B58C 
 130      A5E0
 131 0044 20C2C034 		.ascii	" \302\3004ate\310Z\031\254\233\323U\030c\305\241\265"
 131      617465C8 
 131      5A19AC9B 
 131      D3551863 
 131      C5A1B5
 132 0057 9DCDDEF3 		.ascii	"\235\315\336\363u\363i\233F\017\364=\311\271\357\363"
 132      75F3699B 
 132      460FF43D 
 132      C9B9EFF3 
 133 0067 BC9FE7CD 		.ascii	"\274\237\347\315-%\224\024\257\367\361\357\255\000!"
 133      2D259414 
 133      AFF7F1EF 
 133      AD0021
 134 0076 9BD8173F 		.ascii	"\233\330\027?\001\324\000\012\032J\215\352\204X\324"
 134      01D4000A 
 134      1A4A8DEA 
 134      8458D4
 135 0085 40A1EB80 		.ascii	"@\241\353\200\033\030\324\301NLv\342\000\037\236\230"
 135      1B18D4C1 
 135      4E4C76E2 
 135      001F9E98 
 136 0095 D4C94E5C 		.ascii	"\324\311N\\\354\304\011\270\201\013<(\335\\z\250\233"
 136      ECC409B8 
 136      810B3C28 
 136      DD5C7AA8 
 136      9B
 137 00a6 3DF5B2A7 		.ascii	"=\365\262\247^\256\357\003@3@\016PM7\034\246\323\345"
 137      5EAEEF03 
 137      4033400E 
 137      504D371C 
 137      A6D3E5
 138 00b9 F6787D70 		.ascii	"\366x}p\340MvJ\352\327\2233\226\365\331\364W\013s\364"
 138      E04D764A 
 138      EAD79333 
 138      96F5D9F4 
 138      570B73F4 
 139 00cd E4B164EF 		.ascii	"\344\261d\357\220\365_6\013\020e\017\303@v\340'X\307"
ARM GAS  /tmp/cczbjoPn.s 			page 10


 139      90F55F36 
 139      0B10650F 
 139      C34076E0 
 139      2758C7
 140 00e0 37E659FE 		.ascii	"7\346Y\376\022\300\344\321\364\271\206\276\241\370\200"
 140      12C0E4D1 
 140      F4B986BE 
 140      A1F880
 141 00ef B588B828 		.ascii	"\265\210\270(\013B\301\202\002F\313\301\254\205\351"
 141      0B42C182 
 141      0246CBC1 
 141      AC85E9
 142 00fe 2DE7ADDE 		.ascii	"-\347\255\336d6\273\271bL\362r\372\343jL\235\374m\345"
 142      6436BBB9 
 142      624CF272 
 142      FAE36A4C 
 142      9DFC6DE5 
 143 0112 A646FABE 		.ascii	"\246F\372\276h\354\033:\250LU\230\014\353x\025\246F"
 143      68EC1B3A 
 143      A84C5598 
 143      0CEB7815 
 143      A646
 144 0124 D367AB89 		.ascii	"\323g\253\211\352A\025\011\234M\367Wa*\371kUyO>J\237"
 144      EA411509 
 144      9C4DF757 
 144      612AF96B 
 144      55794F3E 
 145 013a A826878F 		.ascii	"\250&\207\217\376\330\222R\201U\210If\3732g\000\261"
 145      FED89252 
 145      81558849 
 145      66FB3267 
 145      00B1
 146 014c F17FB2D9 		.ascii	"\361\177\262\331@\345\260S\231j\362a]:o\031\374\236"
 146      40E5B053 
 146      996AF261 
 146      5D3A6F19 
 146      FC9E
 147 015e 689527E3 		.ascii	"h\225'\343\350\241\023\215V^2(y\016*s\362\370\365O\032"
 147      E8A1138D 
 147      565E3228 
 147      790E2A73 
 147      F2F8F54F 
 148 0173 AC9C933A 		.ascii	"\254\234\223:%\317\30326c`7\327\365\376\"\360\306\345"
 148      25CFC332 
 148      36636037 
 148      D7F5FE22 
 148      F0C6E5
 149 0186 C0C33439 		.ascii	"\300\30349\235\315\036\031\375\367\367q\250}\006\220"
 149      9DCD1E19 
 149      FDF7F771 
 149      A87D0690 
 150 0196 0CE7533B 		.ascii	"\014\347S;\\\206\365D\303}\004w\035b@\015\024\232\003"
 150      5C86F544 
 150      C37D0477 
 150      1D62400D 
 150      149A03
 151 01a9 856EE2F1 		.ascii	"\205n\342\3617x\354\304/8\217P\270\011\206\350A\241"
ARM GAS  /tmp/cczbjoPn.s 			page 11


 151      3778ECC4 
 151      2F388F50 
 151      B80986E8 
 151      41A1
 152 01bb 7999F031 		.ascii	"y\231\3601\341g\" \031\202L\241\206\235\3242Q\307D\275"
 152      E1672220 
 152      19824CA1 
 152      869DD432 
 152      51C744BD 
 153 01cf B4B28A7D 		.ascii	"\264\262\212}Y\315\304\032\251\335 \23742T\023\023\315"
 153      59CDC41A 
 153      A9DD209F 
 153      34325413 
 153      13CD
 154 01e1 4CB4309D 		.ascii	"L\2640\235\265\204\027\201\030\244\327\262\006\326\011"
 154      B5841781 
 154      18A4D7B2 
 154      06D609
 155 01f0 45018BC9 		.ascii	"E\001\213\311F\300\265UJ\214U\333\306\364\265\037\310"
 155      46C0B555 
 155      4A8C55DB 
 155      C6F4B51F 
 155      C8
 156 0201 C1CCDCBD 		.ascii	"\301\314\334\2759h\207oq\316n _[\270|Q0N\221\3171+\216"
 156      3968876F 
 156      71CE6E20 
 156      5F5BB87C 
 156      51304E91 
 157 0219 08E83B44 		.ascii	"\010\350;D\327\342\332)\367\010\033\311\0149x?I\213"
 157      D7E2DA29 
 157      F7081BC9 
 157      0C39783F 
 157      498B
 158 022b 91667924 		.ascii	"\221fy$H$\216\361q\3223\375\313-\323v\225%\215\020\301"
 158      48248EF1 
 158      71D233FD 
 158      CB2DD376 
 158      95258D10 
 159 0240 C375CCFD 		.ascii	"\303u\314\375d\336:l\005\243\340\014K`\224M\370\024"
 159      64DE3A6C 
 159      05A3E00C 
 159      4B60944D 
 159      F814
 160 0252 E9BD736D 		.ascii	"\351\275sm\342\220\267\035\256\242j\004\234\314\200"
 160      E290B71D 
 160      AEA26A04 
 160      9CCC80
 161 0261 9EDF2FDB 		.ascii	"\236\337/\333@\027A%\022\3633\240\364\\LO3l\035C\350"
 161      40174125 
 161      12F333A0 
 161      F45C4C4F 
 161      336C1D43 
 162 0276 DC4C2CA4 		.ascii	"\334L,\244L\245\343\336@^Doe\0347\020\340\306@\342\026"
 162      4CA5E3DE 
 162      405E446F 
 162      651C3710 
 162      E0C640E2 
ARM GAS  /tmp/cczbjoPn.s 			page 12


 163 028b F3C263FB 		.ascii	"\363\302c\373\343\215q\037\031\237W\006F\345\256I\372"
 163      E38D711F 
 163      199F5706 
 163      46E5AE49 
 163      FA
 164 029c 14F9FECF 		.ascii	"\024\371\376\317\370&\233V@\255\326(\370$w\033R#\215"
 164      F8269B56 
 164      40ADD628 
 164      F824771B 
 164      52238D
 165 02af 42E6AD29 		.ascii	"B\346\255)\002\030\224\206\302\245\237\376\256\233\271"
 165      02189486 
 165      C2A59FFE 
 165      AE9BB9
 166 02be EA10AE8E 		.ascii	"\352\020\256\216%\026g4\301)Y^\307\310\345\307\326\025"
 166      25166734 
 166      C129595E 
 166      C7C8E5C7 
 166      D615
 167 02d0 FBAACB62 		.ascii	"\373\252\313b\230\242\214\223\213\251\022rR5\271&\311"
 167      98A28C93 
 167      8BA91272 
 167      5235B926 
 167      C9
 168 02e1 75413EF7 		.ascii	"uA>\367T\311\215\002\362\371\236{\375/\025\220\277\214"
 168      54C98D02 
 168      F2F99E7B 
 168      FD2F1590 
 168      BF8C
 169 02f3 E4E51BD0 		.ascii	"\344\345\033\320\301wY\216\021\310\325c\024\312\024"
 169      C177598E 
 169      11C8D563 
 169      14CA14
 170 0302 84933FA8 		.ascii	"\204\223?\250\230\334\\)yf2;C\213\311\365\362\344N\031"
 170      98DC5C29 
 170      7966323B 
 170      438BC9F5 
 170      F2E44E19 
 171 0316 3370E4CD 		.ascii	"3p\344\315\304\227\017u\325^\036\336\265\252\021>]y"
 171      C4970F75 
 171      D55E1EDE 
 171      B5AA113E 
 171      5D79
 172 0328 D7EAB64B 		.ascii	"\327\352\266K=\207{\356\3337\306\213\324\334\3408\221"
 172      3D877BEE 
 172      DB37C68B 
 172      D4DCE038 
 172      91
 173 0339 B6547448 		.ascii	"\266TtH\347\017K8\352E!\240n\225\311[\025in\035kV<>"
 173      E70F4B38 
 173      EA4521A0 
 173      6E95C95B 
 173      15696E1D 
 174 0351 EC31DBF1 		.ascii	"\3541\333\361\201:u\354/p{\377\223x\375a\317\036\305"
 174      813A75EC 
 174      2F707BFF 
 174      9378FD61 
ARM GAS  /tmp/cczbjoPn.s 			page 13


 174      CF1EC5
 175 0364 1AE0F6FC 		.ascii	"\032\340\366\3742Kg'4\365 Xp\267\267W}\265\031\357\217"
 175      324B6727 
 175      34F52058 
 175      70B7B757 
 175      7DB519EF 
 176 0379 B58AB546 		.ascii	"\265\212\265F\004a\327,XZ3>\015\356\344\246AMD\245K"
 176      0461D72C 
 176      585A333E 
 176      0DEEE4A6 
 176      414D44A5 
 177 038e A4CC2907 		.ascii	"\244\314)\007\321\340\271\273vIk\013r\363\301\223U\364"
 177      D1E0B9BB 
 177      76496B0B 
 177      72F3C193 
 177      55F4
 178 03a0 6FBBA275 		.ascii	"o\273\242u\310\314\255?\246\242\352\326\326\345U\324"
 178      C8CCAD3F 
 178      A6A2EAD6 
 178      D6E555D4 
 179 03b0 25DD9BBC 		.ascii	"%\335\233\274\360\202\230\316\021\250\177z\023BYq\253"
 179      F08298CE 
 179      11A87F7A 
 179      13425971 
 179      AB
 180 03c1 245C7C08 		.ascii	"$\\|\010\312\314\352\242\334\322r\271U\325\027\2205"
 180      CACCEAA2 
 180      DCD272B9 
 180      55D51790 
 180      35
 181 03d2 11D01028 		.ascii	"\021\320\020(\253\177\261M\2357\224\273\274\264t2(w"
 181      AB7FB14D 
 181      9D3794BB 
 181      BCB47432 
 181      2877
 182 03e4 3CD29DB9 		.ascii	"<\322\235\271\013S\266;\253*q\007K};\336jC\"\2710\247"
 182      0B53B63B 
 182      AB2A7107 
 182      4B7D3BDE 
 182      6A4322B9 
 183 03fa 08C5CCB9 		.ascii	"\010\305\314\271\376\272Q\217\356\270O\377\3342E\320"
 183      FEBA518F 
 183      EEB84FFF 
 183      DC3245D0 
 184 040a D580EBC8 		.ascii	"\325\200\353\310O\273\321ow\357vf\327\253&\375\360\265"
 184      4FBBD16F 
 184      77EF7666 
 184      D7AB26FD 
 184      F0B5
 185 041c 92DFD425 		.ascii	"\222\337\324%GZ\204\345\225\227i\370.U\346\033E\313"
 185      475A84E5 
 185      959769F8 
 185      2E55E61B 
 185      45CB
 186 042e 2F8593FD 		.ascii	"/\205\223\375\034P\220\246\"Hc\351\200\343\220\261\001"
 186      1C5090A6 
 186      224863E9 
ARM GAS  /tmp/cczbjoPn.s 			page 14


 186      80E390B1 
 186      01
 187 043f 7785FE99 		.ascii	"w\205\376\231\322\277&ajf\330Nh\363R\356\345\331\312"
 187      D2BF2661 
 187      6A66D84E 
 187      68F352EE 
 187      E5D9CA
 188 0452 5CF217D8 		.ascii	"\\\362\027\330\332\234\017j.\227\013\371\2533xe\266"
 188      DA9C0F6A 
 188      2E970BF9 
 188      AB337865 
 188      B6
 189 0463 F09DC6F5 		.ascii	"\360\235\306\365\330\362\233\005\310\261\304\225\261"
 189      D8F29B05 
 189      C8B1C495 
 189      B1
 190 0470 92FC2F33 		.ascii	"\222\374/3\2305\331t#\271\006n\021\340`EM\254)\324Z"
 190      9835D974 
 190      23B9066E 
 190      11E06045 
 190      4DAC29D4 
 191 0485 042ABA57 		.ascii	"\004*\272W\363\235X\216\007\241\034\224\230\034\231"
 191      F39D588E 
 191      07A11C94 
 191      981C99
 192 0494 2DF4BE2D 		.ascii	"-\364\276-7K<+\276\250.\276\363\267'|\315\267\257\010"
 192      374B3C2B 
 192      BEA82EBE 
 192      F3B7277C 
 192      CDB7AF08 
 193 04a8 FE3BAD65 		.ascii	"\376;\255eH\034M\357by\237 \361\351\217n\203\232*bm"
 193      481C4DEF 
 193      62799F20 
 193      F1E98F6E 
 193      839A2A62 
 194 04bd 65539FF1 		.ascii	"eS\237\361<\033\352\354\212u\204:\336\356\010\275\322"
 194      3C1BEAEC 
 194      8A75843A 
 194      DEEE08BD 
 194      D2
 195 04ce 19DD197D 		.ascii	"\031\335\031}\355\215P\327\276\320\336\356\320\276\275"
 195      ED8D50D7 
 195      BED0DEEE 
 195      D0BEBD
 196 04dd E150B8F3 		.ascii	"\341P\270\363\335\356\215a\002\357\030\273:vw\267k{"
 196      DDEE8D61 
 196      02EF18BB 
 196      3A7677B7 
 196      6B7B
 197 04ef BADEFB1F 		.ascii	"\272\336\373\037[\344c\250"
 197      5BE463A8 
 198              		.text
 199              		.section	.gnu.lto_chVTDoResetI.343822de5b6c438b,"",%progbits
 200 0000 789CBD56 		.ascii	"x\234\275VKh\\U\030>\347>\346\375L\232\346\325\264\223"
 200      4B685C55 
 200      183EE73E 
 200      E6FD4C9A 
ARM GAS  /tmp/cczbjoPn.s 			page 15


 200      E6D5B493 
 201 0014 082E2C38 		.ascii	"\010.,8\024uQ\\\270p\345\312B\023huc:I\223\201\216\201"
 201      1475515C 
 201      B870E5CA 
 201      42136875 
 201      633A4993 
 202 002b 34EAC245 		.ascii	"4\352\302Eo:A\323\2423Q\304\266\306G\004\205 \202A\027"
 202      6F3A41D3 
 202      A23351C4 
 202      B6C64704 
 202      85208241 
 203 0040 A648CB44 		.ascii	"\246H\313D\004[\304\324\241\213\232\332\322D4\201*\265"
 203      045BC4D4 
 203      A18B9ADA 
 203      D2443481 
 203      2AB5
 204 0052 EAC6A436 		.ascii	"\352\306\2446\327\377?\367\236s\347f\246\311\315I\361"
 204      D7FF3FF7 
 204      9E73E766 
 204      A6C9CD49 
 204      F1
 205 0063 40FE7BF2 		.ascii	"@\376{\362\317\371\376\347\367\237{\025\242\220\265"
 205      CFF9FEE7 
 205      F79F7B15 
 205      A290B5
 206 0072 EB15F85B 		.ascii	"\353\025\370[J\022\362(\376\023'\024NP\205\252 UE#\304"
 206      4A12F228 
 206      FE132714 
 206      4E5085AA 
 206      20554523 
 207 0087 50FC2034 		.ascii	"P\374 4M\321q\357\303\275N\341A}4\006\322\257\004P\037"
 207      4DD171EF 
 207      C3BD4EE1 
 207      417D3406 
 207      D2AF0450 
 208 009c 447D8069 		.ascii	"D}\200i\202J\0105a\324\204\230&\254DP\023EM\204\302"
 208      824A0835 
 208      61D48498 
 208      26AC4450 
 208      13454D84 
 209 00b1 8346993E 		.ascii	"\203F\231>F)\270\244\344\230\242j\272\317\037\010\206"
 209      4629B8A4 
 209      E498A26A 
 209      BACF1F08 
 209      86
 210 00c2 C291688C 		.ascii	"\302\221h\214\036;\210j\222\352 \037\032\306\233\363"
 210      1E3B886A 
 210      92EA201F 
 210      1AC69BF3 
 211 00d2 1F7F75A6 		.ascii	"\037\177u\246\371\344\304\3611c\3254i\026\177\312Pr"
 211      F9E4C4F1 
 211      3163D534 
 211      69167FCA 
 211      5072
 212 00e4 007634C5 		.ascii	"\000v4\305\036\030d\345\262`\245/\012oU\302T\217\260"
 212      1E1864E5 
 212      B260A52F 
ARM GAS  /tmp/cczbjoPn.s 			page 16


 212      0A6F55C2 
 212      548FB0
 213 00f7 2F0BAF49 		.ascii	"/\013\257I\300\2147~\335w\301\030)\231\346\023\336]"
 213      C08C377E 
 213      DD77C118 
 213      2999E613 
 213      DE5D
 214 0109 9DFDFF5C 		.ascii	"\235\375\377\\\225gO\311\024\343r\341u\231\010?\237"
 214      95674FC9 
 214      14E372E1 
 214      7599083F 
 214      9F
 215 011a 348213C6 		.ascii	"4\202\023\306\277\246\251z\307\334\235\3377\311\263"
 215      BFA6A97A 
 215      C7DC9DDF 
 215      37C9B3
 216 0129 D21C4CC2 		.ascii	"\322\034L\302\302(51g\0266\217\221\360S\272QxO\246z"
 216      C2283531 
 216      6716368F 
 216      91F053BA 
 216      51784FA6 
 217 013e 7F160A32 		.ascii	"\177\026\0122\260\345\331\267e`\247\2122\336\244zeJ"
 217      B0E5D9B7 
 217      6560A78A 
 217      32DEA47A 
 217      654A
 218 0150 F46A5CA2 		.ascii	"\364j\\\242W\022~Jg\213\0375\235\234\030\346e\360\352"
 218      57127E4A 
 218      678B1F35 
 218      9D9C18E6 
 218      65F0EA
 219 0163 EADCE6C3 		.ascii	"\352\334\346\303+\225\213\357\313T\\\202\265\245\237"
 219      2B958BEF 
 219      CB545C82 
 219      B5A59F
 220 0172 8A329C30 		.ascii	"\2122\2340\226%\012x\347\222T\001oHpbj\322\3209\367"
 220      96250A78 
 220      E7925401 
 220      6F487062 
 220      6AD2D039 
 221 0187 36C4E428 		.ascii	"6\304\344(\217p|\266\320d8\021\352\012y\220z\014\362"
 221      8F707CB6 
 221      D0643811 
 221      EA0A7990 
 221      7A0CF2
 222 019a 391123A0 		.ascii	"9\021#\240\322\033\241>SJ\363\246\371\356\365_~6i}\007"
 222      D21BA13E 
 222      534AF3A6 
 222      F9EEF55F 
 222      7E36697D 
 223 01af 25DDB444 		.ascii	"%\335\264D;\340\015\012\015Pi\216B\314\260\323Q\370"
 223      3BE00D0A 
 223      0D50698E 
 223      42CCB0D3 
 223      51F8
 224 01c1 50F85104 		.ascii	"P\370Q\004P\004Q\204P\204Ah\021\024Q\0241\324\305Q$"
 224      50045184 
ARM GAS  /tmp/cczbjoPn.s 			page 17


 224      50844168 
 224      11145114 
 224      31D4C551 
 225 01d6 502451D4 		.ascii	"P$Q\324\241\250\307_\267\241h@\261\035E#\212&\360z\036"
 225      A1A8C75F 
 225      B7A16840 
 225      B11D4523 
 225      8A26F07A 
 226 01eb BC36E3A9 		.ascii	"\2746\343\251\026\324\264\342n\007\356\332\354\210v"
 226      16D4B4E2 
 226      6E07EEDA 
 226      EC8876
 227 01fa DACF5DA8 		.ascii	"\332\317]\250L\241h'\254\242D'#\2061\226\312Q\333\212"
 227      4CA16827 
 227      ACA24427 
 227      23863196 
 227      CA51DB8A 
 228 020e 758E951A 		.ascii	"u\216\225\032V\247-!m\265\013I\245~O\216_\235^\234Q"
 228      56A72D21 
 228      6DB50B49 
 228      A57E4F8E 
 228      5F9D5E9C 
 229 0223 BAE9D754 		.ascii	"\272\351\327T'}T\331M\036\002o\273\311'\006\254G\262"
 229      277D54D9 
 229      4D1E026F 
 229      BBC92706 
 229      AC47B2
 230 0236 D4374EDE 		.ascii	"\3247N\336\0316\214D\226\372_&+\306(\356\0029\264\300"
 230      19368C44 
 230      96FA5F26 
 230      2BC628EE 
 230      0239B4C0 
 231 024a 2A186075 		.ascii	"*\030`u;D\211\375\2647\344\002\031\371}8*\254\366\241"
 231      3B4489FD 
 231      B437E402 
 231      19F97D38 
 231      2AACF6A1 
 232 025e 33BEBA30 		.ascii	"3\276\2720R\346\371\237\305\031\312\317h\226gp\007f"
 232      52E6F99F 
 232      C519CACF 
 232      68966770 
 232      0766
 233 0270 83003860 		.ascii	"\203\0008`\361\236\231\345}B\320X\035\207\350\353AT"
 233      F19E99E5 
 233      7D42D058 
 233      1D87E8EB 
 233      4154
 234 0282 0772F176 		.ascii	"\007r\361v\314\202\330i\355\257\004i\325 \260l\271:"
 234      CC82D869 
 234      EDAF0469 
 234      D520B06C 
 234      B93A
 235 0294 BDE4C4E7 		.ascii	"\275\344\304\347\363\350\254\">\277\307\224\326\215"
 235      F3E8AC22 
 235      3EBFC794 
 235      D68D
 236 02a2 CF570D02 		.ascii	"\317W\015\002\313\0147=\275TV\\\310=Y\032\252\355\316"
ARM GAS  /tmp/cczbjoPn.s 			page 18


 236      CB0C373D 
 236      BD54565C 
 236      C83D591A 
 236      AAEDCE
 237 02b5 BA2F5013 		.ascii	"\272/P\023\342\201\236\2769\347\343\241\006\274d\307"
 237      E2819EBE 
 237      39E7E3A1 
 237      06BC64C7 
 238 02c5 9ABA4740 		.ascii	"\232\272G@,> I\302\266\373\275\300\027\340\006\247\203"
 238      2C3E2049 
 238      C2B6FBBD 
 238      C017E006 
 238      A783
 239 02d7 6B756151 		.ascii	"kuaQ-\276\335,\213\252\006=V\365\031\016\010ym\303\017"
 239      2DBEDD2C 
 239      8BAA063D 
 239      56F5190E 
 239      08796DC3 
 240 02ec 710EB1A3 		.ascii	"q\016\261\243\003\342\352\002\026\252\204\351\225\335"
 240      03E2EA02 
 240      16AA84E9 
 240      95DD
 241 02fa ABE7B008 		.ascii	"\253\347\260\010\363\244\327\366\344@\362\243\371\025"
 241      F3A4D7F6 
 241      E440F2A3 
 241      F915
 242 0308 914E14BC 		.ascii	"\221N\024\274\001\222\231z\252\2623.\347\301jK}\370"
 242      0192997A 
 242      AAB2332E 
 242      E7C16A4B 
 242      7DF8
 243 031a 958CAB13 		.ascii	"\225\214\253\023?\265a8\375|D~+\253\334z\314+\337\247"
 243      3FB56138 
 243      FD7C447E 
 243      2BABDC7A 
 243      CC2BDFA7 
 244 032e C22E56EC 		.ascii	"\302.V\354u&:,9\321}\370\375\316HskAd\033w]\026\262"
 244      75263A2C 
 244      39D17DF8 
 244      FDCE4873 
 244      6B41641B 
 245 0346 A699DD15 		.ascii	"\246\231\335\025QD\333\332\301\312D\343\3253`\223\357"
 245      5144DBDA 
 245      C1CA44E3 
 245      D5336093 
 245      EF
 246 0357 0A75D877 		.ascii	"\012u\330w\235\326\240\037\033\223[3\3561\211njL\376"
 246      9DD6A01F 
 246      1B935B33 
 246      EE31896E 
 246      6A4CFE
 247 036a 58166392 		.ascii	"X\026c\222pe\\\246[\270\037\277Yr\356\307\204\235M\334"
 247      70655CA6 
 247      5BB81FBF 
 247      5972EEC7 
 247      849D4DDC 
 248 037e 49E6B175 		.ascii	"I\346\261uG\011\314\252\227H~\376\334\267\366\315\301"
ARM GAS  /tmp/cczbjoPn.s 			page 19


 248      4709CCAA 
 248      97487EFE 
 248      DCB7F6CD 
 248      C1
 249 038f 0B02DE23 		.ascii	"\013\002\336#\031\333K\226s\252\213\0069\233\376r\272"
 249      19DB4B96 
 249      73AA8B06 
 249      399BFE72 
 249      BA
 250 03a0 97BC7FDD 		.ascii	"\227\274\177\335\273:\346\347V\353\356\243\325\333b"
 250      BB3AE6E7 
 250      56EBEEA3 
 250      D5DB62
 251 03af 84EB6B4C 		.ascii	"\204\353kLQ\335\275FxJ\214\3606\317#\274*\312\322\000"
 251      51DDBD46 
 251      784A8CF0 
 251      36CF23BC 
 251      2ACAD200 
 252 03c3 DE00B9C1 		.ascii	"\336\000\271\301\010'k\215p\003!\330\224k\257\2127\300"
 252      08276B8D 
 252      700321D8 
 252      946BAF8A 
 252      37C0
 253 03d5 7691722C 		.ascii	"v\221r,c\0237K\343\366\005\325\310O5Za\3325\373`\363"
 253      6313374B 
 253      E3F605D5 
 253      C84F355A 
 253      61DA35FB 
 254 03eb ACF239A9 		.ascii	"\254\3629\251\234\310\017r\263M\340\037\214\333,^Y\020"
 254      9CC80F72 
 254      B34DE01F 
 254      8CDB2C5E 
 254      5910
 255 03fd F748B3AB 		.ascii	"\367H\263\253G\317n\255\363\242\330-k\212\335\\\253"
 255      47CF6EAD 
 255      F3A2D82D 
 255      6B8ADD5C 
 255      AB
 256 040e D8F00A59 		.ascii	"\330\360\012Ytx\337\002A:\264\356\304\231\203\253/\314"
 256      7478DF02 
 256      413AB4EE 
 256      C49983AB 
 256      2FCC
 257 0420 DF137716 		.ascii	"\337\023w\026\304wI\253+\344\307\267\026\262\240\325"
 257      C47749AB 
 257      2BE4C7B7 
 257      16B2A0D5 
 258 0430 8E3521B7 		.ascii	"\2165!\267\336\203\037'\362\2079\244\015P,j\314d\346"
 258      DE831F27 
 258      F28739A4 
 258      0D502C6A 
 258      CC64E6
 259 0443 EFA2286A 		.ascii	"\357\242(j\033b\365\312\317\362.|\021`&\323?\256\316"
 259      1B62F5CA 
 259      CFF22E7C 
 259      116026D3 
 259      3FAECE
ARM GAS  /tmp/cczbjoPn.s 			page 20


 260 0456 097EEDC4 		.ascii	"\011~\355\304s\232.\316Dy\266\346E\215\237\331\345\""
 260      739A2ECE 
 260      4479B6E6 
 260      458D9FD9 
 260      E522
 261 0468 C40B5BE1 		.ascii	"\304\013[\341\303h\376\274p\235\002\313,v\324\213\300"
 261      C368FEBC 
 261      709D02CB 
 261      2C76D48B 
 261      C0
 262 0479 DBD90F14 		.ascii	"\333\331\017\024\271\253U]&\211\214\370&j\317\322$\356"
 262      B9AB555D 
 262      26898CF8 
 262      266ACFD2 
 262      24EE
 263 048b E608856C 		.ascii	"\346\010\205l\303\327\356\366@2\221O\315#\230\005\274"
 263      C3D7EEF6 
 263      4032914F 
 263      CD239805 
 263      BC
 264 049c 1DD4EFC8 		.ascii	"\035\324\357\3100\004\322\203\2002\333:\215\005\353"
 264      3004D283 
 264      8032DB3A 
 264      8D05EB
 265 04ab 18EB03E9 		.ascii	"\030\353\003\351\376\201\\o\272\367po\372\311\376\354"
 265      FE815C6F 
 265      BAF7706F 
 265      FAC9FEEC 
 266 04bb A1ECD3FB 		.ascii	"\241\354\323\373\323\003G\323\203C\351\243\203\231t"
 266      D30347D3 
 266      8343E9A3 
 266      839974
 267 04ca A6FFC5A1 		.ascii	"\246\377\305\241\2073$\360\374\300K=\275G\206\272u&"
 267      873324F0 
 267      FCC04B3D 
 267      BD4786BA 
 267      7526
 268 04dc FF03F07B 		.ascii	"\377\003\360{\332\365"
 268      DAF5
 269              		.text
 270              		.section	.gnu.lto_.symbol_nodes.343822de5b6c438b,"",%progbits
 271 0000 789C4DCE 		.ascii	"x\234M\3169\022\202@\020\205\341\327=\203\262\350\031"
 271      39128240 
 271      1085E1D7 
 271      3D83B2E8 
 271      19
 272 0011 B88191CB 		.ascii	"\270\201\221\313y<\311\2430\220HM,s\217\342\001\010"
 272      793CC9A3 
 272      3090484D 
 272      2C738FE2 
 272      0108
 273 0023 8D2D6272 		.ascii	"\215-br\227r\003\207\222\351\344\257\257\223n\205b,"
 273      97720387 
 273      92E9E4AF 
 273      AF936E85 
 273      622C
 274 0035 70A31302 		.ascii	"p\243\023\002\273\022 \367\305R\027\024O%\250\036\247"
ARM GAS  /tmp/cczbjoPn.s 			page 21


 274      BB1220F7 
 274      C5521714 
 274      4F25A81E 
 274      A7
 275 0046 349EE6B4 		.ascii	"4\236\346\264\236f\014<]\301A\307s!\301\2439D\350\015"
 275      9E660C3C 
 275      5DC141C7 
 275      7321C1A3 
 275      3944E80D 
 276 005a 1CF65BBD 		.ascii	"\034\366[\275\203aOy\202\221c\226\211\274\300\270\327"
 276      83614F79 
 276      82916396 
 276      89BCC0B8 
 276      D7
 277 006b 074CFE32 		.ascii	"\007L\3762\315\357\371\345-F\305\325\304X\265\265\211"
 277      CDEFF9E5 
 277      2D46C5D5 
 277      C458B5B5 
 277      89
 278 007c 6B30720D 		.ascii	"k0r\015\025\247_\015\252u\235\232\320\"\3374\215\202"
 278      15A75F0D 
 278      AA759D9A 
 278      D022DF34 
 278      8D82
 279 008e AE8A6ADB 		.ascii	"\256\212j\333\326\342x\250S|\001{2U\001"
 279      D6E278A8 
 279      537C017B 
 279      325501
 280              		.text
 281              		.section	.gnu.lto_.refs.343822de5b6c438b,"",%progbits
 282 0000 789C6362 		.ascii	"x\234cb`bpg\200\00066Fv&v\010fd\347\345`\200\262@\""
 282      60627067 
 282      80003636 
 282      46762676 
 282      086664E7 
 283 001a 4CEC0C70 		.ascii	"L\354\014p\010\224\343\204\3101\200\305\221\345\200"
 283      0894E384 
 283      C83180C5 
 283      91E580
 284 0029 10004485 		.ascii	"\020\000D\205\001|"
 284      017C
 285              		.text
 286              		.section	.gnu.lto_.decls.343822de5b6c438b,"",%progbits
 287 0000 789CBD5B 		.ascii	"x\234\275[yt\024\307\231\357\352\3211#\015\207\261a"
 287      797414C7 
 287      99EFEAD1 
 287      31230D87 
 287      B161
 288 0012 D97DF6B3 		.ascii	"\331}\366\263\222M\262$\353X\006;\004g7>V\370\031\336"
 288      924DB224 
 288      EB58063B 
 288      0467373E 
 288      56F819DE 
 289 0026 1AC74F90 		.ascii	"\032\307O\220}\274\267ow\334\214\306h\262#iv\324\342"
 289      7DBCB76F 
 289      77DC8CC6 
 289      68B22369 
ARM GAS  /tmp/cczbjoPn.s 			page 22


 289      76D4E2
 290 0039 F82B2DC4 		.ascii	"\370+-\304m\016\201\2609\015\002\207\303\2161\240\265"
 290      6D0E81B0 
 290      390D0287 
 290      C38E31A0 
 290      B5
 291 004a 3012871B 		.ascii	"0\022\207\033\002FH1\0100\2478d\014^|a \026\306`[\373"
 291      02464831 
 291      0830A738 
 291      640C5E7C 
 291      612016C6 
 292 0061 D557DD33 		.ascii	"\325W\3353U\255\356Q\267\210\267\337\253\232>\352\373"
 292      55ADEE51 
 292      B788B7DF 
 292      AB9A3EEA 
 292      FB
 293 0072 D577D5F7 		.ascii	"\325w\325\367UU\367\310\222,\025\373$\251\023\216\340"
 293      5555F7C8 
 293      922C15FB 
 293      24A9138E 
 293      E0
 294 0083 AF256972 		.ascii	"\257%ir\266$\345H\222\364\230\224:\202PVC\331\004\245"
 294      B624E548 
 294      92F49894 
 294      3A825056 
 294      43D904A5 
 295 0097 0E4A3D94 		.ascii	"\016J=\224\035Pt({\241\354\207r\005\312\227Pn@\271\011"
 295      1D507428 
 295      7BA1EC87 
 295      7205CA97 
 295      506E40B9 
 296 00ac 8540B925 		.ascii	"\205@\271%\211\007\305\000x\351U(\275\015\334S\204\335"
 296      8907C500 
 296      78E95528 
 296      BD0DDC53 
 296      84DD
 297 00be 6B87DFD3 		.ascii	"k\207\337\323\204\321]7~W\0338\275e\021\207\362\221"
 297      84D15D37 
 297      7E571B38 
 297      BD651187 
 297      F291
 298 00d0 69C1E903 		.ascii	"i\301\351\003m\326\030\317e\243\215I\337\327B_\347\202"
 298      6DD618CF 
 298      65A38D49 
 298      DFD7425F 
 298      E782
 299 00e2 BECEC0A0 		.ascii	"\276\316\300\240\364wY\350\353\2156\375\240\332\312"
 299      F47759E8 
 299      EB8D36FD 
 299      A0DACA
 300 00f1 D1D41B3A 		.ascii	"\321\324\033:\2404\015\026\331w8\320\3540tFivYht\243"
 300      A0340D16 
 300      D97738D0 
 300      EC307446 
 300      69765968 
 301 0107 CDDD50ED 		.ascii	"\315\335P\355\346h\350\375\233R\327\203\332\202\352"
 301      E668E8FD 
ARM GAS  /tmp/cczbjoPn.s 			page 23


 301      9B52D783 
 301      DA82EA
 302 0116 B299F20F 		.ascii	"\262\231\362\017\200\267\341\367\036 \350/3Y}\206\334"
 302      80B7E1F7 
 302      1E20E82F 
 302      33597D86 
 302      DC
 303 0127 5BE0D936 		.ascii	"[\340\3316(\015P\032\241l7\364\275W\262\267\033\265"
 303      280D501A 
 303      A16C37F4 
 303      BD57B2B7 
 303      1BB5
 304 0139 6F5F03D7 		.ascii	"o_\003\327\324\027\305\242\230\217Ci\201rRJ\351\320"
 304      D417C5A2 
 304      988F4369 
 304      8172524A 
 304      E9D0
 305 014b DAB72933 		.ascii	"\332\267)3\365\253\363PNp<l7\3708\014\367\216B9&1\236"
 305      F5ABF350 
 305      4E703C6C 
 305      37F8380C 
 305      F78E4239 
 306 0162 328C7E79 		.ascii	"2\214~y\177\243\262\015\000\254\377\205\337KP>\205\362"
 306      7FA3B20D 
 306      00ACFF85 
 306      DF4B503E 
 306      85F2
 307 0174 B1C1EFBD 		.ascii	"\261\301\357\275\026\033Q\177\354\007\345,\307s3\307"
 307      161B517F 
 307      EC07E52C 
 307      C77333C7 
 308 0184 37CFA3C9 		.ascii	"7\317\243\311?\345\325\324\265)\213\311{6\3073\345\363"
 308      3FE5D5D4 
 308      B5298BC9 
 308      7B36C733 
 308      E5F3
 309 0196 B02107E5 		.ascii	"\260!\007\345w\273\301\357\025\3036u\006\277\364\336"
 309      77BBC1EF 
 309      15C33675 
 309      06BFF4DE 
 310 01a6 7D407FDD 		.ascii	"}@\177\335\340\361\207\026\036\357\227Vjzk\373\245u"
 310      E0F18716 
 310      1EEF9756 
 310      6A7A6BFB 
 310      A575
 311 01b8 077C4B35 		.ascii	"\007|K5}\252\006CP#y\003\244\22748j\247k\032Q\003\322"
 311      7DAA0643 
 311      50237903 
 311      A4973438 
 311      6AA76B1A 
 312 01cf 4C4D9BA2 		.ascii	"LM\233\242i\323\265A\033@\214\261D!\275\003`\014z\022"
 312      69D3B541 
 312      1B408CB1 
 312      4421BD03 
 312      600C7A12 
 313 01e3 0CA037FC 		.ascii	"\014\2407\374X\372\203\246U\267\177U\177T\3264\277B"
 313      58FA83A6 
ARM GAS  /tmp/cczbjoPn.s 			page 24


 313      55B77F55 
 313      7F54D634 
 313      BF42
 314 01f5 5E25F47E 		.ascii	"^%\364~\224H?\223^\003\234jM\273\360+b\343-\356\241"
 314      94483F93 
 314      5E039C6A 
 314      4DBBF02B 
 314      62E32DEE 
 315 020a 3B66BCFD 		.ascii	";f\274\375\000B\257G\350%\204H\012YG~\346\031\250\246"
 315      0042AF47 
 315      E8258448 
 315      0A59477E 
 315      E619A8A6 
 316 021e 65E3A308 		.ascii	"e\343\243\010\364:\002\035\262\000)\304\027\3409\304"
 316      F43A021D 
 316      B20029C4 
 316      17E039C4 
 317 022e 6BB30145 		.ascii	"k\263\001E\303\307\306Ig\247O\372\036\033\033R\344\231"
 317      C3C7C649 
 317      67A74FFA 
 317      1E1B1B52 
 317      E499
 318 0240 52641874 		.ascii	"Rd\030tk\310\000\343\354\267\006\244\014qK\224C\222"
 318      6BC800E3 
 318      ECB706A4 
 318      0C714B94 
 318      4392
 319 0252 7E22AD05 		.ascii	"~\"\255\005\225\264_\\\267{5\321r\230M(\315jr\277\255"
 319      95B45F5C 
 319      B77B35D1 
 319      72984D28 
 319      CD6A72BF 
 320 0267 7E0CC88D 		.ascii	"~\014\310\215D\360\020\303?\032\017}F8\377`<\310\322"
 320      44F010C3 
 320      3F1A0F7D 
 320      4638FF60 
 320      3CC8D2
 321 027a 1AD9BE57 		.ascii	"\032\331\276Wm\363\006-3\325\345\246\364]n\266\355\362"
 321      6DF3062D 
 321      33D5E5A6 
 321      F45D6EB6 
 321      EDF2
 322 028c 4CCD473E 		.ascii	"L\315G>\233.\317\271\353\262.}\227\377c\333\345\366"
 322      9B2ECFB9 
 322      EBB22E7D 
 322      97FF63DB 
 322      E5F6
 323 029e 43FB7793 		.ascii	"C\373w\223\205UZ\223v\265\263\263O\265_\030\006\012"
 323      85555A93 
 323      76B5B3B3 
 323      4FB55F18 
 323      060A
 324 02b0 79ACBFA3 		.ascii	"y\254\277\243I\266\032&\361\261N\030\037)\373\240\211"
 324      49B61A26 
 324      F1B14E18 
 324      1F29FBA0 
 324      89
ARM GAS  /tmp/cczbjoPn.s 			page 25


 325 02c1 AE5938FF 		.ascii	"\256Y8\377\221\364\252\246-\324\332\224A\346\200\231"
 325      91F4AAA6 
 325      2DD4DA94 
 325      41E68099 
 326 02d1 E9A32DEA 		.ascii	"\351\243-\352\035X7\205c\002k\332)\355\271\201\310\224"
 326      1D583785 
 326      63026BDA 
 326      29EDB981 
 326      C894
 327 02e3 641009CE 		.ascii	"d\020\011\316\265\315NB\375\326\273\301\352\312\366"
 327      B5CD4E42 
 327      FDD6BBC1 
 327      EACAF6
 328 02f2 CECE55B5 		.ascii	"\316\316U\265}\031\323\2624\327g\313\326\011\223-\205"
 328      7D19D3B2 
 328      34D767CB 
 328      D609932D 
 328      85
 329 0303 34029442 		.ascii	"4\002\224Bv\364\204\255\035V\266v\332\262u$\305\226"
 329      76F484AD 
 329      1D56B676 
 329      DAB27524 
 329      C596
 330 0315 7B9DEFB6 		.ascii	"{\235\357\266\031\006k|\266\336\001\307\006\315\227"
 330      19066B7C 
 330      B6DE01C7 
 330      06CD97
 331 0324 E44AB772 		.ascii	"\344J\267r\265\247+W\265z\373\265\266]Y)\0174z\224\245"
 331      B5A72B57 
 331      B57AFBB5 
 331      B65D5929 
 331      0F347A94 
 332 0339 33AEFAD8 		.ascii	"3\256\372\330k\355c_\327>\332[\365\357L\311\363\334"
 332      6BED635F 
 332      D73EDA5B 
 332      F5EF4CC9 
 332      F3DC
 333 034b 0BDE243A 		.ascii	"\013\336$:[\2564\233\372?\020\216h\352\335OZ@Q\362\232"
 333      5BAE349B 
 333      FA3F108E 
 333      68EADD4F 
 333      5A4051F2 
 334 0360 5251B096 		.ascii	"RQ\260\226\230\000\367H\251P\275v\336H\014\203-\244"
 334      9800F748 
 334      A950BD76 
 334      DE480C83 
 334      2DA4
 335 0372 1FC05CB2 		.ascii	"\037\300\\\262\310\324-\214,u \311A g\204\010\254\265"
 335      C8D42D8C 
 335      2C7520C9 
 335      41206784 
 335      08ACB5
 336 0385 BF72E1E4 		.ascii	"\277r\341\344\177,\321\264\276\354\221d\321\024w\374"
 336      7F2CD1B4 
 336      BEEC9164 
 336      D11477FC 
 337 0395 40AA05B6 		.ascii	"@\252\005\266\365\206\305\257\374\255V\273\007\220\233"
ARM GAS  /tmp/cczbjoPn.s 			page 26


 337      F586C5AF 
 337      FCAD56BB 
 337      07909B
 338 03a4 492EC06E 		.ascii	"I.\300n\3160a\355\3047N\331a4\020\361\032O\004\253\025"
 338      CE3061ED 
 338      C4374ED9 
 338      613410F1 
 338      1A4F04AB 
 339 03b9 136C9B67 		.ascii	"\023l\233g\260<\001l\347\211\025\003\265\332\335\304"
 339      B03C016C 
 339      E7891503 
 339      B5DADDC4 
 340 03c9 1CA0BA15 		.ascii	"\034\240\272\025O\030\011\306\251\337\231\271]\2249"
 340      4F1809C6 
 340      A9DF99B9 
 340      5D9439
 341 03d8 C15EEEAD 		.ascii	"\301^\356\255~\312\032b\036\317\025#\214\035\241i\355"
 341      7ECA1A62 
 341      1ECF1523 
 341      8C1DA169 
 341      ED
 342 03e9 6B7307A1 		.ascii	"ks\007\241\265O\242Z\016d\210\326\0268b=9qq\226\344"
 342      B54FA25A 
 342      0E6488D6 
 342      1638623D 
 342      39717196 
 343 03fe 3A98B4CB 		.ascii	":\230\264\3133Y:\342F\375~\221yN]\340KM\377\331X\247"
 343      33593AE2 
 343      46FD7E91 
 343      794E5DE0 
 343      4B4DFFD9 
 344 0414 69B3B250 		.ascii	"i\263\262PZ\310rn\000\373\332\350\337\356\340\235W!"
 344      5AC8726E 
 344      00FBDAE8 
 344      DFEEE09D 
 344      5721
 345 0426 ADE4C750 		.ascii	"\255\344\307P\037&?\200\372(\326\307\260>\201\365y\250"
 345      1F263F80 
 345      FA28D6C7 
 345      B03E81F5 
 345      79A8
 346 0438 D32A9AC2 		.ascii	"\323*\232\302Q\2373\016!\017\360\327'Y\033\336\210\222"
 346      519F330E 
 346      210FF0D7 
 346      27591BDE 
 346      8892
 347 044a 245932C5 		.ascii	"$Y2\305\007\031v!\031\342\321\371\325dQ\2256\302t\357"
 347      07197621 
 347      19E2D1F9 
 347      D5645195 
 347      36C274EF 
 348 045e CFB0DDFE 		.ascii	"\317\260\335\376T`\026X2\0302\342\371\321T\232\271j"
 348      54601658 
 348      321832E2 
 348      F9D1549A 
 348      B96A
 349 0470 25B38BE7 		.ascii	"%\263\213\347\214L_0\203\016O\331\364\234\033\335\364"
ARM GAS  /tmp/cczbjoPn.s 			page 27


 349      8C4C5F30 
 349      830E4FD9 
 349      F49C1BDD 
 349      F4
 350 0481 7892EB71 		.ascii	"x\222\353qKd\204a\266o\273\241bJ`QT\357\234^UK\264\254"
 350      4B648461 
 350      B66FBBA1 
 350      624A6051 
 350      54EF9C5E 
 351 0499 6420DD6F 		.ascii	"d \335o\015\244\027m\003\351\221\026\357\201\364\013"
 351      0DA4176D 
 351      03E99116 
 351      EF81F40B 
 352 04a9 EB906A26 		.ascii	"\353\220j&\271V[Tf\332\246\307\245\221\021f\363\217"
 352      B9565B54 
 352      66DAA6C7 
 352      A5911166 
 352      F38F
 353 04bb 303D5E49 		.ascii	"0=^Io\205d\222\230\253M\353K\222\302]\261\012w\315F"
 353      6F856492 
 353      98AB4DEB 
 353      4B92C25D 
 353      B10A77CD 
 354 04d0 B8EAF69D 		.ascii	"\270\352\366\235\237\334\374\273%u\332\324Y\332w\235"
 354      9FDCFCBB 
 354      2575DAD4 
 354      59DA779D 
 355 04e0 BF2766E6 		.ascii	"\277'f\346\256\317\264&\"\206\321a\207\241_\177w\216"
 355      AECFB426 
 355      2286D161 
 355      87A15F7F 
 355      778E
 356 04f2 465045F7 		.ascii	"FPE\367\233\000{\034\000\276\262\005\270\312\003\260"
 356      9B007B1C 
 356      00BEB205 
 356      B8CA03B0 
 357 0502 54F89E03 		.ascii	"T\370\236\003\300\327\"\300\017\245\325T\012\030\316"
 357      C0D722C0 
 357      0FA5D554 
 357      0A18CE
 358 0511 B3C8EEB5 		.ascii	"\263\310\356\265\232^\015\246\271J:;\263\31543\363C"
 358      9A5E0DA6 
 358      B94A3A3B 
 358      B3CD3433 
 358      F343
 359 0523 921C567A 		.ascii	"\222\034Vz?S}\033\370\245\305\352\371\277\302\010v\033"
 359      3F537D1B 
 359      F8A5C5EA 
 359      F9BFC208 
 359      761B
 360 0535 F3D5A94C 		.ascii	"\363\325\251L\373|\225\006\010\222\034\022}\3275c\265"
 360      FB7C9506 
 360      08921C12 
 360      7DD73563 
 360      B5
 361 0546 4E6219EB 		.ascii	"Nb\031\353;\027\031K\323_9\267\202\320\214e\223#\333"
 361      3B17194B 
ARM GAS  /tmp/cczbjoPn.s 			page 28


 361      D35F39B7 
 361      82D08C65 
 361      9323DB
 362 0559 9339F25E 		.ascii	"\2239\362^\216\365\235s\037C\326\247\310\224\365/\034"
 362      8EF59D73 
 362      1F43D6A7 
 362      C894F52F 
 362      1C
 363 056a 58778491 		.ascii	"Xw\204\221\245o\220d\232\334\205q\375w\214q\372\250"
 363      A56F9064 
 363      9ADC8571 
 363      FD778C71 
 363      FAA8
 364 057c 7BC68F9E 		.ascii	"{\306\217\236vd\374\011>\032'U>\227M\021f!\337\263\263"
 364      7664FC09 
 364      3E1A2755 
 364      3E974D11 
 364      6621DFB3 
 365 0591 6CF9AE7D 		.ascii	"l\371\256}\302\011F\226\226!\311\234\256|\337|\220\361"
 365      C2094696 
 365      9621C99C 
 365      AE7CDF7C 
 365      90F1
 366 05a3 3DC705DF 		.ascii	"=\307\005\337S\364k/\262)Bw\023\035\315gv\377PJ\212"
 366      53F46B2F 
 366      B2294277 
 366      131DCD67 
 366      76FF504A 
 367 05b8 1BDFFA60 		.ascii	"\033\337\372`\355\260\000E\370\243\275\010\316\030\262"
 367      EDB00045 
 367      F8A3BD08 
 367      CE18B2
 368 05c7 F416922C 		.ascii	"\364\026\222,\352*B\3530&\302\"W\",\236g\316r\252e\032"
 368      EA2A42EB 
 368      3026C222 
 368      57222C9E 
 368      67CE72AA 
 369 05dd 11772561 		.ascii	"\021w%a{6\313Yv\020g9\014l\237g\260<\001l\325\301\025"
 369      7B36CB59 
 369      76106739 
 369      0C6C9F67 
 369      B03C016C 
 370 05f4 C89CB188 		.ascii	"\310\234\261\210f\372M;\237h\270\241\017\334\211\342"
 370      66FA4D3B 
 370      9F68B8A1 
 370      0FDC89E2 
 371 0604 AF9069D6 		.ascii	"\257\220i\326\230\235m\273\034w\201\3241c\337n\002\013"
 371      989D6DBB 
 371      1C7781D4 
 371      3163DF6E 
 371      020B
 372 0616 7778B00A 		.ascii	"wx\260\012\241\026\366\030\252\246e\357\002R\205Pk\020"
 372      A116F618 
 372      AAA665EF 
 372      02528550 
 372      6B10
 373 0628 6AB9054A 		.ascii	"j\271\005J!\331\226\265}\266\270\002\317\016\244N\350"
ARM GAS  /tmp/cczbjoPn.s 			page 29


 373      21D996B5 
 373      7DB6B802 
 373      CF0EA44E 
 373      E8
 374 0639 66641FE9 		.ascii	"fd\037\351{n.K\353\262]\330\316qF\251\265\257\270\240"
 374      7B6E2E4B 
 374      EBB25DD8 
 374      CE7146A9 
 374      B5AFB8A0 
 375 064d 3F4AD728 		.ascii	"?J\327(>s8f9iI\2266b_\353\255\276\334v\273\351\247\314"
 375      3E733866 
 375      39694996 
 375      36625FEB 
 375      ADBEDC76 
 376 0665 97D7BBF2 		.ascii	"\227\327\273\362\345\372\346\305\256\206c\255lv\377"
 376      E5FAE6C5 
 376      AE8663AD 
 376      6C76FF
 377 0674 23ECFE22 		.ascii	"#\354\376\"v\377\206\265\373\303\235\355\017\260\356"
 377      76FF86B5 
 377      FBC39DED 
 377      0FB0EE
 378 0683 DF70D5FD 		.ascii	"\337p\325\375\362\226E]\273wL\363\206o\264\335\276|"
 378      F296455D 
 378      BB774CF3 
 378      866FB4DD 
 378      BE7C
 379 0695 EF2AEC64 		.ascii	"\357*\354d3\016\231W\375V\327x<\227\357\313\230]ss\331"
 379      330E9957 
 379      FD56D778 
 379      3C97EFCB 
 379      985D7373 
 380 06aa 37FC26F7 		.ascii	"7\374&\367=\032\261 \346\325\007^3\346\262\214\207M"
 380      3D1AB120 
 380      E6D5075E 
 380      33E6B28C 
 380      874D
 381 06bc 9E11F304 		.ascii	"\236\021\363\004E\254l\301\030\300\300\352\334\200\245"
 381      45AC6CC1 
 381      18C0C0EA 
 381      DC80A5
 382 06cb 59996CE6 		.ascii	"Y\231l\346\301\266z\006\0239\253\343\301\032\335\200"
 382      C1B67A06 
 382      1339ABE3 
 382      C11ADD80 
 383 06db D9CDD90D 		.ascii	"\331\315\331\015\260\267x\260\235\236\301D\316\266\362"
 383      B0B778B0 
 383      9D9EC144 
 383      CEB6F2
 384 06ea 60BA1BB0 		.ascii	"`\272\033\260\201\316\234m\343\301\376\344\031L\344"
 384      81CE9C6D 
 384      E3C1FEE4 
 384      194CE4
 385 06f9 AC91077B 		.ascii	"\254\221\007{\327\015X\236\015g\311\303i\312\373G9\351"
 385      D70D589E 
 385      0D67C9C3 
 385      69CAFB47 
ARM GAS  /tmp/cczbjoPn.s 			page 30


 385      39E9
 386 070b E7B00EF4 		.ascii	"\347\260\016\364\233\001\301\243OK)\214\367\374^\003"
 386      9B01C1A3 
 386      4F4B298C 
 386      F7FC5E03 
 387 071b 982037CD 		.ascii	"\230 7\315\244\217\232k<\226\316\216\272AL\3430[\371"
 387      A48F9A6B 
 387      3C96CE8E 
 387      BA414CE3 
 387      305BF9
 388 072e DCD8E619 		.ascii	"\334\330\346\031L4\313\373\007\255+v#!\265\257\325\007"
 388      4C34CBFB 
 388      07AD2B76 
 388      2321B5AF 
 388      D507
 389 0740 2E49053B 		.ascii	".I\005;\277\211E\267\271Yd\253\32649\331X\0338\320\276"
 389      BF8945B7 
 389      B95964AB 
 389      D63439D9 
 389      581B38D0 
 390 0755 AD42DE93 		.ascii	"\255B\336\223\351\312\363\240\034Hr\301\316\315\263"
 390      E9CAF3A0 
 390      1C4872C1 
 390      CECDB3
 391 0764 4E42F5FC 		.ascii	"NB\365\374\241\337n\003\035\001\322\223:yB\013\357\011"
 391      A1DF6E03 
 391      1D01D293 
 391      3A79420B 
 391      EF09
 392 0776 97DDA829 		.ascii	"\227\335\250)\315P\270}p\305\337h\355:\341\344M\253"
 392      CD50B87D 
 392      70C5DF68 
 392      ED3AE1E4 
 392      4DAB
 393 0788 1C3A85B8 		.ascii	"\034:\205\270|\302\310\326G0[\177\341\267M\374.\240"
 393      7CC2C8D6 
 393      47305B7F 
 393      E1B74DFC 
 393      2EA0
 394 079a 3A666CFC 		.ascii	":fl\374G\234\250\036C\240\233=\006\252iY9\214m\223 "
 394      479CA81E 
 394      43A09B3D 
 394      06AA6959 
 394      398C6D93 
 395 07af 9016B026 		.ascii	"\220\026\260&\011b\231?\0201\303\223@\352\244S4\327"
 395      0962993F 
 395      1031C393 
 395      40EAA453 
 395      34D7
 396 07c1 5FB52D4C 		.ascii	"_\265-L\270\002\026{\011\342t\033m\350R"
 396      B802167B 
 396      09E2741B 
 396      6DE852
 397 07d0 EC9F1BDE 		.ascii	"\354\237\033\336\324\264\252,/\026k7-v\226M\325\272"
 397      D4B4AA2C 
 397      2F166B37 
 397      2D76964D 
ARM GAS  /tmp/cczbjoPn.s 			page 31


 397      D5BA
 398 07e2 E8E798EC 		.ascii	"\350\347\230\354MA\260D\360,\310 N\020:\021oz\266\001"
 398      4D41B044 
 398      F02CC820 
 398      4E103A11 
 398      6F7AB601 
 399 07f6 C3C7DDD2 		.ascii	"\303\307\335\322\302\364\023 \312\317\005\371na\366"
 399      C2F41320 
 399      CACF05F9 
 399      6E61F6
 400 0805 A1771CA2 		.ascii	"\241w\034\242\257\026\350\355\356\327O5G\270y\262\346"
 400      AF16E8ED 
 400      EED74F35 
 400      47B879B2 
 400      E6
 401 0816 6E9EDC64 		.ascii	"n\236\334d\314\223/\241\306\326\004l\\\323\015Rm\307"
 401      CC932FA1 
 401      C6D6046C 
 401      5CD30D52 
 401      6DC7
 402 0828 FEFE5A86 		.ascii	"\376\376Z\206B.#\314\206\236\302\200\207\277\303<\374"
 402      422E23CC 
 402      869EC280 
 402      87BFC33C 
 402      FC
 403 0839 5304DADC 		.ascii	"S\004\332\334\305\202Y\026\003f\211\006\204K\332\323"
 403      C5825916 
 403      03668906 
 403      844BDAD3 
 404 0849 4D3A7F25 		.ascii	"M:\177%\2777\356\320\213l\351\377\235\016\246\026\310"
 404      BF37EED0 
 404      8B6CE9FF 
 404      9D0EA616 
 404      C8
 405 085a 3E355E4F 		.ascii	">5^O\346d\270\200\036\331`\344\036f\240\335w\2048E\177"
 405      E664B880 
 405      1ED960E4 
 405      1E66A0DD 
 405      77843845 
 406 086f 67A1B9CE 		.ascii	"g\241\271\316\303\215\257\346;\204;s\304\232},\263\336"
 406      C38DAFE6 
 406      3B843B73 
 406      C49A7D2C 
 406      B3DE
 407 0881 050E11DB 		.ascii	"\005\016\021\333\\\302o\231\303\336\232v`2<\334\305"
 407      5CC26F99 
 407      C3DE9A76 
 407      60323CDC 
 407      C5
 408 0892 DCD5B265 		.ascii	"\334\325\262e\332KopM\234\306\321\227|\362\270xgR\202"
 408      DA4B6F70 
 408      4D9CC6D1 
 408      977CF2B8 
 408      78675282 
 409 08a6 19AEFE2B 		.ascii	"\031\256\376+\233\002t\267\244x\336D\013b\307\237`\307"
 409      9B0274B7 
 409      A478DE44 
ARM GAS  /tmp/cczbjoPn.s 			page 32


 409      0B62C79F 
 409      60C7
 410 08b8 B7AD2B8A 		.ascii	"\267\255+\212\363\233>\230n\254)o\273\332\030i\273\024"
 410      F39B3E98 
 410      6EAC296F 
 410      BBDA1869 
 410      BB14
 411 08ca D01606CD 		.ascii	"\320\026\006\315\215\216\332\034\023\325\350U\330\325"
 411      8D8EDA1C 
 411      13D5E855 
 411      D8D5
 412 08d8 E8D6ABF4 		.ascii	"\350\326\253\364s\221\246\207\274\204\210\313F\210\250"
 412      7391A687 
 412      BC8488CB 
 412      4688A8
 413 08e7 F4E1D8CE 		.ascii	"\364\341\330\316\261\332\350\2625\250z\032#oZ\245q\273"
 413      B1DAE8B2 
 413      35A87A1A 
 413      236F5AA5 
 413      71BB
 414 08f9 30481E4E 		.ascii	"0H\036N>p\213\367\201\267r\356\324\007n>\343\316\007"
 414      3E708BF7 
 414      81B772EE 
 414      D4076E3E 
 414      E3CE07
 415 090c B4E4E658 		.ascii	"\264\344\346X_\354y;\366<\323gq\202\245[\017\314 \225"
 415      5FEC793B 
 415      F63CD367 
 415      7182A55B 
 415      0FCC2095 
 416 0920 E804F459 		.ascii	"\350\004\364Y\367N\320!8\301\347I\324\2368\301\024\375"
 416      F74ED021 
 416      38C1E749 
 416      D49E38C1 
 416      14FD
 417 0932 EB8F0F10 		.ascii	"\353\217\017\020\204c\323\320\016+\234\307\345\3317"
 417      8463D3D0 
 417      0E2B9CC7 
 417      E5D937
 418 0941 E053DE14 		.ascii	"\340S\336\024\303\334K?u\211\346\267\005>*\323\267]"
 418      C3DC4B3F 
 418      7589E6B7 
 418      053E2AD3 
 418      B75D
 419 0953 5C8B6986 		.ascii	"\\\213i\206s\255\224\032\0252\333G\347\245/\372\350"
 419      73AD941A 
 419      1532DB47 
 419      E7A52FFA 
 419      E8
 420 0964 FB8FB958 		.ascii	"\373\217\271X\317\367\271x\013R\355\343\334bZ\256W\271"
 420      CFF7B978 
 420      0B52EDE3 
 420      DC625AAE 
 420      57B9
 421 0976 F35C7ADF 		.ascii	"\363\\z\337\014\276\2339\271=\364>)\205Q\223\353b\012"
 421      0CBE9B39 
 421      B93DF43E 
ARM GAS  /tmp/cczbjoPn.s 			page 33


 421      29855193 
 421      EB620A
 422 0989 9CE76422 		.ascii	"\234\347d\"\272\023s\365Yw;1fp\2764g\004\006\347%h\235"
 422      BA1373F5 
 422      59773B31 
 422      6670BE34 
 422      670406E7 
 423 09a0 C5B9F6FB 		.ascii	"\305\271\366\373\253i6t\326!\311r\253\353CZ3\366W\227"
 423      AB693674 
 423      D621C972 
 423      ABEB435A 
 423      33F65797 
 424 09b4 BBF0FC29 		.ascii	"\273\360\374)\372\321\027\371\315I\340G\226\015\330"
 424      FAD117F9 
 424      CD49E047 
 424      960DD8
 425 09c3 9E6A933B 		.ascii	"\236j\223;x\376\024\362\012\372\324J\336\217di\253g"
 425      78FE14F2 
 425      0AFAD44A 
 425      DE8F6469 
 425      AB67
 426 09d5 CDE709FC 		.ascii	"\315\347\011\3747\036\307\005\037\365\010X\324\273\001"
 426      371EC705 
 426      1FF50858 
 426      D4BB01
 427 09e4 1BE46446 		.ascii	"\033\344dFP\306\361\025\2062\330\326f\263g\274\274t"
 427      50C6F115 
 427      8632D8D6 
 427      66B367BC 
 427      BC74
 428 09f6 CA48ED24 		.ascii	"\312H\355$+\344e\\\370-\226\351\320Z\212\365r\254\327"
 428      2BE4655C 
 428      F82D96E9 
 428      D05A8AF5 
 428      72ACD7
 429 0a09 61FD2ED6 		.ascii	"a\375.\326MX7c}\030\3533X\177\200\365b\034\226\265X"
 429      4D583763 
 429      7D18EB33 
 429      587F80F5 
 429      621C96B5 
 430 0a1e AF713538 		.ascii	"\257q58\305\364n\332zN\2177\242\377b\361\235e\236\361"
 430      C5F46EDA 
 430      7A4E8F37 
 430      A2FF62F1 
 430      9D659EF1 
 431 0a32 D2AA6B0E 		.ascii	"\322\252k\016\247\256y\250\256\371(\370\037D\017:\226"
 431      A7AE79A8 
 431      AEF928F8 
 431      1F440F3A 
 431      96
 432 0a43 6BBE20E9 		.ascii	"k\276 \351Y\264>vZ4\372Y+\236\247p\255\351'O\243G\256"
 432      59B43E76 
 432      5A34FA59 
 432      2B9EA770 
 432      ADE9274F 
 433 0a5a C75472D1 		.ascii	"\307Tr\3213X\236\300\334\371e\342\273\203O\334\340\245"
 433      33589EC0 
ARM GAS  /tmp/cczbjoPn.s 			page 34


 433      DCF965E2 
 433      BB834FDC 
 433      E0A5
 434 0a6c D91FB97A 		.ascii	"\331\037\271z\232\333\037\271\356\031Ld\356\006\017"
 434      9ADB1FB9 
 434      EE194C64 
 434      EE060F
 435 0a7b 76CB0D98 		.ascii	"v\313\015\230\335.\202\275\361\247q\306\237\201\306"
 435      DD2E82BD 
 435      F1A771C6 
 435      9F81C6
 436 0a8a 9FC9C607 		.ascii	"\237\311\306\007\372\373\006\254_\307\372\015\254\337"
 436      FAFB06AC 
 436      5FC7FA0D 
 436      ACDF
 437 0a98 149D626A 		.ascii	"\024\235bj\320|\335gt&\276V\353~\"W\357\374\242O\230"
 437      D07CDD67 
 437      7426BE56 
 437      EB7E2257 
 437      EFFCA24F 
 438 0aad 889AF1BC 		.ascii	"\210\232\361\274a\336X\214\347u\030\317g\007\273}\331"
 438      61DE588C 
 438      E77518CF 
 438      6707BB7D 
 438      D9
 439 0abe 6499CED6 		.ascii	"d\231\316\326\"E}\327p~2\304\302y\275\253p\376\265\360"
 439      22457DD7 
 439      707E32C4 
 439      C279BDAB 
 439      70FEB5F0 
 440 0ad2 458D428E 		.ascii	"E\215B\216\340\373\351z\357\341\334\234{\244\276\250"
 440      E0FBE97A 
 440      EFE1DC9C 
 440      7BA4BEA8 
 441 0ae2 51C8FB9E 		.ascii	"Q\310\373\236\301D\177Yp\232\377\242F!\307\255x\036"
 441      C1447F59 
 441      709AFFA2 
 441      4621C7AD 
 441      781E
 442 0af4 BFA8D9BC 		.ascii	"\277\250\331\274,\330\372\274\371a\303\333I\005\272"
 442      2CD8FABC 
 442      F961C3DB 
 442      4905BA
 443 0b03 05EB9BCE 		.ascii	"\005\353\233\316\377\352\271\304\3656&\256m\350g\015"
 443      FFEAB9C4 
 443      F53626AE 
 443      6DE8670D 
 444 0b13 583762BD 		.ascii	"X7b\275]\364\271?Y}N0\261\335\010\340\325\243\351;\316"
 444      5DF4B93F 
 444      597D4E30 
 444      B1DD08E0 
 444      D5A3E93B 
 445 0b28 81AE5D4F 		.ascii	"\201\256]O >\237\307&\020\357\240\3035\333;\\\272\011"
 445      203E9FC7 
 445      2610EFA0 
 445      C335DB3B 
 445      5CBA09
ARM GAS  /tmp/cczbjoPn.s 			page 35


 446 0b3b C42924D9 		.ascii	"\304)$\331\323\325\343Zc\314\343\366t\357qS\253\364"
 446      D3D5E35A 
 446      63CCE3F6 
 446      74EF7153 
 446      ABF4
 447 0b4d FAE5EB52 		.ascii	"\372\345\353R\257d\252\222\213\323?C,uJD\302\356\343"
 447      AF64AA92 
 447      8BD33F43 
 447      2C754A44 
 447      C2EEE3
 448 0b60 C74936FE 		.ascii	"\307I6\376*\023\216=\234\335\366\242\335\366\211V\372"
 448      2A138E3D 
 448      9CDDF6A2 
 448      DDF68956 
 448      FA
 449 0b71 8BD54A9E 		.ascii	"\213\325J\236\346\010\232~\314\010\014\346{\345\257"
 449      E6089A7E 
 449      CC080CE6 
 449      7BE5AF
 450 0b80 AC78E25B 		.ascii	"\254x\342[\3444\223\004\003p\361\371\200vA'wI\325\030"
 450      E4349304 
 450      0370F1F9 
 450      80764127 
 450      7749D518 
 451 0b94 22667E68 		.ascii	"\"f~hn\244\352\323\265\231\244r\313\275I:!\261\245^"
 451      6EA4EAD3 
 451      B599A472 
 451      CBBD493A 
 451      21B1A55E 
 452 0ba8 6EDDF73A 		.ascii	"n\335\367:\232\353=\\BN\351e\273\001\352\012\253c\306"
 452      9AEB3D5C 
 452      424EE965 
 452      BB01EA0A 
 452      AB63C6
 453 0bbb 21F37D6C 		.ascii	"!\363}l+\202\315\275\003\260\232\226\263\346\033\331"
 453      2B82CDBD 
 453      03B09A96 
 453      B3E61BD9 
 454 0bcb A308F6B2 		.ascii	"\243\010\366\262\005L!\001\313\3326 \256m\003\201\324"
 454      054C2101 
 454      CBDA3620 
 454      AE6D0381 
 454      D4
 455 0bdc 49A77958 		.ascii	"I\247yXwK\277G\032C8=hJ\327D\014\200?\373\356J\351C"
 455      774BBF47 
 455      1A43383D 
 455      684AD744 
 455      0C803FFB 
 456 0bf4 4BFA7CD0 		.ascii	"K\372|\320\331\345\217\373R\333\364\301\200d\011\007"
 456      D9E58FFB 
 456      52DBF4C1 
 456      80640907 
 457 0c04 D42F57F7 		.ascii	"\324/W\367\262\370\221\245_\343\374y\033\317\264;\370"
 457      B2F891A5 
 457      5FE3FC79 
 457      1BCFB43B 
 457      F8
ARM GAS  /tmp/cczbjoPn.s 			page 36


 458 0c15 6F5D14A2 		.ascii	"o]\024\242a\006\255\304\014\272\005c\327.\254\017`\335"
 458      6106ADC4 
 458      0CBA0563 
 458      D72EAC0F 
 458      60DD
 459 0c27 228E90CD 		.ascii	"\"\216\220\315IC\231\234\210\037\323\340\267^\276\344"
 459      4943999C 
 459      881FD3E0 
 459      B75EBEE4 
 460 0c37 473EDD2E 		.ascii	"G>\335.M\263x\336\015\3578\361\351\265R\346\034\247"
 460      4DB378DE 
 460      0DEF38F1 
 460      E9B552E6 
 460      1CA7
 461 0c49 317E7DD1 		.ascii	"1~}\321\253\333\204)\342\3407\207\226\330\245\327\264"
 461      ABDB8429 
 461      E2E03787 
 461      96D8A5D7 
 461      B4
 462 0c5a 05E946E9 		.ascii	"\005\351F\351YW\201\353\2456nG\267*\355v\015L\263Q\201"
 462      595781EB 
 462      A5366E47 
 462      B72AED76 
 462      0D4CB351 
 463 0c6f 6E5EEADF 		.ascii	"n^\352\337FI\316\366,\343\002[/\267a\306m\3071\323\351"
 463      4649CEF6 
 463      2CE3025B 
 463      2FB761C6 
 463      6DC731D3 
 464 0c84 192C4F00 		.ascii	"\031,O\000[\302\203U\365v\001\346\224n\001l\031\017"
 464      5BC28355 
 464      F57601E6 
 464      946E016C 
 464      190F
 465 0c96 36D33398 		.ascii	"6\3233\230\310\331\012\036l\256\0330\247Y-\200\255\344"
 465      C8D90A1E 
 465      6CAE1B30 
 465      A7592D80 
 465      ADE4
 466 0ca8 C1AA3D83 		.ascii	"\301\252=\203\211\234m\346\301\026\271\001sz7\006`u"
 466      899C6DE6 
 466      C116B901 
 466      737A3706 
 466      6075
 467 0cba 3CD832CF 		.ascii	"<\3302\317`\"go\361`\265n\300\362\2349\333\312\203\255"
 467      6022676F 
 467      F160B56E 
 467      C0F29C39 
 467      DBCA83AD 
 468 0cce F50C2672 		.ascii	"\365\014&r\266\215\007{\315\015\230S\206\005\260F\036"
 468      B68D077B 
 468      CD0D9853 
 468      8605B046 
 468      1E
 469 0cdf 6CA36730 		.ascii	"l\243g0\221\263\035<\330\0267`\0179qV\251\357\372\367"
 469      91B31D3C 
 469      D8163760 
ARM GAS  /tmp/cczbjoPn.s 			page 37


 469      0F397156 
 469      A9EFFAF7 
 470 0cf3 6AC5CCD3 		.ascii	"j\305\314\3234\340ST3:\021\321\265\370f\253d\307f\012"
 470      34E05354 
 470      333A11D1 
 470      B5F866AB 
 470      64C7660A 
 471 0d07 F9C6732E 		.ascii	"\371\306s.\371\326!\227\360\1771J\265\242\337\212Z\305"
 471      F9D62197 
 471      F07F314A 
 471      B5A2DF8A 
 471      5AC5
 472 0d19 16B9B093 		.ascii	"\026\271\260\223[Tb+\257\304\0067J|\302\031\354\010"
 472      5B54622B 
 472      AFC40637 
 472      4A7CC219 
 472      EC08
 473 0d2b 0FB6CB0D 		.ascii	"\017\266\313\015\330\010g_y\237\007\333\343\031L\344"
 473      D808675F 
 473      799F07DB 
 473      E3194CE4 
 474 0d3b EC380FB6 		.ascii	"\3548\017\266\337\015\330s\316\234\235\344\301\232="
 474      DF0DD873 
 474      CE9C9DE4 
 474      C19A3D
 475 0d4a 83F19C55 		.ascii	"\203\361\234U\352\247S\216G\277\271\024<O\230|%\035"
 475      EAA7538E 
 475      47BFB914 
 475      3C4F987C 
 475      251D
 476 0d5c 8F35E33C 		.ascii	"\2175\343<\317\322L!/fxu\2749\031\366\216\307\317\257"
 476      CFD24C21 
 476      2F667875 
 476      BC3919F6 
 476      8EC7CFAF 
 477 0d70 52AD40EC 		.ascii	"R\255@\354V\253\330\002\023\306\351X\033\035\332\035"
 477      56ABD802 
 477      13C6E958 
 477      1B1DDA1D 
 478 0d80 7CBE57C8 		.ascii	"|\276W\3109\234\333\237\307\371\313\005\254/b\375\021"
 478      399CDB9F 
 478      C7F9CB05 
 478      AC2F62FD 
 478      11
 479 0d91 D697B1FE 		.ascii	"\326\227\261\376\004\353\317\260\276\202\365U\254\257"
 479      04EBCFB0 
 479      BE82F555 
 479      ACAF
 480 0d9f 63FD25D6 		.ascii	"c\375%\3267\260\276\211\365-\254;\261\256\314\240u\025"
 480      37B0BE89 
 480      F52DAC3B 
 480      B1AECCA0 
 480      7515
 481 0db1 D6D3B09E 		.ascii	"\326\323\260\236\201\365\254\014\027;m\247R\373\323"
 481      81F5AC0C 
 481      173B6DA7 
 481      52FBD3
ARM GAS  /tmp/cczbjoPn.s 			page 38


 482 0dc0 79D22ABA 		.ascii	"y\322*\272\252\332\267>0%#\371\345\367j\376\313o\313"
 482      AADAB73E 
 482      302523F9 
 482      E5F76AFE 
 482      CB6FCB
 483 0dd3 5BBD3569 		.ascii	"[\2755i\376\2001?\303\212\3338\377\012\321\246\372\223"
 483      FE80313F 
 483      C38ADB38 
 483      FF0AD1A6 
 483      FA93
 484 0de5 C89B7864 		.ascii	"\310\233xd\243\315\231\243\237\373\3706uiz\337\232\246"
 484      A3CD99A3 
 484      9FFBF836 
 484      75697ADF 
 484      9AA6
 485 0df7 F785A9DE 		.ascii	"\367\205\251\336-T\273\323P\3258R\335vX\203\341V\251"
 485      2D54BBD3 
 485      50D53852 
 485      DD765883 
 485      E156A9
 486 0e0a 23559DC3 		.ascii	"#U\235\303 \242T/\245\250\350g\347\255\255\355\327\332"
 486      20A2542F 
 486      A5A8E867 
 486      E7ADADED 
 486      D7DA
 487 0e1c 3E1A5C59 		.ascii	">\032\\Y\255W\326j\337\300\234>\271\310Z\"\256P\307"
 487      AD57D66A 
 487      DFC09C3E 
 487      B9C85A22 
 487      AE50C7
 488 0e2f 9A408C9C 		.ascii	"\232@\214\234ou\320\261\225B\226x\036AK\035FP\216\340"
 488      6F75D0B1 
 488      95429678 
 488      1E414B1D 
 488      46508EE0 
 489 0e43 E74B5323 		.ascii	"\347KS#\350\030\216 \356\337\023\026&d\351\\osU\222"
 489      E8188E20 
 489      EEDF1316 
 489      2664E95C 
 489      6F735592 
 490 0e57 434C93EB 		.ascii	"CL\223\353\253Z\264\274<\373\177Q0\305\350\247ZfiD\233"
 490      AB5AB4BC 
 490      3CFB7F51 
 490      30C5E8A7 
 490      5A666944 
 491 0e6c AE55D27F 		.ascii	"\256U\322\177;:\250\245\330\354\253W:\265XZA\320\361"
 491      3B3AA8A5 
 491      D8ECAB57 
 491      3AB5585A 
 491      41D0F1
 492 0e7f AC965A07 		.ascii	"\254\226Z\007\265\004\005\265\230\255\340tY\206\345"
 492      B50405B5 
 492      98ADE074 
 492      5986E5
 493 0e8e 6F171626 		.ascii	"o\027\026&d\3513;\265t\036\342\325\"\376\377bX~qYI$"
 493      64E9333B 
 493      B5741EE2 
ARM GAS  /tmp/cczbjoPn.s 			page 39


 493      D522FEFF 
 493      62587E71 
 494 0ea5 3FF24224 		.ascii	"?\362B$\277\2408:.\372\233\321\371e\345\371\305J,?^"
 494      BFA0383A 
 494      2EFA9BD1 
 494      F965E5F9 
 494      C54A2C3F 
 495 0eba 9650CBF3 		.ascii	"\226P\313\363G\217\031\365\360\220\374g\236\031\236"
 495      478F19F5 
 495      F090FC67 
 495      9E199E
 496 0ec9 3F66E4A8 		.ascii	"?f\344\250\011\203\363\313\325P,V\364`\261\364s[\302"
 496      0983F3CB 
 496      D5502C56 
 496      F460B1F4 
 496      735BC2
 497 0edc 849A1F2D 		.ascii	"\204\232\037-\015\307*\212\"\371\341\342\362\311\345"
 497      0DC72A8A 
 497      22F9E1E2 
 497      F2C9E5
 498 0eeb EAE478A4 		.ascii	"\352\344x\244\034Z\007\350y\264$\022R\263\236~\366\267"
 498      1C5A07E8 
 498      79B42412 
 498      52B39E7E 
 498      F6B7
 499 0efd 7905D27D 		.ascii	"y\005\322}\371\025\345\211d\333\322\310\304Xt\034\200"
 499      F915E589 
 499      64DBD2C8 
 499      C458741C 
 499      80
 500 0f0e 17454B55 		.ascii	"\027EKUh\356\257\200\337\301CC\352\317\355\232\225("
 500      68EEAF80 
 500      DFC14343 
 500      EACFED9A 
 500      9528
 501 0f20 E1E26869 		.ascii	"\341\342hi$?T\024yA\251\210\251!\263\227\234P\310$\354"
 501      243F5414 
 501      7941A988 
 501      A921B397 
 501      9C50C824 
 502 0f35 C7180D8D 		.ascii	"\307\030\015\215\217\250\241pYE\251\032I<\342\3041\223"
 502      8FA8A170 
 502      5945A91A 
 502      493CE2C4 
 502      3193
 503 0f47 F4C9C251 		.ascii	"\364\311\302Q\005\243&\001\333\341\262\004\360\011\314"
 503      05A32601 
 503      DBE1B204 
 503      F009CC
 504 0f56 2600F26E 		.ascii	"&\000\362n\372\220]!\026=\373\207\356E\237@\245\350"
 504      FA905D21 
 504      163DFB87 
 504      EE459F40 
 504      A5E8
 505 0f68 172EFEB7 		.ascii	"\027.\376\2671OG\324\321 {\244d\014P\216\035\300\301"
 505      314F47D4 
 505      D1207BA4 
ARM GAS  /tmp/cczbjoPn.s 			page 40


 505      640C508E 
 505      1DC0C1
 506 0f7b 95AB0A9C 		.ascii	"\225\253\012\234+1%Q\222A\357\334\303?\213\030O\372"
 506      2B312551 
 506      9241EFDC 
 506      C33F8B18 
 506      4FFA
 507 0f8d 0B046571 		.ascii	"\013\004eqv\367\357\2358(O\204Y\357a\311\037\232\240"
 507      76F7EF9D 
 507      38284F84 
 507      59EF61C9 
 507      1F9AA0
 508 0fa0 86A2A551 		.ascii	"\206\242\245Q\265\317\204hB\255Pb\006\212\3327\\\034"
 508      B5CF8468 
 508      42AD5062 
 508      068ADA37 
 508      5C1C
 509 0fb2 126EFDD4 		.ascii	"\022n\375\324\205)\303\305\324\350\331\000Y\032\231"
 509      8529C3C5 
 509      D4E8D900 
 509      591A99
 510 0fc1 A4D2DF78 		.ascii	"\244\322\337x\"2\301\017\277E\221\230\252\300\311\013"
 510      2232C10F 
 510      BF459198 
 510      AAC0C90B 
 511 0fd1 15A5E110 		.ascii	"\025\245\341\020>\241gY\264\205\222\310\241*\030^6:"
 511      3EA16759 
 511      B48592C8 
 511      A12A185E 
 511      363A
 512 0fe3 A28EF44D 		.ascii	"\242\216\364MP\343\231\320X\231\234\305\032\373\340"
 512      50E399D0 
 512      58999CC5 
 512      1AFBE0
 513 0ff2 79903D2F 		.ascii	"y\220=/\214\200\300#\177\342\350\213&#"
 513      8C80C023 
 513      7FE2E88B 
 513      2623
 514 1000 E554ADC1 		.ascii	"\345T\255\301ru4U\335\223T\0239p\021a\247\271\364~Y"
 514      72753455 
 514      DD935413 
 514      39701161 
 514      A7B9F47E 
 515 1015 9C9D838C 		.ascii	"\234\235\203\214\345\250\366\220\032H\236\007\023\021"
 515      E5A8F690 
 515      1A489E07 
 515      1311
 516 1023 A5687228 		.ascii	"\245hr(\026\005\347P{\301\355\324u\037\265\230^\224"
 516      1605E750 
 516      7BC1EDD4 
 516      751FB598 
 516      5E94
 517 1035 87FEBB22 		.ascii	"\207\376\273\"R\021aJ\022n\371\331\025\203c\347YqT\006"
 517      5211614A 
 517      126EF9D9 
 517      158363E7 
 517      59715406 
ARM GAS  /tmp/cczbjoPn.s 			page 41


 518 1049 FC505DFC 		.ascii	"\374P]\374\332\235{\225\225\304\243\261H\242<\377\351"
 518      DA9D7B95 
 518      95C4A3B1 
 518      48A23CFF 
 518      E9
 519 105a 820250AC 		.ascii	"\202\002P\254\351\272\331j<\021-\013\251\350\371\017"
 519      E9BAD96A 
 519      3C112D0B 
 519      A9E8F90F 
 520 106a 0F09A986 		.ascii	"\017\011\251\206/\323S\354 Z\226\035.\0037\236\244>"
 520      2FD353EC 
 520      205A961D 
 520      2E03379E 
 520      A43E
 521 107c E8C18F01 		.ascii	"\350\301\217\0019\027=\010\240\302\352\244!^\206\300"
 521      39173D08 
 521      A0C2EAA4 
 521      215E86C0 
 522 108c 84A12574 		.ascii	"\204\241%t(&\"\343A\241!UN\014\223\023\217\372\022\203"
 522      282622E3 
 522      41A12155 
 522      4E0C9313 
 522      8FFA1283 
 523 10a0 1F823258 		.ascii	"\037\2022XN<\"'~!'\206\312\211_\312\261\004\334z83\036"
 523      4E3C2227 
 523      7E212786 
 523      CA895FCA 
 523      B104DC7A 
 524 10b7 822EB2A9 		.ascii	"\202.\262\251R&F\022\360[\026+\212$2\302\305J\202jJ"
 524      52264612 
 524      F05B162B 
 524      8A2432C2 
 524      C54A826A 
 525 10cc 29011D82 		.ascii	")\001\035\202\317\253\240\335l*\3320\320%\023\022\316"
 525      CFABA0DD 
 525      6C2ADA30 
 525      D0251312 
 525      CE
 526 10dd A0393ECB 		.ascii	"\2409>\313VK\312\212\"x\375BL\031_\236YR>\036\256\014"
 526      564BCA8A 
 526      2278FD42 
 526      4C195F9E 
 526      59523E1E 
 527 10f3 4D407B53 		.ascii	"M@{S'\211\242\311\360\310\037\231\024U\303@\2215Q-\033"
 527      2789A2C9 
 527      F0C81F99 
 527      1455C340 
 527      9135512D 
 528 1108 F7BB783F 		.ascii	"\367\273x?\303J\011\0201\021)\015\003R\346DUM\304\203"
 528      C34A0910 
 528      3111290D 
 528      0352E644 
 528      554DC483 
 529 111c D4092225 		.ascii	"\324\011\"%J\274\030D\033\344\302\341#T\370l\303\370"
 529      4ABC1844 
 529      1BE4C2E1 
 529      2354F86C 
ARM GAS  /tmp/cczbjoPn.s 			page 42


 529      C3F8
 530 112e 99E152F0 		.ascii	"\231\341R\360\230\314\362\020\374BO\3600\356\007\300"
 530      98CCF210 
 530      FC424FF0 
 530      30EE07C0 
 531 113e 920AB087 		.ascii	"\222\012\260\207\013\260\022u\022\005+a`\360[6\261\024"
 531      0BB01275 
 531      12052B61 
 531      60F05B36 
 531      B114
 532 1150 3484E420 		.ascii	"4\204\344 J\011s\243\211*\264\213\373\342\241\212\336"
 532      4A0973A3 
 532      892AB48B 
 532      FBE2A18A 
 532      DE
 533 1161 A6E7314F 		.ascii	"\246\3471O\355\303\371\"\275\023\210\207&*Q5Z:\036\316"
 533      EDC3F922 
 533      BD138887 
 533      262A5135 
 533      5A3A1ECE 
 534 1175 8086DECB 		.ascii	"\200\206\336\313\211Sg\216\241\237$X?Y\011t\233\314"
 534      8953678E 
 534      A19F2458 
 534      3F590974 
 534      9BCC
 535 1187 049A2561 		.ascii	"\004\232%a\230%\301\314\022\200\273\025\011P\221\232"
 535      9825C1CC 
 535      1280BB15 
 535      0950919A 
 536 1197 99A0F4FD 		.ascii	"\231\240\364\375\205\210`\366<\300\032*\330\203\\\030"
 536      858860F6 
 536      3CC01A2A 
 536      D8835C18 
 537 11a7 DC31A55C 		.ascii	"\3341\245\\\245\267`0\323[\275\215\321V\024\031W1\236"
 537      A5B76030 
 537      D35BBD8D 
 537      D1561419 
 537      57319E
 538 11ba B1CCDF09 		.ascii	"\261\314\337\011\304\225\322h8\004\026\363\025\215\033"
 538      C495D268 
 538      380416F3 
 538      158D1B
 539 11c9 9F53A280 		.ascii	"\237S\242\200\031Q\"\030\277\377\245\304\242\343K\015"
 539      19512218 
 539      BFFFA5C4 
 539      A2E34B0D 
 540 11d9 D71FFA48 		.ascii	"\327\037\372H\322\365\351i\357hQ,b\010\017B\313\341"
 540      D2F5E969 
 540      EF68512C 
 540      62080F42 
 540      CBE1
 541 11eb E27FF29C 		.ascii	"\342\177\362\234\260J\250\277D\2519s\223\027!\325WP"
 541      B04AA8BF 
 541      44A93973 
 541      931721D5 
 541      5750
 542 11fd 3818CA90 		.ascii	"8\030\312\220\214\321\243\012\0123\206\217|\252P\036"
ARM GAS  /tmp/cczbjoPn.s 			page 43


 542      8CD1A30A 
 542      0A33868F 
 542      7CAA501E 
 543 120d 5DE87BEA 		.ascii	"]\350{\352\351\302\314\202\202Q\205\203\261\036\222"
 543      E9C2CC82 
 543      82518583 
 543      B11E92
 544 121c 5150F054 		.ascii	"QP\360T\241\257\340\3311\276\347F\027\370\236,,\364"
 544      A1AFE0D9 
 544      31BEE746 
 544      17F89E2C 
 544      2CF4
 545 122e 1516C035 		.ascii	"\025\026\3005\020\374\313\3601\205\276\341\224r\324"
 545      10FCCBF0 
 545      3185BEE1 
 545      9472D4
 546 123d 9385F26F 		.ascii	"\223\205\362o\030\325\303\320~l\241?\204\0210\024\352"
 546      18D5C3D0 
 546      7E6CA13F 
 546      84113014 
 546      EA
 547 124e 659E3CF8 		.ascii	"e\236<\370\213!\277\034\312_\015{\344\377\000\367\326"
 547      8B21BF1C 
 547      CA5F0D7B 
 547      E4FF00F7 
 547      D6
 548 125f 21AA     		.ascii	"!\252"
 549              		.text
 550              		.section	.gnu.lto_.symtab.343822de5b6c438b,"",%progbits
 551 0000 5F76745F 		.ascii	"_vt_init\000\000\000\000\000\000\000\000\000\000\000"
 551      696E6974 
 551      00000000 
 551      00000000 
 551      000000
 552 0013 00C40000 		.ascii	"\000\304\000\000\000chVTDoSetI\000\000\000\000\000\000"
 552      00636856 
 552      54446F53 
 552      65744900 
 552      00000000 
 553 0028 00000000 		.ascii	"\000\000\000\000\000\000\307\000\000\000chVTDoReset"
 553      0000C700 
 553      00006368 
 553      5654446F 
 553      52657365 
 554 003d 49000000 		.ascii	"I\000\000\000\000\000\000\000\000\000\000\000\000\356"
 554      00000000 
 554      00000000 
 554      00EE
 555 004b 00000063 		.ascii	"\000\000\000ch\000\000\002\000\000\000\000\000\000\000"
 555      68000002 
 555      00000000 
 555      000000
 556 005a 0000FA00 		.ascii	"\000\000\372\000\000\000stStartAlarm\000\000\002\000"
 556      00007374 
 556      53746172 
 556      74416C61 
 556      726D0000 
ARM GAS  /tmp/cczbjoPn.s 			page 44


 557 0070 00000000 		.ascii	"\000\000\000\000\000\000\000\000\364\000\000\000stS"
 557      00000000 
 557      F4000000 
 557      737453
 558 007f 6574416C 		.ascii	"etAlarm\000\000\002\000\000\000\000\000\000\000\000"
 558      61726D00 
 558      00020000 
 558      00000000 
 558      0000
 559 0091 00F60000 		.ascii	"\000\366\000\000\000stStopAlarm\000\000\002\000\000"
 559      00737453 
 559      746F7041 
 559      6C61726D 
 559      00000200 
 560 00a6 00000000 		.ascii	"\000\000\000\000\000\000\000\370\000\000\000"
 560      000000F8 
 560      000000
 561              		.text
 562              		.section	.gnu.lto_.opts,"",%progbits
 563 0000 272D6D63 		.ascii	"'-mcpu=cortex-m0' '-mno-thumb-interwork' '-mthumb' "
 563      70753D63 
 563      6F727465 
 563      782D6D30 
 563      2720272D 
 564 0033 272D6767 		.ascii	"'-ggdb' '-O0' '-fomit-frame-pointer' '-falign-funct"
 564      64622720 
 564      272D4F30 
 564      2720272D 
 564      666F6D69 
 565 0066 696F6E73 		.ascii	"ions=16' '-ffunction-sections' '-fdata-sections' '-"
 565      3D313627 
 565      20272D66 
 565      66756E63 
 565      74696F6E 
 566 0099 666E6F2D 		.ascii	"fno-common' '-flto'\000"
 566      636F6D6D 
 566      6F6E2720 
 566      272D666C 
 566      746F2700 
 567              		.text
 568              		.cfi_sections	.debug_frame
 569              		.section	.text.st_lld_get_counter,"ax",%progbits
 570              		.align	2
 571              		.p2align 4,,15
 572              		.code	16
 573              		.thumb_func
 574              		.type	st_lld_get_counter, %function
 575              	st_lld_get_counter:
 576              	.LFB46:
 577              		.file 1 "/home/efe/ChibiOS/os/hal/ports/STM32/LLD/TIMv1/st_lld.h"
 578              		.loc 1 139 0
 579              		.cfi_startproc
 580              		.loc 1 141 0
 581 0000 024B     		ldr	r3, .L3
 582 0002 5B6A     		ldr	r3, [r3, #36]
 583 0004 9BB2     		uxth	r3, r3
 584              		.loc 1 142 0
ARM GAS  /tmp/cczbjoPn.s 			page 45


 585 0006 181C     		mov	r0, r3
 586              		@ sp needed
 587 0008 7047     		bx	lr
 588              	.L4:
 589 000a C046     		.align	2
 590              	.L3:
 591 000c 00040040 		.word	1073742848
 592              		.cfi_endproc
 593              	.LFE46:
 594              		.size	st_lld_get_counter, .-st_lld_get_counter
 595              		.section	.text.port_timer_start_alarm,"ax",%progbits
 596              		.align	2
 597              		.p2align 4,,15
 598              		.code	16
 599              		.thumb_func
 600              		.type	port_timer_start_alarm, %function
 601              	port_timer_start_alarm:
 602              	.LFB52:
 603              		.file 2 "/home/efe/ChibiOS/os/rt/ports/ARMCMx/chcore_timer.h"
 604              		.loc 2 71 0
 605              		.cfi_startproc
 606 0000 00B5     		push	{lr}
 607              		.cfi_def_cfa_offset 4
 608              		.cfi_offset 14, -4
 609 0002 83B0     		sub	sp, sp, #12
 610              		.cfi_def_cfa_offset 16
 611 0004 021C     		mov	r2, r0
 612 0006 6B46     		mov	r3, sp
 613 0008 0633     		add	r3, r3, #6
 614 000a 1A80     		strh	r2, [r3]
 615              		.loc 2 73 0
 616 000c 6B46     		mov	r3, sp
 617 000e 0633     		add	r3, r3, #6
 618 0010 1B88     		ldrh	r3, [r3]
 619 0012 181C     		mov	r0, r3
 620 0014 FFF7FEFF 		bl	stStartAlarm
 621              		.loc 2 74 0
 622 0018 03B0     		add	sp, sp, #12
 623              		@ sp needed
 624 001a 00BD     		pop	{pc}
 625              		.cfi_endproc
 626              	.LFE52:
 627              		.size	port_timer_start_alarm, .-port_timer_start_alarm
 628 001c C046C046 		.section	.text.port_timer_stop_alarm,"ax",%progbits
 629              		.align	2
 630              		.p2align 4,,15
 631              		.code	16
 632              		.thumb_func
 633              		.type	port_timer_stop_alarm, %function
 634              	port_timer_stop_alarm:
 635              	.LFB53:
 636              		.loc 2 81 0
 637              		.cfi_startproc
 638 0000 08B5     		push	{r3, lr}
 639              		.cfi_def_cfa_offset 8
 640              		.cfi_offset 3, -8
 641              		.cfi_offset 14, -4
ARM GAS  /tmp/cczbjoPn.s 			page 46


 642              		.loc 2 83 0
 643 0002 FFF7FEFF 		bl	stStopAlarm
 644              		.loc 2 84 0
 645              		@ sp needed
 646 0006 08BD     		pop	{r3, pc}
 647              		.cfi_endproc
 648              	.LFE53:
 649              		.size	port_timer_stop_alarm, .-port_timer_stop_alarm
 650 0008 C046C046 		.section	.text.port_timer_set_alarm,"ax",%progbits
 650      C046C046 
 651              		.align	2
 652              		.p2align 4,,15
 653              		.code	16
 654              		.thumb_func
 655              		.type	port_timer_set_alarm, %function
 656              	port_timer_set_alarm:
 657              	.LFB54:
 658              		.loc 2 93 0
 659              		.cfi_startproc
 660 0000 00B5     		push	{lr}
 661              		.cfi_def_cfa_offset 4
 662              		.cfi_offset 14, -4
 663 0002 83B0     		sub	sp, sp, #12
 664              		.cfi_def_cfa_offset 16
 665 0004 021C     		mov	r2, r0
 666 0006 6B46     		mov	r3, sp
 667 0008 0633     		add	r3, r3, #6
 668 000a 1A80     		strh	r2, [r3]
 669              		.loc 2 95 0
 670 000c 6B46     		mov	r3, sp
 671 000e 0633     		add	r3, r3, #6
 672 0010 1B88     		ldrh	r3, [r3]
 673 0012 181C     		mov	r0, r3
 674 0014 FFF7FEFF 		bl	stSetAlarm
 675              		.loc 2 96 0
 676 0018 03B0     		add	sp, sp, #12
 677              		@ sp needed
 678 001a 00BD     		pop	{pc}
 679              		.cfi_endproc
 680              	.LFE54:
 681              		.size	port_timer_set_alarm, .-port_timer_set_alarm
 682 001c C046C046 		.section	.text.port_timer_get_time,"ax",%progbits
 683              		.align	2
 684              		.p2align 4,,15
 685              		.code	16
 686              		.thumb_func
 687              		.type	port_timer_get_time, %function
 688              	port_timer_get_time:
 689              	.LFB55:
 690              		.loc 2 105 0
 691              		.cfi_startproc
 692 0000 08B5     		push	{r3, lr}
 693              		.cfi_def_cfa_offset 8
 694              		.cfi_offset 3, -8
 695              		.cfi_offset 14, -4
 696              		.loc 2 107 0
 697 0002 FFF7FEFF 		bl	st_lld_get_counter
ARM GAS  /tmp/cczbjoPn.s 			page 47


 698 0006 031C     		mov	r3, r0
 699              		.loc 2 108 0
 700 0008 181C     		mov	r0, r3
 701              		@ sp needed
 702 000a 08BD     		pop	{r3, pc}
 703              		.cfi_endproc
 704              	.LFE55:
 705              		.size	port_timer_get_time, .-port_timer_get_time
 706 000c C046C046 		.section	.text.chVTGetSystemTimeX,"ax",%progbits
 707              		.align	2
 708              		.p2align 4,,15
 709              		.code	16
 710              		.thumb_func
 711              		.type	chVTGetSystemTimeX, %function
 712              	chVTGetSystemTimeX:
 713              	.LFB78:
 714              		.file 3 "/home/efe/ChibiOS/os/rt/include/chvt.h"
 715              		.loc 3 228 0
 716              		.cfi_startproc
 717 0000 08B5     		push	{r3, lr}
 718              		.cfi_def_cfa_offset 8
 719              		.cfi_offset 3, -8
 720              		.cfi_offset 14, -4
 721              		.loc 3 233 0
 722 0002 FFF7FEFF 		bl	port_timer_get_time
 723 0006 031C     		mov	r3, r0
 724              		.loc 3 235 0
 725 0008 181C     		mov	r0, r3
 726              		@ sp needed
 727 000a 08BD     		pop	{r3, pc}
 728              		.cfi_endproc
 729              	.LFE78:
 730              		.size	chVTGetSystemTimeX, .-chVTGetSystemTimeX
 731 000c C046C046 		.section	.text._vt_init,"ax",%progbits
 732              		.align	2
 733              		.p2align 4,,15
 734              		.global	_vt_init
 735              		.code	16
 736              		.thumb_func
 737              		.type	_vt_init, %function
 738              	_vt_init:
 739              	.LFB119:
 740              		.file 4 "/home/efe/ChibiOS/os/rt/src/chvt.c"
 741              		.loc 4 61 0
 742              		.cfi_startproc
 743              		.loc 4 63 0
 744 0000 064B     		ldr	r3, .L13
 745 0002 074A     		ldr	r2, .L13+4
 746 0004 DA61     		str	r2, [r3, #28]
 747              		.loc 4 64 0
 748 0006 054B     		ldr	r3, .L13
 749 0008 054A     		ldr	r2, .L13+4
 750 000a 1A62     		str	r2, [r3, #32]
 751              		.loc 4 65 0
 752 000c 034B     		ldr	r3, .L13
 753 000e 0122     		mov	r2, #1
 754 0010 5242     		neg	r2, r2
ARM GAS  /tmp/cczbjoPn.s 			page 48


 755 0012 9A84     		strh	r2, [r3, #36]
 756              		.loc 4 69 0
 757 0014 014B     		ldr	r3, .L13
 758 0016 0022     		mov	r2, #0
 759 0018 DA84     		strh	r2, [r3, #38]
 760              		.loc 4 71 0
 761              		@ sp needed
 762 001a 7047     		bx	lr
 763              	.L14:
 764              		.align	2
 765              	.L13:
 766 001c 00000000 		.word	ch
 767 0020 1C000000 		.word	ch+28
 768              		.cfi_endproc
 769              	.LFE119:
 770              		.size	_vt_init, .-_vt_init
 771 0024 C046C046 		.section	.text.chVTDoSetI,"ax",%progbits
 771      C046C046 
 771      C046C046 
 772              		.align	2
 773              		.p2align 4,,15
 774              		.global	chVTDoSetI
 775              		.code	16
 776              		.thumb_func
 777              		.type	chVTDoSetI, %function
 778              	chVTDoSetI:
 779              	.LFB120:
 780              		.loc 4 96 0
 781              		.cfi_startproc
 782 0000 10B5     		push	{r4, lr}
 783              		.cfi_def_cfa_offset 8
 784              		.cfi_offset 4, -8
 785              		.cfi_offset 14, -4
 786 0002 86B0     		sub	sp, sp, #24
 787              		.cfi_def_cfa_offset 32
 788 0004 0390     		str	r0, [sp, #12]
 789 0006 0192     		str	r2, [sp, #4]
 790 0008 0093     		str	r3, [sp]
 791 000a 6B46     		mov	r3, sp
 792 000c 0A33     		add	r3, r3, #10
 793 000e 0A1C     		add	r2, r1, #0
 794 0010 1A80     		strh	r2, [r3]
 795              		.loc 4 103 0
 796 0012 039B     		ldr	r3, [sp, #12]
 797 0014 009A     		ldr	r2, [sp]
 798 0016 1A61     		str	r2, [r3, #16]
 799              		.loc 4 104 0
 800 0018 039B     		ldr	r3, [sp, #12]
 801 001a 019A     		ldr	r2, [sp, #4]
 802 001c DA60     		str	r2, [r3, #12]
 803              	.LBB2:
 804              		.loc 4 108 0
 805 001e 04AC     		add	r4, sp, #16
 806 0020 FFF7FEFF 		bl	chVTGetSystemTimeX
 807 0024 031C     		mov	r3, r0
 808 0026 2380     		strh	r3, [r4]
 809              		.loc 4 112 0
ARM GAS  /tmp/cczbjoPn.s 			page 49


 810 0028 6B46     		mov	r3, sp
 811 002a 0A33     		add	r3, r3, #10
 812 002c 1B88     		ldrh	r3, [r3]
 813 002e 042B     		cmp	r3, #4
 814 0030 03D8     		bhi	.L16
 815              		.loc 4 113 0
 816 0032 6B46     		mov	r3, sp
 817 0034 0A33     		add	r3, r3, #10
 818 0036 0522     		mov	r2, #5
 819 0038 1A80     		strh	r2, [r3]
 820              	.L16:
 821              		.loc 4 117 0
 822 003a 3F4B     		ldr	r3, .L22
 823 003c DA69     		ldr	r2, [r3, #28]
 824 003e 3F4B     		ldr	r3, .L22+4
 825 0040 9A42     		cmp	r2, r3
 826 0042 1FD1     		bne	.L17
 827              		.loc 4 121 0
 828 0044 3C4B     		ldr	r3, .L22
 829 0046 04AA     		add	r2, sp, #16
 830 0048 1288     		ldrh	r2, [r2]
 831 004a DA84     		strh	r2, [r3, #38]
 832              		.loc 4 122 0
 833 004c 3A4B     		ldr	r3, .L22
 834 004e 039A     		ldr	r2, [sp, #12]
 835 0050 DA61     		str	r2, [r3, #28]
 836              		.loc 4 123 0
 837 0052 394B     		ldr	r3, .L22
 838 0054 039A     		ldr	r2, [sp, #12]
 839 0056 1A62     		str	r2, [r3, #32]
 840              		.loc 4 124 0
 841 0058 039B     		ldr	r3, [sp, #12]
 842 005a 384A     		ldr	r2, .L22+4
 843 005c 1A60     		str	r2, [r3]
 844              		.loc 4 125 0
 845 005e 039B     		ldr	r3, [sp, #12]
 846 0060 364A     		ldr	r2, .L22+4
 847 0062 5A60     		str	r2, [r3, #4]
 848              		.loc 4 126 0
 849 0064 039B     		ldr	r3, [sp, #12]
 850 0066 6A46     		mov	r2, sp
 851 0068 0A32     		add	r2, r2, #10
 852 006a 1288     		ldrh	r2, [r2]
 853 006c 1A81     		strh	r2, [r3, #8]
 854              		.loc 4 129 0
 855 006e 324B     		ldr	r3, .L22
 856 0070 DA8C     		ldrh	r2, [r3, #38]
 857 0072 6B46     		mov	r3, sp
 858 0074 0A33     		add	r3, r3, #10
 859 0076 1B88     		ldrh	r3, [r3]
 860 0078 D318     		add	r3, r2, r3
 861 007a 9BB2     		uxth	r3, r3
 862 007c 181C     		mov	r0, r3
 863 007e FFF7FEFF 		bl	port_timer_start_alarm
 864              		.loc 4 131 0
 865 0082 56E0     		b	.L15
 866              	.L17:
ARM GAS  /tmp/cczbjoPn.s 			page 50


 867              		.loc 4 136 0
 868 0084 04AA     		add	r2, sp, #16
 869 0086 6B46     		mov	r3, sp
 870 0088 0A33     		add	r3, r3, #10
 871 008a 1288     		ldrh	r2, [r2]
 872 008c 1B88     		ldrh	r3, [r3]
 873 008e D318     		add	r3, r2, r3
 874 0090 99B2     		uxth	r1, r3
 875 0092 294B     		ldr	r3, .L22
 876 0094 DA8C     		ldrh	r2, [r3, #38]
 877 0096 6B46     		mov	r3, sp
 878 0098 1233     		add	r3, r3, #18
 879 009a 8A1A     		sub	r2, r1, r2
 880 009c 1A80     		strh	r2, [r3]
 881              		.loc 4 137 0
 882 009e 264B     		ldr	r3, .L22
 883 00a0 DB69     		ldr	r3, [r3, #28]
 884 00a2 1B89     		ldrh	r3, [r3, #8]
 885 00a4 6A46     		mov	r2, sp
 886 00a6 1232     		add	r2, r2, #18
 887 00a8 1288     		ldrh	r2, [r2]
 888 00aa 9A42     		cmp	r2, r3
 889 00ac 09D2     		bcs	.L19
 890              		.loc 4 140 0
 891 00ae 224B     		ldr	r3, .L22
 892 00b0 DA8C     		ldrh	r2, [r3, #38]
 893 00b2 6B46     		mov	r3, sp
 894 00b4 1233     		add	r3, r3, #18
 895 00b6 1B88     		ldrh	r3, [r3]
 896 00b8 D318     		add	r3, r2, r3
 897 00ba 9BB2     		uxth	r3, r3
 898 00bc 181C     		mov	r0, r3
 899 00be FFF7FEFF 		bl	port_timer_set_alarm
 900              	.L19:
 901              	.LBE2:
 902              		.loc 4 150 0
 903 00c2 1D4B     		ldr	r3, .L22
 904 00c4 DB69     		ldr	r3, [r3, #28]
 905 00c6 0593     		str	r3, [sp, #20]
 906              		.loc 4 151 0
 907 00c8 0BE0     		b	.L20
 908              	.L21:
 909              		.loc 4 152 0
 910 00ca 059B     		ldr	r3, [sp, #20]
 911 00cc 1A89     		ldrh	r2, [r3, #8]
 912 00ce 6B46     		mov	r3, sp
 913 00d0 1233     		add	r3, r3, #18
 914 00d2 6946     		mov	r1, sp
 915 00d4 1231     		add	r1, r1, #18
 916 00d6 0988     		ldrh	r1, [r1]
 917 00d8 8A1A     		sub	r2, r1, r2
 918 00da 1A80     		strh	r2, [r3]
 919              		.loc 4 153 0
 920 00dc 059B     		ldr	r3, [sp, #20]
 921 00de 1B68     		ldr	r3, [r3]
 922 00e0 0593     		str	r3, [sp, #20]
 923              	.L20:
ARM GAS  /tmp/cczbjoPn.s 			page 51


 924              		.loc 4 151 0 discriminator 1
 925 00e2 059B     		ldr	r3, [sp, #20]
 926 00e4 1B89     		ldrh	r3, [r3, #8]
 927 00e6 6A46     		mov	r2, sp
 928 00e8 1232     		add	r2, r2, #18
 929 00ea 1288     		ldrh	r2, [r2]
 930 00ec 9A42     		cmp	r2, r3
 931 00ee ECD8     		bhi	.L21
 932              		.loc 4 157 0
 933 00f0 039B     		ldr	r3, [sp, #12]
 934 00f2 059A     		ldr	r2, [sp, #20]
 935 00f4 1A60     		str	r2, [r3]
 936              		.loc 4 158 0
 937 00f6 039B     		ldr	r3, [sp, #12]
 938 00f8 1B68     		ldr	r3, [r3]
 939 00fa 5A68     		ldr	r2, [r3, #4]
 940 00fc 039B     		ldr	r3, [sp, #12]
 941 00fe 5A60     		str	r2, [r3, #4]
 942              		.loc 4 159 0
 943 0100 039B     		ldr	r3, [sp, #12]
 944 0102 5B68     		ldr	r3, [r3, #4]
 945 0104 039A     		ldr	r2, [sp, #12]
 946 0106 1A60     		str	r2, [r3]
 947              		.loc 4 160 0
 948 0108 059B     		ldr	r3, [sp, #20]
 949 010a 039A     		ldr	r2, [sp, #12]
 950 010c 5A60     		str	r2, [r3, #4]
 951              		.loc 4 161 0
 952 010e 039B     		ldr	r3, [sp, #12]
 953 0110 6A46     		mov	r2, sp
 954 0112 1232     		add	r2, r2, #18
 955 0114 1288     		ldrh	r2, [r2]
 956 0116 1A81     		strh	r2, [r3, #8]
 957              		.loc 4 165 0
 958 0118 059B     		ldr	r3, [sp, #20]
 959 011a 1A89     		ldrh	r2, [r3, #8]
 960 011c 6B46     		mov	r3, sp
 961 011e 1233     		add	r3, r3, #18
 962 0120 1B88     		ldrh	r3, [r3]
 963 0122 D31A     		sub	r3, r2, r3
 964 0124 9AB2     		uxth	r2, r3
 965 0126 059B     		ldr	r3, [sp, #20]
 966 0128 1A81     		strh	r2, [r3, #8]
 967              		.loc 4 166 0
 968 012a 034B     		ldr	r3, .L22
 969 012c 0122     		mov	r2, #1
 970 012e 5242     		neg	r2, r2
 971 0130 9A84     		strh	r2, [r3, #36]
 972              	.L15:
 973              		.loc 4 167 0
 974 0132 06B0     		add	sp, sp, #24
 975              		@ sp needed
 976 0134 10BD     		pop	{r4, pc}
 977              	.L23:
 978 0136 C046     		.align	2
 979              	.L22:
 980 0138 00000000 		.word	ch
ARM GAS  /tmp/cczbjoPn.s 			page 52


 981 013c 1C000000 		.word	ch+28
 982              		.cfi_endproc
 983              	.LFE120:
 984              		.size	chVTDoSetI, .-chVTDoSetI
 985              		.section	.text.chVTDoResetI,"ax",%progbits
 986              		.align	2
 987              		.p2align 4,,15
 988              		.global	chVTDoResetI
 989              		.code	16
 990              		.thumb_func
 991              		.type	chVTDoResetI, %function
 992              	chVTDoResetI:
 993              	.LFB121:
 994              		.loc 4 177 0
 995              		.cfi_startproc
 996 0000 00B5     		push	{lr}
 997              		.cfi_def_cfa_offset 4
 998              		.cfi_offset 14, -4
 999 0002 85B0     		sub	sp, sp, #20
 1000              		.cfi_def_cfa_offset 24
 1001 0004 0190     		str	r0, [sp, #4]
 1002              		.loc 4 201 0
 1003 0006 394B     		ldr	r3, .L31
 1004 0008 DA69     		ldr	r2, [r3, #28]
 1005 000a 019B     		ldr	r3, [sp, #4]
 1006 000c 9A42     		cmp	r2, r3
 1007 000e 1DD0     		beq	.L25
 1008              		.loc 4 203 0
 1009 0010 019B     		ldr	r3, [sp, #4]
 1010 0012 5B68     		ldr	r3, [r3, #4]
 1011 0014 019A     		ldr	r2, [sp, #4]
 1012 0016 1268     		ldr	r2, [r2]
 1013 0018 1A60     		str	r2, [r3]
 1014              		.loc 4 204 0
 1015 001a 019B     		ldr	r3, [sp, #4]
 1016 001c 1B68     		ldr	r3, [r3]
 1017 001e 019A     		ldr	r2, [sp, #4]
 1018 0020 5268     		ldr	r2, [r2, #4]
 1019 0022 5A60     		str	r2, [r3, #4]
 1020              		.loc 4 205 0
 1021 0024 019B     		ldr	r3, [sp, #4]
 1022 0026 0022     		mov	r2, #0
 1023 0028 DA60     		str	r2, [r3, #12]
 1024              		.loc 4 208 0
 1025 002a 019B     		ldr	r3, [sp, #4]
 1026 002c 1A68     		ldr	r2, [r3]
 1027 002e 304B     		ldr	r3, .L31+4
 1028 0030 9A42     		cmp	r2, r3
 1029 0032 0AD0     		beq	.L26
 1030              		.loc 4 209 0
 1031 0034 019B     		ldr	r3, [sp, #4]
 1032 0036 1A68     		ldr	r2, [r3]
 1033 0038 019B     		ldr	r3, [sp, #4]
 1034 003a 1B68     		ldr	r3, [r3]
 1035 003c 1989     		ldrh	r1, [r3, #8]
 1036 003e 019B     		ldr	r3, [sp, #4]
 1037 0040 1B89     		ldrh	r3, [r3, #8]
ARM GAS  /tmp/cczbjoPn.s 			page 53


 1038 0042 CB18     		add	r3, r1, r3
 1039 0044 9BB2     		uxth	r3, r3
 1040 0046 1381     		strh	r3, [r2, #8]
 1041              		.loc 4 211 0
 1042 0048 4EE0     		b	.L24
 1043              	.L26:
 1044 004a 4DE0     		b	.L24
 1045              	.L25:
 1046              		.loc 4 215 0
 1047 004c 019B     		ldr	r3, [sp, #4]
 1048 004e 1A68     		ldr	r2, [r3]
 1049 0050 264B     		ldr	r3, .L31
 1050 0052 DA61     		str	r2, [r3, #28]
 1051              		.loc 4 216 0
 1052 0054 254B     		ldr	r3, .L31
 1053 0056 DB69     		ldr	r3, [r3, #28]
 1054 0058 254A     		ldr	r2, .L31+4
 1055 005a 5A60     		str	r2, [r3, #4]
 1056              		.loc 4 217 0
 1057 005c 019B     		ldr	r3, [sp, #4]
 1058 005e 0022     		mov	r2, #0
 1059 0060 DA60     		str	r2, [r3, #12]
 1060              		.loc 4 220 0
 1061 0062 224B     		ldr	r3, .L31
 1062 0064 DA69     		ldr	r2, [r3, #28]
 1063 0066 224B     		ldr	r3, .L31+4
 1064 0068 9A42     		cmp	r2, r3
 1065 006a 02D1     		bne	.L28
 1066              		.loc 4 221 0
 1067 006c FFF7FEFF 		bl	port_timer_stop_alarm
 1068              		.loc 4 223 0
 1069 0070 3AE0     		b	.L24
 1070              	.L28:
 1071              		.loc 4 227 0
 1072 0072 1E4B     		ldr	r3, .L31
 1073 0074 DA69     		ldr	r2, [r3, #28]
 1074 0076 1D4B     		ldr	r3, .L31
 1075 0078 DB69     		ldr	r3, [r3, #28]
 1076 007a 1989     		ldrh	r1, [r3, #8]
 1077 007c 019B     		ldr	r3, [sp, #4]
 1078 007e 1B89     		ldrh	r3, [r3, #8]
 1079 0080 CB18     		add	r3, r1, r3
 1080 0082 9BB2     		uxth	r3, r3
 1081 0084 1381     		strh	r3, [r2, #8]
 1082              		.loc 4 236 0
 1083 0086 FFF7FEFF 		bl	chVTGetSystemTimeX
 1084 008a 031C     		mov	r3, r0
 1085 008c 191C     		mov	r1, r3
 1086 008e 174B     		ldr	r3, .L31
 1087 0090 DA8C     		ldrh	r2, [r3, #38]
 1088 0092 03AB     		add	r3, sp, #12
 1089 0094 8A1A     		sub	r2, r1, r2
 1090 0096 1A80     		strh	r2, [r3]
 1091              		.loc 4 240 0
 1092 0098 144B     		ldr	r3, .L31
 1093 009a DB69     		ldr	r3, [r3, #28]
 1094 009c 1B89     		ldrh	r3, [r3, #8]
ARM GAS  /tmp/cczbjoPn.s 			page 54


 1095 009e 03AA     		add	r2, sp, #12
 1096 00a0 1288     		ldrh	r2, [r2]
 1097 00a2 9A42     		cmp	r2, r3
 1098 00a4 00D3     		bcc	.L29
 1099              		.loc 4 241 0
 1100 00a6 1FE0     		b	.L24
 1101              	.L29:
 1102              		.loc 4 245 0
 1103 00a8 104B     		ldr	r3, .L31
 1104 00aa DB69     		ldr	r3, [r3, #28]
 1105 00ac 1989     		ldrh	r1, [r3, #8]
 1106 00ae 6B46     		mov	r3, sp
 1107 00b0 0E33     		add	r3, r3, #14
 1108 00b2 03AA     		add	r2, sp, #12
 1109 00b4 1288     		ldrh	r2, [r2]
 1110 00b6 8A1A     		sub	r2, r1, r2
 1111 00b8 1A80     		strh	r2, [r3]
 1112              		.loc 4 249 0
 1113 00ba 6B46     		mov	r3, sp
 1114 00bc 0E33     		add	r3, r3, #14
 1115 00be 1B88     		ldrh	r3, [r3]
 1116 00c0 042B     		cmp	r3, #4
 1117 00c2 03D8     		bhi	.L30
 1118              		.loc 4 250 0
 1119 00c4 6B46     		mov	r3, sp
 1120 00c6 0E33     		add	r3, r3, #14
 1121 00c8 0522     		mov	r2, #5
 1122 00ca 1A80     		strh	r2, [r3]
 1123              	.L30:
 1124              		.loc 4 253 0
 1125 00cc 074B     		ldr	r3, .L31
 1126 00ce DA8C     		ldrh	r2, [r3, #38]
 1127 00d0 03AB     		add	r3, sp, #12
 1128 00d2 1B88     		ldrh	r3, [r3]
 1129 00d4 D318     		add	r3, r2, r3
 1130 00d6 9AB2     		uxth	r2, r3
 1131 00d8 6B46     		mov	r3, sp
 1132 00da 0E33     		add	r3, r3, #14
 1133 00dc 1B88     		ldrh	r3, [r3]
 1134 00de D318     		add	r3, r2, r3
 1135 00e0 9BB2     		uxth	r3, r3
 1136 00e2 181C     		mov	r0, r3
 1137 00e4 FFF7FEFF 		bl	port_timer_set_alarm
 1138              	.L24:
 1139              		.loc 4 255 0
 1140 00e8 05B0     		add	sp, sp, #20
 1141              		@ sp needed
 1142 00ea 00BD     		pop	{pc}
 1143              	.L32:
 1144              		.align	2
 1145              	.L31:
 1146 00ec 00000000 		.word	ch
 1147 00f0 1C000000 		.word	ch+28
 1148              		.cfi_endproc
 1149              	.LFE121:
 1150              		.size	chVTDoResetI, .-chVTDoResetI
 1151 00f4 C046C046 		.text
ARM GAS  /tmp/cczbjoPn.s 			page 55


 1151      C046C046 
 1151      C046C046 
 1152              	.Letext0:
 1153              		.file 5 "/usr/include/newlib/machine/_default_types.h"
 1154              		.file 6 "/usr/include/newlib/stdint.h"
 1155              		.file 7 "/home/efe/ChibiOS/os/rt/ports/ARMCMx/compilers/GCC/chtypes.h"
 1156              		.file 8 "/home/efe/ChibiOS/os/rt/include/chsystypes.h"
 1157              		.file 9 "/home/efe/ChibiOS/os/rt/include/chschd.h"
 1158              		.file 10 "/home/efe/ChibiOS/os/rt/ports/ARMCMx/chcore.h"
 1159              		.file 11 "/home/efe/ChibiOS/os/rt/ports/ARMCMx/chcore_v6m.h"
 1160              		.file 12 "/home/efe/ChibiOS/os/hal/ports/STM32/LLD/TIMv1/stm32_tim.h"
 1161              		.file 13 "/home/efe/ChibiOS/os/rt/include/chsem.h"
 1162              		.file 14 "/home/efe/ChibiOS/os/rt/include/chmtx.h"