ARM GAS  /tmp/ccATBBUZ.s 			page 1


   1              		.cpu cortex-m0
   2              		.fpu softvfp
   3              		.eabi_attribute 20, 1
   4              		.eabi_attribute 21, 1
   5              		.eabi_attribute 23, 3
   6              		.eabi_attribute 24, 1
   7              		.eabi_attribute 25, 1
   8              		.eabi_attribute 26, 1
   9              		.eabi_attribute 30, 6
  10              		.eabi_attribute 34, 0
  11              		.eabi_attribute 18, 4
  12              		.code	16
  13              		.file	"crc.c"
  14              		.text
  15              	.Ltext0:
  16              		.section	.gnu.lto_.inline.5aa4117299bfe1f6,"",%progbits
  17 0000 789C6362 		.ascii	"x\234cb`b\300\006\222\2404\013\003\003\037/\003\003"
  17      6062C006 
  17      92A0340B 
  17      03031F2F 
  17      0303
  18 0012 93C484D3 		.ascii	"\223\304\204\323\214@\016X1#\203\2246PH\341B'\023L\210"
  18      8C400E58 
  18      31238394 
  18      365048E1 
  18      4227134C 
  19 0027 85174630 		.ascii	"\205\027F01\010\360\003I\231\015\257\340\352Y\030D\325"
  19      3108F003 
  19      49990DAF 
  19      E0EA5918 
  19      44D5
  20 0039 80426207 		.ascii	"\200Bb\007v3b\252g\000\000\266H\007\310"
  20      763362AA 
  20      670000B6 
  20      4807C8
  21              		.text
  22              		.section	.gnu.lto_reflect.5aa4117299bfe1f6,"",%progbits
  23 0000 789CB554 		.ascii	"x\234\265T\317kSA\020\236\331}?\2224i\222\246\240\202"
  23      CF6B5341 
  23      109ED97D 
  23      3F923469 
  23      92A6A082 
  24 0014 87D23FC0 		.ascii	"\207\322?\300\377@\274\212'\017-\324\203`\2155\004\252"
  24      FF40BC8A 
  24      270F2DD4 
  24      83608D35 
  24      04AA
  25 0026 42E951CC 		.ascii	"B\351Q\314K_(Vr\010\321\203\277\016-(*ZC-\224J+>A!A"
  25      4B5F2856 
  25      7208D183 
  25      BF0E2D28 
  25      2A5A432D 
  26 0041 3C081E12 		.ascii	"<\010\036\022\004\011\326\242\007\251\336\354A|\316"
  26      0409D6A2 
  26      07A9DEEC 
  26      417CCE
  27 0050 EC7BFB1A 		.ascii	"\354{\373\032=\305\203\013\231\315\316|\3377\263\263"
ARM GAS  /tmp/ccATBBUZ.s 			page 2


  27      3DC5830B 
  27      99CDCE7C 
  27      DF37B3B3 
  28 0060 6F578080 		.ascii	"oW\200\200\277\3071\372}1\000\366\361\"\016H\010\024"
  28      BFC731FA 
  28      7D3100F6 
  28      F1220E48 
  28      0814
  29 0072 68919582 		.ascii	"h\221\225\202\334\2160\311\030\006\322\204\246\362["
  29      DC8E30C9 
  29      1806D284 
  29      A6F25B
  30 0081 42B2DF66 		.ascii	"B\262\337f\277\2151\362\304\020\211\214P\022\3220-;"
  30      BF8D31F2 
  30      C410898C 
  30      5012D230 
  30      2D3B
  31 0093 86A513EC 		.ascii	"\206\245\023\354\200\304(,9N\275\373j\253\2137\256y"
  31      80C4282C 
  31      394EBDFB 
  31      6AAB8B37 
  31      AE79
  32 00a5 9545E7A7 		.ascii	"\225E\347\247\357#\0269\230G\230\240\1778\242&N\325"
  32      EF231639 
  32      984798A0 
  32      7F38A226 
  32      4ED5
  33 00b7 3B14B1E6 		.ascii	";\024\261\346\255\314\3379peq\256\346\374\"^\021e\177"
  33      ADCCDF39 
  33      706571AE 
  33      E6FC225E 
  33      11657F
  34 00ca 34E7C97D 		.ascii	"4\347\311}'\256r\311\3769\267\266\2177\235\212\347\373"
  34      27AE72C9 
  34      FE39B7B6 
  34      8F379D8A 
  34      E7FB
  35 00dc 47FE6F9E 		.ascii	"G\376o\236\367\237\3765O\335y\336\303\351\257u7\275"
  35      F79FFE35 
  35      4FDD79DE 
  35      C3E9AF75 
  35      37BD
  36 00ee 67F3AD25 		.ascii	"g\363\255%$n\371\273\357\247\373\245\325\275\037w[\275"
  36      246EF9BB 
  36      EFA7FBA5 
  36      D5BD1F77 
  36      5BBD
  37 0100 2C0171EC 		.ascii	",\001q\354\217\270{\362\272.\321\0200\274\307\212\005"
  37      8FB87BF2 
  37      BA2ED110 
  37      30BCC78A 
  37      05
  38 0111 2CFC93D5 		.ascii	",\374\223\325\020^\327\367\0375j\357\220\260\3478\323"
  38      105ED7F7 
  38      1F356AEF 
  38      90B0E738 
  38      D3
ARM GAS  /tmp/ccATBBUZ.s 			page 3


  39 0122 243EC051 		.ascii	"$>\300Q\220\341l\320\374\220f3\\[\341\332F\002\307\310"
  39      90E16CD0 
  39      FC906633 
  39      5C5BE1DA 
  39      4602C7C8 
  40 0136 601CA8C0 		.ascii	"`\034\250\300\004\0319\300&\311&\305f\220M\232\243\231"
  40      041939C0 
  40      26C926C5 
  40      66904D9A 
  40      A399
  41 0148 909CE50C 		.ascii	"\220\234\345\014C\241B\016T;H\271B\0072\022 \202\220"
  41      43A1420E 
  41      543B48B9 
  41      42073212 
  41      208290
  42 015b 6A128D31 		.ascii	"j\022\2151e\307\3712\31070\267\276\373ax\022\227\351"
  42      65C7F932 
  42      C83730B7 
  42      BEFB6178 
  42      1297E9
  43 016e 0E14D09C 		.ascii	"\016\024\320\234\010\276_\000\016\254\177l\243\216X"
  43      08BE5F00 
  43      0EAC7F6C 
  43      A38E58
  44 017d 1C899A33 		.ascii	"\034\211\2323\316\247Kdw\303\335\250\036\324\230x\001"
  44      CEA74B64 
  44      77C3DDA8 
  44      1ED49878 
  44      01
  45 018e 5109B044 		.ascii	"Q\011\260D\023*_\313\251(\024\011\357I\030A\376\035"
  45      132A5FCB 
  45      A9281409 
  45      EF491841 
  45      FE1D
  46 01a0 77AB7A54 		.ascii	"w\253zT\343\022\005\276s$|Yj\327\000y\231-}=\260\244"
  46      E31205BE 
  46      73247C59 
  46      6AD70079 
  46      992D7D3D 
  47 01b6 EADB71D7 		.ascii	"\352\333q\327\204\006%\013,G\274\205\210\227R\324\244"
  47      8406250B 
  47      2C47BC85 
  47      889752D4 
  47      A4
  48 01c7 F22EBB6B 		.ascii	"\362.\273k\321N\006\225\0302\"\224\271\244Ci\212*\374"
  48      D14E0695 
  48      18322294 
  48      B9A44369 
  48      8A2AFC
  49 01da D34825A3 		.ascii	"\323H%\243\274R\327l\006\333~\354~\253\356\327\220l"
  49      BC52D76C 
  49      06DB7EEC 
  49      7EABEED7 
  49      906C
  50 01ec B86D8910 		.ascii	"\270m\211\020\224\356\336\253\036\326\301!*L\265.\330"
  50      94EEDEAB 
  50      1ED6C121 
ARM GAS  /tmp/ccATBBUZ.s 			page 4


  50      2A4CB52E 
  50      D8
  51 01fd 7D0704A9 		.ascii	"}\007\004\251I$a\243\272z\221%\351\325\221Mx\271\375"
  51      492461A3 
  51      BA7A9125 
  51      E9D5914D 
  51      78B9FD
  52 0210 E2EA7C54 		.ascii	"\342\352|T\243\241\332\000!\205\320\266 \22357WOu@\322"
  52      A3A1DA00 
  52      2185D0B6 
  52      20933537 
  52      574F7540 
  53 0225 3989CD06 		.ascii	"9\211\315\006\265J\230\330\001\302Z\342\366\3124\345"
  53      B54A98D8 
  53      01C25AE2 
  53      F6CA34E5 
  54 0235 32DB362B 		.ascii	"2\3336+\332Ac[\355\317\031-\230\353\331\003)\313\327"
  54      DA41635B 
  54      EDCF192D 
  54      98EBD903 
  54      29CBD7
  55 0248 50A6E90C 		.ascii	"P\246\351\014\177\003o!J\233\013 c\374\342\361cj\345"
  55      7F036F21 
  55      4A9B0B20 
  55      63FCE2F1 
  55      636AE5
  56 025b 67F287F2 		.ascii	"g\362\207\362\220\230\231:;=\225\237-^8/O\027g\177\003"
  56      9098993A 
  56      3B3D959F 
  56      2D5E382F 
  56      4F17677F 
  57 0270 242F19B6 		.ascii	"$/\031\266"
  58              		.text
  59              		.section	.gnu.lto_crcSlow.5aa4117299bfe1f6,"",%progbits
  60 0000 789CB555 		.ascii	"x\234\265UMh\\U\024>\347\276\377y\223f\332\264i\246"
  60      4D685C55 
  60      143EE7BE 
  60      FF799366 
  60      DAB469A6 
  61 0014 4DD2E9B8 		.ascii	"M\322\351\270\261\233\250\335\010n\272\025\334Th .\323"
  61      B19BA8DD 
  61      086EBA15 
  61      DC546820 
  61      2ED3
  62 0026 6918066C 		.ascii	"i\030\006l\027\241\033Q\310Mg\240!J\023k,Z+$\256\006"
  62      17A11B51 
  62      C84D67A0 
  62      214A136B 
  62      2C5A2B24 
  63 003c 4CD3E0C6 		.ascii	"L\323\340\306\244cq,J\202R\254\253\220]\300\026\027"
  63      A463712C 
  63      4A8252AC 
  63      AB905DC0 
  63      1617
  64 004e 0941056D 		.ascii	"\011A\005m\254\305\3479\367\276\373&\011\205>+}0\347"
  64      ACC5E739 
  64      F7BEFB26 
ARM GAS  /tmp/ccATBBUZ.s 			page 5


  64      09853E2B 
  64      7D30E7
  65 0061 BC7BCEF9 		.ascii	"\274{\316\371\316\377}#@\300\356\347M\372\315\004\000"
  65      CEFF7D23 
  65      40C0EEE7 
  65      4DFACD04 
  65      00
  66 0072 AFF0A10D 		.ascii	"\257\360\241\015\220,P`\206\250\205>Q[8\000R\270Dl\007"
  66      902C5060 
  66      86A8853E 
  66      515B3800 
  66      52B8446C 
  67 0087 3D92B88A 		.ascii	"=\222\270\212zJ\353\013\233\265\001k\003\205\312\010"
  67      7A4AEB0B 
  67      9BB5016B 
  67      0385CA08 
  68 0097 8B25214B 		.ascii	"\213%!KB\314\222$\213H\256\021F\204e;\256\347\007\231"
  68      42CC9224 
  68      8B48AE11 
  68      4684653B 
  68      AEE70799 
  69 00ab 308B236F 		.ascii	"0\213#o\260\020:\2130#\345\345\265\357\036l\211\217"
  69      B0103A8B 
  69      3023E5E5 
  69      B5EF1E6C 
  69      898F
  70 00bd A79AB569 		.ascii	"\247\232\265i\371(\212\020+H\231\006\010%\204\001:`"
  70      F9288A10 
  70      2B489906 
  70      08258401 
  70      3A60
  71 00cf 4131B077 		.ascii	"A1\260w\246\256\261\362\213\272\014\024\316\252p\366"
  71      A6AEB1F2 
  71      8BBA0C14 
  71      CEAA70F6 
  72 00df A9307375 		.ascii	"\2510sui\031\214\325\302\370\032\203O\214c\247\214\363"
  72      69198CD5 
  72      C2F81A83 
  72      4F8C63A7 
  72      8CF3
  73 00f1 3498FF9E 		.ascii	"4\230\377\236\333\244\\\271\177rY\326\232Qt\242\202"
  73      DBA45CB9 
  73      7F7259D6 
  73      9A5174A2 
  73      82
  74 0102 4EAA3893 		.ascii	"N\2528\223;rK\213YY;Y7q\334\026&\2471\342\261\230\371"
  74      3B724B8B 
  74      59593B59 
  74      3771DC16 
  74      26A731E2 
  75 0119 BA744C1C 		.ascii	"\272tL\034W@\016\237\002\226.T\363\267\245\251\256\361"
  75      57400E9F 
  75      02962E54 
  75      F3B7A5A9 
  75      AEF1
  76 012b E9D149F9 		.ascii	"\351\321I\371\017m\221\212\326\235.Z\363\217\213\263"
  76      0F6D918A 
ARM GAS  /tmp/ccATBBUZ.s 			page 6


  76      D69D2E5A 
  76      F38F8BB3 
  77 013b F9F1E90B 		.ascii	"\371\361\351\013\006\371,{\370\340\377\3660\025\346"
  77      06F92C7B 
  77      F8E0FFF6 
  77      3015E6
  78 014a 6AF3D3EF 		.ascii	"j\363\323\357o\317\240\034\227\243\277FQ{\205/m\012"
  78      6FCFA01C 
  78      97A3BF46 
  78      517B852F 
  78      6D0A
  79 015c D865D9B8 		.ascii	"\330e\331\270\327Z\245g\270\346\315\017.^\351\222\255"
  79      D75AA567 
  79      B8E6CD0F 
  79      2E5EE992 
  79      AD
  80 016d 5979029E 		.ascii	"Yy\002\236O9\253\017\227\246\362r\333\254\004\034O\367"
  80      4F39AB0F 
  80      97A6F272 
  80      DBAC041C 
  80      4FF7
  81 017f A9685E59 		.ascii	"\251h^Y\012\347\345\230\214\242\021\272Z\002^\306'\334"
  81      0AE7E598 
  81      8CA211BA 
  81      5A025EC6 
  81      27DC
  82 0191 AE1BA2B9 		.ascii	"\256\033\242\271\026E\357-\326n\037{\016a\020\277\304"
  82      1645EF2D 
  82      D66E1F7B 
  82      0E6110BF 
  82      C4
  83 01a2 22E5A4B9 		.ascii	"\"\345\244\271\025s\233\370\"q\207x\203\270\033\313"
  83      15739BF8 
  83      22718778 
  83      83B81BCB 
  84 01b2 BD58EEE3 		.ascii	"\275X\356\343Y\204\200\0163t\310\320\001C\240\017U\226"
  84      5984800E 
  84      3374C8D0 
  84      0143A00F 
  84      5596
  85 01c4 88D546C4 		.ascii	"\210\325F\304\336\303\244\235\2179\"\316^&\373\210\270"
  85      DEC3A49D 
  85      8F3922CE 
  85      5E26FB88 
  85      B8
  86 01d5 1D04FA9C 		.ascii	"\035\004\372\234@\373\371p v\333\031\2079H|\216x\027"
  86      40FBF970 
  86      2076DB19 
  86      8739487C 
  86      8E7817
  87 01e8 9BE7991C 		.ascii	"\233\347\231\034b\263\303L\272c\333\236\230\367\306"
  87      62B3C34C 
  87      BA63DB9E 
  87      98F7C6
  88 01f7 9823714A 		.ascii	"\230#qJ\005\216x\224I\021\324bP\3625\352lA\233k#\015"
  88      058E7894 
  88      4911D462 
ARM GAS  /tmp/ccATBBUZ.s 			page 7


  88      50F235EA 
  88      6C419B6B 
  89 020d 51C3A4E7 		.ascii	"Q\303\244\347\224\242\375\374\201\265\356\300\205\205"
  89      94A2FDFC 
  89      81B5EEC0 
  89      8585
  90 021b 85DFD7C4 		.ascii	"\205\337\327\304 \336\242\245/\243\313\255c/\2404\177"
  90      20DEA2A5 
  90      2FA3CBAD 
  90      632FA034 
  90      7F
  91 022c 6EA1D178 		.ascii	"n\241\321x\003\372.\351\247\237?g\214\336\254\376}\351"
  91      03FA2EE9 
  91      A79F3F67 
  91      8CDEACFE 
  91      7DE9
  92 023e 05631394 		.ascii	"\005c\023\224ye\356@\365]\313\210\3022fH\241\374\335"
  92      7965EE40 
  92      F55DCB88 
  92      C2326648 
  92      A1FCDD
  93 0251 748C34FB 		.ascii	"t\2144\373\011\\%w\026\351\331\255\331\015\366\227 "
  93      095C2577 
  93      16E9D9AD 
  93      D90DF697 
  93      20
  94 0262 DBCAFC97 		.ascii	"\333\312\374\227\363#$\240=o\303C\232x\256\202~\011"
  94      F32324A0 
  94      3D6FC343 
  94      9A78AE82 
  94      7E09
  95 0274 F574C98A 		.ascii	"\365t\311\212\361\226O\265\353\030\353\011\276\235\020"
  95      F1964FB5 
  95      EB18EB09 
  95      BE9D10
  96 0283 DA65752E 		.ascii	"\332eu.\021\346H\2562\274\236\210\366\222T\325\346\353"
  96      11E648AE 
  96      32BC9E88 
  96      F69254D5 
  96      E6EB
  97 0295 0CD6AB73 		.ascii	"\014\326\253sI\321\373H\275+\255\2162\227N\036n&\242"
  97      49D1FB48 
  97      BD2BAD8E 
  97      32974E1E 
  97      6E26A2
  98 02a8 FDCAB063 		.ascii	"\375\312\260c\227\341\001R\3506n=\274\2334\2703\316"
  98      97E10152 
  98      E8366E3D 
  98      BC9B34B8 
  98      33CE
  99 02ba D7B4D136 		.ascii	"\327\264\3216m\374y\342\230\2619X\346\216,\303\267\367"
  99      6DFC79E2 
  99      98B13958 
  99      E68E2CC3 
  99      B7F7
 100 02cc 475F4F64 		.ascii	"G_Od\214s\267/t?OCc\327'\006\214]\227\302\356(0ORU "
 100      8C73B72F 
ARM GAS  /tmp/ccATBBUZ.s 			page 8


 100      743F4F43 
 100      63D72706 
 100      8C5D97C2 
 101 02e7 9A023793 		.ascii	"\232\0027\223\002\017\221zW5\207I\232\207\217d]\336"
 101      020F917A 
 101      57358749 
 101      9A878F64 
 101      5DDE
 102 02f9 7DFFB347 		.ascii	"}\377\263G\021F\372\231\360t\374\0355v\223\271\311\306"
 102      1146FA99 
 102      F074FC1D 
 102      357693B9 
 102      C9C6
 103 030b 55D954AF 		.ascii	"U\331T\257W\377j7\352\036JF-\024&9{\332j\254zc\342U"
 103      57FF6A37 
 103      EA1E4A46 
 103      2D142639 
 103      7BDA6AAC 
 104 0323 63D65B46 		.ascii	"c\326[FG\265%\322v\253\200\344\332\231\375z\203x\217"
 104      47B525D2 
 104      76AB80E4 
 104      DA99FD7A 
 104      83788F
 105 0336 7BEF0403 		.ascii	"{\357\004\003\251e\3262\3246\276YY\312\032\240F\265"
 105      A965D632 
 105      D436BE59 
 105      59CA1AA0 
 105      46B5
 106 0348 5AB20A82 		.ascii	"Z\262\012\202\372nm4f\011HQW\301\241\216[_\335\252\323"
 106      FA6E6D34 
 106      66094851 
 106      57C1A18E 
 106      5B5FDDAA 
 107 035d B9D71B0B 		.ascii	"\271\327\033\013\330Q`2\370\345\322k\306\321\021Z\334"
 107      D8516032 
 107      F8E5D26B 
 107      C6D1115A 
 107      DC
 108 036e A4453AD1 		.ascii	"\244E:\321\214\212G#\010\215\221]F\277\025\211v\327"
 108      8C8A4723 
 108      088D915D 
 108      46BF1589 
 108      76D7
 109 0380 15D716E7 		.ascii	"\025\327\026\347\311\263\010(\022i=q\255\361\0169\013"
 109      C9B30828 
 109      12693D71 
 109      ADF10E39 
 109      0B
 110 0391 1654A0D0 		.ascii	"\026T\240\320\214\2471\325c|\024\324\366l[\352\243\217"
 110      8CA731D5 
 110      637C14D4 
 110      F66C5BEA 
 110      A38F
 111 03a3 5BEA82AA 		.ascii	"[\352\202\252+\227,\365f\265\323\330\027\011bR\244\353"
 111      2B972CF5 
 111      66B5D3D8 
 111      17096252 
ARM GAS  /tmp/ccATBBUZ.s 			page 9


 111      A4EB
 112 03b5 61FD00A3 		.ascii	"a\375\000\243\224\324\031\036\372O\220\214\265\250M"
 112      94D4191E 
 112      FA4F908C 
 112      B5A84D
 113 03c4 4EB147BE 		.ascii	"N\261G\276\\ni\270\324W\002\367\364[\347\207\372^\014"
 113      5C6E69B8 
 113      D45702F7 
 113      F45BE787 
 113      FA5E0C
 114 03d7 8787CE0E 		.ascii	"\207\207\316\016V\316\235\031\032\356{i\333\373\361"
 114      56CE9D19 
 114      1AEE7B69 
 114      DBFBF1
 115 03e6 2079B7D9 		.ascii	" y\267\331\320:]9\377/|H,p"
 115      D03A5D39 
 115      FF2F7C48 
 115      2C70
 116              		.text
 117              		.section	.gnu.lto_crcInit.5aa4117299bfe1f6,"",%progbits
 118 0000 789C8D54 		.ascii	"x\234\215TML\023Q\020\236yo\177\273\005\212\211\002"
 118      4D4C1351 
 118      109E796F 
 118      7FBB058A 
 118      8902
 119 0012 27091735 		.ascii	"'\011\0275F.^\274y\365\250\021\022\274h\260m\232\036"
 119      462E5EBC 
 119      79F5A811 
 119      12BC68B0 
 119      6D9A1E
 120 0025 E0408C17 		.ascii	"\340@\214\027\017\274\262=4(\001\032\"D/\210\227\306"
 120      0FBCB23D 
 120      3428011A 
 120      22442F88 
 120      97C6
 121 0037 14356A94 		.ascii	"\0245j\224\240\2115\361\200\022\0229I\203\304j\202\007"
 121      A08935F1 
 121      80121239 
 121      4983C46A 
 121      8207
 122 0049 F9B99A18 		.ascii	"\371\271\232\030t\235\267ow\013\304C'\351\314\356\314"
 122      749DB76F 
 122      770BC443 
 122      27E9CCEE 
 122      CC
 123 005a F7CD9BF7 		.ascii	"\367\315\233\367\275\267e\300\340\260\245\351wU\007"
 123      BDB765C0 
 123      E0B0A5E9 
 123      775507
 124 0069 382D5FE2 		.ascii	"8-_\342\200\204@\2061\362\034-\362\032\243\242`\006"
 124      80844086 
 124      31F21C2D 
 124      F21AA3A2 
 124      6006
 125 007b 394D4793 		.ascii	"9MG\2232\206\357M\277j1MVmY\265}V\214q\231qd\306A\244"
 125      3286EF4D 
 125      BF6A314D 
ARM GAS  /tmp/ccATBBUZ.s 			page 10


 125      566D59B5 
 125      7D568C71 
 126 0095 A608C38C 		.ascii	"\246\010\303\214k\272aZv\314\301\341+2\007v\027<\020"
 126      6BBA615A 
 126      76CCC1E1 
 126      2B320776 
 126      173C10
 127 00a8 A258DB7C 		.ascii	"\242X\333|Ye3S\225\221Y\261\347y\210YYL\"\364\321\023"
 127      59653353 
 127      959159B1 
 127      E7798859 
 127      594C22F4 
 128 00be 26FCC00E 		.ascii	"&\374\300\016\315\354\023'*\353\313S\355\243\263\271"
 128      CDEC1327 
 128      2AEBCB53 
 128      EDA3B3B9 
 129 00ce 09F19778 		.ascii	"\011\361\227xY\344\014ll\214\371\365v\271ctv$dj\365"
 129      59E40C6C 
 129      6C8CF9F5 
 129      76B96374 
 129      7624646A 
 130 00e3 053B154D 		.ascii	"\005;\025M\373\037M<+\011\333\237\2227\316\371U\273"
 130      FB1F4D3C 
 130      2B09DB9F 
 130      9237CEF9 
 130      55BB
 131 00f5 5812F98A 		.ascii	"X\022\371\212\347\235\247\011\033\333\230xZ\022z\270"
 131      E79DA709 
 131      1BDB9878 
 131      5A127AB8 
 132 0105 4E639C62 		.ascii	"Nc\234b\345\317\350x\273\250\213\24138\332\240\030\336"
 132      E5CFE878 
 132      BBA88BA1 
 132      3338DAA0 
 132      18DE
 133 0117 C7B10EB1 		.ascii	"\307\261\016\261O\014\006\307\261\221\275\025+\223\313"
 133      4F0C06C7 
 133      B191BD15 
 133      2B93CB
 134 0126 536DA226 		.ascii	"Sm\242&B\246\301\340d\235i)&\036d>a\225\232\347}\371"
 134      42A6C1E0 
 134      649D6929 
 134      261E643E 
 134      61959AE7 
 135 013c 9CFF79EE 		.ascii	"\234\377y\356\010B?\226\260\213n\244\212\234\342#\212"
 135      08423F96 
 135      B08B6EA4 
 135      8A9CE223 
 135      8A
 136 014d 1AC53245 		.ascii	"\032\3052E=x7\200\356\204\031\200\254\240hS\234\243"
 136      3D783780 
 136      EE841980 
 136      ACA06853 
 136      9CA3
 137 015f 18A3A2E6 		.ascii	"\030\243\242\346H\027'\307\233\244k\016\260-AL\004\234"
 137      481727C7 
 137      9BA46B0E 
ARM GAS  /tmp/ccATBBUZ.s 			page 11


 137      B02D414C 
 137      049C
 138 0171 D6A02199 		.ascii	"\326\240!\231\016y\332{\247\252\253\254\302\370r\223"
 138      0E79DA7B 
 138      A7AAABAC 
 138      C2F87293 
 139 0181 F5F8BE57 		.ascii	"\365\370\276W~\014|\005F\026\326\236WY?>F\0352\250\367"
 139      7E0C7C05 
 139      4616D69E 
 139      57593F3E 
 139      461D32A8 
 140 0196 A94BA3AC 		.ascii	"\251K\243\254W\236\221\304l\271;\307B\210\221\221\331"
 140      579E91C4 
 140      6CB93BC7 
 140      42889191 
 140      D9
 141 01a7 1570E779 		.ascii	"\025p\347y\2302)+\211:}5 [\316,\256F--Y1\254\250\245"
 141      9832292B 
 141      893A7D35 
 141      205BCE2C 
 141      AE462D2D 
 142 01c0 A65AEEBA 		.ascii	"\246Z\356\272\257\246O\205\030;#\247Y\202\367\233\271"
 142      AFA64F85 
 142      183B23A7 
 142      5982F79B 
 142      B9
 143 01d1 4B514EF2 		.ascii	"KQN\362\370~\205{)\037p\337N\367\205\270\230\317=0\217"
 143      F87E857B 
 143      291F70DF 
 143      4EF785B8 
 143      98CF3D30 
 144 01e6 43597F23 		.ascii	"CY\177#\250\346\331rw1\254\305\251\354\303\027#x\023"
 144      A8E6D972 
 144      7731ACC5 
 144      A9ECC317 
 144      237813
 145 01f9 653B6046 		.ascii	"e;`F\224\304\247\311\271=\017=e\343\246Z_.\030a\233"
 145      94C4A7C9 
 145      B93D0F3D 
 145      65E3A65A 
 145      5F2E1861 
 146 020e 091E4E63 		.ascii	"\011\036Nc\370\323\270\363\356N[Xn\241a|%0\232\331T"
 146      F8D3B8F3 
 146      EE4E5B58 
 146      6EA1617C 
 146      25309AD9 
 147 0223 A882FB70 		.ascii	"\250\202\373p\372B\010KdP\363e\361\024\256\012H\255"
 147      FA42084B 
 147      6450F365 
 147      F114AE0A 
 147      48AD
 148 0235 F5BD8D6D 		.ascii	"\365\275\215m\212-\306\213k\222H\222\361%\310o\277["
 148      8A2DC68B 
 148      6B924892 
 148      F125C86F 
 148      BF5B
 149 0247 5D8E8744 		.ascii	"]\216\207D\305\252KR\005F\362\3637\353e\"\322\337V\025"
ARM GAS  /tmp/ccATBBUZ.s 			page 12


 149      C5AA4B52 
 149      0546F2F3 
 149      37EB6522 
 149      D2DF5615 
 150 025b 34529CDF 		.ascii	"4R\234\337\331(\321{\302,\330\262\221\255T\373\260\366"
 150      D928D17B 
 150      C22CD8B2 
 150      91AD54FB 
 150      B0F6
 151 026d FD5BB08F 		.ascii	"\375[\260\2173P\026d\227i\320\373p/'D\"\213\346-\370"
 151      33501664 
 151      9769D0FB 
 151      702F2744 
 151      228BE62D 
 152 0282 2D0AF2C9 		.ascii	"-\012\362\311\032\360\247\222K\251c\313D\347\020j]p"
 152      1AF0A792 
 152      4BA963CB 
 152      44E7106A 
 152      5D70
 153 0294 5FDF8D4E 		.ascii	"_\337\215N\240\225\352\221\334j\32315\373\217\234\023"
 153      A095EA91 
 153      DC6AD331 
 153      35FB8F9C 
 153      13
 154 02a5 8214C2C3 		.ascii	"\202\024\302\303}\243s\272olA\247\006v\301\221,r|\025"
 154      7DA373BA 
 154      6F6C41A7 
 154      0676C191 
 154      2C727C15 
 155 02b9 72B5B113 		.ascii	"r\265\261\023\212\025Z\217\374\253\225\237\270\221\034"
 155      8A155A8F 
 155      FCAB959F 
 155      B8911C
 156 02c8 4A7627C1 		.ascii	"Jv'\301\031J\017\364g\007S\351\241\356\263v\364l\245"
 156      194A0FF4 
 156      670753E9 
 156      A1EEB376 
 156      F46CA5
 157 02db B237B3A9 		.ascii	"\2627\263\251\364`\212_\317\336\370\007\363\227@\344"
 157      F4608A5F 
 157      CFDEF807 
 157      F39740E4 
 158              		.text
 159              		.section	.gnu.lto_crcFast.5aa4117299bfe1f6,"",%progbits
 160 0000 789CB554 		.ascii	"x\234\265T\315KTQ\024?\347\335\367\346\303\361c\374"
 160      CD4B5451 
 160      143FE7DD 
 160      F7E6C3F1 
 160      63FC
 161 0012 1875B448 		.ascii	"\030u\264Hl\323\242\204 \202\026\321\037\320\306\205"
 161      6CD3A284 
 161      208216D1 
 161      1FD0C685 
 162 0022 82419B69 		.ascii	"\202A\233i\224a\026\266\020!\372 \3578\023\210AHI\220"
 162      946116B6 
 162      1021FA20 
 162      EF381388 
ARM GAS  /tmp/ccATBBUZ.s 			page 13


 162      41484990 
 163 0036 99292D9A 		.ascii	"\231)-\232M&\021!J8E\013)T\332%T\030\330\312\260\017"
 163      4D261121 
 163      4A38450B 
 163      2954DA25 
 163      5418D8CA 
 164 004c 30B0A2D7 		.ascii	"0\260\242\3279\367\315}3J\340C\352\301\2347\347\334"
 164      39F7CD7D 
 164      334AE043 
 164      EAC19C37 
 164      E7DC
 165 005e F3FBDD73 		.ascii	"\363\373\335s\356\357\334g\200\001\333\237\243\364;"
 165      EEEFDC67 
 165      8001DB9F 
 165      A3F43B
 166 006d 1C00D8CF 		.ascii	"\034\000\330\317\216\037\2202\320@\223\254P\3264\004"
 166      8E1F9032 
 166      D04093AC 
 166      50D63404 
 167 007d 80342C32 		.ascii	"\2004,2\246\205>\212\370\020)\025\241\317\020\246\345"
 167      A6853E8A 
 167      F8102915 
 167      A1CF10A6 
 167      E5
 168 008e C3BE53EC 		.ascii	"\303\276S\354B\244\031&\244\274\276r\345\3333\343\326"
 168      42A41926 
 168      A4BCBE72 
 168      E5DB33E3 
 168      D6
 169 009f 702E332E 		.ascii	"p.3.\177\3316b\022i\317 B\034\241\203\034lR/0\267\026"
 169      7FD93662 
 169      1269CF20 
 169      421CA183 
 169      1C6C522F 
 170 00b6 E160E5A3 		.ascii	"\341`\345\243\254\014*\234Hr\035\2360\223Y)4F\0240\001"
 170      AC0C2A9C 
 170      48721D9E 
 170      30935929 
 170      34461430 
 171 00cb 07833BEE 		.ascii	"\007\203;\356cz\334g7\230\335\324\366t\2455+39\333>"
 171      637ADC67 
 171      3798DDD4 
 171      F674A535 
 171      2B3339DB 
 172 00e0 9144AB80 		.ascii	"\221D\253\200\011;\030\343\037\3553\224\273\2614\032"
 172      093B18E3 
 172      1FED3394 
 172      BBB1341A 
 173 00f0 1D1CEF1F 		.ascii	"\035\034\357\037\222\277I\246$\013\353\251\245\251\254"
 173      92BF49A6 
 173      240BEBA9 
 173      A5A9AC
 174 00ff B4F456DE 		.ascii	"\264\364V\336\312\033\222sE-\371=bf?\266\316k\214\267"
 174      CA1B9273 
 174      452DF93D 
 174      62663FB6 
 174      CE6B8CB7 
ARM GAS  /tmp/ccATBBUZ.s 			page 14


 175 0113 DA86B648 		.ascii	"\332\206\266H\344\025\263\233\332\212\317\300\033f$"
 175      E415B39B 
 175      DA8ACFC0 
 175      1B6624
 176 0122 7777E9F9 		.ascii	"ww\351\371\004\312A\231\372b\333\025I\222\306\233\262"
 176      04CA4199 
 176      FA62DB15 
 176      4992C69B 
 176      B2
 177 0133 B3AB8563 		.ascii	"\263\253\205c\370\217\223\232{w\355f\275\034O\351i\010"
 177      F88F939A 
 177      7B77ED66 
 177      BD1C4FE9 
 177      6908
 178 0145 1810464F 		.ascii	"\030\020FO\025\346\336/\206\246\344\200\264\355>\232"
 178      15E6DE2F 
 178      86A6E480 
 178      B4ED3E9A 
 179 0155 3D031AD0 		.ascii	"=\003\032\320\333\370}]\034\216\312\242\3613`\337N\037"
 179      DBF87D5D 
 179      1C8ECAA2 
 179      F13360DF 
 179      4E1F
 180 0167 8987466E 		.ascii	"\211\207Fn\305\266\337nd^\036\337\203\020\303\307\330"
 180      C5B6DF6E 
 180      645E1EDF 
 180      8310C3C7 
 180      D8
 181 0178 4C35C570 		.ascii	"L5\305p\232\336\"\357\233y\337\302n\004\0379\023\344"
 181      9ADE22EF 
 181      9B79DFC2 
 181      6E041F39 
 181      13E4
 182 018a F8C9A16A 		.ascii	"\370\311\241j\350\233\022$#J\310\230!6\245\354\226\221"
 182      E89B1224 
 182      234AC898 
 182      2136A5EC 
 182      9691
 183 019c B1CAF95F 		.ascii	"\261\312\371_\005\345?\241\37409\276J\016W\221\361W"
 183      05E53FA1 
 183      FC3039BE 
 183      4A0E5791 
 183      F157
 184 01ae B35BC326 		.ascii	"\263[\303&\302n-\233\272\374~\365\371\375\242L\327\300"
 184      C26E2D9B 
 184      BAFC7EF5 
 184      F9FDA24C 
 184      D7C0
 185 01c0 A61194BA 		.ascii	"\246\021\224\272`A\206\372lr\322\034^'U)BO\233\262\355"
 185      604186FA 
 185      6C72D21C 
 185      5E275529 
 185      424F9BB2 
 186 01d5 FCA1130B 		.ascii	"\374\241\023\013\320?\375f\355\203\021\303\031\272U"
 186      D03FFD66 
 186      ED8311C3 
 186      19BA55
ARM GAS  /tmp/ccATBBUZ.s 			page 15


 187 01e4 0914DC3F 		.ascii	"\011\024\334?\263\200Z\371\274\211z\305\354p.\253\363"
 187      B3805AF9 
 187      BC897AC5 
 187      EC702EAB 
 187      F3
 188 01f5 B4F37567 		.ascii	"\264\363ug\364z\372\336\330\001\235\343K0\351\002\244"
 188      F47AFADE 
 188      D8019DE3 
 188      4B30E902 
 188      A4
 189 0206 AF0A1D0A 		.ascii	"\257\012\035\012$\320\237`\034\345\316X:\032\274\015"
 189      24D09F60 
 189      1CE5CE58 
 189      3A1ABC0D 
 190 0216 23442768 		.ascii	"#D'h\235i\265\300\314\347\"K(\015`\011\\P\350\"\374"
 190      9D69B5C0 
 190      CCE7224B 
 190      280D6009 
 190      5C50E822 
 191 022b 20C1C349 		.ascii	" \301\303I\014\306\321\021\227\262\030/\370\214K\024"
 191      0CC6D111 
 191      97B2182F 
 191      F88C4B14 
 192 023b 7ECDC597 		.ascii	"~\315\305\227\022B\0253\231\276\240ce\011D\325G\000"
 192      12421533 
 192      99BEA063 
 192      650944D5 
 192      4700
 193 024d B66597D3 		.ascii	"\266e\227\323\242\312\236qC\025\212\243\334)+}\177\354"
 193      A2CA9E71 
 193      43158AA3 
 193      DC292B7D 
 193      7FEC
 194 025f 985E08D3 		.ascii	"\230^\010\323\232\212\236\326\221\312Cp\220\316\215"
 194      9A8A9ED6 
 194      91CA4370 
 194      90CE8D
 195 026e BA4A492E 		.ascii	"\272JI.\260Pji\267\352\2167-\315\227\034v\007K\021_"
 195      B0506A69 
 195      B7EA8E37 
 195      2DCD971C 
 195      76074B11 
 196 0283 D62455C4 		.ascii	"\326$U\304\223\217}w\005\251Np\253T\327\003\267\256"
 196      938F7D77 
 196      05A94E70 
 196      AB54D703 
 196      B7AE
 197 0295 1A8A6E69 		.ascii	"\032\212ni\242@\021\241\325m]\324*\342\310\266\303\255"
 197      A24011A1 
 197      D56D5DD4 
 197      2AE2C8B6 
 197      C3AD
 198 02a7 A3059538 		.ascii	"\243\005\2258\220\376y\347\244\216\326\223~\212\031"
 198      90FE79E7 
 198      A48ED693 
 198      7E8A19
 199 02b6 5D99E92A 		.ascii	"]\231\351*\210yx\3611\025\322IF\202\277\277\316\263"
ARM GAS  /tmp/ccATBBUZ.s 			page 16


 199      887978F1 
 199      3115D249 
 199      4682BFBF 
 199      CEB3
 200 02c8 0C483363 		.ascii	"\014H3c|\332\230\242w\235\030\335\274\264\014\264n\032"
 200      7CDA98A2 
 200      779D18DD 
 200      BCB40CB4 
 200      6E1A
 201 02da ABE7884D 		.ascii	"\253\347\210ML\007\231\302\322\22327\266W\223DU[E\342"
 201      4C0799C2 
 201      D2933237 
 201      B6579344 
 201      555B45E2 
 202 02ee 36FC4DDC 		.ascii	"6\374M\334\250\0227\354\212\273\236\256\325\371\215"
 202      A81237EC 
 202      8ABB9EAE 
 202      D5F98D
 203 02fd 04D135D2 		.ascii	"\004\3215\322t\211W\220\242\343\350\344\261|\015\356"
 203      74895790 
 203      A2E3E8E4 
 203      B17C0DEE 
 204 030d D0363A29 		.ascii	"\3206:)m\314\3102\370\342=\361\2268\370\316\234\357"
 204      6DCCC832 
 204      F8E23DF1 
 204      9638F8CE 
 204      9CEF
 205 031f ED6A3912 		.ascii	"\355j9\022\354\351\352\216%\317vv\365\230\235\261\336"
 205      ECE9EA8E 
 205      25CF7676 
 205      F5989DB1 
 205      DE
 206 0330 98C9D13F 		.ascii	"\230\311\321?;\207\314\206"
 206      3B87CC86 
 207              		.text
 208              		.section	.gnu.lto_.symbol_nodes.5aa4117299bfe1f6,"",%progbits
 209 0000 789C6362 		.ascii	"x\234cb`bH`\200\002&\206z\006\206\011\347\030\030\352"
 209      60624860 
 209      80022686 
 209      7A068609 
 209      E71818EA 
 210 0014 EBAF7424 		.ascii	"\353\257t$21\3263By\327:\030\231\230\353\231\020<V&"
 210      3231D633 
 210      4279D73A 
 210      189998EB 
 210      99103C56 
 211 0029 06F67A06 		.ascii	"\006\366z\006&\226zf\204\0303#\003\303\241\207\377\300"
 211      26967A66 
 211      84183323 
 211      03C3A187 
 211      FFC0
 212 003b 7453FF1B 		.ascii	"tS\377\033yf\026(\037Dw\277\221g\000\000G\341\034\034"
 212      79661628 
 212      1F4477BF 
 212      91670000 
 212      47E11C1C 
 213              		.text
ARM GAS  /tmp/ccATBBUZ.s 			page 17


 214              		.section	.gnu.lto_.refs.5aa4117299bfe1f6,"",%progbits
 215 0000 789C6362 		.ascii	"x\234cb`b\340d\200\000F&FfF\026\006f\006\000\001K\000"
 215      6062E064 
 215      80004626 
 215      46664616 
 215      06660600 
 216 0017 1D       		.ascii	"\035"
 217              		.text
 218              		.section	.gnu.lto_.decls.5aa4117299bfe1f6,"",%progbits
 219 0000 789C9555 		.ascii	"x\234\225U1L\024A\024\3753\273\334\261p\236PHh\014\033"
 219      314C1441 
 219      14FD33BB 
 219      DCB1709E 
 219      5048680C 
 220 0015 A3C65050 		.ascii	"\243\306PPZR`T,\264Q\022\033\212\3458\225\0041\3416"
 220      5A526054 
 220      2CB45112 
 220      1B8AE538 
 220      950431E1 
 221 002a 31567E25 		.ascii	"1V~%\022C\343\305\304\030\033\341@\024\022$\206\250"
 221      1243E3C5 
 221      C4181BE1 
 221      40141224 
 221      86A8
 222 003c 1834E71A 		.ascii	"\0304\347\032\021\0170\006;+\275\306Z\351,\014\353\237"
 222      110F3006 
 222      3B2BBDC6 
 222      5AE92C0C 
 222      EB9F
 223 004e D9D9BDDD 		.ascii	"\331\331\275\335\343\366\214\223\274\314\334\356\377"
 223      E3F68C93 
 223      BCCCDCEE 
 223      FF
 224 005b EFBF797F 		.ascii	"\357\277y\177f\217\003\207<\003pi\014$\000\372\001\240"
 224      668F0387 
 224      3C037069 
 224      0C2400FA 
 224      01A0
 225 006d 81D00D95 		.ascii	"\201\320\015\225\241\023\012\204\005\302\012\241H\240"
 225      A1130A84 
 225      05C20AA1 
 225      48A0
 226 007b 14780FD1 		.ascii	"\024x\017\321QP\271IB\232\220R\271L\275g*F#<!\314\023"
 226      5150B949 
 226      429A9052 
 226      B94CBD67 
 226      2A46233C 
 227 0092 3E567188 		.ascii	">Vq\210\032M*Wp,\251\274\244\342*\021\026\011\353\204"
 227      1A4D2A57 
 227      702CA9BC 
 227      A4E22A11 
 227      1609EB84 
 228 00a6 6995C355 		.ascii	"i\225\303U\236\317\275LxA\330\250\342\026\332\015\025"
 228      9ECFBD4C 
 228      7841D8A8 
 228      E216DA0D 
 228      15
ARM GAS  /tmp/ccATBBUZ.s 			page 18


 229 00b7 E3EB2B29 		.ascii	"\343\353+)\336EUg\225\260\031\322\273\022\263W\341\301"
 229      DE455567 
 229      95B019D2 
 229      BB12B357 
 229      E1C1
 230 00c9 9E189D5A 		.ascii	"\236\030\235Z\214\32607W\034\005\025\373\216\340\250"
 230      8CD63037 
 230      571C0515 
 230      FB8EE0A8 
 231 00d9 3A9FAA6A 		.ascii	":\237\252ju\300Ct\266\312\263\337J\014\357\342\037\327"
 231      75C04374 
 231      B6CAB3DF 
 231      4A0CEFE2 
 231      1FD7
 232 00eb 1DD3A10D 		.ascii	"\035\323\241\015\356!\215\251qDf[,i\300yf\261\264\001"
 232      EE218DA9 
 232      7144665B 
 232      2C69C079 
 232      66B1B401 
 233 00ff A65CA40C 		.ascii	"\246\\\244\014\311\012`\261i\326&W\232\254\01126X3\303"
 233      C90A60B1 
 233      69D62657 
 233      9AAC0932 
 233      365833C3 
 234 0113 9BFBB4A0 		.ascii	"\233\373\264\240\032\007\203A'\314\023{\036q\272\011"
 234      1A078341 
 234      27CC137B 
 234      1E71BA09 
 235 0123 768F8330 		.ascii	"v\217\2030\203\244\344\373`\257d\343\320\316\210\243"
 235      83A4E4FB 
 235      60AF64E3 
 235      D0CE88A3 
 236 0133 C03A6A8A 		.ascii	"\300:j\212\2201~\316r\177\273\254\312a\177UN\243\237"
 236      90317ECE 
 236      727FBBAC 
 236      CA617F55 
 236      4EA39F
 237 0146 C342CA0E 		.ascii	"\303B\312\016\303,\342M\234\031\277\325\242{<u\012\251"
 237      C32CE24D 
 237      9C19BFD5 
 237      A27B3C75 
 237      0AA9
 238 0158 0DCF325E 		.ascii	"\015\3172^\355\336\224\343\354\254\245\3627\312\256"
 238      EDDE94E3 
 238      ECACA5F2 
 238      37CAAE
 239 0167 3B6946AC 		.ascii	";iF\2543\340\266(\200\343xd\216\372\250h[|Z\301t\010"
 239      33E0B628 
 239      80E37864 
 239      8EFAA868 
 239      5B7C5AC1 
 240 017d 1E9115E5 		.ascii	"\036\221\025\345\373\333\033\032b\243\305\026\245\374"
 240      FBDB1B1A 
 240      62A3C516 
 240      A5FC
 241 018b 4E21FF31 		.ascii	"N!\3771\353\014\312jF\270\252\374\355\007\0102\371Z"
 241      EB0CCA6A 
ARM GAS  /tmp/ccATBBUZ.s 			page 19


 241      46B8AAFC 
 241      ED070832 
 241      F95A
 242 019d 2D5C5783 		.ascii	"-\\W\203\330~=\215\366\253\031&\204@R\333[JK[\342\022"
 242      D87E3D8D 
 242      F6AB1926 
 242      844052DB 
 242      5B4A4B5B 
 243 01b3 9758B35F 		.ascii	"\227X\263_=\350\257^\253\277]Q\351^g\312?~:\332\003"
 243      3DE8AF5E 
 243      ABBF5D51 
 243      E95E67CA 
 243      3F7E3ADA 
 244 01c8 74748F88 		.ascii	"tt\217\210\303Q\021\265\020\333SYM\246\346q2\333+Kq"
 244      C35111B5 
 244      10DB5359 
 244      4DA6E671 
 244      32DB2B4B 
 245 01dd E8AE9FA4 		.ascii	"\350\256\237\244\207\233:FM\345\236\235\020\315\212"
 245      879B3A46 
 245      4DE59E9D 
 245      10CD8A
 246 01ec D8AF76F7 		.ascii	"\330\257v\367\274fW\177o\324\354\252\305\272\367\305"
 246      BC66577F 
 246      6FD4ECAA 
 246      C5BAF7C5 
 247 01fc FAF45A19 		.ascii	"\372\364Z\031\\q\205\303\361\250%J#\2159\324$\231\010"
 247      5C7185C3 
 247      F1A8254A 
 247      238D39D4 
 247      249908
 248 020f 5F218591 		.ascii	"_!\205\221\026\277\251\251\351\353g_\223\327L\016\247"
 248      16BFA9A9 
 248      E9EB675F 
 248      93D74C0E 
 248      A7
 249 0220 6B198EDB 		.ascii	"k\031\216\333\342\372\010\033-\366\222\210,V\374/\263"
 249      E2FA081B 
 249      2DF69288 
 249      2C56FC2F 
 249      B3
 250 0231 2DF6EA1F 		.ascii	"-\366\352\037Y\365\334.\326w\373mtg\007\240\200\345"
 250      59F5DC2E 
 250      D677FB6D 
 250      746707A0 
 250      80E5
 251 0243 2D6779A2 		.ascii	"-gy\242\231t\343/\327\335\333\012ya\2179\227\3668\025"
 251      9974E32F 
 251      D7DDDB0A 
 251      79618F39 
 251      97F63815 
 252 0257 170612D0 		.ascii	"\027\006\022\320\267{\225\265\312\225\274i\030\034\344"
 252      B77B95B5 
 252      CA95BC69 
 252      181CE4
 253 0266 54FC41FE 		.ascii	"T\374A\376\340\335}\377q\260p\375?\022\016}\276\243"
 253      E0DD7DFF 
ARM GAS  /tmp/ccATBBUZ.s 			page 20


 253      71B070FD 
 253      3F120E7D 
 253      BEA3
 254 0278 F175D72A 		.ascii	"\361u\327*[0a\222*;_\326\3204\203n\026\302\335T\342"
 254      5B306192 
 254      2A3B5FD6 
 254      D034836E 
 254      16C2DD54 
 255 028d EA7D0644 		.ascii	"\352}\006DN)\244L\254\021w\\9\330u\377\221+TV]Z\361"
 255      4E29A44C 
 255      AC11775C 
 255      39D875FF 
 255      912B5456 
 256 02a4 098EDBEC 		.ascii	"\011\216\333\354z\345\326*\231\317&\220\363@\346BXf"
 256      7AE5D62A 
 256      99CF2690 
 256      F340E642 
 256      5866
 257 02b6 15AFB036 		.ascii	"\025\257\2606\216ws\027\357\322\2350o1r\230\023\231"
 257      8E777317 
 257      EFD29D30 
 257      6F317298 
 257      1399
 258 02c8 D14C5706 		.ascii	"\321LW\006\222\243\331\013\303\331\214\2358y\246\317"
 258      92A3D90B 
 258      C3D98C9D 
 258      3879A6CF 
 259 02d8 3C06FAA0 		.ascii	"<\006\372\240e[\015#=CvN\006\\\002\215\246$\341\354"
 259      655B0D23 
 259      3D43764E 
 259      065C028D 
 259      A624E1EC 
 260 02ec F095ABC9 		.ascii	"\360\225\253\311\313\331\\\316\272\230M\214\364\\\263"
 260      CBD95CCE 
 260      BA984D8C 
 260      F45CB3
 261 02fb B339F1F8 		.ascii	"\2639\361\370\324\310\220-\346\023V\316n\244\371\234"
 261      D4C8902D 
 261      E61356CE 
 261      6EA4F99C 
 262 030b 35309CFD 		.ascii	"50\234\375\013\240\355m\346"
 262      0BA0ED6D 
 262      E6
 263              		.text
 264              		.section	.gnu.lto_.symtab.5aa4117299bfe1f6,"",%progbits
 265 0000 63726353 		.ascii	"crcSlow\000\000\000\000\000\000\000\000\000\000\000"
 265      6C6F7700 
 265      00000000 
 265      00000000 
 265      0000
 266 0012 00AC0000 		.ascii	"\000\254\000\000\000crcInit\000\000\000\000\000\000"
 266      00637263 
 266      496E6974 
 266      00000000 
 266      0000
 267 0024 00000000 		.ascii	"\000\000\000\000\000\000\272\000\000\000crcTable\000"
 267      0000BA00 
ARM GAS  /tmp/ccATBBUZ.s 			page 21


 267      00006372 
 267      63546162 
 267      6C6500
 268 0037 00000000 		.ascii	"\000\000\000\000\000\000\000\000\000\000\000\303\000"
 268      00000000 
 268      000000C3 
 268      00
 269 0044 00006372 		.ascii	"\000\000crcFast\000\000\000\000\000\000\000\000\000"
 269      63466173 
 269      74000000 
 269      00000000 
 269      0000
 270 0056 000000BE 		.ascii	"\000\000\000\276\000\000\000"
 270      000000
 271              		.text
 272              		.section	.gnu.lto_.opts,"",%progbits
 273 0000 272D6D63 		.ascii	"'-mcpu=cortex-m0' '-mno-thumb-interwork' '-mthumb' "
 273      70753D63 
 273      6F727465 
 273      782D6D30 
 273      2720272D 
 274 0033 272D6767 		.ascii	"'-ggdb' '-O0' '-fomit-frame-pointer' '-falign-funct"
 274      64622720 
 274      272D4F30 
 274      2720272D 
 274      666F6D69 
 275 0066 696F6E73 		.ascii	"ions=16' '-ffunction-sections' '-fdata-sections' '-"
 275      3D313627 
 275      20272D66 
 275      66756E63 
 275      74696F6E 
 276 0099 666E6F2D 		.ascii	"fno-common' '-flto'\000"
 276      636F6D6D 
 276      6F6E2720 
 276      272D666C 
 276      746F2700 
 277              		.text
 278              		.cfi_sections	.debug_frame
 279              		.section	.text.reflect,"ax",%progbits
 280              		.align	2
 281              		.p2align 4,,15
 282              		.code	16
 283              		.thumb_func
 284              		.type	reflect, %function
 285              	reflect:
 286              	.LFB0:
 287              		.file 1 "crc.c"
 288              		.loc 1 58 0
 289              		.cfi_startproc
 290 0000 84B0     		sub	sp, sp, #16
 291              		.cfi_def_cfa_offset 16
 292 0002 0190     		str	r0, [sp, #4]
 293 0004 0A1C     		mov	r2, r1
 294 0006 6B46     		mov	r3, sp
 295 0008 0333     		add	r3, r3, #3
 296 000a 1A70     		strb	r2, [r3]
 297              		.loc 1 59 0
ARM GAS  /tmp/ccATBBUZ.s 			page 22


 298 000c 0023     		mov	r3, #0
 299 000e 0393     		str	r3, [sp, #12]
 300              		.loc 1 65 0
 301 0010 6B46     		mov	r3, sp
 302 0012 0B33     		add	r3, r3, #11
 303 0014 0022     		mov	r2, #0
 304 0016 1A70     		strb	r2, [r3]
 305 0018 1CE0     		b	.L2
 306              	.L4:
 307              		.loc 1 70 0
 308 001a 019A     		ldr	r2, [sp, #4]
 309 001c 0123     		mov	r3, #1
 310 001e 1340     		and	r3, r2
 311 0020 0ED0     		beq	.L3
 312              		.loc 1 72 0
 313 0022 6B46     		mov	r3, sp
 314 0024 0333     		add	r3, r3, #3
 315 0026 1B78     		ldrb	r3, [r3]
 316 0028 5A1E     		sub	r2, r3, #1
 317 002a 6B46     		mov	r3, sp
 318 002c 0B33     		add	r3, r3, #11
 319 002e 1B78     		ldrb	r3, [r3]
 320 0030 D31A     		sub	r3, r2, r3
 321 0032 0122     		mov	r2, #1
 322 0034 111C     		mov	r1, r2
 323 0036 9940     		lsl	r1, r1, r3
 324 0038 0B1C     		mov	r3, r1
 325 003a 039A     		ldr	r2, [sp, #12]
 326 003c 1343     		orr	r3, r2
 327 003e 0393     		str	r3, [sp, #12]
 328              	.L3:
 329              		.loc 1 75 0
 330 0040 019B     		ldr	r3, [sp, #4]
 331 0042 5B08     		lsr	r3, r3, #1
 332 0044 0193     		str	r3, [sp, #4]
 333              		.loc 1 65 0
 334 0046 6B46     		mov	r3, sp
 335 0048 0B33     		add	r3, r3, #11
 336 004a 6A46     		mov	r2, sp
 337 004c 0B32     		add	r2, r2, #11
 338 004e 1278     		ldrb	r2, [r2]
 339 0050 0132     		add	r2, r2, #1
 340 0052 1A70     		strb	r2, [r3]
 341              	.L2:
 342              		.loc 1 65 0 is_stmt 0 discriminator 1
 343 0054 6A46     		mov	r2, sp
 344 0056 0B32     		add	r2, r2, #11
 345 0058 6B46     		mov	r3, sp
 346 005a 0333     		add	r3, r3, #3
 347 005c 1278     		ldrb	r2, [r2]
 348 005e 1B78     		ldrb	r3, [r3]
 349 0060 9A42     		cmp	r2, r3
 350 0062 DAD3     		bcc	.L4
 351              		.loc 1 78 0 is_stmt 1
 352 0064 039B     		ldr	r3, [sp, #12]
 353              		.loc 1 80 0
 354 0066 181C     		mov	r0, r3
ARM GAS  /tmp/ccATBBUZ.s 			page 23


 355 0068 04B0     		add	sp, sp, #16
 356              		@ sp needed
 357 006a 7047     		bx	lr
 358              		.cfi_endproc
 359              	.LFE0:
 360              		.size	reflect, .-reflect
 361 006c C046C046 		.section	.text.crcSlow,"ax",%progbits
 362              		.align	2
 363              		.p2align 4,,15
 364              		.global	crcSlow
 365              		.code	16
 366              		.thumb_func
 367              		.type	crcSlow, %function
 368              	crcSlow:
 369              	.LFB1:
 370              		.loc 1 96 0
 371              		.cfi_startproc
 372 0000 00B5     		push	{lr}
 373              		.cfi_def_cfa_offset 4
 374              		.cfi_offset 14, -4
 375 0002 87B0     		sub	sp, sp, #28
 376              		.cfi_def_cfa_offset 32
 377 0004 0190     		str	r0, [sp, #4]
 378 0006 0091     		str	r1, [sp]
 379              		.loc 1 97 0
 380 0008 6B46     		mov	r3, sp
 381 000a 1633     		add	r3, r3, #22
 382 000c 0022     		mov	r2, #0
 383 000e 1A80     		strh	r2, [r3]
 384              		.loc 1 105 0
 385 0010 0023     		mov	r3, #0
 386 0012 0493     		str	r3, [sp, #16]
 387 0014 40E0     		b	.L7
 388              	.L12:
 389              		.loc 1 110 0
 390 0016 049B     		ldr	r3, [sp, #16]
 391 0018 019A     		ldr	r2, [sp, #4]
 392 001a D318     		add	r3, r2, r3
 393 001c 1B78     		ldrb	r3, [r3]
 394 001e 181C     		mov	r0, r3
 395 0020 0821     		mov	r1, #8
 396 0022 FFF7FEFF 		bl	reflect
 397 0026 031C     		mov	r3, r0
 398 0028 DBB2     		uxtb	r3, r3
 399 002a 1B02     		lsl	r3, r3, #8
 400 002c 9AB2     		uxth	r2, r3
 401 002e 6B46     		mov	r3, sp
 402 0030 1633     		add	r3, r3, #22
 403 0032 1B88     		ldrh	r3, [r3]
 404 0034 5340     		eor	r3, r2
 405 0036 9AB2     		uxth	r2, r3
 406 0038 6B46     		mov	r3, sp
 407 003a 1633     		add	r3, r3, #22
 408 003c 1A80     		strh	r2, [r3]
 409              		.loc 1 115 0
 410 003e 6B46     		mov	r3, sp
 411 0040 0F33     		add	r3, r3, #15
ARM GAS  /tmp/ccATBBUZ.s 			page 24


 412 0042 0822     		mov	r2, #8
 413 0044 1A70     		strb	r2, [r3]
 414 0046 1FE0     		b	.L8
 415              	.L11:
 416              		.loc 1 120 0
 417 0048 6B46     		mov	r3, sp
 418 004a 1633     		add	r3, r3, #22
 419 004c 1B88     		ldrh	r3, [r3]
 420 004e 1BB2     		sxth	r3, r3
 421 0050 002B     		cmp	r3, #0
 422 0052 0BDA     		bge	.L9
 423              		.loc 1 122 0
 424 0054 6B46     		mov	r3, sp
 425 0056 1633     		add	r3, r3, #22
 426 0058 1B88     		ldrh	r3, [r3]
 427 005a 5B00     		lsl	r3, r3, #1
 428 005c 9BB2     		uxth	r3, r3
 429 005e 164A     		ldr	r2, .L14
 430 0060 5340     		eor	r3, r2
 431 0062 9AB2     		uxth	r2, r3
 432 0064 6B46     		mov	r3, sp
 433 0066 1633     		add	r3, r3, #22
 434 0068 1A80     		strh	r2, [r3]
 435 006a 06E0     		b	.L10
 436              	.L9:
 437              		.loc 1 126 0
 438 006c 6A46     		mov	r2, sp
 439 006e 1632     		add	r2, r2, #22
 440 0070 6B46     		mov	r3, sp
 441 0072 1633     		add	r3, r3, #22
 442 0074 1B88     		ldrh	r3, [r3]
 443 0076 DB18     		add	r3, r3, r3
 444 0078 1380     		strh	r3, [r2]
 445              	.L10:
 446              		.loc 1 115 0
 447 007a 6B46     		mov	r3, sp
 448 007c 0F33     		add	r3, r3, #15
 449 007e 6A46     		mov	r2, sp
 450 0080 0F32     		add	r2, r2, #15
 451 0082 1278     		ldrb	r2, [r2]
 452 0084 013A     		sub	r2, r2, #1
 453 0086 1A70     		strb	r2, [r3]
 454              	.L8:
 455              		.loc 1 115 0 is_stmt 0 discriminator 1
 456 0088 6B46     		mov	r3, sp
 457 008a 0F33     		add	r3, r3, #15
 458 008c 1B78     		ldrb	r3, [r3]
 459 008e 002B     		cmp	r3, #0
 460 0090 DAD1     		bne	.L11
 461              		.loc 1 105 0 is_stmt 1
 462 0092 049B     		ldr	r3, [sp, #16]
 463 0094 0133     		add	r3, r3, #1
 464 0096 0493     		str	r3, [sp, #16]
 465              	.L7:
 466              		.loc 1 105 0 is_stmt 0 discriminator 1
 467 0098 049A     		ldr	r2, [sp, #16]
 468 009a 009B     		ldr	r3, [sp]
ARM GAS  /tmp/ccATBBUZ.s 			page 25


 469 009c 9A42     		cmp	r2, r3
 470 009e BADB     		blt	.L12
 471              		.loc 1 134 0 is_stmt 1
 472 00a0 6B46     		mov	r3, sp
 473 00a2 1633     		add	r3, r3, #22
 474 00a4 1B88     		ldrh	r3, [r3]
 475 00a6 181C     		mov	r0, r3
 476 00a8 1021     		mov	r1, #16
 477 00aa FFF7FEFF 		bl	reflect
 478 00ae 031C     		mov	r3, r0
 479 00b0 9BB2     		uxth	r3, r3
 480              		.loc 1 136 0
 481 00b2 181C     		mov	r0, r3
 482 00b4 07B0     		add	sp, sp, #28
 483              		@ sp needed
 484 00b6 00BD     		pop	{pc}
 485              	.L15:
 486              		.align	2
 487              	.L14:
 488 00b8 0580FFFF 		.word	-32763
 489              		.cfi_endproc
 490              	.LFE1:
 491              		.size	crcSlow, .-crcSlow
 492              		.global	crcTable
 493 00bc C046C046 		.section	.bss.crcTable,"aw",%nobits
 494              		.align	2
 495              		.type	crcTable, %object
 496              		.size	crcTable, 512
 497              	crcTable:
 498 0000 00000000 		.space	512
 498      00000000 
 498      00000000 
 498      00000000 
 498      00000000 
 499              		.section	.text.crcInit,"ax",%progbits
 500              		.align	2
 501              		.p2align 4,,15
 502              		.global	crcInit
 503              		.code	16
 504              		.thumb_func
 505              		.type	crcInit, %function
 506              	crcInit:
 507              	.LFB2:
 508              		.loc 1 157 0
 509              		.cfi_startproc
 510 0000 84B0     		sub	sp, sp, #16
 511              		.cfi_def_cfa_offset 16
 512              		.loc 1 166 0
 513 0002 0023     		mov	r3, #0
 514 0004 0293     		str	r3, [sp, #8]
 515 0006 39E0     		b	.L17
 516              	.L22:
 517              		.loc 1 171 0
 518 0008 029B     		ldr	r3, [sp, #8]
 519 000a 9AB2     		uxth	r2, r3
 520 000c 6B46     		mov	r3, sp
 521 000e 0E33     		add	r3, r3, #14
ARM GAS  /tmp/ccATBBUZ.s 			page 26


 522 0010 1202     		lsl	r2, r2, #8
 523 0012 1A80     		strh	r2, [r3]
 524              		.loc 1 176 0
 525 0014 6B46     		mov	r3, sp
 526 0016 0733     		add	r3, r3, #7
 527 0018 0822     		mov	r2, #8
 528 001a 1A70     		strb	r2, [r3]
 529 001c 1FE0     		b	.L18
 530              	.L21:
 531              		.loc 1 181 0
 532 001e 6B46     		mov	r3, sp
 533 0020 0E33     		add	r3, r3, #14
 534 0022 1B88     		ldrh	r3, [r3]
 535 0024 1BB2     		sxth	r3, r3
 536 0026 002B     		cmp	r3, #0
 537 0028 0BDA     		bge	.L19
 538              		.loc 1 183 0
 539 002a 6B46     		mov	r3, sp
 540 002c 0E33     		add	r3, r3, #14
 541 002e 1B88     		ldrh	r3, [r3]
 542 0030 5B00     		lsl	r3, r3, #1
 543 0032 9BB2     		uxth	r3, r3
 544 0034 144A     		ldr	r2, .L23
 545 0036 5340     		eor	r3, r2
 546 0038 9AB2     		uxth	r2, r3
 547 003a 6B46     		mov	r3, sp
 548 003c 0E33     		add	r3, r3, #14
 549 003e 1A80     		strh	r2, [r3]
 550 0040 06E0     		b	.L20
 551              	.L19:
 552              		.loc 1 187 0
 553 0042 6A46     		mov	r2, sp
 554 0044 0E32     		add	r2, r2, #14
 555 0046 6B46     		mov	r3, sp
 556 0048 0E33     		add	r3, r3, #14
 557 004a 1B88     		ldrh	r3, [r3]
 558 004c DB18     		add	r3, r3, r3
 559 004e 1380     		strh	r3, [r2]
 560              	.L20:
 561              		.loc 1 176 0
 562 0050 6B46     		mov	r3, sp
 563 0052 0733     		add	r3, r3, #7
 564 0054 6A46     		mov	r2, sp
 565 0056 0732     		add	r2, r2, #7
 566 0058 1278     		ldrb	r2, [r2]
 567 005a 013A     		sub	r2, r2, #1
 568 005c 1A70     		strb	r2, [r3]
 569              	.L18:
 570              		.loc 1 176 0 is_stmt 0 discriminator 1
 571 005e 6B46     		mov	r3, sp
 572 0060 0733     		add	r3, r3, #7
 573 0062 1B78     		ldrb	r3, [r3]
 574 0064 002B     		cmp	r3, #0
 575 0066 DAD1     		bne	.L21
 576              		.loc 1 194 0 is_stmt 1
 577 0068 084B     		ldr	r3, .L23+4
 578 006a 029A     		ldr	r2, [sp, #8]
ARM GAS  /tmp/ccATBBUZ.s 			page 27


 579 006c 5200     		lsl	r2, r2, #1
 580 006e 6946     		mov	r1, sp
 581 0070 0E31     		add	r1, r1, #14
 582 0072 0988     		ldrh	r1, [r1]
 583 0074 D152     		strh	r1, [r2, r3]
 584              		.loc 1 166 0
 585 0076 029B     		ldr	r3, [sp, #8]
 586 0078 0133     		add	r3, r3, #1
 587 007a 0293     		str	r3, [sp, #8]
 588              	.L17:
 589              		.loc 1 166 0 is_stmt 0 discriminator 1
 590 007c 029B     		ldr	r3, [sp, #8]
 591 007e FF2B     		cmp	r3, #255
 592 0080 C2DD     		ble	.L22
 593              		.loc 1 197 0 is_stmt 1
 594 0082 04B0     		add	sp, sp, #16
 595              		@ sp needed
 596 0084 7047     		bx	lr
 597              	.L24:
 598 0086 C046     		.align	2
 599              	.L23:
 600 0088 0580FFFF 		.word	-32763
 601 008c 00000000 		.word	crcTable
 602              		.cfi_endproc
 603              	.LFE2:
 604              		.size	crcInit, .-crcInit
 605              		.section	.text.crcFast,"ax",%progbits
 606              		.align	2
 607              		.p2align 4,,15
 608              		.global	crcFast
 609              		.code	16
 610              		.thumb_func
 611              		.type	crcFast, %function
 612              	crcFast:
 613              	.LFB3:
 614              		.loc 1 213 0
 615              		.cfi_startproc
 616 0000 00B5     		push	{lr}
 617              		.cfi_def_cfa_offset 4
 618              		.cfi_offset 14, -4
 619 0002 87B0     		sub	sp, sp, #28
 620              		.cfi_def_cfa_offset 32
 621 0004 0190     		str	r0, [sp, #4]
 622 0006 0091     		str	r1, [sp]
 623              		.loc 1 214 0
 624 0008 6B46     		mov	r3, sp
 625 000a 1633     		add	r3, r3, #22
 626 000c 0022     		mov	r2, #0
 627 000e 1A80     		strh	r2, [r3]
 628              		.loc 1 222 0
 629 0010 0023     		mov	r3, #0
 630 0012 0493     		str	r3, [sp, #16]
 631 0014 27E0     		b	.L26
 632              	.L27:
 633              		.loc 1 224 0 discriminator 2
 634 0016 049B     		ldr	r3, [sp, #16]
 635 0018 019A     		ldr	r2, [sp, #4]
ARM GAS  /tmp/ccATBBUZ.s 			page 28


 636 001a D318     		add	r3, r2, r3
 637 001c 1B78     		ldrb	r3, [r3]
 638 001e 181C     		mov	r0, r3
 639 0020 0821     		mov	r1, #8
 640 0022 FFF7FEFF 		bl	reflect
 641 0026 031C     		mov	r3, r0
 642 0028 D9B2     		uxtb	r1, r3
 643 002a 6B46     		mov	r3, sp
 644 002c 1633     		add	r3, r3, #22
 645 002e 1B88     		ldrh	r3, [r3]
 646 0030 1B0A     		lsr	r3, r3, #8
 647 0032 9BB2     		uxth	r3, r3
 648 0034 DAB2     		uxtb	r2, r3
 649 0036 6B46     		mov	r3, sp
 650 0038 0F33     		add	r3, r3, #15
 651 003a 4A40     		eor	r2, r1
 652 003c 1A70     		strb	r2, [r3]
 653              		.loc 1 225 0 discriminator 2
 654 003e 6B46     		mov	r3, sp
 655 0040 0F33     		add	r3, r3, #15
 656 0042 1A78     		ldrb	r2, [r3]
 657 0044 104B     		ldr	r3, .L29
 658 0046 5200     		lsl	r2, r2, #1
 659 0048 D35A     		ldrh	r3, [r2, r3]
 660 004a 9AB2     		uxth	r2, r3
 661 004c 6B46     		mov	r3, sp
 662 004e 1633     		add	r3, r3, #22
 663 0050 1B88     		ldrh	r3, [r3]
 664 0052 1B02     		lsl	r3, r3, #8
 665 0054 9BB2     		uxth	r3, r3
 666 0056 5340     		eor	r3, r2
 667 0058 9AB2     		uxth	r2, r3
 668 005a 6B46     		mov	r3, sp
 669 005c 1633     		add	r3, r3, #22
 670 005e 1A80     		strh	r2, [r3]
 671              		.loc 1 222 0 discriminator 2
 672 0060 049B     		ldr	r3, [sp, #16]
 673 0062 0133     		add	r3, r3, #1
 674 0064 0493     		str	r3, [sp, #16]
 675              	.L26:
 676              		.loc 1 222 0 is_stmt 0 discriminator 1
 677 0066 049A     		ldr	r2, [sp, #16]
 678 0068 009B     		ldr	r3, [sp]
 679 006a 9A42     		cmp	r2, r3
 680 006c D3DB     		blt	.L27
 681              		.loc 1 231 0 is_stmt 1
 682 006e 6B46     		mov	r3, sp
 683 0070 1633     		add	r3, r3, #22
 684 0072 1B88     		ldrh	r3, [r3]
 685 0074 181C     		mov	r0, r3
 686 0076 1021     		mov	r1, #16
 687 0078 FFF7FEFF 		bl	reflect
 688 007c 031C     		mov	r3, r0
 689 007e 9BB2     		uxth	r3, r3
 690              		.loc 1 233 0
 691 0080 181C     		mov	r0, r3
 692 0082 07B0     		add	sp, sp, #28
ARM GAS  /tmp/ccATBBUZ.s 			page 29


 693              		@ sp needed
 694 0084 00BD     		pop	{pc}
 695              	.L30:
 696 0086 C046     		.align	2
 697              	.L29:
 698 0088 00000000 		.word	crcTable
 699              		.cfi_endproc
 700              	.LFE3:
 701              		.size	crcFast, .-crcFast
 702 008c C046C046 		.text
 703              	.Letext0:
 704              		.file 2 "crc.h"