ARM GAS  /tmp/ccey5Hl3.s 			page 1


   1              		.syntax unified
   2              		.cpu cortex-m4
   3              		.fpu softvfp
   4              		.eabi_attribute 20, 1
   5              		.eabi_attribute 21, 1
   6              		.eabi_attribute 23, 3
   7              		.eabi_attribute 24, 1
   8              		.eabi_attribute 25, 1
   9              		.eabi_attribute 26, 1
  10              		.eabi_attribute 30, 6
  11              		.eabi_attribute 34, 1
  12              		.eabi_attribute 18, 4
  13              		.thumb
  14              		.file	"crc.c"
  15              		.text
  16              	.Ltext0:
  17              		.cfi_sections	.debug_frame
  18              		.section	.text.reflect,"ax",%progbits
  19              		.align	2
  20              		.p2align 4,,15
  21              		.thumb
  22              		.thumb_func
  23              		.type	reflect, %function
  24              	reflect:
  25              	.LFB0:
  26              		.file 1 "crc.c"
  27              		.loc 1 58 0
  28              		.cfi_startproc
  29              		@ args = 0, pretend = 0, frame = 16
  30              		@ frame_needed = 0, uses_anonymous_args = 0
  31              		@ link register save eliminated.
  32 0000 84B0     		sub	sp, sp, #16
  33              		.cfi_def_cfa_offset 16
  34 0002 0190     		str	r0, [sp, #4]
  35 0004 0B46     		mov	r3, r1
  36 0006 8DF80330 		strb	r3, [sp, #3]
  37              		.loc 1 59 0
  38 000a 0023     		movs	r3, #0
  39 000c 0393     		str	r3, [sp, #12]
  40              		.loc 1 65 0
  41 000e 0023     		movs	r3, #0
  42 0010 8DF80B30 		strb	r3, [sp, #11]
  43 0014 18E0     		b	.L2
  44              	.L4:
  45              		.loc 1 70 0
  46 0016 019B     		ldr	r3, [sp, #4]
  47 0018 03F00103 		and	r3, r3, #1
  48 001c 002B     		cmp	r3, #0
  49 001e 0BD0     		beq	.L3
  50              		.loc 1 72 0
  51 0020 9DF80330 		ldrb	r3, [sp, #3]	@ zero_extendqisi2
  52 0024 5A1E     		subs	r2, r3, #1
  53 0026 9DF80B30 		ldrb	r3, [sp, #11]	@ zero_extendqisi2
  54 002a D31A     		subs	r3, r2, r3
  55 002c 0122     		movs	r2, #1
  56 002e 02FA03F3 		lsl	r3, r2, r3
  57 0032 039A     		ldr	r2, [sp, #12]
ARM GAS  /tmp/ccey5Hl3.s 			page 2


  58 0034 1343     		orrs	r3, r3, r2
  59 0036 0393     		str	r3, [sp, #12]
  60              	.L3:
  61              		.loc 1 75 0
  62 0038 019B     		ldr	r3, [sp, #4]
  63 003a 5B08     		lsrs	r3, r3, #1
  64 003c 0193     		str	r3, [sp, #4]
  65              		.loc 1 65 0
  66 003e 9DF80B30 		ldrb	r3, [sp, #11]
  67 0042 0133     		adds	r3, r3, #1
  68 0044 8DF80B30 		strb	r3, [sp, #11]
  69              	.L2:
  70              		.loc 1 65 0 is_stmt 0 discriminator 1
  71 0048 9DF80B20 		ldrb	r2, [sp, #11]	@ zero_extendqisi2
  72 004c 9DF80330 		ldrb	r3, [sp, #3]	@ zero_extendqisi2
  73 0050 9A42     		cmp	r2, r3
  74 0052 E0D3     		bcc	.L4
  75              		.loc 1 78 0 is_stmt 1
  76 0054 039B     		ldr	r3, [sp, #12]
  77              		.loc 1 80 0
  78 0056 1846     		mov	r0, r3
  79 0058 04B0     		add	sp, sp, #16
  80              		@ sp needed
  81 005a 7047     		bx	lr
  82              		.cfi_endproc
  83              	.LFE0:
  84              		.size	reflect, .-reflect
  85 005c AFF30080 		.section	.text.crcSlow,"ax",%progbits
  86              		.align	2
  87              		.p2align 4,,15
  88              		.global	crcSlow
  89              		.thumb
  90              		.thumb_func
  91              		.type	crcSlow, %function
  92              	crcSlow:
  93              	.LFB1:
  94              		.loc 1 96 0
  95              		.cfi_startproc
  96              		@ args = 0, pretend = 0, frame = 24
  97              		@ frame_needed = 0, uses_anonymous_args = 0
  98 0000 00B5     		push	{lr}
  99              		.cfi_def_cfa_offset 4
 100              		.cfi_offset 14, -4
 101 0002 87B0     		sub	sp, sp, #28
 102              		.cfi_def_cfa_offset 32
 103 0004 0190     		str	r0, [sp, #4]
 104 0006 0091     		str	r1, [sp]
 105              		.loc 1 97 0
 106 0008 0023     		movs	r3, #0
 107 000a ADF81630 		strh	r3, [sp, #22]	@ movhi
 108              		.loc 1 105 0
 109 000e 0023     		movs	r3, #0
 110 0010 0493     		str	r3, [sp, #16]
 111 0012 38E0     		b	.L7
 112              	.L12:
 113              		.loc 1 110 0
 114 0014 049B     		ldr	r3, [sp, #16]
ARM GAS  /tmp/ccey5Hl3.s 			page 3


 115 0016 019A     		ldr	r2, [sp, #4]
 116 0018 1344     		add	r3, r3, r2
 117 001a 1B78     		ldrb	r3, [r3]	@ zero_extendqisi2
 118 001c 1846     		mov	r0, r3
 119 001e 0821     		movs	r1, #8
 120 0020 FFF7FEFF 		bl	reflect
 121 0024 0346     		mov	r3, r0
 122 0026 DBB2     		uxtb	r3, r3
 123 0028 1B02     		lsls	r3, r3, #8
 124 002a 9AB2     		uxth	r2, r3
 125 002c BDF81630 		ldrh	r3, [sp, #22]
 126 0030 5340     		eors	r3, r3, r2
 127 0032 9BB2     		uxth	r3, r3
 128 0034 ADF81630 		strh	r3, [sp, #22]	@ movhi
 129              		.loc 1 115 0
 130 0038 0823     		movs	r3, #8
 131 003a 8DF80F30 		strb	r3, [sp, #15]
 132 003e 1BE0     		b	.L8
 133              	.L11:
 134              		.loc 1 120 0
 135 0040 BDF81630 		ldrh	r3, [sp, #22]
 136 0044 1BB2     		sxth	r3, r3
 137 0046 002B     		cmp	r3, #0
 138 0048 0CDA     		bge	.L9
 139              		.loc 1 122 0
 140 004a BDF81630 		ldrh	r3, [sp, #22]
 141 004e 5B00     		lsls	r3, r3, #1
 142 0050 9BB2     		uxth	r3, r3
 143 0052 83F4FF43 		eor	r3, r3, #32640
 144 0056 83F07A03 		eor	r3, r3, #122
 145 005a DB43     		mvns	r3, r3
 146 005c 9BB2     		uxth	r3, r3
 147 005e ADF81630 		strh	r3, [sp, #22]	@ movhi
 148 0062 04E0     		b	.L10
 149              	.L9:
 150              		.loc 1 126 0
 151 0064 BDF81630 		ldrh	r3, [sp, #22]	@ movhi
 152 0068 5B00     		lsls	r3, r3, #1
 153 006a ADF81630 		strh	r3, [sp, #22]	@ movhi
 154              	.L10:
 155              		.loc 1 115 0
 156 006e 9DF80F30 		ldrb	r3, [sp, #15]
 157 0072 013B     		subs	r3, r3, #1
 158 0074 8DF80F30 		strb	r3, [sp, #15]
 159              	.L8:
 160              		.loc 1 115 0 is_stmt 0 discriminator 1
 161 0078 9DF80F30 		ldrb	r3, [sp, #15]	@ zero_extendqisi2
 162 007c 002B     		cmp	r3, #0
 163 007e DFD1     		bne	.L11
 164              		.loc 1 105 0 is_stmt 1
 165 0080 049B     		ldr	r3, [sp, #16]
 166 0082 0133     		adds	r3, r3, #1
 167 0084 0493     		str	r3, [sp, #16]
 168              	.L7:
 169              		.loc 1 105 0 is_stmt 0 discriminator 1
 170 0086 049A     		ldr	r2, [sp, #16]
 171 0088 009B     		ldr	r3, [sp]
ARM GAS  /tmp/ccey5Hl3.s 			page 4


 172 008a 9A42     		cmp	r2, r3
 173 008c C2DB     		blt	.L12
 174              		.loc 1 134 0 is_stmt 1
 175 008e BDF81630 		ldrh	r3, [sp, #22]
 176 0092 1846     		mov	r0, r3
 177 0094 1021     		movs	r1, #16
 178 0096 FFF7FEFF 		bl	reflect
 179 009a 0346     		mov	r3, r0
 180 009c 9BB2     		uxth	r3, r3
 181              		.loc 1 136 0
 182 009e 1846     		mov	r0, r3
 183 00a0 07B0     		add	sp, sp, #28
 184              		@ sp needed
 185 00a2 5DF804FB 		ldr	pc, [sp], #4
 186              		.cfi_endproc
 187              	.LFE1:
 188              		.size	crcSlow, .-crcSlow
 189              		.global	crcTable
 190 00a6 00BFAFF3 		.section	.bss.crcTable,"aw",%nobits
 190      0080AFF3 
 190      0080
 191              		.align	2
 192              		.type	crcTable, %object
 193              		.size	crcTable, 512
 194              	crcTable:
 195 0000 00000000 		.space	512
 195      00000000 
 195      00000000 
 195      00000000 
 195      00000000 
 196              		.section	.text.crcInit,"ax",%progbits
 197              		.align	2
 198              		.p2align 4,,15
 199              		.global	crcInit
 200              		.thumb
 201              		.thumb_func
 202              		.type	crcInit, %function
 203              	crcInit:
 204              	.LFB2:
 205              		.loc 1 157 0
 206              		.cfi_startproc
 207              		@ args = 0, pretend = 0, frame = 16
 208              		@ frame_needed = 0, uses_anonymous_args = 0
 209              		@ link register save eliminated.
 210 0000 84B0     		sub	sp, sp, #16
 211              		.cfi_def_cfa_offset 16
 212              		.loc 1 166 0
 213 0002 0023     		movs	r3, #0
 214 0004 0293     		str	r3, [sp, #8]
 215 0006 31E0     		b	.L15
 216              	.L20:
 217              		.loc 1 171 0
 218 0008 029B     		ldr	r3, [sp, #8]
 219 000a 9BB2     		uxth	r3, r3
 220 000c 1B02     		lsls	r3, r3, #8
 221 000e ADF80E30 		strh	r3, [sp, #14]	@ movhi
 222              		.loc 1 176 0
ARM GAS  /tmp/ccey5Hl3.s 			page 5


 223 0012 0823     		movs	r3, #8
 224 0014 8DF80730 		strb	r3, [sp, #7]
 225 0018 1BE0     		b	.L16
 226              	.L19:
 227              		.loc 1 181 0
 228 001a BDF80E30 		ldrh	r3, [sp, #14]
 229 001e 1BB2     		sxth	r3, r3
 230 0020 002B     		cmp	r3, #0
 231 0022 0CDA     		bge	.L17
 232              		.loc 1 183 0
 233 0024 BDF80E30 		ldrh	r3, [sp, #14]
 234 0028 5B00     		lsls	r3, r3, #1
 235 002a 9BB2     		uxth	r3, r3
 236 002c 83F4FF43 		eor	r3, r3, #32640
 237 0030 83F07A03 		eor	r3, r3, #122
 238 0034 DB43     		mvns	r3, r3
 239 0036 9BB2     		uxth	r3, r3
 240 0038 ADF80E30 		strh	r3, [sp, #14]	@ movhi
 241 003c 04E0     		b	.L18
 242              	.L17:
 243              		.loc 1 187 0
 244 003e BDF80E30 		ldrh	r3, [sp, #14]	@ movhi
 245 0042 5B00     		lsls	r3, r3, #1
 246 0044 ADF80E30 		strh	r3, [sp, #14]	@ movhi
 247              	.L18:
 248              		.loc 1 176 0
 249 0048 9DF80730 		ldrb	r3, [sp, #7]
 250 004c 013B     		subs	r3, r3, #1
 251 004e 8DF80730 		strb	r3, [sp, #7]
 252              	.L16:
 253              		.loc 1 176 0 is_stmt 0 discriminator 1
 254 0052 9DF80730 		ldrb	r3, [sp, #7]	@ zero_extendqisi2
 255 0056 002B     		cmp	r3, #0
 256 0058 DFD1     		bne	.L19
 257              		.loc 1 194 0 is_stmt 1
 258 005a 074B     		ldr	r3, .L21
 259 005c 029A     		ldr	r2, [sp, #8]
 260 005e BDF80E10 		ldrh	r1, [sp, #14]	@ movhi
 261 0062 23F81210 		strh	r1, [r3, r2, lsl #1]	@ movhi
 262              		.loc 1 166 0
 263 0066 029B     		ldr	r3, [sp, #8]
 264 0068 0133     		adds	r3, r3, #1
 265 006a 0293     		str	r3, [sp, #8]
 266              	.L15:
 267              		.loc 1 166 0 is_stmt 0 discriminator 1
 268 006c 029B     		ldr	r3, [sp, #8]
 269 006e FF2B     		cmp	r3, #255
 270 0070 CADD     		ble	.L20
 271              		.loc 1 197 0 is_stmt 1
 272 0072 04B0     		add	sp, sp, #16
 273              		@ sp needed
 274 0074 7047     		bx	lr
 275              	.L22:
 276 0076 00BF     		.align	2
 277              	.L21:
 278 0078 00000000 		.word	crcTable
 279              		.cfi_endproc
ARM GAS  /tmp/ccey5Hl3.s 			page 6


 280              	.LFE2:
 281              		.size	crcInit, .-crcInit
 282 007c AFF30080 		.section	.text.crcFast,"ax",%progbits
 283              		.align	2
 284              		.p2align 4,,15
 285              		.global	crcFast
 286              		.thumb
 287              		.thumb_func
 288              		.type	crcFast, %function
 289              	crcFast:
 290              	.LFB3:
 291              		.loc 1 213 0
 292              		.cfi_startproc
 293              		@ args = 0, pretend = 0, frame = 24
 294              		@ frame_needed = 0, uses_anonymous_args = 0
 295 0000 00B5     		push	{lr}
 296              		.cfi_def_cfa_offset 4
 297              		.cfi_offset 14, -4
 298 0002 87B0     		sub	sp, sp, #28
 299              		.cfi_def_cfa_offset 32
 300 0004 0190     		str	r0, [sp, #4]
 301 0006 0091     		str	r1, [sp]
 302              		.loc 1 214 0
 303 0008 0023     		movs	r3, #0
 304 000a ADF81630 		strh	r3, [sp, #22]	@ movhi
 305              		.loc 1 222 0
 306 000e 0023     		movs	r3, #0
 307 0010 0493     		str	r3, [sp, #16]
 308 0012 22E0     		b	.L24
 309              	.L25:
 310              		.loc 1 224 0 discriminator 2
 311 0014 049B     		ldr	r3, [sp, #16]
 312 0016 019A     		ldr	r2, [sp, #4]
 313 0018 1344     		add	r3, r3, r2
 314 001a 1B78     		ldrb	r3, [r3]	@ zero_extendqisi2
 315 001c 1846     		mov	r0, r3
 316 001e 0821     		movs	r1, #8
 317 0020 FFF7FEFF 		bl	reflect
 318 0024 0346     		mov	r3, r0
 319 0026 DAB2     		uxtb	r2, r3
 320 0028 BDF81630 		ldrh	r3, [sp, #22]
 321 002c 1B0A     		lsrs	r3, r3, #8
 322 002e 9BB2     		uxth	r3, r3
 323 0030 DBB2     		uxtb	r3, r3
 324 0032 5340     		eors	r3, r3, r2
 325 0034 8DF80F30 		strb	r3, [sp, #15]
 326              		.loc 1 225 0 discriminator 2
 327 0038 9DF80F20 		ldrb	r2, [sp, #15]	@ zero_extendqisi2
 328 003c 0F4B     		ldr	r3, .L27
 329 003e 33F81230 		ldrh	r3, [r3, r2, lsl #1]
 330 0042 9AB2     		uxth	r2, r3
 331 0044 BDF81630 		ldrh	r3, [sp, #22]
 332 0048 1B02     		lsls	r3, r3, #8
 333 004a 9BB2     		uxth	r3, r3
 334 004c 5340     		eors	r3, r3, r2
 335 004e 9BB2     		uxth	r3, r3
 336 0050 ADF81630 		strh	r3, [sp, #22]	@ movhi
ARM GAS  /tmp/ccey5Hl3.s 			page 7


 337              		.loc 1 222 0 discriminator 2
 338 0054 049B     		ldr	r3, [sp, #16]
 339 0056 0133     		adds	r3, r3, #1
 340 0058 0493     		str	r3, [sp, #16]
 341              	.L24:
 342              		.loc 1 222 0 is_stmt 0 discriminator 1
 343 005a 049A     		ldr	r2, [sp, #16]
 344 005c 009B     		ldr	r3, [sp]
 345 005e 9A42     		cmp	r2, r3
 346 0060 D8DB     		blt	.L25
 347              		.loc 1 231 0 is_stmt 1
 348 0062 BDF81630 		ldrh	r3, [sp, #22]
 349 0066 1846     		mov	r0, r3
 350 0068 1021     		movs	r1, #16
 351 006a FFF7FEFF 		bl	reflect
 352 006e 0346     		mov	r3, r0
 353 0070 9BB2     		uxth	r3, r3
 354              		.loc 1 233 0
 355 0072 1846     		mov	r0, r3
 356 0074 07B0     		add	sp, sp, #28
 357              		@ sp needed
 358 0076 5DF804FB 		ldr	pc, [sp], #4
 359              	.L28:
 360 007a 00BF     		.align	2
 361              	.L27:
 362 007c 00000000 		.word	crcTable
 363              		.cfi_endproc
 364              	.LFE3:
 365              		.size	crcFast, .-crcFast
 366              		.text
 367              	.Letext0:
 368              		.file 2 "crc.h"
 369              		.section	.debug_info,"",%progbits
 370              	.Ldebug_info0:
 371 0000 C9010000 		.4byte	0x1c9
 372 0004 0400     		.2byte	0x4
 373 0006 00000000 		.4byte	.Ldebug_abbrev0
 374 000a 04       		.byte	0x4
 375 000b 01       		.uleb128 0x1
 376 000c 87000000 		.4byte	.LASF14
 377 0010 01       		.byte	0x1
 378 0011 6F000000 		.4byte	.LASF15
 379 0015 31000000 		.4byte	.LASF16
 380 0019 00000000 		.4byte	.Ldebug_ranges0+0
 381 001d 00000000 		.4byte	0
 382 0021 00000000 		.4byte	.Ldebug_line0
 383 0025 02       		.uleb128 0x2
 384 0026 63726300 		.ascii	"crc\000"
 385 002a 02       		.byte	0x2
 386 002b 2C       		.byte	0x2c
 387 002c 30000000 		.4byte	0x30
 388 0030 03       		.uleb128 0x3
 389 0031 02       		.byte	0x2
 390 0032 07       		.byte	0x7
 391 0033 5C000000 		.4byte	.LASF3
 392 0037 04       		.uleb128 0x4
 393 0038 75000000 		.4byte	.LASF17
ARM GAS  /tmp/ccey5Hl3.s 			page 8


 394 003c 01       		.byte	0x1
 395 003d 39       		.byte	0x39
 396 003e 89000000 		.4byte	0x89
 397 0042 00000000 		.4byte	.LFB0
 398 0046 5C000000 		.4byte	.LFE0-.LFB0
 399 004a 01       		.uleb128 0x1
 400 004b 9C       		.byte	0x9c
 401 004c 89000000 		.4byte	0x89
 402 0050 05       		.uleb128 0x5
 403 0051 62010000 		.4byte	.LASF0
 404 0055 01       		.byte	0x1
 405 0056 39       		.byte	0x39
 406 0057 89000000 		.4byte	0x89
 407 005b 02       		.uleb128 0x2
 408 005c 91       		.byte	0x91
 409 005d 74       		.sleb128 -12
 410 005e 05       		.uleb128 0x5
 411 005f 4E000000 		.4byte	.LASF1
 412 0063 01       		.byte	0x1
 413 0064 39       		.byte	0x39
 414 0065 90000000 		.4byte	0x90
 415 0069 02       		.uleb128 0x2
 416 006a 91       		.byte	0x91
 417 006b 73       		.sleb128 -13
 418 006c 06       		.uleb128 0x6
 419 006d 37010000 		.4byte	.LASF2
 420 0071 01       		.byte	0x1
 421 0072 3B       		.byte	0x3b
 422 0073 89000000 		.4byte	0x89
 423 0077 02       		.uleb128 0x2
 424 0078 91       		.byte	0x91
 425 0079 7C       		.sleb128 -4
 426 007a 07       		.uleb128 0x7
 427 007b 62697400 		.ascii	"bit\000"
 428 007f 01       		.byte	0x1
 429 0080 3C       		.byte	0x3c
 430 0081 90000000 		.4byte	0x90
 431 0085 02       		.uleb128 0x2
 432 0086 91       		.byte	0x91
 433 0087 7B       		.sleb128 -5
 434 0088 00       		.byte	0
 435 0089 03       		.uleb128 0x3
 436 008a 04       		.byte	0x4
 437 008b 07       		.byte	0x7
 438 008c 17000000 		.4byte	.LASF4
 439 0090 03       		.uleb128 0x3
 440 0091 01       		.byte	0x1
 441 0092 08       		.byte	0x8
 442 0093 4B010000 		.4byte	.LASF5
 443 0097 08       		.uleb128 0x8
 444 0098 08000000 		.4byte	.LASF11
 445 009c 01       		.byte	0x1
 446 009d 5F       		.byte	0x5f
 447 009e 25000000 		.4byte	0x25
 448 00a2 00000000 		.4byte	.LFB1
 449 00a6 A6000000 		.4byte	.LFE1-.LFB1
 450 00aa 01       		.uleb128 0x1
ARM GAS  /tmp/ccey5Hl3.s 			page 9


 451 00ab 9C       		.byte	0x9c
 452 00ac F7000000 		.4byte	0xf7
 453 00b0 05       		.uleb128 0x5
 454 00b1 29000000 		.4byte	.LASF6
 455 00b5 01       		.byte	0x1
 456 00b6 5F       		.byte	0x5f
 457 00b7 F7000000 		.4byte	0xf7
 458 00bb 02       		.uleb128 0x2
 459 00bc 91       		.byte	0x91
 460 00bd 64       		.sleb128 -28
 461 00be 05       		.uleb128 0x5
 462 00bf 10000000 		.4byte	.LASF7
 463 00c3 01       		.byte	0x1
 464 00c4 5F       		.byte	0x5f
 465 00c5 FD000000 		.4byte	0xfd
 466 00c9 02       		.uleb128 0x2
 467 00ca 91       		.byte	0x91
 468 00cb 60       		.sleb128 -32
 469 00cc 06       		.uleb128 0x6
 470 00cd 7D000000 		.4byte	.LASF8
 471 00d1 01       		.byte	0x1
 472 00d2 61       		.byte	0x61
 473 00d3 25000000 		.4byte	0x25
 474 00d7 02       		.uleb128 0x2
 475 00d8 91       		.byte	0x91
 476 00d9 76       		.sleb128 -10
 477 00da 06       		.uleb128 0x6
 478 00db 70010000 		.4byte	.LASF9
 479 00df 01       		.byte	0x1
 480 00e0 62       		.byte	0x62
 481 00e1 FD000000 		.4byte	0xfd
 482 00e5 02       		.uleb128 0x2
 483 00e6 91       		.byte	0x91
 484 00e7 70       		.sleb128 -16
 485 00e8 07       		.uleb128 0x7
 486 00e9 62697400 		.ascii	"bit\000"
 487 00ed 01       		.byte	0x1
 488 00ee 63       		.byte	0x63
 489 00ef 90000000 		.4byte	0x90
 490 00f3 02       		.uleb128 0x2
 491 00f4 91       		.byte	0x91
 492 00f5 6F       		.sleb128 -17
 493 00f6 00       		.byte	0
 494 00f7 09       		.uleb128 0x9
 495 00f8 04       		.byte	0x4
 496 00f9 90000000 		.4byte	0x90
 497 00fd 0A       		.uleb128 0xa
 498 00fe 04       		.byte	0x4
 499 00ff 05       		.byte	0x5
 500 0100 696E7400 		.ascii	"int\000"
 501 0104 0B       		.uleb128 0xb
 502 0105 54000000 		.4byte	.LASF18
 503 0109 01       		.byte	0x1
 504 010a 9C       		.byte	0x9c
 505 010b 00000000 		.4byte	.LFB2
 506 010f 7C000000 		.4byte	.LFE2-.LFB2
 507 0113 01       		.uleb128 0x1
ARM GAS  /tmp/ccey5Hl3.s 			page 10


 508 0114 9C       		.byte	0x9c
 509 0115 44010000 		.4byte	0x144
 510 0119 06       		.uleb128 0x6
 511 011a 7D000000 		.4byte	.LASF8
 512 011e 01       		.byte	0x1
 513 011f 9E       		.byte	0x9e
 514 0120 25000000 		.4byte	0x25
 515 0124 02       		.uleb128 0x2
 516 0125 91       		.byte	0x91
 517 0126 7E       		.sleb128 -2
 518 0127 06       		.uleb128 0x6
 519 0128 67010000 		.4byte	.LASF10
 520 012c 01       		.byte	0x1
 521 012d 9F       		.byte	0x9f
 522 012e FD000000 		.4byte	0xfd
 523 0132 02       		.uleb128 0x2
 524 0133 91       		.byte	0x91
 525 0134 78       		.sleb128 -8
 526 0135 07       		.uleb128 0x7
 527 0136 62697400 		.ascii	"bit\000"
 528 013a 01       		.byte	0x1
 529 013b A0       		.byte	0xa0
 530 013c 90000000 		.4byte	0x90
 531 0140 02       		.uleb128 0x2
 532 0141 91       		.byte	0x91
 533 0142 77       		.sleb128 -9
 534 0143 00       		.byte	0
 535 0144 08       		.uleb128 0x8
 536 0145 00000000 		.4byte	.LASF12
 537 0149 01       		.byte	0x1
 538 014a D4       		.byte	0xd4
 539 014b 25000000 		.4byte	0x25
 540 014f 00000000 		.4byte	.LFB3
 541 0153 80000000 		.4byte	.LFE3-.LFB3
 542 0157 01       		.uleb128 0x1
 543 0158 9C       		.byte	0x9c
 544 0159 A4010000 		.4byte	0x1a4
 545 015d 05       		.uleb128 0x5
 546 015e 29000000 		.4byte	.LASF6
 547 0162 01       		.byte	0x1
 548 0163 D4       		.byte	0xd4
 549 0164 F7000000 		.4byte	0xf7
 550 0168 02       		.uleb128 0x2
 551 0169 91       		.byte	0x91
 552 016a 64       		.sleb128 -28
 553 016b 05       		.uleb128 0x5
 554 016c 10000000 		.4byte	.LASF7
 555 0170 01       		.byte	0x1
 556 0171 D4       		.byte	0xd4
 557 0172 FD000000 		.4byte	0xfd
 558 0176 02       		.uleb128 0x2
 559 0177 91       		.byte	0x91
 560 0178 60       		.sleb128 -32
 561 0179 06       		.uleb128 0x6
 562 017a 7D000000 		.4byte	.LASF8
 563 017e 01       		.byte	0x1
 564 017f D6       		.byte	0xd6
ARM GAS  /tmp/ccey5Hl3.s 			page 11


 565 0180 25000000 		.4byte	0x25
 566 0184 02       		.uleb128 0x2
 567 0185 91       		.byte	0x91
 568 0186 76       		.sleb128 -10
 569 0187 06       		.uleb128 0x6
 570 0188 62010000 		.4byte	.LASF0
 571 018c 01       		.byte	0x1
 572 018d D7       		.byte	0xd7
 573 018e 90000000 		.4byte	0x90
 574 0192 02       		.uleb128 0x2
 575 0193 91       		.byte	0x91
 576 0194 6F       		.sleb128 -17
 577 0195 06       		.uleb128 0x6
 578 0196 70010000 		.4byte	.LASF9
 579 019a 01       		.byte	0x1
 580 019b D8       		.byte	0xd8
 581 019c FD000000 		.4byte	0xfd
 582 01a0 02       		.uleb128 0x2
 583 01a1 91       		.byte	0x91
 584 01a2 70       		.sleb128 -16
 585 01a3 00       		.byte	0
 586 01a4 0C       		.uleb128 0xc
 587 01a5 25000000 		.4byte	0x25
 588 01a9 B4010000 		.4byte	0x1b4
 589 01ad 0D       		.uleb128 0xd
 590 01ae B4010000 		.4byte	0x1b4
 591 01b2 FF       		.byte	0xff
 592 01b3 00       		.byte	0
 593 01b4 03       		.uleb128 0x3
 594 01b5 04       		.byte	0x4
 595 01b6 07       		.byte	0x7
 596 01b7 59010000 		.4byte	.LASF13
 597 01bb 0E       		.uleb128 0xe
 598 01bc 42010000 		.4byte	.LASF19
 599 01c0 01       		.byte	0x1
 600 01c1 8B       		.byte	0x8b
 601 01c2 A4010000 		.4byte	0x1a4
 602 01c6 05       		.uleb128 0x5
 603 01c7 03       		.byte	0x3
 604 01c8 00000000 		.4byte	crcTable
 605 01cc 00       		.byte	0
 606              		.section	.debug_abbrev,"",%progbits
 607              	.Ldebug_abbrev0:
 608 0000 01       		.uleb128 0x1
 609 0001 11       		.uleb128 0x11
 610 0002 01       		.byte	0x1
 611 0003 25       		.uleb128 0x25
 612 0004 0E       		.uleb128 0xe
 613 0005 13       		.uleb128 0x13
 614 0006 0B       		.uleb128 0xb
 615 0007 03       		.uleb128 0x3
 616 0008 0E       		.uleb128 0xe
 617 0009 1B       		.uleb128 0x1b
 618 000a 0E       		.uleb128 0xe
 619 000b 55       		.uleb128 0x55
 620 000c 17       		.uleb128 0x17
 621 000d 11       		.uleb128 0x11
ARM GAS  /tmp/ccey5Hl3.s 			page 12


 622 000e 01       		.uleb128 0x1
 623 000f 10       		.uleb128 0x10
 624 0010 17       		.uleb128 0x17
 625 0011 00       		.byte	0
 626 0012 00       		.byte	0
 627 0013 02       		.uleb128 0x2
 628 0014 16       		.uleb128 0x16
 629 0015 00       		.byte	0
 630 0016 03       		.uleb128 0x3
 631 0017 08       		.uleb128 0x8
 632 0018 3A       		.uleb128 0x3a
 633 0019 0B       		.uleb128 0xb
 634 001a 3B       		.uleb128 0x3b
 635 001b 0B       		.uleb128 0xb
 636 001c 49       		.uleb128 0x49
 637 001d 13       		.uleb128 0x13
 638 001e 00       		.byte	0
 639 001f 00       		.byte	0
 640 0020 03       		.uleb128 0x3
 641 0021 24       		.uleb128 0x24
 642 0022 00       		.byte	0
 643 0023 0B       		.uleb128 0xb
 644 0024 0B       		.uleb128 0xb
 645 0025 3E       		.uleb128 0x3e
 646 0026 0B       		.uleb128 0xb
 647 0027 03       		.uleb128 0x3
 648 0028 0E       		.uleb128 0xe
 649 0029 00       		.byte	0
 650 002a 00       		.byte	0
 651 002b 04       		.uleb128 0x4
 652 002c 2E       		.uleb128 0x2e
 653 002d 01       		.byte	0x1
 654 002e 03       		.uleb128 0x3
 655 002f 0E       		.uleb128 0xe
 656 0030 3A       		.uleb128 0x3a
 657 0031 0B       		.uleb128 0xb
 658 0032 3B       		.uleb128 0x3b
 659 0033 0B       		.uleb128 0xb
 660 0034 27       		.uleb128 0x27
 661 0035 19       		.uleb128 0x19
 662 0036 49       		.uleb128 0x49
 663 0037 13       		.uleb128 0x13
 664 0038 11       		.uleb128 0x11
 665 0039 01       		.uleb128 0x1
 666 003a 12       		.uleb128 0x12
 667 003b 06       		.uleb128 0x6
 668 003c 40       		.uleb128 0x40
 669 003d 18       		.uleb128 0x18
 670 003e 9742     		.uleb128 0x2117
 671 0040 19       		.uleb128 0x19
 672 0041 01       		.uleb128 0x1
 673 0042 13       		.uleb128 0x13
 674 0043 00       		.byte	0
 675 0044 00       		.byte	0
 676 0045 05       		.uleb128 0x5
 677 0046 05       		.uleb128 0x5
 678 0047 00       		.byte	0
ARM GAS  /tmp/ccey5Hl3.s 			page 13


 679 0048 03       		.uleb128 0x3
 680 0049 0E       		.uleb128 0xe
 681 004a 3A       		.uleb128 0x3a
 682 004b 0B       		.uleb128 0xb
 683 004c 3B       		.uleb128 0x3b
 684 004d 0B       		.uleb128 0xb
 685 004e 49       		.uleb128 0x49
 686 004f 13       		.uleb128 0x13
 687 0050 02       		.uleb128 0x2
 688 0051 18       		.uleb128 0x18
 689 0052 00       		.byte	0
 690 0053 00       		.byte	0
 691 0054 06       		.uleb128 0x6
 692 0055 34       		.uleb128 0x34
 693 0056 00       		.byte	0
 694 0057 03       		.uleb128 0x3
 695 0058 0E       		.uleb128 0xe
 696 0059 3A       		.uleb128 0x3a
 697 005a 0B       		.uleb128 0xb
 698 005b 3B       		.uleb128 0x3b
 699 005c 0B       		.uleb128 0xb
 700 005d 49       		.uleb128 0x49
 701 005e 13       		.uleb128 0x13
 702 005f 02       		.uleb128 0x2
 703 0060 18       		.uleb128 0x18
 704 0061 00       		.byte	0
 705 0062 00       		.byte	0
 706 0063 07       		.uleb128 0x7
 707 0064 34       		.uleb128 0x34
 708 0065 00       		.byte	0
 709 0066 03       		.uleb128 0x3
 710 0067 08       		.uleb128 0x8
 711 0068 3A       		.uleb128 0x3a
 712 0069 0B       		.uleb128 0xb
 713 006a 3B       		.uleb128 0x3b
 714 006b 0B       		.uleb128 0xb
 715 006c 49       		.uleb128 0x49
 716 006d 13       		.uleb128 0x13
 717 006e 02       		.uleb128 0x2
 718 006f 18       		.uleb128 0x18
 719 0070 00       		.byte	0
 720 0071 00       		.byte	0
 721 0072 08       		.uleb128 0x8
 722 0073 2E       		.uleb128 0x2e
 723 0074 01       		.byte	0x1
 724 0075 3F       		.uleb128 0x3f
 725 0076 19       		.uleb128 0x19
 726 0077 03       		.uleb128 0x3
 727 0078 0E       		.uleb128 0xe
 728 0079 3A       		.uleb128 0x3a
 729 007a 0B       		.uleb128 0xb
 730 007b 3B       		.uleb128 0x3b
 731 007c 0B       		.uleb128 0xb
 732 007d 27       		.uleb128 0x27
 733 007e 19       		.uleb128 0x19
 734 007f 49       		.uleb128 0x49
 735 0080 13       		.uleb128 0x13
ARM GAS  /tmp/ccey5Hl3.s 			page 14


 736 0081 11       		.uleb128 0x11
 737 0082 01       		.uleb128 0x1
 738 0083 12       		.uleb128 0x12
 739 0084 06       		.uleb128 0x6
 740 0085 40       		.uleb128 0x40
 741 0086 18       		.uleb128 0x18
 742 0087 9642     		.uleb128 0x2116
 743 0089 19       		.uleb128 0x19
 744 008a 01       		.uleb128 0x1
 745 008b 13       		.uleb128 0x13
 746 008c 00       		.byte	0
 747 008d 00       		.byte	0
 748 008e 09       		.uleb128 0x9
 749 008f 0F       		.uleb128 0xf
 750 0090 00       		.byte	0
 751 0091 0B       		.uleb128 0xb
 752 0092 0B       		.uleb128 0xb
 753 0093 49       		.uleb128 0x49
 754 0094 13       		.uleb128 0x13
 755 0095 00       		.byte	0
 756 0096 00       		.byte	0
 757 0097 0A       		.uleb128 0xa
 758 0098 24       		.uleb128 0x24
 759 0099 00       		.byte	0
 760 009a 0B       		.uleb128 0xb
 761 009b 0B       		.uleb128 0xb
 762 009c 3E       		.uleb128 0x3e
 763 009d 0B       		.uleb128 0xb
 764 009e 03       		.uleb128 0x3
 765 009f 08       		.uleb128 0x8
 766 00a0 00       		.byte	0
 767 00a1 00       		.byte	0
 768 00a2 0B       		.uleb128 0xb
 769 00a3 2E       		.uleb128 0x2e
 770 00a4 01       		.byte	0x1
 771 00a5 3F       		.uleb128 0x3f
 772 00a6 19       		.uleb128 0x19
 773 00a7 03       		.uleb128 0x3
 774 00a8 0E       		.uleb128 0xe
 775 00a9 3A       		.uleb128 0x3a
 776 00aa 0B       		.uleb128 0xb
 777 00ab 3B       		.uleb128 0x3b
 778 00ac 0B       		.uleb128 0xb
 779 00ad 27       		.uleb128 0x27
 780 00ae 19       		.uleb128 0x19
 781 00af 11       		.uleb128 0x11
 782 00b0 01       		.uleb128 0x1
 783 00b1 12       		.uleb128 0x12
 784 00b2 06       		.uleb128 0x6
 785 00b3 40       		.uleb128 0x40
 786 00b4 18       		.uleb128 0x18
 787 00b5 9742     		.uleb128 0x2117
 788 00b7 19       		.uleb128 0x19
 789 00b8 01       		.uleb128 0x1
 790 00b9 13       		.uleb128 0x13
 791 00ba 00       		.byte	0
 792 00bb 00       		.byte	0
ARM GAS  /tmp/ccey5Hl3.s 			page 15


 793 00bc 0C       		.uleb128 0xc
 794 00bd 01       		.uleb128 0x1
 795 00be 01       		.byte	0x1
 796 00bf 49       		.uleb128 0x49
 797 00c0 13       		.uleb128 0x13
 798 00c1 01       		.uleb128 0x1
 799 00c2 13       		.uleb128 0x13
 800 00c3 00       		.byte	0
 801 00c4 00       		.byte	0
 802 00c5 0D       		.uleb128 0xd
 803 00c6 21       		.uleb128 0x21
 804 00c7 00       		.byte	0
 805 00c8 49       		.uleb128 0x49
 806 00c9 13       		.uleb128 0x13
 807 00ca 2F       		.uleb128 0x2f
 808 00cb 0B       		.uleb128 0xb
 809 00cc 00       		.byte	0
 810 00cd 00       		.byte	0
 811 00ce 0E       		.uleb128 0xe
 812 00cf 34       		.uleb128 0x34
 813 00d0 00       		.byte	0
 814 00d1 03       		.uleb128 0x3
 815 00d2 0E       		.uleb128 0xe
 816 00d3 3A       		.uleb128 0x3a
 817 00d4 0B       		.uleb128 0xb
 818 00d5 3B       		.uleb128 0x3b
 819 00d6 0B       		.uleb128 0xb
 820 00d7 49       		.uleb128 0x49
 821 00d8 13       		.uleb128 0x13
 822 00d9 3F       		.uleb128 0x3f
 823 00da 19       		.uleb128 0x19
 824 00db 02       		.uleb128 0x2
 825 00dc 18       		.uleb128 0x18
 826 00dd 00       		.byte	0
 827 00de 00       		.byte	0
 828 00df 00       		.byte	0
 829              		.section	.debug_aranges,"",%progbits
 830 0000 34000000 		.4byte	0x34
 831 0004 0200     		.2byte	0x2
 832 0006 00000000 		.4byte	.Ldebug_info0
 833 000a 04       		.byte	0x4
 834 000b 00       		.byte	0
 835 000c 0000     		.2byte	0
 836 000e 0000     		.2byte	0
 837 0010 00000000 		.4byte	.LFB0
 838 0014 5C000000 		.4byte	.LFE0-.LFB0
 839 0018 00000000 		.4byte	.LFB1
 840 001c A6000000 		.4byte	.LFE1-.LFB1
 841 0020 00000000 		.4byte	.LFB2
 842 0024 7C000000 		.4byte	.LFE2-.LFB2
 843 0028 00000000 		.4byte	.LFB3
 844 002c 80000000 		.4byte	.LFE3-.LFB3
 845 0030 00000000 		.4byte	0
 846 0034 00000000 		.4byte	0
 847              		.section	.debug_ranges,"",%progbits
 848              	.Ldebug_ranges0:
 849 0000 00000000 		.4byte	.LFB0
ARM GAS  /tmp/ccey5Hl3.s 			page 16


 850 0004 5C000000 		.4byte	.LFE0
 851 0008 00000000 		.4byte	.LFB1
 852 000c A6000000 		.4byte	.LFE1
 853 0010 00000000 		.4byte	.LFB2
 854 0014 7C000000 		.4byte	.LFE2
 855 0018 00000000 		.4byte	.LFB3
 856 001c 80000000 		.4byte	.LFE3
 857 0020 00000000 		.4byte	0
 858 0024 00000000 		.4byte	0
 859              		.section	.debug_line,"",%progbits
 860              	.Ldebug_line0:
 861 0000 DC000000 		.section	.debug_str,"MS",%progbits,1
 861      02002500 
 861      00000201 
 861      FB0E0D00 
 861      01010101 
 862              	.LASF12:
 863 0000 63726346 		.ascii	"crcFast\000"
 863      61737400 
 864              	.LASF11:
 865 0008 63726353 		.ascii	"crcSlow\000"
 865      6C6F7700 
 866              	.LASF7:
 867 0010 6E427974 		.ascii	"nBytes\000"
 867      657300
 868              	.LASF4:
 869 0017 6C6F6E67 		.ascii	"long unsigned int\000"
 869      20756E73 
 869      69676E65 
 869      6420696E 
 869      7400
 870              	.LASF6:
 871 0029 6D657373 		.ascii	"message\000"
 871      61676500 
 872              	.LASF16:
 873 0031 2F686F6D 		.ascii	"/home/efe/projeler/led-panel\000"
 873      652F6566 
 873      652F7072 
 873      6F6A656C 
 873      65722F6C 
 874              	.LASF1:
 875 004e 6E426974 		.ascii	"nBits\000"
 875      7300
 876              	.LASF18:
 877 0054 63726349 		.ascii	"crcInit\000"
 877      6E697400 
 878              	.LASF3:
 879 005c 73686F72 		.ascii	"short unsigned int\000"
 879      7420756E 
 879      7369676E 
 879      65642069 
 879      6E7400
 880              	.LASF15:
 881 006f 6372632E 		.ascii	"crc.c\000"
 881      6300
 882              	.LASF17:
 883 0075 7265666C 		.ascii	"reflect\000"
ARM GAS  /tmp/ccey5Hl3.s 			page 17


 883      65637400 
 884              	.LASF8:
 885 007d 72656D61 		.ascii	"remainder\000"
 885      696E6465 
 885      7200
 886              	.LASF14:
 887 0087 474E5520 		.ascii	"GNU C 4.8.4 20141219 (release) -mcpu=cortex-m4 -mno"
 887      4320342E 
 887      382E3420 
 887      32303134 
 887      31323139 
 888 00ba 2D746875 		.ascii	"-thumb-interwork -mthumb -ggdb -O0 -fomit-frame-poi"
 888      6D622D69 
 888      6E746572 
 888      776F726B 
 888      202D6D74 
 889 00ed 6E746572 		.ascii	"nter -falign-functions=16 -ffunction-sections -fdat"
 889      202D6661 
 889      6C69676E 
 889      2D66756E 
 889      6374696F 
 890 0120 612D7365 		.ascii	"a-sections -fno-common\000"
 890      6374696F 
 890      6E73202D 
 890      666E6F2D 
 890      636F6D6D 
 891              	.LASF2:
 892 0137 7265666C 		.ascii	"reflection\000"
 892      65637469 
 892      6F6E00
 893              	.LASF19:
 894 0142 63726354 		.ascii	"crcTable\000"
 894      61626C65 
 894      00
 895              	.LASF5:
 896 014b 756E7369 		.ascii	"unsigned char\000"
 896      676E6564 
 896      20636861 
 896      7200
 897              	.LASF13:
 898 0159 73697A65 		.ascii	"sizetype\000"
 898      74797065 
 898      00
 899              	.LASF0:
 900 0162 64617461 		.ascii	"data\000"
 900      00
 901              	.LASF10:
 902 0167 64697669 		.ascii	"dividend\000"
 902      64656E64 
 902      00
 903              	.LASF9:
 904 0170 62797465 		.ascii	"byte\000"
 904      00
 905              		.ident	"GCC: (4.8.4-1+11-1) 4.8.4 20141219 (release)"
ARM GAS  /tmp/ccey5Hl3.s 			page 18


DEFINED SYMBOLS
                            *ABS*:0000000000000000 crc.c
     /tmp/ccey5Hl3.s:19     .text.reflect:0000000000000000 $t
     /tmp/ccey5Hl3.s:24     .text.reflect:0000000000000000 reflect
     /tmp/ccey5Hl3.s:86     .text.crcSlow:0000000000000000 $t
     /tmp/ccey5Hl3.s:92     .text.crcSlow:0000000000000000 crcSlow
     /tmp/ccey5Hl3.s:194    .bss.crcTable:0000000000000000 crcTable
     /tmp/ccey5Hl3.s:191    .bss.crcTable:0000000000000000 $d
     /tmp/ccey5Hl3.s:197    .text.crcInit:0000000000000000 $t
     /tmp/ccey5Hl3.s:203    .text.crcInit:0000000000000000 crcInit
     /tmp/ccey5Hl3.s:278    .text.crcInit:0000000000000078 $d
     /tmp/ccey5Hl3.s:283    .text.crcFast:0000000000000000 $t
     /tmp/ccey5Hl3.s:289    .text.crcFast:0000000000000000 crcFast
     /tmp/ccey5Hl3.s:362    .text.crcFast:000000000000007c $d
                     .debug_frame:0000000000000010 $d
     /tmp/ccey5Hl3.s:282    .text.crcInit:000000000000007c $t

NO UNDEFINED SYMBOLS
