ARM GAS  /tmp/ccAqVU6n.s 			page 1


   1              		.cpu cortex-m0
   2              		.fpu softvfp
   3              		.eabi_attribute 20, 1
   4              		.eabi_attribute 21, 1
   5              		.eabi_attribute 23, 3
   6              		.eabi_attribute 24, 1
   7              		.eabi_attribute 25, 1
   8              		.eabi_attribute 26, 1
   9              		.eabi_attribute 30, 6
  10              		.eabi_attribute 34, 0
  11              		.eabi_attribute 18, 4
  12              		.code	16
  13              		.file	"ext.c"
  14              		.text
  15              	.Ltext0:
  16              		.section	.gnu.lto_.inline.a2cfc071452c4200,"",%progbits
  17 0000 789C6362 		.ascii	"x\234cb`b\300\006\334\030!4/\003\003\0133\003\003\023"
  17      6062C006 
  17      DC182134 
  17      2F03030B 
  17      33030313 
  18 0014 CB073D06 		.ascii	"\313\007=\006\026\210ZF\014\021&\006\026\036 \311\264"
  18      16885A46 
  18      0C112606 
  18      161E20C9 
  18      B4
  19 0025 401EAE86 		.ascii	"@\036\256\206\013H0c\027f\301.\314\212]\230\015\273"
  19      0B483063 
  19      1766C12E 
  19      CC8A5D98 
  19      0DBB
  20 0037 303B032B 		.ascii	"0;\003+\013P\230\355\200\035L\230\203\201S\031U\004"
  20      0B5098ED 
  20      801D4C98 
  20      83815319 
  20      5504
  21 0049 AC90891B 		.ascii	"\254\220\211\033\306\342d\340PB\363\011\252\002.\210"
  21      C6E264E0 
  21      5042F309 
  21      AA022E88 
  22 0059 020C6FF0 		.ascii	"\002\014o\360\300X\334\204\024\3600p\013\003\025\360"
  22      C058DC84 
  22      14F03070 
  22      0B0315F0 
  23 0069 6CC88529 		.ascii	"l\310\205)\000\3131\000\000R\233\016\362"
  23      00CB3100 
  23      00529B0E 
  23      F2
  24              		.text
  25              		.section	.gnu.lto_port_lock.a2cfc071452c4200,"",%progbits
  26 0000 789C6362 		.ascii	"x\234cb`b@\007\"@<\035\210\253A\034f\006F\240\012F&"
  26      60624007 
  26      22403C1D 
  26      88AB411C 
  26      660646A0 
  27 0017 46462087 		.ascii	"FF \207\221\241\236\211\261>\222\021\254l=\323\201\007"
  27      91A19E89 
ARM GAS  /tmp/ccAqVU6n.s 			page 2


  27      B13E9211 
  27      AC6C3DD3 
  27      8107
  28 0029 FFFFAFDB 		.ascii	"\377\377\257\3332m\331\035\306\233L 1V\206\226\206\206"
  28      326DD91D 
  28      C69B4C20 
  28      31568696 
  28      8686
  29 003b 090A0C0C 		.ascii	"\011\012\014\014\311`\025!`2\024\244\237\371\034C\343"
  29      C9601521 
  29      603214A4 
  29      9FF91C43 
  29      E3
  30 004c C7B71FAE 		.ascii	"\307\267\037\2561\302\225\200\031\015\007\272\317\265"
  30      31C29580 
  30      190D07BA 
  30      CFB5
  31 005a B2323024 		.ascii	"\26220$2.\004\312$3B\014\006Z\223\315\014q\227\034C"
  31      322E04CA 
  31      2433420C 
  31      065A93CD 
  31      0C71971C 
  32 006f C9DC8619 		.ascii	"\311\334\206\031\016\231P\011\206\213\014\215\017\346"
  32      0E995009 
  32      868B0C8D 
  32      0FE6
  33 007d 6A4394C3 		.ascii	"jC\224\303@\010H\033H\265\221~F~n\252~jZ\252\276sFf"
  33      4008481B 
  33      48B5917E 
  33      467E6EAA 
  33      7E6A5AAA 
  34 0095 52A67FB0 		.ascii	"R\246\177\260~~\261~Q\211~A~QI\261\276c\220\257\263"
  34      7E7EB17E 
  34      51897E41 
  34      7E5149B1 
  34      BE6390AF 
  35 00aa 6F857E72 		.ascii	"o\205~rFr~Qj|\231Y\256^\006\203)V-\251\025%\372\316"
  35      46727E51 
  35      6A7C9959 
  35      AE5E0683 
  35      29562DA9 
  36 00c2 BEC19EC1 		.ascii	"\276\301\236\301\372\231y\3119\245)\251\372`-\311\271"
  36      FA9979C9 
  36      39A529A9 
  36      FA602DC9 
  36      B9
  37 00d3 6EA579C9 		.ascii	"n\245y\311@]\034\311\005\305\231)\012\231\014\354\271"
  37      405D1CC9 
  37      05C59929 
  37      0A990CEC 
  37      B9
  38 00e4 A9B9F945 		.ascii	"\251\271\371E\225\014\000?\304L\322"
  38      950C003F 
  38      C44CD2
  39              		.text
  40              		.section	.gnu.lto_port_unlock.a2cfc071452c4200,"",%progbits
  41 0000 789C6362 		.ascii	"x\234cb`b@\007\"@<\035\210\253A\034f\006F\240\012F&"
ARM GAS  /tmp/ccAqVU6n.s 			page 3


  41      60624007 
  41      22403C1D 
  41      88AB411C 
  41      660646A0 
  42 0017 46462087 		.ascii	"FF \207\221\241\236\211\261>\222\021\254l=\323\201\007"
  42      91A19E89 
  42      B13E9211 
  42      AC6C3DD3 
  42      8107
  43 0029 FFFFAFBB 		.ascii	"\377\377\257\2736m\371\033\306[L 1V\206\226\206\206"
  43      366DF91B 
  43      C65B4C20 
  43      31568696 
  43      8686
  44 003b 090A0C0C 		.ascii	"\011\012\014\014\311`\025!`2\024\244\237\371\034C\343"
  44      C9601521 
  44      603214A4 
  44      9FF91C43 
  44      E3
  45 004c C7B7BBAE 		.ascii	"\307\267\273\2561\302\225\200\031\015\007N_\373\312"
  45      31C29580 
  45      190D074E 
  45      5FFBCA
  46 005b CCC090C8 		.ascii	"\314\300\220\310\270\020(\223\314\0101\030hM63\304]"
  46      B8102893 
  46      CC083118 
  46      684D3633 
  46      C45D
  47 006d 720C2573 		.ascii	"r\014%s\033f8dB%\030.24>X\247\015Q\016\003! m \325F"
  47      1B663864 
  47      4225182E 
  47      32343E58 
  47      A70D510E 
  48 0088 FA19F9B9 		.ascii	"\372\031\371\271\251\372\251i\251\372\316\031\231I\231"
  48      A9FAA969 
  48      A9FACE19 
  48      994999
  49 0097 FEC1FAF9 		.ascii	"\376\301\372\371\305\372E%\372\005\371E%\305\372\216"
  49      C5FA4525 
  49      FA05F945 
  49      25C5FA8E 
  50 00a7 41BECEBE 		.ascii	"A\276\316\276\025\372\311\031\311\371E\251\361ef\271"
  50      15FAC919 
  50      C9F945A9 
  50      F16566B9 
  51 00b7 7A190CA6 		.ascii	"z\031\014\246X\265\244V\224\350;\373\006{\006\353g\346"
  51      58B5A456 
  51      94E83BFB 
  51      067B06EB 
  51      67E6
  52 00c9 25E794A6 		.ascii	"%\347\224\246\244\352\203\265$\347\272\225\346%\003"
  52      A4EA83B5 
  52      24E7BA95 
  52      E62503
  53 00d8 75712417 		.ascii	"uq$\027\024g\246*d2\260\347\246\346\346\027U2\000\000"
  53      1467A62A 
  53      6432B0E7 
ARM GAS  /tmp/ccAqVU6n.s 			page 4


  53      A6E6E617 
  53      55320000 
  54 00ec DC484D98 		.ascii	"\334HM\230"
  55              		.text
  56              		.section	.gnu.lto_chSysLock.a2cfc071452c4200,"",%progbits
  57 0000 789C6362 		.ascii	"x\234cb`b@\007\"@\\\006\304Z \0163\003#P\005#\023##"
  57      60624007 
  57      22405C06 
  57      C45A200E 
  57      33032350 
  58 0019 90C3C850 		.ascii	"\220\303\310P\317\304X\037\311\010V\266\236\351\300"
  58      CFC4581F 
  58      C90856B6 
  58      9EE9C0
  59 0028 83FFFFD7 		.ascii	"\203\377\377\327}\271\266\354\017\343m&\220\030+CKC"
  59      7DB9B6EC 
  59      0FE36D26 
  59      90182B43 
  59      4B43
  60 003a C3040506 		.ascii	"\303\004\005\006\206d\260\212\0200\031\012\322\317|"
  60      8664B08A 
  60      1030190A 
  60      D2CF7C
  61 0049 9EA1F9C1 		.ascii	"\236\241\371\301\236n\366D\306\205\214\254@\301j\206"
  61      9E6EF644 
  61      C6858CAC 
  61      40C16A86 
  62 0059 5F0D1D0D 		.ascii	"_\015\035\015\002\231\214@\245\020\3232A\364E\206\306"
  62      02998C40 
  62      A510D332 
  62      41F44586 
  62      C6
  63 006a 07FBB561 		.ascii	"\007\373\265a\212  \004$\001r\244\206~F~n\252~jZ\252"
  63      8A202004 
  63      240172A4 
  63      867E467E 
  63      6EAA7E6A 
  64 0080 BE734666 		.ascii	"\276sFfR\246\177\260~~\261~Q\211~f^rNiJ\252~rFqe\261"
  64      52A67FB0 
  64      7E7EB17E 
  64      51897E66 
  64      5E724E69 
  65 009c 5E060300 		.ascii	"^\006\003\000\376\375*9"
  65      FEFD2A39 
  66              		.text
  67              		.section	.gnu.lto_chSysUnlock.a2cfc071452c4200,"",%progbits
  68 0000 789C6362 		.ascii	"x\234cb`b@\007\322@\334\301\310\300\240\005\342\260"
  68      60624007 
  68      D240DCC1 
  68      C8C0A005 
  68      E2B0
  69 0012 30300255 		.ascii	"00\002U0212\003IfF\2400\003#C=\0233c}$\210\315\300\246"
  69      30323132 
  69      03496646 
  69      A0300323 
  69      433D1333 
  70 002d C4B0B0A1 		.ascii	"\304\260\260\241a\322\203\247\337gIv-h\232\320\360\357"
ARM GAS  /tmp/ccAqVU6n.s 			page 5


  70      61D283A7 
  70      DF674976 
  70      2D689AD0 
  70      F0EF
  71 003f FF7FC64C 		.ascii	"\377\177\306L\220T2#C\004\220\305\250\000\246\230XP"
  71      90543223 
  71      430490C5 
  71      A800A698 
  71      5850
  72 0051 2D81686B 		.ascii	"-\201hk\330\264\242\201sA\303\237\377\377\231\311\323"
  72      D8B4A281 
  72      7341C39F 
  72      FFFF99C9 
  72      D3
  73 0062 C33C58EC 		.ascii	"\303<X\354\311edX\317t\340\301\377\377ov\356|\364\206"
  73      C9656458 
  73      CF74E0C1 
  73      FFFF6F76 
  73      EE7CF486 
  74 0076 5114640B 		.ascii	"Q\024d\013+CKC\303\004\205\\\250\215@\020\002%\201A"
  74      2B434B43 
  74      C304855C 
  74      A88D4010 
  74      02258141 
  75 008a CA1C0A32 		.ascii	"\312\034\0122\224\371<C\363\203\327\247\331\023\031"
  75      94F93C43 
  75      F383D7A7 
  75      D91319
  76 0099 9731B202 		.ascii	"\2271\262\002\245\252\031~5t4\010d2\262$\203\303\232"
  76      A5AA197E 
  76      35743408 
  76      6432B224 
  76      83C39A
  77 00ac 81211324 		.ascii	"\201!\023$~\221\241\361\301\033m\230\"\010\010\001)"
  77      7E91A1F1 
  77      C11B6D98 
  77      22080801 
  77      29
  78 00bd 00C59E86 		.ascii	"\000\305\236\206~F~n\252~jZ\252\276sFfR\246\177\260"
  78      7E467E6E 
  78      AA7E6A5A 
  78      AABE7346 
  78      6652A67F 
  79 00d2 7E7EB17E 		.ascii	"~~\261~Q\211~f^rNiJ\252~rFqe\261^\006\003\000\303\313"
  79      51897E66 
  79      5E724E69 
  79      4AAA7E72 
  79      467165B1 
  80 00ec 66D2     		.ascii	"f\322"
  81              		.text
  82              		.section	.gnu.lto_osalSysLock.a2cfc071452c4200,"",%progbits
  83 0000 789C6362 		.ascii	"x\234cb`b@\007\"@\\\006\304Z \0163\003#P\005#\023##"
  83      60624007 
  83      22405C06 
  83      C45A200E 
  83      33032350 
  84 0019 90C3C850 		.ascii	"\220\303\310P\317\304X\037\311\010V\266\236\351\300"
ARM GAS  /tmp/ccAqVU6n.s 			page 6


  84      CFC4581F 
  84      C90856B6 
  84      9EE9C0
  85 0028 83FFFFD7 		.ascii	"\203\377\377\327m\233\277\374\015\343_&\220\030+CKC"
  85      6D9BBFFC 
  85      0DE35F26 
  85      90182B43 
  85      4B43
  86 003a C3040506 		.ascii	"\303\004\005\006\206d\260\212\0200\031\012\322\317|"
  86      8664B08A 
  86      1030190A 
  86      D2CF7C
  87 0049 9EA1F9C1 		.ascii	"\236\241\371\301\335~\366D\306\205\214\254@\301j\206"
  87      DD7EF644 
  87      C6858CAC 
  87      40C16A86 
  88 0059 5F0D1D0D 		.ascii	"_\015\035\015\002\231\214@\245\020\3232A\364E\206\306"
  88      02998C40 
  88      A510D332 
  88      41F44586 
  88      C6
  89 006a 07F7F461 		.ascii	"\007\367\364a\212  \004$\001r\244\206~F~n\252~jZ\252"
  89      8A202004 
  89      240172A4 
  89      867E467E 
  89      6EAA7E6A 
  90 0080 BE734666 		.ascii	"\276sFfR\246\177\260~~\261~Fb\016\220\002\022E%`Z/\203"
  90      52A67FB0 
  90      7E7EB17E 
  90      46620E90 
  90      02124525 
  91 0098 0100DBCC 		.ascii	"\001\000\333\314)\323"
  91      29D3
  92              		.text
  93              		.section	.gnu.lto_osalSysUnlock.a2cfc071452c4200,"",%progbits
  94 0000 789C6362 		.ascii	"x\234cb`b@\007\"@\\\006\304Z \0163\003#P\005#\023##"
  94      60624007 
  94      22405C06 
  94      C45A200E 
  94      33032350 
  95 0019 90C3C850 		.ascii	"\220\303\310P\317\304X\037\311\010V\266\236\351\300"
  95      CFC4581F 
  95      C90856B6 
  95      9EE9C0
  96 0028 83FFFFD7 		.ascii	"\203\377\377\327\335\231\277f\016\343\177&\220\030+"
  96      DD99BF66 
  96      0EE37F26 
  96      90182B
  97 0037 434B43C3 		.ascii	"CKC\303\004\005\006\206d\260\212\0200\031\012\322\317"
  97      04050686 
  97      64B08A10 
  97      30190AD2 
  97      CF
  98 0048 7C9EA1F9 		.ascii	"|\236\241\371\301\217\363\354\211\214\013\031Y\201\202"
  98      C18FF3EC 
  98      898C0B19 
  98      598182
ARM GAS  /tmp/ccAqVU6n.s 			page 7


  99 0057 D50CBF1A 		.ascii	"\325\014\277\032:\032\0042\031\201J!\246e\202\350\213"
  99      3A1A0432 
  99      19814A21 
  99      A66582E8 
  99      8B
 100 0068 0C8D0F7E 		.ascii	"\014\215\017~\352\303\024A@\010H\002\344H\015\375\214"
 100      EAC31441 
 100      40084802 
 100      E4480DFD 
 100      8C
 101 0079 FCDC54FD 		.ascii	"\374\334T\375\324\264T}\347\214\314\244L\377`\375\374"
 101      D4B4547D 
 101      E78CCCA4 
 101      4CFF60FD 
 101      FC
 102 008a 62FD8CC4 		.ascii	"b\375\214\304\034 \005$\212J\300\264^\006\003\000\364"
 102      1C200524 
 102      8A4AC0B4 
 102      5E060300 
 102      F4
 103 009b 602A26   		.ascii	"`*&"
 104              		.text
 105              		.section	.gnu.lto_extInit.a2cfc071452c4200,"",%progbits
 106 0000 789C6362 		.ascii	"x\234cb`b@\007\"@\\\014\304\252 \0163\003#P\005#\023"
 106      60624007 
 106      22405C0C 
 106      C4AA200E 
 106      33032350 
 107 0017 232390C3 		.ascii	"##\220\303\310P\317\304X\037\311\010V\266\236\351\300"
 107      C850CFC4 
 107      581FC908 
 107      56B69EE9 
 107      C0
 108 0028 83FFFFD7 		.ascii	"\203\377\377\327}\330\370\260\032,\311\312\320\322\320"
 108      7DD8F8B0 
 108      1A2CC9CA 
 108      D0D2D0
 109 0037 30418181 		.ascii	"0A\201\201!\031,\037\002&CA\272\231\31734?\370e\227"
 109      21192C1F 
 109      02264341 
 109      BA99CF33 
 109      343FF865 
 110 004c C8B89091 		.ascii	"\310\270\220\221\025(V\315\360\253\241\243A \223\021"
 110      152856CD 
 110      F0ABA1A3 
 110      41209311 
 111 005c A8126254 		.ascii	"\250\022bT&\210\276\310\320\370\3407\023L\021\004\204"
 111      2688BEC8 
 111      D0F8E037 
 111      134C1104 
 111      84
 112 006d 8024402E 		.ascii	"\200$@.T\326\317\310\317M\325OMK\325w\316\310L\312\364"
 112      54D6CFC8 
 112      CF4DD54F 
 112      4D4BD577 
 112      CEC84CCA 
 113 0082 0FD6CF2F 		.ascii	"\017\326\317/\326\317H\314\321/.J\326O\255(\321Kf\000"
ARM GAS  /tmp/ccAqVU6n.s 			page 8


 113      D6CF48CC 
 113      D12F2E4A 
 113      D64FAD28 
 113      D14B6600 
 114 0096 004B8026 		.ascii	"\000K\200&\262"
 114      B2
 115              		.text
 116              		.section	.gnu.lto_extObjectInit.a2cfc071452c4200,"",%progbits
 117 0000 789C6362 		.ascii	"x\234cb`b@\007\"@|\021\210UA\034f\006F\240\012F&FF "
 117      60624007 
 117      22407C11 
 117      8855411C 
 117      660646A0 
 118 001a 8791A19E 		.ascii	"\207\221\241\236\211\261>\222\021\254l=\323\201\007"
 118      89B13E92 
 118      11AC6C3D 
 118      D38107
 119 0029 FFFFAF9B 		.ascii	"\377\377\257\233qlY\017\343L&\240\202\\\2608+CKC\303"
 119      716C590F 
 119      E34C26A0 
 119      825CB038 
 119      2B434B43 
 120 003e 04050686 		.ascii	"\004\005\006\206d07\004L\206\202\014a>\313\320\264\343"
 120      64303704 
 120      4C86820C 
 120      613ECBD0 
 120      B4E3
 121 0050 C6E3034C 		.ascii	"\306\343\003L\211\214\013\031Y\031\264\031V5\000\001"
 121      898C0B19 
 121      5919B419 
 121      56350001 
 122 0060 7F2623C3 		.ascii	"\177&#\303l\206Y\214\231\214\214\351\214\214\021@\032"
 122      6C86598C 
 122      998C8CE9 
 122      8C8C1140 
 122      1A
 123 0071 E2A22488 		.ascii	"\342\242$\210-\014 \021\006\020\033\244\373\007\026"
 123      2D0C2011 
 123      06101BA4 
 123      FB0716
 124 0080 DDCCD875 		.ascii	"\335\314\330u3\302u33\200=\324\370`\2062D/\014\204\200"
 124      33C27533 
 124      33803DD4 
 124      F8608632 
 124      442F0C84 
 125 0095 1481D42B 		.ascii	"\024\201\324+\353g\344\347\246\352\247\246\245\352;"
 125      EB67E4E7 
 125      A6EAA7A6 
 125      A5EA3B
 126 00a4 67642665 		.ascii	"gd&e\372\007\353\347\027\353g$\346\350\027\027%\353"
 126      FA07EBE7 
 126      17EB6724 
 126      E6E81717 
 126      25EB
 127 00b6 A75694E8 		.ascii	"\247V\224\350%3\000\000\377%8{"
 127      25330000 
 127      FF25387B 
ARM GAS  /tmp/ccAqVU6n.s 			page 9


 128              		.text
 129              		.section	.gnu.lto_extStart.a2cfc071452c4200,"",%progbits
 130 0000 789C8D4F 		.ascii	"x\234\215O\261J\003A\020\235\267\233\230\230F\255l%"
 130      B14A0341 
 130      109DB79B 
 130      989846AD 
 130      6C25
 131 0012 C14A703F 		.ascii	"\301Jp?\302\017\2600\001-\223\343L\016<\002\306B\260"
 131      C20FB030 
 131      012D93E3 
 131      4C0E3C02 
 131      C642B0
 132 0025 C86A5288 		.ascii	"\310jR\210U\260\022m\024\021\304B+!\205\230\200\205"
 132      55B0126D 
 132      1411C442 
 132      2B218598 
 132      8085
 133 0037 854AF00F 		.ascii	"\205J\360\017\016\264\216m\020\361\234\311\235\010\321"
 133      0EB48E6D 
 133      10F19CC9 
 133      9D08D1
 134 0046 C20737BB 		.ascii	"\302\0077\273{3o\336{\212\024\215\"\313\337=\210f\345"
 134      7B336FDE 
 134      7B8A148D 
 134      22CBDF3D 
 134      8866E5
 135 0059 9124F004 		.ascii	"\221$\360\004\0244W\215\004\327\004\270I\240\272\322"
 135      1434578D 
 135      04D704B8 
 135      49A0BAD2 
 136 0069 09D457E4 		.ascii	"\011\324W\344A:K'\326\356\007g\375\203\351\275\300\266"
 136      413A4B27 
 136      D6EE0767 
 136      FD83E9BD 
 136      C0B6
 137 007b EC6718C2 		.ascii	"\354g\030\302\223\226\003Z\346\033\322\303CaTKh\366"
 137      9396035A 
 137      E61BD2C3 
 137      4361544B 
 137      68F6
 138 008d F2DCEA63 		.ascii	"\362\334\352c\373\021\206\372\037\034\037t\245\272A"
 138      FB1186FA 
 138      1F1C1F74 
 138      A5BA41
 139 009c 183E5EBF 		.ascii	"\030>^\277\276t0\245\001\037<\345\213S6\334\264\266"
 139      BE7430A5 
 139      011F3CE5 
 139      8B5336DC 
 139      B4B6
 140 00ae 35E3C77B 		.ascii	"5\343\307{\030\371\270rW\027$\207\356Q#h\337\245\212"
 140      18F9B872 
 140      57172487 
 140      EE512368 
 140      DFA58A
 141 00c1 3845925B 		.ascii	"8E\222[[\364nw\355\244\007\355 \322\362$\250\240 \027"
 141      5BF46E77 
 141      EDA407ED 
ARM GAS  /tmp/ccAqVU6n.s 			page 10


 141      20D2F224 
 141      A8A02017 
 142 00d5 FD443B0F 		.ascii	"\375D;\017\203~WE\2049\272\260\214\011\017\311#:d\203"
 142      837E5745 
 142      8439BAB0 
 142      8C090FC9 
 142      233A6483 
 143 00e9 6365408C 		.ascii	"ce@\214\246\206\224Rl\267,\202=j\0067\215\314/\245\264"
 143      A6869452 
 143      6CB72C82 
 143      3D6A0637 
 143      8DCC2FA5 
 144 00fe 03154F31 		.ascii	"\003\025O1q\234\210%\332\355\267\001F%2\177KD\032\362"
 144      719C8825 
 144      DAEDB701 
 144      4625327F 
 144      4B441AF2 
 145 0112 27237B24 		.ascii	"'#{$\320\355\0372\034H\377\004z\246\355\240\223\373"
 145      D0ED1F32 
 145      1C48FF04 
 145      7AA6EDA0 
 145      93FB
 146 0124 1E8A9097 		.ascii	"\036\212\220\227U\262\"g*U\3375\356\252k\026*^\311["
 146      55B22267 
 146      2A55DF35 
 146      EEAA6B16 
 146      2A5EC95B 
 147 0138 5C32D59A 		.ascii	"\\2\325\232\251\024\327Lm\3351\356\346\306\274C_)+o"
 147      A914D74C 
 147      6DDD31EE 
 147      E6C6BC43 
 147      5F292B6F 
 148 014c 47       		.ascii	"G"
 149              		.text
 150              		.section	.gnu.lto_extStop.a2cfc071452c4200,"",%progbits
 151 0000 789C8D50 		.ascii	"x\234\215P\261J\003A\020\235\331\275\363\242\215Z\331"
 151      B14A0341 
 151      109DD9BD 
 151      F3A28D5A 
 151      D9
 152 0011 4A8295E0 		.ascii	"J\202\225\340~\204\037`a\002Z&\307\351-x\004\214\205"
 152      7E841F60 
 152      61025A26 
 152      C7E92D78 
 152      048C85
 153 0024 6891D504 		.ascii	"h\221\325\004\011b\021\254D\033E\004\261\320V\260\021"
 153      096211AC 
 153      441B4504 
 153      B1D056B0 
 153      11
 154 0035 AC45EC05 		.ascii	"\254E\354\005W\254\314\017\010\022\\g\356N\204h\341"
 154      57ACCC0F 
 154      08125C67 
 154      EE4E8468 
 154      E1
 155 0046 839D9DDD 		.ascii	"\203\235\235\335y\263\363\336\012\0200\210\"\255\035"
 155      79B3F3DE 
ARM GAS  /tmp/ccAqVU6n.s 			page 11


 155      0A103088 
 155      22AD1D
 156 0055 0498E283 		.ascii	"\004\230\342\203\017H\014\024()J\364(zHE@h\012\351a"
 156      0F480C14 
 156      28294AF4 
 156      287A4845 
 156      40680AE9 
 157 006a 73910F20 		.ascii	"s\221\017 \213pb\314\276={?\230\330\265\246k>\235C\315"
 157      8B7062CC 
 157      BE3D7B3F 
 157      98D8B5A6 
 157      6B3E9D43 
 158 007f A5106181 		.ascii	"\245\020a\2012,\244\233\300\301Y\334f.\317\215<6}\347"
 158      322CA49B 
 158      C0C159DC 
 158      662ECF8D 
 158      3C367DE7 
 159 0093 E43F7A12 		.ascii	"\344?z\022\204+qk\235\333\273\351\277\364p\\ &\251$"
 159      842B716B 
 159      9DDBBBE9 
 159      BFF4705C 
 159      2026A924 
 160 00a7 1FDAC674 		.ascii	"\037\332\306t'\223\374\011B9\217dAV\330\202|\200\226"
 160      2793FC09 
 160      42398F64 
 160      4156D882 
 160      7C8096
 161 00ba 7DBA0BAA 		.ascii	"}\272\013\252x\212>\2256\341\303t\314\230F\031b6F\263"
 161      788A3E95 
 161      36E1C374 
 161      CC984619 
 161      623646B3 
 162 00ce 47468513 		.ascii	"GF\205\023\342\267\355\363\353o\276\037b\366s\313H\022"
 162      E2B7EDF3 
 162      EB6FBE1F 
 162      62F673CB 
 162      4812
 163 00e0 8700EE61 		.ascii	"\207\000\356a\373\272\263\221\361\246\341\302\020F5"
 163      FBBAB391 
 163      F1A6E1C2 
 163      104635
 164 00ef 06477048 		.ascii	"\006GpH\365\002\261\330\312p\332R\313\015\361M\3009"
 164      F502B1D8 
 164      CA70DA52 
 164      CB0DF14D 
 164      C039
 165 0101 8B7A6B8D 		.ascii	"\213zk\215\374%J\376\210z\204-\333+}\2232\224Y5\013"
 165      FC254AFE 
 165      887A842D 
 165      DB2B7D93 
 165      32945935 
 166 0116 29A9B89E 		.ascii	")\251\270\236D*Z\212\324l\254kzn^\325\033*\256\256\250"
 166      442A5A8A 
 166      D46CAC6B 
 166      7A6E5ED5 
 166      1B2AAEAE 
 167 012b C66AA8A2 		.ascii	"\306j\250\242\365\265\231\020\276\000\311\263a."
ARM GAS  /tmp/ccAqVU6n.s 			page 12


 167      F5B59910 
 167      BE00C9B3 
 167      612E
 168              		.text
 169              		.section	.gnu.lto_extChannelEnable.a2cfc071452c4200,"",%progbits
 170 0000 789CB551 		.ascii	"x\234\265Q\261J\003A\020\235\267{g\324JllC$\255\373"
 170      B14A0341 
 170      109DB77B 
 170      67D44A6C 
 170      6C4324AD 
 171 0015 117E8085 		.ascii	"\021~\200\205\011h\031\2173Y\360\010\030\013\301\"#"
 171      0968198F 
 171      3359F008 
 171      180BC122 
 171      23
 172 0026 1A500B0D 		.ascii	"\032P\013\015V\261SA\260\013\330Yi\223Z\354-\026\374"
 172      56B15341 
 172      B00BD859 
 172      69935AEC 
 172      2D16FC
 173 0039 0911719D 		.ascii	"\011\021q\235\315%\010Q\260r`gw\231\367\336\354\274"
 173      CD250851 
 173      B0726067 
 173      7799F7DE 
 173      ECBC
 174 004b 55A46832 		.ascii	"U\244h2J\262\356AT\016\227\230 \010(h\311\032\221\344"
 174      4AB2EE41 
 174      540E9798 
 174      20082868 
 174      C91A91E4 
 175 005f 08522450 		.ascii	"\010R$P[\351\010\355u\014a%\272b>w\203\353\213\205\023"
 175      5BE908ED 
 175      750C6125 
 175      BA623E77 
 175      83EB8B85 
 176 0074 C75DFEF4 		.ascii	"\307]\376\364\0366\224\022\320\232\2340=\334\024&{\005"
 176      1E369412 
 176      D09A9C30 
 176      3DDC1426 
 176      7B05
 177 0086 1ADFDDF2 		.ascii	"\032\337\335\362\314%\177x\257mh4\346\024sN\364''\372"
 177      CC257F78 
 177      AF6D6834 
 177      E614734E 
 177      F42727FA 
 178 009a 0F4E06EA 		.ascii	"\017N\006\352\253G\347\375\313\303\333k\017\363\032"
 178      AB47E7FD 
 178      CBC3DB6B 
 178      0FF31A
 179 00a9 C8201364 		.ascii	"\310 \023d\301\0211\346\220\271[\314F3JTFY\252\272\032"
 179      C11131E6 
 179      90B95BCC 
 179      46334A54 
 179      4659AABA 
 180 00be C6D04F74 		.ascii	"\306\320Ot\340\216\007\205\032n\020Ki\217\336\371\210"
 180      E08E0785 
 180      1A6E104B 
ARM GAS  /tmp/ccAqVU6n.s 			page 13


 180      698FDEF9 
 180      88
 181 00cf E72CE204 		.ascii	"\347,\342\004\271\017\026Sy\257jx\216\340;\3564\375"
 181      B90F1653 
 181      79AF6A78 
 181      8EE03BEE 
 181      34FD
 182 00e1 012F24C8 		.ascii	"\001/$\310\177\251\016\324\241\254xIA\372\2543\373\233"
 182      7FA90ED4 
 182      A1AC7849 
 182      41FAAC33 
 182      FB9B
 183 00f3 B4FE967E 		.ascii	"\264\376\226~\246}\327+\217AyTB\357\240\267h\032\315"
 183      A67DD72B 
 183      8F417954 
 183      42EFA0B7 
 183      681ACD
 184 0106 2C35E966 		.ascii	",5\351fj\226\033v\303\256\254\232f\3134j[\246\265\235"
 184      6A961B76 
 184      C3AEAC9A 
 184      66CB346A 
 184      5BA6B59D 
 185 011a 98747767 		.ascii	"\230twg)\241/[&k\260"
 185      29A12F5B 
 185      266BB0
 186              		.text
 187              		.section	.gnu.lto_extChannelDisable.a2cfc071452c4200,"",%progbits
 188 0000 789CB551 		.ascii	"x\234\265Q\261J\003A\020\235\267{1j%6\266!\222\326\375"
 188      B14A0341 
 188      109DB77B 
 188      316A2536 
 188      B62192D6 
 189 0015 083FC0C2 		.ascii	"\010?\300\302\004\264\214\307\231[\360\010\030\013\301"
 189      04B48CC7 
 189      995BF008 
 189      180BC1
 190 0024 22237A20 		.ascii	"\"#z V\301\316N\013\301\312\200\235\020\203\215\265"
 190      56C1CE4E 
 190      0BC1CA80 
 190      9D10838D 
 190      B5
 191 0035 58D82FF8 		.ascii	"X\330/\370\027\022\\gs\011B\024\254\034\330\331]\346"
 191      17125C67 
 191      73094214 
 191      AC1CD8D9 
 191      5DE6
 192 0047 BD373B6F 		.ascii	"\2757;o\025)\232\215\252\254\007\020\325\302\245D\020"
 192      15299A8D 
 192      AAAC0710 
 192      D5C2A544 
 192      10
 193 0058 0414B464 		.ascii	"\004\024\264d\215Hr\004)\022\250\253t\204\3566\306\260"
 193      8D487204 
 193      2912A8AB 
 193      7484EE36 
 193      C6B0
 194 006a 2A5D335F 		.ascii	"*]3_\270\374\356r\345\334q\217?\275\207\015\245\030"
ARM GAS  /tmp/ccAqVU6n.s 			page 14


 194      B8FCEE72 
 194      E5DC718F 
 194      3FBD870D 
 194      A518
 195 007c B42527CC 		.ascii	"\264%'\314\2177\205\331^\201\306\367\267\274p\305#\357"
 195      8F3785D9 
 195      5E81C6F7 
 195      B7BC70C5 
 195      23EF
 196 008e B50D8DA6 		.ascii	"\265\015\215\246\234J\301\211\376\344D\377\301\311@"
 196      9C4AC189 
 196      FEE444FF 
 196      C1C940
 197 009d 7DF5E4BC 		.ascii	"}\365\344\274\037\274\215\336\207X\326@\006\231 \013"
 197      1FBC8DDE 
 197      8758D640 
 197      0699200B 
 198 00ad 8E8831A7 		.ascii	"\216\2101\247\314\275J6\231Q\242>\311R\325\2150\206"
 198      CCBD4A36 
 198      9951A23E 
 198      C952D58D 
 198      3086
 199 00bf 7EA113D7 		.ascii	"~\241\023\327\177.7q\203\222\224\216\350\203\317x\311"
 199      7F2E3771 
 199      8392948E 
 199      E883CF78 
 199      C9
 200 00d0 A214A3F0 		.ascii	"\242\024\243\360\301b\256\350\325\010\317\021|\356\006"
 200      C162AEE8 
 200      D508CF11 
 200      7CEE06
 201 00df C90F7839 		.ascii	"\311\017x9F\361K-\240\005e\305K\012\322\217\371\342"
 201      46F14B2D 
 201      A00565C5 
 201      4B0AD28F 
 201      F9E2
 202 00f1 6FD2FA5B 		.ascii	"o\322\372[\372\225\216\335\2606\005\025Q\017\275\203"
 202      FA958EDD 
 202      B0360515 
 202      510FBD83 
 203 0101 DEAA49DB 		.ascii	"\336\252I\333Yb\222\335\304\254\247v\307nl\232v\307"
 203      596292DD 
 203      C4ACA776 
 203      C76E6C9A 
 203      76C7
 204 0113 A4CD3DD3 		.ascii	"\244\315=\323\331\217Mrx\260\026\323\027l\024lD"
 204      D98F4D72 
 204      78B016D3 
 204      176C146C 
 204      44
 205              		.text
 206              		.section	.gnu.lto_extSetChannelModeI.a2cfc071452c4200,"",%progbits
 207 0000 789C8592 		.ascii	"x\234\205\222;K\003A\020\307g\356\221\304'\202\205D"
 207      3B4B0341 
 207      10C767EE 
 207      91C42782 
 207      8544
ARM GAS  /tmp/ccAqVU6n.s 			page 15


 208 0012 9B908082 		.ascii	"\233\220\200\202A\257\266\366\003X\030!\226\311y\271"
 208      41AFB6F6 
 208      03581821 
 208      96C979B9 
 209 0022 1CE48818 		.ascii	"\034\344\210\030\013\301\"\233h@\"\206`!\370(\024QA"
 209      0BC1229B 
 209      68402286 
 209      6021F828 
 209      145141
 210 0035 040B2B45 		.ascii	"\004\013+E4\215\225\210X*\004N\374\022\222\302s6{IP"
 210      348D9588 
 210      582A044E 
 210      FC1292C2 
 210      73367B49 
 211 004a 04076E6F 		.ascii	"\004\007novv~\377\231\035V\002\011~\333\010}\021\012"
 211      76767EFF 
 211      991D5602 
 211      097EDB08 
 211      7D110A
 212 005d 47F94601 		.ascii	"G\371F\001$\027%\224i\225\021)\204\220\227d\314\317"
 212      24172594 
 212      69951129 
 212      84909764 
 212      CCCF
 213 006f 63F33C0C 		.ascii	"c\363<\014G\214m;\017w\273Ce\207U\331\227\353\242\305"
 213      478C6D3B 
 213      0F77BB43 
 213      658755D9 
 213      97EBA2C5 
 214 0083 8F748438 		.ascii	"\217t\2048y\030h\376$\374YD`5w\3634X>,\2660\271\203"
 214      791868FE 
 214      24FC5944 
 214      603577F3 
 214      34583E2C 
 215 009b 8504A6FC 		.ascii	"\205\004\246\374\211\275>\356\004Y\007S$\030\305\177"
 215      89BD3EEE 
 215      04590753 
 215      2418C57F 
 216 00ab 481BE152 		.ascii	"H\033\341R\2529\256{[w>*8\350C\264\221\356FEe\362(="
 216      AA39AE7B 
 216      5B773E2A 
 216      38E843B4 
 216      91EE4645 
 217 00c3 81C71806 		.ascii	"\201\307\030\006\2256\324\006\250\260\316X5$\202\266"
 217      9536D406 
 217      A8B0CE58 
 217      352482B6 
 218 00d3 7721B298 		.ascii	"w!\262\230\267\322T\3449\236)?A\361\355\363\376]I\340"
 218      B7D254E4 
 218      399E293F 
 218      41F1EDF3 
 218      FE5D49E0 
 219 00e7 09AA60A2 		.ascii	"\011\252`\242\024\205qR\335\207=jC5\021y;\276f\023\311"
 219      14857152 
 219      DD873D6A 
 219      43351179 
 219      3BBE6613 
ARM GAS  /tmp/ccAqVU6n.s 			page 16


 220 00fc F614086A 		.ascii	"\366\024\010j\254\245Z\210\262\012\015\232\035\313["
 220      ACA55A88 
 220      B20A0D9A 
 220      1DCB5B
 221 010b E89F800B 		.ascii	"\350\237\200\013\356\326\011\012D\341\234\373\327\344"
 221      EED6090A 
 221      44E19CFB 
 221      D7E4
 222 0119 7709BD6E 		.ascii	"w\011\275n\322\217\213I5\365\204\240\351\355;\3427\245"
 222      D28F8B49 
 222      35F584A0 
 222      E9ED3BE2 
 222      37A5
 223 012b AB836121 		.ascii	"\253\203a!O`\2011\346\267\260\207*qX\214\306\213OQ\035"
 223      4F608131 
 223      E6B7B087 
 223      2A71588C 
 223      C68B4F51 
 224 0140 13551EF7 		.ascii	"\023U\036\367{\3743\224\234\255\263~\201\003\360\346"
 224      7BFC3394 
 224      9CADB37E 
 224      8103F0E6 
 225 0150 36D88085 		.ascii	"6\330\200\205\275z\273\036RI\013\373\000^\240\340T\306"
 225      BD7ABB1E 
 225      52490BFB 
 225      005EA0E0 
 225      54C6
 226 0162 5AA9C262 		.ascii	"Z\251\302b<\215?\254\210\226\316\332\206f\244\014m:"
 226      3C8D3FAC 
 226      8896CEDA 
 226      8666A40C 
 226      6D3A
 227 0174 6D25AD99 		.ascii	"m%\255\231Y-\233\323\322\211\214\226[\3225ceyR\0075"
 227      592D9BD3 
 227      D2898C96 
 227      5BD23563 
 227      65795207 
 228 0189 9B59D017 		.ascii	"\233Y\320\027\277\001-\273\206]"
 228      BF012DBB 
 228      865D
 229              		.text
 230              		.section	.gnu.lto_.symbol_nodes.a2cfc071452c4200,"",%progbits
 231 0000 789C4DC8 		.ascii	"x\234M\310MN\002A\030\204\341\252\356i\230\037~\206"
 231      4D4E0241 
 231      1884E1AA 
 231      EE69981F 
 231      7E86
 232 0012 4BE8B93C 		.ascii	"K\350\271<I\021\330\260t\003\212BB\300\223h\242;\227"
 232      4911D8B0 
 232      74038A42 
 232      42C09368 
 232      A23B97
 233 0025 AE418F01 		.ascii	"\256A\217\001!2t\207\371j\363\346)\007\207%\021\347"
 233      21327487 
 233      F96AF3E6 
 233      29078725 
 233      11E7
ARM GAS  /tmp/ccAqVU6n.s 			page 17


 234 0037 EE043C7E 		.ascii	"\356\004<~\003\322|\366\340\356E\243O\310\031~A\336"
 234      03D27CF6 
 234      E0EE45A3 
 234      4FC8197E 
 234      41DE
 235 0049 F0086586 		.ascii	"\360\010e\206'(\030\316\251N\342\317\214nAu\015\237"
 235      272818CE 
 235      A94EE2CF 
 235      8C6E4175 
 235      0D9F
 236 005b A8DCF099 		.ascii	"\250\334\360\231*\014\227Ti\370BU\206\257T\257%WT?r"
 236      2A0C9754 
 236      69F84255 
 236      86AF54AF 
 236      2557543F 
 237 0070 3C26D7D4 		.ascii	"<&\327\324\240\325\206\032\266\332Ru\2537jt\223w\300"
 237      A0D5861A 
 237      B6DA5275 
 237      AB376A74 
 237      9377C0
 238 0083 647FA6F7 		.ascii	"d\177\246\367\214\315\\l\360\261\235>\246M\363,:\037"
 238      8CCD5C6C 
 238      F0B19D3E 
 238      A64DF32C 
 238      3A1F
 239 0095 E0E3DA80 		.ascii	"\340\343\332\200\311\341\322\"\375\305\020\273k\003"
 239      C9E1D222 
 239      FDC510BB 
 239      6B03
 240 00a3 7E9B96E9 		.ascii	"~\233\226\351/\353\370\227\001\357M\253\364W\243\370"
 240      2FEBF897 
 240      01EF4DAB 
 240      F457A3F8 
 241 00b3 57E9EFD5 		.ascii	"W\351\357\325\370\273\024\377\363?\202\376"
 241      F8BB14FF 
 241      F33F82FE 
 242              		.text
 243              		.section	.gnu.lto_.refs.a2cfc071452c4200,"",%progbits
 244 0000 789C6362 		.ascii	"x\234cb`b`d\200\002\000\000F\000\006"
 244      60626064 
 244      80020000 
 244      460006
 245              		.text
 246              		.section	.gnu.lto_.decls.a2cfc071452c4200,"",%progbits
 247 0000 789CBD5A 		.ascii	"x\234\275Z{p\024E\032\357\236Mv\263Ix\210/\274\362\316"
 247      7B701445 
 247      1AEF9E4D 
 247      76B34978 
 247      882FBCF2 
 248 0015 E8A9E7A3 		.ascii	"\350\251\347\2434 \340\301\325\235b\305\027u\200W\007"
 248      3420E0C1 
 248      D59D62C5 
 248      17758057 
 248      07
 249 0026 5C59F7CF 		.ascii	"\\Y\367\317\336\260\031\310\352&Yw7\004\352\376p \200"
 249      DEB019C8 
 249      EA265977 
ARM GAS  /tmp/ccAqVU6n.s 			page 18


 249      3704EAFE 
 249      702080
 250 0039 081E8637 		.ascii	"\010\036\2067*\217\004\004D\"o8\302+\203%I V@\302C\236"
 250      2A8F0404 
 250      44226F38 
 250      C22B8325 
 250      49205640 
 251 0050 2E2A285A 		.ascii	".*(Z(\250\034\341@r_\367\364\354\314\364\316\354\316"
 251      28A81CE1 
 251      40725FF7 
 251      F4ECCCF4 
 251      CEECCE
 252 0063 04EBA6AA 		.ascii	"\004\353\246\252gzf\372\373}\357o\272gF@\002\272%\013"
 252      677A66FA 
 252      FB7DEF6F 
 252      BA674640 
 252      02BA250B 
 253 0077 A10ED87C 		.ascii	"\241\016\330|}\020\252\365\"\324\025!\364\004\322\267"
 253      7D10AAF5 
 253      22D41521 
 253      F404D2B7 
 254 0087 1ED06AA1 		.ascii	"\036\320j\241-\207\266\022Z\035\2645\320\326C\333\004"
 254      2D87B612 
 254      5A1DB435 
 254      D0D643DB 
 254      04
 255 0098 6D0BB476 		.ascii	"m\013\264v2\020#\224\005-\027Z7hwB\373\015\264\002h"
 255      32102394 
 255      052D175A 
 255      37687742 
 255      FB0DB402 
 256 00ad F740BB17 		.ascii	"\367@\273\027\243\224\255V%C\367\263{\002\273\366\260"
 256      A394AD56 
 256      2543F7B3 
 256      7B02BBF6 
 256      B0
 257 00be C5D8E516 		.ascii	"\305\330\345\026c\311\265^\026cW\262\373}\341\336\022"
 257      63C9B55E 
 257      166357B2 
 257      FB7DE1DE 
 257      12
 258 00cf A48F5FC9 		.ascii	"\244\217_\311\360\371\215\350\004\252\243~X\325?\037"
 258      F0F98DE8 
 258      04AAA37E 
 258      58D53F1F 
 259 00df 9ACF82BE 		.ascii	"\232\317\202\276\316 G3\307w\215\015\3175\214/\277\255"
 259      CE204733 
 259      C7778D0D 
 259      CF358C2F 
 259      BFAD
 260 00f1 B719BF9E 		.ascii	"\267\031\277\236\361\341\267M6\343\311\365;-l@\374\002"
 260      F1E1B74D 
 260      36E3C9F5 
 260      3B2D6C40 
 260      FC02
 261 0103 AE451F42 		.ascii	"\256E\037B\333\016m\033\264}\214f\027\264V\246\307\026"
 261      DB0E6D1B 
ARM GAS  /tmp/ccAqVU6n.s 			page 19


 261      B47D8C66 
 261      17B456A6 
 261      C716
 262 0115 76BCC4D1 		.ascii	"v\274\304\321\023\237\346A\333\215t\233h\274\367\031"
 262      139FE641 
 262      DB8D749B 
 262      68BCF719 
 263 0125 305BE15A 		.ascii	"0[\341Z=\343#0\334]\214w;\323\237\304\001\321\313Ch"
 263      3DE32330 
 263      DC5D8C77 
 263      3BD39FC4 
 263      01D1CB43 
 264 013a A1FF331C 		.ascii	"\241\3773\034\257\363\002\223\330\261\341g\344\241\361"
 264      AFF30293 
 264      D8B1E167 
 264      E4A1F1
 265 0149 C5063EE4 		.ascii	"\305\006>\344\204\360)\300\272]\017B_\340\354B\342\323"
 265      84F029C0 
 265      BA5D0F42 
 265      5FE0EC42 
 265      E2D3
 266 015b CFF120BA 		.ascii	"\317\361 \272\030}\375\035\264\263\332xFC\260\3571\350"
 266      187DFD1D 
 266      B4B3DA78 
 266      4643B0EF 
 266      31E8
 267 016d 7014FA5E 		.ascii	"p\024\372^h>\016?\267\023\370\271\014\377^\003\376)"
 267      683E0E3F 
 267      B713F8B9 
 267      0CFF5E03 
 267      FE29
 268 017f E8E743EB 		.ascii	"\350\347C\353\302\341wc\361\311\343\177\201u\273\334"
 268      C2E17763 
 268      F1C9E37F 
 268      8175BBDC 
 269 018f 02FD5BA1 		.ascii	"\002\375[\241}\011m?\234\0371\360\324\374s\210\365\273"
 269      7D096D3F 
 269      9C1F31F0 
 269      D4FC7388 
 269      F5BB
 270 01a1 B1DC2472 		.ascii	"\261\334$r\234\201\343\355\320zB\273\203\343{\027Z$"
 270      9C81E3ED 
 270      D07A42BB 
 270      83E37B17 
 270      5A24
 271 01b3 2BFB13BB 		.ascii	"+\373\023\273\317~.\274%+\023e(\0272.\270\015\315\221"
 271      CF7E2EBC 
 271      252B1365 
 271      2817322E 
 271      B80DCD91 
 272 01c7 61AB992C 		.ascii	"a\253\231,\3138.\342'nE/b\021w\365\243\002\332\311\367"
 272      CB382EE2 
 272      276E452F 
 272      621177F5 
 272      A302DAC9 
 273 01dc ABBE4122 		.ascii	"\253\276A\"^\202oc\275\021\036\025Q \271\366\020Z\011"
 273      5E826F63 
ARM GAS  /tmp/ccAqVU6n.s 			page 20


 273      BD111E15 
 273      5120B9F6 
 273      105A09
 274 01ef F4D5B2FC 		.ascii	"\364\325\262\374\371]\310j\273\037-#\014\344\367d\017"
 274      F95DC86A 
 274      BB1F2D23 
 274      0CE4F764 
 274      0F
 275 0200 852700B5 		.ascii	"\205'\000\265\3304V\304K\261\220*\252r\370p~\365\370"
 275      D83456C4 
 275      4BB1902A 
 275      AA72F870 
 275      7EF5F8
 276 0213 4447C7E2 		.ascii	"DG\307\342\232\356*{\001=\213a\364\273\370\241\264\360"
 276      9AEE2A7B 
 276      013D8B61 
 276      F4BBF8A1 
 276      B4F0
 277 0225 CB79F815 		.ascii	"\313y\370\025V\360\211\203\223Of\033,\241\261\370\247"
 277      56F08983 
 277      934F661B 
 277      2CA1B1F8 
 277      A7
 278 0236 13162B79 		.ascii	"\023\026+y\026\357[j\260\340H\212\006\223\260\023\374"
 278      16EF5B6A 
 278      B0E0488A 
 278      0693B013 
 278      FC
 279 0247 3A1EFF03 		.ascii	":\036\377\003K\025\016\354=\357\263Pa\253#\036kx\036"
 279      4B150EEC 
 279      3DEFB350 
 279      61AB231E 
 279      6B781E
 280 025a 6B2D7538 		.ascii	"k-u8\361Y\212\016\215\216\360\327\363\370\033R\361k"
 280      F1598A0E 
 280      8D8EF0D7 
 280      F3F81B52 
 280      F16B
 281 026c 94C4D1E9 		.ascii	"\224\304\321\351\333\275\272\016H\343\321\356\210\307"
 281      DBBDBA0E 
 281      48E3D1EE 
 281      88C7
 282 027a 269EC766 		.ascii	"&\236\307f+\036\312\374F\246\203\213x\257g\361\356\241"
 282      2B1ECAFC 
 282      46A6838B 
 282      78AF67F1 
 282      EEA1
 283 028c 59066574 		.ascii	"Y\006et\252,O \204\3177w\355\201f\020\224\202fH`F?P"
 283      AA2C4F20 
 283      84CF3777 
 283      ED816610 
 283      94826648 
 284 02a4 A3CF81C1 		.ascii	"\243\317\201\301\367\241w!'\0223f~\\\213\253\200\223"
 284      F7A17721 
 284      27123366 
 284      7E5C8BAB 
 284      8093
ARM GAS  /tmp/ccAqVU6n.s 			page 21


 285 02b6 88B7E31E 		.ascii	"\210\267\343\036\200\363\236`V\212\341\324\014\264\003"
 285      80F39E60 
 285      568AE1D4 
 285      0CB403
 286 02c5 12F14E50 		.ascii	"\022\361NPH\304\015@\256\022Rh9q\250\355\322x<\236B"
 286      48C40D40 
 286      AE125268 
 286      3971A8ED 
 286      D2783C9E 
 287 02da 937B88B3 		.ascii	"\223{\210\263\225a\273\033\325\200\340\312gM\213n\227"
 287      9561BB1B 
 287      D580E0CA 
 287      674D8B6E 
 287      97
 288 02eb 130AF6A1 		.ascii	"\023\012\366\241\311D\217\304\244\011=\347\353Ls4\246"
 288      C9448FC4 
 288      A4093DE7 
 288      EB4C7334 
 288      A6
 289 02fc D820FD81 		.ascii	"\330 \375\201\335\275e9G\304\037\002\221\200\316s\262"
 289      DDBD6539 
 289      47C41F02 
 289      9180CE73 
 289      B2
 290 030d 3B002252 		.ascii	";\000\"R\355\006b\243\344J\307\270\002\365j\032\231"
 290      ED0662A3 
 290      E44AC7B8 
 290      02F56A1A 
 290      99
 291 031e A9CD2106 		.ascii	"\251\315!\006\200%\201\313\362\353\327\252<\311k\330"
 291      802581CB 
 291      F2EBD7AA 
 291      3CC96BD8 
 292 032e 30F40DFD 		.ascii	"0\364\015\375\262\026\000\344\024\373\365N\207\271 "
 292      B21600E4 
 292      14FBF54E 
 292      87B920
 293 033d 1A451371 		.ascii	"\032E\023q#\276\017\366M\330cI&\240y\036\314\334`\245"
 293      23BE0FF6 
 293      4DD86349 
 293      26A0791E 
 293      CCDC60A5 
 294 0351 28EBEA7C 		.ascii	"(\353\352|\273j'\314\374\340\257\237O\343YUrs/\253@"
 294      BB6A27CC 
 294      FCE0AF9F 
 294      4FE35955 
 294      72732FAB 
 295 0366 8221D810 		.ascii	"\202!\330\020\002r\256\206X\243\373C\331\321\204\013"
 295      0272AE86 
 295      58A3FB43 
 295      D9D1840B 
 296 0376 2C028F1B 		.ascii	",\002\217\033,\342O@\225\314\343\310\3106.\252\224u"
 296      2CE24F40 
 296      95CCE3C8 
 296      C8362EAA 
 296      9475
 297 0388 4DF97296 		.ascii	"M\371r\226z=SD\311J}\323\002,\327|\210oB\325\214W\306"
ARM GAS  /tmp/ccAqVU6n.s 			page 22


 297      7A3D5344 
 297      C94A7DD3 
 297      022CD77C 
 297      886F42D5 
 298 039f 70669ACC 		.ascii	"pf\232\314i\"\265\352\010M\211\205\036\227)A\004;\306"
 298      6922B5EA 
 298      084D8985 
 298      1E972941 
 298      043BC6
 299 03b2 0B7EB291 		.ascii	"\013~\262\221\012~\314Q*\\j\\p\007\021\334\217\246\350"
 299      0A7ECC51 
 299      2A5C6A5C 
 299      700711DC 
 299      8FA6E8
 300 03c5 9E409685 		.ascii	"\236@\226\205\200\245\302\216wv\357\302\023h\266\235"
 300      80A5C28E 
 300      7776EFC2 
 300      1368B69D 
 301 03d5 C424C23E 		.ascii	"\304$\302>\346\244v\016u\374\324G3XMHP\250\252,3\224"
 301      E6A4760E 
 301      75FCD447 
 301      33584D48 
 301      50A8AA2C 
 302 03eb 887D7EA3 		.ascii	"\210}~\243\320\364\\\033@\360|~\275C&\375\335\220\333"
 302      D0F45C1B 
 302      40F07C7E 
 302      BD4326FD 
 302      DD90DB
 303 03fe E1029A4E 		.ascii	"\341\002\232N\231\036\323\303\331$j\346p>\330\366%&"
 303      991ED3C3 
 303      D9246AE6 
 303      703ED8F6 
 303      2526
 304 0410 45DB638A 		.ascii	"E\333c\212f\347\305\365\254\271\270\212x\033\316\323"
 304      66E7C5F5 
 304      ACB9B88A 
 304      781BCED3 
 305 0420 4E1CDB52 		.ascii	"N\034\333R\3310\371V\342\365s\324\216\263R\354x\022"
 305      D930F956 
 305      E2F573D4 
 305      8EB352EC 
 305      7812
 306 0432 77C690FA 		.ascii	"w\306\220\372\374\006\245e\3366\371\026\302\374\014"
 306      FC06A565 
 306      DE36F916 
 306      C2FC0C
 307 0441 082EA01A 		.ascii	"\010.\240\032\216\271\311,\252\272v\246\370\016\000"
 307      8EB9C92C 
 307      AABA76A6 
 307      F80E00
 308 0450 AC2336E5 		.ascii	"\254#6\345\236\200V\273\366[A\012\254\001_\317#\021"
 308      9E8056BB 
 308      F65B410A 
 308      AC015FCF 
 308      2311
 309 0462 1FA715F0 		.ascii	"\037\247\025\360\004\276\033\366_\302\236\267\201E\375"
 309      04BE1BF6 
ARM GAS  /tmp/ccAqVU6n.s 			page 23


 309      5FC29EB7 
 309      8145FD
 310 0471 380CB99F 		.ascii	"8\014\271\237\364\230\234\324\026\206\330){\201\271"
 310      F4989CD4 
 310      1686D829 
 310      7B81B9
 311 0480 242929EB 		.ascii	"$))\353\334\2144\015\327Q\015\333t\0159\276ib\323\240"
 311      DC8C340D 
 311      D7510DDB 
 311      740D39BE 
 311      6962D3A0 
 312 0494 98AAD241 		.ascii	"\230\252\322A\252\322!\243209J\211\023\265\334\031\250"
 312      AAD221A3 
 312      3230394A 
 312      8913B5DC 
 312      19A8
 313 04a6 F5BA8878 		.ascii	"\365\272\210xz;\305\366\341<\235\305GY\334\303\342\306"
 313      7A3BC5F6 
 313      E13C9DC5 
 313      4759DCC3 
 313      E2C6
 314 04b8 BCD460F0 		.ascii	"\274\324`\360\222BU\332E\275\324\352D\260m\272`\246"
 314      924255DA 
 314      45BDD4EA 
 314      44B06DBA 
 314      60A6
 315 04ca C816500B 		.ascii	"\310\026P\013g\210{\321RY\236\011\363\261\306\213\344"
 315      67887BD1 
 315      52599E09 
 315      F3B1C68B 
 315      E4
 316 04db 49F5BC4A 		.ascii	"I\365\274J+\240\243t\334\026\230iY\361Hr`\323\263\177"
 316      2BA0A374 
 316      DC169869 
 316      59F14872 
 316      60D3B37F 
 317 04ef C993BAE3 		.ascii	"\311\223\272\343\344\374l\013??\373\311r~\366i'\346"
 317      E4FC6C0B 
 317      3F3FFBC9 
 317      727EF669 
 317      27E6
 318 0501 6757D294 		.ascii	"gW\322\224\220\244?8\225OY\252,_*f\312\212\370?t\272"
 318      90A43F38 
 318      954F59AA 
 318      2C5F2A66 
 318      CA8AF83F 
 319 0517 D59E5E59 		.ascii	"\325\236^YF\326&=\2572\022\361\217\031\310\366\245\261"
 319      46D6263D 
 319      AF3212F1 
 319      8F19C8F6 
 319      A5B1
 320 0529 513B6FA3 		.ascii	"Q;o\243k\2266Z\333\244\331H\235\233\012\350+km~\344"
 320      6B96365A 
 320      DBA4D948 
 320      9D9B0AE8 
 320      2B6B6D7E 
 321 053e B59185CE 		.ascii	"\265\221\205\316\270\216P\231\304\032/X\211\365_\203"
ARM GAS  /tmp/ccAqVU6n.s 			page 24


 321      B88E5099 
 321      C41A2F58 
 321      89F55F83 
 322 054e 5867A958 		.ascii	"Xg\251X\337[\2135G\342\304\232\230^,Fv\234\220\251\025"
 322      DF5B8B35 
 322      47E2C49A 
 322      985E2C46 
 322      769C90A9 
 323 0563 5ECEC669 		.ascii	"^\316\306i\311\316\251\305\305R\233\211\2746\223,\265"
 323      C9CEA9C5 
 323      C5529B89 
 323      BC36932C 
 323      B5
 324 0574 39BC97D7 		.ascii	"9\274\227\327fJ\266\2456\363xm\246:\322\346\244\246"
 324      664AB6A5 
 324      36F3786D 
 324      A63AD2E6 
 324      A4A6
 325 0586 8D88A708 		.ascii	"\215\210\247\010\351\311\322i3\225\327f\232\2456\007"
 325      E9C9D269 
 325      3395D766 
 325      9AA53607 
 326 0596 5ADCA755 		.ascii	"Z\334\247U\265\220.\255\230Pi\326D5\212i*\313\255f>"
 326      B5902EAD 
 326      985069D6 
 326      44358A69 
 326      2ACBAD66 
 327 05ab A5E5EB98 		.ascii	"\245\345\353\230\251\276\332?rR\204\233-\344\351\203"
 327      A9BEDA3F 
 327      7252849B 
 327      2DE4E983 
 328 05bb F8E47EDB 		.ascii	"\370\344~\333\332So\361\236z\323\211\247\224C\323V\300"
 328      DA536FF1 
 328      9E7AD389 
 328      A79443D3 
 328      56C0
 329 05cd 2451307B 		.ascii	"$Q0{\313\236\224\032\206\221\036i\331\250\222\022q\005"
 329      CB9E941A 
 329      86911E69 
 329      D9A89212 
 329      7105
 330 05df F40195CB 		.ascii	"\364\001\225\313\236\224)\245:Zi\233VU\203eo\322\325"
 330      9E9429A5 
 330      3A5A699B 
 330      56558365 
 330      6FD2D5
 331 05f2 6FF2AE9E 		.ascii	"o\362\256\236\233\352\352Du\342\320\254}\023\360\214"
 331      9BEAEA44 
 331      75E2D0AC 
 331      7D13F08C 
 332 0602 AA9A66F9 		.ascii	"\252\232f\371\002\231\310h\253\350\015\331\374*Z\005"
 332      0299C868 
 332      ABE80DD9 
 332      FC2A5A05 
 333 0612 596805A2 		.ascii	"Yh\005\242\354\334\373\206\214i\304\334\245\325\030"
 333      ECDCFB86 
 333      8C69C4DC 
ARM GAS  /tmp/ccAqVU6n.s 			page 25


 333      A5D518
 334 0621 C50660B1 		.ascii	"\305\006`\261%\300\376T\200V\033\200ZK\200\003F\000"
 334      25C0FE54 
 334      80561B80 
 334      5A4B8003 
 334      4600
 335 0633 35018FDB 		.ascii	"5\001\217\333\000,\265\0048\230\012\360\203\015\300"
 335      002CB504 
 335      38980AF0 
 335      830DC0
 336 0642 323380B6 		.ascii	"23\200\266\214\231\337\225M@\023\313\344\236=\323\254"
 336      8C99DF95 
 336      4D4013CB 
 336      E49E3DD3 
 336      AC
 337 0653 90C94B2F 		.ascii	"\220\311K/p\362\012\201\324\246\251^\213\327\267*\037"
 337      70F20A81 
 337      D4A6A95E 
 337      8BD7B72A 
 337      1F
 338 0664 32806C84 		.ascii	"2\200l\204^\355k=\262\264d\360\3755x\037\243Z.\270\235"
 338      5EED6B3D 
 338      B2B464F0 
 338      FD35781F 
 338      A35A2EB8 
 339 0679 5BBD2F58 		.ascii	"[\275/X\317\255\274\006\013)\373\023\015?\\\370\373"
 339      CFADBC06 
 339      0B29FB13 
 339      0D3F5CF8 
 339      FB
 340 068a 95F5B2FC 		.ascii	"\225\365\262\374\272|\275\343\325\361\023\357\326Be"
 340      BA7CBDE3 
 340      D5F113EF 
 340      D64265
 341 0699 B7D76826 		.ascii	"\267\327h&\266\254n\323\325\262z\375\262\212\017\316"
 341      B6AC6ED3 
 341      D5B27AFD 
 341      B28A0FCE 
 342 06a9 BA54A728 		.ascii	"\272T\247(\373\225\315\332\213<\245:Kcw:\225\235\210"
 342      FB95CDDA 
 342      8B3CA53A 
 342      4B63773A 
 342      959D88
 343 06bc 57EBE456 		.ascii	"W\353\344V\354\326\362\354\326\231\331q\263\356%if\335"
 343      ECD6F2EC 
 343      D699D971 
 343      B3EE2569 
 343      66DD
 344 06ce 1BF54A92 		.ascii	"\033\365J\222\351\315\216\354\321\210{!}Ex\271}\005"
 344      E9CD8EEC 
 344      D1887B21 
 344      7D4578B9 
 344      7D05
 345 06e0 5BC66D16 		.ascii	"[\306m\026\310:v\201\317r\035k\017$\240e\224\244^\340"
 345      C83A7681 
 345      CF721D6B 
 345      0F24A065 
ARM GAS  /tmp/ccAqVU6n.s 			page 26


 345      94A45EE0 
 346 06f4 5EED345C 		.ascii	"^\3554\\\335\337\177\276,wWoe^\316\316\233\276\220."
 346      DDDF7FBE 
 346      2C77576F 
 346      655ECECE 
 346      9BBE902E 
 347 0708 6745BC89 		.ascii	"gE\274\211\326\233\243I\330N\255\355\224\267[\363\253"
 347      D69BA349 
 347      D84EADED 
 347      94B75BF3 
 347      AB
 348 0719 450D2CE1 		.ascii	"E\015,\341\032\254\300\004\266\270\325\355Z{q\207\322"
 348      1AACC004 
 348      B6B8D5ED 
 348      5A7B7187 
 348      D2
 349 072a 7307557F 		.ascii	"s\007U\177\027\315\254e9\277\300\272\016\252p\216\003"
 349      17CDAC65 
 349      39BFC0BA 
 349      0EAA708E 
 349      03
 350 073b 4572ECAC 		.ascii	"Er\354\254B\274\242\014\250'i\343\325\036t^;E\004\264"
 350      42BCA20C 
 350      A82769E3 
 350      D51E745E 
 350      3B4504B4 
 351 074f 91326BE4 		.ascii	"\2212k\344={e\351\236\007U\3176:\362\354\246\275\363"
 351      3D7B65E9 
 351      9E0755CF 
 351      363AF2EC 
 351      A6BDF3
 352 0762 A8F13245 		.ascii	"\250\3612Eh\215\240\261\277\227\262\377\226\262o\341"
 352      688DA0B1 
 352      BF97B2FF 
 352      96B26FE1 
 353 0772 D94FDAB0 		.ascii	"\331O\332\260\013\323\027z-\216\270\277\3232;\225\273"
 353      0BD3177A 
 353      2D8EB8BF 
 353      D3323B95 
 353      BB
 354 0783 EDDC8179 		.ascii	"\355\334\201y\357\312\322sw.\246*\356\243\361s9\305"
 354      EFCAD273 
 354      772EA62A 
 354      EEA3F173 
 354      39C5
 355 0795 7B4F1A1F 		.ascii	"{O\032\037\341\352\271i\211+\3735\341;\367jb\367\206"
 355      E1EAB969 
 355      892BFB35 
 355      E13BF76A 
 355      62F786
 356 07a8 3DF40387 		.ascii	"=\364\003\207G\023\241\3125\2409\204\027\265\320|P\301"
 356      4713A1CA 
 356      35A03984 
 356      17B5D07C 
 356      50C1
 357 07ba 263B01B3 		.ascii	"&;\001\263\015\243\011\312Z#\330T\327`f\311\326\033"
 357      0DA309CA 
ARM GAS  /tmp/ccAqVU6n.s 			page 27


 357      5A23D854 
 357      D76066C9 
 357      D61B
 358 07cc C1A63B01 		.ascii	"\301\246;\001"
 359 07d0 EB6E2FD9 		.ascii	"\353n/\331F#\330\014\327`f\3116\033\301f;\001\353i/"
 359      4623D80C 
 359      D76066C9 
 359      361BC166 
 359      3B01EB69 
 360 07e5 D91623D8 		.ascii	"\331\026#\330<\327`f\311\266\032\301\336v\002V`!Yr\263"
 360      3CD76066 
 360      C9B61AC1 
 360      DE760256 
 360      60215972 
 361 07fa 7BBEEC15 		.ascii	"{\276\354\025\014\357\003\026\372\265r\3402\244\221"
 361      0CEF0316 
 361      FAB572E0 
 361      32A491
 362 0809 8E51EB77 		.ascii	"\216Q\353w[\277Lz\223\247\312\200\255\264~i\245}\205"
 362      5BBF4C7A 
 362      93A7CA80 
 362      ADB47E69 
 362      A57D85
 363 081c 13C43401 		.ascii	"\023\3044\001\263\331\370\234X\343\032\314\354\226\203"
 363      B3D9F89C 
 363      58E31ACC 
 363      EC9683
 364 082b 04CC5469 		.ascii	"\004\314Ti\222\2630\305\366\373\202\210\337\023\356"
 364      92B330C5 
 364      F6FB8288 
 364      DF13EE
 365 083a 733AC34A 		.ascii	"s:\303Jq\3217F\027\375\333\211\374ib\364j\353\002\372"
 365      71D13746 
 365      17FDDB89 
 365      FC6962F4 
 365      6AEB02FA 
 366 084e 79C53077 		.ascii	"y\3050w\314\360yeq\307\327G\330\014\342;\372\240\333"
 366      CCF07965 
 366      71C7D747 
 366      D80CE23B 
 366      FAA0DB
 367 0861 E9B77CA7 		.ascii	"\351\267|\247\354\000j\307;\037<L\013\373E\012\324\324"
 367      EC006AC7 
 367      3B1F3C4C 
 367      0BFB450A 
 367      D4D4
 368 0873 69A0E3A7 		.ascii	"i\240\343\247\026\365\247@?Q\240}~\276x\363O^l~\362"
 368      16F5A740 
 368      3F51A07D 
 368      7EBE78F3 
 368      4F5E6C7E 
 369 0888 A6FDDCF2 		.ascii	"\246\375\334\362\013\216\205I\016\357/\253\3571\366"
 369      0B8E8549 
 369      0EEF2FAB 
 369      EF31F6
 370 0897 6500D2A1 		.ascii	"e\000\322\241\371\217\365\253e\271\312\353\306c\011"
 370      F98FF5AB 
ARM GAS  /tmp/ccAqVU6n.s 			page 28


 370      65B9CAEB 
 370      C66309
 371 08a6 CD6357A8 		.ascii	"\315cW\250}N\247\330\347\242\340\316@\002:\347Z\221"
 371      7D4EA7D8 
 371      E7A2E0CE 
 371      40023AE7 
 371      5A91
 372 08b8 070C8A90 		.ascii	"\007\014\212\220yI\363Pu^r3\232\231~^B\344\271.\334"
 372      7949F350 
 372      755E7233 
 372      9A997E5E 
 372      42E4B92E 
 373 08cd 6C9A1428 		.ascii	"l\232\024(\227\366\221o1\344r\346/>\263\016\030&s\262"
 373      97F6916F 
 373      31E472E6 
 373      2F3EB30E 
 373      182673B2 
 374 08e1 B3C95C33 		.ascii	"\263\311\\3\233\314\215\367\020\213]\264\012M'H5;\216"
 374      9BCC8DF7 
 374      108B5DB4 
 374      0A4D2748 
 374      353B8E
 375 08f4 D377FD13 		.ascii	"\323w\375\023)\314\345\316\302@\2047\250\021\376\032"
 375      29CCE5CE 
 375      C2408437 
 375      A811FE1A 
 376 0904 05EA48F1 		.ascii	"\005\352H\361\240\227s\240\327\354@8%\234\332\311\274"
 376      A09773A0 
 376      D7EC4038 
 376      259CDAC9 
 376      BC
 377 0915 12BFCAAE 		.ascii	"\022\277\312\256\320_\257\320\377\235N@\257\347b\346"
 377      D05FAFD0 
 377      FF9D4E40 
 377      AFE762E6 
 378 0925 D3CECC95 		.ascii	"\323\316\314\225\350\244vP={(\250\016\252\276!\304\011"
 378      E8A47650 
 378      3D7B28A8 
 378      0EAABE21 
 378      C409
 379 0937 4AC34C6D 		.ascii	"J\303Lm1\362$y,\274u\203p'\016\360\217\005n6\272\331"
 379      31F22479 
 379      2CBC7583 
 379      70270EF0 
 379      8F056E36 
 380 094d A6622797 		.ascii	"\246b'\227i\211\236u4\376fx\350w\232\\\336\337\233\004"
 380      69899E75 
 380      34FE6678 
 380      E8779A5C 
 380      DEDF9B04 
 381 0961 6E3E4A2E 		.ascii	"n>J.\030\206\330%R\265\307\360\364\330pcj\202\037.\374"
 381      1886D825 
 381      52B5C7F0 
 381      F4D87063 
 381      6A821F2E 
 382 0976 597D3867 		.ascii	"Y}8g\232\352\377CC\313\247\214\353)\343y\036n\246\277"
 382      9AEAFF43 
ARM GAS  /tmp/ccAqVU6n.s 			page 29


 382      43CBA78C 
 382      EB29E379 
 382      1E6EA6BF 
 383 098a 70F3E9C9 		.ascii	"p\363\351\311\354{%\271\2279\263\217\237\361\3133\363"
 383      EC7B25B9 
 383      9739B38F 
 383      9FF1CB33 
 383      F3
 384 099b 1DFED6B0 		.ascii	"\035\376\326\260\343\262\362\253=\324\250\357x\310\322"
 384      E3B2F2AB 
 384      3DD4A8EF 
 384      78C8D2
 385 09aa F77BCEA8 		.ascii	"\367{\316\250\031?\341B\336Q\222E\274\334\015W\333\037"
 385      193FE142 
 385      DE519245 
 385      BCDC0D57 
 385      DB1F
 386 09bc 5517488B 		.ascii	"U\027H\213\034\210=A\2718\315\270\364\025\361\016\372"
 386      1C883D41 
 386      B938CDB8 
 386      F415F10E 
 386      FA
 387 09cd 968ED076 		.ascii	"\226\216\320v.\334~hINiD\334\340\032\254\300JT-\256"
 387      2EDC7E68 
 387      494E6944 
 387      DCE01AAC 
 387      C04A542D 
 388 09e2 7465455C 		.ascii	"teE\\\343!\323\226Z\017y\361\271\304c\372<U\235\247"
 388      E321D396 
 388      5A0F79F1 
 388      B9C463FA 
 388      3C559DA7 
 389 09f6 79D4CA72 		.ascii	"y\324\312r\231Sz\341\346+s\325\037\015\334T\351\257"
 389      99537AE1 
 389      E62B73D5 
 389      1F0DDC54 
 389      E9AF
 390 0a08 59955E46 		.ascii	"Y\225^F\213\300\374<>KH\3315i\343\252L-\342ur\272hJ"
 390      8BC0FC3C 
 390      3E4B48D9 
 390      3569E3AA 
 390      4C2DE275 
 391 0a20 6E765938 		.ascii	"nvY8\327\230\205\357\346\335h\026\266\017v\226\2052"
 391      D79885EF 
 391      E6DD6816 
 391      B60F7696 
 391      8532
 392 0a32 364E6905 		.ascii	"6Ni\005\264\212r\256\343\303\371\350\266=\257\261\237"
 392      B48A72AE 
 392      E3C3F9E8 
 392      B63DAFB1 
 392      9F
 393 0a43 74EA1CA5 		.ascii	"t\352\034\245\341%\232\206Z^\235L\242v&\024&(W\316\355"
 393      E1259A86 
 393      5A5E9D4C 
 393      A2762614 
 393      262857CE 
ARM GAS  /tmp/ccAqVU6n.s 			page 30


 394 0a58 C1144E9D 		.ascii	"\301\024N\235\242\237\341\341\\.]\257I\326?\257\330"
 394      A29FE1E1 
 394      5C2E5DAF 
 394      49D63FAF 
 394      D8
 395 0a69 1B867D29 		.ascii	"\033\206})?z\206L16Q\235\316\247\204\226j\031Ch\325"
 395      3F7A864C 
 395      3136519D 
 395      CEA78496 
 395      6A194368 
 396 0a7e 19126535 		.ascii	"\031\022e5M\22454Q\326\321\375\006c\272\330\205\305"
 396      4D943534 
 396      51D6D1FD 
 396      0663BAD8 
 396      85C5
 397 0a90 4663585C 		.ascii	"FcX\\r\255w\201\303\350[eds\255\263\321\207t\214\252"
 397      72AD7781 
 397      C3E85B65 
 397      6473ADB3 
 397      D187748C 
 398 0aa5 7C07AB90 		.ascii	"|\007\253\220\002;\027\311\211\235W/\014\245\357>2\276"
 398      023B17C9 
 398      899D572F 
 398      0CA5EF3E 
 398      32BE
 399 0ab7 A34A96F2 		.ascii	"\243J\226\362\346;\232i\346o\247\356y-\337\272\224\247"
 399      E63B9A69 
 399      E66FA7EE 
 399      792DDFBA 
 399      94A7
 400 0ac9 79D73597 		.ascii	"y\3275\227\2224\244\226r\205\225\362\006G\245\274\315"
 400      9234A496 
 400      728595F2 
 400      0647A5BC 
 400      CD
 401 0ada B29437B8 		.ascii	"\262\2247\270/\345V\233Q>\021\357\242A\365\241\271\356"
 401      2FE5569B 
 401      513E11EF 
 401      A241F5A1 
 401      B9EE
 402 0aec 2E776DFA 		.ascii	".wm\372\002\223\374[\017\323G\307*:\315X\353\004\354"
 402      0293FC5B 
 402      0FD347C7 
 402      2A3ACD58 
 402      EB04EC
 403 0aff 013B3F82 		.ascii	"\001;?\2021\016/`\306P\337\201nu\215W\220\316\030\372"
 403      310E2F60 
 403      C650DF81 
 403      6E758D57 
 403      90CE18FA 
 404 0b13 2B67116F 		.ascii	"+g\021o\243+\350\355\002\311\255\235t\257\320\375n\272"
 404      A32BE8ED 
 404      02C9AD9D 
 404      74AFD0FD 
 404      6EBA
 405 0b25 3F43F75F 		.ascii	"?C\367_\321\3759\272?O\367\355t\3773\335o\243y\371\021"
 405      D1FD39BA 
ARM GAS  /tmp/ccAqVU6n.s 			page 31


 405      3F4FF7ED 
 405      74FF33DD 
 405      6FA379F9 
 406 0b3a DD373AC9 		.ascii	"\3357:\311Nn\206u\017\252\225\367\357O\034j\374\276"
 406      4E6E8675 
 406      0FAA95F7 
 406      EF4F1C6A 
 406      FCBE
 407 0b4c DFF86A65 		.ascii	"\337\370je|\215|\015\236!X\377\034#\342o\205\344W\017"
 407      7C8D7C0D 
 407      9E2158FF 
 407      1C23E26F 
 407      85E4570F 
 408 0b60 D3FCC7F8 		.ascii	"\323\374\307\370\321F]\357[\217\022\361^\217\333\257"
 408      D1465DEF 
 408      5B8F12F1 
 408      5E8FDBAF 
 409 0b70 292D1EEB 		.ascii	")-\036\353\257)\346\017\220\332(\362\375\204\372\250"
 409      AF29E60F 
 409      90DA28F2 
 409      FD84FAA8 
 410 0b80 4EFF0580 		.ascii	"N\377\005\200\023B@\255\371\332\2173\344\177qn\"[\237"
 410      134240AD 
 410      F9DA8F33 
 410      E47F716E 
 410      225B9F
 411 0b93 E66345AB 		.ascii	"\346cE\253^g\230\261>\235~\004g6\326\363\032\220?\235"
 411      5E6798B1 
 411      3E9D7E04 
 411      6736D6F3 
 411      1A903F9D 
 412 0ba7 B1B85122 		.ascii	"\261\270Q\"\376\304\265\261\016\330\030+\307d,m\024"
 412      FEC4B5B1 
 412      0ED8182B 
 412      C7642C6D 
 412      14
 413 0bb8 743FF670 		.ascii	"t?\366p\377KpB\010\350\204\311X\252\332\312\306&9g\255"
 413      FF4B7042 
 413      08E884C9 
 413      58AADACA 
 413      C6263967 
 414 0bcd 3C45EEE8 		.ascii	"<E\356\350x\225)S3\220\323y\240\231\267i\330\012\333"
 414      78952953 
 414      3390D379 
 414      A099B769 
 414      D80ADB
 415 0be0 61223EEC 		.ascii	"a\">\354Z\351#6J\033Wt\372\250\244\322\206\27718!\004"
 415      5AE92336 
 415      4A1B5774 
 415      FAA8A4D2 
 415      86BF3138 
 416 0bf6 F48D95D2 		.ascii	"\364\215\225\322\327S\224\346\375<%\371\324\275)\235"
 416      D75394E6 
 416      FD3C25F9 
 416      D4BD299D 
 417 0c06 A3F96122 		.ascii	"\243\371a\">\356Z\351\0236Jw7)}\202W\332\360\323\006"
 417      3EEE5AE9 
ARM GAS  /tmp/ccAqVU6n.s 			page 32


 417      13364A77 
 417      37297D82 
 417      57DAF0D3 
 418 0c1b 2F8580DA 		.ascii	"/\205\200\332\255\264>\2667\223\326\325I\240\036\351"
 418      ADB43EB6 
 418      3793D6D5 
 418      49A01EE9 
 419 0c2b B4E68789 		.ascii	"\264\346\207\2118\341Z\353\3236Z\337d\322\3724\257\265"
 419      38E15AEB 
 419      D3365ADF 
 419      64D2FA34 
 419      AFB5
 420 0c3d E1E70E5E 		.ascii	"\341\347\016^\012\001M\356\222\246\032\034\261\371w"
 420      0A014DEE 
 420      92A61A1C 
 420      B1F977
 421 0c4c 8C0CFF42 		.ascii	"\214\014\377B\257\006\372\257\267\"\236\243?\035\322"
 421      AF06FAAF 
 421      B7229EA3 
 421      3F1DD2
 422 0c5b FCAAA7FF 		.ascii	"\374\252\247\377\202\247\031\372DK&C\317O\312~s:C\363"
 422      82A719FA 
 422      444B2643 
 422      CF4FCA7E 
 422      733A43F3 
 423 0c6f C3E0B9E1 		.ascii	"\303\340\271\341\332\320_\333\030\3328E\324G%\015m\370"
 423      DAD05FDB 
 423      18DA3845 
 423      D447250D 
 423      6DF8
 424 0c81 B9829742 		.ascii	"\271\202\227B@\263M\206F\217\025\226\224\227J\205\322"
 424      40B34D86 
 424      468F1596 
 424      94974A85 
 424      D2
 425 0c92 28A9B0A8 		.ascii	"(\251\260\250$42\364\302\260\302\362Xa4^\030)\217\306"
 425      243432F4 
 425      C2B0C2F2 
 425      5861345E 
 425      18298FC6 
 426 0ca6 63854FFD 		.ascii	"c\205O\375uH\321\220\261\205\301\222`yT\012\214y\274"
 426      7548D190 
 426      B185C192 
 426      6079540A 
 426      8C79BC
 427 0cb9 F4D112E4 		.ascii	"\364\321\022\344'\267\002\341\362\340\313\336\347\206"
 427      27B702E1 
 427      F2E0CBDE 
 427      E786
 428 0cc7 8E282842 		.ascii	"\216((By\364BE\031\271\364\200\035^\250,\030\256(\226"
 428      79F44245 
 428      19B9F480 
 428      1D5EA82C 
 428      18AE2896 
 429 0cdb 002A362E 		.ascii	"\000*6.FP\202%\303\306\305\006\003I\036\355\215HC^\""
 429      46508225 
 429      C3C6C506 
ARM GAS  /tmp/ccAqVU6n.s 			page 33


 429      03491EED 
 429      8D48435E 
 430 0cf0 86E1003B 		.ascii	"\206\341\000;\300!G \317#G\006\320\205\365U\210\337"
 430      C0214720 
 430      CF234706 
 430      D085F555 
 430      88DF
 431 0d02 DA42C4A2 		.ascii	"\332B\304\242\301Bil\374\321 \362\301aPY(\376;\333\261"
 431      C142696C 
 431      FCD120F2 
 431      C1615059 
 431      28FE3BDB 
 432 0d17 9AB8643C 		.ascii	"\232\270d<\010\373\314\213\303\237\216\206\306H\321"
 432      08FBCC8B 
 432      C39F8E86 
 432      C648D1
 433 0d26 3FD852A8 		.ascii	"?\330R\250\006\0336|H\237\307\012\007\017~\272\020H"
 433      061B367C 
 433      489FC70A 
 433      070F7EBA 
 433      1048
 434 0d38 068DE94D 		.ascii	"\006\215\351M\000\002\341p1\200\344B7\026\027\343R "
 434      0002E170 
 434      3180E442 
 434      371617E3 
 434      5220
 435 0d4a 9E0B3703 		.ascii	"\236\0137\003#\206\016\032:hx\016\351\016\033\376\302"
 435      23860E1A 
 435      3A68780E 
 435      E90E1BFE 
 435      C2
 436 0d5b 5FE8B5A7 		.ascii	"_\350\265\247\212\206\017\372\3333\331tXw\270PT\"\226"
 436      8A860FFA 
 436      DB33D974 
 436      5877B850 
 436      542296
 437 0d6e 9549E1A2 		.ascii	"\225I\341\242\362\262Q\241\321\277.\254\210E\223\222"
 437      F2B251A1 
 437      D1BF2EAC 
 437      88459392 
 438 0d7e 954995E1 		.ascii	"\225I\225\341\320\310\302X\2748TFd\314\251\200c\237"
 438      D0C8C258 
 438      BC385446 
 438      64CCA980 
 438      639F
 439 0d90 C702F147 		.ascii	"\307\002\361G\254\206\225\212\301\222P\231T\030(\226"
 439      AC86958A 
 439      C1925099 
 439      54182896 
 440 0da0 468915E1 		.ascii	"F\211\025\341x >.\"\021?\344\006\002\032aViy\261\224"
 440      78203E2E 
 440      22113FE4 
 440      06021A61 
 440      566979B1 
 441 0db5 2F8D8D04 		.ascii	"/\215\215\004U\256\201x\027\0209(\206\303#\305\340\313"
 441      55AE8178 
 441      17103928 
ARM GAS  /tmp/ccAqVU6n.s 			page 34


 441      86C323C5 
 441      E0CB
 442 0dc7 81B8101C 		.ascii	"\201\270\020\034\231\303n\305\210ET\251\274Az C_\030"
 442      99C36EC5 
 442      884554A9 
 442      BC417A20 
 442      435F18
 443 0dda F99214A4 		.ascii	"\371\222\024\244\206\315\202\263H\016\354\206\305\305"
 443      86CD82B3 
 443      480EEC86 
 443      C5C5
 444 0de8 68DC473B 		.ascii	"h\334G;\345\221\356pd\032=S&\216\014K>\006w\223~\343"
 444      E591EE70 
 444      641A3D53 
 444      268E0C4B 
 444      3E067793 
 445 0dfe E9508CDC 		.ascii	"\351P\214\334\351AH$\355\342\020\020lP6\021&\222\317"
 445      E9414824 
 445      EDE21010 
 445      6C503611 
 445      2692CF
 446 0e11 0C1A0801 		.ascii	"\014\032\010\001\233.\332I\214\260\311\327\317\312#"
 446      9B2EDA49 
 446      8CB0C9D7 
 446      CFCA23
 447 0e20 B769279A 		.ascii	"\267i'\2322\022\345x;\177\271X\345\227\005\347\321~"
 447      3212E578 
 447      3B7FB958 
 447      E59705E7 
 447      D17E
 448 0e32 96CE058A 		.ascii	"\226\316\005\212\302\242!\303\006\015\323c\230$C\260"
 448      C2A221C3 
 448      060DD363 
 448      982443B0 
 449 0e42 F4D98AB2 		.ascii	"\364\331\212\262 X\260K@\003\011\204\242\257t\021\303"
 449      2058B04B 
 449      40030984 
 449      A2AF7411 
 449      C3
 450 0e53 95E2B818 		.ascii	"\225\342\270\030\210\027\006{\347\007\030_r\353\021"
 450      8817067B 
 450      E707185F 
 450      72EB11
 451 0e62 47B9A139 		.ascii	"G\271\2419&'^\022\225\304\342@\0342%\240\366\037t\000"
 451      26275E12 
 451      95C4E240 
 451      1C3225A0 
 451      F61F7400 
 452 0e76 102C21B1 		.ascii	"\020,!\261\346\215\004\312@n8D\242\322\230?9K\362\362"
 452      E68D04CA 
 452      406E3844 
 452      A2D2983F 
 452      394BF2F2 
 453 0e8a D248282C 		.ascii	"\322H(,Ec\205\317\025\025\001\224&\210/\036\211\206"
 453      456385CF 
 453      15150194 
 453      26882F1E 
ARM GAS  /tmp/ccAqVU6n.s 			page 35


 453      8986
 454 0e9c CA032A58 		.ascii	"\312\003*X\250\334\007\376\216\223\264pQ9H\302\322\""
 454      A8DC07FE 
 454      8E93B470 
 454      513948C2 
 454      D222
 455 0eae 0191168C 		.ascii	"\001\221\026\214\217\315\211J\243\305h)DT\264\277\020"
 455      8FCD894A 
 455      A3C56829 
 455      4454B4BF 
 455      10
 456 0ebf 1DE089F6 		.ascii	"\035\340\211\366\356\005\255\267\020\355+D\373\011\321"
 456      EE05ADB7 
 456      10ED2B44 
 456      FB09D1
 457 0ece C785E8EF 		.ascii	"\307\205\350\357\205p\024.\365\311\216\004`\274\217"
 457      8570142E 
 457      F5C98E04 
 457      60BC8F
 458 0edd 68532945 		.ascii	"hS)E\341X\036.\226\242D;\261T\312\321\322\311G\"\270"
 458      E1581E2E 
 458      96A2443B 
 458      B154CAD1 
 458      D2C94722 
 459 0ef2 3F584A8D 		.ascii	"?XJ\215e\350\301Hz\317\027'1M\317G\205\305\321\261\354"
 459      65E8C148 
 459      7ACF1727 
 459      314DCF47 
 459      85C5D1B1 
 460 0f07 D2D86838 		.ascii	"\322\330h8c\001\017\343Y\317\033-\036\007\267 bC\361"
 460      63010FE3 
 460      59CF1B2D 
 460      1E07B720 
 460      6243F1
 461 0f1a 2050782B 		.ascii	" Px+\343\345#_\212\364`>\210\202\226Q\251,\010H\331"
 461      E3E5235F 
 461      8AF4603E 
 461      88829651 
 461      A92C0848 
 462 0f2f 95F17834 		.ascii	"\225\361x4\222\017>\211I\245b\244\004\264sR\363$R9\273"
 462      920F3E89 
 462      49A562A4 
 462      04B47352 
 462      F3245239 
 463 0f44 A970B1C0 		.ascii	"\251p\261\300+\025R\005`uOz\226]\362\261cv\260\0142"
 463      2B155205 
 463      60754F7A 
 463      965DF2B1 
 463      6376B00C 
 464 0f59 343B1680 		.ascii	"4;\026\200#\210\002\324\021\310\274@i\005\030\336\001"
 464      238802D4 
 464      11C8BC40 
 464      690518DE 
 464      01
 465 0f6a B7D2F858 		.ascii	"\267\322\370X\342\267R\006Z\032(\257,\003\353Qr\320"
 465      E2B75206 
 465      5A1A28AF 
ARM GAS  /tmp/ccAqVU6n.s 			page 36


 465      2C03EB51 
 465      72D0
 466 0f7c B5548D8D 		.ascii	"\265T\215\215\3128\214\213x\"\201\212\256\232\020\341"
 466      CA388C8B 
 466      7822818A 
 466      AE9A10E1 
 467 0f8c 500CF876 		.ascii	"P\014\370v3\210E\256\370#\201J1\024\017\225\215\206"
 467      338845AE 
 467      F823814A 
 467      31140F95 
 467      8D86
 468 0f9e 1ED0     		.ascii	"\036\320"
 469 0fa0 906BB911 		.ascii	"\220k\271\0210\212\030&\001\221\023\010\214\202L\010"
 469      308A1826 
 469      01911308 
 469      8C824C08 
 470 0fb0 04BA689D 		.ascii	"\004\272h\235G\373\366\177\274\257~\326\257\177\257"
 470      47FBF67F 
 470      BCAF7ED6 
 470      AF7FAF
 471 0fbf 01C6B3DE 		.ascii	"\001\306\263\336}Lg\375\215g\217\231\356\365\351\365"
 471      7D4C67FD 
 471      8D678F99 
 471      EEF5E9F5 
 472 0fcf 3F2CB016 		.ascii	"?,\260\026m"
 472      6D
 473              		.text
 474              		.section	.gnu.lto_.symtab.a2cfc071452c4200,"",%progbits
 475 0000 65787449 		.ascii	"extInit\000\000\000\000\000\000\000\000\000\000\000"
 475      6E697400 
 475      00000000 
 475      00000000 
 475      0000
 476 0012 00B50000 		.ascii	"\000\265\000\000\000extObjectInit\000\000\000\000\000"
 476      00657874 
 476      4F626A65 
 476      6374496E 
 476      69740000 
 477 0029 00000000 		.ascii	"\000\000\000\000\000\000\000\270\000\000\000extStar"
 477      000000B8 
 477      00000065 
 477      78745374 
 477      6172
 478 003b 74000000 		.ascii	"t\000\000\000\000\000\000\000\000\000\000\000\000\370"
 478      00000000 
 478      00000000 
 478      00F8
 479 0049 00000065 		.ascii	"\000\000\000extStop\000\000\000\000\000\000\000\000"
 479      78745374 
 479      6F700000 
 479      00000000 
 479      0000
 480 005b 00000000 		.ascii	"\000\000\000\000\000\001\000\000extChannelEnable\000"
 480      00010000 
 480      65787443 
 480      68616E6E 
 480      656C456E 
ARM GAS  /tmp/ccAqVU6n.s 			page 37


 481 0074 00000000 		.ascii	"\000\000\000\000\000\000\000\000\000\000\000\004\001"
 481      00000000 
 481      00000004 
 481      01
 482 0081 00006578 		.ascii	"\000\000extChannelDisable\000\000\000\000\000\000\000"
 482      74436861 
 482      6E6E656C 
 482      44697361 
 482      626C6500 
 483 009b 00000000 		.ascii	"\000\000\000\000\000\012\001\000\000extSetChannelMo"
 483      000A0100 
 483      00657874 
 483      53657443 
 483      68616E6E 
 484 00b3 64654900 		.ascii	"deI\000\000\000\000\000\000\000\000\000\000\000\000"
 484      00000000 
 484      00000000 
 484      000000
 485 00c2 0F010000 		.ascii	"\017\001\000\000ext_lld_init\000\000\002\000\000\000"
 485      6578745F 
 485      6C6C645F 
 485      696E6974 
 485      00000200 
 486 00d8 00000000 		.ascii	"\000\000\000\000\000\000\034\001\000\000ext_lld_sta"
 486      00001C01 
 486      00006578 
 486      745F6C6C 
 486      645F7374 
 487 00ed 72740000 		.ascii	"rt\000\000\002\000\000\000\000\000\000\000\000\000\036"
 487      02000000 
 487      00000000 
 487      00001E
 488 00fc 01000065 		.ascii	"\001\000\000ext_lld_stop\000\000\002\000\000\000\000"
 488      78745F6C 
 488      6C645F73 
 488      746F7000 
 488      00020000 
 489 0112 00000000 		.ascii	"\000\000\000\000\000 \001\000\000ext_lld_channel_en"
 489      00200100 
 489      00657874 
 489      5F6C6C64 
 489      5F636861 
 490 012d 61626C65 		.ascii	"able\000\000\002\000\000\000\000\000\000\000\000\000"
 490      00000200 
 490      00000000 
 490      00000000 
 491 013d 22010000 		.ascii	"\"\001\000\000ext_lld_channel_disable\000\000\002\000"
 491      6578745F 
 491      6C6C645F 
 491      6368616E 
 491      6E656C5F 
 492 015c 00000000 		.ascii	"\000\000\000\000\000\000\000\000$\001\000\000"
 492      00000000 
 492      24010000 
 493              		.text
 494              		.section	.gnu.lto_.opts,"",%progbits
 495 0000 272D6D63 		.ascii	"'-mcpu=cortex-m0' '-mno-thumb-interwork' '-mthumb' "
ARM GAS  /tmp/ccAqVU6n.s 			page 38


 495      70753D63 
 495      6F727465 
 495      782D6D30 
 495      2720272D 
 496 0033 272D6767 		.ascii	"'-ggdb' '-O0' '-fomit-frame-pointer' '-falign-funct"
 496      64622720 
 496      272D4F30 
 496      2720272D 
 496      666F6D69 
 497 0066 696F6E73 		.ascii	"ions=16' '-ffunction-sections' '-fdata-sections' '-"
 497      3D313627 
 497      20272D66 
 497      66756E63 
 497      74696F6E 
 498 0099 666E6F2D 		.ascii	"fno-common' '-flto'\000"
 498      636F6D6D 
 498      6F6E2720 
 498      272D666C 
 498      746F2700 
 499              		.text
 500              		.cfi_sections	.debug_frame
 501              		.section	.text.port_lock,"ax",%progbits
 502              		.align	2
 503              		.p2align 4,,15
 504              		.code	16
 505              		.thumb_func
 506              		.type	port_lock, %function
 507              	port_lock:
 508              	.LFB38:
 509              		.file 1 "/home/efe/ChibiOS/os/rt/ports/ARMCMx/chcore_v6m.h"
 510              		.loc 1 330 0
 511              		.cfi_startproc
 512              	.LBB6:
 513              	.LBB7:
 514              		.file 2 "/home/efe/ChibiOS/os/ext/CMSIS/include/core_cmFunc.h"
 515              		.loc 2 344 0
 516              	@ 344 "/home/efe/ChibiOS/os/ext/CMSIS/include/core_cmFunc.h" 1
 517 0000 72B6     		cpsid i
 518              	@ 0 "" 2
 519              		.code	16
 520              	.LBE7:
 521              	.LBE6:
 522              		.loc 1 333 0
 523              		@ sp needed
 524 0002 7047     		bx	lr
 525              		.cfi_endproc
 526              	.LFE38:
 527              		.size	port_lock, .-port_lock
 528 0004 C046C046 		.section	.text.port_unlock,"ax",%progbits
 528      C046C046 
 528      C046C046 
 529              		.align	2
 530              		.p2align 4,,15
 531              		.code	16
 532              		.thumb_func
 533              		.type	port_unlock, %function
 534              	port_unlock:
ARM GAS  /tmp/ccAqVU6n.s 			page 39


 535              	.LFB39:
 536              		.loc 1 339 0
 537              		.cfi_startproc
 538              	.LBB8:
 539              	.LBB9:
 540              		.loc 2 333 0
 541              	@ 333 "/home/efe/ChibiOS/os/ext/CMSIS/include/core_cmFunc.h" 1
 542 0000 62B6     		cpsie i
 543              	@ 0 "" 2
 544              		.code	16
 545              	.LBE9:
 546              	.LBE8:
 547              		.loc 1 342 0
 548              		@ sp needed
 549 0002 7047     		bx	lr
 550              		.cfi_endproc
 551              	.LFE39:
 552              		.size	port_unlock, .-port_unlock
 553 0004 C046C046 		.section	.text.chSysLock,"ax",%progbits
 553      C046C046 
 553      C046C046 
 554              		.align	2
 555              		.p2align 4,,15
 556              		.code	16
 557              		.thumb_func
 558              		.type	chSysLock, %function
 559              	chSysLock:
 560              	.LFB70:
 561              		.file 3 "/home/efe/ChibiOS/os/rt/include/chsys.h"
 562              		.loc 3 346 0
 563              		.cfi_startproc
 564 0000 08B5     		push	{r3, lr}
 565              		.cfi_def_cfa_offset 8
 566              		.cfi_offset 3, -8
 567              		.cfi_offset 14, -4
 568              		.loc 3 348 0
 569 0002 FFF7FEFF 		bl	port_lock
 570              		.loc 3 351 0
 571              		@ sp needed
 572 0006 08BD     		pop	{r3, pc}
 573              		.cfi_endproc
 574              	.LFE70:
 575              		.size	chSysLock, .-chSysLock
 576 0008 C046C046 		.section	.text.chSysUnlock,"ax",%progbits
 576      C046C046 
 577              		.align	2
 578              		.p2align 4,,15
 579              		.code	16
 580              		.thumb_func
 581              		.type	chSysUnlock, %function
 582              	chSysUnlock:
 583              	.LFB71:
 584              		.loc 3 358 0
 585              		.cfi_startproc
 586 0000 08B5     		push	{r3, lr}
 587              		.cfi_def_cfa_offset 8
 588              		.cfi_offset 3, -8
ARM GAS  /tmp/ccAqVU6n.s 			page 40


 589              		.cfi_offset 14, -4
 590              		.loc 3 371 0
 591 0002 FFF7FEFF 		bl	port_unlock
 592              		.loc 3 372 0
 593              		@ sp needed
 594 0006 08BD     		pop	{r3, pc}
 595              		.cfi_endproc
 596              	.LFE71:
 597              		.size	chSysUnlock, .-chSysUnlock
 598 0008 C046C046 		.section	.text.osalSysLock,"ax",%progbits
 598      C046C046 
 599              		.align	2
 600              		.p2align 4,,15
 601              		.code	16
 602              		.thumb_func
 603              		.type	osalSysLock, %function
 604              	osalSysLock:
 605              	.LFB123:
 606              		.file 4 "/home/efe/ChibiOS/os/hal/osal/rt/osal.h"
 607              		.loc 4 491 0
 608              		.cfi_startproc
 609 0000 08B5     		push	{r3, lr}
 610              		.cfi_def_cfa_offset 8
 611              		.cfi_offset 3, -8
 612              		.cfi_offset 14, -4
 613              		.loc 4 493 0
 614 0002 FFF7FEFF 		bl	chSysLock
 615              		.loc 4 494 0
 616              		@ sp needed
 617 0006 08BD     		pop	{r3, pc}
 618              		.cfi_endproc
 619              	.LFE123:
 620              		.size	osalSysLock, .-osalSysLock
 621 0008 C046C046 		.section	.text.osalSysUnlock,"ax",%progbits
 621      C046C046 
 622              		.align	2
 623              		.p2align 4,,15
 624              		.code	16
 625              		.thumb_func
 626              		.type	osalSysUnlock, %function
 627              	osalSysUnlock:
 628              	.LFB124:
 629              		.loc 4 502 0
 630              		.cfi_startproc
 631 0000 08B5     		push	{r3, lr}
 632              		.cfi_def_cfa_offset 8
 633              		.cfi_offset 3, -8
 634              		.cfi_offset 14, -4
 635              		.loc 4 504 0
 636 0002 FFF7FEFF 		bl	chSysUnlock
 637              		.loc 4 505 0
 638              		@ sp needed
 639 0006 08BD     		pop	{r3, pc}
 640              		.cfi_endproc
 641              	.LFE124:
 642              		.size	osalSysUnlock, .-osalSysUnlock
 643 0008 C046C046 		.section	.text.extInit,"ax",%progbits
ARM GAS  /tmp/ccAqVU6n.s 			page 41


 643      C046C046 
 644              		.align	2
 645              		.p2align 4,,15
 646              		.global	extInit
 647              		.code	16
 648              		.thumb_func
 649              		.type	extInit, %function
 650              	extInit:
 651              	.LFB149:
 652              		.file 5 "/home/efe/ChibiOS/os/hal/src/ext.c"
 653              		.loc 5 56 0
 654              		.cfi_startproc
 655 0000 08B5     		push	{r3, lr}
 656              		.cfi_def_cfa_offset 8
 657              		.cfi_offset 3, -8
 658              		.cfi_offset 14, -4
 659              		.loc 5 58 0
 660 0002 FFF7FEFF 		bl	ext_lld_init
 661              		.loc 5 59 0
 662              		@ sp needed
 663 0006 08BD     		pop	{r3, pc}
 664              		.cfi_endproc
 665              	.LFE149:
 666              		.size	extInit, .-extInit
 667 0008 C046C046 		.section	.text.extObjectInit,"ax",%progbits
 667      C046C046 
 668              		.align	2
 669              		.p2align 4,,15
 670              		.global	extObjectInit
 671              		.code	16
 672              		.thumb_func
 673              		.type	extObjectInit, %function
 674              	extObjectInit:
 675              	.LFB150:
 676              		.loc 5 68 0
 677              		.cfi_startproc
 678 0000 82B0     		sub	sp, sp, #8
 679              		.cfi_def_cfa_offset 8
 680 0002 0190     		str	r0, [sp, #4]
 681              		.loc 5 70 0
 682 0004 019B     		ldr	r3, [sp, #4]
 683 0006 0122     		mov	r2, #1
 684 0008 1A70     		strb	r2, [r3]
 685              		.loc 5 71 0
 686 000a 019B     		ldr	r3, [sp, #4]
 687 000c 0022     		mov	r2, #0
 688 000e 5A60     		str	r2, [r3, #4]
 689              		.loc 5 72 0
 690 0010 02B0     		add	sp, sp, #8
 691              		@ sp needed
 692 0012 7047     		bx	lr
 693              		.cfi_endproc
 694              	.LFE150:
 695              		.size	extObjectInit, .-extObjectInit
 696 0014 C046C046 		.section	.text.extStart,"ax",%progbits
 696      C046C046 
 696      C046C046 
ARM GAS  /tmp/ccAqVU6n.s 			page 42


 697              		.align	2
 698              		.p2align 4,,15
 699              		.global	extStart
 700              		.code	16
 701              		.thumb_func
 702              		.type	extStart, %function
 703              	extStart:
 704              	.LFB151:
 705              		.loc 5 84 0
 706              		.cfi_startproc
 707 0000 00B5     		push	{lr}
 708              		.cfi_def_cfa_offset 4
 709              		.cfi_offset 14, -4
 710 0002 83B0     		sub	sp, sp, #12
 711              		.cfi_def_cfa_offset 16
 712 0004 0190     		str	r0, [sp, #4]
 713 0006 0091     		str	r1, [sp]
 714              		.loc 5 88 0
 715 0008 FFF7FEFF 		bl	osalSysLock
 716              		.loc 5 91 0
 717 000c 019B     		ldr	r3, [sp, #4]
 718 000e 009A     		ldr	r2, [sp]
 719 0010 5A60     		str	r2, [r3, #4]
 720              		.loc 5 92 0
 721 0012 019B     		ldr	r3, [sp, #4]
 722 0014 181C     		mov	r0, r3
 723 0016 FFF7FEFF 		bl	ext_lld_start
 724              		.loc 5 93 0
 725 001a 019B     		ldr	r3, [sp, #4]
 726 001c 0222     		mov	r2, #2
 727 001e 1A70     		strb	r2, [r3]
 728              		.loc 5 94 0
 729 0020 FFF7FEFF 		bl	osalSysUnlock
 730              		.loc 5 95 0
 731 0024 03B0     		add	sp, sp, #12
 732              		@ sp needed
 733 0026 00BD     		pop	{pc}
 734              		.cfi_endproc
 735              	.LFE151:
 736              		.size	extStart, .-extStart
 737 0028 C046C046 		.section	.text.extStop,"ax",%progbits
 737      C046C046 
 738              		.align	2
 739              		.p2align 4,,15
 740              		.global	extStop
 741              		.code	16
 742              		.thumb_func
 743              		.type	extStop, %function
 744              	extStop:
 745              	.LFB152:
 746              		.loc 5 104 0
 747              		.cfi_startproc
 748 0000 00B5     		push	{lr}
 749              		.cfi_def_cfa_offset 4
 750              		.cfi_offset 14, -4
 751 0002 83B0     		sub	sp, sp, #12
 752              		.cfi_def_cfa_offset 16
ARM GAS  /tmp/ccAqVU6n.s 			page 43


 753 0004 0190     		str	r0, [sp, #4]
 754              		.loc 5 108 0
 755 0006 FFF7FEFF 		bl	osalSysLock
 756              		.loc 5 111 0
 757 000a 019B     		ldr	r3, [sp, #4]
 758 000c 181C     		mov	r0, r3
 759 000e FFF7FEFF 		bl	ext_lld_stop
 760              		.loc 5 112 0
 761 0012 019B     		ldr	r3, [sp, #4]
 762 0014 0122     		mov	r2, #1
 763 0016 1A70     		strb	r2, [r3]
 764              		.loc 5 113 0
 765 0018 FFF7FEFF 		bl	osalSysUnlock
 766              		.loc 5 114 0
 767 001c 03B0     		add	sp, sp, #12
 768              		@ sp needed
 769 001e 00BD     		pop	{pc}
 770              		.cfi_endproc
 771              	.LFE152:
 772              		.size	extStop, .-extStop
 773              		.section	.text.extChannelEnable,"ax",%progbits
 774              		.align	2
 775              		.p2align 4,,15
 776              		.global	extChannelEnable
 777              		.code	16
 778              		.thumb_func
 779              		.type	extChannelEnable, %function
 780              	extChannelEnable:
 781              	.LFB153:
 782              		.loc 5 125 0
 783              		.cfi_startproc
 784 0000 00B5     		push	{lr}
 785              		.cfi_def_cfa_offset 4
 786              		.cfi_offset 14, -4
 787 0002 83B0     		sub	sp, sp, #12
 788              		.cfi_def_cfa_offset 16
 789 0004 0190     		str	r0, [sp, #4]
 790 0006 0091     		str	r1, [sp]
 791              		.loc 5 129 0
 792 0008 FFF7FEFF 		bl	osalSysLock
 793              		.loc 5 134 0
 794 000c 019A     		ldr	r2, [sp, #4]
 795 000e 009B     		ldr	r3, [sp]
 796 0010 101C     		mov	r0, r2
 797 0012 191C     		mov	r1, r3
 798 0014 FFF7FEFF 		bl	ext_lld_channel_enable
 799              		.loc 5 135 0
 800 0018 FFF7FEFF 		bl	osalSysUnlock
 801              		.loc 5 136 0
 802 001c 03B0     		add	sp, sp, #12
 803              		@ sp needed
 804 001e 00BD     		pop	{pc}
 805              		.cfi_endproc
 806              	.LFE153:
 807              		.size	extChannelEnable, .-extChannelEnable
 808              		.section	.text.extChannelDisable,"ax",%progbits
 809              		.align	2
ARM GAS  /tmp/ccAqVU6n.s 			page 44


 810              		.p2align 4,,15
 811              		.global	extChannelDisable
 812              		.code	16
 813              		.thumb_func
 814              		.type	extChannelDisable, %function
 815              	extChannelDisable:
 816              	.LFB154:
 817              		.loc 5 147 0
 818              		.cfi_startproc
 819 0000 00B5     		push	{lr}
 820              		.cfi_def_cfa_offset 4
 821              		.cfi_offset 14, -4
 822 0002 83B0     		sub	sp, sp, #12
 823              		.cfi_def_cfa_offset 16
 824 0004 0190     		str	r0, [sp, #4]
 825 0006 0091     		str	r1, [sp]
 826              		.loc 5 151 0
 827 0008 FFF7FEFF 		bl	osalSysLock
 828              		.loc 5 156 0
 829 000c 019A     		ldr	r2, [sp, #4]
 830 000e 009B     		ldr	r3, [sp]
 831 0010 101C     		mov	r0, r2
 832 0012 191C     		mov	r1, r3
 833 0014 FFF7FEFF 		bl	ext_lld_channel_disable
 834              		.loc 5 157 0
 835 0018 FFF7FEFF 		bl	osalSysUnlock
 836              		.loc 5 158 0
 837 001c 03B0     		add	sp, sp, #12
 838              		@ sp needed
 839 001e 00BD     		pop	{pc}
 840              		.cfi_endproc
 841              	.LFE154:
 842              		.size	extChannelDisable, .-extChannelDisable
 843              		.section	.text.extSetChannelModeI,"ax",%progbits
 844              		.align	2
 845              		.p2align 4,,15
 846              		.global	extSetChannelModeI
 847              		.code	16
 848              		.thumb_func
 849              		.type	extSetChannelModeI, %function
 850              	extSetChannelModeI:
 851              	.LFB155:
 852              		.loc 5 179 0
 853              		.cfi_startproc
 854 0000 00B5     		push	{lr}
 855              		.cfi_def_cfa_offset 4
 856              		.cfi_offset 14, -4
 857 0002 87B0     		sub	sp, sp, #28
 858              		.cfi_def_cfa_offset 32
 859 0004 0390     		str	r0, [sp, #12]
 860 0006 0291     		str	r1, [sp, #8]
 861 0008 0192     		str	r2, [sp, #4]
 862              		.loc 5 191 0
 863 000a 039B     		ldr	r3, [sp, #12]
 864 000c 5A68     		ldr	r2, [r3, #4]
 865 000e 029B     		ldr	r3, [sp, #8]
 866 0010 DB00     		lsl	r3, r3, #3
ARM GAS  /tmp/ccAqVU6n.s 			page 45


 867 0012 D318     		add	r3, r2, r3
 868 0014 0593     		str	r3, [sp, #20]
 869              		.loc 5 196 0
 870 0016 059B     		ldr	r3, [sp, #20]
 871 0018 019A     		ldr	r2, [sp, #4]
 872 001a 03CA     		ldmia	r2!, {r0, r1}
 873 001c 03C3     		stmia	r3!, {r0, r1}
 874              		.loc 5 197 0
 875 001e 039A     		ldr	r2, [sp, #12]
 876 0020 029B     		ldr	r3, [sp, #8]
 877 0022 101C     		mov	r0, r2
 878 0024 191C     		mov	r1, r3
 879 0026 FFF7FEFF 		bl	ext_lld_channel_enable
 880              		.loc 5 198 0
 881 002a 07B0     		add	sp, sp, #28
 882              		@ sp needed
 883 002c 00BD     		pop	{pc}
 884              		.cfi_endproc
 885              	.LFE155:
 886              		.size	extSetChannelModeI, .-extSetChannelModeI
 887 002e C046     		.text
 888              	.Letext0:
 889              		.file 6 "/usr/include/newlib/machine/_default_types.h"
 890              		.file 7 "/usr/include/newlib/stdint.h"
 891              		.file 8 "/home/efe/ChibiOS/os/rt/ports/ARMCMx/compilers/GCC/chtypes.h"
 892              		.file 9 "/home/efe/ChibiOS/os/rt/include/chsystypes.h"
 893              		.file 10 "/home/efe/ChibiOS/os/rt/include/chschd.h"
 894              		.file 11 "/home/efe/ChibiOS/os/rt/ports/ARMCMx/chcore.h"
 895              		.file 12 "/home/efe/ChibiOS/os/rt/include/chsem.h"
 896              		.file 13 "/home/efe/ChibiOS/os/rt/include/chmtx.h"
 897              		.file 14 "/home/efe/ChibiOS/os/hal/include/ext.h"
 898              		.file 15 "/home/efe/ChibiOS/os/hal/ports/STM32/LLD/EXTIv1/ext_lld.h"