ARM GAS  /tmp/ccAqVU6n.s 			page 1


   1              		.cpu cortex-m0
   2              		.fpu softvfp
   3              		.eabi_attribute 20, 1
   4              		.eabi_attribute 21, 1
   5              		.eabi_attribute 23, 3
   6              		.eabi_attribute 24, 1
   7              		.eabi_attribute 25, 1
   8              		.eabi_attribute 26, 1
   9              		.eabi_attribute 30, 6
  10              		.eabi_attribute 34, 0
  11              		.eabi_attribute 18, 4
  12              		.code	16
  13              		.file	"ext.c"
  14              		.text
  15              	.Ltext0:
  16              		.section	.gnu.lto_.inline.a2cfc071452c4200,"",%progbits
  17 0000 789C6362 		.ascii	"x\234cb`b\300\006\334\030!4/\003\003\0133\003\003\023"
  17      6062C006 
  17      DC182134 
  17      2F03030B 
  17      33030313 
  18 0014 CB073D06 		.ascii	"\313\007=\006\026\210ZF\014\021&\006\026\036 \311\264"
  18      16885A46 
  18      0C112606 
  18      161E20C9 
  18      B4
  19 0025 401EAE86 		.ascii	"@\036\256\206\013H0c\027f\301.\314\212]\230\015\273"
  19      0B483063 
  19      1766C12E 
  19      CC8A5D98 
  19      0DBB
  20 0037 303B032B 		.ascii	"0;\003+\013P\230\355\200\035L\230\203\201S\031U\004"
  20      0B5098ED 
  20      801D4C98 
  20      83815319 
  20      5504
  21 0049 AC90891B 		.ascii	"\254\220\211\033\306\342d\340PB\363\011\252\002.\210"
  21      C6E264E0 
  21      5042F309 
  21      AA022E88 
  22 0059 020C6FF0 		.ascii	"\002\014o\360\300X\334\204\024\3600p\013\003\025\360"
  22      C058DC84 
  22      14F03070 
  22      0B0315F0 
  23 0069 6CC88529 		.ascii	"l\310\205)\000\3131\000\000R\233\016\362"
  23      00CB3100 
  23      00529B0E 
  23      F2
  24              		.text
  25              		.section	.gnu.lto_port_lock.a2cfc071452c4200,"",%progbits
  26 0000 789C6362 		.ascii	"x\234cb`b@\007\"@<\035\210\253A\034f\006F\240\012F&"
  26      60624007 
  26      22403C1D 
  26      88AB411C 
  26      660646A0 
  27 0017 46462087 		.ascii	"FF \207\221\241\236\211\261>\222\021\254l=\323\201\007"
  27      91A19E89 
ARM GAS  /tmp/ccAqVU6n.s 			page 2


  27      B13E9211 
  27      AC6C3DD3 
  27      8107
  28 0029 FFFFAFDB 		.ascii	"\377\377\257\3332m\331\035\306\233L 1V\206\226\206\206"
  28      326DD91D 
  28      C69B4C20 
  28      31568696 
  28      8686
  29 003b 090A0C0C 		.ascii	"\011\012\014\014\311`\025!`2\024\244\237\371\034C\343"
  29      C9601521 
  29      603214A4 
  29      9FF91C43 
  29      E3
  30 004c C7B71FAE 		.ascii	"\307\267\037\2561\302\225\200\031\015\007\272\317\265"
  30      31C29580 
  30      190D07BA 
  30      CFB5
  31 005a B2323024 		.ascii	"\26220$2.\004\312$3B\014\006Z\223\315\014q\227\034C"
  31      322E04CA 
  31      2433420C 
  31      065A93CD 
  31      0C71971C 
  32 006f C9DC8619 		.ascii	"\311\334\206\031\016\231P\011\206\213\014\215\017\346"
  32      0E995009 
  32      868B0C8D 
  32      0FE6
  33 007d 6A4394C3 		.ascii	"jC\224\303@\010H\033H\265\221~F~n\252~jZ\252\276sFf"
  33      4008481B 
  33      48B5917E 
  33      467E6EAA 
  33      7E6A5AAA 
  34 0095 52A67FB0 		.ascii	"R\246\177\260~~\261~Q\211~A~QI\261\276c\220\257\263"
  34      7E7EB17E 
  34      51897E41 
  34      7E5149B1 
  34      BE6390AF 
  35 00aa 6F857E72 		.ascii	"o\205~rFr~Qj|\231Y\256^\006\203)V-\251\025%\372\316"
  35      46727E51 
  35      6A7C9959 
  35      AE5E0683 
  35      29562DA9 
  36 00c2 BEC19EC1 		.ascii	"\276\301\236\301\372\231y\3119\245)\251\372`-\311\271"
  36      FA9979C9 
  36      39A529A9 
  36      FA602DC9 
  36      B9
  37 00d3 6EA579C9 		.ascii	"n\245y\311@]\034\311\005\305\231)\012\231\014\354\271"
  37      405D1CC9 
  37      05C59929 
  37      0A990CEC 
  37      B9
  38 00e4 A9B9F945 		.ascii	"\251\271\371E\225\014\000?\304L\322"
  38      950C003F 
  38      C44CD2
  39              		.text
  40              		.section	.gnu.lto_port_unlock.a2cfc071452c4200,"",%progbits
  41 0000 789C6362 		.ascii	"x\234cb`b@\007\"@<\035\210\253A\034f\006F\240\012F&"
ARM GAS  /tmp/ccAqVU6n.s 			page 3


  41      60624007 
  41      22403C1D 
  41      88AB411C 
  41      660646A0 
  42 0017 46462087 		.ascii	"FF \207\221\241\236\211\261>\222\021\254l=\323\201\007"
  42      91A19E89 
  42      B13E9211 
  42      AC6C3DD3 
  42      8107
  43 0029 FFFFAFBB 		.ascii	"\377\377\257\2736m\371\033\306[L 1V\206\226\206\206"
  43      366DF91B 
  43      C65B4C20 
  43      31568696 
  43      8686
  44 003b 090A0C0C 		.ascii	"\011\012\014\014\311`\025!`2\024\244\237\371\034C\343"
  44      C9601521 
  44      603214A4 
  44      9FF91C43 
  44      E3
  45 004c C7B7BBAE 		.ascii	"\307\267\273\2561\302\225\200\031\015\007N_\373\312"
  45      31C29580 
  45      190D074E 
  45      5FFBCA
  46 005b CCC090C8 		.ascii	"\314\300\220\310\270\020(\223\314\0101\030hM63\304]"
  46      B8102893 
  46      CC083118 
  46      684D3633 
  46      C45D
  47 006d 720C2573 		.ascii	"r\014%s\033f8dB%\030.24>X\247\015Q\016\003! m \325F"
  47      1B663864 
  47      4225182E 
  47      32343E58 
  47      A70D510E 
  48 0088 FA19F9B9 		.ascii	"\372\031\371\271\251\372\251i\251\372\316\031\231I\231"
  48      A9FAA969 
  48      A9FACE19 
  48      994999
  49 0097 FEC1FAF9 		.ascii	"\376\301\372\371\305\372E%\372\005\371E%\305\372\216"
  49      C5FA4525 
  49      FA05F945 
  49      25C5FA8E 
  50 00a7 41BECEBE 		.ascii	"A\276\316\276\025\372\311\031\311\371E\251\361ef\271"
  50      15FAC919 
  50      C9F945A9 
  50      F16566B9 
  51 00b7 7A190CA6 		.ascii	"z\031\014\246X\265\244V\224\350;\373\006{\006\353g\346"
  51      58B5A456 
  51      94E83BFB 
  51      067B06EB 
  51      67E6
  52 00c9 25E794A6 		.ascii	"%\347\224\246\244\352\203\265$\347\272\225\346%\003"
  52      A4EA83B5 
  52      24E7BA95 
  52      E62503
  53 00d8 75712417 		.ascii	"uq$\027\024g\246*d2\260\347\246\346\346\027U2\000\000"
  53      1467A62A 
  53      6432B0E7 
ARM GAS  /tmp/ccAqVU6n.s 			page 4


  53      A6E6E617 
  53      55320000 
  54 00ec DC484D98 		.ascii	"\334HM\230"
  55              		.text
  56              		.section	.gnu.lto_chSysLock.a2cfc071452c4200,"",%progbits
  57 0000 789C6362 		.ascii	"x\234cb`b@\007\"@\\\006\304Z \0163\003#P\005#\023##"
  57      60624007 
  57      22405C06 
  57      C45A200E 
  57      33032350 
  58 0019 90C3C850 		.ascii	"\220\303\310P\317\304X\037\311\010V\266\236\351\300"
  58      CFC4581F 
  58      C90856B6 
  58      9EE9C0
  59 0028 83FFFFD7 		.ascii	"\203\377\377\327}\271\266\354\017\343m&\220\030+CKC"
  59      7DB9B6EC 
  59      0FE36D26 
  59      90182B43 
  59      4B43
  60 003a C3040506 		.ascii	"\303\004\005\006\206d\260\212\0200\031\012\322\317|"
  60      8664B08A 
  60      1030190A 
  60      D2CF7C
  61 0049 9EA1F9C1 		.ascii	"\236\241\371\301\236n\366D\306\205\214\254@\301j\206"
  61      9E6EF644 
  61      C6858CAC 
  61      40C16A86 
  62 0059 5F0D1D0D 		.ascii	"_\015\035\015\002\231\214@\245\020\3232A\364E\206\306"
  62      02998C40 
  62      A510D332 
  62      41F44586 
  62      C6
  63 006a 07FBB561 		.ascii	"\007\373\265a\212  \004$\001r\244\206~F~n\252~jZ\252"
  63      8A202004 
  63      240172A4 
  63      867E467E 
  63      6EAA7E6A 
  64 0080 BE734666 		.ascii	"\276sFfR\246\177\260~~\261~Q\211~f^rNiJ\252~rFqe\261"
  64      52A67FB0 
  64      7E7EB17E 
  64      51897E66 
  64      5E724E69 
  65 009c 5E060300 		.ascii	"^\006\003\000\376\375*9"
  65      FEFD2A39 
  66              		.text
  67              		.section	.gnu.lto_chSysUnlock.a2cfc071452c4200,"",%progbits
  68 0000 789C6362 		.ascii	"x\234cb`b@\007\322@\334\301\310\300\240\005\342\260"
  68      60624007 
  68      D240DCC1 
  68      C8C0A005 
  68      E2B0
  69 0012 30300255 		.ascii	"00\002U0212\003IfF\2400\003#C=\0233c}$\210\315\300\246"
  69      30323132 
  69      03496646 
  69      A0300323 
  69      433D1333 
  70 002d C4B0B0A1 		.ascii	"\304\260\260\241a\322\203\247\337gIv-h\232\320\360\357"
ARM GAS  /tmp/ccAqVU6n.s 			page 5


  70      61D283A7 
  70      DF674976 
  70      2D689AD0 
  70      F0EF
  71 003f FF7FC64C 		.ascii	"\377\177\306L\220T2#C\004\220\305\250\000\246\230XP"
  71      90543223 
  71      430490C5 
  71      A800A698 
  71      5850
  72 0051 2D81686B 		.ascii	"-\201hk\330\264\242\201sA\303\237\377\377\231\311\323"
  72      D8B4A281 
  72      7341C39F 
  72      FFFF99C9 
  72      D3
  73 0062 C33C58EC 		.ascii	"\303<X\354\311edX\317t\340\301\377\377ov\356|\364\206"
  73      C9656458 
  73      CF74E0C1 
  73      FFFF6F76 
  73      EE7CF486 
  74 0076 5114640B 		.ascii	"Q\024d\013+CKC\303\004\205\\\250\215@\020\002%\201A"
  74      2B434B43 
  74      C304855C 
  74      A88D4010 
  74      02258141 
  75 008a CA1C0A32 		.ascii	"\312\034\0122\224\371<C\363\203\327\247\331\023\031"
  75      94F93C43 
  75      F383D7A7 
  75      D91319
  76 0099 9731B202 		.ascii	"\2271\262\002\245\252\031~5t4\010d2\262$\203\303\232"
  76      A5AA197E 
  76      35743408 
  76      6432B224 
  76      83C39A
  77 00ac 81211324 		.ascii	"\201!\023$~\221\241\361\301\033m\230\"\010\010\001)"
  77      7E91A1F1 
  77      C11B6D98 
  77      22080801 
  77      29
  78 00bd 00C59E86 		.ascii	"\000\305\236\206~F~n\252~jZ\252\276sFfR\246\177\260"
  78      7E467E6E 
  78      AA7E6A5A 
  78      AABE7346 
  78      6652A67F 
  79 00d2 7E7EB17E 		.ascii	"~~\261~Q\211~f^rNiJ\252~rFqe\261^\006\003\000\303\313"
  79      51897E66 
  79      5E724E69 
  79      4AAA7E72 
  79      467165B1 
  80 00ec 66D2     		.ascii	"f\322"
  81              		.text
  82              		.section	.gnu.lto_osalSysLock.a2cfc071452c4200,"",%progbits
  83 0000 789C6362 		.ascii	"x\234cb`b@\007\"@\\\006\304Z \0163\003#P\005#\023##"
  83      60624007 
  83      22405C06 
  83      C45A200E 
  83      33032350 
  84 0019 90C3C850 		.ascii	"\220\303\310P\317\304X\037\311\010V\266\236\351\300"
ARM GAS  /tmp/ccAqVU6n.s 			page 6


  84      CFC4581F 
  84      C90856B6 
  84      9EE9C0
  85 0028 83FFFFD7 		.ascii	"\203\377\377\327m\233\277\374\015\343_&\220\030+CKC"
  85      6D9BBFFC 
  85      0DE35F26 
  85      90182B43 
  85      4B43
  86 003a C3040506 		.ascii	"\303\004\005\006\206d\260\212\0200\031\012\322\317|"
  86      8664B08A 
  86      1030190A 
  86      D2CF7C
  87 0049 9EA1F9C1 		.ascii	"\236\241\371\301\335~\366D\306\205\214\254@\301j\206"
  87      DD7EF644 
  87      C6858CAC 
  87      40C16A86 
  88 0059 5F0D1D0D 		.ascii	"_\015\035\015\002\231\214@\245\020\3232A\364E\206\306"
  88      02998C40 
  88      A510D332 
  88      41F44586 
  88      C6
  89 006a 07F7F461 		.ascii	"\007\367\364a\212  \004$\001r\244\206~F~n\252~jZ\252"
  89      8A202004 
  89      240172A4 
  89      867E467E 
  89      6EAA7E6A 
  90 0080 BE734666 		.ascii	"\276sFfR\246\177\260~~\261~Fb\016\220\002\022E%`Z/\203"
  90      52A67FB0 
  90      7E7EB17E 
  90      46620E90 
  90      02124525 
  91 0098 0100DBCC 		.ascii	"\001\000\333\314)\323"
  91      29D3
  92              		.text
  93              		.section	.gnu.lto_osalSysUnlock.a2cfc071452c4200,"",%progbits
  94 0000 789C6362 		.ascii	"x\234cb`b@\007\"@\\\006\304Z \0163\003#P\005#\023##"
  94      60624007 
  94      22405C06 
  94      C45A200E 
  94      33032350 
  95 0019 90C3C850 		.ascii	"\220\303\310P\317\304X\037\311\010V\266\236\351\300"
  95      CFC4581F 
  95      C90856B6 
  95      9EE9C0
  96 0028 83FFFFD7 		.ascii	"\203\377\377\327\335\231\277f\016\343\177&\220\030+"
  96      DD99BF66 
  96      0EE37F26 
  96      90182B
  97 0037 434B43C3 		.ascii	"CKC\303\004\005\006\206d\260\212\0200\031\012\322\317"
  97      04050686 
  97      64B08A10 
  97      30190AD2 
  97      CF
  98 0048 7C9EA1F9 		.ascii	"|\236\241\371\301\217\363\354\211\214\013\031Y\201\202"
  98      C18FF3EC 
  98      898C0B19 
  98      598182
ARM GAS  /tmp/ccAqVU6n.s 			page 7


  99 0057 D50CBF1A 		.ascii	"\325\014\277\032:\032\0042\031\201J!\246e\202\350\213"
  99      3A1A0432 
  99      19814A21 
  99      A66582E8 
  99      8B
 100 0068 0C8D0F7E 		.ascii	"\014\215\017~\352\303\024A@\010H\002\344H\015\375\214"
 100      EAC31441 
 100      40084802 
 100      E4480DFD 
 100      8C
 101 0079 FCDC54FD 		.ascii	"\374\334T\375\324\264T}\347\214\314\244L\377`\375\374"
 101      D4B4547D 
 101      E78CCCA4 
 101      4CFF60FD 
 101      FC
 102 008a 62FD8CC4 		.ascii	"b\375\214\304\034 \005$\212J\300\264^\006\003\000\364"
 102      1C200524 
 102      8A4AC0B4 
 102      5E060300 
 102      F4
 103 009b 602A26   		.ascii	"`*&"
 104              		.text
 105              		.section	.gnu.lto_extInit.a2cfc071452c4200,"",%progbits
 106 0000 789C6362 		.ascii	"x\234cb`b@\007\"@\\\014\304\252 \0163\003#P\005#\023"
 106      60624007 
 106      22405C0C 
 106      C4AA200E 
 106      33032350 
 107 0017 232390C3 		.ascii	"##\220\303\310P\317\304X\037\311\010V\266\236\351\300"
 107      C850CFC4 
 107      581FC908 
 107      56B69EE9 
 107      C0
 108 0028 83FFFFD7 		.ascii	"\203\377\377\327}\330\370\260\032,\311\312\320\322\320"
 108      7DD8F8B0 
 108      1A2CC9CA 
 108      D0D2D0
 109 0037 30418181 		.ascii	"0A\201\201!\031,\037\002&CA\272\231\31734?\370e\227"
 109      21192C1F 
 109      02264341 
 109      BA99CF33 
 109      343FF865 
 110 004c C8B89091 		.ascii	"\310\270\220\221\025(V\315\360\253\241\243A \223\021"
 110      152856CD 
 110      F0ABA1A3 
 110      41209311 
 111 005c A8126254 		.ascii	"\250\022bT&\210\276\310\320\370\3407\023L\021\004\204"
 111      2688BEC8 
 111      D0F8E037 
 111      134C1104 
 111      84
 112 006d 8024402E 		.ascii	"\200$@.T\326\317\310\317M\325OMK\325w\316\310L\312\364"
 112      54D6CFC8 
 112      CF4DD54F 
 112      4D4BD577 
 112      CEC84CCA 
 113 0082 0FD6CF2F 		.ascii	"\017\326\317/\326\317H\314\321/.J\326O\255(\321Kf\000"
ARM GAS  /tmp/ccAqVU6n.s 			page 8


 113      D6CF48CC 
 113      D12F2E4A 
 113      D64FAD28 
 113      D14B6600 
 114 0096 004B8026 		.ascii	"\000K\200&\262"
 114      B2
 115              		.text
 116              		.section	.gnu.lto_extObjectInit.a2cfc071452c4200,"",%progbits
 117 0000 789C6362 		.ascii	"x\234cb`b@\007\"@|\021\210UA\034f\006F\240\012F&FF "
 117      60624007 
 117      22407C11 
 117      8855411C 
 117      660646A0 
 118 001a 8791A19E 		.ascii	"\207\221\241\236\211\261>\222\021\254l=\323\201\007"
 118      89B13E92 
 118      11AC6C3D 
 118      D38107
 119 0029 FFFFAF9B 		.ascii	"\377\377\257\233qlY\017\343L&\240\202\\\2608+CKC\303"
 119      716C590F 
 119      E34C26A0 
 119      825CB038 
 119      2B434B43 
 120 003e 04050686 		.ascii	"\004\005\006\206d07\004L\206\202\014a>\313\320\264\343"
 120      64303704 
 120      4C86820C 
 120      613ECBD0 
 120      B4E3
 121 0050 C6E3034C 		.ascii	"\306\343\003L\211\214\013\031Y\031\264\031V5\000\001"
 121      898C0B19 
 121      5919B419 
 121      56350001 
 122 0060 7F2623C3 		.ascii	"\177&#\303l\206Y\214\231\214\214\351\214\214\021@\032"
 122      6C86598C 
 122      998C8CE9 
 122      8C8C1140 
 122      1A
 123 0071 E2A22488 		.ascii	"\342\242$\210-\014 \021\006\020\033\244\373\007\026"
 123      2D0C2011 
 123      06101BA4 
 123      FB0716
 124 0080 DDCCD875 		.ascii	"\335\314\330u3\302u33\200=\324\370`\2062D/\014\204\200"
 124      33C27533 
 124      33803DD4 
 124      F8608632 
 124      442F0C84 
 125 0095 1481D42B 		.ascii	"\024\201\324+\353g\344\347\246\352\247\246\245\352;"
 125      EB67E4E7 
 125      A6EAA7A6 
 125      A5EA3B
 126 00a4 67642665 		.ascii	"gd&e\372\007\353\347\027\353g$\346\350\027\027%\353"
 126      FA07EBE7 
 126      17EB6724 
 126      E6E81717 
 126      25EB
 127 00b6 A75694E8 		.ascii	"\247V\224\350%3\000\000\377%8{"
 127      25330000 
 127      FF25387B 
ARM GAS  /tmp/ccAqVU6n.s 			page 9


 128              		.text
 129              		.section	.gnu.lto_extStart.a2cfc071452c4200,"",%progbits
 130 0000 789C8D4F 		.ascii	"x\234\215O\261J\003A\020\235\267\233\230\230F\255l%"
 130      B14A0341 
 130      109DB79B 
 130      989846AD 
 130      6C25
 131 0012 C14A703F 		.ascii	"\301Jp?\302\017\2600\001-\223\343L\016<\002\306B\260"
 131      C20FB030 
 131      012D93E3 
 131      4C0E3C02 
 131      C642B0
 132 0025 C86A5288 		.ascii	"\310jR\210U\260\022m\024\021\304B+!\205\230\200\205"
 132      55B0126D 
 132      1411C442 
 132      2B218598 
 132      8085
 133 0037 854AF00F 		.ascii	"\205J\360\017\016\264\216m\020\361\234\311\235\010\321"
 133      0EB48E6D 
 133      10F19CC9 
 133      9D08D1
 134 0046 C20737BB 		.ascii	"\302\0077\273{3o\336{\212\024\215\"\313\337=\210f\345"
 134      7B336FDE 
 134      7B8A148D 
 134      22CBDF3D 
 134      8866E5
 135 0059 9124F004 		.ascii	"\221$\360\004\0244W\215\004\327\004\270I\240\272\322"
 135      1434578D 
 135      04D704B8 
 135      49A0BAD2 
 136 0069 09D457E4 		.ascii	"\011\324W\344A:K'\326\356\007g\375\203\351\275\300\266"
 136      413A4B27 
 136      D6EE0767 
 136      FD83E9BD 
 136      C0B6
 137 007b EC6718C2 		.ascii	"\354g\030\302\223\226\003Z\346\033\322\303CaTKh\366"
 137      9396035A 
 137      E61BD2C3 
 137      4361544B 
 137      68F6
 138 008d F2DCEA63 		.ascii	"\362\334\352c\373\021\206\372\037\034\037t\245\272A"
 138      FB1186FA 
 138      1F1C1F74 
 138      A5BA41
 139 009c 183E5EBF 		.ascii	"\030>^\277\276t0\245\001\037<\345\213S6\334\264\266"
 139      BE7430A5 
 139      011F3CE5 
 139      8B5336DC 
 139      B4B6
 140 00ae 35E3C77B 		.ascii	"5\343\307{\030\371\270rW\027$\207\356Q#h\337\245\212"
 140      18F9B872 
 140      57172487 
 140      EE512368 
 140      DFA58A
 141 00c1 3845925B 		.ascii	"8E\222[[\364nw\355\244\007\355 \322\362$\250\240 \027"
 141      5BF46E77 
 141      EDA407ED 
ARM GAS  /tmp/ccAqVU6n.s 			page 10


 141      20D2F224 
 141      A8A02017 
 142 00d5 FD443B0F 		.ascii	"\375D;\017\203~WE\2049\272\260\214\011\017\311#:d\203"
 142      837E5745 
 142      8439BAB0 
 142      8C090FC9 
 142      233A6483 
 143 00e9 6365408C 		.ascii	"ce@\214\246\206\224Rl\267,\202=j\0067\215\314/\245\264"
 143      A6869452 
 143      6CB72C82 
 143      3D6A0637 
 143      8DCC2FA5 
 144 00fe 03154F31 		.ascii	"\003\025O1q\234\210%\332\355\267\001F%2\177KD\032\362"
 144      719C8825 
 144      DAEDB701 
 144      4625327F 
 144      4B441AF2 
 145 0112 27237B24 		.ascii	"'#{$\320\355\0372\034H\377\004z\246\355\240\223\373"
 145      D0ED1F32 
 145      1C48FF04 
 145      7AA6EDA0 
 145      93FB
 146 0124 1E8A9097 		.ascii	"\036\212\220\227U\262\"g*U\3375\356\252k\026*^\311["
 146      55B22267 
 146      2A55DF35 
 146      EEAA6B16 
 146      2A5EC95B 
 147 0138 5C32D59A 		.ascii	"\\2\325\232\251\024\327Lm\3351\356\346\306\274C_)+o"
 147      A914D74C 
 147      6DDD31EE 
 147      E6C6BC43 
 147      5F292B6F 
 148 014c 47       		.ascii	"G"
 149              		.text
 150              		.section	.gnu.lto_extStop.a2cfc071452c4200,"",%progbits
 151 0000 789C8D50 		.ascii	"x\234\215P\261J\003A\020\235\331\275\363\242\215Z\331"
 151      B14A0341 
 151      109DD9BD 
 151      F3A28D5A 
 151      D9
 152 0011 4A8295E0 		.ascii	"J\202\225\340~\204\037`a\002Z&\307\351-x\004\214\205"
 152      7E841F60 
 152      61025A26 
 152      C7E92D78 
 152      048C85
 153 0024 6891D504 		.ascii	"h\221\325\004\011b\021\254D\033E\004\261\320V\260\021"
 153      096211AC 
 153      441B4504 
 153      B1D056B0 
 153      11
 154 0035 AC45EC05 		.ascii	"\254E\354\005W\254\314\017\010\022\\g\356N\204h\341"
 154      57ACCC0F 
 154      08125C67 
 154      EE4E8468 
 154      E1
 155 0046 839D9DDD 		.ascii	"\203\235\235\335y\263\363\336\012\0200\210\"\255\035"
 155      79B3F3DE 
ARM GAS  /tmp/ccAqVU6n.s 			page 11


 155      0A103088 
 155      22AD1D
 156 0055 0498E283 		.ascii	"\004\230\342\203\017H\014\024()J\364(zHE@h\012\351a"
 156      0F480C14 
 156      28294AF4 
 156      287A4845 
 156      40680AE9 
 157 006a 73910F20 		.ascii	"s\221\017 \213pb\314\276={?\230\330\265\246k>\235C\315"
 157      8B7062CC 
 157      BE3D7B3F 
 157      98D8B5A6 
 157      6B3E9D43 
 158 007f A5106181 		.ascii	"\245\020a\2012,\244\233\300\301Y\334f.\317\215<6}\347"
 158      322CA49B 
 158      C0C159DC 
 158      662ECF8D 
 158      3C367DE7 
 159 0093 E43F7A12 		.ascii	"\344?z\022\204+qk\235\333\273\351\277\364p\\ &\251$"
 159      842B716B 
 159      9DDBBBE9 
 159      BFF4705C 
 159      2026A924 
 160 00a7 1FDAC674 		.ascii	"\037\332\306t'\223\374\011B9\217dAV\330\202|\200\226"
 160      2793FC09 
 160      42398F64 
 160      4156D882 
 160      7C8096
 161 00ba 7DBA0BAA 		.ascii	"}\272\013\252x\212>\2256\341\303t\314\230F\031b6F\263"
 161      788A3E95 
 161      36E1C374 
 161      CC984619 
 161      623646B3 
 162 00ce 47468513 		.ascii	"GF\205\023\342\267\355\363\353o\276\037b\366s\313H\022"
 162      E2B7EDF3 
 162      EB6FBE1F 
 162      62F673CB 
 162      4812
 163 00e0 8700EE61 		.ascii	"\207\000\356a\373\272\263\221\361\246\341\302\020F5"
 163      FBBAB391 
 163      F1A6E1C2 
 163      104635
 164 00ef 06477048 		.ascii	"\006GpH\365\002\261\330\312p\332R\313\015\361M\3009"
 164      F502B1D8 
 164      CA70DA52 
 164      CB0DF14D 
 164      C039
 165 0101 8B7A6B8D 		.ascii	"\213zk\215\374%J\376\210z\204-\333+}\2232\224Y5\013"
 165      FC254AFE 
 165      887A842D 
 165      DB2B7D93 
 165      32945935 
 166 0116 29A9B89E 		.ascii	")\251\270\236D*Z\212\324l\254kzn^\325\033*\256\256\250"
 166      442A5A8A 
 166      D46CAC6B 
 166      7A6E5ED5 
 166      1B2AAEAE 
 167 012b C66AA8A2 		.ascii	"\306j\250\242\365\265\231\020\276\000\311\263a."
ARM GAS  /tmp/ccAqVU6n.s 			page 12


 167      F5B59910 
 167      BE00C9B3 
 167      612E
 168              		.text
 169              		.section	.gnu.lto_extChannelEnable.a2cfc071452c4200,"",%progbits
 170 0000 789CB551 		.ascii	"x\234\265Q\261J\003A\020\235\267{g\324JllC$\255\373"
 170      B14A0341 
 170      109DB77B 
 170      67D44A6C 
 170      6C4324AD 
 171 0015 117E8085 		.ascii	"\021~\200\205\011h\031\2173Y\360\010\030\013\301\"#"
 171      0968198F 
 171      3359F008 
 171      180BC122 
 171      23
 172 0026 1A500B0D 		.ascii	"\032P\013\015V\261SA\260\013\330Yi\223Z\354-\026\374"
 172      56B15341 
 172      B00BD859 
 172      69935AEC 
 172      2D16FC
 173 0039 0911719D 		.ascii	"\011\021q\235\315%\010Q\260r`gw\231\367\336\354\274"
 173      CD250851 
 173      B0726067 
 173      7799F7DE 
 173      ECBC
 174 004b 55A46832 		.ascii	"U\244h2J\262\356AT\016\227\230 \010(h\311\032\221\344"
 174      4AB2EE41 
 174      540E9798 
 174      20082868 
 174      C91A91E4 
 175 005f 08522450 		.ascii	"\010R$P[\351\010\355u\014a%\272b>w\203\353\213\205\023"
 175      5BE908ED 
 175      750C6125 
 175      BA623E77 
 175      83EB8B85 
 176 0074 C75DFEF4 		.ascii	"\307]\376\364\0366\224\022\320\232\2340=\334\024&{\005"
 176      1E369412 
 176      D09A9C30 
 176      3DDC1426 
 176      7B05
 177 0086 1ADFDDF2 		.ascii	"\032\337\335\362\314%\177x\257mh4\346\024sN\364''\372"
 177      CC257F78 
 177      AF6D6834 
 177      E614734E 
 177      F42727FA 
 178 009a 0F4E06EA 		.ascii	"\017N\006\352\253G\347\375\313\303\333k\017\363\032"
 178      AB47E7FD 
 178      CBC3DB6B 
 178      0FF31A
 179 00a9 C8201364 		.ascii	"\310 \023d\301\0211\346\220\271[\314F3JTFY\252\272\032"
 179      C11131E6 
 179      90B95BCC 
 179      46334A54 
 179      4659AABA 
 180 00be C6D04F74 		.ascii	"\306\320Ot\340\216\007\205\032n\020Ki\217\336\371\210"
 180      E08E0785 
 180      1A6E104B 
ARM GAS  /tmp/ccAqVU6n.s 			page 13


 180      698FDEF9 
 180      88
 181 00cf E72CE204 		.ascii	"\347,\342\004\271\017\026Sy\257jx\216\340;\3564\375"
 181      B90F1653 
 181      79AF6A78 
 181      8EE03BEE 
 181      34FD
 182 00e1 012F24C8 		.ascii	"\001/$\310\177\251\016\324\241\254xIA\372\2543\373\233"
 182      7FA90ED4 
 182      A1AC7849 
 182      41FAAC33 
 182      FB9B
 183 00f3 B4FE967E 		.ascii	"\264\376\226~\246}\327+\217AyTB\357\240\267h\032\315"
 183      A67DD72B 
 183      8F417954 
 183      42EFA0B7 
 183      681ACD
 184 0106 2C35E966 		.ascii	",5\351fj\226\033v\303\256\254\232f\3134j[\246\265\235"
 184      6A961B76 
 184      C3AEAC9A 
 184      66CB346A 
 184      5BA6B59D 
 185 011a 98747767 		.ascii	"\230twg)\241/[&k\260"
 185      29A12F5B 
 185      266BB0
 186              		.text
 187              		.section	.gnu.lto_extChannelDisable.a2cfc071452c4200,"",%progbits
 188 0000 789CB551 		.ascii	"x\234\265Q\261J\003A\020\235\267{1j%6\266!\222\326\375"
 188      B14A0341 
 188      109DB77B 
 188      316A2536 
 188      B62192D6 
 189 0015 083FC0C2 		.ascii	"\010?\300\302\004\264\214\307\231[\360\010\030\013\301"
 189      04B48CC7 
 189      995BF008 
 189      180BC1
 190 0024 22237A20 		.ascii	"\"#z V\301\316N\013\301\312\200\235\020\203\215\265"
 190      56C1CE4E 
 190      0BC1CA80 
 190      9D10838D 
 190      B5
 191 0035 58D82FF8 		.ascii	"X\330/\370\027\022\\gs\011B\024\254\034\330\331]\346"
 191      17125C67 
 191      73094214 
 191      AC1CD8D9 
 191      5DE6
 192 0047 BD373B6F 		.ascii	"\2757;o\025)\232\215\252\254\007\020\325\302\245D\020"
 192      15299A8D 
 192      AAAC0710 
 192      D5C2A544 
 192      10
 193 0058 0414B464 		.ascii	"\004\024\264d\215Hr\004)\022\250\253t\204\3566\306\260"
 193      8D487204 
 193      2912A8AB 
 193      7484EE36 
 193      C6B0
 194 006a 2A5D335F 		.ascii	"*]3_\270\374\356r\345\334q\217?\275\207\015\245\030"
ARM GAS  /tmp/ccAqVU6n.s 			page 14


 194      B8FCEE72 
 194      E5DC718F 
 194      3FBD870D 
 194      A518
 195 007c B42527CC 		.ascii	"\264%'\314\2177\205\331^\201\306\367\267\274p\305#\357"
 195      8F3785D9 
 195      5E81C6F7 
 195      B7BC70C5 
 195      23EF
 196 008e B50D8DA6 		.ascii	"\265\015\215\246\234J\301\211\376\344D\377\301\311@"
 196      9C4AC189 
 196      FEE444FF 
 196      C1C940
 197 009d 7DF5E4BC 		.ascii	"}\365\344\274\037\274\215\336\207X\326@\006\231 \013"
 197      1FBC8DDE 
 197      8758D640 
 197      0699200B 
 198 00ad 8E8831A7 		.ascii	"\216\2101\247\314\275J6\231Q\242>\311R\325\2150\206"
 198      CCBD4A36 
 198      9951A23E 
 198      C952D58D 
 198      3086
 199 00bf 7EA113D7 		.ascii	"~\241\023\327\177.7q\203\222\224\216\350\203\317x\311"
 199      7F2E3771 
 199      8392948E 
 199      E883CF78 
 199      C9
 200 00d0 A214A3F0 		.ascii	"\242\024\243\360\301b\256\350\325\010\317\021|\356\006"
 200      C162AEE8 
 200      D508CF11 
 200      7CEE06
 201 00df C90F7839 		.ascii	"\311\017x9F\361K-\240\005e\305K\012\322\217\371\342"
 201      46F14B2D 
 201      A00565C5 
 201      4B0AD28F 
 201      F9E2
 202 00f1 6FD2FA5B 		.ascii	"o\322\372[\372\225\216\335\2606\005\025Q\017\275\203"
 202      FA958EDD 
 202      B0360515 
 202      510FBD83 
 203 0101 DEAA49DB 		.ascii	"\336\252I\333Yb\222\335\304\254\247v\307nl\232v\307"
 203      596292DD 
 203      C4ACA776 
 203      C76E6C9A 
 203      76C7
 204 0113 A4CD3DD3 		.ascii	"\244\315=\323\331\217Mrx\260\026\323\027l\024lD"
 204      D98F4D72 
 204      78B016D3 
 204      176C146C 
 204      44
 205              		.text
 206              		.section	.gnu.lto_extSetChannelModeI.a2cfc071452c4200,"",%progbits
 207 0000 789C8592 		.ascii	"x\234\205\222;K\003A\020\307g\356\221\304'\202\205D"
 207      3B4B0341 
 207      10C767EE 
 207      91C42782 
 207      8544
ARM GAS  /tmp/ccAqVU6n.s 			page 15


 208 0012 9B908082 		.ascii	"\233\220\200\202A\257\266\366\003X\030!\226\311y\271"
 208      41AFB6F6 
 208      03581821 
 208      96C979B9 
 209 0022 1CE48818 		.ascii	"\034\344\210\030\013\301\"\233h@\"\206`!\370(\024QA"
 209      0BC1229B 
 209      68402286 
 209      6021F828 
 209      145141
 210 0035 040B2B45 		.ascii	"\004\013+E4\215\225\210X*\004N\374\022\222\302s6{IP"
 210      348D9588 
 210      582A044E 
 210      FC1292C2 
 210      73367B49 
 211 004a 04076E6F 		.ascii	"\004\007novv~\377\231\035V\002\011~\333\010}\021\012"
 211      76767EFF 
 211      991D5602 
 211      097EDB08 
 211      7D110A
 212 005d 47F94601 		.ascii	"G\371F\001$\027%\224i\225\021)\204\220\227d\314\317"
 212      24172594 
 212      69951129 
 212      84909764 
 212      CCCF
 213 006f 63F33C0C 		.ascii	"c\363<\014G\214m;\017w\273Ce\207U\331\227\353\242\305"
 213      478C6D3B 
 213      0F77BB43 
 213      658755D9 
 213      97EBA2C5 
 214 0083 8F748438 		.ascii	"\217t\2048y\030h\376$\374YD`5w\3634X>,\2660\271\203"
 214      791868FE 
 214      24FC5944 
 214      603577F3 
 214      34583E2C 
 215 009b 8504A6FC 		.ascii	"\205\004\246\374\211\275>\356\004Y\007S$\030\305\177"
 215      89BD3EEE 
 215      04590753 
 215      2418C57F 
 216 00ab 481BE152 		.ascii	"H\033\341R\2529\256{[w>*8\350C\264\221\356FEe\362(="
 216      AA39AE7B 
 216      5B773E2A 
 216      38E843B4 
 216      91EE4645 
 217 00c3 81C71806 		.ascii	"\201\307\030\006\2256\324\006\250\260\316X5$\202\266"
 217      9536D406 
 217      A8B0CE58 
 217      352482B6 
 218 00d3 7721B298 		.ascii	"w!\262\230\267\322T\3449\236)?A\361\355\363\376]I\340"
 218      B7D254E4 
 218      399E293F 
 218      41F1EDF3 
 218      FE5D49E0 
 219 00e7 09AA60A2 		.ascii	"\011\252`\242\024\205qR\335\207=jC5\021y;\276f\023\311"
 219      14857152 
 219      DD873D6A 
 219      43351179 
 219      3BBE6613 
ARM GAS  /tmp/ccAqVU6n.s 			page 16


 220 00fc F614086A 		.ascii	"\366\024\010j\254\245Z\210\262\012\015\232\035\313["
 220      ACA55A88 
 220      B20A0D9A 
 220      1DCB5B
 221 010b E89F800B 		.ascii	"\350\237\200\013\356\326\011\012D\341\234\373\327\344"
 221      EED6090A 
 221      44E19CFB 
 221      D7E4
 222 0119 7709BD6E 		.ascii	"w\011\275n\322\217\213I5\365\204\240\351\355;\3427\245"
 222      D28F8B49 
 222      35F584A0 
 222      E9ED3BE2 
 222      37A5
 223 012b AB836121 		.ascii	"\253\203a!O`\2011\346\267\260\207*qX\214\306\213OQ\035"
 223      4F608131 
 223      E6B7B087 
 223      2A71588C 
 223      C68B4F51 
 224 0140 13551EF7 		.ascii	"\023U\036\367{\3743\224\234\255\263~\201\003\360\346"
 224      7BFC3394 
 224      9CADB37E 
 224      8103F0E6 
 225 0150 36D88085 		.ascii	"6\330\200\205\275z\273\036RI\013\373\000^\240\340T\306"
 225      BD7ABB1E 
 225      52490BFB 
 225      005EA0E0 
 225      54C6
 226 0162 5AA9C262 		.ascii	"Z\251\302b<\215?\254\210\226\316\332\206f\244\014m:"
 226      3C8D3FAC 
 226      8896CEDA 
 226      8666A40C 
 226      6D3A
 227 0174 6D25AD99 		.ascii	"m%\255\231Y-\233\323\322\211\214\226[\3225ceyR\0075"
 227      592D9BD3 
 227      D2898C96 
 227      5BD23563 
 227      65795207 
 228 0189 9B59D017 		.ascii	"\233Y\320\027\277\001-\273\206]"
 228      BF012DBB 
 228      865D
 229              		.text
 230              		.section	.gnu.lto_.symbol_nodes.a2cfc071452c4200,"",%progbits
 231 0000 789C4DC8 		.ascii	"x\234M\310MN\002A\030\204\341\252\356i\230\037~\206"
 231      4D4E0241 
 231      1884E1AA 
 231      EE69981F 
 231      7E86
 232 0012 4BE8B93C 		.ascii	"K\350\271<I\021\330\260t\003\212BB\300\223h\242;\227"
 232      4911D8B0 
 232      74038A42 
 232      42C09368 
 232      A23B97
 233 0025 AE418F01 		.ascii	"\256A\217\001!2t\207\371j\363\346)\007\207%\021\347"
 233      21327487 
 233      F96AF3E6 
 233      29078725 
 233      11E7
ARM GAS  /tmp/ccAqVU6n.s 			page 17


 234 0037 EE043C7E 		.ascii	"\356\004<~\003\322|\366\340\356E\243O\310\031~A\336"
 234      03D27CF6 
 234      E0EE45A3 
 234      4FC8197E 
 234      41DE
 235 0049 F0086586 		.ascii	"\360\010e\206'(\030\316\251N\342\317\214nAu\015\237"
 235      272818CE 
 235      A94EE2CF 
 235      8C6E4175 
 235      0D9F
 236 005b A8DCF099 		.ascii	"\250\334\360\231*\014\227Ti\370BU\206\257T\257%WT?r"
 236      2A0C9754 
 236      69F84255 
 236      86AF54AF 
 236      2557543F 
 237 0070 3C26D7D4 		.ascii	"<&\327\324\240\325\206\032\266\332Ru\2537jt\223w\300"
 237      A0D5861A 
 237      B6DA5275 
 237      AB376A74 
 237      9377C0
 238 0083 647FA6F7 		.ascii	"d\177\246\367\214\315\\l\360\261\235>\246M\363,:\037"
 238      8CCD5C6C 
 238      F0B19D3E 
 238      A64DF32C 
 238      3A1F
 239 0095 E0E3DA80 		.ascii	"\340\343\332\200\311\341\322\"\375\305\020\273k\003"
 239      C9E1D222 
 239      FDC510BB 
 239      6B03
 240 00a3 7E9B96E9 		.ascii	"~\233\226\351/\353\370\227\001\357M\253\364W\243\370"
 240      2FEBF897 
 240      01EF4DAB 
 240      F457A3F8 
 241 00b3 57E9EFD5 		.ascii	"W\351\357\325\370\273\024\377\363?\202\376"
 241      F8BB14FF 
 241      F33F82FE 
 242              		.text
 243              		.section	.gnu.lto_.refs.a2cfc071452c4200,"",%progbits
 244 0000 789C6362 		.ascii	"x\234cb`b`d\200\002\000\000F\000\006"
 244      60626064 
 244      80020000 
 244      460006
 245              		.text
 246              		.section	.gnu.lto_.decls.a2cfc071452c4200,"",%progbits
 247 0000 789CBD5A 		.ascii	"x\234\275Z{p\024E\032\357\236Mv\263Ix\210/\274\362\316"
 247      7B701445 
 247      1AEF9E4D 
 247      76B34978 
 247      882FBCF2 
 248 0015 E8A9E7A3 		.ascii	"\350\251\347\2434 \340\301\325\235b\305\027u\200W\007"
 248      3420E0C1 
 248      D59D62C5 
 248      17758057 
 248      07
 249 0026 5C59F7CF 		.ascii	"\\Y\367\317\336\260\031\310\352&Yw7\004\352\376p \200"
 249      DEB019C8 
 249      EA265977 
ARM GAS  /tmp/ccAqVU6n.s 			page 18


 249      3704EAFE 
 249      702080
 250 0039 081E8637 		.ascii	"\010\036\2067*\217\004\004D\"o8\302+\203%I V@\302C\236"
 250      2A8F0404 
 250      44226F38 
 250      C22B8325 
 250      49205640 
 251 0050 2E2A285A 		.ascii	".*(Z(\250\034\341@r_\367\364\354\314\364\316\354\316"
 251      28A81CE1 
 251      40725FF7 
 251      F4ECCCF4 
 251      CEECCE
 252 0063 04EBA6AA 		.ascii	"\004\353\246\252gzf\372\373}\357o\272gF@\002\272%\013"
 252      677A66FA 
 252      FB7DEF6F 
 252      BA674640 
 252      02BA250B 
 253 0077 A10ED87C 		.ascii	"\241\016\330|}\020\252\365\"\324\025!\364\004\322\267"
 253      7D10AAF5 
 253      22D41521 
 253      F404D2B7 
 254 0087 1ED06AA1 		.ascii	"\036\320j\241-\207\266\022Z\035\2645\320\326C\333\004"
 254      2D87B612 
 254      5A1DB435 
 254      D0D643DB 
 254      04
 255 0098 6D0BB476 		.ascii	"m\013\264v2\020#\224\005-\027Z7hwB\373\015\264\002h"
 255      32102394 
 255      052D175A 
 255      37687742 
 255      FB0DB402 
 256 00ad F740BB17 		.ascii	"\367@\273\027\243\224\255V%C\367\263{\002\273\366\260"
 256      A394AD56 
 256      2543F7B3 
 256      7B02BBF6 
 256      B0
 257 00be C5D8E516 		.ascii	"\305\330\345\026c\311\265^\026cW\262\373}\341\336\022"
 257      63C9B55E 
 257      166357B2 
 257      FB7DE1DE 
 257      12
 258 00cf A48F5FC9 		.ascii	"\244\217_\311\360\371\215\350\004\252\243~X\325?\037"
 258      F0F98DE8 
 258      04AAA37E 
 258      58D53F1F 
 259 00df 9ACF82BE 		.ascii	"\232\317\202\276\316 G3\307w\215\015\3175\214/\277\255"
 259      CE204733 
 259      C7778D0D 
 259      CF358C2F 
 259      BFAD
 260 00f1 B719BF9E 		.ascii	"\267\031\277\236\361\341\267M6\343\311\365;-l@\374\002"
 260      F1E1B74D 
 260      36E3C9F5 
 260      3B2D6C40 
 260      FC02
 261 0103 AE451F42 		.ascii	"\256E\037B\333\016m\033\264}\214f\027\264V\246\307\026"
 261      DB0E6D1B 
ARM GAS  /tmp/ccAqVU6n.s 			page 19


 261      B47D8C66 
 261      17B456A6 
 261      C716
 262 0115 76BCC4D1 		.ascii	"v\274\304\321\023\237\346A\333\215t\233h\274\367\031"
 262      139FE641 
 262      DB8D749B 
 262      68BCF719 
 263 0125 305BE15A 		.ascii	"0[\341Z=\343#0\334]\214w;\323\237\304\001\321\313Ch"
 263      3DE32330 
 263      DC5D8C77 
 263      3BD39FC4 
 263      01D1CB43 
 264 013a A1FF331C 		.ascii	"\241\3773\034\257\363\002\223\330\261\341g\344\241\361"
 264      AFF30293 
 264      D8B1E167 
 264      E4A1F1
 265 0149 C5063EE4 		.ascii	"\305\006>\344\204\360)\300\272]\017B_\340\354B\342\323"
 265      84F029C0 
 265      BA5D0F42 
 265      5FE0EC42 
 265      E2D3
 266 015b CFF120BA 		.ascii	"\317\361 \272\030}\375\035\264\263\332xFC\260\3571\350"
 266      187DFD1D 
 266      B4B3DA78 
 266      4643B0EF 
 266      31E8
 267 016d 7014FA5E 		.ascii	"p\024\372^h>\016?\267\023\370\271\014\377^\003\376)"
 267      683E0E3F 
 267      B713F8B9 
 267      0CFF5E03 
 267      FE29
 268 017f E8E743EB 		.ascii	"\350\347C\353\302\341wc\361\311\343\177\201u\273\334"
 268      C2E17763 
 268      F1C9E37F 
 268      8175BBDC 
 269 018f 02FD5BA1 		.ascii	"\002\375[\241}\011m?\234\0371\360\324\374s\210\365\273"
 269      7D096D3F 
 269      9C1F31F0 
 269      D4FC7388 
 269      F5BB
 270 01a1 B1DC2472 		.ascii	"\261\334$r\234\201\343\355\320zB\273\203\343{\027Z$"
 270      9C81E3ED 
 270      D07A42BB 
 270      83E37B17 
 270      5A24
 271 01b3 2BFB13BB 		.ascii	"+\373\023\273\317~.\274%+\023e(\0272.\270\015\315\221"
 271      CF7E2EBC 
 271      252B1365 
 271      2817322E 
 271      B80DCD91 
 272 01c7 61AB992C 		.ascii	"a\253\231,\3138.\342'nE/b\021w\365\243\002\332\311\367"
 272      CB382EE2 
 272      276E452F 
 272      621177F5 
 272      A302DAC9 
 273 01dc ABBE4122 		.ascii	"\253\276A\"^\202oc\275\021\036\025Q \271\366\020Z\011"
 273      5E826F63 
ARM GAS  /tmp/ccAqVU6n.s 			page 20


 273      BD111E15 
 273      5120B9F6 
 273      105A09
 274 01ef F4D5B2FC 		.ascii	"\364\325\262\374\371]\310j\273\037-#\014\344\367d\017"
 274      F95DC86A 
 274      BB1F2D23 
 274      0CE4F764 
 274      0F
 275 0200 852700B5 		.ascii	"\205'\000\265\3304V\304K\261\220*\252r\370p~\365\370"
 275      D83456C4 
 275      4BB1902A 
 275      AA72F870 
 275      7EF5F8
 276 0213 4447C7E2 		.ascii	"DG\307\342\232\356*{\001=\213a\364\273\370\241\264\360"
 276      9AEE2A7B 
 276      013D8B61 
 276      F4BBF8A1 
 276      B4F0
 277 0225 CB79F815 		.ascii	"\313y\370\025V\360\211\203\223Of\033,\241\261\370\247"
 277      56F08983 
 277      934F661B 
 277      2CA1B1F8 
 277      A7
 278 0236 13162B79 		.ascii	"\023\026+y\026\357[j\260\340H\212\006\223\260\023\374"
 278      16EF5B6A 
 278      B0E0488A 
 278      0693B013 
 278      FC
 279 0247 3A1EFF03 		.ascii	":\036\377\003K\025\016\354=\357\263Pa\253#\036kx\036"
 279      4B150EEC 
 279      3DEFB350 
 279      61AB231E 
 279      6B781E
 280 025a 6B2D7538 		.ascii	"k-u8\361Y\212\016\215\216\360\327\363\370\033R\361k"
 280      F1598A0E 
 280      8D8EF0D7 
 280      F3F81B52 
 280      F16B
 281 026c 94C4D1E9 		.ascii	"\224\304\321\351\333\275\272\016H\343\321\356\210\307"
 281      DBBDBA0E 
 281      48E3D1EE 
 281      88C7
 282 027a 269EC766 		.ascii	"&\236\307f+\036\312\374F\246\203\213x\257g\361\356\241"
 282      2B1ECAFC 
 282      46A6838B 
 282      78AF67F1 
 282      EEA1
 283 028c 59066574 		.ascii	"Y\006et\252,O \204\3177w\355\201f\020\224\202fH`F?P"
 283      AA2C4F20 
 283      84CF3777 
 283      ED816610 
 283      94826648 
 284 02a4 A3CF81C1 		.ascii	"\243\317\201\301\367\241w!'\0223f~\\\213\253\200\223"
 284      F7A17721 
 284      27123366 
 284      7E5C8BAB 
 284      8093
ARM GAS  /tmp/ccAqVU6n.s 			page 21


 285 02b6 88B7E31E 		.ascii	"\210\267\343\036\200\363\236`V\212\341\324\014\264\003"
 285      80F39E60 
 285      568AE1D4 
 285      0CB403
 286 02c5 12F14E50 		.ascii	"\022\361NPH\304\015@\256\022Rh9q\250\355\322x<\236B"
 286      48C40D40 
 286      AE125268 
 286      3971A8ED 
 286      D2783C9E 
 287 02da 937B88B3 		.ascii	"\223{\210\263\225a\273\033\325\200\340\312gM\213n\227"
 287      9561BB1B 
 287      D580E0CA 
 287      674D8B6E 
 287      97
 288 02eb 130AF6A1 		.ascii	"\023\012\366\241\311D\217\304\244\011=\347\353Ls4\246"
 288      C9448FC4 
 288      A4093DE7 
 288      EB4C7334 
 288      A6
 289 02fc D820FD81 		.ascii	"\330 \375\201\335\275e9G\304\037\002\221\200\316s\262"
 289      DDBD6539 
 289      47C41F02 
 289      9180CE73 
 289      B2
 290 030d 3B002252 		.ascii	";\000\"R\355\006b\243\344J\307\270\002\365j\032\231"
 290      ED0662A3 
 290      E44AC7B8 
 290      02F56A1A 
 290      99
 291 031e A9CD2106 		.ascii	"\251\315!\006\200%\201\313\362\353\327\252<\311k\330"
 291      802581CB 
 291      F2EBD7AA 
 291      3CC96BD8 
 292 032e 30F40DFD 		.ascii	"0\364\015\375\262\026\000\344\024\373\365N\207\271 "
 292      B21600E4 
 292      14FBF54E 
 292      87B920
 293 033d 1A451371 		.ascii	"\032E\023q#\276\017\366M\330cI&\240y\036\314\334`\245"
 293      23BE0FF6 
 293      4DD86349 
 293      26A0791E 
 293      CCDC60A5 
 294 0351 28EBEA7C 		.ascii	"(\353\352|\273j'\314\374\340\257\237O\343YUrs/\253@"
 294      BB6A27CC 
 294      FCE0AF9F 
 294      4FE35955 
 294      72732FAB 
 295 0366 8221D810 		.ascii	"\202!\330\020\002r\256\206X\243\373C\331\321\204\013"
 295      0272AE86 
 295      58A3FB43 
 295      D9D1840B 
 296 0376 2C028F1B 		.ascii	",\002\217\033,\342O@\225\314\343\310\3106.\252\224u"
 296      2CE24F40 
 296      95CCE3C8 
 296      C8362EAA 
 296      9475
 297 0388 4DF97296 		.ascii	"M\371r\226z=SD\311J}\323\002,\327|\210oB\325\214W\306"
ARM GAS  /tmp/ccAqVU6n.s 			page 22


 297      7A3D5344 
 297      C94A7DD3 
 297      022CD77C 
 297      886F42D5 
 298 039f 70669ACC 		.ascii	"pf\232\314i\"\265\352\010M\211\205\036\227)A\004;\306"
 298      6922B5EA 
 298      084D8985 
 298      1E972941 
 298      043BC6
 299 03b2 0B7EB291 		.ascii	"\013~\262\221\012~\314Q*\\j\\p\007\021\334\217\246\350"
 299      0A7ECC51 
 299      2A5C6A5C 
 299      700711DC 
 299      8FA6E8
 300 03c5 9E409685 		.ascii	"\236@\226\205\200\245\302\216wv\357\302\023h\266\235"
 300      80A5C28E 
 300      7776EFC2 
 300      1368B69D 
 301 03d5 C424C23E 		.ascii	"\304$\302>\346\244v\016u\374\324G3XMHP\250\252,3\224"
 301      E6A4760E 
 301      75FCD447 
 301      33584D48 
 301      50A8AA2C 
 302 03eb 887D7EA3 		.ascii	"\210}~\243\320\364\\\033@\360|~\275C&\375\335\220\333"
 302      D0F45C1B 
 302      40F07C7E 
 302      BD4326FD 
 302      DD90DB
 303 03fe E1029A4E 		.ascii	"\341\002\232N\231\036\323\303\331$j\346p>\330\366%&"
 303      991ED3C3 
 303      D9246AE6 
 303      703ED8F6 
 303      2526
 304 0410 45DB638A 		.ascii	"E\333c\212f\347\305\365\254\271\270\212x\033\316\323"
 304      66E7C5F5 
 304      ACB9B88A 
 304      781BCED3 
 305 0420 4E1CDB52 		.ascii	"N\034\333R\3310\371V\342\365s\324\216\263R\354x\022"
 305      D930F956 
 305      E2F573D4 
 305      8EB352EC 
 305      7812
 306 0432 77C690FA 		.ascii	"w\306\220\372\374\006\245e\3366\371\026\302\374\014"
 306      FC06A565 
 306      DE36F916 
 306      C2FC0C
 307 0441 082EA01A 		.ascii	"\010.\240\032\216\271\311,\252\272v\246\370\016\000"
 307      8EB9C92C 
 307      AABA76A6 
 307      F80E00
 308 0450 AC2336E5 		.ascii	"\254#6\345\236\200V\273\366[A\012\254\001_\317#\021"
 308      9E8056BB 
 308      F65B410A 
 308      AC015FCF 
 308      2311
 309 0462 1FA715F0 		.ascii	"\037\247\025\360\004\276\033\366_\302\236\267\201E\375"
 309      04BE1BF6 
ARM GAS  /tmp/ccAqVU6n.s 			page 23


 309      5FC29EB7 
 309      8145FD
 310 0471 380CB99F 		.ascii	"8\014\271\237\364\230\234\324\026\206\330){\201\271"
 310      F4989CD4 
 310      1686D829 
 310      7B81B9
 311 0480 242929EB 		.ascii	"$))\353\334\2144\015\327Q\015\333t\0159\276ib\323\240"
 311      DC8C340D 
 311      D7510DDB 
 311      740D39BE 
 311      6962D3A0 
 312 0494 98AAD241 		.ascii	"\230\252\322A\252\322!\243209J\211\023\265\334\031\250"
 312      AAD221A3 
 312      3230394A 
 312      8913B5DC 
 312      19A8
 313 04a6 F5BA8878 		.ascii	"\365\272\210xz;\305\366\341<\235\305GY\334\303\342\306"
 313      7A3BC5F6 
 313      E13C9DC5 
 313      4759DCC3 
 313      E2C6
 314 04b8 BCD460F0 		.ascii	"\274\324`\360\222BU\332E\275\324\352D\260m\272`\246"
 314      924255DA 
 314      45BDD4EA 
 314      44B06DBA 
 314      60A6
 315 04ca C816500B 		.ascii	"\310\026P\013g\210{\321RY\236\011\363\261\306\213\344"
 315      67887BD1 
 315      52599E09 
 315      F3B1C68B 
 315      E4
 316 04db 49F5BC4A 		.ascii	"I\365\274J+\240\243t\334\026\230iY\361Hr`\323\263\177"
 316      2BA0A374 
 316      DC169869 
 316      59F14872 
 316      60D3B37F 
 317 04ef C993BAE3 		.ascii	"\311\223\272\343\344\374l\013??\373\311r~\366i'\346"
 317      E4FC6C0B 
 317      3F3FFBC9 
 317      727EF669 
 317      27E6
 318 0501 6757D294 		.ascii	"gW\322\224\220\244?8\225OY\252,_*f\312\212\370?t\272"
 318      90A43F38 
 318      954F59AA 
 318      2C5F2A66 
 318      CA8AF83F 
 319 0517 D59E5E59 		.ascii	"\325\236^YF\326&=\2572\022\361\217\031\310\366\245\261"
 319      46D6263D 
 319      AF3212F1 
 319      8F19C8F6 
 319      A5B1
 320 0529 513B6FA3 		.ascii	"Q;o\243k\2266Z\333\244\331H\235\233\012\350+km~\344"
 320      6B96365A 
 320      DBA4D948 
 320      9D9B0AE8 
 320      2B6B6D7E 
 321 053e B59185CE 		.ascii	"\265\221\205\316\270\216P\231\304\032/X\211\365_\203"
ARM GAS  /tmp/ccAqVU6n.s 			page 24


 321      B88E5099 
 321      C41A2F58 
 321      89F55F83 
 322 054e 5867A958 		.ascii	"Xg\251X\337[\2135G\342\304\232\230^,Fv\234\220\251\025"
 322      DF5B8B35 
 322      47E2C49A 
 322      985E2C46 
 322      769C90A9 
 323 0563 5ECEC669 		.ascii	"^\316\306i\311\316\251\305\305R\233\211\2746\223,\265"
 323      C9CEA9C5 
 323      C5529B89 
 323      BC36932C 
 323      B5
 324 0574 39BC97D7 		.ascii	"9\274\227\327fJ\266\2456\363xm\246:\322\346\244\246"
 324      664AB6A5 
 324      36F3786D 
 324      A63AD2E6 
 324      A4A6
 325 0586 8D88A708 		.ascii	"\215\210\247\010\351\311\322i3\225\327f\232\2456\007"
 325      E9C9D269 
 325      3395D766 
 325      9AA53607 
 326 0596 5ADCA755 		.ascii	"Z\334\247U\265\220.\255\230Pi\326D5\212i*\313\255f>"
 326      B5902EAD 
 326      985069D6 
 326      44358A69 
 326      2ACBAD66 
 327 05ab A5E5EB98 		.ascii	"\245\345\353\230\251\276\332?rR\204\233-\344\351\203"
 327      A9BEDA3F 
 327      7252849B 
 327      2DE4E983 
 328 05bb F8E47EDB 		.ascii	"\370\344~\333\332So\361\236z\323\211\247\224C\323V\300"
 328      DA536FF1 
 328      9E7AD389 
 328      A79443D3 
 328      56C0
 329 05cd 2451307B 		.ascii	"$Q0{\313\236\224\032\206\221\036i\331\250\222\022q\005"
 329      CB9E941A 
 329      86911E69 
 329      D9A89212 
 329      7105
 330 05df F40195CB 		.ascii	"\364\001\225\313\236\224)\245:Zi\233VU\203eo\322\325"
 330      9E9429A5 
 330      3A5A699B 
 330      56558365 
 330      6FD2D5
 331 05f2 6FF2AE9E 		.ascii	"o\362\256\236\233\352\352Du\342\320\254}\023\360\214"
 331      9BEAEA44 
 331      75E2D0AC 
 331      7D13F08C 
 332 0602 AA9A66F9 		.ascii	"\252\232f\371\002\231\310h\253\350\015\331\374*Z\005"
 332      0299C868 
 332      ABE80DD9 
 332      FC2A5A05 
 333 0612 596805A2 		.ascii	"Yh\005\242\354\334\373\206\214i\304\334\245\325\030"
 333      ECDCFB86 
 333      8C69C4DC 
ARM GAS  /tmp/ccAqVU6n.s 			page 25


 333      A5D518
 334 0621 C50660B1 		.ascii	"\305\006`\261%\300\376T\200V\033\200ZK\200\003F\000"
 334      25C0FE54 
 334      80561B80 
 334      5A4B8003 
 334      4600
 335 0633 35018FDB 		.ascii	"5\001\217\333\000,\265\0048\230\012\360\203\015\300"
 335      002CB504 
 335      38980AF0 
 335      830DC0
 336 0642 323380B6 		.ascii	"23\200\266\214\231\337\225M@\023\313\344\236=\323\254"
 336      8C99DF95 
 336      4D4013CB 
 336      E49E3DD3 
 336      AC
 337 0653 90C94B2F 		.ascii	"\220\311K/p\362\012\201\324\246\251^\213\327\267*\037"
 337      70F20A81 
 337      D4A6A95E 
 337      8BD7B72A 
 337      1F
 338 0664 32806C84 		.ascii	"2\200l\204^\355k=\262\264d\360\3755x\037\243Z.\270\235"
 338      5EED6B3D 
 338      B2B464F0 
 338      FD35781F 
 338      A35A2EB8 
 339 0679 5BBD2F58 		.ascii	"[\275/X\317\255\274\006\013)\373\023\015?\\\370\373"
 339      CFADBC06 
 339      0B29FB13 
 339      0D3F5CF8 
 339      FB
 340 068a 95F5B2FC 		.ascii	"\225\365\262\374\272|\275\343\325\361\023\357\326Be"
 340      BA7CBDE3 
 340      D5F113EF 
 340      D64265
 341 0699 B7D76826 		.ascii	"\267\327h&\266\254n\323\325\262z\375\262\212\017\316"
 341      B6AC6ED3 
 341      D5B27AFD 
 341      B28A0FCE 
 342 06a9 BA54A728 		.ascii	"\272T\247(\373\225\315\332\213<\245:Kcw:\225\235\210"
 342      FB95CDDA 
 342      8B3CA53A 
 342      4B63773A 
 342      959D88
 343 06bc 57EBE456 		.ascii	"W\353\344V\354\326\362\354\326\231\331q\263\356%if\335"
 343      ECD6F2EC 
 343      D699D971 
 343      B3EE2569 
 343      66DD
 344 06ce 1BF54A92 		.ascii	"\033\365J\222\351\315\216\354\321\210{!}Ex\271}\005"
 344      E9CD8EEC 
 344      D1887B21 
 344      7D4578B9 
 344      7D05
 345 06e0 5BC66D16 		.ascii	"[\306m\026\310:v\201\317r\035k\017$\240e\224\244^\340"
 345      C83A7681 
 345      CF721D6B 
 345      0F24A065 
ARM GAS  /tmp/ccAqVU6n.s 			page 26


 345      94A45EE0 
 346 06f4 5EED345C 		.ascii	"^\3554\\\335\337\177\276,wWoe^\316\316\233\276\220."
 346      DDDF7FBE 
 346      2C77576F 
 346      655ECECE 
 346      9BBE902E 
 347 0708 6745BC89 		.ascii	"gE\274\211\326\233\243I\330N\255\355\224\267[\363\253"
 347      D69BA349 
 347      D84EADED 
 347      94B75BF3 
 347      AB
 348 0719 450D2CE1 		.ascii	"E\015,\341\032\254\300\004\266\270\325\355Z{q\207\322"
 348      1AACC004 
 348      B6B8D5ED 
 348      5A7B7187 
 348      D2
 349 072a 7307557F 		.ascii	"s\007U\177\027\315\254e9\277\300\272\016\252p\216\003"
 349      17CDAC65 
 349      39BFC0BA 
 349      0EAA708E 
 349      03
 350 073b 4572ECAC 		.ascii	"Er\354\254B\274\242\014\250'i\343\325\036t^;E\004\264"
 350      42BCA20C 
 350      A82769E3 
 350      D51E745E 
 350      3B4504B4 
 351 074f 91326BE4 		.ascii	"\2212k\344={e\351\236\007U\3176:\362\354\246\275\363"
 351      3D7B65E9 
 351      9E0755CF 
 351      363AF2EC 
 351      A6BDF3
 352 0762 A8F13245 		.ascii	"\250\3612Eh\215\240\261\277\227\262\377\226\262o\341"
 352      688DA0B1 
 352      BF97B2FF 
 352      96B26FE1 
 353 0772 D94FDAB0 		.ascii	"\331O\332\260\013\323\027z-\216\270\277\3232;\225\273"
 353      0BD3177A 
 353      2D8EB8BF 
 353      D3323B95 
 353      BB
 354 0783 EDDC8179 		.ascii	"\355\334\201y\357\312\322sw.\246*\356\243\361s9\305"
 354      EFCAD273 
 354      772EA62A 
 354      EEA3F173 
 354      39C5
 355 0795 7B4F1A1F 		.ascii	"{O\032\037\341\352\271i\211+\3735\341;\367jb\367\206"
 355      E1EAB969 
 355      892BFB35 
 355      E13BF76A 
 355      62F786
 356 07a8 3DF40387 		.ascii	"=\364\003\207G\023\241\3125\2409\204\027\265\320|P\301"
 356      4713A1CA 
 356      35A03984 
 356      17B5D07C 
 356      50C1
 357 07ba 263B01B3 		.ascii	"&;\001\263\015\243\011\312Z#\330T\327`f\311\326\033"
 357      0DA309CA 
ARM GAS  /tmp/ccAqVU6n.s 			page 27


 357      5A23D854 
 357      D76066C9 
 357      D61B
 358 07cc C1A63B01 		.ascii	"\301\246;\001"
 359 07d0 EB6E2FD9 		.ascii	"\353n/\331F#\330\014\327`f\3116\033\301f;\001\353i/"
 359      4623D80C 
 359      D76066C9 
 359      361BC166 
 359      3B01EB69 
 360 07e5 D91623D8 		.ascii	"\331\026#\330<\327`f\311\266\032\301\336v\002V`!Yr\263"
 360      3CD76066 
 360      C9B61AC1 
 360      DE760256 
 360      60215972 
 361 07fa 7BBEEC15 		.ascii	"{\276\354\025\014\357\003\026\372\265r\3402\244\221"
 361      0CEF0316 
 361      FAB572E0 
 361      32A491
 362 0809 8E51EB77 		.ascii	"\216Q\353w[\277Lz\223\247\312\200\255\264~i\245}\205"
 362      5BBF4C7A 
 362      93A7CA80 
 362      ADB47E69 
 362      A57D85
 363 081c 13C43401 		.ascii	"\023\3044\001\263\331\370\234X\343\032\314\354\226\203"
 363      B3D9F89C 
 363      58E31ACC 
 363      EC9683
 364 082b 04CC5469 		.ascii	"\004\314Ti\222\2630\305\366\373\202\210\337\023\356"
 364      92B330C5 
 364      F6FB8288 
 364      DF13EE
 365 083a 733AC34A 		.ascii	"s:\303Jq\3217F\027\375\333\211\374ib\364j\353\002\372"
 365      71D13746 
 365      17FDDB89 
 365      FC6962F4 
 365      6AEB02FA 
 366 084e 79C53077 		.ascii	"y\3050w\314\360yeq\307\327G\330\014\342;\372\240\333"
 366      CCF07965 
 366      71C7D747 
 366      D80CE23B 
 366      FAA0DB
 367 0861 E9B77CA7 		.ascii	"\351\267|\247\354\000j\307;\037<L\013\373E\012\324\324"
 367      EC006AC7 
 367      3B1F3C4C 
 367      0BFB450A 
 367      D4D4
 368 0873 69A0E3A7 		.ascii	"i\240\343\247\026\365\247@?Q\240}~\276x\363O^l~\362"
 368      16F5A740 
 368      3F51A07D 
 368      7EBE78F3 
 368      4F5E6C7E 
 369 0888 A6FDDCF2 		.ascii	"\246\375\334\362\013\216\205I\016\357/\253\3571\366"
 369      0B8E8549 
 369      0EEF2FAB 
 369      EF31F6
 370 0897 6500D2A1 		.ascii	"e\000\322\241\371\217\365\253e\271\312\353\306c\011"
 370      F98FF5AB 
ARM GAS  /tmp/ccAqVU6n.s 			page 28


 370      65B9CAEB 
 370      C66309
 371 08a6 CD6357A8 		.ascii	"\315cW\250}N\247\330\347\242\340\316@\002:\347Z\221"
 371      7D4EA7D8 
 371      E7A2E0CE 
 371      40023AE7 
 371      5A91
 372 08b8 070C8A90 		.ascii	"\007\014\212\220yI\363Pu^r3\232\231~^B\344\271.\334"
 372      7949F350 
 372      755E7233 
 372      9A997E5E 
 372      42E4B92E 
 373 08cd 6C9A1428 		.ascii	"l\232\024(\227\366\221o1\344r\346/>\263\016\030&s\262"
 373      97F6916F 
 373      31E472E6 
 373      2F3EB30E 
 373      182673B2 
 374 08e1 B3C95C33 		.ascii	"\263\311\\3\233\314\215\367\020\213]\264\012M'H5;\216"
 374      9BCC8DF7 
 374      108B5DB4 
 374      0A4D2748 
 374      353B8E
 375 08f4 D377FD13 		.ascii	"\323w\375\023)\314\345\316\302@\2047\250\021\376\032"
 375      29CCE5CE 
 375      C2408437 
 375      A811FE1A 
 376 0904 05EA48F1 		.ascii	"\005\352H\361\240\227s\240\327\354@8%\234\332\311\274"
 376      A09773A0 
 376      D7EC4038 
 376      259CDAC9 
 376      BC
 377 0915 12BFCAAE 		.ascii	"\022\277\312\256\320_\257\320\377\235N@\257\347b\346"
 377      D05FAFD0 
 377      FF9D4E40 
 377      AFE762E6 
 378 0925 D3CECC95 		.ascii	"\323\316\314\225\350\244vP={(\250\016\252\276!\304\011"
 378      E8A47650 
 378      3D7B28A8 
 378      0EAABE21 
 378      C409
 379 0937 4AC34C6D 		.ascii	"J\303Lm1\362$y,\274u\203p'\016\360\217\005n6\272\331"
 379      31F22479 
 379      2CBC7583 
 379      70270EF0 
 379      8F056E36 
 380 094d A6622797 		.ascii	"\246b'\227i\211\236u4\376fx\350w\232\\\336\337\233\004"
 380      69899E75 
 380      34FE6678 
 380      E8779A5C 
 380      DEDF9B04 
 381 0961 6E3E4A2E 		.ascii	"n>J.\030\206\330%R\265\307\360\364\330pcj\202\037.\374"
 381      1886D825 
 381      52B5C7F0 
 381      F4D87063 
 381      6A821F2E 
 382 0976 597D3867 		.ascii	"Y}8g\232\352\377CC\313\247\214\353)\343y\036n\246\277"
 382      9AEAFF43 
ARM GAS  /tmp/ccAqVU6n.s 			page 29


 382      43CBA78C 
 382      EB29E379 
 382      1E6EA6BF 
 383 098a 70F3E9C9 		.ascii	"p\363\351\311\354{%\271\2279\263\217\237\361\3133\363"
 383      EC7B25B9 
 383      9739B38F 
 383      9FF1CB33 
 383      F3
 384 099b 1DFED6B0 		.ascii	"\035\376\326\260\343\262\362\253=\324\250\357x\310\322"
 384      E3B2F2AB 
 384      3DD4A8EF 
 384      78C8D2
 385 09aa F77BCEA8 		.ascii	"\367{\316\250\031?\341B\336Q\222E\274\334\015W\333\037"
 385      193FE142 
 385      DE519245 
 385      BCDC0D57 
 385      DB1F
 386 09bc 5517488B 		.ascii	"U\027H\213\034\210=A\2718\315\270\364\025\361\016\372"
 386      1C883D41 
 386      B938CDB8 
 386      F415F10E 
 386      FA
 387 09cd 968ED076 		.ascii	"\226\216\320v.\334~hINiD\334\340\032\254\300JT-\256"
 387      2EDC7E68 
 387      494E6944 
 387      DCE01AAC 
 387      C04A542D 
 388 09e2 7465455C 		.ascii	"teE\\\343!\323\226Z\017y\361\271\304c\372<U\235\247"
 388      E321D396 
 388      5A0F79F1 
 388      B9C463FA 
 388      3C559DA7 
 389 09f6 79D4CA72 		.ascii	"y\324\312r\231Sz\341\346+s\325\037\015\334T\351\257"
 389      99537AE1 
 389      E62B73D5 
 389      1F0DDC54 
 389      E9AF
 390 0a08 59955E46 		.ascii	"Y\225^F\213\300\374<>KH\3315i\343\252L-\342ur\272hJ"
 390      8BC0FC3C 
 390      3E4B48D9 
 390      3569E3AA 
 390      4C2DE275 
 391 0a20 6E765938 		.ascii	"nvY8\327\230\205\357\346\335h\026\266\017v\226\2052"
 391      D79885EF 
 391      E6DD6816 
 391      B60F7696 
 391      8532
 392 0a32 364E6905 		.ascii	"6Ni\005\264\212r\256\343\303\371\350\266=\257\261\237"
 392      B48A72AE 
 392      E3C3F9E8 
 392      B63DAFB1 
 392      9F
 393 0a43 74EA1CA5 		.ascii	"t\352\034\245\341%\232\206Z^\235L\242v&\024&(W\316\355"
 393      E1259A86 
 393      5A5E9D4C 
 393      A2762614 
 393      262857CE 
ARM GAS  /tmp/ccAqVU6n.s 			page 30


 394 0a58 C1144E9D 		.ascii	"\301\024N\235\242\237\341\341\\.]\257I\326?\257\330"
 394      A29FE1E1 
 394      5C2E5DAF 
 394      49D63FAF 
 394      D8
 395 0a69 1B867D29 		.ascii	"\033\206})?z\206L16Q\235\316\247\204\226j\031Ch\325"
 395      3F7A864C 
 395      3136519D 
 395      CEA78496 
 395      6A194368 
 396 0a7e 19126535 		.ascii	"\031\022e5M\22454Q\326\321\375\006c\272\330\205\305"
 396      4D943534 
 396      51D6D1FD 
 396      0663BAD8 
 396      85C5
 397 0a90 4663585C 		.ascii	"FcX\\r\255w\201\303\350[eds\255\263\321\207t\214\252"
 397      72AD7781 
 397      C3E85B65 
 397      6473ADB3 
 397      D187748C 
 398 0aa5 7C07AB90 		.ascii	"|\007\253\220\002;\027\311\211\235W/\014\245\357>2\276"
 398      023B17C9 
 398      899D572F 
 398      0CA5EF3E 
 398      32BE
 399 0ab7 A34A96F2 		.ascii	"\243J\226\362\346;\232i\346o\247\356y-\337\272\224\247"
 399      E63B9A69 
 399      E66FA7EE 
 399      792DDFBA 
 399      94A7
 400 0ac9 79D73597 		.ascii	"y\3275\227\2224\244\226r\205\225\362\006G\245\274\315"
 400      9234A496 
 400      728595F2 
 400      0647A5BC 
 400      CD
 401 0ada B29437B8 		.ascii	"\262\2247\270/\345V\233Q>\021\357\242A\365\241\271\356"
 401      2FE5569B 
 401      513E11EF 
 401      A241F5A1 
 401      B9EE
 402 0aec 2E776DFA 		.ascii	".wm\372\002\223\374[\017\323G\307*:\315X\353\004\354"
 402      0293FC5B 
 402      0FD347C7 
 402      2A3ACD58 
 402      EB04EC
 403 0aff 013B3F82 		.ascii	"\001;?\2021\016/`\306P\337\201nu\215W\220\316\030\372"
 403      310E2F60 
 403      C650DF81 
 403      6E758D57 
 403      90CE18FA 
 404 0b13 2B67116F 		.ascii	"+g\021o\243+\350\355\002\311\255\235t\257\320\375n\272"
 404      A32BE8ED 
 404      02C9AD9D 
 404      74AFD0FD 
 404      6EBA
 405 0b25 3F43F75F 		.ascii	"?C\367_\321\3759\272?O\367\355t\3773\335o\243y\371\021"
 405      D1FD39BA 
ARM GAS  /tmp/ccAqVU6n.s 			page 31


 405      3F4FF7ED 
 405      74FF33DD 
 405      6FA379F9 
 406 0b3a DD373AC9 		.ascii	"\3357:\311Nn\206u\017\252\225\367\357O\034j\374\276"
 406      4E6E8675 
 406      0FAA95F7 
 406      EF4F1C6A 
 406      FCBE
 407 0b4c DFF86A65 		.ascii	"\337\370je|\215|\015\236!X\377\034#\342o\205\344W\017"
 407      7C8D7C0D 
 407      9E2158FF 
 407      1C23E26F 
 407      85E4570F 
 408 0b60 D3FCC7F8 		.ascii	"\323\374\307\370\321F]\357[\217\022\361^\217\333\257"
 408      D1465DEF 
 408      5B8F12F1 
 408      5E8FDBAF 
 409 0b70 292D1EEB 		.ascii	")-\036\353\257)\346\017\220\332(\362\375\204\372\250"
 409      AF29E60F 
 409      90DA28F2 
 409      FD84FAA8 
 410 0b80 4EFF0580 		.ascii	"N\377\005\200\023B@\255\371\332\2173\344\177qn\"[\237"
 410      134240AD 
 410      F9DA8F33 
 410      E47F716E 
 410      225B9F
 411 0b93 E66345AB 		.ascii	"\346cE\253^g\230\261>\235~\004g6\326\363\032\220?\235"
 411      5E6798B1 
 411      3E9D7E04 
 411      6736D6F3 
 411      1A903F9D 
 412 0ba7 B1B85122 		.ascii	"\261\270Q\"\376\304\265\261\016\330\030+\307d,m\024"
 412      FEC4B5B1 
 412      0ED8182B 
 412      C7642C6D 
 412      14
 413 0bb8 743FF670 		.ascii	"t?\366p\377KpB\010\350\204\311X\252\332\312\306&9g\255"
 413      FF4B7042 
 413      08E884C9 
 413      58AADACA 
 413      C6263967 
 414 0bcd 3C45EEE8 		.ascii	"<E\356\350x\225)S3\220\323y\240\231\267i\330\012\333"
 414      78952953 
 414      3390D379 
 414      A099B769 
 414      D80ADB
 415 0be0 61223EEC 		.ascii	"a\">\354Z\351#6J\033Wt\372\250\244\322\206\27718!\004"
 415      5AE92336 
 415      4A1B5774 
 415      FAA8A4D2 
 415      86BF3138 
 416 0bf6 F48D95D2 		.ascii	"\364\215\225\322\327S\224\346\375<%\371\324\275)\235"
 416      D75394E6 
 416      FD3C25F9 
 416      D4BD299D 
 417 0c06 A3F96122 		.ascii	"\243\371a\">\356Z\351\0236Jw7)}\202W\332\360\323\006"
 417      3EEE5AE9 
ARM GAS  /tmp/ccAqVU6n.s 			page 32


 417      13364A77 
 417      37297D82 
 417      57DAF0D3 
 418 0c1b 2F8580DA 		.ascii	"/\205\200\332\255\264>\2667\223\326\325I\240\036\351"
 418      ADB43EB6 
 418      3793D6D5 
 418      49A01EE9 
 419 0c2b B4E68789 		.ascii	"\264\346\207\2118\341Z\353\3236Z\337d\322\3724\257\265"
 419      38E15AEB 
 419      D3365ADF 
 419      64D2FA34 
 419      AFB5
 420 0c3d E1E70E5E 		.ascii	"\341\347\016^\012\001M\356\222\246\032\034\261\371w"
 420      0A014DEE 
 420      92A61A1C 
 420      B1F977
 421 0c4c 8C0CFF42 		.ascii	"\214\014\377B\257\006\372\257\267\"\236\243?\035\322"
 421      AF06FAAF 
 421      B7229EA3 
 421      3F1DD2
 422 0c5b FCAAA7FF 		.ascii	"\374\252\247\377\202\247\031\372DK&C\317O\312~s:C\363"
 422      82A719FA 
 422      444B2643 
 422      CF4FCA7E 
 422      733A43F3 
 423 0c6f C3E0B9E1 		.ascii	"\303\340\271\341\332\320_\333\030\3328E\324G%\015m\370"
 423      DAD05FDB 
 423      18DA3845 
 423      D447250D 
 423      6DF8
 424 0c81 B9829742 		.ascii	"\271\202\227B@\263M\206F\217\025\226\224\227J\205\322"
 424      40B34D86 
 424      468F1596 
 424      94974A85 
 424      D2
 425 0c92 28A9B0A8 		.ascii	"(\251\260\250$42\364\302\260\302\362Xa4^\030)\217\306"
 425      243432F4 
 425      C2B0C2F2 
 425      5861345E 
 425      18298FC6 
 426 0ca6 63854FFD 		.ascii	"c\205O\375uH\321\220\261\205\301\222`yT\012\214y\274"
 426      7548D190 
 426      B185C192 
 426      6079540A 
 426      8C79BC
 427 0cb9 F4D112E4 		.ascii	"\364\321\022\344'\267\002\341\362\340\313\336\347\206"
 427      27B702E1 
 427      F2E0CBDE 
 427      E786
 428 0cc7 8E282842 		.ascii	"\216((By\364BE\031\271\364\200\035^\250,\030\256(\226"
 428      79F44245 
 428      19B9F480 
 428      1D5EA82C 
 428      18AE2896 
 429 0cdb 002A362E 		.ascii	"\000*6.FP\202%\303\306\305\006\003I\036\355\215HC^\""
 429      46508225 
 429      C3C6C506 
ARM GAS  /tmp/ccAqVU6n.s 			page 33


 429      03491EED 
 429      8D48435E 
 430 0cf0 86E1003B 		.ascii	"\206\341\000;\300!G \317#G\006\320\205\365U\210\337"
 430      C0214720 
 430      CF234706 
 430      D085F555 
 430      88DF
 431 0d02 DA42C4A2 		.ascii	"\332B\304\242\301Bil\374\321 \362\301aPY(\376;\333\261"
 431      C142696C 
 431      FCD120F2 
 431      C1615059 
 431      28FE3BDB 
 432 0d17 9AB8643C 		.ascii	"\232\270d<\010\373\314\213\303\237\216\206\306H\321"
 432      08FBCC8B 
 432      C39F8E86 
 432      C648D1
 433 0d26 3FD852A8 		.ascii	"?\330R\250\006\0336|H\237\307\012\007\017~\272\020H"
 433      061B367C 
 433      489FC70A 
 433      070F7EBA 
 433      1048
 434 0d38 068DE94D 		.ascii	"\006\215\351M\000\002\341p1\200\344B7\026\027\343R "
 434      0002E170 
 434      3180E442 
 434      371617E3 
 434      5220
 435 0d4a 9E0B3703 		.ascii	"\236\0137\003#\206\016\032:hx\016\351\016\033\376\302"
 435      23860E1A 
 435      3A68780E 
 435      E90E1BFE 
 435      C2
 436 0d5b 5FE8B5A7 		.ascii	"_\350\265\247\212\206\017\372\3333\331tXw\270PT\"\226"
 436      8A860FFA 
 436      DB33D974 
 436      5877B850 
 436      542296
 437 0d6e 9549E1A2 		.ascii	"\225I\341\242\362\262Q\241\321\277.\254\210E\223\222"
 437      F2B251A1 
 437      D1BF2EAC 
 437      88459392 
 438 0d7e 954995E1 		.ascii	"\225I\225\341\320\310\302X\2748TFd\314\251\200c\237"
 438      D0C8C258 
 438      BC385446 
 438      64CCA980 
 438      639F
 439 0d90 C702F147 		.ascii	"\307\002\361G\254\206\225\212\301\222P\231T\030(\226"
 439      AC86958A 
 439      C1925099 
 439      54182896 
 440 0da0 468915E1 		.ascii	"F\211\025\341x >.\"\021?\344\006\002\032aViy\261\224"
 440      78203E2E 
 440      22113FE4 
 440      06021A61 
 440      566979B1 
 441 0db5 2F8D8D04 		.ascii	"/\215\215\004U\256\201x\027\0209(\206\303#\305\340\313"
 441      55AE8178 
 441      17103928 
ARM GAS  /tmp/ccAqVU6n.s 			page 34


 441      86C323C5 
 441      E0CB
 442 0dc7 81B8101C 		.ascii	"\201\270\020\034\231\303n\305\210ET\251\274Az C_\030"
 442      99C36EC5 
 442      884554A9 
 442      BC417A20 
 442      435F18
 443 0dda F99214A4 		.ascii	"\371\222\024\244\206\315\202\263H\016\354\206\305\305"
 443      86CD82B3 
 443      480EEC86 
 443      C5C5
 444 0de8 68DC473B 		.ascii	"h\334G;\345\221\356pd\032=S&\216\014K>\006w\223~\343"
 444      E591EE70 
 444      641A3D53 
 444      268E0C4B 
 444      3E067793 
 445 0dfe E9508CDC 		.ascii	"\351P\214\334\351AH$\355\342\020\020lP6\021&\222\317"
 445      E9414824 
 445      EDE21010 
 445      6C503611 
 445      2692CF
 446 0e11 0C1A0801 		.ascii	"\014\032\010\001\233.\332I\214\260\311\327\317\312#"
 446      9B2EDA49 
 446      8CB0C9D7 
 446      CFCA23
 447 0e20 B769279A 		.ascii	"\267i'\2322\022\345x;\177\271X\345\227\005\347\321~"
 447      3212E578 
 447      3B7FB958 
 447      E59705E7 
 447      D17E
 448 0e32 96CE058A 		.ascii	"\226\316\005\212\302\242!\303\006\015\323c\230$C\260"
 448      C2A221C3 
 448      060DD363 
 448      982443B0 
 449 0e42 F4D98AB2 		.ascii	"\364\331\212\262 X\260K@\003\011\204\242\257t\021\303"
 449      2058B04B 
 449      40030984 
 449      A2AF7411 
 449      C3
 450 0e53 95E2B818 		.ascii	"\225\342\270\030\210\027\006{\347\007\030_r\353\021"
 450      8817067B 
 450      E707185F 
 450      72EB11
 451 0e62 47B9A139 		.ascii	"G\271\2419&'^\022\225\304\342@\0342%\240\366\037t\000"
 451      26275E12 
 451      95C4E240 
 451      1C3225A0 
 451      F61F7400 
 452 0e76 102C21B1 		.ascii	"\020,!\261\346\215\004\312@n8D\242\322\230?9K\362\362"
 452      E68D04CA 
 452      406E3844 
 452      A2D2983F 
 452      394BF2F2 
 453 0e8a D248282C 		.ascii	"\322H(,Ec\205\317\025\025\001\224&\210/\036\211\206"
 453      456385CF 
 453      15150194 
 453      26882F1E 
ARM GAS  /tmp/ccAqVU6n.s 			page 35


 453      8986
 454 0e9c CA032A58 		.ascii	"\312\003*X\250\334\007\376\216\223\264pQ9H\302\322\""
 454      A8DC07FE 
 454      8E93B470 
 454      513948C2 
 454      D222
 455 0eae 0191168C 		.ascii	"\001\221\026\214\217\315\211J\243\305h)DT\264\277\020"
 455      8FCD894A 
 455      A3C56829 
 455      4454B4BF 
 455      10
 456 0ebf 1DE089F6 		.ascii	"\035\340\211\366\356\005\255\267\020\355+D\373\011\321"
 456      EE05ADB7 
 456      10ED2B44 
 456      FB09D1
 457 0ece C785E8EF 		.ascii	"\307\205\350\357\205p\024.\365\311\216\004`\274\217"
 457      8570142E 
 457      F5C98E04 
 457      60BC8F
 458 0edd 68532945 		.ascii	"hS)E\341X\036.\226\242D;\261T\312\321\322\311G\"\270"
 458      E1581E2E 
 458      96A2443B 
 458      B154CAD1 
 458      D2C94722 
 459 0ef2 3F584A8D 		.ascii	"?XJ\215e\350\301Hz\317\027'1M\317G\205\305\321\261\354"
 459      65E8C148 
 459      7ACF1727 
 459      314DCF47 
 459      85C5D1B1 
 460 0f07 D2D86838 		.ascii	"\322\330h8c\001\017\343Y\317\033-\036\007\267 bC\361"
 460      63010FE3 
 460      59CF1B2D 
 460      1E07B720 
 460      6243F1
 461 0f1a 2050782B 		.ascii	" Px+\343\345#_\212\364`>\210\202\226Q\251,\010H\331"
 461      E3E5235F 
 461      8AF4603E 
 461      88829651 
 461      A92C0848 
 462 0f2f 95F17834 		.ascii	"\225\361x4\222\017>\211I\245b\244\004\264sR\363$R9\273"
 462      920F3E89 
 462      49A562A4 
 462      04B47352 
 462      F3245239 
 463 0f44 A970B1C0 		.ascii	"\251p\261\300+\025R\005`uOz\226]\362\261cv\260\0142"
 463      2B155205 
 463      60754F7A 
 463      965DF2B1 
 463      6376B00C 
 464 0f59 343B1680 		.ascii	"4;\026\200#\210\002\324\021\310\274@i\005\030\336\001"
 464      238802D4 
 464      11C8BC40 
 464      690518DE 
 464      01
 465 0f6a B7D2F858 		.ascii	"\267\322\370X\342\267R\006Z\032(\257,\003\353Qr\320"
 465      E2B75206 
 465      5A1A28AF 
ARM GAS  /tmp/ccAqVU6n.s 			page 36


 465      2C03EB51 
 465      72D0
 466 0f7c B5548D8D 		.ascii	"\265T\215\215\3128\214\213x\"\201\212\256\232\020\341"
 466      CA388C8B 
 466      7822818A 
 466      AE9A10E1 
 467 0f8c 500CF876 		.ascii	"P\014\370v3\210E\256\370#\201J1\024\017\225\215\206"
 467      338845AE 
 467      F823814A 
 467      31140F95 
 467      8D86
 468 0f9e 1ED0     		.ascii	"\036\320"
 469 0fa0 906BB911 		.ascii	"\220k\271\0210\212\030&\001\221\023\010\214\202L\010"
 469      308A1826 
 469      01911308 
 469      8C824C08 
 470 0fb0 04BA689D 		.ascii	"\004\272h\235G\373\366\177\274\257~\326\257\177\257"
 470      47FBF67F 
 470      BCAF7ED6 
 470      AF7FAF
 471 0fbf 01C6B3DE 		.ascii	"\001\306\263\336}Lg\375\215g\217\231\356\365\351\365"
 471      7D4C67FD 
 471      8D678F99 
 471      EEF5E9F5 
 472 0fcf 3F2CB016 		.ascii	"?,\260\026m"
 472      6D
 473              		.text
 474              		.section	.gnu.lto_.symtab.a2cfc071452c4200,"",%progbits
 475 0000 65787449 		.ascii	"extInit\000\000\000\000\000\000\000\000\000\000\000"
 475      6E697400 
 475      00000000 
 475      00000000 
 475      0000
 476 0012 00B50000 		.ascii	"\000\265\000\000\000extObjectInit\000\000\000\000\000"
 476      00657874 
 476      4F626A65 
 476      6374496E 
 476      69740000 
 477 0029 00000000 		.ascii	"\000\000\000\000\000\000\000\270\000\000\000extStar"
 477      000000B8 
 477      00000065 
 477      78745374 
 477      6172
 478 003b 74000000 		.ascii	"t\000\000\000\000\000\000\000\000\000\000\000\000\370"
 478      00000000 
 478      00000000 
 478      00F8
 479 0049 00000065 		.ascii	"\000\000\000extStop\000\000\000\000\000\000\000\000"
 479      78745374 
 479      6F700000 
 479      00000000 
 479      0000
 480 005b 00000000 		.ascii	"\000\000\000\000\000\001\000\000extChannelEnable\000"
 480      00010000 
 480      65787443 
 480      68616E6E 
 480      656C456E 
ARM GAS  /tmp/ccAqVU6n.s 			page 37


 481 0074 00000000 		.ascii	"\000\000\000\000\000\000\000\000\000\000\000\004\001"
 481      00000000 
 481      00000004 
 481      01
 482 0081 00006578 		.ascii	"\000\000extChannelDisable\000\000\000\000\000\000\000"
 482      74436861 
 482      6E6E656C 
 482      44697361 
 482      626C6500 
 483 009b 00000000 		.ascii	"\000\000\000\000\000\012\001\000\000extSetChannelMo"
 483      000A0100 
 483      00657874 
 483      53657443 
 483      68616E6E 
 484 00b3 64654900 		.ascii	"deI\000\000\000\000\000\000\000\000\000\000\000\000"
 484      00000000 
 484      00000000 
 484      000000
 485 00c2 0F010000 		.ascii	"\017\001\000\000ext_lld_init\000\000\002\000\000\000"
 485      6578745F 
 485      6C6C645F 
 485      696E6974 
 485      00000200 
 486 00d8 00000000 		.ascii	"\000\000\000\000\000\000\034\001\000\000ext_lld_sta"
 486      00001C01 
 486      00006578 
 486      745F6C6C 
 486      645F7374 
 487 00ed 72740000 		.ascii	"rt\000\000\002\000\000\000\000\000\000\000\000\000\036"
 487      02000000 
 487      00000000 
 487      00001E
 488 00fc 01000065 		.ascii	"\001\000\000ext_lld_stop\000\000\002\000\000\000\000"
 488      78745F6C 
 488      6C645F73 
 488      746F7000 
 488      00020000 
 489 0112 00000000 		.ascii	"\000\000\000\000\000 \001\000\000ext_lld_channel_en"
 489      00200100 
 489      00657874 
 489      5F6C6C64 
 489      5F636861 
 490 012d 61626C65 		.ascii	"able\000\000\002\000\000\000\000\000\000\000\000\000"
 490      00000200 
 490      00000000 
 490      00000000 
 491 013d 22010000 		.ascii	"\"\001\000\000ext_lld_channel_disable\000\000\002\000"
 491      6578745F 
 491      6C6C645F 
 491      6368616E 
 491      6E656C5F 
 492 015c 00000000 		.ascii	"\000\000\000\000\000\000\000\000$\001\000\000"
 492      00000000 
 492      24010000 
 493              		.text
 494              		.section	.gnu.lto_.opts,"",%progbits
 495 0000 272D6D63 		.ascii	"'-mcpu=cortex-m0' '-mno-thumb-interwork' '-mthumb' "
ARM GAS  /tmp/ccAqVU6n.s 			page 38


 495      70753D63 
 495      6F727465 
 495      782D6D30 
 495      2720272D 
 496 0033 272D6767 		.ascii	"'-ggdb' '-O0' '-fomit-frame-pointer' '-falign-funct"
 496      64622720 
 496      272D4F30 
 496      2720272D 
 496      666F6D69 
 497 0066 696F6E73 		.ascii	"ions=16' '-ffunction-sections' '-fdata-sections' '-"
 497      3D313627 
 497      20272D66 
 497      66756E63 
 497      74696F6E 
 498 0099 666E6F2D 		.ascii	"fno-common' '-flto'\000"
 498      636F6D6D 
 498      6F6E2720 
 498      272D666C 
 498      746F2700 
 499              		.text
 500              		.cfi_sections	.debug_frame
 501              		.section	.text.port_lock,"ax",%progbits
 502              		.align	2
 503              		.p2align 4,,15
 504              		.code	16
 505              		.thumb_func
 506              		.type	port_lock, %function
 507              	port_lock:
 508              	.LFB38:
 509              		.file 1 "/home/efe/ChibiOS/os/rt/ports/ARMCMx/chcore_v6m.h"
 510              		.loc 1 330 0
 511              		.cfi_startproc
 512              	.LBB6:
 513              	.LBB7:
 514              		.file 2 "/home/efe/ChibiOS/os/ext/CMSIS/include/core_cmFunc.h"
 515              		.loc 2 344 0
 516              	@ 344 "/home/efe/ChibiOS/os/ext/CMSIS/include/core_cmFunc.h" 1
 517 0000 72B6     		cpsid i
 518              	@ 0 "" 2
 519              		.code	16
 520              	.LBE7:
 521              	.LBE6:
 522              		.loc 1 333 0
 523              		@ sp needed
 524 0002 7047     		bx	lr
 525              		.cfi_endproc
 526              	.LFE38:
 527              		.size	port_lock, .-port_lock
 528 0004 C046C046 		.section	.text.port_unlock,"ax",%progbits
 528      C046C046 
 528      C046C046 
 529              		.align	2
 530              		.p2align 4,,15
 531              		.code	16
 532              		.thumb_func
 533              		.type	port_unlock, %function
 534              	port_unlock:
ARM GAS  /tmp/ccAqVU6n.s 			page 39


 535              	.LFB39:
 536              		.loc 1 339 0
 537              		.cfi_startproc
 538              	.LBB8:
 539              	.LBB9:
 540              		.loc 2 333 0
 541              	@ 333 "/home/efe/ChibiOS/os/ext/CMSIS/include/core_cmFunc.h" 1
 542 0000 62B6     		cpsie i
 543              	@ 0 "" 2
 544              		.code	16
 545              	.LBE9:
 546              	.LBE8:
 547              		.loc 1 342 0
 548              		@ sp needed
 549 0002 7047     		bx	lr
 550              		.cfi_endproc
 551              	.LFE39:
 552              		.size	port_unlock, .-port_unlock
 553 0004 C046C046 		.section	.text.chSysLock,"ax",%progbits
 553      C046C046 
 553      C046C046 
 554              		.align	2
 555              		.p2align 4,,15
 556              		.code	16
 557              		.thumb_func
 558              		.type	chSysLock, %function
 559              	chSysLock:
 560              	.LFB70:
 561              		.file 3 "/home/efe/ChibiOS/os/rt/include/chsys.h"
 562              		.loc 3 346 0
 563              		.cfi_startproc
 564 0000 08B5     		push	{r3, lr}
 565              		.cfi_def_cfa_offset 8
 566              		.cfi_offset 3, -8
 567              		.cfi_offset 14, -4
 568              		.loc 3 348 0
 569 0002 FFF7FEFF 		bl	port_lock
 570              		.loc 3 351 0
 571              		@ sp needed
 572 0006 08BD     		pop	{r3, pc}
 573              		.cfi_endproc
 574              	.LFE70:
 575              		.size	chSysLock, .-chSysLock
 576 0008 C046C046 		.section	.text.chSysUnlock,"ax",%progbits
 576      C046C046 
 577              		.align	2
 578              		.p2align 4,,15
 579              		.code	16
 580              		.thumb_func
 581              		.type	chSysUnlock, %function
 582              	chSysUnlock:
 583              	.LFB71:
 584              		.loc 3 358 0
 585              		.cfi_startproc
 586 0000 08B5     		push	{r3, lr}
 587              		.cfi_def_cfa_offset 8
 588              		.cfi_offset 3, -8
ARM GAS  /tmp/ccAqVU6n.s 			page 40


 589              		.cfi_offset 14, -4
 590              		.loc 3 371 0
 591 0002 FFF7FEFF 		bl	port_unlock
 592              		.loc 3 372 0
 593              		@ sp needed
 594 0006 08BD     		pop	{r3, pc}
 595              		.cfi_endproc
 596              	.LFE71:
 597              		.size	chSysUnlock, .-chSysUnlock
 598 0008 C046C046 		.section	.text.osalSysLock,"ax",%progbits
 598      C046C046 
 599              		.align	2
 600              		.p2align 4,,15
 601              		.code	16
 602              		.thumb_func
 603              		.type	osalSysLock, %function
 604              	osalSysLock:
 605              	.LFB123:
 606              		.file 4 "/home/efe/ChibiOS/os/hal/osal/rt/osal.h"
 607              		.loc 4 491 0
 608              		.cfi_startproc
 609 0000 08B5     		push	{r3, lr}
 610              		.cfi_def_cfa_offset 8
 611              		.cfi_offset 3, -8
 612              		.cfi_offset 14, -4
 613              		.loc 4 493 0
 614 0002 FFF7FEFF 		bl	chSysLock
 615              		.loc 4 494 0
 616              		@ sp needed
 617 0006 08BD     		pop	{r3, pc}
 618              		.cfi_endproc
 619              	.LFE123:
 620              		.size	osalSysLock, .-osalSysLock
 621 0008 C046C046 		.section	.text.osalSysUnlock,"ax",%progbits
 621      C046C046 
 622              		.align	2
 623              		.p2align 4,,15
 624              		.code	16
 625              		.thumb_func
 626              		.type	osalSysUnlock, %function
 627              	osalSysUnlock:
 628              	.LFB124:
 629              		.loc 4 502 0
 630              		.cfi_startproc
 631 0000 08B5     		push	{r3, lr}
 632              		.cfi_def_cfa_offset 8
 633              		.cfi_offset 3, -8
 634              		.cfi_offset 14, -4
 635              		.loc 4 504 0
 636 0002 FFF7FEFF 		bl	chSysUnlock
 637              		.loc 4 505 0
 638              		@ sp needed
 639 0006 08BD     		pop	{r3, pc}
 640              		.cfi_endproc
 641              	.LFE124:
 642              		.size	osalSysUnlock, .-osalSysUnlock
 643 0008 C046C046 		.section	.text.extInit,"ax",%progbits
ARM GAS  /tmp/ccAqVU6n.s 			page 41


 643      C046C046 
 644              		.align	2
 645              		.p2align 4,,15
 646              		.global	extInit
 647              		.code	16
 648              		.thumb_func
 649              		.type	extInit, %function
 650              	extInit:
 651              	.LFB149:
 652              		.file 5 "/home/efe/ChibiOS/os/hal/src/ext.c"
 653              		.loc 5 56 0
 654              		.cfi_startproc
 655 0000 08B5     		push	{r3, lr}
 656              		.cfi_def_cfa_offset 8
 657              		.cfi_offset 3, -8
 658              		.cfi_offset 14, -4
 659              		.loc 5 58 0
 660 0002 FFF7FEFF 		bl	ext_lld_init
 661              		.loc 5 59 0
 662              		@ sp needed
 663 0006 08BD     		pop	{r3, pc}
 664              		.cfi_endproc
 665              	.LFE149:
 666              		.size	extInit, .-extInit
 667 0008 C046C046 		.section	.text.extObjectInit,"ax",%progbits
 667      C046C046 
 668              		.align	2
 669              		.p2align 4,,15
 670              		.global	extObjectInit
 671              		.code	16
 672              		.thumb_func
 673              		.type	extObjectInit, %function
 674              	extObjectInit:
 675              	.LFB150:
 676              		.loc 5 68 0
 677              		.cfi_startproc
 678 0000 82B0     		sub	sp, sp, #8
 679              		.cfi_def_cfa_offset 8
 680 0002 0190     		str	r0, [sp, #4]
 681              		.loc 5 70 0
 682 0004 019B     		ldr	r3, [sp, #4]
 683 0006 0122     		mov	r2, #1
 684 0008 1A70     		strb	r2, [r3]
 685              		.loc 5 71 0
 686 000a 019B     		ldr	r3, [sp, #4]
 687 000c 0022     		mov	r2, #0
 688 000e 5A60     		str	r2, [r3, #4]
 689              		.loc 5 72 0
 690 0010 02B0     		add	sp, sp, #8
 691              		@ sp needed
 692 0012 7047     		bx	lr
 693              		.cfi_endproc
 694              	.LFE150:
 695              		.size	extObjectInit, .-extObjectInit
 696 0014 C046C046 		.section	.text.extStart,"ax",%progbits
 696      C046C046 
 696      C046C046 
ARM GAS  /tmp/ccAqVU6n.s 			page 42


 697              		.align	2
 698              		.p2align 4,,15
 699              		.global	extStart
 700              		.code	16
 701              		.thumb_func
 702              		.type	extStart, %function
 703              	extStart:
 704              	.LFB151:
 705              		.loc 5 84 0
 706              		.cfi_startproc
 707 0000 00B5     		push	{lr}
 708              		.cfi_def_cfa_offset 4
 709              		.cfi_offset 14, -4
 710 0002 83B0     		sub	sp, sp, #12
 711              		.cfi_def_cfa_offset 16
 712 0004 0190     		str	r0, [sp, #4]
 713 0006 0091     		str	r1, [sp]
 714              		.loc 5 88 0
 715 0008 FFF7FEFF 		bl	osalSysLock
 716              		.loc 5 91 0
 717 000c 019B     		ldr	r3, [sp, #4]
 718 000e 009A     		ldr	r2, [sp]
 719 0010 5A60     		str	r2, [r3, #4]
 720              		.loc 5 92 0
 721 0012 019B     		ldr	r3, [sp, #4]
 722 0014 181C     		mov	r0, r3
 723 0016 FFF7FEFF 		bl	ext_lld_start
 724              		.loc 5 93 0
 725 001a 019B     		ldr	r3, [sp, #4]
 726 001c 0222     		mov	r2, #2
 727 001e 1A70     		strb	r2, [r3]
 728              		.loc 5 94 0
 729 0020 FFF7FEFF 		bl	osalSysUnlock
 730              		.loc 5 95 0
 731 0024 03B0     		add	sp, sp, #12
 732              		@ sp needed
 733 0026 00BD     		pop	{pc}
 734              		.cfi_endproc
 735              	.LFE151:
 736              		.size	extStart, .-extStart
 737 0028 C046C046 		.section	.text.extStop,"ax",%progbits
 737      C046C046 
 738              		.align	2
 739              		.p2align 4,,15
 740              		.global	extStop
 741              		.code	16
 742              		.thumb_func
 743              		.type	extStop, %function
 744              	extStop:
 745              	.LFB152:
 746              		.loc 5 104 0
 747              		.cfi_startproc
 748 0000 00B5     		push	{lr}
 749              		.cfi_def_cfa_offset 4
 750              		.cfi_offset 14, -4
 751 0002 83B0     		sub	sp, sp, #12
 752              		.cfi_def_cfa_offset 16
ARM GAS  /tmp/ccAqVU6n.s 			page 43


 753 0004 0190     		str	r0, [sp, #4]
 754              		.loc 5 108 0
 755 0006 FFF7FEFF 		bl	osalSysLock
 756              		.loc 5 111 0
 757 000a 019B     		ldr	r3, [sp, #4]
 758 000c 181C     		mov	r0, r3
 759 000e FFF7FEFF 		bl	ext_lld_stop
 760              		.loc 5 112 0
 761 0012 019B     		ldr	r3, [sp, #4]
 762 0014 0122     		mov	r2, #1
 763 0016 1A70     		strb	r2, [r3]
 764              		.loc 5 113 0
 765 0018 FFF7FEFF 		bl	osalSysUnlock
 766              		.loc 5 114 0
 767 001c 03B0     		add	sp, sp, #12
 768              		@ sp needed
 769 001e 00BD     		pop	{pc}
 770              		.cfi_endproc
 771              	.LFE152:
 772              		.size	extStop, .-extStop
 773              		.section	.text.extChannelEnable,"ax",%progbits
 774              		.align	2
 775              		.p2align 4,,15
 776              		.global	extChannelEnable
 777              		.code	16
 778              		.thumb_func
 779              		.type	extChannelEnable, %function
 780              	extChannelEnable:
 781              	.LFB153:
 782              		.loc 5 125 0
 783              		.cfi_startproc
 784 0000 00B5     		push	{lr}
 785              		.cfi_def_cfa_offset 4
 786              		.cfi_offset 14, -4
 787 0002 83B0     		sub	sp, sp, #12
 788              		.cfi_def_cfa_offset 16
 789 0004 0190     		str	r0, [sp, #4]
 790 0006 0091     		str	r1, [sp]
 791              		.loc 5 129 0
 792 0008 FFF7FEFF 		bl	osalSysLock
 793              		.loc 5 134 0
 794 000c 019A     		ldr	r2, [sp, #4]
 795 000e 009B     		ldr	r3, [sp]
 796 0010 101C     		mov	r0, r2
 797 0012 191C     		mov	r1, r3
 798 0014 FFF7FEFF 		bl	ext_lld_channel_enable
 799              		.loc 5 135 0
 800 0018 FFF7FEFF 		bl	osalSysUnlock
 801              		.loc 5 136 0
 802 001c 03B0     		add	sp, sp, #12
 803              		@ sp needed
 804 001e 00BD     		pop	{pc}
 805              		.cfi_endproc
 806              	.LFE153:
 807              		.size	extChannelEnable, .-extChannelEnable
 808              		.section	.text.extChannelDisable,"ax",%progbits
 809              		.align	2
ARM GAS  /tmp/ccAqVU6n.s 			page 44


 810              		.p2align 4,,15
 811              		.global	extChannelDisable
 812              		.code	16
 813              		.thumb_func
 814              		.type	extChannelDisable, %function
 815              	extChannelDisable:
 816              	.LFB154:
 817              		.loc 5 147 0
 818              		.cfi_startproc
 819 0000 00B5     		push	{lr}
 820              		.cfi_def_cfa_offset 4
 821              		.cfi_offset 14, -4
 822 0002 83B0     		sub	sp, sp, #12
 823              		.cfi_def_cfa_offset 16
 824 0004 0190     		str	r0, [sp, #4]
 825 0006 0091     		str	r1, [sp]
 826              		.loc 5 151 0
 827 0008 FFF7FEFF 		bl	osalSysLock
 828              		.loc 5 156 0
 829 000c 019A     		ldr	r2, [sp, #4]
 830 000e 009B     		ldr	r3, [sp]
 831 0010 101C     		mov	r0, r2
 832 0012 191C     		mov	r1, r3
 833 0014 FFF7FEFF 		bl	ext_lld_channel_disable
 834              		.loc 5 157 0
 835 0018 FFF7FEFF 		bl	osalSysUnlock
 836              		.loc 5 158 0
 837 001c 03B0     		add	sp, sp, #12
 838              		@ sp needed
 839 001e 00BD     		pop	{pc}
 840              		.cfi_endproc
 841              	.LFE154:
 842              		.size	extChannelDisable, .-extChannelDisable
 843              		.section	.text.extSetChannelModeI,"ax",%progbits
 844              		.align	2
 845              		.p2align 4,,15
 846              		.global	extSetChannelModeI
 847              		.code	16
 848              		.thumb_func
 849              		.type	extSetChannelModeI, %function
 850              	extSetChannelModeI:
 851              	.LFB155:
 852              		.loc 5 179 0
 853              		.cfi_startproc
 854 0000 00B5     		push	{lr}
 855              		.cfi_def_cfa_offset 4
 856              		.cfi_offset 14, -4
 857 0002 87B0     		sub	sp, sp, #28
 858              		.cfi_def_cfa_offset 32
 859 0004 0390     		str	r0, [sp, #12]
 860 0006 0291     		str	r1, [sp, #8]
 861 0008 0192     		str	r2, [sp, #4]
 862              		.loc 5 191 0
 863 000a 039B     		ldr	r3, [sp, #12]
 864 000c 5A68     		ldr	r2, [r3, #4]
 865 000e 029B     		ldr	r3, [sp, #8]
 866 0010 DB00     		lsl	r3, r3, #3
ARM GAS  /tmp/ccAqVU6n.s 			page 45


 867 0012 D318     		add	r3, r2, r3
 868 0014 0593     		str	r3, [sp, #20]
 869              		.loc 5 196 0
 870 0016 059B     		ldr	r3, [sp, #20]
 871 0018 019A     		ldr	r2, [sp, #4]
 872 001a 03CA     		ldmia	r2!, {r0, r1}
 873 001c 03C3     		stmia	r3!, {r0, r1}
 874              		.loc 5 197 0
 875 001e 039A     		ldr	r2, [sp, #12]
 876 0020 029B     		ldr	r3, [sp, #8]
 877 0022 101C     		mov	r0, r2
 878 0024 191C     		mov	r1, r3
 879 0026 FFF7FEFF 		bl	ext_lld_channel_enable
 880              		.loc 5 198 0
 881 002a 07B0     		add	sp, sp, #28
 882              		@ sp needed
 883 002c 00BD     		pop	{pc}
 884              		.cfi_endproc
 885              	.LFE155:
 886              		.size	extSetChannelModeI, .-extSetChannelModeI
 887 002e C046     		.text
 888              	.Letext0:
 889              		.file 6 "/usr/include/newlib/machine/_default_types.h"
 890              		.file 7 "/usr/include/newlib/stdint.h"
 891              		.file 8 "/home/efe/ChibiOS/os/rt/ports/ARMCMx/compilers/GCC/chtypes.h"
 892              		.file 9 "/home/efe/ChibiOS/os/rt/include/chsystypes.h"
 893              		.file 10 "/home/efe/ChibiOS/os/rt/include/chschd.h"
 894              		.file 11 "/home/efe/ChibiOS/os/rt/ports/ARMCMx/chcore.h"
 895              		.file 12 "/home/efe/ChibiOS/os/rt/include/chsem.h"
 896              		.file 13 "/home/efe/ChibiOS/os/rt/include/chmtx.h"
 897              		.file 14 "/home/efe/ChibiOS/os/hal/include/ext.h"
 898              		.file 15 "/home/efe/ChibiOS/os/hal/ports/STM32/LLD/EXTIv1/ext_lld.h"
 899              		.section	.debug_info,"",%progbits
 900              	.Ldebug_info0:
 901 0000 32090000 		.4byte	0x932
 902 0004 0400     		.2byte	0x4
 903 0006 00000000 		.4byte	.Ldebug_abbrev0
 904 000a 04       		.byte	0x4
 905 000b 01       		.uleb128 0x1
 906 000c 23030000 		.4byte	.LASF129
 907 0010 01       		.byte	0x1
 908 0011 3E020000 		.4byte	.LASF130
 909 0015 00000000 		.4byte	.Ldebug_ranges0+0
 910 0019 00000000 		.4byte	0
 911 001d 00000000 		.4byte	.Ldebug_line0
 912 0021 02       		.uleb128 0x2
 913 0022 04       		.byte	0x4
 914 0023 05       		.byte	0x5
 915 0024 696E7400 		.ascii	"int\000"
 916 0028 03       		.uleb128 0x3
 917 0029 04       		.byte	0x4
 918 002a 07       		.byte	0x7
 919 002b 60000000 		.4byte	.LASF0
 920 002f 03       		.uleb128 0x3
 921 0030 01       		.byte	0x1
 922 0031 06       		.byte	0x6
 923 0032 E5050000 		.4byte	.LASF1
ARM GAS  /tmp/ccAqVU6n.s 			page 46


 924 0036 04       		.uleb128 0x4
 925 0037 E5040000 		.4byte	.LASF4
 926 003b 06       		.byte	0x6
 927 003c 1D       		.byte	0x1d
 928 003d 41000000 		.4byte	0x41
 929 0041 03       		.uleb128 0x3
 930 0042 01       		.byte	0x1
 931 0043 08       		.byte	0x8
 932 0044 7B050000 		.4byte	.LASF2
 933 0048 03       		.uleb128 0x3
 934 0049 02       		.byte	0x2
 935 004a 05       		.byte	0x5
 936 004b 5D040000 		.4byte	.LASF3
 937 004f 04       		.uleb128 0x4
 938 0050 72010000 		.4byte	.LASF5
 939 0054 06       		.byte	0x6
 940 0055 2B       		.byte	0x2b
 941 0056 5A000000 		.4byte	0x5a
 942 005a 03       		.uleb128 0x3
 943 005b 02       		.byte	0x2
 944 005c 07       		.byte	0x7
 945 005d F1050000 		.4byte	.LASF6
 946 0061 04       		.uleb128 0x4
 947 0062 7C000000 		.4byte	.LASF7
 948 0066 06       		.byte	0x6
 949 0067 3F       		.byte	0x3f
 950 0068 6C000000 		.4byte	0x6c
 951 006c 03       		.uleb128 0x3
 952 006d 04       		.byte	0x4
 953 006e 05       		.byte	0x5
 954 006f 79040000 		.4byte	.LASF8
 955 0073 04       		.uleb128 0x4
 956 0074 89050000 		.4byte	.LASF9
 957 0078 06       		.byte	0x6
 958 0079 41       		.byte	0x41
 959 007a 7E000000 		.4byte	0x7e
 960 007e 03       		.uleb128 0x3
 961 007f 04       		.byte	0x4
 962 0080 07       		.byte	0x7
 963 0081 10050000 		.4byte	.LASF10
 964 0085 03       		.uleb128 0x3
 965 0086 08       		.byte	0x8
 966 0087 05       		.byte	0x5
 967 0088 BD020000 		.4byte	.LASF11
 968 008c 04       		.uleb128 0x4
 969 008d F1010000 		.4byte	.LASF12
 970 0091 06       		.byte	0x6
 971 0092 5B       		.byte	0x5b
 972 0093 97000000 		.4byte	0x97
 973 0097 03       		.uleb128 0x3
 974 0098 08       		.byte	0x8
 975 0099 07       		.byte	0x7
 976 009a 4A010000 		.4byte	.LASF13
 977 009e 04       		.uleb128 0x4
 978 009f 84020000 		.4byte	.LASF14
 979 00a3 07       		.byte	0x7
 980 00a4 2A       		.byte	0x2a
ARM GAS  /tmp/ccAqVU6n.s 			page 47


 981 00a5 36000000 		.4byte	0x36
 982 00a9 04       		.uleb128 0x4
 983 00aa 2C040000 		.4byte	.LASF15
 984 00ae 07       		.byte	0x7
 985 00af 36       		.byte	0x36
 986 00b0 4F000000 		.4byte	0x4f
 987 00b4 04       		.uleb128 0x4
 988 00b5 48050000 		.4byte	.LASF16
 989 00b9 07       		.byte	0x7
 990 00ba 41       		.byte	0x41
 991 00bb 61000000 		.4byte	0x61
 992 00bf 04       		.uleb128 0x4
 993 00c0 0D010000 		.4byte	.LASF17
 994 00c4 07       		.byte	0x7
 995 00c5 42       		.byte	0x42
 996 00c6 73000000 		.4byte	0x73
 997 00ca 04       		.uleb128 0x4
 998 00cb D0040000 		.4byte	.LASF18
 999 00cf 07       		.byte	0x7
 1000 00d0 4E       		.byte	0x4e
 1001 00d1 8C000000 		.4byte	0x8c
 1002 00d5 04       		.uleb128 0x4
 1003 00d6 0E040000 		.4byte	.LASF19
 1004 00da 08       		.byte	0x8
 1005 00db 3C       		.byte	0x3c
 1006 00dc 9E000000 		.4byte	0x9e
 1007 00e0 04       		.uleb128 0x4
 1008 00e1 61020000 		.4byte	.LASF20
 1009 00e5 08       		.byte	0x8
 1010 00e6 3D       		.byte	0x3d
 1011 00e7 9E000000 		.4byte	0x9e
 1012 00eb 04       		.uleb128 0x4
 1013 00ec 31010000 		.4byte	.LASF21
 1014 00f0 08       		.byte	0x8
 1015 00f1 40       		.byte	0x40
 1016 00f2 BF000000 		.4byte	0xbf
 1017 00f6 04       		.uleb128 0x4
 1018 00f7 DB020000 		.4byte	.LASF22
 1019 00fb 08       		.byte	0x8
 1020 00fc 41       		.byte	0x41
 1021 00fd B4000000 		.4byte	0xb4
 1022 0101 04       		.uleb128 0x4
 1023 0102 7D010000 		.4byte	.LASF23
 1024 0106 08       		.byte	0x8
 1025 0107 45       		.byte	0x45
 1026 0108 B4000000 		.4byte	0xb4
 1027 010c 04       		.uleb128 0x4
 1028 010d 46000000 		.4byte	.LASF24
 1029 0111 09       		.byte	0x9
 1030 0112 35       		.byte	0x35
 1031 0113 A9000000 		.4byte	0xa9
 1032 0117 04       		.uleb128 0x4
 1033 0118 C4010000 		.4byte	.LASF25
 1034 011c 09       		.byte	0x9
 1035 011d 3F       		.byte	0x3f
 1036 011e 22010000 		.4byte	0x122
 1037 0122 05       		.uleb128 0x5
ARM GAS  /tmp/ccAqVU6n.s 			page 48


 1038 0123 96020000 		.4byte	.LASF40
 1039 0127 30       		.byte	0x30
 1040 0128 0A       		.byte	0xa
 1041 0129 C2       		.byte	0xc2
 1042 012a CF010000 		.4byte	0x1cf
 1043 012e 06       		.uleb128 0x6
 1044 012f C9040000 		.4byte	.LASF26
 1045 0133 0A       		.byte	0xa
 1046 0134 C3       		.byte	0xc3
 1047 0135 DA010000 		.4byte	0x1da
 1048 0139 00       		.byte	0
 1049 013a 06       		.uleb128 0x6
 1050 013b 00050000 		.4byte	.LASF27
 1051 013f 0A       		.byte	0xa
 1052 0140 C5       		.byte	0xc5
 1053 0141 DA010000 		.4byte	0x1da
 1054 0145 04       		.byte	0x4
 1055 0146 06       		.uleb128 0x6
 1056 0147 3F000000 		.4byte	.LASF28
 1057 014b 0A       		.byte	0xa
 1058 014c C7       		.byte	0xc7
 1059 014d EB000000 		.4byte	0xeb
 1060 0151 08       		.byte	0x8
 1061 0152 06       		.uleb128 0x6
 1062 0153 D9040000 		.4byte	.LASF29
 1063 0157 0A       		.byte	0xa
 1064 0158 C8       		.byte	0xc8
 1065 0159 FE030000 		.4byte	0x3fe
 1066 015d 0C       		.byte	0xc
 1067 015e 06       		.uleb128 0x6
 1068 015f 9D010000 		.4byte	.LASF30
 1069 0163 0A       		.byte	0xa
 1070 0164 CA       		.byte	0xca
 1071 0165 DA010000 		.4byte	0x1da
 1072 0169 10       		.byte	0x10
 1073 016a 06       		.uleb128 0x6
 1074 016b 74020000 		.4byte	.LASF31
 1075 016f 0A       		.byte	0xa
 1076 0170 CB       		.byte	0xcb
 1077 0171 DA010000 		.4byte	0x1da
 1078 0175 14       		.byte	0x14
 1079 0176 06       		.uleb128 0x6
 1080 0177 0F020000 		.4byte	.LASF32
 1081 017b 0A       		.byte	0xa
 1082 017c D2       		.byte	0xd2
 1083 017d 48050000 		.4byte	0x548
 1084 0181 18       		.byte	0x18
 1085 0182 06       		.uleb128 0x6
 1086 0183 7C020000 		.4byte	.LASF33
 1087 0187 0A       		.byte	0xa
 1088 0188 DD       		.byte	0xdd
 1089 0189 E0000000 		.4byte	0xe0
 1090 018d 1C       		.byte	0x1c
 1091 018e 06       		.uleb128 0x6
 1092 018f E9020000 		.4byte	.LASF34
 1093 0193 0A       		.byte	0xa
 1094 0194 E1       		.byte	0xe1
ARM GAS  /tmp/ccAqVU6n.s 			page 49


 1095 0195 D5000000 		.4byte	0xd5
 1096 0199 1D       		.byte	0x1d
 1097 019a 07       		.uleb128 0x7
 1098 019b 705F7500 		.ascii	"p_u\000"
 1099 019f 0A       		.byte	0xa
 1100 01a0 3101     		.2byte	0x131
 1101 01a2 8F040000 		.4byte	0x48f
 1102 01a6 20       		.byte	0x20
 1103 01a7 08       		.uleb128 0x8
 1104 01a8 20000000 		.4byte	.LASF35
 1105 01ac 0A       		.byte	0xa
 1106 01ad 3601     		.2byte	0x136
 1107 01af E0010000 		.4byte	0x1e0
 1108 01b3 24       		.byte	0x24
 1109 01b4 08       		.uleb128 0x8
 1110 01b5 8C020000 		.4byte	.LASF36
 1111 01b9 0A       		.byte	0xa
 1112 01ba 4D01     		.2byte	0x14d
 1113 01bc 42050000 		.4byte	0x542
 1114 01c0 28       		.byte	0x28
 1115 01c1 08       		.uleb128 0x8
 1116 01c2 52040000 		.4byte	.LASF37
 1117 01c6 0A       		.byte	0xa
 1118 01c7 5101     		.2byte	0x151
 1119 01c9 EB000000 		.4byte	0xeb
 1120 01cd 2C       		.byte	0x2c
 1121 01ce 00       		.byte	0
 1122 01cf 04       		.uleb128 0x4
 1123 01d0 1F020000 		.4byte	.LASF38
 1124 01d4 09       		.byte	0x9
 1125 01d5 44       		.byte	0x44
 1126 01d6 DA010000 		.4byte	0x1da
 1127 01da 09       		.uleb128 0x9
 1128 01db 04       		.byte	0x4
 1129 01dc 17010000 		.4byte	0x117
 1130 01e0 04       		.uleb128 0x4
 1131 01e1 6D000000 		.4byte	.LASF39
 1132 01e5 09       		.byte	0x9
 1133 01e6 49       		.byte	0x49
 1134 01e7 EB010000 		.4byte	0x1eb
 1135 01eb 05       		.uleb128 0x5
 1136 01ec 00000000 		.4byte	.LASF41
 1137 01f0 04       		.byte	0x4
 1138 01f1 0A       		.byte	0xa
 1139 01f2 B0       		.byte	0xb0
 1140 01f3 04020000 		.4byte	0x204
 1141 01f7 06       		.uleb128 0x6
 1142 01f8 C9040000 		.4byte	.LASF26
 1143 01fc 0A       		.byte	0xa
 1144 01fd B1       		.byte	0xb1
 1145 01fe DA010000 		.4byte	0x1da
 1146 0202 00       		.byte	0
 1147 0203 00       		.byte	0
 1148 0204 04       		.uleb128 0x4
 1149 0205 10000000 		.4byte	.LASF42
 1150 0209 09       		.byte	0x9
 1151 020a 50       		.byte	0x50
ARM GAS  /tmp/ccAqVU6n.s 			page 50


 1152 020b 0F020000 		.4byte	0x20f
 1153 020f 05       		.uleb128 0x5
 1154 0210 CA000000 		.4byte	.LASF43
 1155 0214 08       		.byte	0x8
 1156 0215 0A       		.byte	0xa
 1157 0216 B7       		.byte	0xb7
 1158 0217 34020000 		.4byte	0x234
 1159 021b 06       		.uleb128 0x6
 1160 021c C9040000 		.4byte	.LASF26
 1161 0220 0A       		.byte	0xa
 1162 0221 B8       		.byte	0xb8
 1163 0222 DA010000 		.4byte	0x1da
 1164 0226 00       		.byte	0
 1165 0227 06       		.uleb128 0x6
 1166 0228 00050000 		.4byte	.LASF27
 1167 022c 0A       		.byte	0xa
 1168 022d B9       		.byte	0xb9
 1169 022e DA010000 		.4byte	0x1da
 1170 0232 04       		.byte	0x4
 1171 0233 00       		.byte	0
 1172 0234 04       		.uleb128 0x4
 1173 0235 2F050000 		.4byte	.LASF44
 1174 0239 09       		.byte	0x9
 1175 023a 57       		.byte	0x57
 1176 023b 3F020000 		.4byte	0x23f
 1177 023f 0A       		.uleb128 0xa
 1178 0240 9E000000 		.4byte	.LASF45
 1179 0244 1C       		.byte	0x1c
 1180 0245 0A       		.byte	0xa
 1181 0246 9001     		.2byte	0x190
 1182 0248 9B020000 		.4byte	0x29b
 1183 024c 08       		.uleb128 0x8
 1184 024d CB020000 		.4byte	.LASF46
 1185 0251 0A       		.byte	0xa
 1186 0252 9101     		.2byte	0x191
 1187 0254 04020000 		.4byte	0x204
 1188 0258 00       		.byte	0
 1189 0259 08       		.uleb128 0x8
 1190 025a 16010000 		.4byte	.LASF47
 1191 025e 0A       		.byte	0xa
 1192 025f 9201     		.2byte	0x192
 1193 0261 EB000000 		.4byte	0xeb
 1194 0265 08       		.byte	0x8
 1195 0266 08       		.uleb128 0x8
 1196 0267 04060000 		.4byte	.LASF48
 1197 026b 0A       		.byte	0xa
 1198 026c 9401     		.2byte	0x194
 1199 026e FE030000 		.4byte	0x3fe
 1200 0272 0C       		.byte	0xc
 1201 0273 08       		.uleb128 0x8
 1202 0274 D3020000 		.4byte	.LASF49
 1203 0278 0A       		.byte	0xa
 1204 0279 9701     		.2byte	0x197
 1205 027b DA010000 		.4byte	0x1da
 1206 027f 10       		.byte	0x10
 1207 0280 08       		.uleb128 0x8
 1208 0281 E4030000 		.4byte	.LASF50
ARM GAS  /tmp/ccAqVU6n.s 			page 51


 1209 0285 0A       		.byte	0xa
 1210 0286 9801     		.2byte	0x198
 1211 0288 DA010000 		.4byte	0x1da
 1212 028c 14       		.byte	0x14
 1213 028d 08       		.uleb128 0x8
 1214 028e 67040000 		.4byte	.LASF51
 1215 0292 0A       		.byte	0xa
 1216 0293 9B01     		.2byte	0x19b
 1217 0295 DA010000 		.4byte	0x1da
 1218 0299 18       		.byte	0x18
 1219 029a 00       		.byte	0
 1220 029b 04       		.uleb128 0x4
 1221 029c E0000000 		.4byte	.LASF52
 1222 02a0 09       		.byte	0x9
 1223 02a1 5C       		.byte	0x5c
 1224 02a2 A6020000 		.4byte	0x2a6
 1225 02a6 09       		.uleb128 0x9
 1226 02a7 04       		.byte	0x4
 1227 02a8 AC020000 		.4byte	0x2ac
 1228 02ac 0B       		.uleb128 0xb
 1229 02ad B7020000 		.4byte	0x2b7
 1230 02b1 0C       		.uleb128 0xc
 1231 02b2 B7020000 		.4byte	0x2b7
 1232 02b6 00       		.byte	0
 1233 02b7 0D       		.uleb128 0xd
 1234 02b8 04       		.byte	0x4
 1235 02b9 04       		.uleb128 0x4
 1236 02ba FA020000 		.4byte	.LASF53
 1237 02be 09       		.byte	0x9
 1238 02bf 61       		.byte	0x61
 1239 02c0 C4020000 		.4byte	0x2c4
 1240 02c4 0A       		.uleb128 0xa
 1241 02c5 39010000 		.4byte	.LASF54
 1242 02c9 14       		.byte	0x14
 1243 02ca 0A       		.byte	0xa
 1244 02cb 6B01     		.2byte	0x16b
 1245 02cd 13030000 		.4byte	0x313
 1246 02d1 08       		.uleb128 0x8
 1247 02d2 C4050000 		.4byte	.LASF55
 1248 02d6 0A       		.byte	0xa
 1249 02d7 6C01     		.2byte	0x16c
 1250 02d9 5A050000 		.4byte	0x55a
 1251 02dd 00       		.byte	0
 1252 02de 08       		.uleb128 0x8
 1253 02df 37060000 		.4byte	.LASF56
 1254 02e3 0A       		.byte	0xa
 1255 02e4 6D01     		.2byte	0x16d
 1256 02e6 5A050000 		.4byte	0x55a
 1257 02ea 04       		.byte	0x4
 1258 02eb 08       		.uleb128 0x8
 1259 02ec 16020000 		.4byte	.LASF57
 1260 02f0 0A       		.byte	0xa
 1261 02f1 6E01     		.2byte	0x16e
 1262 02f3 0C010000 		.4byte	0x10c
 1263 02f7 08       		.byte	0x8
 1264 02f8 08       		.uleb128 0x8
 1265 02f9 23060000 		.4byte	.LASF58
ARM GAS  /tmp/ccAqVU6n.s 			page 52


 1266 02fd 0A       		.byte	0xa
 1267 02fe 6F01     		.2byte	0x16f
 1268 0300 9B020000 		.4byte	0x29b
 1269 0304 0C       		.byte	0xc
 1270 0305 08       		.uleb128 0x8
 1271 0306 1D010000 		.4byte	.LASF59
 1272 030a 0A       		.byte	0xa
 1273 030b 7101     		.2byte	0x171
 1274 030d B7020000 		.4byte	0x2b7
 1275 0311 10       		.byte	0x10
 1276 0312 00       		.byte	0
 1277 0313 04       		.uleb128 0x4
 1278 0314 94050000 		.4byte	.LASF60
 1279 0318 09       		.byte	0x9
 1280 0319 66       		.byte	0x66
 1281 031a 1E030000 		.4byte	0x31e
 1282 031e 0A       		.uleb128 0xa
 1283 031f A5010000 		.4byte	.LASF61
 1284 0323 0C       		.byte	0xc
 1285 0324 0A       		.byte	0xa
 1286 0325 7B01     		.2byte	0x17b
 1287 0327 60030000 		.4byte	0x360
 1288 032b 08       		.uleb128 0x8
 1289 032c C4050000 		.4byte	.LASF55
 1290 0330 0A       		.byte	0xa
 1291 0331 7C01     		.2byte	0x17c
 1292 0333 5A050000 		.4byte	0x55a
 1293 0337 00       		.byte	0
 1294 0338 08       		.uleb128 0x8
 1295 0339 37060000 		.4byte	.LASF56
 1296 033d 0A       		.byte	0xa
 1297 033e 7E01     		.2byte	0x17e
 1298 0340 5A050000 		.4byte	0x55a
 1299 0344 04       		.byte	0x4
 1300 0345 08       		.uleb128 0x8
 1301 0346 16020000 		.4byte	.LASF57
 1302 034a 0A       		.byte	0xa
 1303 034b 8001     		.2byte	0x180
 1304 034d 0C010000 		.4byte	0x10c
 1305 0351 08       		.byte	0x8
 1306 0352 08       		.uleb128 0x8
 1307 0353 32020000 		.4byte	.LASF62
 1308 0357 0A       		.byte	0xa
 1309 0358 8801     		.2byte	0x188
 1310 035a 0C010000 		.4byte	0x10c
 1311 035e 0A       		.byte	0xa
 1312 035f 00       		.byte	0
 1313 0360 04       		.uleb128 0x4
 1314 0361 AE020000 		.4byte	.LASF63
 1315 0365 09       		.byte	0x9
 1316 0366 6B       		.byte	0x6b
 1317 0367 6B030000 		.4byte	0x36b
 1318 036b 0A       		.uleb128 0xa
 1319 036c FD000000 		.4byte	.LASF64
 1320 0370 04       		.byte	0x4
 1321 0371 0A       		.byte	0xa
 1322 0372 A201     		.2byte	0x1a2
ARM GAS  /tmp/ccAqVU6n.s 			page 53


 1323 0374 86030000 		.4byte	0x386
 1324 0378 08       		.uleb128 0x8
 1325 0379 FE030000 		.4byte	.LASF65
 1326 037d 0A       		.byte	0xa
 1327 037e AA01     		.2byte	0x1aa
 1328 0380 60050000 		.4byte	0x560
 1329 0384 00       		.byte	0
 1330 0385 00       		.byte	0
 1331 0386 04       		.uleb128 0x4
 1332 0387 CC050000 		.4byte	.LASF66
 1333 038b 09       		.byte	0x9
 1334 038c 70       		.byte	0x70
 1335 038d 91030000 		.4byte	0x391
 1336 0391 0E       		.uleb128 0xe
 1337 0392 BF040000 		.4byte	.LASF67
 1338 0396 2801     		.2byte	0x128
 1339 0398 0A       		.byte	0xa
 1340 0399 C201     		.2byte	0x1c2
 1341 039b E1030000 		.4byte	0x3e1
 1342 039f 08       		.uleb128 0x8
 1343 03a0 DF040000 		.4byte	.LASF68
 1344 03a4 0A       		.byte	0xa
 1345 03a5 C601     		.2byte	0x1c6
 1346 03a7 34020000 		.4byte	0x234
 1347 03ab 00       		.byte	0
 1348 03ac 08       		.uleb128 0x8
 1349 03ad 97000000 		.4byte	.LASF69
 1350 03b1 0A       		.byte	0xa
 1351 03b2 CA01     		.2byte	0x1ca
 1352 03b4 13030000 		.4byte	0x313
 1353 03b8 1C       		.byte	0x1c
 1354 03b9 07       		.uleb128 0x7
 1355 03ba 64626700 		.ascii	"dbg\000"
 1356 03be 0A       		.byte	0xa
 1357 03bf CE01     		.2byte	0x1ce
 1358 03c1 60030000 		.4byte	0x360
 1359 03c5 28       		.byte	0x28
 1360 03c6 08       		.uleb128 0x8
 1361 03c7 21040000 		.4byte	.LASF70
 1362 03cb 0A       		.byte	0xa
 1363 03cc D201     		.2byte	0x1d2
 1364 03ce 17010000 		.4byte	0x117
 1365 03d2 2C       		.byte	0x2c
 1366 03d3 08       		.uleb128 0x8
 1367 03d4 AC000000 		.4byte	.LASF71
 1368 03d8 0A       		.byte	0xa
 1369 03d9 E301     		.2byte	0x1e3
 1370 03db 65050000 		.4byte	0x565
 1371 03df 60       		.byte	0x60
 1372 03e0 00       		.byte	0
 1373 03e1 03       		.uleb128 0x3
 1374 03e2 04       		.byte	0x4
 1375 03e3 07       		.byte	0x7
 1376 03e4 07050000 		.4byte	.LASF72
 1377 03e8 04       		.uleb128 0x4
 1378 03e9 36000000 		.4byte	.LASF73
 1379 03ed 0B       		.byte	0xb
ARM GAS  /tmp/ccAqVU6n.s 			page 54


 1380 03ee 65       		.byte	0x65
 1381 03ef B7020000 		.4byte	0x2b7
 1382 03f3 04       		.uleb128 0x4
 1383 03f4 0A060000 		.4byte	.LASF74
 1384 03f8 0B       		.byte	0xb
 1385 03f9 6D       		.byte	0x6d
 1386 03fa CA000000 		.4byte	0xca
 1387 03fe 05       		.uleb128 0x5
 1388 03ff E1020000 		.4byte	.LASF75
 1389 0403 04       		.byte	0x4
 1390 0404 0B       		.byte	0xb
 1391 0405 89       		.byte	0x89
 1392 0406 17040000 		.4byte	0x417
 1393 040a 0F       		.uleb128 0xf
 1394 040b 72313300 		.ascii	"r13\000"
 1395 040f 0B       		.byte	0xb
 1396 0410 8A       		.byte	0x8a
 1397 0411 89040000 		.4byte	0x489
 1398 0415 00       		.byte	0
 1399 0416 00       		.byte	0
 1400 0417 05       		.uleb128 0x5
 1401 0418 82040000 		.4byte	.LASF76
 1402 041c 24       		.byte	0x24
 1403 041d 01       		.byte	0x1
 1404 041e A4       		.byte	0xa4
 1405 041f 89040000 		.4byte	0x489
 1406 0423 0F       		.uleb128 0xf
 1407 0424 723800   		.ascii	"r8\000"
 1408 0427 01       		.byte	0x1
 1409 0428 A5       		.byte	0xa5
 1410 0429 E8030000 		.4byte	0x3e8
 1411 042d 00       		.byte	0
 1412 042e 0F       		.uleb128 0xf
 1413 042f 723900   		.ascii	"r9\000"
 1414 0432 01       		.byte	0x1
 1415 0433 A6       		.byte	0xa6
 1416 0434 E8030000 		.4byte	0x3e8
 1417 0438 04       		.byte	0x4
 1418 0439 0F       		.uleb128 0xf
 1419 043a 72313000 		.ascii	"r10\000"
 1420 043e 01       		.byte	0x1
 1421 043f A7       		.byte	0xa7
 1422 0440 E8030000 		.4byte	0x3e8
 1423 0444 08       		.byte	0x8
 1424 0445 0F       		.uleb128 0xf
 1425 0446 72313100 		.ascii	"r11\000"
 1426 044a 01       		.byte	0x1
 1427 044b A8       		.byte	0xa8
 1428 044c E8030000 		.4byte	0x3e8
 1429 0450 0C       		.byte	0xc
 1430 0451 0F       		.uleb128 0xf
 1431 0452 723400   		.ascii	"r4\000"
 1432 0455 01       		.byte	0x1
 1433 0456 A9       		.byte	0xa9
 1434 0457 E8030000 		.4byte	0x3e8
 1435 045b 10       		.byte	0x10
 1436 045c 0F       		.uleb128 0xf
ARM GAS  /tmp/ccAqVU6n.s 			page 55


 1437 045d 723500   		.ascii	"r5\000"
 1438 0460 01       		.byte	0x1
 1439 0461 AA       		.byte	0xaa
 1440 0462 E8030000 		.4byte	0x3e8
 1441 0466 14       		.byte	0x14
 1442 0467 0F       		.uleb128 0xf
 1443 0468 723600   		.ascii	"r6\000"
 1444 046b 01       		.byte	0x1
 1445 046c AB       		.byte	0xab
 1446 046d E8030000 		.4byte	0x3e8
 1447 0471 18       		.byte	0x18
 1448 0472 0F       		.uleb128 0xf
 1449 0473 723700   		.ascii	"r7\000"
 1450 0476 01       		.byte	0x1
 1451 0477 AC       		.byte	0xac
 1452 0478 E8030000 		.4byte	0x3e8
 1453 047c 1C       		.byte	0x1c
 1454 047d 0F       		.uleb128 0xf
 1455 047e 6C7200   		.ascii	"lr\000"
 1456 0481 01       		.byte	0x1
 1457 0482 AD       		.byte	0xad
 1458 0483 E8030000 		.4byte	0x3e8
 1459 0487 20       		.byte	0x20
 1460 0488 00       		.byte	0
 1461 0489 09       		.uleb128 0x9
 1462 048a 04       		.byte	0x4
 1463 048b 17040000 		.4byte	0x417
 1464 048f 10       		.uleb128 0x10
 1465 0490 04       		.byte	0x4
 1466 0491 0A       		.byte	0xa
 1467 0492 FA       		.byte	0xfa
 1468 0493 E0040000 		.4byte	0x4e0
 1469 0497 11       		.uleb128 0x11
 1470 0498 CD010000 		.4byte	.LASF77
 1471 049c 0A       		.byte	0xa
 1472 049d 0101     		.2byte	0x101
 1473 049f F6000000 		.4byte	0xf6
 1474 04a3 11       		.uleb128 0x11
 1475 04a4 3F060000 		.4byte	.LASF78
 1476 04a8 0A       		.byte	0xa
 1477 04a9 0801     		.2byte	0x108
 1478 04ab F6000000 		.4byte	0xf6
 1479 04af 11       		.uleb128 0x11
 1480 04b0 86000000 		.4byte	.LASF79
 1481 04b4 0A       		.byte	0xa
 1482 04b5 0F01     		.2byte	0x10f
 1483 04b7 B7020000 		.4byte	0x2b7
 1484 04bb 11       		.uleb128 0x11
 1485 04bc D8050000 		.4byte	.LASF80
 1486 04c0 0A       		.byte	0xa
 1487 04c1 1601     		.2byte	0x116
 1488 04c3 E0040000 		.4byte	0x4e0
 1489 04c7 11       		.uleb128 0x11
 1490 04c8 5E050000 		.4byte	.LASF81
 1491 04cc 0A       		.byte	0xa
 1492 04cd 1E01     		.2byte	0x11e
 1493 04cf 0B050000 		.4byte	0x50b
ARM GAS  /tmp/ccAqVU6n.s 			page 56


 1494 04d3 11       		.uleb128 0x11
 1495 04d4 2A000000 		.4byte	.LASF82
 1496 04d8 0A       		.byte	0xa
 1497 04d9 2701     		.2byte	0x127
 1498 04db 42050000 		.4byte	0x542
 1499 04df 00       		.byte	0
 1500 04e0 09       		.uleb128 0x9
 1501 04e1 04       		.byte	0x4
 1502 04e2 CF010000 		.4byte	0x1cf
 1503 04e6 05       		.uleb128 0x5
 1504 04e7 24010000 		.4byte	.LASF83
 1505 04eb 0C       		.byte	0xc
 1506 04ec 0C       		.byte	0xc
 1507 04ed 34       		.byte	0x34
 1508 04ee 0B050000 		.4byte	0x50b
 1509 04f2 06       		.uleb128 0x6
 1510 04f3 58000000 		.4byte	.LASF84
 1511 04f7 0C       		.byte	0xc
 1512 04f8 35       		.byte	0x35
 1513 04f9 04020000 		.4byte	0x204
 1514 04fd 00       		.byte	0
 1515 04fe 06       		.uleb128 0x6
 1516 04ff F7000000 		.4byte	.LASF85
 1517 0503 0C       		.byte	0xc
 1518 0504 37       		.byte	0x37
 1519 0505 01010000 		.4byte	0x101
 1520 0509 08       		.byte	0x8
 1521 050a 00       		.byte	0
 1522 050b 09       		.uleb128 0x9
 1523 050c 04       		.byte	0x4
 1524 050d E6040000 		.4byte	0x4e6
 1525 0511 05       		.uleb128 0x5
 1526 0512 E8010000 		.4byte	.LASF86
 1527 0516 10       		.byte	0x10
 1528 0517 0D       		.byte	0xd
 1529 0518 39       		.byte	0x39
 1530 0519 42050000 		.4byte	0x542
 1531 051d 06       		.uleb128 0x6
 1532 051e 71040000 		.4byte	.LASF87
 1533 0522 0D       		.byte	0xd
 1534 0523 3A       		.byte	0x3a
 1535 0524 04020000 		.4byte	0x204
 1536 0528 00       		.byte	0
 1537 0529 06       		.uleb128 0x6
 1538 052a 50000000 		.4byte	.LASF88
 1539 052e 0D       		.byte	0xd
 1540 052f 3C       		.byte	0x3c
 1541 0530 DA010000 		.4byte	0x1da
 1542 0534 08       		.byte	0x8
 1543 0535 06       		.uleb128 0x6
 1544 0536 DE050000 		.4byte	.LASF89
 1545 053a 0D       		.byte	0xd
 1546 053b 3E       		.byte	0x3e
 1547 053c 80050000 		.4byte	0x580
 1548 0540 0C       		.byte	0xc
 1549 0541 00       		.byte	0
 1550 0542 09       		.uleb128 0x9
ARM GAS  /tmp/ccAqVU6n.s 			page 57


 1551 0543 04       		.byte	0x4
 1552 0544 11050000 		.4byte	0x511
 1553 0548 09       		.uleb128 0x9
 1554 0549 04       		.byte	0x4
 1555 054a 4E050000 		.4byte	0x54e
 1556 054e 12       		.uleb128 0x12
 1557 054f 53050000 		.4byte	0x553
 1558 0553 03       		.uleb128 0x3
 1559 0554 01       		.byte	0x1
 1560 0555 08       		.byte	0x8
 1561 0556 31000000 		.4byte	.LASF90
 1562 055a 09       		.uleb128 0x9
 1563 055b 04       		.byte	0x4
 1564 055c B9020000 		.4byte	0x2b9
 1565 0560 13       		.uleb128 0x13
 1566 0561 48050000 		.4byte	0x548
 1567 0565 14       		.uleb128 0x14
 1568 0566 F3030000 		.4byte	0x3f3
 1569 056a 75050000 		.4byte	0x575
 1570 056e 15       		.uleb128 0x15
 1571 056f E1030000 		.4byte	0x3e1
 1572 0573 18       		.byte	0x18
 1573 0574 00       		.byte	0
 1574 0575 04       		.uleb128 0x4
 1575 0576 73050000 		.4byte	.LASF91
 1576 057a 0D       		.byte	0xd
 1577 057b 34       		.byte	0x34
 1578 057c 11050000 		.4byte	0x511
 1579 0580 09       		.uleb128 0x9
 1580 0581 04       		.byte	0x4
 1581 0582 75050000 		.4byte	0x575
 1582 0586 03       		.uleb128 0x3
 1583 0587 01       		.byte	0x1
 1584 0588 02       		.byte	0x2
 1585 0589 E2010000 		.4byte	.LASF92
 1586 058d 16       		.uleb128 0x16
 1587 058e 01       		.byte	0x1
 1588 058f 0E       		.byte	0xe
 1589 0590 3F       		.byte	0x3f
 1590 0591 A8050000 		.4byte	0x5a8
 1591 0595 17       		.uleb128 0x17
 1592 0596 18030000 		.4byte	.LASF93
 1593 059a 00       		.sleb128 0
 1594 059b 17       		.uleb128 0x17
 1595 059c F7040000 		.4byte	.LASF94
 1596 05a0 01       		.sleb128 1
 1597 05a1 17       		.uleb128 0x17
 1598 05a2 D9030000 		.4byte	.LASF95
 1599 05a6 02       		.sleb128 2
 1600 05a7 00       		.byte	0
 1601 05a8 04       		.uleb128 0x4
 1602 05a9 16040000 		.4byte	.LASF96
 1603 05ad 0E       		.byte	0xe
 1604 05ae 43       		.byte	0x43
 1605 05af 8D050000 		.4byte	0x58d
 1606 05b3 04       		.uleb128 0x4
 1607 05b4 C0000000 		.4byte	.LASF97
ARM GAS  /tmp/ccAqVU6n.s 			page 58


 1608 05b8 0E       		.byte	0xe
 1609 05b9 48       		.byte	0x48
 1610 05ba BE050000 		.4byte	0x5be
 1611 05be 05       		.uleb128 0x5
 1612 05bf C0000000 		.4byte	.LASF97
 1613 05c3 08       		.byte	0x8
 1614 05c4 0F       		.byte	0xf
 1615 05c5 73       		.byte	0x73
 1616 05c6 E3050000 		.4byte	0x5e3
 1617 05ca 06       		.uleb128 0x6
 1618 05cb B0050000 		.4byte	.LASF98
 1619 05cf 0F       		.byte	0xf
 1620 05d0 77       		.byte	0x77
 1621 05d1 A8050000 		.4byte	0x5a8
 1622 05d5 00       		.byte	0
 1623 05d6 06       		.uleb128 0x6
 1624 05d7 3D040000 		.4byte	.LASF99
 1625 05db 0F       		.byte	0xf
 1626 05dc 7B       		.byte	0x7b
 1627 05dd 70060000 		.4byte	0x670
 1628 05e1 04       		.byte	0x4
 1629 05e2 00       		.byte	0
 1630 05e3 04       		.uleb128 0x4
 1631 05e4 22050000 		.4byte	.LASF100
 1632 05e8 0F       		.byte	0xf
 1633 05e9 49       		.byte	0x49
 1634 05ea BF000000 		.4byte	0xbf
 1635 05ee 04       		.uleb128 0x4
 1636 05ef A0020000 		.4byte	.LASF101
 1637 05f3 0F       		.byte	0xf
 1638 05f4 51       		.byte	0x51
 1639 05f5 F9050000 		.4byte	0x5f9
 1640 05f9 09       		.uleb128 0x9
 1641 05fa 04       		.byte	0x4
 1642 05fb FF050000 		.4byte	0x5ff
 1643 05ff 0B       		.uleb128 0xb
 1644 0600 0F060000 		.4byte	0x60f
 1645 0604 0C       		.uleb128 0xc
 1646 0605 0F060000 		.4byte	0x60f
 1647 0609 0C       		.uleb128 0xc
 1648 060a E3050000 		.4byte	0x5e3
 1649 060e 00       		.byte	0
 1650 060f 09       		.uleb128 0x9
 1651 0610 04       		.byte	0x4
 1652 0611 B3050000 		.4byte	0x5b3
 1653 0615 18       		.uleb128 0x18
 1654 0616 08       		.byte	0x8
 1655 0617 0F       		.byte	0xf
 1656 0618 56       		.byte	0x56
 1657 0619 35060000 		.4byte	0x635
 1658 061d 06       		.uleb128 0x6
 1659 061e BB000000 		.4byte	.LASF102
 1660 0622 0F       		.byte	0xf
 1661 0623 5A       		.byte	0x5a
 1662 0624 BF000000 		.4byte	0xbf
 1663 0628 00       		.byte	0
 1664 0629 0F       		.uleb128 0xf
ARM GAS  /tmp/ccAqVU6n.s 			page 59


 1665 062a 636200   		.ascii	"cb\000"
 1666 062d 0F       		.byte	0xf
 1667 062e 61       		.byte	0x61
 1668 062f EE050000 		.4byte	0x5ee
 1669 0633 04       		.byte	0x4
 1670 0634 00       		.byte	0
 1671 0635 04       		.uleb128 0x4
 1672 0636 A1040000 		.4byte	.LASF103
 1673 063a 0F       		.byte	0xf
 1674 063b 62       		.byte	0x62
 1675 063c 15060000 		.4byte	0x615
 1676 0640 18       		.uleb128 0x18
 1677 0641 A0       		.byte	0xa0
 1678 0642 0F       		.byte	0xf
 1679 0643 68       		.byte	0x68
 1680 0644 55060000 		.4byte	0x655
 1681 0648 06       		.uleb128 0x6
 1682 0649 F1020000 		.4byte	.LASF104
 1683 064d 0F       		.byte	0xf
 1684 064e 6C       		.byte	0x6c
 1685 064f 55060000 		.4byte	0x655
 1686 0653 00       		.byte	0
 1687 0654 00       		.byte	0
 1688 0655 14       		.uleb128 0x14
 1689 0656 35060000 		.4byte	0x635
 1690 065a 65060000 		.4byte	0x665
 1691 065e 15       		.uleb128 0x15
 1692 065f E1030000 		.4byte	0x3e1
 1693 0663 13       		.byte	0x13
 1694 0664 00       		.byte	0
 1695 0665 04       		.uleb128 0x4
 1696 0666 6A020000 		.4byte	.LASF105
 1697 066a 0F       		.byte	0xf
 1698 066b 6E       		.byte	0x6e
 1699 066c 40060000 		.4byte	0x640
 1700 0670 09       		.uleb128 0x9
 1701 0671 04       		.byte	0x4
 1702 0672 76060000 		.4byte	0x676
 1703 0676 12       		.uleb128 0x12
 1704 0677 65060000 		.4byte	0x665
 1705 067b 19       		.uleb128 0x19
 1706 067c D4010000 		.4byte	.LASF106
 1707 0680 02       		.byte	0x2
 1708 0681 5601     		.2byte	0x156
 1709 0683 03       		.byte	0x3
 1710 0684 19       		.uleb128 0x19
 1711 0685 B2040000 		.4byte	.LASF107
 1712 0689 02       		.byte	0x2
 1713 068a 4B01     		.2byte	0x14b
 1714 068c 03       		.byte	0x3
 1715 068d 1A       		.uleb128 0x1a
 1716 068e 8D000000 		.4byte	.LASF108
 1717 0692 01       		.byte	0x1
 1718 0693 4A01     		.2byte	0x14a
 1719 0695 00000000 		.4byte	.LFB38
 1720 0699 04000000 		.4byte	.LFE38-.LFB38
 1721 069d 01       		.uleb128 0x1
ARM GAS  /tmp/ccAqVU6n.s 			page 60


 1722 069e 9C       		.byte	0x9c
 1723 069f B4060000 		.4byte	0x6b4
 1724 06a3 1B       		.uleb128 0x1b
 1725 06a4 7B060000 		.4byte	0x67b
 1726 06a8 00000000 		.4byte	.LBB6
 1727 06ac 02000000 		.4byte	.LBE6-.LBB6
 1728 06b0 01       		.byte	0x1
 1729 06b1 4C01     		.2byte	0x14c
 1730 06b3 00       		.byte	0
 1731 06b4 1A       		.uleb128 0x1a
 1732 06b5 2B060000 		.4byte	.LASF109
 1733 06b9 01       		.byte	0x1
 1734 06ba 5301     		.2byte	0x153
 1735 06bc 00000000 		.4byte	.LFB39
 1736 06c0 04000000 		.4byte	.LFE39-.LFB39
 1737 06c4 01       		.uleb128 0x1
 1738 06c5 9C       		.byte	0x9c
 1739 06c6 DB060000 		.4byte	0x6db
 1740 06ca 1B       		.uleb128 0x1b
 1741 06cb 84060000 		.4byte	0x684
 1742 06cf 00000000 		.4byte	.LBB8
 1743 06d3 02000000 		.4byte	.LBE8-.LBB8
 1744 06d7 01       		.byte	0x1
 1745 06d8 5501     		.2byte	0x155
 1746 06da 00       		.byte	0
 1747 06db 1C       		.uleb128 0x1c
 1748 06dc 05020000 		.4byte	.LASF111
 1749 06e0 03       		.byte	0x3
 1750 06e1 5A01     		.2byte	0x15a
 1751 06e3 00000000 		.4byte	.LFB70
 1752 06e7 08000000 		.4byte	.LFE70-.LFB70
 1753 06eb 01       		.uleb128 0x1
 1754 06ec 9C       		.byte	0x9c
 1755 06ed 1D       		.uleb128 0x1d
 1756 06ee 83010000 		.4byte	.LASF110
 1757 06f2 03       		.byte	0x3
 1758 06f3 6601     		.2byte	0x166
 1759 06f5 00000000 		.4byte	.LFB71
 1760 06f9 08000000 		.4byte	.LFE71-.LFB71
 1761 06fd 01       		.uleb128 0x1
 1762 06fe 9C       		.byte	0x9c
 1763 06ff 0D070000 		.4byte	0x70d
 1764 0703 1E       		.uleb128 0x1e
 1765 0704 0A030000 		.4byte	.LASF117
 1766 0708 1D070000 		.4byte	0x71d
 1767 070c 00       		.byte	0
 1768 070d 14       		.uleb128 0x14
 1769 070e 53050000 		.4byte	0x553
 1770 0712 1D070000 		.4byte	0x71d
 1771 0716 15       		.uleb128 0x15
 1772 0717 E1030000 		.4byte	0x3e1
 1773 071b 0B       		.byte	0xb
 1774 071c 00       		.byte	0
 1775 071d 12       		.uleb128 0x12
 1776 071e 0D070000 		.4byte	0x70d
 1777 0722 1C       		.uleb128 0x1c
 1778 0723 3C050000 		.4byte	.LASF112
ARM GAS  /tmp/ccAqVU6n.s 			page 61


 1779 0727 04       		.byte	0x4
 1780 0728 EB01     		.2byte	0x1eb
 1781 072a 00000000 		.4byte	.LFB123
 1782 072e 08000000 		.4byte	.LFE123-.LFB123
 1783 0732 01       		.uleb128 0x1
 1784 0733 9C       		.byte	0x9c
 1785 0734 1C       		.uleb128 0x1c
 1786 0735 8F010000 		.4byte	.LASF113
 1787 0739 04       		.byte	0x4
 1788 073a F601     		.2byte	0x1f6
 1789 073c 00000000 		.4byte	.LFB124
 1790 0740 08000000 		.4byte	.LFE124-.LFB124
 1791 0744 01       		.uleb128 0x1
 1792 0745 9C       		.byte	0x9c
 1793 0746 1F       		.uleb128 0x1f
 1794 0747 EF040000 		.4byte	.LASF131
 1795 074b 05       		.byte	0x5
 1796 074c 38       		.byte	0x38
 1797 074d 00000000 		.4byte	.LFB149
 1798 0751 08000000 		.4byte	.LFE149-.LFB149
 1799 0755 01       		.uleb128 0x1
 1800 0756 9C       		.byte	0x9c
 1801 0757 20       		.uleb128 0x20
 1802 0758 E9000000 		.4byte	.LASF114
 1803 075c 05       		.byte	0x5
 1804 075d 44       		.byte	0x44
 1805 075e 00000000 		.4byte	.LFB150
 1806 0762 14000000 		.4byte	.LFE150-.LFB150
 1807 0766 01       		.uleb128 0x1
 1808 0767 9C       		.byte	0x9c
 1809 0768 7B070000 		.4byte	0x77b
 1810 076c 21       		.uleb128 0x21
 1811 076d DB000000 		.4byte	.LASF116
 1812 0771 05       		.byte	0x5
 1813 0772 44       		.byte	0x44
 1814 0773 0F060000 		.4byte	0x60f
 1815 0777 02       		.uleb128 0x2
 1816 0778 91       		.byte	0x91
 1817 0779 7C       		.sleb128 -4
 1818 077a 00       		.byte	0
 1819 077b 22       		.uleb128 0x22
 1820 077c FC010000 		.4byte	.LASF115
 1821 0780 05       		.byte	0x5
 1822 0781 54       		.byte	0x54
 1823 0782 00000000 		.4byte	.LFB151
 1824 0786 28000000 		.4byte	.LFE151-.LFB151
 1825 078a 01       		.uleb128 0x1
 1826 078b 9C       		.byte	0x9c
 1827 078c B6070000 		.4byte	0x7b6
 1828 0790 21       		.uleb128 0x21
 1829 0791 DB000000 		.4byte	.LASF116
 1830 0795 05       		.byte	0x5
 1831 0796 54       		.byte	0x54
 1832 0797 0F060000 		.4byte	0x60f
 1833 079b 02       		.uleb128 0x2
 1834 079c 91       		.byte	0x91
 1835 079d 74       		.sleb128 -12
ARM GAS  /tmp/ccAqVU6n.s 			page 62


 1836 079e 21       		.uleb128 0x21
 1837 079f 3D040000 		.4byte	.LASF99
 1838 07a3 05       		.byte	0x5
 1839 07a4 54       		.byte	0x54
 1840 07a5 70060000 		.4byte	0x670
 1841 07a9 02       		.uleb128 0x2
 1842 07aa 91       		.byte	0x91
 1843 07ab 70       		.sleb128 -16
 1844 07ac 1E       		.uleb128 0x1e
 1845 07ad 44040000 		.4byte	.LASF118
 1846 07b1 C6070000 		.4byte	0x7c6
 1847 07b5 00       		.byte	0
 1848 07b6 14       		.uleb128 0x14
 1849 07b7 53050000 		.4byte	0x553
 1850 07bb C6070000 		.4byte	0x7c6
 1851 07bf 15       		.uleb128 0x15
 1852 07c0 E1030000 		.4byte	0x3e1
 1853 07c4 08       		.byte	0x8
 1854 07c5 00       		.byte	0
 1855 07c6 12       		.uleb128 0x12
 1856 07c7 B6070000 		.4byte	0x7b6
 1857 07cb 22       		.uleb128 0x22
 1858 07cc BC010000 		.4byte	.LASF119
 1859 07d0 05       		.byte	0x5
 1860 07d1 68       		.byte	0x68
 1861 07d2 00000000 		.4byte	.LFB152
 1862 07d6 20000000 		.4byte	.LFE152-.LFB152
 1863 07da 01       		.uleb128 0x1
 1864 07db 9C       		.byte	0x9c
 1865 07dc F8070000 		.4byte	0x7f8
 1866 07e0 21       		.uleb128 0x21
 1867 07e1 DB000000 		.4byte	.LASF116
 1868 07e5 05       		.byte	0x5
 1869 07e6 68       		.byte	0x68
 1870 07e7 0F060000 		.4byte	0x60f
 1871 07eb 02       		.uleb128 0x2
 1872 07ec 91       		.byte	0x91
 1873 07ed 74       		.sleb128 -12
 1874 07ee 1E       		.uleb128 0x1e
 1875 07ef 50050000 		.4byte	.LASF120
 1876 07f3 08080000 		.4byte	0x808
 1877 07f7 00       		.byte	0
 1878 07f8 14       		.uleb128 0x14
 1879 07f9 53050000 		.4byte	0x553
 1880 07fd 08080000 		.4byte	0x808
 1881 0801 15       		.uleb128 0x15
 1882 0802 E1030000 		.4byte	0x3e1
 1883 0806 07       		.byte	0x7
 1884 0807 00       		.byte	0
 1885 0808 12       		.uleb128 0x12
 1886 0809 F8070000 		.4byte	0x7f8
 1887 080d 22       		.uleb128 0x22
 1888 080e 61010000 		.4byte	.LASF121
 1889 0812 05       		.byte	0x5
 1890 0813 7D       		.byte	0x7d
 1891 0814 00000000 		.4byte	.LFB153
 1892 0818 20000000 		.4byte	.LFE153-.LFB153
ARM GAS  /tmp/ccAqVU6n.s 			page 63


 1893 081c 01       		.uleb128 0x1
 1894 081d 9C       		.byte	0x9c
 1895 081e 48080000 		.4byte	0x848
 1896 0822 21       		.uleb128 0x21
 1897 0823 DB000000 		.4byte	.LASF116
 1898 0827 05       		.byte	0x5
 1899 0828 7D       		.byte	0x7d
 1900 0829 0F060000 		.4byte	0x60f
 1901 082d 02       		.uleb128 0x2
 1902 082e 91       		.byte	0x91
 1903 082f 74       		.sleb128 -12
 1904 0830 21       		.uleb128 0x21
 1905 0831 35040000 		.4byte	.LASF122
 1906 0835 05       		.byte	0x5
 1907 0836 7D       		.byte	0x7d
 1908 0837 E3050000 		.4byte	0x5e3
 1909 083b 02       		.uleb128 0x2
 1910 083c 91       		.byte	0x91
 1911 083d 70       		.sleb128 -16
 1912 083e 1E       		.uleb128 0x1e
 1913 083f 65050000 		.4byte	.LASF123
 1914 0843 58080000 		.4byte	0x858
 1915 0847 00       		.byte	0
 1916 0848 14       		.uleb128 0x14
 1917 0849 53050000 		.4byte	0x553
 1918 084d 58080000 		.4byte	0x858
 1919 0851 15       		.uleb128 0x15
 1920 0852 E1030000 		.4byte	0x3e1
 1921 0856 10       		.byte	0x10
 1922 0857 00       		.byte	0
 1923 0858 12       		.uleb128 0x12
 1924 0859 48080000 		.4byte	0x848
 1925 085d 22       		.uleb128 0x22
 1926 085e EC030000 		.4byte	.LASF124
 1927 0862 05       		.byte	0x5
 1928 0863 93       		.byte	0x93
 1929 0864 00000000 		.4byte	.LFB154
 1930 0868 20000000 		.4byte	.LFE154-.LFB154
 1931 086c 01       		.uleb128 0x1
 1932 086d 9C       		.byte	0x9c
 1933 086e 98080000 		.4byte	0x898
 1934 0872 21       		.uleb128 0x21
 1935 0873 DB000000 		.4byte	.LASF116
 1936 0877 05       		.byte	0x5
 1937 0878 93       		.byte	0x93
 1938 0879 0F060000 		.4byte	0x60f
 1939 087d 02       		.uleb128 0x2
 1940 087e 91       		.byte	0x91
 1941 087f 74       		.sleb128 -12
 1942 0880 21       		.uleb128 0x21
 1943 0881 35040000 		.4byte	.LASF122
 1944 0885 05       		.byte	0x5
 1945 0886 93       		.byte	0x93
 1946 0887 E3050000 		.4byte	0x5e3
 1947 088b 02       		.uleb128 0x2
 1948 088c 91       		.byte	0x91
 1949 088d 70       		.sleb128 -16
ARM GAS  /tmp/ccAqVU6n.s 			page 64


 1950 088e 1E       		.uleb128 0x1e
 1951 088f B6050000 		.4byte	.LASF125
 1952 0893 A8080000 		.4byte	0x8a8
 1953 0897 00       		.byte	0
 1954 0898 14       		.uleb128 0x14
 1955 0899 53050000 		.4byte	0x553
 1956 089d A8080000 		.4byte	0x8a8
 1957 08a1 15       		.uleb128 0x15
 1958 08a2 E1030000 		.4byte	0x3e1
 1959 08a6 11       		.byte	0x11
 1960 08a7 00       		.byte	0
 1961 08a8 12       		.uleb128 0x12
 1962 08a9 98080000 		.4byte	0x898
 1963 08ad 22       		.uleb128 0x22
 1964 08ae 8E040000 		.4byte	.LASF126
 1965 08b2 05       		.byte	0x5
 1966 08b3 B1       		.byte	0xb1
 1967 08b4 00000000 		.4byte	.LFB155
 1968 08b8 2E000000 		.4byte	.LFE155-.LFB155
 1969 08bc 01       		.uleb128 0x1
 1970 08bd 9C       		.byte	0x9c
 1971 08be 04090000 		.4byte	0x904
 1972 08c2 21       		.uleb128 0x21
 1973 08c3 DB000000 		.4byte	.LASF116
 1974 08c7 05       		.byte	0x5
 1975 08c8 B1       		.byte	0xb1
 1976 08c9 0F060000 		.4byte	0x60f
 1977 08cd 02       		.uleb128 0x2
 1978 08ce 91       		.byte	0x91
 1979 08cf 6C       		.sleb128 -20
 1980 08d0 21       		.uleb128 0x21
 1981 08d1 35040000 		.4byte	.LASF122
 1982 08d5 05       		.byte	0x5
 1983 08d6 B2       		.byte	0xb2
 1984 08d7 E3050000 		.4byte	0x5e3
 1985 08db 02       		.uleb128 0x2
 1986 08dc 91       		.byte	0x91
 1987 08dd 68       		.sleb128 -24
 1988 08de 21       		.uleb128 0x21
 1989 08df 08040000 		.4byte	.LASF127
 1990 08e3 05       		.byte	0x5
 1991 08e4 B3       		.byte	0xb3
 1992 08e5 04090000 		.4byte	0x904
 1993 08e9 02       		.uleb128 0x2
 1994 08ea 91       		.byte	0x91
 1995 08eb 64       		.sleb128 -28
 1996 08ec 23       		.uleb128 0x23
 1997 08ed AA050000 		.4byte	.LASF132
 1998 08f1 05       		.byte	0x5
 1999 08f2 B4       		.byte	0xb4
 2000 08f3 0F090000 		.4byte	0x90f
 2001 08f7 02       		.uleb128 0x2
 2002 08f8 91       		.byte	0x91
 2003 08f9 74       		.sleb128 -12
 2004 08fa 1E       		.uleb128 0x1e
 2005 08fb 15060000 		.4byte	.LASF128
 2006 08ff 25090000 		.4byte	0x925
ARM GAS  /tmp/ccAqVU6n.s 			page 65


 2007 0903 00       		.byte	0
 2008 0904 09       		.uleb128 0x9
 2009 0905 04       		.byte	0x4
 2010 0906 0A090000 		.4byte	0x90a
 2011 090a 12       		.uleb128 0x12
 2012 090b 35060000 		.4byte	0x635
 2013 090f 09       		.uleb128 0x9
 2014 0910 04       		.byte	0x4
 2015 0911 35060000 		.4byte	0x635
 2016 0915 14       		.uleb128 0x14
 2017 0916 53050000 		.4byte	0x553
 2018 091a 25090000 		.4byte	0x925
 2019 091e 15       		.uleb128 0x15
 2020 091f E1030000 		.4byte	0x3e1
 2021 0923 12       		.byte	0x12
 2022 0924 00       		.byte	0
 2023 0925 12       		.uleb128 0x12
 2024 0926 15090000 		.4byte	0x915
 2025 092a 24       		.uleb128 0x24
 2026 092b 636800   		.ascii	"ch\000"
 2027 092e 0A       		.byte	0xa
 2028 092f 0902     		.2byte	0x209
 2029 0931 86030000 		.4byte	0x386
 2030 0935 00       		.byte	0
 2031              		.section	.debug_abbrev,"",%progbits
 2032              	.Ldebug_abbrev0:
 2033 0000 01       		.uleb128 0x1
 2034 0001 11       		.uleb128 0x11
 2035 0002 01       		.byte	0x1
 2036 0003 25       		.uleb128 0x25
 2037 0004 0E       		.uleb128 0xe
 2038 0005 13       		.uleb128 0x13
 2039 0006 0B       		.uleb128 0xb
 2040 0007 03       		.uleb128 0x3
 2041 0008 0E       		.uleb128 0xe
 2042 0009 55       		.uleb128 0x55
 2043 000a 17       		.uleb128 0x17
 2044 000b 11       		.uleb128 0x11
 2045 000c 01       		.uleb128 0x1
 2046 000d 10       		.uleb128 0x10
 2047 000e 17       		.uleb128 0x17
 2048 000f 00       		.byte	0
 2049 0010 00       		.byte	0
 2050 0011 02       		.uleb128 0x2
 2051 0012 24       		.uleb128 0x24
 2052 0013 00       		.byte	0
 2053 0014 0B       		.uleb128 0xb
 2054 0015 0B       		.uleb128 0xb
 2055 0016 3E       		.uleb128 0x3e
 2056 0017 0B       		.uleb128 0xb
 2057 0018 03       		.uleb128 0x3
 2058 0019 08       		.uleb128 0x8
 2059 001a 00       		.byte	0
 2060 001b 00       		.byte	0
 2061 001c 03       		.uleb128 0x3
 2062 001d 24       		.uleb128 0x24
 2063 001e 00       		.byte	0
ARM GAS  /tmp/ccAqVU6n.s 			page 66


 2064 001f 0B       		.uleb128 0xb
 2065 0020 0B       		.uleb128 0xb
 2066 0021 3E       		.uleb128 0x3e
 2067 0022 0B       		.uleb128 0xb
 2068 0023 03       		.uleb128 0x3
 2069 0024 0E       		.uleb128 0xe
 2070 0025 00       		.byte	0
 2071 0026 00       		.byte	0
 2072 0027 04       		.uleb128 0x4
 2073 0028 16       		.uleb128 0x16
 2074 0029 00       		.byte	0
 2075 002a 03       		.uleb128 0x3
 2076 002b 0E       		.uleb128 0xe
 2077 002c 3A       		.uleb128 0x3a
 2078 002d 0B       		.uleb128 0xb
 2079 002e 3B       		.uleb128 0x3b
 2080 002f 0B       		.uleb128 0xb
 2081 0030 49       		.uleb128 0x49
 2082 0031 13       		.uleb128 0x13
 2083 0032 00       		.byte	0
 2084 0033 00       		.byte	0
 2085 0034 05       		.uleb128 0x5
 2086 0035 13       		.uleb128 0x13
 2087 0036 01       		.byte	0x1
 2088 0037 03       		.uleb128 0x3
 2089 0038 0E       		.uleb128 0xe
 2090 0039 0B       		.uleb128 0xb
 2091 003a 0B       		.uleb128 0xb
 2092 003b 3A       		.uleb128 0x3a
 2093 003c 0B       		.uleb128 0xb
 2094 003d 3B       		.uleb128 0x3b
 2095 003e 0B       		.uleb128 0xb
 2096 003f 01       		.uleb128 0x1
 2097 0040 13       		.uleb128 0x13
 2098 0041 00       		.byte	0
 2099 0042 00       		.byte	0
 2100 0043 06       		.uleb128 0x6
 2101 0044 0D       		.uleb128 0xd
 2102 0045 00       		.byte	0
 2103 0046 03       		.uleb128 0x3
 2104 0047 0E       		.uleb128 0xe
 2105 0048 3A       		.uleb128 0x3a
 2106 0049 0B       		.uleb128 0xb
 2107 004a 3B       		.uleb128 0x3b
 2108 004b 0B       		.uleb128 0xb
 2109 004c 49       		.uleb128 0x49
 2110 004d 13       		.uleb128 0x13
 2111 004e 38       		.uleb128 0x38
 2112 004f 0B       		.uleb128 0xb
 2113 0050 00       		.byte	0
 2114 0051 00       		.byte	0
 2115 0052 07       		.uleb128 0x7
 2116 0053 0D       		.uleb128 0xd
 2117 0054 00       		.byte	0
 2118 0055 03       		.uleb128 0x3
 2119 0056 08       		.uleb128 0x8
 2120 0057 3A       		.uleb128 0x3a
ARM GAS  /tmp/ccAqVU6n.s 			page 67


 2121 0058 0B       		.uleb128 0xb
 2122 0059 3B       		.uleb128 0x3b
 2123 005a 05       		.uleb128 0x5
 2124 005b 49       		.uleb128 0x49
 2125 005c 13       		.uleb128 0x13
 2126 005d 38       		.uleb128 0x38
 2127 005e 0B       		.uleb128 0xb
 2128 005f 00       		.byte	0
 2129 0060 00       		.byte	0
 2130 0061 08       		.uleb128 0x8
 2131 0062 0D       		.uleb128 0xd
 2132 0063 00       		.byte	0
 2133 0064 03       		.uleb128 0x3
 2134 0065 0E       		.uleb128 0xe
 2135 0066 3A       		.uleb128 0x3a
 2136 0067 0B       		.uleb128 0xb
 2137 0068 3B       		.uleb128 0x3b
 2138 0069 05       		.uleb128 0x5
 2139 006a 49       		.uleb128 0x49
 2140 006b 13       		.uleb128 0x13
 2141 006c 38       		.uleb128 0x38
 2142 006d 0B       		.uleb128 0xb
 2143 006e 00       		.byte	0
 2144 006f 00       		.byte	0
 2145 0070 09       		.uleb128 0x9
 2146 0071 0F       		.uleb128 0xf
 2147 0072 00       		.byte	0
 2148 0073 0B       		.uleb128 0xb
 2149 0074 0B       		.uleb128 0xb
 2150 0075 49       		.uleb128 0x49
 2151 0076 13       		.uleb128 0x13
 2152 0077 00       		.byte	0
 2153 0078 00       		.byte	0
 2154 0079 0A       		.uleb128 0xa
 2155 007a 13       		.uleb128 0x13
 2156 007b 01       		.byte	0x1
 2157 007c 03       		.uleb128 0x3
 2158 007d 0E       		.uleb128 0xe
 2159 007e 0B       		.uleb128 0xb
 2160 007f 0B       		.uleb128 0xb
 2161 0080 3A       		.uleb128 0x3a
 2162 0081 0B       		.uleb128 0xb
 2163 0082 3B       		.uleb128 0x3b
 2164 0083 05       		.uleb128 0x5
 2165 0084 01       		.uleb128 0x1
 2166 0085 13       		.uleb128 0x13
 2167 0086 00       		.byte	0
 2168 0087 00       		.byte	0
 2169 0088 0B       		.uleb128 0xb
 2170 0089 15       		.uleb128 0x15
 2171 008a 01       		.byte	0x1
 2172 008b 27       		.uleb128 0x27
 2173 008c 19       		.uleb128 0x19
 2174 008d 01       		.uleb128 0x1
 2175 008e 13       		.uleb128 0x13
 2176 008f 00       		.byte	0
 2177 0090 00       		.byte	0
ARM GAS  /tmp/ccAqVU6n.s 			page 68


 2178 0091 0C       		.uleb128 0xc
 2179 0092 05       		.uleb128 0x5
 2180 0093 00       		.byte	0
 2181 0094 49       		.uleb128 0x49
 2182 0095 13       		.uleb128 0x13
 2183 0096 00       		.byte	0
 2184 0097 00       		.byte	0
 2185 0098 0D       		.uleb128 0xd
 2186 0099 0F       		.uleb128 0xf
 2187 009a 00       		.byte	0
 2188 009b 0B       		.uleb128 0xb
 2189 009c 0B       		.uleb128 0xb
 2190 009d 00       		.byte	0
 2191 009e 00       		.byte	0
 2192 009f 0E       		.uleb128 0xe
 2193 00a0 13       		.uleb128 0x13
 2194 00a1 01       		.byte	0x1
 2195 00a2 03       		.uleb128 0x3
 2196 00a3 0E       		.uleb128 0xe
 2197 00a4 0B       		.uleb128 0xb
 2198 00a5 05       		.uleb128 0x5
 2199 00a6 3A       		.uleb128 0x3a
 2200 00a7 0B       		.uleb128 0xb
 2201 00a8 3B       		.uleb128 0x3b
 2202 00a9 05       		.uleb128 0x5
 2203 00aa 01       		.uleb128 0x1
 2204 00ab 13       		.uleb128 0x13
 2205 00ac 00       		.byte	0
 2206 00ad 00       		.byte	0
 2207 00ae 0F       		.uleb128 0xf
 2208 00af 0D       		.uleb128 0xd
 2209 00b0 00       		.byte	0
 2210 00b1 03       		.uleb128 0x3
 2211 00b2 08       		.uleb128 0x8
 2212 00b3 3A       		.uleb128 0x3a
 2213 00b4 0B       		.uleb128 0xb
 2214 00b5 3B       		.uleb128 0x3b
 2215 00b6 0B       		.uleb128 0xb
 2216 00b7 49       		.uleb128 0x49
 2217 00b8 13       		.uleb128 0x13
 2218 00b9 38       		.uleb128 0x38
 2219 00ba 0B       		.uleb128 0xb
 2220 00bb 00       		.byte	0
 2221 00bc 00       		.byte	0
 2222 00bd 10       		.uleb128 0x10
 2223 00be 17       		.uleb128 0x17
 2224 00bf 01       		.byte	0x1
 2225 00c0 0B       		.uleb128 0xb
 2226 00c1 0B       		.uleb128 0xb
 2227 00c2 3A       		.uleb128 0x3a
 2228 00c3 0B       		.uleb128 0xb
 2229 00c4 3B       		.uleb128 0x3b
 2230 00c5 0B       		.uleb128 0xb
 2231 00c6 01       		.uleb128 0x1
 2232 00c7 13       		.uleb128 0x13
 2233 00c8 00       		.byte	0
 2234 00c9 00       		.byte	0
ARM GAS  /tmp/ccAqVU6n.s 			page 69


 2235 00ca 11       		.uleb128 0x11
 2236 00cb 0D       		.uleb128 0xd
 2237 00cc 00       		.byte	0
 2238 00cd 03       		.uleb128 0x3
 2239 00ce 0E       		.uleb128 0xe
 2240 00cf 3A       		.uleb128 0x3a
 2241 00d0 0B       		.uleb128 0xb
 2242 00d1 3B       		.uleb128 0x3b
 2243 00d2 05       		.uleb128 0x5
 2244 00d3 49       		.uleb128 0x49
 2245 00d4 13       		.uleb128 0x13
 2246 00d5 00       		.byte	0
 2247 00d6 00       		.byte	0
 2248 00d7 12       		.uleb128 0x12
 2249 00d8 26       		.uleb128 0x26
 2250 00d9 00       		.byte	0
 2251 00da 49       		.uleb128 0x49
 2252 00db 13       		.uleb128 0x13
 2253 00dc 00       		.byte	0
 2254 00dd 00       		.byte	0
 2255 00de 13       		.uleb128 0x13
 2256 00df 35       		.uleb128 0x35
 2257 00e0 00       		.byte	0
 2258 00e1 49       		.uleb128 0x49
 2259 00e2 13       		.uleb128 0x13
 2260 00e3 00       		.byte	0
 2261 00e4 00       		.byte	0
 2262 00e5 14       		.uleb128 0x14
 2263 00e6 01       		.uleb128 0x1
 2264 00e7 01       		.byte	0x1
 2265 00e8 49       		.uleb128 0x49
 2266 00e9 13       		.uleb128 0x13
 2267 00ea 01       		.uleb128 0x1
 2268 00eb 13       		.uleb128 0x13
 2269 00ec 00       		.byte	0
 2270 00ed 00       		.byte	0
 2271 00ee 15       		.uleb128 0x15
 2272 00ef 21       		.uleb128 0x21
 2273 00f0 00       		.byte	0
 2274 00f1 49       		.uleb128 0x49
 2275 00f2 13       		.uleb128 0x13
 2276 00f3 2F       		.uleb128 0x2f
 2277 00f4 0B       		.uleb128 0xb
 2278 00f5 00       		.byte	0
 2279 00f6 00       		.byte	0
 2280 00f7 16       		.uleb128 0x16
 2281 00f8 04       		.uleb128 0x4
 2282 00f9 01       		.byte	0x1
 2283 00fa 0B       		.uleb128 0xb
 2284 00fb 0B       		.uleb128 0xb
 2285 00fc 3A       		.uleb128 0x3a
 2286 00fd 0B       		.uleb128 0xb
 2287 00fe 3B       		.uleb128 0x3b
 2288 00ff 0B       		.uleb128 0xb
 2289 0100 01       		.uleb128 0x1
 2290 0101 13       		.uleb128 0x13
 2291 0102 00       		.byte	0
ARM GAS  /tmp/ccAqVU6n.s 			page 70


 2292 0103 00       		.byte	0
 2293 0104 17       		.uleb128 0x17
 2294 0105 28       		.uleb128 0x28
 2295 0106 00       		.byte	0
 2296 0107 03       		.uleb128 0x3
 2297 0108 0E       		.uleb128 0xe
 2298 0109 1C       		.uleb128 0x1c
 2299 010a 0D       		.uleb128 0xd
 2300 010b 00       		.byte	0
 2301 010c 00       		.byte	0
 2302 010d 18       		.uleb128 0x18
 2303 010e 13       		.uleb128 0x13
 2304 010f 01       		.byte	0x1
 2305 0110 0B       		.uleb128 0xb
 2306 0111 0B       		.uleb128 0xb
 2307 0112 3A       		.uleb128 0x3a
 2308 0113 0B       		.uleb128 0xb
 2309 0114 3B       		.uleb128 0x3b
 2310 0115 0B       		.uleb128 0xb
 2311 0116 01       		.uleb128 0x1
 2312 0117 13       		.uleb128 0x13
 2313 0118 00       		.byte	0
 2314 0119 00       		.byte	0
 2315 011a 19       		.uleb128 0x19
 2316 011b 2E       		.uleb128 0x2e
 2317 011c 00       		.byte	0
 2318 011d 03       		.uleb128 0x3
 2319 011e 0E       		.uleb128 0xe
 2320 011f 3A       		.uleb128 0x3a
 2321 0120 0B       		.uleb128 0xb
 2322 0121 3B       		.uleb128 0x3b
 2323 0122 05       		.uleb128 0x5
 2324 0123 27       		.uleb128 0x27
 2325 0124 19       		.uleb128 0x19
 2326 0125 20       		.uleb128 0x20
 2327 0126 0B       		.uleb128 0xb
 2328 0127 00       		.byte	0
 2329 0128 00       		.byte	0
 2330 0129 1A       		.uleb128 0x1a
 2331 012a 2E       		.uleb128 0x2e
 2332 012b 01       		.byte	0x1
 2333 012c 03       		.uleb128 0x3
 2334 012d 0E       		.uleb128 0xe
 2335 012e 3A       		.uleb128 0x3a
 2336 012f 0B       		.uleb128 0xb
 2337 0130 3B       		.uleb128 0x3b
 2338 0131 05       		.uleb128 0x5
 2339 0132 27       		.uleb128 0x27
 2340 0133 19       		.uleb128 0x19
 2341 0134 11       		.uleb128 0x11
 2342 0135 01       		.uleb128 0x1
 2343 0136 12       		.uleb128 0x12
 2344 0137 06       		.uleb128 0x6
 2345 0138 40       		.uleb128 0x40
 2346 0139 18       		.uleb128 0x18
 2347 013a 9742     		.uleb128 0x2117
 2348 013c 19       		.uleb128 0x19
ARM GAS  /tmp/ccAqVU6n.s 			page 71


 2349 013d 01       		.uleb128 0x1
 2350 013e 13       		.uleb128 0x13
 2351 013f 00       		.byte	0
 2352 0140 00       		.byte	0
 2353 0141 1B       		.uleb128 0x1b
 2354 0142 1D       		.uleb128 0x1d
 2355 0143 00       		.byte	0
 2356 0144 31       		.uleb128 0x31
 2357 0145 13       		.uleb128 0x13
 2358 0146 11       		.uleb128 0x11
 2359 0147 01       		.uleb128 0x1
 2360 0148 12       		.uleb128 0x12
 2361 0149 06       		.uleb128 0x6
 2362 014a 58       		.uleb128 0x58
 2363 014b 0B       		.uleb128 0xb
 2364 014c 59       		.uleb128 0x59
 2365 014d 05       		.uleb128 0x5
 2366 014e 00       		.byte	0
 2367 014f 00       		.byte	0
 2368 0150 1C       		.uleb128 0x1c
 2369 0151 2E       		.uleb128 0x2e
 2370 0152 00       		.byte	0
 2371 0153 03       		.uleb128 0x3
 2372 0154 0E       		.uleb128 0xe
 2373 0155 3A       		.uleb128 0x3a
 2374 0156 0B       		.uleb128 0xb
 2375 0157 3B       		.uleb128 0x3b
 2376 0158 05       		.uleb128 0x5
 2377 0159 27       		.uleb128 0x27
 2378 015a 19       		.uleb128 0x19
 2379 015b 11       		.uleb128 0x11
 2380 015c 01       		.uleb128 0x1
 2381 015d 12       		.uleb128 0x12
 2382 015e 06       		.uleb128 0x6
 2383 015f 40       		.uleb128 0x40
 2384 0160 18       		.uleb128 0x18
 2385 0161 9642     		.uleb128 0x2116
 2386 0163 19       		.uleb128 0x19
 2387 0164 00       		.byte	0
 2388 0165 00       		.byte	0
 2389 0166 1D       		.uleb128 0x1d
 2390 0167 2E       		.uleb128 0x2e
 2391 0168 01       		.byte	0x1
 2392 0169 03       		.uleb128 0x3
 2393 016a 0E       		.uleb128 0xe
 2394 016b 3A       		.uleb128 0x3a
 2395 016c 0B       		.uleb128 0xb
 2396 016d 3B       		.uleb128 0x3b
 2397 016e 05       		.uleb128 0x5
 2398 016f 27       		.uleb128 0x27
 2399 0170 19       		.uleb128 0x19
 2400 0171 11       		.uleb128 0x11
 2401 0172 01       		.uleb128 0x1
 2402 0173 12       		.uleb128 0x12
 2403 0174 06       		.uleb128 0x6
 2404 0175 40       		.uleb128 0x40
 2405 0176 18       		.uleb128 0x18
ARM GAS  /tmp/ccAqVU6n.s 			page 72


 2406 0177 9642     		.uleb128 0x2116
 2407 0179 19       		.uleb128 0x19
 2408 017a 01       		.uleb128 0x1
 2409 017b 13       		.uleb128 0x13
 2410 017c 00       		.byte	0
 2411 017d 00       		.byte	0
 2412 017e 1E       		.uleb128 0x1e
 2413 017f 34       		.uleb128 0x34
 2414 0180 00       		.byte	0
 2415 0181 03       		.uleb128 0x3
 2416 0182 0E       		.uleb128 0xe
 2417 0183 49       		.uleb128 0x49
 2418 0184 13       		.uleb128 0x13
 2419 0185 34       		.uleb128 0x34
 2420 0186 19       		.uleb128 0x19
 2421 0187 00       		.byte	0
 2422 0188 00       		.byte	0
 2423 0189 1F       		.uleb128 0x1f
 2424 018a 2E       		.uleb128 0x2e
 2425 018b 00       		.byte	0
 2426 018c 3F       		.uleb128 0x3f
 2427 018d 19       		.uleb128 0x19
 2428 018e 03       		.uleb128 0x3
 2429 018f 0E       		.uleb128 0xe
 2430 0190 3A       		.uleb128 0x3a
 2431 0191 0B       		.uleb128 0xb
 2432 0192 3B       		.uleb128 0x3b
 2433 0193 0B       		.uleb128 0xb
 2434 0194 27       		.uleb128 0x27
 2435 0195 19       		.uleb128 0x19
 2436 0196 11       		.uleb128 0x11
 2437 0197 01       		.uleb128 0x1
 2438 0198 12       		.uleb128 0x12
 2439 0199 06       		.uleb128 0x6
 2440 019a 40       		.uleb128 0x40
 2441 019b 18       		.uleb128 0x18
 2442 019c 9642     		.uleb128 0x2116
 2443 019e 19       		.uleb128 0x19
 2444 019f 00       		.byte	0
 2445 01a0 00       		.byte	0
 2446 01a1 20       		.uleb128 0x20
 2447 01a2 2E       		.uleb128 0x2e
 2448 01a3 01       		.byte	0x1
 2449 01a4 3F       		.uleb128 0x3f
 2450 01a5 19       		.uleb128 0x19
 2451 01a6 03       		.uleb128 0x3
 2452 01a7 0E       		.uleb128 0xe
 2453 01a8 3A       		.uleb128 0x3a
 2454 01a9 0B       		.uleb128 0xb
 2455 01aa 3B       		.uleb128 0x3b
 2456 01ab 0B       		.uleb128 0xb
 2457 01ac 27       		.uleb128 0x27
 2458 01ad 19       		.uleb128 0x19
 2459 01ae 11       		.uleb128 0x11
 2460 01af 01       		.uleb128 0x1
 2461 01b0 12       		.uleb128 0x12
 2462 01b1 06       		.uleb128 0x6
ARM GAS  /tmp/ccAqVU6n.s 			page 73


 2463 01b2 40       		.uleb128 0x40
 2464 01b3 18       		.uleb128 0x18
 2465 01b4 9742     		.uleb128 0x2117
 2466 01b6 19       		.uleb128 0x19
 2467 01b7 01       		.uleb128 0x1
 2468 01b8 13       		.uleb128 0x13
 2469 01b9 00       		.byte	0
 2470 01ba 00       		.byte	0
 2471 01bb 21       		.uleb128 0x21
 2472 01bc 05       		.uleb128 0x5
 2473 01bd 00       		.byte	0
 2474 01be 03       		.uleb128 0x3
 2475 01bf 0E       		.uleb128 0xe
 2476 01c0 3A       		.uleb128 0x3a
 2477 01c1 0B       		.uleb128 0xb
 2478 01c2 3B       		.uleb128 0x3b
 2479 01c3 0B       		.uleb128 0xb
 2480 01c4 49       		.uleb128 0x49
 2481 01c5 13       		.uleb128 0x13
 2482 01c6 02       		.uleb128 0x2
 2483 01c7 18       		.uleb128 0x18
 2484 01c8 00       		.byte	0
 2485 01c9 00       		.byte	0
 2486 01ca 22       		.uleb128 0x22
 2487 01cb 2E       		.uleb128 0x2e
 2488 01cc 01       		.byte	0x1
 2489 01cd 3F       		.uleb128 0x3f
 2490 01ce 19       		.uleb128 0x19
 2491 01cf 03       		.uleb128 0x3
 2492 01d0 0E       		.uleb128 0xe
 2493 01d1 3A       		.uleb128 0x3a
 2494 01d2 0B       		.uleb128 0xb
 2495 01d3 3B       		.uleb128 0x3b
 2496 01d4 0B       		.uleb128 0xb
 2497 01d5 27       		.uleb128 0x27
 2498 01d6 19       		.uleb128 0x19
 2499 01d7 11       		.uleb128 0x11
 2500 01d8 01       		.uleb128 0x1
 2501 01d9 12       		.uleb128 0x12
 2502 01da 06       		.uleb128 0x6
 2503 01db 40       		.uleb128 0x40
 2504 01dc 18       		.uleb128 0x18
 2505 01dd 9642     		.uleb128 0x2116
 2506 01df 19       		.uleb128 0x19
 2507 01e0 01       		.uleb128 0x1
 2508 01e1 13       		.uleb128 0x13
 2509 01e2 00       		.byte	0
 2510 01e3 00       		.byte	0
 2511 01e4 23       		.uleb128 0x23
 2512 01e5 34       		.uleb128 0x34
 2513 01e6 00       		.byte	0
 2514 01e7 03       		.uleb128 0x3
 2515 01e8 0E       		.uleb128 0xe
 2516 01e9 3A       		.uleb128 0x3a
 2517 01ea 0B       		.uleb128 0xb
 2518 01eb 3B       		.uleb128 0x3b
 2519 01ec 0B       		.uleb128 0xb
ARM GAS  /tmp/ccAqVU6n.s 			page 74


 2520 01ed 49       		.uleb128 0x49
 2521 01ee 13       		.uleb128 0x13
 2522 01ef 02       		.uleb128 0x2
 2523 01f0 18       		.uleb128 0x18
 2524 01f1 00       		.byte	0
 2525 01f2 00       		.byte	0
 2526 01f3 24       		.uleb128 0x24
 2527 01f4 34       		.uleb128 0x34
 2528 01f5 00       		.byte	0
 2529 01f6 03       		.uleb128 0x3
 2530 01f7 08       		.uleb128 0x8
 2531 01f8 3A       		.uleb128 0x3a
 2532 01f9 0B       		.uleb128 0xb
 2533 01fa 3B       		.uleb128 0x3b
 2534 01fb 05       		.uleb128 0x5
 2535 01fc 49       		.uleb128 0x49
 2536 01fd 13       		.uleb128 0x13
 2537 01fe 3F       		.uleb128 0x3f
 2538 01ff 19       		.uleb128 0x19
 2539 0200 3C       		.uleb128 0x3c
 2540 0201 19       		.uleb128 0x19
 2541 0202 00       		.byte	0
 2542 0203 00       		.byte	0
 2543 0204 00       		.byte	0
 2544              		.section	.debug_aranges,"",%progbits
 2545 0000 7C000000 		.4byte	0x7c
 2546 0004 0200     		.2byte	0x2
 2547 0006 00000000 		.4byte	.Ldebug_info0
 2548 000a 04       		.byte	0x4
 2549 000b 00       		.byte	0
 2550 000c 0000     		.2byte	0
 2551 000e 0000     		.2byte	0
 2552 0010 00000000 		.4byte	.LFB38
 2553 0014 04000000 		.4byte	.LFE38-.LFB38
 2554 0018 00000000 		.4byte	.LFB39
 2555 001c 04000000 		.4byte	.LFE39-.LFB39
 2556 0020 00000000 		.4byte	.LFB70
 2557 0024 08000000 		.4byte	.LFE70-.LFB70
 2558 0028 00000000 		.4byte	.LFB71
 2559 002c 08000000 		.4byte	.LFE71-.LFB71
 2560 0030 00000000 		.4byte	.LFB123
 2561 0034 08000000 		.4byte	.LFE123-.LFB123
 2562 0038 00000000 		.4byte	.LFB124
 2563 003c 08000000 		.4byte	.LFE124-.LFB124
 2564 0040 00000000 		.4byte	.LFB149
 2565 0044 08000000 		.4byte	.LFE149-.LFB149
 2566 0048 00000000 		.4byte	.LFB150
 2567 004c 14000000 		.4byte	.LFE150-.LFB150
 2568 0050 00000000 		.4byte	.LFB151
 2569 0054 28000000 		.4byte	.LFE151-.LFB151
 2570 0058 00000000 		.4byte	.LFB152
 2571 005c 20000000 		.4byte	.LFE152-.LFB152
 2572 0060 00000000 		.4byte	.LFB153
 2573 0064 20000000 		.4byte	.LFE153-.LFB153
 2574 0068 00000000 		.4byte	.LFB154
 2575 006c 20000000 		.4byte	.LFE154-.LFB154
 2576 0070 00000000 		.4byte	.LFB155
ARM GAS  /tmp/ccAqVU6n.s 			page 75


 2577 0074 2E000000 		.4byte	.LFE155-.LFB155
 2578 0078 00000000 		.4byte	0
 2579 007c 00000000 		.4byte	0
 2580              		.section	.debug_ranges,"",%progbits
 2581              	.Ldebug_ranges0:
 2582 0000 00000000 		.4byte	.LFB38
 2583 0004 04000000 		.4byte	.LFE38
 2584 0008 00000000 		.4byte	.LFB39
 2585 000c 04000000 		.4byte	.LFE39
 2586 0010 00000000 		.4byte	.LFB70
 2587 0014 08000000 		.4byte	.LFE70
 2588 0018 00000000 		.4byte	.LFB71
 2589 001c 08000000 		.4byte	.LFE71
 2590 0020 00000000 		.4byte	.LFB123
 2591 0024 08000000 		.4byte	.LFE123
 2592 0028 00000000 		.4byte	.LFB124
 2593 002c 08000000 		.4byte	.LFE124
 2594 0030 00000000 		.4byte	.LFB149
 2595 0034 08000000 		.4byte	.LFE149
 2596 0038 00000000 		.4byte	.LFB150
 2597 003c 14000000 		.4byte	.LFE150
 2598 0040 00000000 		.4byte	.LFB151
 2599 0044 28000000 		.4byte	.LFE151
 2600 0048 00000000 		.4byte	.LFB152
 2601 004c 20000000 		.4byte	.LFE152
 2602 0050 00000000 		.4byte	.LFB153
 2603 0054 20000000 		.4byte	.LFE153
 2604 0058 00000000 		.4byte	.LFB154
 2605 005c 20000000 		.4byte	.LFE154
 2606 0060 00000000 		.4byte	.LFB155
 2607 0064 2E000000 		.4byte	.LFE155
 2608 0068 00000000 		.4byte	0
 2609 006c 00000000 		.4byte	0
 2610              		.section	.debug_line,"",%progbits
 2611              	.Ldebug_line0:
 2612 0000 58030000 		.section	.debug_str,"MS",%progbits,1
 2612      02003102 
 2612      00000201 
 2612      FB0E0D00 
 2612      01010101 
 2613              	.LASF41:
 2614 0000 63685F74 		.ascii	"ch_threads_list\000"
 2614      68726561 
 2614      64735F6C 
 2614      69737400 
 2615              	.LASF42:
 2616 0010 74687265 		.ascii	"threads_queue_t\000"
 2616      6164735F 
 2616      71756575 
 2616      655F7400 
 2617              	.LASF35:
 2618 0020 705F7761 		.ascii	"p_waiting\000"
 2618      6974696E 
 2618      6700
 2619              	.LASF82:
 2620 002a 77746D74 		.ascii	"wtmtxp\000"
 2620      787000
ARM GAS  /tmp/ccAqVU6n.s 			page 76


 2621              	.LASF90:
 2622 0031 63686172 		.ascii	"char\000"
 2622      00
 2623              	.LASF73:
 2624 0036 72656761 		.ascii	"regarm_t\000"
 2624      726D5F74 
 2624      00
 2625              	.LASF28:
 2626 003f 705F7072 		.ascii	"p_prio\000"
 2626      696F00
 2627              	.LASF24:
 2628 0046 73797374 		.ascii	"systime_t\000"
 2628      696D655F 
 2628      7400
 2629              	.LASF88:
 2630 0050 6D5F6F77 		.ascii	"m_owner\000"
 2630      6E657200 
 2631              	.LASF84:
 2632 0058 735F7175 		.ascii	"s_queue\000"
 2632      65756500 
 2633              	.LASF0:
 2634 0060 756E7369 		.ascii	"unsigned int\000"
 2634      676E6564 
 2634      20696E74 
 2634      00
 2635              	.LASF39:
 2636 006d 74687265 		.ascii	"threads_list_t\000"
 2636      6164735F 
 2636      6C697374 
 2636      5F7400
 2637              	.LASF7:
 2638 007c 5F5F696E 		.ascii	"__int32_t\000"
 2638      7433325F 
 2638      7400
 2639              	.LASF79:
 2640 0086 77746F62 		.ascii	"wtobjp\000"
 2640      6A7000
 2641              	.LASF108:
 2642 008d 706F7274 		.ascii	"port_lock\000"
 2642      5F6C6F63 
 2642      6B00
 2643              	.LASF69:
 2644 0097 76746C69 		.ascii	"vtlist\000"
 2644      737400
 2645              	.LASF45:
 2646 009e 63685F72 		.ascii	"ch_ready_list\000"
 2646      65616479 
 2646      5F6C6973 
 2646      7400
 2647              	.LASF71:
 2648 00ac 69646C65 		.ascii	"idle_thread_wa\000"
 2648      5F746872 
 2648      6561645F 
 2648      776100
 2649              	.LASF102:
 2650 00bb 6D6F6465 		.ascii	"mode\000"
 2650      00
ARM GAS  /tmp/ccAqVU6n.s 			page 77


 2651              	.LASF97:
 2652 00c0 45585444 		.ascii	"EXTDriver\000"
 2652      72697665 
 2652      7200
 2653              	.LASF43:
 2654 00ca 63685F74 		.ascii	"ch_threads_queue\000"
 2654      68726561 
 2654      64735F71 
 2654      75657565 
 2654      00
 2655              	.LASF116:
 2656 00db 65787470 		.ascii	"extp\000"
 2656      00
 2657              	.LASF52:
 2658 00e0 76746675 		.ascii	"vtfunc_t\000"
 2658      6E635F74 
 2658      00
 2659              	.LASF114:
 2660 00e9 6578744F 		.ascii	"extObjectInit\000"
 2660      626A6563 
 2660      74496E69 
 2660      7400
 2661              	.LASF85:
 2662 00f7 735F636E 		.ascii	"s_cnt\000"
 2662      7400
 2663              	.LASF64:
 2664 00fd 63685F73 		.ascii	"ch_system_debug\000"
 2664      79737465 
 2664      6D5F6465 
 2664      62756700 
 2665              	.LASF17:
 2666 010d 75696E74 		.ascii	"uint32_t\000"
 2666      33325F74 
 2666      00
 2667              	.LASF47:
 2668 0116 725F7072 		.ascii	"r_prio\000"
 2668      696F00
 2669              	.LASF59:
 2670 011d 76745F70 		.ascii	"vt_par\000"
 2670      617200
 2671              	.LASF83:
 2672 0124 63685F73 		.ascii	"ch_semaphore\000"
 2672      656D6170 
 2672      686F7265 
 2672      00
 2673              	.LASF21:
 2674 0131 74707269 		.ascii	"tprio_t\000"
 2674      6F5F7400 
 2675              	.LASF54:
 2676 0139 63685F76 		.ascii	"ch_virtual_timer\000"
 2676      69727475 
 2676      616C5F74 
 2676      696D6572 
 2676      00
 2677              	.LASF13:
 2678 014a 6C6F6E67 		.ascii	"long long unsigned int\000"
 2678      206C6F6E 
ARM GAS  /tmp/ccAqVU6n.s 			page 78


 2678      6720756E 
 2678      7369676E 
 2678      65642069 
 2679              	.LASF121:
 2680 0161 65787443 		.ascii	"extChannelEnable\000"
 2680      68616E6E 
 2680      656C456E 
 2680      61626C65 
 2680      00
 2681              	.LASF5:
 2682 0172 5F5F7569 		.ascii	"__uint16_t\000"
 2682      6E743136 
 2682      5F7400
 2683              	.LASF23:
 2684 017d 636E745F 		.ascii	"cnt_t\000"
 2684      7400
 2685              	.LASF110:
 2686 0183 63685379 		.ascii	"chSysUnlock\000"
 2686      73556E6C 
 2686      6F636B00 
 2687              	.LASF113:
 2688 018f 6F73616C 		.ascii	"osalSysUnlock\000"
 2688      53797355 
 2688      6E6C6F63 
 2688      6B00
 2689              	.LASF30:
 2690 019d 705F6E65 		.ascii	"p_newer\000"
 2690      77657200 
 2691              	.LASF61:
 2692 01a5 63685F76 		.ascii	"ch_virtual_timers_list\000"
 2692      69727475 
 2692      616C5F74 
 2692      696D6572 
 2692      735F6C69 
 2693              	.LASF119:
 2694 01bc 65787453 		.ascii	"extStop\000"
 2694      746F7000 
 2695              	.LASF25:
 2696 01c4 74687265 		.ascii	"thread_t\000"
 2696      61645F74 
 2696      00
 2697              	.LASF77:
 2698 01cd 7264796D 		.ascii	"rdymsg\000"
 2698      736700
 2699              	.LASF106:
 2700 01d4 5F5F6469 		.ascii	"__disable_irq\000"
 2700      7361626C 
 2700      655F6972 
 2700      7100
 2701              	.LASF92:
 2702 01e2 5F426F6F 		.ascii	"_Bool\000"
 2702      6C00
 2703              	.LASF86:
 2704 01e8 63685F6D 		.ascii	"ch_mutex\000"
 2704      75746578 
 2704      00
 2705              	.LASF12:
ARM GAS  /tmp/ccAqVU6n.s 			page 79


 2706 01f1 5F5F7569 		.ascii	"__uint64_t\000"
 2706      6E743634 
 2706      5F7400
 2707              	.LASF115:
 2708 01fc 65787453 		.ascii	"extStart\000"
 2708      74617274 
 2708      00
 2709              	.LASF111:
 2710 0205 63685379 		.ascii	"chSysLock\000"
 2710      734C6F63 
 2710      6B00
 2711              	.LASF32:
 2712 020f 705F6E61 		.ascii	"p_name\000"
 2712      6D6500
 2713              	.LASF57:
 2714 0216 76745F64 		.ascii	"vt_delta\000"
 2714      656C7461 
 2714      00
 2715              	.LASF38:
 2716 021f 74687265 		.ascii	"thread_reference_t\000"
 2716      61645F72 
 2716      65666572 
 2716      656E6365 
 2716      5F7400
 2717              	.LASF62:
 2718 0232 76745F6C 		.ascii	"vt_lasttime\000"
 2718      61737474 
 2718      696D6500 
 2719              	.LASF130:
 2720 023e 2F686F6D 		.ascii	"/home/efe/ChibiOS/os/hal/src/ext.c\000"
 2720      652F6566 
 2720      652F4368 
 2720      6962694F 
 2720      532F6F73 
 2721              	.LASF20:
 2722 0261 74737461 		.ascii	"tstate_t\000"
 2722      74655F74 
 2722      00
 2723              	.LASF105:
 2724 026a 45585443 		.ascii	"EXTConfig\000"
 2724      6F6E6669 
 2724      6700
 2725              	.LASF31:
 2726 0274 705F6F6C 		.ascii	"p_older\000"
 2726      64657200 
 2727              	.LASF33:
 2728 027c 705F7374 		.ascii	"p_state\000"
 2728      61746500 
 2729              	.LASF14:
 2730 0284 75696E74 		.ascii	"uint8_t\000"
 2730      385F7400 
 2731              	.LASF36:
 2732 028c 705F6D74 		.ascii	"p_mtxlist\000"
 2732      786C6973 
 2732      7400
 2733              	.LASF40:
 2734 0296 63685F74 		.ascii	"ch_thread\000"
ARM GAS  /tmp/ccAqVU6n.s 			page 80


 2734      68726561 
 2734      6400
 2735              	.LASF101:
 2736 02a0 65787463 		.ascii	"extcallback_t\000"
 2736      616C6C62 
 2736      61636B5F 
 2736      7400
 2737              	.LASF63:
 2738 02ae 73797374 		.ascii	"system_debug_t\000"
 2738      656D5F64 
 2738      65627567 
 2738      5F7400
 2739              	.LASF11:
 2740 02bd 6C6F6E67 		.ascii	"long long int\000"
 2740      206C6F6E 
 2740      6720696E 
 2740      7400
 2741              	.LASF46:
 2742 02cb 725F7175 		.ascii	"r_queue\000"
 2742      65756500 
 2743              	.LASF49:
 2744 02d3 725F6E65 		.ascii	"r_newer\000"
 2744      77657200 
 2745              	.LASF22:
 2746 02db 6D73675F 		.ascii	"msg_t\000"
 2746      7400
 2747              	.LASF75:
 2748 02e1 636F6E74 		.ascii	"context\000"
 2748      65787400 
 2749              	.LASF34:
 2750 02e9 705F666C 		.ascii	"p_flags\000"
 2750      61677300 
 2751              	.LASF104:
 2752 02f1 6368616E 		.ascii	"channels\000"
 2752      6E656C73 
 2752      00
 2753              	.LASF53:
 2754 02fa 76697274 		.ascii	"virtual_timer_t\000"
 2754      75616C5F 
 2754      74696D65 
 2754      725F7400 
 2755              	.LASF117:
 2756 030a 5F5F6675 		.ascii	"__func__.4864\000"
 2756      6E635F5F 
 2756      2E343836 
 2756      3400
 2757              	.LASF93:
 2758 0318 4558545F 		.ascii	"EXT_UNINIT\000"
 2758      554E494E 
 2758      495400
 2759              	.LASF129:
 2760 0323 474E5520 		.ascii	"GNU C 4.8.4 20141219 (release) -mcpu=cortex-m0 -mno"
 2760      4320342E 
 2760      382E3420 
 2760      32303134 
 2760      31323139 
 2761 0356 2D746875 		.ascii	"-thumb-interwork -mthumb -ggdb -O0 -fomit-frame-poi"
ARM GAS  /tmp/ccAqVU6n.s 			page 81


 2761      6D622D69 
 2761      6E746572 
 2761      776F726B 
 2761      202D6D74 
 2762 0389 6E746572 		.ascii	"nter -falign-functions=16 -ffunction-sections -fdat"
 2762      202D6661 
 2762      6C69676E 
 2762      2D66756E 
 2762      6374696F 
 2763 03bc 612D7365 		.ascii	"a-sections -fno-common -flto\000"
 2763      6374696F 
 2763      6E73202D 
 2763      666E6F2D 
 2763      636F6D6D 
 2764              	.LASF95:
 2765 03d9 4558545F 		.ascii	"EXT_ACTIVE\000"
 2765      41435449 
 2765      564500
 2766              	.LASF50:
 2767 03e4 725F6F6C 		.ascii	"r_older\000"
 2767      64657200 
 2768              	.LASF124:
 2769 03ec 65787443 		.ascii	"extChannelDisable\000"
 2769      68616E6E 
 2769      656C4469 
 2769      7361626C 
 2769      6500
 2770              	.LASF65:
 2771 03fe 70616E69 		.ascii	"panic_msg\000"
 2771      635F6D73 
 2771      6700
 2772              	.LASF127:
 2773 0408 65787463 		.ascii	"extcp\000"
 2773      7000
 2774              	.LASF19:
 2775 040e 746D6F64 		.ascii	"tmode_t\000"
 2775      655F7400 
 2776              	.LASF96:
 2777 0416 65787473 		.ascii	"extstate_t\000"
 2777      74617465 
 2777      5F7400
 2778              	.LASF70:
 2779 0421 6D61696E 		.ascii	"mainthread\000"
 2779      74687265 
 2779      616400
 2780              	.LASF15:
 2781 042c 75696E74 		.ascii	"uint16_t\000"
 2781      31365F74 
 2781      00
 2782              	.LASF122:
 2783 0435 6368616E 		.ascii	"channel\000"
 2783      6E656C00 
 2784              	.LASF99:
 2785 043d 636F6E66 		.ascii	"config\000"
 2785      696700
 2786              	.LASF118:
 2787 0444 5F5F6675 		.ascii	"__func__.5809\000"
ARM GAS  /tmp/ccAqVU6n.s 			page 82


 2787      6E635F5F 
 2787      2E353830 
 2787      3900
 2788              	.LASF37:
 2789 0452 705F7265 		.ascii	"p_realprio\000"
 2789      616C7072 
 2789      696F00
 2790              	.LASF3:
 2791 045d 73686F72 		.ascii	"short int\000"
 2791      7420696E 
 2791      7400
 2792              	.LASF51:
 2793 0467 725F6375 		.ascii	"r_current\000"
 2793      7272656E 
 2793      7400
 2794              	.LASF87:
 2795 0471 6D5F7175 		.ascii	"m_queue\000"
 2795      65756500 
 2796              	.LASF8:
 2797 0479 6C6F6E67 		.ascii	"long int\000"
 2797      20696E74 
 2797      00
 2798              	.LASF76:
 2799 0482 706F7274 		.ascii	"port_intctx\000"
 2799      5F696E74 
 2799      63747800 
 2800              	.LASF126:
 2801 048e 65787453 		.ascii	"extSetChannelModeI\000"
 2801      65744368 
 2801      616E6E65 
 2801      6C4D6F64 
 2801      654900
 2802              	.LASF103:
 2803 04a1 45585443 		.ascii	"EXTChannelConfig\000"
 2803      68616E6E 
 2803      656C436F 
 2803      6E666967 
 2803      00
 2804              	.LASF107:
 2805 04b2 5F5F656E 		.ascii	"__enable_irq\000"
 2805      61626C65 
 2805      5F697271 
 2805      00
 2806              	.LASF67:
 2807 04bf 63685F73 		.ascii	"ch_system\000"
 2807      79737465 
 2807      6D00
 2808              	.LASF26:
 2809 04c9 705F6E65 		.ascii	"p_next\000"
 2809      787400
 2810              	.LASF18:
 2811 04d0 75696E74 		.ascii	"uint64_t\000"
 2811      36345F74 
 2811      00
 2812              	.LASF29:
 2813 04d9 705F6374 		.ascii	"p_ctx\000"
 2813      7800
ARM GAS  /tmp/ccAqVU6n.s 			page 83


 2814              	.LASF68:
 2815 04df 726C6973 		.ascii	"rlist\000"
 2815      7400
 2816              	.LASF4:
 2817 04e5 5F5F7569 		.ascii	"__uint8_t\000"
 2817      6E74385F 
 2817      7400
 2818              	.LASF131:
 2819 04ef 65787449 		.ascii	"extInit\000"
 2819      6E697400 
 2820              	.LASF94:
 2821 04f7 4558545F 		.ascii	"EXT_STOP\000"
 2821      53544F50 
 2821      00
 2822              	.LASF27:
 2823 0500 705F7072 		.ascii	"p_prev\000"
 2823      657600
 2824              	.LASF72:
 2825 0507 73697A65 		.ascii	"sizetype\000"
 2825      74797065 
 2825      00
 2826              	.LASF10:
 2827 0510 6C6F6E67 		.ascii	"long unsigned int\000"
 2827      20756E73 
 2827      69676E65 
 2827      6420696E 
 2827      7400
 2828              	.LASF100:
 2829 0522 65787063 		.ascii	"expchannel_t\000"
 2829      68616E6E 
 2829      656C5F74 
 2829      00
 2830              	.LASF44:
 2831 052f 72656164 		.ascii	"ready_list_t\000"
 2831      795F6C69 
 2831      73745F74 
 2831      00
 2832              	.LASF112:
 2833 053c 6F73616C 		.ascii	"osalSysLock\000"
 2833      5379734C 
 2833      6F636B00 
 2834              	.LASF16:
 2835 0548 696E7433 		.ascii	"int32_t\000"
 2835      325F7400 
 2836              	.LASF120:
 2837 0550 5F5F6675 		.ascii	"__func__.5813\000"
 2837      6E635F5F 
 2837      2E353831 
 2837      3300
 2838              	.LASF81:
 2839 055e 77747365 		.ascii	"wtsemp\000"
 2839      6D7000
 2840              	.LASF123:
 2841 0565 5F5F6675 		.ascii	"__func__.5818\000"
 2841      6E635F5F 
 2841      2E353831 
 2841      3800
ARM GAS  /tmp/ccAqVU6n.s 			page 84


 2842              	.LASF91:
 2843 0573 6D757465 		.ascii	"mutex_t\000"
 2843      785F7400 
 2844              	.LASF2:
 2845 057b 756E7369 		.ascii	"unsigned char\000"
 2845      676E6564 
 2845      20636861 
 2845      7200
 2846              	.LASF9:
 2847 0589 5F5F7569 		.ascii	"__uint32_t\000"
 2847      6E743332 
 2847      5F7400
 2848              	.LASF60:
 2849 0594 76697274 		.ascii	"virtual_timers_list_t\000"
 2849      75616C5F 
 2849      74696D65 
 2849      72735F6C 
 2849      6973745F 
 2850              	.LASF132:
 2851 05aa 6F6C6463 		.ascii	"oldcp\000"
 2851      7000
 2852              	.LASF98:
 2853 05b0 73746174 		.ascii	"state\000"
 2853      6500
 2854              	.LASF125:
 2855 05b6 5F5F6675 		.ascii	"__func__.5823\000"
 2855      6E635F5F 
 2855      2E353832 
 2855      3300
 2856              	.LASF55:
 2857 05c4 76745F6E 		.ascii	"vt_next\000"
 2857      65787400 
 2858              	.LASF66:
 2859 05cc 63685F73 		.ascii	"ch_system_t\000"
 2859      79737465 
 2859      6D5F7400 
 2860              	.LASF80:
 2861 05d8 77747472 		.ascii	"wttrp\000"
 2861      7000
 2862              	.LASF89:
 2863 05de 6D5F6E65 		.ascii	"m_next\000"
 2863      787400
 2864              	.LASF1:
 2865 05e5 7369676E 		.ascii	"signed char\000"
 2865      65642063 
 2865      68617200 
 2866              	.LASF6:
 2867 05f1 73686F72 		.ascii	"short unsigned int\000"
 2867      7420756E 
 2867      7369676E 
 2867      65642069 
 2867      6E7400
 2868              	.LASF48:
 2869 0604 725F6374 		.ascii	"r_ctx\000"
 2869      7800
 2870              	.LASF74:
 2871 060a 73746B61 		.ascii	"stkalign_t\000"
ARM GAS  /tmp/ccAqVU6n.s 			page 85


 2871      6C69676E 
 2871      5F7400
 2872              	.LASF128:
 2873 0615 5F5F6675 		.ascii	"__func__.5830\000"
 2873      6E635F5F 
 2873      2E353833 
 2873      3000
 2874              	.LASF58:
 2875 0623 76745F66 		.ascii	"vt_func\000"
 2875      756E6300 
 2876              	.LASF109:
 2877 062b 706F7274 		.ascii	"port_unlock\000"
 2877      5F756E6C 
 2877      6F636B00 
 2878              	.LASF56:
 2879 0637 76745F70 		.ascii	"vt_prev\000"
 2879      72657600 
 2880              	.LASF78:
 2881 063f 65786974 		.ascii	"exitcode\000"
 2881      636F6465 
 2881      00
 2882              		.comm	__gnu_lto_v1,1,1
 2883              		.ident	"GCC: (4.8.4-1+11-1) 4.8.4 20141219 (release)"
ARM GAS  /tmp/ccAqVU6n.s 			page 86


DEFINED SYMBOLS
                            *ABS*:0000000000000000 ext.c
     /tmp/ccAqVU6n.s:502    .text.port_lock:0000000000000000 $t
     /tmp/ccAqVU6n.s:507    .text.port_lock:0000000000000000 port_lock
     /tmp/ccAqVU6n.s:529    .text.port_unlock:0000000000000000 $t
     /tmp/ccAqVU6n.s:534    .text.port_unlock:0000000000000000 port_unlock
     /tmp/ccAqVU6n.s:554    .text.chSysLock:0000000000000000 $t
     /tmp/ccAqVU6n.s:559    .text.chSysLock:0000000000000000 chSysLock
     /tmp/ccAqVU6n.s:577    .text.chSysUnlock:0000000000000000 $t
     /tmp/ccAqVU6n.s:582    .text.chSysUnlock:0000000000000000 chSysUnlock
     /tmp/ccAqVU6n.s:599    .text.osalSysLock:0000000000000000 $t
     /tmp/ccAqVU6n.s:604    .text.osalSysLock:0000000000000000 osalSysLock
     /tmp/ccAqVU6n.s:622    .text.osalSysUnlock:0000000000000000 $t
     /tmp/ccAqVU6n.s:627    .text.osalSysUnlock:0000000000000000 osalSysUnlock
     /tmp/ccAqVU6n.s:644    .text.extInit:0000000000000000 $t
     /tmp/ccAqVU6n.s:650    .text.extInit:0000000000000000 extInit
     /tmp/ccAqVU6n.s:668    .text.extObjectInit:0000000000000000 $t
     /tmp/ccAqVU6n.s:674    .text.extObjectInit:0000000000000000 extObjectInit
     /tmp/ccAqVU6n.s:697    .text.extStart:0000000000000000 $t
     /tmp/ccAqVU6n.s:703    .text.extStart:0000000000000000 extStart
     /tmp/ccAqVU6n.s:738    .text.extStop:0000000000000000 $t
     /tmp/ccAqVU6n.s:744    .text.extStop:0000000000000000 extStop
     /tmp/ccAqVU6n.s:774    .text.extChannelEnable:0000000000000000 $t
     /tmp/ccAqVU6n.s:780    .text.extChannelEnable:0000000000000000 extChannelEnable
     /tmp/ccAqVU6n.s:809    .text.extChannelDisable:0000000000000000 $t
     /tmp/ccAqVU6n.s:815    .text.extChannelDisable:0000000000000000 extChannelDisable
     /tmp/ccAqVU6n.s:844    .text.extSetChannelModeI:0000000000000000 $t
     /tmp/ccAqVU6n.s:850    .text.extSetChannelModeI:0000000000000000 extSetChannelModeI
                            *COM*:0000000000000001 __gnu_lto_v1
                     .debug_frame:0000000000000010 $d

UNDEFINED SYMBOLS
ext_lld_init
ext_lld_start
ext_lld_stop
ext_lld_channel_enable
ext_lld_channel_disable
