ARM GAS  /tmp/ccwHc1qG.s 			page 1


   1              		.cpu cortex-m0
   2              		.fpu softvfp
   3              		.eabi_attribute 20, 1
   4              		.eabi_attribute 21, 1
   5              		.eabi_attribute 23, 3
   6              		.eabi_attribute 24, 1
   7              		.eabi_attribute 25, 1
   8              		.eabi_attribute 26, 1
   9              		.eabi_attribute 30, 6
  10              		.eabi_attribute 34, 0
  11              		.eabi_attribute 18, 4
  12              		.code	16
  13              		.file	"ext_lld.c"
  14              		.text
  15              	.Ltext0:
  16              		.section	.gnu.lto_.inline.1aaf71ade60aa10e,"",%progbits
  17 0000 789C6362 		.ascii	"x\234cb`b\300\006\252\2414+\020\3612001-\220g`\201\250"
  17      6062C006 
  17      AAA1342B 
  17      10F13230 
  17      30312D90 
  18 0018 65E20611 		.ascii	"e\342\006\021\014\\B@\222\257\241\026&\314\310\005$"
  18      0C5C4240 
  18      92AFA116 
  18      26CCC805 
  18      24
  19 0029 98198E30 		.ascii	"\230\031\2160\034\006I\2670~\230\306\001\223ba\020\023"
  19      1C0649B7 
  19      307E98C6 
  19      01936261 
  19      1013
  20 003b 058A694C 		.ascii	"\005\212iL8\301\004\023be\020\325\007\012IL8\315\010"
  20      38C10413 
  20      626510D5 
  20      070A494C 
  20      38CD08
  21 004e 1362E681 		.ascii	"\023b\346\201\021`\243\030\000\226\310\011\365"
  21      1160A318 
  21      0096C809 
  21      F5
  22              		.text
  23              		.section	.gnu.lto_ext_lld_init.1aaf71ade60aa10e,"",%progbits
  24 0000 789C6362 		.ascii	"x\234cb`b@\007\"@\334\001\3046 \0163\003#P\005#\023"
  24      60624007 
  24      2240DC01 
  24      C436200E 
  24      33032350 
  25 0017 232390C3 		.ascii	"##\220\303\310P\317\304X\037\311\010V\266\236\351\300"
  25      C850CFC4 
  25      581FC908 
  25      56B69EE9 
  25      C0
  26 0028 83FFFFD7 		.ascii	"\203\377\377\327m86\347\014\343L&\220\030+CKC\303\004"
  26      6D3836E7 
  26      0CE34C26 
  26      90182B43 
  26      4B43C304 
ARM GAS  /tmp/ccwHc1qG.s 			page 2


  27 003c 05068664 		.ascii	"\005\006\206d\260\212\0200\031\012\322\317|\236\241"
  27      B08A1030 
  27      190AD2CF 
  27      7C9EA1
  28 004b E5C1EC66 		.ascii	"\345\301\354f\256D\306\205\214\254@\301j\206_\015\035"
  28      AE44C685 
  28      8CAC40C1 
  28      6A865F0D 
  28      1D
  29 005c 0D02998C 		.ascii	"\015\002\231\214@\245\020\323@\"\034\231\214\214\271"
  29      40A510D3 
  29      40221C99 
  29      8C8CB9
  30 006b 8C0C5045 		.ascii	"\214\014PE\231 \215\027\031\032\037\314Q\206i\203\200"
  30      99208D17 
  30      191A1FCC 
  30      51866983 
  30      80
  31 007c 10901690 		.ascii	"\020\220\026\220\263\255\3643\362sS\365S\323R\365\235"
  31      B3ADF433 
  31      F27353F5 
  31      53D352F5 
  31      9D
  32 008d 33329332 		.ascii	"32\2232\375\203\365\363\213\3653\022s\364\013\362\213"
  32      FD83F5F3 
  32      8BF53312 
  32      73F40BF2 
  32      8B
  33 009e 4A8AF583 		.ascii	"J\212\365\203C|\215\215\364}|\\\364]#B<\313\014\365"
  33      437C8D8D 
  33      F47D7C5C 
  33      F45D2342 
  33      3CCB0CF5 
  34 00b2 532B4AE2 		.ascii	"S+J\342srR\364\222\031\000\302z22"
  34      737252F4 
  34      921900C2 
  34      7A3232
  35              		.text
  36              		.section	.gnu.lto_ext_lld_stop.1aaf71ade60aa10e,"",%progbits
  37 0000 789C9591 		.ascii	"x\234\225\221\277K\\A\020\307gv\367i\024\302\351\177"
  37      BF4B5C41 
  37      10C76776 
  37      F76914C2 
  37      E97F
  38 0012 2049133C 		.ascii	" I\023<pIlD\3544E@I\341\011Z\005=O\357\301\311\005\025"
  38      70496C44 
  38      EC344540 
  38      49E1095A 
  38      053D4FEF 
  39 002a 112D6E9E 		.ascii	"\021-n\236\271\300\025\026\"\201\204\244\211\204@\010"
  39      B9C01516 
  39      228184A4 
  39      89844008 
  40 003a 81581E58 		.ascii	"\201X\036Xx\210\240 b\022R\004Q8l\354$\235\"\302:\373"
  40      7888A020 
  40      62125204 
  40      51386CEC 
ARM GAS  /tmp/ccwHc1qG.s 			page 3


  40      249D22C2 
  41 0050 F67E2916 		.ascii	"\366~)\026\336\302\233\335};\337\317\314~W\200\200\333"
  41      DEC29BDD 
  41      7D3BDFCF 
  41      CC7E5780 
  41      80DB
  42 0062 E3097F47 		.ascii	"\343\011\177G\374\273\307n<@^\242\020\022\200\204\342"
  42      FCBBC76E 
  42      3C405EA2 
  42      10128084 
  42      E2
  43 0073 A024F284 		.ascii	"\240$\362\204\012\221\217\0212B*\314\214\330\015\250"
  43      0A918F11 
  43      32422ACC 
  43      8CD80DA8 
  44 0083 47B046B4 		.ascii	"G\260F\264Z|{\376\017\337\277+\004\237\351\312\030D"
  44      5A7C7BFE 
  44      0FDFBF2B 
  44      049FE9CA 
  44      1844
  45 0095 DF1EC611 		.ascii	"\337\036\306\021\206y\205\017\302I\340\315\232NX\330"
  45      8679850F 
  45      C249E0CD 
  45      9A4E58D8 
  46 00a5 DCD95B43 		.ascii	"\334\331[CZ\245\340\2771\021\037eU\326\346d\352N\331"
  46      5AA5E0BF 
  46      31111F65 
  46      55D6E664 
  46      EA4ED9
  47 00b8 AF9DE5E6 		.ascii	"\257\235\345\346\225 G\306d\356/\372S\227\350\247(\024"
  47      952047C6 
  47      64EE2FFA 
  47      5397E8A7 
  47      2814
  48 00ca 8DF9B1B1 		.ascii	"\215\371\261\261~r\206\255\015\210S\310\316\361\305"
  48      7E7286AD 
  48      0D8853C8 
  48      CEF1C5
  49 00d9 2407A96C 		.ascii	"$\007\251l\360 \304\260cY\242\225\266\020\310#\026\306"
  49      F020C4B0 
  49      6359A295 
  49      B610C823 
  49      16C6
  50 00eb 21EBA2DC 		.ascii	"!\353\242\334\207\245\303\017\354\315(~E\017&QD\241"
  50      87A5C30F 
  50      ECCD287E 
  50      450F2651 
  50      44A1
  51 00fd DD47F509 		.ascii	"\335G\365\011>rEo\022\321Vn\010\353\215U\014\332\205"
  51      3E72456F 
  51      12D1566E 
  51      08EB8D55 
  51      0CDA85
  52 0110 EDD3E061 		.ascii	"\355\323\340aEbST\355\243\015\331\252\362\000\336\024"
  52      45625354 
  52      EDA30DD9 
  52      AAF200DE 
ARM GAS  /tmp/ccwHc1qG.s 			page 4


  52      14
  53 0121 8FBF445C 		.ascii	"\217\277D\\\032\300\"\\R\216Z|l\214\243#\371\354|)_"
  53      1AC0225C 
  53      528E5A7C 
  53      6C8CA323 
  53      F9EC7C29 
  54 0136 B956F217 		.ascii	"\271V\362\027\347]e\254\264XI\271,\331{\357\303V~\275"
  54      E75D65AC 
  54      B45849B9 
  54      2CD97BEF 
  54      C3567EBD 
  55 014a D19D45E1 		.ascii	"\321\235E\341;e\003\342\327hr}6\227\263K}:\274\375\323"
  55      3B6503E2 
  55      D768727D 
  55      3697B34B 
  55      7D3ABCFD 
  56 015f 04A17629 		.ascii	"\004\241v)\237[(sU]\\U\313\025U.\321_\023)\261\277U"
  56      9F5B2873 
  56      555D5C55 
  56      CB15552E 
  56      D15F1329 
  57 0176 D85E5D6C 		.ascii	"\330^]l\257\226-\253lc\242\274\374\015A\361\354q\331"
  57      AF962DAB 
  57      6C63A2BC 
  57      FC0D41F1 
  57      EC71D9
  58 0189 3D3762F6 		.ascii	"=7b\366j\266\213n\235LO%tb\"\241{\223\376\230\377rP"
  58      6AB68B6E 
  58      9D4C4F25 
  58      746222A1 
  58      7B93FE98 
  59 01a0 A7677472 		.ascii	"\247gtr4\245_\247\247gg\364`l\240\363\231\356\357\357"
  59      34A55FA7 
  59      A76767F4 
  59      606CA0F3 
  59      99EEEFEF 
  60 01b4 D3CF8763 		.ascii	"\323\317\207c/\346\236\352\304\374\354\253Tj\274#\016"
  60      2FE69EEA 
  60      C4FCECAB 
  60      546ABC23 
  60      0E
  61 01c5 D7D232B6 		.ascii	"\327\3222\266!"
  61      21
  62              		.text
  63              		.section	.gnu.lto_ext_lld_channel_enable.1aaf71ade60aa10e,"",%progbits
  64 0000 789CED58 		.ascii	"x\234\355X]L\024W\024\276wf\377wa\021\001E\021\020\377"
  64      5D4C1457 
  64      14BE7766 
  64      FF776111 
  64      01451110 
  65 0015 10940551 		.ascii	"\020\224\005QQ\374A\005\245&\032\233\010)\255\017\015"
  65      51FC4105 
  65      A5261A9B 
  65      0829AD0F 
  65      0D
  66 0026 225D4811 		.ascii	"\"]H\021\0335M\323\027\006\227\007\263U\213v\215\265"
  66      1B354DD3 
ARM GAS  /tmp/ccwHc1qG.s 			page 5


  66      17069707 
  66      B3558B76 
  66      8DB5
  67 0038 56AB6D5A 		.ascii	"V\253mZ\033\243\242\320(\204\232nM\232(\304\244\246"
  67      1BA3A2D0 
  67      28849A6E 
  67      4D9A28C4 
  67      A4A6
  68 004a 6D226D4D 		.ascii	"m\"mML,ZScL\037jmL\267\347\334\231;;\260\263\356\356"
  68      4C2C5A53 
  68      634C1F6A 
  68      6D4CB7E7 
  68      DC993B3B 
  69 0062 3436C474 		.ascii	"46\304t\023\276\335{\316\375\316\271\347\234o\206\331"
  69      13BEDD7B 
  69      CEFDCEB9 
  69      E79C6F86 
  69      D9
  70 0073 15884046 		.ascii	"\025\210@F\277\366\302\337\271,B\352p\221B(\354\240"
  70      BFF6C2DF 
  70      B92C42EA 
  70      70914228 
  70      ECA0
  71 0085 82201222 		.ascii	"\202 \022\"\011&\000\223H\341\215\232\0043Z,h1S7X,\202"
  71      09260093 
  71      48E18D9A 
  71      04335A2C 
  71      68315337 
  72 009c 152D36B4 		.ascii	"\025-6\264X\251\035,6\206v\301\201v'\332\035\324\005"
  72      58A91D2C 
  72      368676C1 
  72      817627DA 
  72      1DD405
  73 00af 16274397 		.ascii	"\026'C\227\220\204\366d\264'\261\010\311\014\335\224"
  73      9084F664 
  73      B427B108 
  73      C90CDD94 
  74 00bf 42624ADA 		.ascii	"BbJ\332\004\321d\266Xmv\207\323\225\224\354\246m/\243"
  74      04D164B6 
  74      586D7687 
  74      D39594EC 
  74      A66D2FA3 
  75 00d3 9D7C43F2 		.ascii	"\235|C\362\310\011I\352\274\365\351\307\217\205\303"
  75      C80949EA 
  75      BCF5E9C7 
  75      8F85C3
  76 00e2 8160C771 		.ascii	"\201`\307q\351I(Di3\205Z\226Q\322@I\035,h.{\303#k_2"
  76      E9492844 
  76      6933855A 
  76      9651D240 
  76      491D2C68 
  77 00fd 57EAFE5C 		.ascii	"W\352\376\\\2623\236\330\214A\237\021\347@\360\250\377"
  77      B2339ED8 
  77      8C419F11 
  77      E740F0A8 
  77      FF
  78 010e 74A6FFF8 		.ascii	"t\246\377\370\256N\351o8b3\025\343\243I\375\303/^\221"
ARM GAS  /tmp/ccwHc1qG.s 			page 6


  78      AE4EE96F 
  78      38623315 
  78      E3A349FD 
  78      C32F5E91 
  79 0122 3A82A150 		.ascii	":\202\241PE\274\234N\351\321/a\316\263+\251S\372)\341"
  79      45BC9C4E 
  79      E9D12F61 
  79      CEB32BA9 
  79      53FA29E1 
  80 0136 3C07821F 		.ascii	"<\007\202\037\015\034\325\266\301\024g\033n&\334\206"
  80      0D1CD5B6 
  80      C114671B 
  80      6E26DC86 
  81 0146 03D2E3C4 		.ascii	"\003\322\343\3049\301\363\003g\014L)\330\343\277hd\270"
  81      39C1F303 
  81      670C4C29 
  81      D8E3BF68 
  81      64B8
  82 0158 8F0C0CB7 		.ascii	"\217\014\014\267g8\361\246_\032\330\253=\2369\316\343"
  82      6738F1A6 
  82      5F1AD8AB 
  82      3D9E39CE 
  82      E3
  83 0169 EDD7A48A 		.ascii	"\355\327\244\212\227s\336\300\240\372\014p\206\014\014"
  83      9773DEC0 
  83      A0FA0C70 
  83      860C0C
  84 0178 F7A63F60 		.ascii	"\367\246?`d\270\217\006\366\031\221\254\221N\\2P\325"
  84      64B88F06 
  84      F61991AC 
  84      914E5C32 
  84      50D5
  85 018a 63FF41ED 		.ascii	"c\377A\355\361,q\246\322^\360F8\361\226d\200\023|2\260"
  85      F12C71A6 
  85      D25EF046 
  85      38F19664 
  85      80137C32 
  86 019f C7D1D9BE 		.ascii	"\307\321\331\276[\012\205\332\306^A\332\273^\274\234"
  86      5B0A85DA 
  86      C65E41DA 
  86      BB5EBC9C 
  87 01af 1F12E704 		.ascii	"\037\022\347\004Cc[v\373\337y\356d\027\030\374_v\301"
  87      43635B76 
  87      FBDF79EE 
  87      641718FC 
  87      5F76C1
  88 01c2 2383FF5A 		.ascii	"#\203\377Zv\326x\037\211\006\003\317\233\204\216\215"
  88      76D6781F 
  88      890603CF 
  88      9B848E8D 
  89 01d2 65090D19 		.ascii	"e\011\015\031\220\320w\006$\364\305Xn\202\221\251^\030"
  89      90D07706 
  89      24F4C558 
  89      6E8291A9 
  89      5E18
  90 01e4 CB05FD57 		.ascii	"\313\005\375WS}\317\277/S\012_\2556\201T\307\365\025"
  90      537DCFBF 
ARM GAS  /tmp/ccwHc1qG.s 			page 7


  90      2F530A5F 
  90      AD368154 
  90      C7F515
  91 01f7 0B6E29FE 		.ascii	"\013n)\376wG1\327\307\311\374p\300\245\366\035h\033"
  91      774731D7 
  91      C7C9FC70 
  91      C0A5F61D 
  91      681B
  92 0209 E2A41D1B 		.ascii	"\342\244\035\033I\253\211E\353\022\202\267B\241=\327"
  92      49AB8945 
  92      EB1282B7 
  92      42A13DD7 
  93 0219 CFED394D 		.ascii	"\317\3559M\373\204\027(\335\212\337 \353\351\011\232"
  93      FB841728 
  93      DD8ADF20 
  93      EBE9099A 
  94 0229 474402CF 		.ascii	"GD\002\317\331&\0043Xn\203\305\002\357\303\360n\005"
  94      D9260433 
  94      586E83C5 
  94      02EFC3F0 
  94      6E05
  95 023b A36843B0 		.ascii	"\243hC\260\243\333\201\340Dp\301\206\273\260!\011\342"
  95      A3DB81E0 
  95      4470C186 
  95      BBB02109 
  95      E2
  96 024c D064B098 		.ascii	"\320d\260\230\334\270+\005a\034B*\302x\2044\334\237"
  96      DCB82B05 
  96      611C422A 
  96      C2788434 
  96      DC9F
  97 025e 0EFBEFC1 		.ascii	"\016\373\357\301\376\014X\230' LD_&\302$\204\311\010"
  97      FE0C5898 
  97      27204C44 
  97      5F26C224 
  97      84C908
  98 0271 5918680A 		.ascii	"Y\030h\012~\312F\310\001\260\344\"L\305e\036\3024\\"
  98      7ECA46C8 
  98      01B0E422 
  98      4CC5651E 
  98      C2345C
  99 0284 4E479881 		.ascii	"NG\230\201\313\231\010\263\020\362\221;\033?\025 \024"
  99      CB9908B3 
  99      10F2913B 
  99      1B3F1520 
  99      14
 100 0295 E2963908 		.ascii	"\342\2269\010sqY\204\340\301e1B\011.\347!\224\"\314"
 100      73715984 
 100      E0C16531 
 100      42092EE7 
 100      219422CC 
 101 02a9 47EE0200 		.ascii	"G\356\002\000\353B\364\226!,B\307b\204r\\.AX\212\313"
 101      EB42F496 
 101      212C42C7 
 101      6284725C 
 101      2E41588A 
 102 02be 6508CB11 		.ascii	"e\010\313\021*\320\266\002a%.W!T\342\262\012a5.\327"
ARM GAS  /tmp/ccwHc1qG.s 			page 8


 102      2AD0B602 
 102      61252E57 
 102      2154E2B2 
 102      0A61352E 
 103 02d3 20541326 		.ascii	" T\023&A\350n\007|\275\311\225[\314$\011\257\032\206"
 103      41E86E07 
 103      7CBDC995 
 103      5BCC2409 
 103      AF1A86
 104 02e6 B5F8C383 		.ascii	"\265\370\303\203x\215\354z\340;\031\360\324\323\337"
 104      788DEC7A 
 104      E03B19F0 
 104      D4D3DF
 105 02f5 E0DB8897 		.ascii	"\340\333\210\227\012^\374u\340\032\361\365\213\334$"
 105      0A5EFC75 
 105      E01AF1F5 
 105      8BDC24
 106 0304 8215E74B 		.ascii	"\202\025\347Kr\010\363\234Q=&f\246\270\007=\020i;w\231"
 106      7208F39C 
 106      513D2666 
 106      A6B8073D 
 106      10693B77 
 107 0319 BDF84FEE 		.ascii	"\275\370O\356\012\351\270\363\365a\277J\240H\260\273"
 107      0AE9B8F3 
 107      F561BF4A 
 107      A048B0BB 
 108 0329 3522A945 		.ascii	"5\"\251E*\234\302w\326w1\220\255\036\027\225 \217[\036"
 108      2A9CC277 
 108      D6773190 
 108      AD1E1795 
 108      208F5B1E 
 109 033d 22217208 		.ascii	"\"!r\010xy\251E\011\304~[\301\243\372\372\003u\365\364"
 109      7879A945 
 109      09C47E5B 
 109      C1A3FAFA 
 109      0375F5F4 
 110 0351 3E4B6155 		.ascii	">KaU\234\242(;\375\276?\004\356\263\201\233\371LD9\357"
 110      9CA2283B 
 110      FDBE3F04 
 110      EEB3819B 
 110      F94C4439 
 111 0366 03CA7D76 		.ascii	"\003\312}vp\253\345\311&\007K\342F'\333\376\245\357"
 111      70ABE5C9 
 111      26074BE2 
 111      4627DBFE 
 111      A5EF
 112 0378 82BADD09 		.ascii	"\202\272\335\011n%\306\333\334\346\0023\263\375\370"
 112      6E25C6DB 
 112      DCE60233 
 112      B3FDF8
 113 0387 E727436A 		.ascii	"\347'Cj\224\344BR\000\263>B>\200h\016/M\302\250NV\374"
 113      94E44252 
 113      00B33E42 
 113      3E80680E 
 113      2F4DC2A8 
 114 039e 66CADB80 		.ascii	"f\312\333\200\244o's\212\273\220\234\222R\232\251k."
 114      A46F2773 
ARM GAS  /tmp/ccwHc1qG.s 			page 9


 114      8ABB909C 
 114      92529AA9 
 114      6B2E
 115 03b0 390D5F4E 		.ascii	"9\015_N\245~`$\241\015>\037\202\317\311r07\004\257\223"
 115      A57E6024 
 115      A10D3E1F 
 115      82CFC972 
 115      303704AF 
 116 03c5 9F265830 		.ascii	"\237&X09\232\227\362\250\233\251\240\206\207&\375\256"
 116      399A97F2 
 116      A89BA9A0 
 116      868726FD 
 116      AE
 117 03d6 1E290552 		.ascii	"\036)\005R\260><\244\262\363\254\357v`\023\367\216\203"
 117      B03E3CA4 
 117      B2F3ACEF 
 117      766013F7 
 117      8E83
 118 03e8 0DAC7213 		.ascii	"\015\254r\023g\336\015\264rgjD{\037\250a\307\203{d{"
 118      67DE0DB4 
 118      72676A44 
 118      7B1FA861 
 118      C7837B64 
 119 03fd EFA8AD4F 		.ascii	"\357\250\255O\003\267\334^\337W\201lnMg\331\322\330"
 119      03B7DC5E 
 119      DF57816C 
 119      6E4D67D9 
 119      D2D8
 120 040f EEDE1B27 		.ascii	"\356\336\033'\207\324\366f`\034\263$uHJ\254\336\316"
 120      87D4F666 
 120      601CB324 
 120      75484AAC 
 120      DECE
 121 0421 54EE9B30 		.ascii	"T\356\2330\312w\371\347\316\014\356\233\210\035\353"
 121      CA77F9E7 
 121      CE0CEE9B 
 121      881DEB
 122 0430 007F0AB6 		.ascii	"\000\177\012\266\253\243]\332\017\237\307\311\355J\345"
 122      ABA35DDA 
 122      0F9FC7C9 
 122      ED4AE5
 123 043f 54A539A2 		.ascii	"T\2459\242\322.\213*F\271M\352\2313!\236\027\177J\003"
 123      D22E8B2A 
 123      46B94DEA 
 123      9933219E 
 123      177F4A03 
 124 0453 7B9FAF5B 		.ascii	"{\237\257[\255s\022s\245\263\334W\037:e3K\334.\275\024"
 124      AD731273 
 124      A5B3DC57 
 124      1F3A6533 
 124      4BDC2EBD 
 125 0468 4E5DA6CD 		.ascii	"N]\246\315\234\361\264\314\020\222_\015&\371j\000I\037"
 125      9CF1B4CC 
 125      10925F0D 
 125      26F96A00 
 125      491F
 126 047a CCE757CD 		.ascii	"\314\347W\315d\270\234X_%\351\373\020^<pY\335o/Q\335"
ARM GAS  /tmp/ccwHc1qG.s 			page 10


 126      64B89C58 
 126      5F25E9FB 
 126      105E3C70 
 126      59DD6F2F 
 127 0490 CCA7BDF3 		.ascii	"\314\247\275\363\326`&\261\026\343\213L\216g\357Q\276"
 127      D66026B1 
 127      16E38B4C 
 127      8E67EF51 
 127      BE
 128 04a1 3B2B5E39 		.ascii	";+^9bSe\312\224Qrl\013\253q\223V\214Y\011\210\361/\201"
 128      625365CA 
 128      9451726C 
 128      0BAB7193 
 128      568C5909 
 129 04b9 47CF8604 		.ascii	"G\317\206\004\254\002\032QYvDe\265\370\030\2145\365"
 129      AC021A51 
 129      59764465 
 129      B5F8188C 
 129      35F5
 130 04cb BEDF755D 		.ascii	"\276\337u]\015\221\203\373,\322nU-\213\270'w\224\347"
 130      0D9183FB 
 130      2CD26E55 
 130      2D8BB827 
 130      7794E7
 131 04de F22BDC33 		.ascii	"\362+\3343U\236\022\224\225\"\0270\236\357V\216k\012"
 131      559E1294 
 131      95221730 
 131      9EEF568E 
 131      6B0A
 132 04f0 1FB74FBD 		.ascii	"\037\267O\275\201\345\001\321\213\335\205Pke\243N\234"
 132      81E501D1 
 132      8BDD8550 
 132      6B65A34E 
 132      9C
 133 0501 9CC8385E 		.ascii	"\234\3108^v\023c\025\330\224\012\256t\251C\231\026\265"
 133      76136315 
 133      D8940AAE 
 133      74A94399 
 133      16B5
 134 0513 80E9510B 		.ascii	"\200\351Q\013\230\241\223x\272~\001\312\235K\346\315"
 134      98A19378 
 134      BA7E01CA 
 134      9D4BE6CD 
 135 0523 54CE0F43 		.ascii	"T\316\017C8\245\032gA<p\305\250k\232^]\263x]v\256\266"
 135      38A51A67 
 135      413C70C5 
 135      A86B9A5E 
 135      5DB3785D 
 136 053a AEB0DAF2 		.ascii	"\256\260\332\362\023W\333\3548\325\226oHm\005\220\200"
 136      1357DBEC 
 136      38D5966F 
 136      486D0590 
 136      80
 137 054b A94A8850 		.ascii	"\251J\210P[\201\216\332\034\\m\335a\265\025F\035\326"
 137      5B818EDA 
 137      1C5C6DDD 
 137      61B51546 
ARM GAS  /tmp/ccwHc1qG.s 			page 11


 137      1DD6
 138 055d 9CA8C39A 		.ascii	"\234\250\303\232\253\323\3159\332n\232\365\324V\004"
 138      ABD3CD39 
 138      DA6E9AF5 
 138      D45604
 139 056c C4D86A2B 		.ascii	"\304\330j+\214\214\003T^\201\223\253\255[\035\212'j"
 139      8C8C0354 
 139      5E8193AB 
 139      AD5B1D8A 
 139      276A
 140 057e 01C5510B 		.ascii	"\001\305Q\013(\321I\\\254_\300\010\265\315\323S[)\304"
 140      28D1495C 
 140      AC5FC008 
 140      B5CDD353 
 140      5B29C4
 141 0591 03578CBA 		.ascii	"\003W\214\272<zu\225\362\272\\\212\332z{\302j\233\237"
 141      3C7A7595 
 141      F2BA5C8A 
 141      DA7A7BC2 
 141      6A9B9F
 142 05a4 B8DA1628 		.ascii	"\270\332\026(jK\213\241\266\371OW\033\277\223\217T\324"
 142      6A4B8BA1 
 142      B6F94F57 
 142      1BBF938F 
 142      54D4
 143 05b6 0224A58F 		.ascii	"\002$\245\217TT\2222\217\033=WUE-\214:\220\262\250\003"
 143      54549232 
 143      8F1B3D57 
 143      55452D8C 
 143      3A90B2A8 
 144 05cb 59A4D3B1 		.ascii	"Y\244\323\2612m\307\254z\212Z\014\304\330\212Z\030\031"
 144      326DC7AC 
 144      7A8A5A0C 
 144      C4D88A5A 
 144      1819
 145 05dd 07A8F2FF 		.ascii	"\007\250\362\377\341_{\324v\227G=\366\222\250\307^\252"
 145      E15F7BD4 
 145      7697473D 
 145      F692A8C7 
 145      5EAA
 146 05ef 936E8936 		.ascii	"\223n\2116\235M\253\243\260f\227\205u\364\231j\\\016"
 146      9D4DABA3 
 146      B0669785 
 146      75F4996A 
 146      5C0E
 147 0601 F1C015A3 		.ascii	"\361\300\025\243\232\362\310\360@\345\363H\346\327G"
 147      9AF2C8F0 
 147      40E5F348 
 147      E6D747
 148 0610 58B31551 		.ascii	"X\263\025Q\353Z\021\265\256\225:\211W\350\327\245\031"
 148      EB5A11B5 
 148      AE953A89 
 148      57E8D7A5 
 148      19
 149 0621 C72A20C6 		.ascii	"\307* \306\036G\205^\001\253\224q\204\217]\031\365\330"
 149      1E47855E 
 149      01AB9471 
ARM GAS  /tmp/ccwHc1qG.s 			page 12


 149      848F5D19 
 149      F5D8
 150 0633 55518FBD 		.ascii	"UQ\217\275Z']\225\276\212F\214c\215\3368\252!\036\270"
 150      5A275D95 
 150      BE8A468C 
 150      638DDE38 
 150      AA211EB8 
 151 0647 625453A9 		.ascii	"bTS\251'\256j>\016x\274\021\007I;T\271\005o\341\327"
 151      27AE6A3E 
 151      0E78BC11 
 151      07493B54 
 151      B9056FE1 
 152 065c 49FBADAE 		.ascii	"I\373\255\256a\252>\374\263W\015^xx\377.\3674m\333\332"
 152      61AA3EFC 
 152      B3570D5E 
 152      7878FF2E 
 152      F7346DDB 
 153 0671 E8697CAD 		.ascii	"\350i|\255\321S\331\324\274\271y\303F\317\266\035\236"
 153      D153D9D4 
 153      BCB979C3 
 153      46CFB61D 
 153      9E
 154 0682 A6FA16CF 		.ascii	"\246\372\026\317\033\333\266\357\334\341\331X\263\276"
 154      1BDBB6EF 
 154      DCE1D958 
 154      B3BE
 155 0690 749E67DD 		.ascii	"t\236g\335\272*\317\352\272\232\265o\226x\032\337\332"
 155      BA2ACFEA 
 155      BA9AB56F 
 155      96781ADF 
 155      DA
 156 06a1 F96A4BCB 		.ascii	"\371jK\313\226\242\006boh\252omml)*67l\255\337\361:"
 156      96A20662 
 156      6F68AA6F 
 156      6D6D6C29 
 156      2A36376C 
 157 06b9 6D35E19B 		.ascii	"m5\341\233\011\211\377\000\0154g\372"
 157      0989FF00 
 157      0D3467FA 
 158              		.text
 159              		.section	.gnu.lto_ext_lld_channel_disable.1aaf71ade60aa10e,"",%progbits
 160 0000 789CED55 		.ascii	"x\234\355UKh\023Q\024}\367\315$i\322_\372I\333\324\205"
 160      4B681351 
 160      147DF7CD 
 160      2469D25F 
 160      FA49DBD4 
 161 0015 A51B1742 		.ascii	"\245\033\027B\207\332\215\010\342BE\012\025\205F\250"
 161      87DA8D08 
 161      E242450A 
 161      158546A8 
 162 0025 6E248D31 		.ascii	"n$\2151\011\246\215\264E\334\365\245\311\242H)\261t"
 162      09A68DB4 
 162      45DCF5A5 
 162      C9A24829 
 162      B174
 163 0037 E107A115 		.ascii	"\341\007\241\025\204\"\370A\004E#\214\256Z\260JW.\272"
 163      8422F841 
ARM GAS  /tmp/ccwHc1qG.s 			page 13


 163      0445238C 
 163      AE5AB04A 
 163      572EBA
 164 004a E9A20B41 		.ascii	"\351\242\013A\260 (TJ\307{g:\351\264\231!\261\340\312"
 164      B0202854 
 164      4AC77B67 
 164      3AE9B499 
 164      21B1E0CA 
 165 005e 3EC849EE 		.ascii	">\310I\356\275\357\234\373\316\233\344\2063\316v\257"
 165      BDEF9CFB 
 165      CE9BE486 
 165      33CE76AF 
 166 006e 467CFDF2 		.ascii	"F|\375\3622\326C\201\304\000w\000\007\300\000\330(\207"
 166      32D64381 
 166      C4007700 
 166      07C000D8 
 166      2887
 167 0080 D18BF491 		.ascii	"\321\213\364\221\005\333\331\254\020\271\225G\337\326"
 167      05DBD9AC 
 167      10B99547 
 167      DFD6
 168 008e F9DD6935 		.ascii	"\371\335i5;#64\015 \001\250x\034X\004X\037\006\320\246"
 168      3B233634 
 168      0D2001A8 
 168      781C5804 
 168      581F06D0 
 169 00a3 BF717967 		.ascii	"\277qyg\013\203+^\314\011\257\316\223\022\244\371\217"
 169      0B832B5E 
 169      CC09AFCE 
 169      9312A4F9 
 169      8F
 170 00b4 3853EAFA 		.ascii	"8S\352\372\344t\360\326\314XNl\342\021\023 \225G\333"
 170      E474F0D6 
 170      CC584E6C 
 170      E2111320 
 170      9547DB
 171 00c7 D16A2F1C 		.ascii	"\321j/\034\271L\316\227\325\363\363\"\253j\332\211\362"
 171      B94CCE97 
 171      D5F3F322 
 171      AB6ADA89 
 171      F2
 172 00d8 394B7FCF 		.ascii	"9K\177\317Q\177\177\232\360\345\322\343B\323F\377\337"
 172      517F7F9A 
 172      F0E5D2E3 
 172      42D346FF 
 172      DF
 173 00e9 4BD8D8BF 		.ascii	"K\330\330\277\204)us\377\022\246\324\333\237'\3660\025"
 173      84297573 
 173      FF12A6D4 
 173      DB9F27F6 
 173      3015
 174 00fb D4E5C9C9 		.ascii	"\324\345\311\311\240\330\246\2718;Sj\334=\343\352\212"
 174      A0D8A6B9 
 174      383B536A 
 174      DC3DE3EA 
 174      8A
 175 010c A67DFCF9 		.ascii	"\246}\374\371r\"\017\357\370\001\200\001\232\222a\230"
ARM GAS  /tmp/ccwHc1qG.s 			page 14


 175      72220FEF 
 175      F8018001 
 175      9A926198 
 176 011c 85761CB0 		.ascii	"\205v\034\2608\307d\002\027f\336`\306\215\201\344!\250"
 176      38C76402 
 176      1766DE60 
 176      C68D81E4 
 176      21A8
 177 012e 4090BD04 		.ascii	"@\220\275\004>\202J\312U\021TSXCPK\340\247\\\035A=\205"
 177      3E824ACA 
 177      55115453 
 177      5843504B 
 177      E0A75C1D 
 178 0145 0D048D04 		.ascii	"\015\004\215\004\001\3125\0214S\330B\020$he\272a\354"
 178      01CA3511 
 178      3453D842 
 178      10246865 
 178      BA61EC
 179 0158 99C5A1DA 		.ascii	"\231\305\241\332f4\326/\000WH\307\0134\370\245E6\366"
 179      6634D62F 
 179      005748C7 
 179      0B34F8A5 
 179      4536F6
 180 016b 3DF3EA81 		.ascii	"=\363\352\201\022\206<\270X\014x\214\376\011\026Y\346"
 180      12863CB8 
 180      580C788C 
 180      FE091659 
 180      E6
 181 017c AD64A624 		.ascii	"\255d\246$\314\222kv\220\351\225'\205\212\254\247\201"
 181      CC926B76 
 181      90E99527 
 181      858AACA7 
 181      81
 182 018d F6500595 		.ascii	"\366P\005\225\206\314\222+F\317\011s\257\357\254\275"
 182      86CC922B 
 182      46CF0973 
 182      AFEFACBD 
 183 019d E766D64D 		.ascii	"\347f\326M\004I\214g\205\254k\215\0355+\236]\225\017"
 183      04498C67 
 183      85AC6B8D 
 183      1D352B9E 
 183      5D950F
 184 01b0 97CC4AC5 		.ascii	"\227\314J\305a\366Xd\323\376\004\270\357\263{\270\313"
 184      61F65864 
 184      D3FE04B8 
 184      EFB37BB8 
 184      CB
 185 01c1 63EED6EF 		.ascii	"c\356\326\357\276\037\314\247\200r\371\314S0y^<\204"
 185      BE1FCCA7 
 185      8072F9CC 
 185      5330795E 
 185      3C84
 186 01d3 E124F3B0 		.ascii	"\341$\363\260\220\364\241\036\226\364\016\335F\322F"
 186      90F4A11E 
 186      96F40EDD 
 186      46D246
 187 01e2 DE5D2C8F 		.ascii	"\336],\217T\303\316\334ZA\254\322\321M\225\243\233j"
ARM GAS  /tmp/ccwHc1qG.s 			page 15


 187      54C3CEDC 
 187      5A41ACD2 
 187      D14D95A3 
 187      9B6A
 188 01f4 9B7655D6 		.ascii	"\233vU\326v`\357\246\306\316M-\352a\251\204\233\312"
 188      7660EFA6 
 188      C6CE4D2D 
 188      EA61A984 
 188      9BCA
 189 0206 6279A41A 		.ascii	"by\244\032n\346\267\335\370\035\335\3249\272\251\267"
 189      6EE6B7DD 
 189      F81DDDD4 
 189      39BAA9B7 
 190 0216 6957676D 		.ascii	"iWgm\307\355\3354\330\271iD=,\225p\343/\226G\252\341"
 190      C7EDDD34 
 190      D8B96944 
 190      3D2C9570 
 190      E32F9647 
 191 022c E6EBB69B 		.ascii	"\346\353\266\233\200\243\233&G7\3156\355\232\254\355"
 191      80A39B26 
 191      4737CD36 
 191      ED9AACED 
 192 023c 247B372D 		.ascii	"${7-vn\202\250\207\245\022n\002\305\362H\335\372\341"
 192      766E82A8 
 192      87A5126E 
 192      02C5F248 
 192      DDFAE1
 193 024f FC5828A8 		.ascii	"\374X(\250\265\356>\364\302s\237UTtYU[\255\252\362\226"
 193      B5EE3EF4 
 193      C2739F55 
 193      54745955 
 193      5BADAAF2 
 194 0264 2A1E7189 		.ascii	"*\036q\211\245W\226\017\031<s\205\350+A\367xL\211\247"
 194      A557960F 
 194      193C7385 
 194      E82B41F7 
 194      784C89A7 
 195 0278 06A24AF4 		.ascii	"\006\242J\364jT9\031O\364'\316\365*\251a%\036N*\327"
 195      6A543919 
 195      4FF427CE 
 195      F52AA961 
 195      251E4E2A 
 196 028d 534323C3 		.ascii	"SC#\303Jo\350l\327\021\245\247\347\224r\272/\324}\243"
 196      4A6FE86C 
 196      D711A5A7 
 196      E79472BA 
 196      2FD47DA3 
 197 02a1 5389DE1C 		.ascii	"S\211\336\034\271\234L^\351\2100o$\036\036\034\214&"
 197      B99C4C5E 
 197      E988306F 
 197      241E1E1C 
 197      8C26
 198 02b3 3B3A5D91 		.ascii	";:]\221\201\360\360\265?g\216F\312"
 198      81F0F0B5 
 198      3F678E46 
 198      CA
 199              		.text
ARM GAS  /tmp/ccwHc1qG.s 			page 16


 200              		.section	.gnu.lto_ext_lld_start.1aaf71ade60aa10e,"",%progbits
 201 0000 789C9553 		.ascii	"x\234\225SMh\023Q\020\236y\357\355O\022k+=\365V\352"
 201      4D681351 
 201      109E79EF 
 201      ED4F126B 
 201      2B3DF556 
 202 0015 CDA24BF5 		.ascii	"\315\242K\365&\210\210z\020*\012M \"X\222\030\223\205"
 202      2688887A 
 202      102A0A4D 
 202      20225892 
 202      189385
 203 0028 D4882D22 		.ascii	"\324\210-\"x\310K\223J\021\224 \005\213\275TD\024\021"
 203      78C84B93 
 203      4A119420 
 203      058BBD54 
 203      441411
 204 003b F4A0A808 		.ascii	"\364\240\250\010\022P\244=\210x\253\242\020\005\177"
 204      1250A43D 
 204      8878ABA2 
 204      10057F
 205 004a 0EA51EBC 		.ascii	"\016\245\036\274\210\212qf7\273\251\032P\027v\336\276"
 205      888A7166 
 205      37BBA91A 
 205      501776DE 
 205      BE
 206 005b 99F9BEFD 		.ascii	"\231\371\276\375\366\233}\002\004\374~\035\242\373\215"
 206      F69B7D02 
 206      04FC7E1D 
 206      A2FB8D
 207 006a 04D8C19B 		.ascii	"\004\330\301\233\030 u\240\020\224\320BQP\022iA\205"
 207      182075A0 
 207      1094D042 
 207      51501269 
 207      4185
 208 007c 118A8630 		.ascii	"\021\212\20609oq\336D\2332\226\027m\257\032\021\006"
 208      396F71DE 
 208      449B3296 
 208      176DAF1A 
 208      1106
 209 008e 57A35C8D 		.ascii	"W\243\\\215\"\022\035BIHe\230\226\035\211b\351\000\247"
 209      22121D42 
 209      49486598 
 209      961D8962 
 209      E900A7
 210 00a1 C018804B 		.ascii	"\300\030\200KZ\237oL\255,\341\205\231zy^\177o6\021]"
 210      5A9F6F4C 
 210      AD2CE185 
 210      997A795E 
 210      7F6F3611 
 211 00b6 2E661092 		.ascii	".f\020\222\364D\234\274\010\374U\251\017\254\177{r\256"
 211      F4449CBC 
 211      08FC55A9 
 211      0FAC7F7B 
 211      72AE
 212 00c8 EFCCFC64 		.ascii	"\357\314\374dM\377 \234\213\262\015\353\367a\252\023"
 212      4DFF209C 
 212      8BB20DEB 
ARM GAS  /tmp/ccwHc1qG.s 			page 17


 212      F761AA13 
 213 00d8 4CCFBDDB 		.ascii	"L\317\275\333\277\240\253\365fs\273\313_\364O\230\273"
 213      BFA0ABF5 
 213      6673BBCB 
 213      5FF44F98 
 213      BB
 214 00e9 FF8FA9BF 		.ascii	"\377\217\251\277>=\323\247\333\362\014\001\333\360/"
 214      3E3DD3A7 
 214      DBF20C01 
 214      DBF02F
 215 00f8 C89BA2DE 		.ascii	"\310\233\242\336h6_\335\271\375v\021\327E\020Rx\005"
 215      68365FDD 
 215      B9FD7611 
 215      D7451052 
 215      7805
 216 010a 0740E018 		.ascii	"\007@\340\030\202\0042F\2652\006m\244IAY\034\354V\232"
 216      82043246 
 216      B532066D 
 216      A4494159 
 216      1CEC569A 
 217 011e 4D85AAD6 		.ascii	"M\205\252\326\265\376`\237\361\234\213{1\301\023\225"
 217      B5FE609F 
 217      F19C8B7B 
 217      31C11395 
 218 012e 4F61F2E5 		.ascii	"Oa\362\345,9\236\302\253h@\016\345 lp\321\234\203\213"
 218      2C399EC2 
 218      AB68400E 
 218      E5206C70 
 218      D19C838B 
 219 0142 A4C7CAA1 		.ascii	"\244\307\312\241`]\266\247&\035\332\276\000\217?\224"
 219      605DB6A7 
 219      261DDABE 
 219      008F3F94 
 220 0152 BB4208B7 		.ascii	"\273B\010\267\230\253g\222`\363\3453\2504\356W\272\375"
 220      98AB6792 
 220      60F3E533 
 220      A834EE57 
 220      BAFD
 221 0164 368053F0 		.ascii	"6\200S\360UO\353\036\027#\031\364\233]\214\006\375\312"
 221      554FEB1E 
 221      172319F4 
 221      9B5D8C06 
 221      FDCA
 222 0176 97726FF6 		.ascii	"\227ro\366\323\307P\212b^\243\315i\264\344^+\006\035"
 222      D3C7508A 
 222      625EA3CD 
 222      69B4E45E 
 222      2B061D
 223 0189 86275676 		.ascii	"\206'Vv\026\033\010b\310\255\336\000b\016\302u\026\021"
 223      161B0862 
 223      C8ADDE00 
 223      620EC275 
 223      1611
 224 019b DB083774 		.ascii	"\333\0107tM\353\222\213k8E\217\007]\354\362\251\326"
 224      4DEB928B 
 224      6B38458F 
 224      075DECF2 
ARM GAS  /tmp/ccwHc1qG.s 			page 18


 224      A9D6
 225 01ad 1275D2FF 		.ascii	"\022u\322\377\205<*\377p\344B\312t\253\302\344\225\007"
 225      853C2AFF 
 225      70E442CA 
 225      74ABC2E4 
 225      9507
 226 01bf 951511B0 		.ascii	"\225\025\021\260\223\006\223\201Jy.U\227\313Ca\311\313"
 226      93069381 
 226      4A792E55 
 226      97CB4361 
 226      C9CB
 227 01d1 AF9E6E02 		.ascii	"\257\236n\002M\317\245\251\306\303\313\177\272\324\235"
 227      4DCFA5A9 
 227      C6C3CB7F 
 227      BAD49D
 228 01e0 095F2B72 		.ascii	"\011_+r|\014z\002\224\325B-<\352\210\222\235Q\266\347"
 228      7C0C7A02 
 228      94D5422D 
 228      3CEA8892 
 228      9D51B6E7 
 229 01f4 5E65BAF2 		.ascii	"^e\272\362\371\354h\240\311\246\026\317d\014%\321y\225"
 229      F9EC68A0 
 229      C9A616CF 
 229      640C25D1 
 229      7995
 230 0206 24FC7DD9 		.ascii	"$\374}\331\012\232\374\216\336P\366\013@\232\215Z\222"
 230      0A9AFC8E 
 230      DE50F60B 
 230      409A8D5A 
 230      92
 231 0217 84B7BFC4 		.ascii	"\204\267\277\304\030Dc\224\317\241\334X\\\037\010\362"
 231      18446394 
 231      CFA1DC58 
 231      5C1F08F2 
 232 0227 AF383BC6 		.ascii	"\2578;\306_\261\325\311\027\307\262N\366H\326\331\231"
 232      5FB1D5C9 
 232      17C7B24E 
 232      F648D6D9 
 232      99
 233 0238 77D3EEBE 		.ascii	"w\323\356\276\021\2478\356\344S\005\347X\361\370\304"
 233      11A738EE 
 233      E45305E7 
 233      58F1F8C4 
 234 0248 B83312DF 		.ascii	"\2703\022\337\273e\2633<\274\313\331\235\214\35791\344"
 234      BB65B333 
 234      3CBCCBD9 
 234      9D8CEF39 
 234      31E4
 235 025a 644F4E8C 		.ascii	"dON\214\026\012\2077e@\025\334\243\331\237\030Y\340"
 235      160A8737 
 235      654015DC 
 235      A3D99F18 
 235      59E0
 236 026c 18       		.ascii	"\030"
 237              		.text
 238              		.section	.gnu.lto_.symbol_nodes.1aaf71ade60aa10e,"",%progbits
 239 0000 789C4DC8 		.ascii	"x\234M\310;\016\202P\024\204\341\231s\270\\w\301R\207"
ARM GAS  /tmp/ccwHc1qG.s 			page 19


 239      3B0E8250 
 239      1484E199 
 239      73B85C77 
 239      C15287
 240 0013 60622869 		.ascii	"`b(i|\000\332X\260\021zKk\027\340\032\010\030\011\227"
 240      7C00DA58 
 240      B0117A4B 
 240      6B17E01A 
 240      08180997 
 241 0027 69FE7C63 		.ascii	"i\376|c0\014Xg\027\012h^\200\364\256\031\316D\024\354"
 241      300C5867 
 241      170A685E 
 241      80F4AE19 
 241      CE4414EC 
 242 003b 4631BDD6 		.ascii	"F1\275\326R\266cG\371\216W*KdO\205?\313\222|Py\322\235"
 242      52B66347 
 242      F98E572A 
 242      4B644F85 
 242      3FCB927C 
 243 0053 8A9B1C39 		.ascii	"\212\233\0349\216\237\211n\021\343\257\341\260\326Q"
 243      8E9F896E 
 243      11E3AFE1 
 243      B0D651
 244 0062 9DBE8587 		.ascii	"\235\276\205\207\014\317\245\230\001w\2742*"
 244      0CCFA598 
 244      0177BC32 
 244      2A
 245              		.text
 246              		.section	.gnu.lto_.refs.1aaf71ade60aa10e,"",%progbits
 247 0000 789C6362 		.ascii	"x\234cb`b`e\200\000F\006&F\006\000\000\237\000\016"
 247      60626065 
 247      80004606 
 247      26460600 
 247      009F000E 
 248              		.text
 249              		.section	.gnu.lto_.decls.1aaf71ade60aa10e,"",%progbits
 250 0000 789CAD58 		.ascii	"x\234\255XklT\325\026\336\353\314\224v\240\226\207\362"
 250      6B6C54D5 
 250      16DEEBCC 
 250      9476A096 
 250      87F2
 251 0012 3091303E 		.ascii	"0\2210>@c\242S \361\207\211\206\233R\264\211<2S|\374"
 251      4063A253 
 251      20F18789 
 251      869B52B4 
 251      893C3253 
 252 0028 9AEC4E4F 		.ascii	"\232\354NO\355\3500\255\235A\313/\017-\364>\274\304"
 252      EDE830AD 
 252      9D41CB2F 
 252      0F2DF43E 
 252      BCC4
 253 003a 8217D41B 		.ascii	"\202\027\324\033\204V\221Z\343\003STT\036\007\264\355"
 253      8456915A 
 253      E3035354 
 253      541E07B4 
 253      ED
 254 004b 58104D21 		.ascii	"X\020M!\301\020\321Q\261zo\252\202\212\312\275\027\346"
ARM GAS  /tmp/ccwHc1qG.s 			page 20


 254      C110D151 
 254      B17A6FAA 
 254      828ACABD 
 254      17E6
 255 005d AEBDCF3E 		.ascii	"\256\275\317>s\036=\247s\246\367\236d\235\347^\337\372"
 255      731E3DA7 
 255      73A6F79E 
 255      649DE75E 
 255      DFFA
 256 006f D6DA6BED 		.ascii	"\326\332k\355Y{$\"\221V\211\220\034\036\3353\011\271"
 256      597B2422 
 256      91568990 
 256      1C1EDD33 
 256      09B9
 257 0081 88F79308 		.ascii	"\210\367\223\010!w\022\343(C\351F\331\2152\2022\212"
 257      217712E3 
 257      2843E946 
 257      D98D3282 
 257      328A
 258 0093 721EE502 		.ascii	"r\036\345\002\312o(\027Q\000\345\337\304z0\035\037\312"
 258      CA6F2817 
 258      5100E5DF 
 258      C47A301D 
 258      1FCA
 259 00a5 25945E94 		.ascii	"%\224^\224\036\361^\022\337.\270\3501;SP\372P*P\312"
 259      1EF15E12 
 259      DF2EB8E8 
 259      313B5350 
 259      FA502A50 
 260 00ba 512EA3EC 		.ascii	"Q.\243\354AyY`MG\305\347\361Z\202\327\034^\375(\257"
 260      41795960 
 260      4D47C5E7 
 260      F15A82D7 
 260      1C5EFD28 
 261 00cf A394E2B3 		.ascii	"\243\224\342\263\037e*hvv\013\216\314\316\3276;\314"
 261      1F652A68 
 261      76760B8E 
 261      CCCED736 
 261      3BCC
 262 00e1 97594257 		.ascii	"\227YBW\267S\212r\000e\006h6?C9\212r\312d\373z\374v"
 262      B7538A72 
 262      00650668 
 262      363F4339 
 262      8A72CA64 
 263 00f9 03CA7C94 		.ascii	"\003\312|\224\203\202\303\\\224+\005\227\005x\275\021"
 263      8382C35C 
 263      942B0597 
 263      0578BD11 
 264 0109 2580F7FB 		.ascii	"%\200\367\373Q\336G\031B\271\206\275C\231\2022L4\236"
 264      51DE4719 
 264      42B986BD 
 264      43998232 
 264      4C349E
 265 011c 8C2F082E 		.ascii	"\214/\010.,V\377@\371\016\345&\260r\035\025\363`\346"
 265      2C56FF40 
 265      F90EE526 
 265      B0721D15 
ARM GAS  /tmp/ccwHc1qG.s 			page 21


 265      F360E6
 266 012f 7A59F03D 		.ascii	"zY\360=j\212C\211\011W\2675U\330\030\025q\370\321\026"
 266      6A8A4389 
 266      0957B735 
 266      55D81815 
 266      71F8D116 
 267 0143 073697D3 		.ascii	"\0076\227\323m\361> \260O\271\304\335\036\003\026\247"
 267      6DF13E20 
 267      B04FB9C4 
 267      DD1E0316 
 267      A7
 268 0154 93A67930 		.ascii	"\223\246y0\373\355\0276.\022#\177\030\217\237m<\346"
 268      FBED1736 
 268      2E12237F 
 268      188F9F6D 
 268      3CE6
 269 0166 911D4A97 		.ascii	"\221\035J\227\232\3358\262\347j\245\253M\315\345\016"
 269      9ADD38B2 
 269      E76AA5AB 
 269      4DCDE50E 
 270 0176 2DC1F9D9 		.ascii	"-\301\371\331\252\340\321\325\241(\220\246p\347Lr?P"
 270      AAE0D1D5 
 270      A12890A6 
 270      70E74C72 
 270      3F50
 271 0188 A8089020 		.ascii	"\250\010\220 \277)\017ptB(<\017\263\304\335j\237\206"
 271      BF290F70 
 271      7442283C 
 271      0FB3C4DD 
 271      6A9F86
 272 019b 27913B80 		.ascii	"'\221;\200\334LzQ\277SQ\216,\260\205T\034\013\310\213"
 272      DC4C7A51 
 272      BF53518E 
 272      2CB08554 
 272      1C0BC88B 
 273 01af CC82F292 		.ascii	"\314\202\362\222\342\343\370\014\241\033\346\231\207"
 273      E2E3F80C 
 273      A11BE699 
 273      87
 274 01bc 507801A4 		.ascii	"Px\001\244\261L\325\275\203\345\235\353\263\271\334"
 274      B14CD5BD 
 274      83E59DEB 
 274      B3B9DC
 275 01cb CEA0779A 		.ascii	"\316\240w\232=\202\246\217\247'\346\371_\024\245\215"
 275      3D82A68F 
 275      A727E6F9 
 275      5F14A58D 
 276 01db 29DE9DA9 		.ascii	")\336\235\251\230A63\224`\006gA\350/\321\365\331\344"
 276      98413633 
 276      94600667 
 276      41E82FD1 
 276      F5D9E4
 277 01ee CF27BBD0 		.ascii	"\317'\273\320\225\354\211\216c\335\320\216\226(\274"
 277      95EC898E 
 277      63DDD08E 
 277      9628BC
 278 01fd 0C331067 		.ascii	"\0143\020g\035 \360.\270Y\260\0230]K\334p(\274\202\376"
ARM GAS  /tmp/ccwHc1qG.s 			page 22


 278      1D20F02E 
 278      B859B013 
 278      305D4BDC 
 278      7028BC82 
 279 0212 507815B5 		.ascii	"Px\025\2655E\216\254d\237\036\272\260\036\326sd\366"
 279      35458EAC 
 279      649F1EBA 
 279      B01ED673 
 279      64F6
 280 0224 8D58602D 		.ascii	"\215X`-\307\265\244\013y\253_\014\356\230\255dU(%\035"
 280      C7B5A40B 
 280      79AB5F0C 
 280      EE98AD64 
 280      5528251D 
 281 0238 CC8DECC6 		.ascii	"\314\215\354\306\2669\317\030F\313t\243`\"?\320\277"
 281      B639CF18 
 281      46CB74A3 
 281      60223FD0 
 281      BF
 282 0249 5051CA28 		.ascii	"PQ\312(\354A%\211\034\004+w\017@\214U\037*\233\231\253"
 282      EC412589 
 282      1C042B77 
 282      0F408C55 
 282      1F2A9B99 
 283 025e B97541ED 		.ascii	"\271uA\355\3558\234y\310%\362!\232dp\376\200\361\356"
 283      ED389C79 
 283      C825F221 
 283      9A6470FE 
 283      80F1EE
 284 0271 A4F10E4C 		.ascii	"\244\361\016LC\317\030\257\365\371g\217\0200nr\326\254"
 284      43CF18AF 
 284      F5F9678F 
 284      10306E72 
 284      D6AC
 285 0283 3253A3B0 		.ascii	"2S\243\260\027\346\343\371M\3609\252I\344;\356=\013"
 285      17E6E3F9 
 285      4DF039AA 
 285      49E43BEE 
 285      3D0B
 286 0295 B593A3E2 		.ascii	"\265\223\243\342\326\260[\241?\210\360\343|]\372\022"
 286      D6B05BA1 
 286      3F88F0E3 
 286      7C5DFA12 
 287 02a5 9E6A5732 		.ascii	"\236jW2\225Ny\204C\300\224\002\312d\035\261\313\230"
 287      954E7984 
 287      43C09402 
 287      CA641DB1 
 287      CB98
 288 02b7 0FF5C020 		.ascii	"\017\365\300 \004\035\362\3166\230\302!t\245\36086\362"
 288      041DF2CE 
 288      3698C221 
 288      74A5F038 
 288      36F2
 289 02c9 B02DABD4 		.ascii	"\260-\253\3247\006\313\025\277\366\276PF)\352;\203\333"
 289      3706CB15 
 289      BFF6BE50 
 289      4629EA3B 
ARM GAS  /tmp/ccwHc1qG.s 			page 23


 289      83DB
 290 02db 41E93A02 		.ascii	"A\351:\002\323I\247\260U0\235\205'[\321\023\012\375"
 290      D349A7B0 
 290      55309D85 
 290      275BD113 
 290      0AFD
 291 02ed BC227E80 		.ascii	"\274\"~\200\"K\202\021\313\330\211\237\031\340\3043"
 291      224B8211 
 291      CBD8899F 
 291      19E0C433 
 292 02fd 9E4AE1C2 		.ascii	"\236J\341\302\300\366\253\031\361\000\371\2231\023\304"
 292      C0F6AB19 
 292      F100F993 
 292      3113C4
 293 030c 711D10A5 		.ascii	"q\035\020\245\220{\262\3770\264\361j;\012,\303\236\223"
 293      907BB2FF 
 293      30B4F16A 
 293      3B0A2CC3 
 293      9E93
 294 031e ACACBD43 		.ascii	"\254\254\275C=w\342\203\315bI8\316\241N\332\240(\224"
 294      3D77E283 
 294      CD624938 
 294      CEA14EDA 
 294      A02894
 295 0331 06CCA4F9 		.ascii	"\006\314\244\371\263>\200\341\225\006\214\033\326\014"
 295      B33E80E1 
 295      95068C1B 
 295      D60C
 296 033f 4C25C50E 		.ascii	"L%\305\016\227\310\027\334h\306Hg\013\325\302\351\274"
 296      97C817DC 
 296      68C64867 
 296      0BD5C2E9 
 296      BC
 297 0350 6DE82C3C 		.ascii	"m\350,<\253\250\033|\226l\366\276\266\236\264\256\255"
 297      ABA81B7C 
 297      966CF6BE 
 297      B69EB4AE 
 297      AD
 298 0361 147A618A 		.ascii	"\024za\212\376\3409\226j_\307L6\353\247x\034\317\216"
 298      FEE03996 
 298      6A5FC74C 
 298      36EBA778 
 298      1CCF8E
 299 0374 89E35198 		.ascii	"\211\343Q\230H \215_%2\256\361\023\035W1\343'\220\270"
 299      48208D5F 
 299      2532AEF1 
 299      131D5731 
 299      E32790B8 
 300 0388 44CEDB8C 		.ascii	"D\316\333\214[\302\242\271\353\026\212\317\020\3009"
 300      5BC2A2B9 
 300      EB168ACF 
 300      10C039
 301 0397 63C77C93 		.ascii	"c\307|\223H\256\350y\013\216\2015\341\033uD\341C\276"
 301      48AEE879 
 301      0B8E8135 
 301      E11B7544 
 301      E143BE
ARM GAS  /tmp/ccwHc1qG.s 			page 24


 302 03aa 020EC1B5 		.ascii	"\002\016\301\265x\036\306\263=\006\016\353\307\0070"
 302      781EC6B3 
 302      3D060EEB 
 302      C70730
 303 03b9 9DE4674C 		.ascii	"\235\344gL\311{\213C\334\234\375\\LI\236\251\270\271"
 303      C97B8B43 
 303      DC9CFD5C 
 303      4C499EA9 
 303      B8B9
 304 03cb 92E81EB6 		.ascii	"\222\350\036\266\371@\254L\316v\307\311M\223c\232KG"
 304      F940AC4C 
 304      CE76C7C9 
 304      4D93639A 
 304      4B47
 305 03dd B84BEF9B 		.ascii	"\270K\357\233\235\221\310\023>{\236h\313\235I\333X\027"
 305      9D91C813 
 305      3E7B9E68 
 305      CB9D49DB 
 305      5817
 306 03ef 895DDFCD 		.ascii	"\211]\337\315\261\0030\3050\261\325g\373\261\370\337"
 306      B10330C5 
 306      30B1D567 
 306      FBB1F8DF 
 307 03ff 66E955D3 		.ascii	"f\351U\323,\275\306]z\235\317\322~/\304z\015b\226\314"
 307      2CBDC65D 
 307      7A9DCFD2 
 307      7E2FC47A 
 307      0D6296CC 
 308 0413 96C8765B 		.ascii	"\226\310v[ n /(\312\226l\377\257\347|X\332~MU\"\275"
 308      206E202F 
 308      28CA966C 
 308      FFAFE77C 
 308      58DA7E4D 
 309 042a 7CD86EEC 		.ascii	"|\330n\354\263\234L\344\015\210\346l\223\262q\032\344"
 309      B39C4CE4 
 309      0D88E66C 
 309      93B2711A 
 309      E4
 310 043b BBB3DDF6 		.ascii	"\273\263\335\366\356\354\253\261\335Y\366\023\265sH"
 310      EEECABB1 
 310      DD59F613 
 310      B57348
 311 044a EFCEB452 		.ascii	"\357\316\264R\221\310k\216\334\2247\344\2735\203\024"
 311      91C86B8E 
 311      DC9437E4 
 311      BB358314 
 312 045a CEF2BE68 		.ascii	"\316\362\276hd|ZB\3557\246\246\255\022\375\034\330]"
 312      647C5A42 
 312      ED37A6A6 
 312      AD12FD1C 
 312      D85D
 313 046c ED9496A0 		.ascii	"\355\224\226\240\216\336\214\330\275\371\326\321\233"
 313      8EDE8CD8 
 313      BDF9D6D1 
 313      9B
 314 0479 4F8FDBBD 		.ascii	"O\217\333\275\371\310\331\233>\2737\243\236\274\271"
 314      F9C8D99B 
ARM GAS  /tmp/ccwHc1qG.s 			page 25


 314      3EBB37A3 
 314      9EBCB9
 315 0488 A87B43E1 		.ascii	"\250{C\341\237\005\324\306\363f\324\356\315\367\216"
 315      9F05D4C6 
 315      F366D4EE 
 315      CDF78E
 316 0497 9DF3E901 		.ascii	"\235\363\351\001\303\233\036\356\3157\316\336\344\352"
 316      C39B1EEE 
 316      CD37CEDE 
 316      E4EA
 317 04a5 6DDE9C9F 		.ascii	"m\336\234\237P\312\234\267\323\372\311!\310\254\263"
 317      50CA9CB7 
 317      D3FAC921 
 317      C8ACB3
 318 04b4 1E6C83CD 		.ascii	"\036l\203\315\355]\031\345\034[\270un?\333\270\351 "
 318      ED5D19E5 
 318      1C5BB875 
 318      6E3FDBB8 
 318      E920
 319 04c6 BF3A826C 		.ascii	"\277:\202l\371*3\367Y\345\310\006%\227{\\\354K$r\310"
 319      F92A33F7 
 319      59E5C806 
 319      25977B5C 
 319      EC4B2472 
 320 04db EF0CF1BB 		.ascii	"\357\014\361\273\023\204\272g\360\257\012\360\000\315"
 320      1384BA67 
 320      F0AF0AF0 
 320      00CD
 321 04e9 D3013E75 		.ascii	"\323\001>u\001\370\227\025\340:\322\215\331\222}\361"
 321      01F89715 
 321      E03AD28D 
 321      D9927DF1 
 322 04f9 F426ECA2 		.ascii	"\364&\354\242\260\267\270\234\313\345\267\011\347\362"
 322      B0B7B89C 
 322      CBE5B709 
 322      E7F2
 323 0507 106E1DD0 		.ascii	"\020n\035\320\177\0140\333oM\3178\2775\227\214\305\240"
 323      7F0C30DB 
 323      6F4DCF38 
 323      BF35978C 
 323      C5A0
 324 0519 D0764605 		.ascii	"\320vF\005]y\016\3117/g\276\315\334\256\265A9\316\263"
 324      5D790EC9 
 324      372F67BE 
 324      CDDCAEB5 
 324      4139CEB3 
 325 052d A7C4B179 		.ascii	"\247\304\261ys\307a$\332$[\363\326w\2347o\354}\201\346"
 325      73C76124 
 325      DA245BF3 
 325      D6779C37 
 325      6FEC7D81 
 326 0542 6D43BBFA 		.ascii	"mC\273\372\366\361\277\031\315[\373\270]\002\205c|\265"
 326      F6F1BF19 
 326      CD5BFBB8 
 326      5D028563 
 326      7CB5
 327 0554 F4D210ED 		.ascii	"\364\322\020\355\345\2360\012\023h\210\220\326>,zJa"
ARM GAS  /tmp/ccwHc1qG.s 			page 26


 327      E59E300A 
 327      13688890 
 327      D63E2C7A 
 327      4A61
 328 0566 A3C41699 		.ascii	"\243\304\026\231}E\203\005-`\357\232\301\366{\001+s"
 328      7D458305 
 328      2D60EF9A 
 328      C1F67B01 
 328      2B73
 329 0578 67B6DF0C 		.ascii	"g\266\337\014v\270h0+\263\203f\260\001/`\323\334\231"
 329      76B86830 
 329      2BB38366 
 329      B0012F60 
 329      D3DC99
 330 058b 7D62063B 		.ascii	"}b\006;V4X\320)K\310\230$\243\320.\261,\330 \261\337"
 330      563458D0 
 330      294BC898 
 330      24A3D02E 
 330      B12CD820 
 331 05a1 CC3FF2F3 		.ascii	"\314?\362\363\237\371\371\011~\336\304\317OJ\036~K/"
 331      9FF9F909 
 331      7EDEC4CF 
 331      4F4A1E7E 
 331      4B2F
 332 05b3 BB948F56 		.ascii	"\273\224\217V\371nZ\233%\317E\227\315\027\3135$\337"
 332      F96E5A9B 
 332      25CF4597 
 332      CD17CB35 
 332      24DF
 333 05c5 68BEB785 		.ascii	"h\276\267\205\355\226\236\222X\301}\\\270\340\254\030"
 333      ED969E92 
 333      58C17D5C 
 333      B8E0AC18 
 334 05d5 8CC0367B 		.ascii	"\214\3006{\301\355\034\346\005\267\315S\301\365\015"
 334      C1ED1CE6 
 334      05B7CD53 
 334      C1F50D
 335 05e4 6B05A74F 		.ascii	"k\005\247O\324\347\234\302\266\211U\012\356\276\366"
 335      D4E79CC2 
 335      B689550A 
 335      EEBEF6
 336 05f3 0EF359D7 		.ascii	"\016\363Y\327\366Qg\213\0063\347\343z\365\255p'5\366"
 336      F651678B 
 336      0633E7E3 
 336      7AF5AD70 
 336      2735F6
 337 0606 9F1A45BD 		.ascii	"\237\032E\275o\004k\326\230\2071\343.\303(\354\220\212"
 337      6F046BD6 
 337      988731E3 
 337      2EC328EC 
 337      908A
 338 0618 ED6A774A 		.ascii	"\355jwJ\316]\255\321m\231G\241\333\337\333\335\266\262"
 338      CE5DADD1 
 338      6D9947A1 
 338      DBDFDBDD 
 338      B6B2
 339 062a 285CD4FB 		.ascii	"(\\\324\373\206M\245\363\213\227 \316q\000s:\314\351"
ARM GAS  /tmp/ccwHc1qG.s 			page 27


 339      864DA5F3 
 339      8B9720CE 
 339      7100733A 
 339      CCE9
 340 063c 42E1695E 		.ascii	"B\341i^:\317\360\022\371;?o\347\347n/\345\262\305H\374"
 340      3ACFF012 
 340      F93B3F6F 
 340      E7E76E2F 
 340      E5B2C548 
 341 0651 FC9E4EFD 		.ascii	"\374\236N\375?\254\326\372_\004\252\345O\023\333\377"
 341      3FACD6FA 
 341      5F04AAE5 
 341      4F13DBFF 
 342 0661 66031C2C 		.ascii	"f\003\034,c\351\344\03567\346\254\330%\271m:\314\233"
 342      63E9E41D 
 342      3637E6AC 
 342      D825B96D 
 342      3ACC9B
 343 0674 1D631363 		.ascii	"\035c\023c\224\263Z\354.\317\243&\205\323\334\015\233"
 343      94B35AEC 
 343      2ECFA326 
 343      85D3DC0D 
 343      9B
 344 0685 7690EC64 		.ascii	"v\220\354d\377\001\366\217\004\332\374.\335\351\355"
 344      FF01F68F 
 344      04DAFC2E 
 344      DDE9ED
 345 0694 A1C6A635 		.ascii	"\241\306\2465rHn\220CU\215\361\272\370\312H\250)\025"
 345      72486E90 
 345      43558DF1 
 345      BAF8CA48 
 345      A82915
 346 06a7 6AA48950 		.ascii	"j\244\211PsSK:\025\212\324._\274(t\317=KC\325\367\327"
 346      73534B3A 
 346      158AD42E 
 346      5FBC2874 
 346      CF3D4B43 
 347 06be D63CBA30 		.ascii	"\326<\2720$\267\246\243\211D\375\2551R.n\243\361d<="
 347      24B7A6A3 
 347      8944FDAD 
 347      31522E6E 
 347      A3F1643C 
 348 06d3 E9AE15AB 		.ascii	"\351\256\025\253\203U\344FW\270x2\226X[/3\375[\033I"
 348      8355E446 
 348      57B87832 
 348      96585B2F 
 348      33FD5B1B 
 349 06e8 00D196B6 		.ascii	"\000\321\226\266\304\037\225[&L\240\221L\306\333T\232"
 349      C41F955B 
 349      264CA091 
 349      4CC6DB54 
 349      9A
 350 06f9 A6E5687A 		.ascii	"\246\345hz2~\214\256^Q\263\242\246\266\214\335FjW\256"
 350      327E8CAE 
 350      5E51B3A2 
 350      A6B68CDD 
 350      466A57AE 
ARM GAS  /tmp/ccwHc1qG.s 			page 28


 351 070d E2EFFE50 		.ascii	"\342\357\376PU[sou\011\0376\015_T5\322dRNT5%\033\342"
 351      555B736F 
 351      75091F36 
 351      0D5F5435 
 351      D264524E 
 352 0726 0FCE0DAD 		.ascii	"\017\316\015\255M\265\344\231%\345\307\022\361\272P"
 352      4DB5E499 
 352      25E5C712 
 352      F1BA50
 353 0735 2A5D1F4F 		.ascii	"*]\037O2\216ek\361\272xQ4}\213\323\26054\326\030O\312"
 353      328E656B 
 353      F1BA7851 
 353      347D8BD3 
 353      B03534D6 
 354 074c A168BDDC 		.ascii	"\241h\275\334@\327&\322\321\364\272f9\305XE\243\272"
 354      40D726D2 
 354      D1F4BA66 
 354      39C55845 
 354      A3BA
 355 075e A27F4D53 		.ascii	"\242\177MS\275\214aj\216iV\243\351+\220r\214&\022u4"
 355      BD8C616A 
 355      8E6956A3 
 355      E92B9072 
 355      8C261275 
 356 0773 F670342D 		.ascii	"\366p4-\305\352\312\304\247\024\213\210\306jR\214_\362"
 356      C5EACAC4 
 356      A7148B88 
 356      C66A528C 
 356      5FF2
 357 0785 E14DA59B 		.ascii	"\341M\245\233\232\375\370\320<K\177\243\303\311IZ\227"
 357      9AFDF8D0 
 357      3C4B7FA3 
 357      C3C9495A 
 357      97
 358 0796 904BC5E3 		.ascii	"\220K\305\343l\373\347\372x\212}\277\302\000\242-\234"
 358      6CFBE7FA 
 358      788A7DBF 
 358      C200A22D 
 358      9C
 359 07a7 C1CABA87 		.ascii	"\301\312\272\207\344X\272\006\247\355\016O\321\347\347"
 359      E458BA06 
 359      A7ED0E4F 
 359      D1E7E7
 360 07b6 6595ADAD 		.ascii	"e\225\255\255\241\374\224\247Z\320\3259\372#^\343\321"
 360      A1FC94A7 
 360      5AD0D539 
 360      FA235EE3 
 360      D1
 361 07c7 78CB23BA 		.ascii	"x\313#\272\311\331c>h"
 361      C9D9633E 
 361      68
 362 07d0 544BD8B4 		.ascii	"TK\330\264/\254t4\212CCU\313#5\0214\207\223\260f\361"
 362      2FAC7434 
 362      8A434355 
 362      CB233511 
 362      348793B0 
 363 07e6 A286CAC5 		.ascii	"\242\206\312\305\225\255\267\241\235r6\365\321Z\014"
ARM GAS  /tmp/ccwHc1qG.s 			page 29


 363      95ADB7A1 
 363      9D7236F5 
 363      D15A0C
 364 07f5 F052B9C1 		.ascii	"\360R\271\301W\263<\354\253^\036\366\207k#a\3772<\225"
 364      57B33CEC 
 364      AB5E1EF6 
 364      876B2361 
 364      FF323C95 
 365 0809 44EEABA9 		.ascii	"D\356\253\251\016K\253\302\025\221\007\"U\313\356\322"
 365      0E4BABC2 
 365      15910722 
 365      55CBEED2 
 366 0819 4796E07D 		.ascii	"G\226\340}xaY\270:R\035\276\267z\351$\206R\025\346o"
 366      786159B8 
 366      3A521DBE 
 366      B77AE924 
 366      865215E6 
 367 082e 17FD17B2 		.ascii	"\027\375\027\262\332)\261"
 367      DA29B1
 368              		.text
 369              		.section	.gnu.lto_.symtab.1aaf71ade60aa10e,"",%progbits
 370 0000 6578745F 		.ascii	"ext_lld_init\000\000\000\000\000\000\000\000\000\000"
 370      6C6C645F 
 370      696E6974 
 370      00000000 
 370      00000000 
 371 0016 0000A100 		.ascii	"\000\000\241\000\000\000EXTD1\000\000\000\000\000\000"
 371      00004558 
 371      54443100 
 371      00000000 
 371      00
 372 0027 00000000 		.ascii	"\000\000\000\000\000\000\373\000\000\000ext_lld_sto"
 372      0000FB00 
 372      00006578 
 372      745F6C6C 
 372      645F7374 
 373 003c 70000000 		.ascii	"p\000\000\000\000\000\000\000\000\000\000\000\000\246"
 373      00000000 
 373      00000000 
 373      00A6
 374 004a 00000065 		.ascii	"\000\000\000ext_lld_channel_enable\000\000\000\000\000"
 374      78745F6C 
 374      6C645F63 
 374      68616E6E 
 374      656C5F65 
 375 0068 00000000 		.ascii	"\000\000\000\000\000\000\000\346\000\000\000ext_lld"
 375      000000E6 
 375      00000065 
 375      78745F6C 
 375      6C64
 376 007a 5F636861 		.ascii	"_channel_disable\000\000\000\000\000\000\000\000\000"
 376      6E6E656C 
 376      5F646973 
 376      61626C65 
 376      00000000 
 377 0093 000000EC 		.ascii	"\000\000\000\354\000\000\000ext_lld_start\000\000\000"
 377      00000065 
ARM GAS  /tmp/ccwHc1qG.s 			page 30


 377      78745F6C 
 377      6C645F73 
 377      74617274 
 378 00aa 00000000 		.ascii	"\000\000\000\000\000\000\000\000\000\361\000\000\000"
 378      00000000 
 378      00F10000 
 378      00
 379 00b7 6578744F 		.ascii	"extObjectInit\000\000\002\000\000\000\000\000\000\000"
 379      626A6563 
 379      74496E69 
 379      74000002 
 379      00000000 
 380 00ce 0000F500 		.ascii	"\000\000\365\000\000\000ext_lld_exti_irq_disable\000"
 380      00006578 
 380      745F6C6C 
 380      645F6578 
 380      74695F69 
 381 00ed 00020000 		.ascii	"\000\002\000\000\000\000\000\000\000\000\000\367\000"
 381      00000000 
 381      000000F7 
 381      00
 382 00fa 00006578 		.ascii	"\000\000ext_lld_exti_irq_enable\000\000\002\000\000"
 382      745F6C6C 
 382      645F6578 
 382      74695F69 
 382      72715F65 
 383 0118 00000000 		.ascii	"\000\000\000\000\000\000\000\371\000\000\000"
 383      000000F9 
 383      000000
 384              		.text
 385              		.section	.gnu.lto_.opts,"",%progbits
 386 0000 272D6D63 		.ascii	"'-mcpu=cortex-m0' '-mno-thumb-interwork' '-mthumb' "
 386      70753D63 
 386      6F727465 
 386      782D6D30 
 386      2720272D 
 387 0033 272D6767 		.ascii	"'-ggdb' '-O0' '-fomit-frame-pointer' '-falign-funct"
 387      64622720 
 387      272D4F30 
 387      2720272D 
 387      666F6D69 
 388 0066 696F6E73 		.ascii	"ions=16' '-ffunction-sections' '-fdata-sections' '-"
 388      3D313627 
 388      20272D66 
 388      66756E63 
 388      74696F6E 
 389 0099 666E6F2D 		.ascii	"fno-common' '-flto'\000"
 389      636F6D6D 
 389      6F6E2720 
 389      272D666C 
 389      746F2700 
 390              		.text
 391              		.cfi_sections	.debug_frame
 392              		.global	EXTD1
 393              		.section	.bss.EXTD1,"aw",%nobits
 394              		.align	2
 395              		.type	EXTD1, %object
ARM GAS  /tmp/ccwHc1qG.s 			page 31


 396              		.size	EXTD1, 8
 397              	EXTD1:
 398 0000 00000000 		.space	8
 398      00000000 
 399              		.section	.text.ext_lld_init,"ax",%progbits
 400              		.align	2
 401              		.p2align 4,,15
 402              		.global	ext_lld_init
 403              		.code	16
 404              		.thumb_func
 405              		.type	ext_lld_init, %function
 406              	ext_lld_init:
 407              	.LFB149:
 408              		.file 1 "/home/efe/ChibiOS/os/hal/ports/STM32/LLD/EXTIv1/ext_lld.c"
 409              		.loc 1 72 0
 410              		.cfi_startproc
 411 0000 08B5     		push	{r3, lr}
 412              		.cfi_def_cfa_offset 8
 413              		.cfi_offset 3, -8
 414              		.cfi_offset 14, -4
 415              		.loc 1 75 0
 416 0002 024B     		ldr	r3, .L2
 417 0004 181C     		mov	r0, r3
 418 0006 FFF7FEFF 		bl	extObjectInit
 419              		.loc 1 76 0
 420              		@ sp needed
 421 000a 08BD     		pop	{r3, pc}
 422              	.L3:
 423              		.align	2
 424              	.L2:
 425 000c 00000000 		.word	EXTD1
 426              		.cfi_endproc
 427              	.LFE149:
 428              		.size	ext_lld_init, .-ext_lld_init
 429              		.section	.text.ext_lld_start,"ax",%progbits
 430              		.align	2
 431              		.p2align 4,,15
 432              		.global	ext_lld_start
 433              		.code	16
 434              		.thumb_func
 435              		.type	ext_lld_start, %function
 436              	ext_lld_start:
 437              	.LFB150:
 438              		.loc 1 85 0
 439              		.cfi_startproc
 440 0000 00B5     		push	{lr}
 441              		.cfi_def_cfa_offset 4
 442              		.cfi_offset 14, -4
 443 0002 85B0     		sub	sp, sp, #20
 444              		.cfi_def_cfa_offset 24
 445 0004 0190     		str	r0, [sp, #4]
 446              		.loc 1 88 0
 447 0006 019B     		ldr	r3, [sp, #4]
 448 0008 1B78     		ldrb	r3, [r3]
 449 000a 012B     		cmp	r3, #1
 450 000c 01D1     		bne	.L5
 451              		.loc 1 89 0
ARM GAS  /tmp/ccwHc1qG.s 			page 32


 452 000e FFF7FEFF 		bl	ext_lld_exti_irq_enable
 453              	.L5:
 454              		.loc 1 92 0
 455 0012 0023     		mov	r3, #0
 456 0014 0393     		str	r3, [sp, #12]
 457 0016 17E0     		b	.L6
 458              	.L9:
 459              		.loc 1 93 0
 460 0018 019B     		ldr	r3, [sp, #4]
 461 001a 5B68     		ldr	r3, [r3, #4]
 462 001c 039A     		ldr	r2, [sp, #12]
 463 001e D200     		lsl	r2, r2, #3
 464 0020 D258     		ldr	r2, [r2, r3]
 465 0022 0423     		mov	r3, #4
 466 0024 1340     		and	r3, r2
 467 0026 06D0     		beq	.L7
 468              		.loc 1 94 0
 469 0028 019A     		ldr	r2, [sp, #4]
 470 002a 039B     		ldr	r3, [sp, #12]
 471 002c 101C     		mov	r0, r2
 472 002e 191C     		mov	r1, r3
 473 0030 FFF7FEFF 		bl	ext_lld_channel_enable
 474 0034 05E0     		b	.L8
 475              	.L7:
 476              		.loc 1 96 0
 477 0036 019A     		ldr	r2, [sp, #4]
 478 0038 039B     		ldr	r3, [sp, #12]
 479 003a 101C     		mov	r0, r2
 480 003c 191C     		mov	r1, r3
 481 003e FFF7FEFF 		bl	ext_lld_channel_disable
 482              	.L8:
 483              		.loc 1 92 0
 484 0042 039B     		ldr	r3, [sp, #12]
 485 0044 0133     		add	r3, r3, #1
 486 0046 0393     		str	r3, [sp, #12]
 487              	.L6:
 488              		.loc 1 92 0 is_stmt 0 discriminator 1
 489 0048 039B     		ldr	r3, [sp, #12]
 490 004a 132B     		cmp	r3, #19
 491 004c E4D9     		bls	.L9
 492              		.loc 1 97 0 is_stmt 1
 493 004e 05B0     		add	sp, sp, #20
 494              		@ sp needed
 495 0050 00BD     		pop	{pc}
 496              		.cfi_endproc
 497              	.LFE150:
 498              		.size	ext_lld_start, .-ext_lld_start
 499 0052 C046C046 		.section	.text.ext_lld_stop,"ax",%progbits
 499      C046C046 
 499      C046C046 
 499      C046
 500              		.align	2
 501              		.p2align 4,,15
 502              		.global	ext_lld_stop
 503              		.code	16
 504              		.thumb_func
 505              		.type	ext_lld_stop, %function
ARM GAS  /tmp/ccwHc1qG.s 			page 33


 506              	ext_lld_stop:
 507              	.LFB151:
 508              		.loc 1 106 0
 509              		.cfi_startproc
 510 0000 00B5     		push	{lr}
 511              		.cfi_def_cfa_offset 4
 512              		.cfi_offset 14, -4
 513 0002 83B0     		sub	sp, sp, #12
 514              		.cfi_def_cfa_offset 16
 515 0004 0190     		str	r0, [sp, #4]
 516              		.loc 1 108 0
 517 0006 019B     		ldr	r3, [sp, #4]
 518 0008 1B78     		ldrb	r3, [r3]
 519 000a 022B     		cmp	r3, #2
 520 000c 01D1     		bne	.L11
 521              		.loc 1 109 0
 522 000e FFF7FEFF 		bl	ext_lld_exti_irq_disable
 523              	.L11:
 524              		.loc 1 111 0
 525 0012 054B     		ldr	r3, .L12
 526 0014 0022     		mov	r2, #0
 527 0016 5A60     		str	r2, [r3, #4]
 528              		.loc 1 112 0
 529 0018 034B     		ldr	r3, .L12
 530 001a 044A     		ldr	r2, .L12+4
 531 001c 1A60     		str	r2, [r3]
 532              		.loc 1 113 0
 533 001e 024B     		ldr	r3, .L12
 534 0020 034A     		ldr	r2, .L12+8
 535 0022 5A61     		str	r2, [r3, #20]
 536              		.loc 1 118 0
 537 0024 03B0     		add	sp, sp, #12
 538              		@ sp needed
 539 0026 00BD     		pop	{pc}
 540              	.L13:
 541              		.align	2
 542              	.L12:
 543 0028 00040140 		.word	1073808384
 544 002c 0000F5FF 		.word	-720896
 545 0030 FFFF0A00 		.word	720895
 546              		.cfi_endproc
 547              	.LFE151:
 548              		.size	ext_lld_stop, .-ext_lld_stop
 549 0034 C046C046 		.section	.text.ext_lld_channel_enable,"ax",%progbits
 549      C046C046 
 549      C046C046 
 550              		.align	2
 551              		.p2align 4,,15
 552              		.global	ext_lld_channel_enable
 553              		.code	16
 554              		.thumb_func
 555              		.type	ext_lld_channel_enable, %function
 556              	ext_lld_channel_enable:
 557              	.LFB152:
 558              		.loc 1 128 0
 559              		.cfi_startproc
 560 0000 86B0     		sub	sp, sp, #24
ARM GAS  /tmp/ccwHc1qG.s 			page 34


 561              		.cfi_def_cfa_offset 24
 562 0002 0190     		str	r0, [sp, #4]
 563 0004 0091     		str	r1, [sp]
 564              		.loc 1 129 0
 565 0006 009A     		ldr	r2, [sp]
 566 0008 1F23     		mov	r3, #31
 567 000a 1340     		and	r3, r2
 568 000c 0122     		mov	r2, #1
 569 000e 111C     		mov	r1, r2
 570 0010 9940     		lsl	r1, r1, r3
 571 0012 0B1C     		mov	r3, r1
 572 0014 0593     		str	r3, [sp, #20]
 573              		.loc 1 132 0
 574 0016 009B     		ldr	r3, [sp]
 575 0018 0F2B     		cmp	r3, #15
 576 001a 2AD8     		bhi	.L15
 577              	.LBB2:
 578              		.loc 1 133 0
 579 001c 009B     		ldr	r3, [sp]
 580 001e 9B08     		lsr	r3, r3, #2
 581 0020 0493     		str	r3, [sp, #16]
 582              		.loc 1 134 0
 583 0022 009A     		ldr	r2, [sp]
 584 0024 0323     		mov	r3, #3
 585 0026 1340     		and	r3, r2
 586 0028 9B00     		lsl	r3, r3, #2
 587 002a 0F22     		mov	r2, #15
 588 002c 111C     		mov	r1, r2
 589 002e 9940     		lsl	r1, r1, r3
 590 0030 0B1C     		mov	r3, r1
 591 0032 DB43     		mvn	r3, r3
 592 0034 0393     		str	r3, [sp, #12]
 593              		.loc 1 135 0
 594 0036 019B     		ldr	r3, [sp, #4]
 595 0038 5B68     		ldr	r3, [r3, #4]
 596 003a 009A     		ldr	r2, [sp]
 597 003c D200     		lsl	r2, r2, #3
 598 003e D258     		ldr	r2, [r2, r3]
 599 0040 F023     		mov	r3, #240
 600 0042 1340     		and	r3, r2
 601              		.loc 1 136 0
 602 0044 1A09     		lsr	r2, r3, #4
 603              		.loc 1 137 0
 604 0046 0099     		ldr	r1, [sp]
 605 0048 0323     		mov	r3, #3
 606 004a 0B40     		and	r3, r1
 607 004c 9B00     		lsl	r3, r3, #2
 608              		.loc 1 135 0
 609 004e 111C     		mov	r1, r2
 610 0050 9940     		lsl	r1, r1, r3
 611 0052 0B1C     		mov	r3, r1
 612 0054 0293     		str	r3, [sp, #8]
 613              		.loc 1 142 0
 614 0056 324B     		ldr	r3, .L23
 615 0058 314A     		ldr	r2, .L23
 616 005a 0499     		ldr	r1, [sp, #16]
 617 005c 0231     		add	r1, r1, #2
ARM GAS  /tmp/ccwHc1qG.s 			page 35


 618 005e 8900     		lsl	r1, r1, #2
 619 0060 8A58     		ldr	r2, [r1, r2]
 620 0062 0399     		ldr	r1, [sp, #12]
 621 0064 1140     		and	r1, r2
 622 0066 029A     		ldr	r2, [sp, #8]
 623 0068 1143     		orr	r1, r2
 624 006a 049A     		ldr	r2, [sp, #16]
 625 006c 0232     		add	r2, r2, #2
 626 006e 9200     		lsl	r2, r2, #2
 627 0070 D150     		str	r1, [r2, r3]
 628              	.L15:
 629              	.LBE2:
 630              		.loc 1 150 0
 631 0072 059A     		ldr	r2, [sp, #20]
 632 0074 2B4B     		ldr	r3, .L23+4
 633 0076 1340     		and	r3, r2
 634 0078 00D0     		beq	.L16
 635              		.loc 1 151 0
 636 007a 4EE0     		b	.L14
 637              	.L16:
 638              		.loc 1 155 0
 639 007c 019B     		ldr	r3, [sp, #4]
 640 007e 5B68     		ldr	r3, [r3, #4]
 641 0080 009A     		ldr	r2, [sp]
 642 0082 D200     		lsl	r2, r2, #3
 643 0084 D258     		ldr	r2, [r2, r3]
 644 0086 0123     		mov	r3, #1
 645 0088 1340     		and	r3, r2
 646 008a 06D0     		beq	.L18
 647              		.loc 1 156 0
 648 008c 264B     		ldr	r3, .L23+8
 649 008e 264A     		ldr	r2, .L23+8
 650 0090 9168     		ldr	r1, [r2, #8]
 651 0092 059A     		ldr	r2, [sp, #20]
 652 0094 0A43     		orr	r2, r1
 653 0096 9A60     		str	r2, [r3, #8]
 654 0098 06E0     		b	.L19
 655              	.L18:
 656              		.loc 1 158 0
 657 009a 234B     		ldr	r3, .L23+8
 658 009c 224A     		ldr	r2, .L23+8
 659 009e 9268     		ldr	r2, [r2, #8]
 660 00a0 0599     		ldr	r1, [sp, #20]
 661 00a2 C943     		mvn	r1, r1
 662 00a4 0A40     		and	r2, r1
 663 00a6 9A60     		str	r2, [r3, #8]
 664              	.L19:
 665              		.loc 1 159 0
 666 00a8 019B     		ldr	r3, [sp, #4]
 667 00aa 5B68     		ldr	r3, [r3, #4]
 668 00ac 009A     		ldr	r2, [sp]
 669 00ae D200     		lsl	r2, r2, #3
 670 00b0 D258     		ldr	r2, [r2, r3]
 671 00b2 0223     		mov	r3, #2
 672 00b4 1340     		and	r3, r2
 673 00b6 06D0     		beq	.L20
 674              		.loc 1 160 0
ARM GAS  /tmp/ccwHc1qG.s 			page 36


 675 00b8 1B4B     		ldr	r3, .L23+8
 676 00ba 1B4A     		ldr	r2, .L23+8
 677 00bc D168     		ldr	r1, [r2, #12]
 678 00be 059A     		ldr	r2, [sp, #20]
 679 00c0 0A43     		orr	r2, r1
 680 00c2 DA60     		str	r2, [r3, #12]
 681 00c4 06E0     		b	.L21
 682              	.L20:
 683              		.loc 1 162 0
 684 00c6 184B     		ldr	r3, .L23+8
 685 00c8 174A     		ldr	r2, .L23+8
 686 00ca D268     		ldr	r2, [r2, #12]
 687 00cc 0599     		ldr	r1, [sp, #20]
 688 00ce C943     		mvn	r1, r1
 689 00d0 0A40     		and	r2, r1
 690 00d2 DA60     		str	r2, [r3, #12]
 691              	.L21:
 692              		.loc 1 165 0
 693 00d4 019B     		ldr	r3, [sp, #4]
 694 00d6 5A68     		ldr	r2, [r3, #4]
 695 00d8 009B     		ldr	r3, [sp]
 696 00da DB00     		lsl	r3, r3, #3
 697 00dc D318     		add	r3, r2, r3
 698 00de 5B68     		ldr	r3, [r3, #4]
 699 00e0 002B     		cmp	r3, #0
 700 00e2 0DD0     		beq	.L22
 701              		.loc 1 166 0
 702 00e4 104B     		ldr	r3, .L23+8
 703 00e6 104A     		ldr	r2, .L23+8
 704 00e8 1168     		ldr	r1, [r2]
 705 00ea 059A     		ldr	r2, [sp, #20]
 706 00ec 0A43     		orr	r2, r1
 707 00ee 1A60     		str	r2, [r3]
 708              		.loc 1 167 0
 709 00f0 0D4B     		ldr	r3, .L23+8
 710 00f2 0D4A     		ldr	r2, .L23+8
 711 00f4 5268     		ldr	r2, [r2, #4]
 712 00f6 0599     		ldr	r1, [sp, #20]
 713 00f8 C943     		mvn	r1, r1
 714 00fa 0A40     		and	r2, r1
 715 00fc 5A60     		str	r2, [r3, #4]
 716 00fe 0CE0     		b	.L14
 717              	.L22:
 718              		.loc 1 170 0
 719 0100 094B     		ldr	r3, .L23+8
 720 0102 094A     		ldr	r2, .L23+8
 721 0104 5168     		ldr	r1, [r2, #4]
 722 0106 059A     		ldr	r2, [sp, #20]
 723 0108 0A43     		orr	r2, r1
 724 010a 5A60     		str	r2, [r3, #4]
 725              		.loc 1 171 0
 726 010c 064B     		ldr	r3, .L23+8
 727 010e 064A     		ldr	r2, .L23+8
 728 0110 1268     		ldr	r2, [r2]
 729 0112 0599     		ldr	r1, [sp, #20]
 730 0114 C943     		mvn	r1, r1
 731 0116 0A40     		and	r2, r1
ARM GAS  /tmp/ccwHc1qG.s 			page 37


 732 0118 1A60     		str	r2, [r3]
 733              	.L14:
 734              		.loc 1 202 0
 735 011a 06B0     		add	sp, sp, #24
 736              		@ sp needed
 737 011c 7047     		bx	lr
 738              	.L24:
 739 011e C046     		.align	2
 740              	.L23:
 741 0120 00000140 		.word	1073807360
 742 0124 0000F5FF 		.word	-720896
 743 0128 00040140 		.word	1073808384
 744              		.cfi_endproc
 745              	.LFE152:
 746              		.size	ext_lld_channel_enable, .-ext_lld_channel_enable
 747 012c C046C046 		.section	.text.ext_lld_channel_disable,"ax",%progbits
 748              		.align	2
 749              		.p2align 4,,15
 750              		.global	ext_lld_channel_disable
 751              		.code	16
 752              		.thumb_func
 753              		.type	ext_lld_channel_disable, %function
 754              	ext_lld_channel_disable:
 755              	.LFB153:
 756              		.loc 1 212 0
 757              		.cfi_startproc
 758 0000 84B0     		sub	sp, sp, #16
 759              		.cfi_def_cfa_offset 16
 760 0002 0190     		str	r0, [sp, #4]
 761 0004 0091     		str	r1, [sp]
 762              		.loc 1 213 0
 763 0006 009A     		ldr	r2, [sp]
 764 0008 1F23     		mov	r3, #31
 765 000a 1340     		and	r3, r2
 766 000c 0122     		mov	r2, #1
 767 000e 111C     		mov	r1, r2
 768 0010 9940     		lsl	r1, r1, r3
 769 0012 0B1C     		mov	r3, r1
 770 0014 0393     		str	r3, [sp, #12]
 771              		.loc 1 220 0
 772 0016 104B     		ldr	r3, .L26
 773 0018 0F4A     		ldr	r2, .L26
 774 001a 1268     		ldr	r2, [r2]
 775 001c 0399     		ldr	r1, [sp, #12]
 776 001e C943     		mvn	r1, r1
 777 0020 0A40     		and	r2, r1
 778 0022 1A60     		str	r2, [r3]
 779              		.loc 1 221 0
 780 0024 0C4B     		ldr	r3, .L26
 781 0026 0C4A     		ldr	r2, .L26
 782 0028 5268     		ldr	r2, [r2, #4]
 783 002a 0399     		ldr	r1, [sp, #12]
 784 002c C943     		mvn	r1, r1
 785 002e 0A40     		and	r2, r1
 786 0030 5A60     		str	r2, [r3, #4]
 787              		.loc 1 222 0
 788 0032 094B     		ldr	r3, .L26
ARM GAS  /tmp/ccwHc1qG.s 			page 38


 789 0034 084A     		ldr	r2, .L26
 790 0036 9268     		ldr	r2, [r2, #8]
 791 0038 0399     		ldr	r1, [sp, #12]
 792 003a C943     		mvn	r1, r1
 793 003c 0A40     		and	r2, r1
 794 003e 9A60     		str	r2, [r3, #8]
 795              		.loc 1 223 0
 796 0040 054B     		ldr	r3, .L26
 797 0042 054A     		ldr	r2, .L26
 798 0044 D268     		ldr	r2, [r2, #12]
 799 0046 0399     		ldr	r1, [sp, #12]
 800 0048 C943     		mvn	r1, r1
 801 004a 0A40     		and	r2, r1
 802 004c DA60     		str	r2, [r3, #12]
 803              		.loc 1 224 0
 804 004e 024B     		ldr	r3, .L26
 805 0050 039A     		ldr	r2, [sp, #12]
 806 0052 5A61     		str	r2, [r3, #20]
 807              		.loc 1 235 0
 808 0054 04B0     		add	sp, sp, #16
 809              		@ sp needed
 810 0056 7047     		bx	lr
 811              	.L27:
 812              		.align	2
 813              	.L26:
 814 0058 00040140 		.word	1073808384
 815              		.cfi_endproc
 816              	.LFE153:
 817              		.size	ext_lld_channel_disable, .-ext_lld_channel_disable
 818 005c C046C046 		.text
 819              	.Letext0:
 820              		.file 2 "/usr/lib/gcc/arm-none-eabi/4.8/include/stddef.h"
 821              		.file 3 "/usr/include/newlib/machine/_default_types.h"
 822              		.file 4 "/usr/include/newlib/stdint.h"
 823              		.file 5 "/home/efe/ChibiOS/os/rt/ports/ARMCMx/compilers/GCC/chtypes.h"
 824              		.file 6 "/home/efe/ChibiOS/os/rt/include/chsystypes.h"
 825              		.file 7 "/home/efe/ChibiOS/os/rt/include/chschd.h"
 826              		.file 8 "/home/efe/ChibiOS/os/ext/CMSIS/ST/stm32f030x6.h"
 827              		.file 9 "/home/efe/ChibiOS/os/rt/ports/ARMCMx/chcore.h"
 828              		.file 10 "/home/efe/ChibiOS/os/rt/ports/ARMCMx/chcore_v6m.h"
 829              		.file 11 "/home/efe/ChibiOS/os/rt/include/chsem.h"
 830              		.file 12 "/home/efe/ChibiOS/os/rt/include/chmtx.h"
 831              		.file 13 "/home/efe/ChibiOS/os/hal/include/ext.h"
 832              		.file 14 "/home/efe/ChibiOS/os/hal/ports/STM32/LLD/EXTIv1/ext_lld.h"