ARM GAS  /tmp/ccZbts0L.s 			page 1


   1              		.cpu cortex-m0
   2              		.fpu softvfp
   3              		.eabi_attribute 20, 1
   4              		.eabi_attribute 21, 1
   5              		.eabi_attribute 23, 3
   6              		.eabi_attribute 24, 1
   7              		.eabi_attribute 25, 1
   8              		.eabi_attribute 26, 1
   9              		.eabi_attribute 30, 6
  10              		.eabi_attribute 34, 0
  11              		.eabi_attribute 18, 4
  12              		.code	16
  13              		.file	"ext_lld_isr.c"
  14              		.text
  15              	.Ltext0:
  16              		.section	.gnu.lto_.inline.96712724992c6518,"",%progbits
  17 0000 789C6362 		.ascii	"x\234cb`b\300\006T\031!4\033\003\203\214\015\003\003"
  17      6062C006 
  17      54192134 
  17      1B03838C 
  17      0D0303
  18 0013 93CC8657 		.ascii	"\223\314\206W\214\014,\020\305L\3340U\254\2020\202\211"
  18      8C0C2C10 
  18      C54CDC30 
  18      55AC8230 
  18      8289
  19 0025 3865CC0C 		.ascii	"8e\314\014\015\2143\200\262L\015\214\027\276\263\343"
  19      0D8C3380 
  19      B24C0D8C 
  19      17BEB3E3 
  20 0035 53493AC1 		.ascii	"SI:\301\302\240q\005d\230\326\203\353L\204Mf\3407\002"
  20      C2A07105 
  20      6498D683 
  20      EB4C844D 
  20      66E03702 
  21 0049 4A332D90 		.ascii	"J3-\220\207)e\346\301$\330\030\270\365PU\201\015D#\030"
  21      872965E6 
  21      C124D818 
  21      B8F55055 
  21      810D4423 
  22 005e 004F440F 		.ascii	"\000OD\017\036"
  22      1E
  23              		.text
  24              		.section	.gnu.lto_Vector54.96712724992c6518,"",%progbits
  25 0000 789CBD53 		.ascii	"x\234\275SMh\023A\024~ofw\363\3276\365\377\347T\352"
  25      4D681341 
  25      147E6F66 
  25      77F3D736 
  25      F5FFE754 
  26 0015 CDA22B7A 		.ascii	"\315\242+zU\024\012\202\240(\264\205\352%\244il\026"
  26      55140A82 
  26      A028B485 
  26      EA25A469 
  26      6C16
  27 0027 525A92A2 		.ascii	"RZ\222\242\005\017\235\264Q\212\2446\250\007\321C\333"
  27      050F9DB4 
  27      518AA436 
ARM GAS  /tmp/ccZbts0L.s 			page 2


  27      A807D143 
  27      DB
  28 0038 8328A528 		.ascii	"\203(\245(x*x\011\036$\036B+^JA\014\342E\020Q<\010j"
  28      782A7809 
  28      1E241E42 
  28      2B5E4A41 
  28      0CE24510 
  29 0050 1DDFEC66 		.ascii	"\035\337\354f\327\245\265\270 8\220\231\314\373\373"
  29      D7A5B5B8 
  29      20389099 
  29      CCFBFB
  30 005f DEF7CD5B 		.ascii	"\336\367\315[\006\014\326\257\243\364\3534\000N\253"
  30      060CD6AF 
  30      A3F4EB34 
  30      004EAB
  31 006e 4B089022 		.ascii	"K\010\220\"\2201\016 \230F\233\306\221\016\324\230\256"
  31      90310E20 
  31      98469BC6 
  31      910ED498 
  31      AE
  32 007f 2C86B2E8 		.ascii	",\206\262\350H\007\032\210\224\2000\306\270\246\033"
  32      48071A88 
  32      948030C6 
  32      B8A61B
  33 008e 38765E5D 		.ascii	"8v^]!\326\016sB\334\254\337\237\271\261\347\372\354"
  33      21D60E73 
  33      42DCACDF 
  33      9FB9B1E7 
  33      FAEC
  34 00a0 7859FC94 		.ascii	"xY\374\224\022-\345J!\364\322?l\263\017U\333\277\234"
  34      122DE54A 
  34      21F4D23F 
  34      6CB30F55 
  34      DBBF9C
  35 00b3 34F1E4A1 		.ascii	"4\361\344\241\210\314\212\037Rr\013y\260\234\312\332"
  35      88CC8A1F 
  35      52720B79 
  35      B09CCADA 
  36 00c3 EB52B45C 		.ascii	"\353R\264\\\230\024R\216\005\006\252\310\367\3259$\300"
  36      9814528E 
  36      0506AAC8 
  36      F7D53924 
  36      C0
  37 00d4 C22729E3 		.ascii	"\302')\343\301\261\312\317}XZ@Rk\357\316UE\261\"\345"
  37      C1B1CACF 
  37      7D585A40 
  37      526BEFCE 
  37      5545B122 
  38 00e9 710BF580 		.ascii	"q\013\365\200@\267\256M\371\365\013\332\337\355\377"
  38      40B7AE4D 
  38      F9F50BDA 
  38      DFEDFF
  39 00f8 D5DF97CF 		.ascii	"\325\337\227\317U\237|\006\203\023\030,\361k\255\311"
  39      559F7C06 
  39      8313182C 
  39      F16BADC9 
  40 0108 6B30C4A0 		.ascii	"k0\304\240\363oi\217Y\245.eiz\372\343nlBH\342\002\266"
ARM GAS  /tmp/ccZbts0L.s 			page 3


  40      F36F698F 
  40      59A52E65 
  40      697AFAE3 
  40      6E6C4248 
  41 011f D314D34B 		.ascii	"\323\024\323Ks\332\270F\226y\262\350\312b(K\2106-L\233"
  41      73DAB846 
  41      9679B2E8 
  41      CA62284B 
  41      88362D4C 
  42 0134 1E51D7A8 		.ascii	"\036Q\327\250\272\306\300fFQE!\312mN\212S\312\346K\253"
  42      BAC6C066 
  42      46514521 
  42      CA6D4E8A 
  42      53CAE64B 
  43 0149 DBDE7BD4 		.ascii	"\333\336{\324\370\363%(\326\277\033I|DI\003\210W\340"
  43      F8F32528 
  43      D6BF1B49 
  43      7C444903 
  43      8857E0
  44 015c 9B9814AD 		.ascii	"\233\230\024\255\026\206S\366\314\203\335h\004\250h"
  44      168653F6 
  44      CC83DD68 
  44      04A868
  45 016b 14A006E3 		.ascii	"\024\240\006\343\213\2133-n4S>\020\223E\241\210\324"
  45      8B8B332D 
  45      6E34533E 
  45      109345A1 
  45      88D4
  46 017d E0D905D7 		.ascii	"\340\331\005\327\303;`^\024\311\033\273\007w\351hr\203"
  46      C33B605E 
  46      14C91BBB 
  46      0777E968 
  46      7283
  47 018f EDD5872E 		.ascii	"\355\325\207.\343\032L<\235\330\353fi\224\250\2428\007"
  47      E31A4C3C 
  47      9DD8EB66 
  47      6994A8A2 
  47      3807
  48 01a1 076BE50D 		.ascii	"\007k\345\015w}\372z\254\027\345\220\343\263\241\012"
  48      777DFA7A 
  48      AC17E590 
  48      E3B3A10A 
  49 01b1 22EE07D3 		.ascii	"\"\356\007\3237\202\015\250\031\261\361\344+t\253\032"
  49      37820DA8 
  49      19B1F1E4 
  49      2B74AB1A 
  50 01c1 64B51155 		.ascii	"d\265\021UP\025\212\037\012\315\236\253\327\231\305"
  50      50158A1F 
  50      0ACD9EAB 
  50      D799C5
  51 01d0 DFAB475D 		.ascii	"\337\253G]9\365\265z\347\355\262W\"\324\001\373Iv\202"
  51      39F5B57A 
  51      E7EDB257 
  51      22D401FB 
  51      497682
  52 01e3 2E08255C 		.ascii	".\010%\\\263'a\313 \272\002\2664ZA\217\367\370\352r"
  52      B32761CB 
ARM GAS  /tmp/ccZbts0L.s 			page 4


  52      20BA02B6 
  52      345A418F 
  52      F7F8EA72 
  53 01f7 DC2D1156 		.ascii	"\334-\021V\024(!~\000\026DY\210\313\026\266*\023\375"
  53      1428217E 
  53      00164459 
  53      88CB16B6 
  53      2A13FD
  54 020a EDB2708B 		.ascii	"\355\262p\213\303j+A\251RZ\243\024\363^g\233\327a\237"
  54      C36A2B41 
  54      A9525AA3 
  54      14F35E67 
  54      9BD7619F 
  55 021e D7F0125C 		.ascii	"\327\360\022\\\255\234r\352+\352a\000\325V\330i\252"
  55      AD9C72EA 
  55      2BEA6100 
  55      D556D869 
  55      AA
  56 022f 6157B9DB 		.ascii	"aW\271\333\325\313\356p\371i6?\222\350A\311{\224\210"
  56      D5CBEE70 
  56      F969363F 
  56      92E841C9 
  56      7B9488
  57 0242 2B11DB20 		.ascii	"+\021\333 Q\344\017\022\351\015\211V|\022E\377]\242"
  57      51E40F12 
  57      E90D8956 
  57      7C1245FF 
  57      5DA2
  58 0254 584089A2 		.ascii	"X@\211\242\233H\344M\334\246\022\3056\225\010\375\022"
  58      9B48E44D 
  58      DCA612C5 
  58      369508FD 
  58      12
  59 0265 198D6FA6 		.ascii	"\031\215o\246\224rS=2;S\015D\372\216,\334\005\360\022"
  59      9472533D 
  59      323B530D 
  59      44FA8E2C 
  59      DC05F012 
  60 0279 0AF5A97D 		.ascii	"\012\365\251}n\234\263\272\025A\025v\314\314\014\015"
  60      6E9CB3BA 
  60      15411576 
  60      CCCC0C0D 
  61 0289 A6CDF4C5 		.ascii	"\246\315\364\305\264\331\231\261\372\254\263]\346P\336"
  61      B4D999B1 
  61      FAACB35D 
  61      E650DE
  62 0298 CC24B3E6 		.ascii	"\314$\263\346\360Pn$ovu\2379r\330\331O\036\032\0355"
  62      F0506E24 
  62      6F76759F 
  62      3972D8D9 
  62      4F1E1A1D 
  63 02ad D3A32389 		.ascii	"\323\243#\211l\266?a\345s\007S\300\206s\221D>y)\335"
  63      6CB63F61 
  63      E5730753 
  63      C0867391 
  63      443E7929 
  64 02c2 9FC8E67E 		.ascii	"\237\310\346~\001\247\241k\340"
ARM GAS  /tmp/ccZbts0L.s 			page 5


  64      01A7A16B 
  64      E0
  65              		.text
  66              		.section	.gnu.lto_Vector58.96712724992c6518,"",%progbits
  67 0000 789CBD55 		.ascii	"x\234\275UMHTQ\024>\347\276\237\371SG\373\305Vb\273"
  67      4D485451 
  67      143EE7BE 
  67      9FF95347 
  67      FBC55662 
  68 0015 A45ED4A6 		.ascii	"\244^\324\246EQ \004AQ\240\202\265\031\306q\322\007"
  68      45512004 
  68      4151A082 
  68      B519C671 
  68      D207
  69 0027 23CA8C94 		.ascii	"#\312\214\224\320\302;\372\022\211\214!Z\364\263H\027"
  69      D0C23BFA 
  69      12898C21 
  69      5AF4B348 
  69      17
  70 0038 418824D4 		.ascii	"A\210$\324\"\305EC\013QJ\264E$\325b\202V\326\302uT\257"
  70      22C54543 
  70      0B514AB4 
  70      4524D562 
  70      8256D6C2 
  71 004f 73DE9BF7 		.ascii	"s\336\233\367\0344\351Q\320\205w\357\273\347\234\357"
  71      1C34E951 
  71      D08577EF 
  71      BBE79CEF 
  72 005f 7CE77CF7 		.ascii	"|\347|\367\276\031\001\0026\217\343\364\234\325\351"
  72      BE190102 
  72      368FE3F4 
  72      9CD5E9
  73 006e E14D0890 		.ascii	"\341M\010\220\"P\010\005@\012\225&UAZP\025\032[t\266"
  73      22500805 
  73      400A9526 
  73      55415A50 
  73      151A5B74 
  74 0083 68480BEA 		.ascii	"hH\013\352\210\004@\030\024\212\252\3518x\221\267\020"
  74      88044018 
  74      148AAAE9 
  74      387891B7 
  74      10
  75 0094 6B840929 		.ascii	"k\204\011)o\227\036\255\225\360\336\235\2425.\277\333"
  75      6F971EAD 
  75      95F0DE9D 
  75      A2352EBF 
  75      DB
  76 00a5 36A2C9CE 		.ascii	"6\242\311\316\024B;\275a\203\263p\366\312\341\002\345"
  76      14423BBD 
  76      6183B370 
  76      F6CAE102 
  76      E5
  77 00b6 D3C732E2 		.ascii	"\323\3072\342\200\024\023\225`\230\342\333\371W\023"
  77      80141395 
  77      6098E2DB 
  77      F95713
  78 00c5 48D8FCBA 		.ascii	"H\330\374\272m\307\003S\025\337\215\214\325\337\030"
ARM GAS  /tmp/ccZbts0L.s 			page 6


  78      6DC70353 
  78      15DF8D8C 
  78      D5DF18
  79 00d4 1F2AC89F 		.ascii	"\037*\310\237Tbp\266\325\371\233\321B~T\332\366\240"
  79      546270B6 
  79      D5F99BD1 
  79      427E54DA 
  79      F6A0
  80 00e6 C9DA046A 		.ascii	"\311\332\004j\353\307\347\013\013\322*\332\366I\023"
  80      EBC7E70B 
  80      0BD22ADA 
  80      F64913
  81 00f5 B580441F 		.ascii	"\265\200D\037\376\256\276\217\377\253\276\271\221[\365"
  81      FEAEBE8F 
  81      FFABBEB9 
  81      915BF5
  82 0104 72A33E5D 		.ascii	"r\243>]\300)\014\206|1\277Xq^!\001\315\177\002N\213"
  82      C0290C86 
  82      7C31BF58 
  82      715E2101 
  82      CD7F024E 
  83 0119 62C9B65F 		.ascii	"b\311\266_?[\3774\213uU\010I\234\302F\272\315t\332\012"
  83      3F5BFF34 
  83      8B755508 
  83      499CC246 
  83      BACD74DA 
  84 012e 4D8A4A96 		.ascii	"M\212J\226I\262hl\321\331\022\242I\015\323\244Ex\033"
  84      49B2686C 
  84      D1D912A2 
  84      490DD3A4 
  84      45781B
  85 0141 E56D0C9C 		.ascii	"\345m\014\234\356(\312\222\262\320\340B\334TN\3174Z"
  85      EE28CA92 
  85      B2D0E042 
  85      DC544ECF 
  85      345A
  86 0153 9DB98D3F 		.ascii	"\235\271\215?\003e\031\254\322\303T\022\237\020\250"
  86      036519AC 
  86      D2C35412 
  86      9F10A8
  87 0162 0BF11A7C 		.ascii	"\013\361\032|\223\243\262\326\304p\312\271\373\340T"
  87      93A3B2D6 
  87      C470CAB9 
  87      FBE054
  88 0171 1A014A1A 		.ascii	"\032\001J\032\005X\202\241\231\031\272\365^\270`'\310"
  88      055882A1 
  88      9919BAF5 
  88      5EB86027 
  88      C8
  89 0182 514B722B 		.ascii	"QKr+K\360\362\222\347Q\232`RZ\344\215=\200\373\264T"
  89      4BF0F292 
  89      E7519A60 
  89      525AE48D 
  89      3D80FBB4 
  90 0197 79C1CEE8 		.ascii	"y\301\316\350@\257\347%\030\236\033\336\347\241T\002"
  90      40AFE725 
  90      189E1BDE 
ARM GAS  /tmp/ccZbts0L.s 			page 7


  90      E7A15402 
  91 01a7 72945205 		.ascii	"r\224R\005.\331\352\3321\317\247m\346Z,\204\\\237C\225"
  91      2ED9EADA 
  91      31CFA76D 
  91      E65A2C84 
  91      5C9F4395 
  92 01bb 97F14A32 		.ascii	"\227\361J2m+Y\027_\024\207oz\314g\324\311\3520r\322"
  92      6D2B5917 
  92      5F14876F 
  92      7ACC67D4 
  92      C9EA3072 
  93 01d0 05B0BEE6 		.ascii	"\005\260\276\346\253}W\273{!7F\033o\025\252\353\375"
  93      AB7D57BB 
  93      7B213746 
  93      1B6F15AA 
  93      EBFD
  94 01e2 DD2F2BBE 		.ascii	"\335/+\276\010\241&8@\272\023u^\262r\325\276\2065=\350"
  94      08A12638 
  94      40BA1375 
  94      5EB272D5 
  94      BE86353D 
  95 01f7 2958532E 		.ascii	")XS.\005\375\276\207\336\257\304\275\024an\201\000\361"
  95      05FDBE87 
  95      DEAFC4BD 
  95      14616E81 
  95      00F1
  96 0209 8330250B 		.ascii	"\2030%\013R^5\261\226M\364\332bb\235\333\325\016\242"
  96      525E35B1 
  96      964DF4DA 
  96      62629DDB 
  96      D50EA2
  97 021c E2546A39 		.ascii	"\342Tj9\225\360\217g\247\377\213\327\341\027\274\014"
  97      95F08F67 
  97      A7FF8BD7 
  97      E117BC0C 
  98 022c D78B67DC 		.ascii	"\327\213g\334\374\334z\030\200\313\012\273E\225\355"
  98      FCDC7A18 
  98      80CB0ABB 
  98      4595ED
  99 023b 8CDDC5F7 		.ascii	"\214\335\305\367k\267\327\237\352\364G\022=\337\220"
  99      6BB7D79F 
  99      EAF44712 
  99      3DDF90
 100 024a 28E24914 		.ascii	"(\342I\024\336\"Q\3447\022ie\211V+$\212\376\273D\261"
 100      DE2251E4 
 100      37126965 
 100      89562B24 
 100      8AFEBB44 
 101 025f 801245B7 		.ascii	"\200\022E\267\221\310\257r[\211b\333J\244TJ\244\227"
 101      91C8AF72 
 101      5B8962DB 
 101      4AA4544A 
 101      A497
 102 0271 3F9A9994 		.ascii	"?\232\231\224\007\365\233\331\223*3v\361\277\301^\200"
 102      07F59BD9 
 102      932A3376 
 102      F1BFC15E 
ARM GAS  /tmp/ccZbts0L.s 			page 8


 102      80
 103 0282 37902FCD 		.ascii	"7\220/\315\356\367\342\334\321\312\015r\330\011\243"
 103      EEF7E2DC 
 103      D1CA0D72 
 103      D809A3
 104 0291 BBB7276D 		.ascii	"\273\267'm\244/\247\215\346n\263\303<\337b\364\346\214"
 104      A42FA78D 
 104      E66EB3C3 
 104      3CDF62F4 
 104      E68C
 105 02a3 EE64C6E8 		.ascii	"\356d\306\350\353\315\366\347\214\226\326sG\217\270"
 105      EBCDF6E7 
 105      8C96D673 
 105      478FB8
 106 02b2 F3E9C303 		.ascii	"\363\351\303\003\003Fz\240?\221\311t&\314\\\366P\012"
 106      03467AA0 
 106      3F91C974 
 106      26CC5CF6 
 106      500A
 107 02c4 445F3692 		.ascii	"D_6\222\310%\257\244;\023\231\354/\254}r:"
 107      C825AFA4 
 107      3B1399EC 
 107      2FAC7D72 
 107      3A
 108              		.text
 109              		.section	.gnu.lto_Vector5C.96712724992c6518,"",%progbits
 110 0000 789CBDD9 		.ascii	"x\234\275\331[h\034U\030\000\340\363\237\235\275_f\357"
 110      5B681C55 
 110      1800E0F3 
 110      9F9DBD5F 
 110      66EF
 111 0012 B724CDE6 		.ascii	"\267$\315\346\236\264\350\212\276\370\"\006\012\202"
 111      9EB4E88A 
 111      BEF82206 
 111      0A82
 112 0020 A2282485 		.ascii	"\242($\205\352KH\3225YHII\212\006|\310l\272\322\320"
 112      EA4B48D2 
 112      35594849 
 112      498A067C 
 112      C86CBAD2 
 113 0035 9B8B0A56 		.ascii	"\233\213\012V}i\005QD(^\240\221\012]|I\332\032\232\242"
 113      7D690551 
 113      44285EA0 
 113      910A5D7C 
 113      49DA1A9A 
 114 004a 60A98211 		.ascii	"`\251\202\021\204\276\010\006*\215\264\265\343\371g"
 114      84BE0806 
 114      2A8DB4B5 
 114      E3F967
 115 0059 F7CC0CDD 		.ascii	"\367\314\014\335\031v\230\205\235\2079\373\3773g\317"
 115      19769885 
 115      9D8739FB 
 115      FF3367CF 
 116 0069 7FBE3961 		.ascii	"\177\2769a\316\022J(y\364\020\200\220\323iB^\304\240"
 116      CE124A28 
 116      79F41080 
 116      90D36942 
ARM GAS  /tmp/ccZbts0L.s 			page 9


 116      5EC4A0
 117 007c 8300BB03 		.ascii	"\203\000\273\003(u\020\"Q\201\235\004\007\260\006\004"
 117      28751022 
 117      51819D04 
 117      07B00604 
 118 008c EAC48C0B 		.ascii	"\352\304\214\0133N`\015\270\250\0333\036\314\270\201"
 118      334E600D 
 118      B8A81B33 
 118      1ECCB881 
 119 009c 35E0A15E 		.ascii	"5\340\241^\314\3700\343\005\326\200\217\3721\023\300"
 119      CCF830E3 
 119      05D6808F 
 119      FA3113C0 
 120 00ac 8C1F5803 		.ascii	"\214\037X\003\001\032\304L\0103A`\015\204\250\210\231"
 120      011AC44C 
 120      08334160 
 120      0D84A888 
 120      99
 121 00bd 30664460 		.ascii	"0fD`\015\204i\0043Q\314D\2005\020\2451\314\3041\023"
 121      0D846904 
 121      3351CC44 
 121      803510A5 
 121      31CCC431 
 122 00d2 03D6409C 		.ascii	"\003\326@\234&0\223\304L\002X\003I\232\302L\0323)`\015"
 122      263093C4 
 122      4C025803 
 122      499AC24C 
 122      1A332960 
 123 00e7 A4690633 		.ascii	"\244i\0063Y\314d\2005\220\0056Y\002d\231:\004\247\313"
 123      59CC6480 
 123      35900536 
 123      59026499 
 123      3A04A7CB 
 124 00fb EDF1FAFC 		.ascii	"\355\361\372\374\201`H\014G\242\261x\"\231Jg\262\260"
 124      8160480C 
 124      47A2B178 
 124      22994A67 
 124      B2B0
 125 010d FC2ADE42 		.ascii	"\374*\336BFz\311yIzw\373\323;\333\360\341\373\325\362"
 125      467AC979 
 125      497A77FB 
 125      D33BDBF0 
 125      E1FBD5F2 
 126 0121 39E9812C 		.ascii	"9\351\201,\003\024\361\3424\220\203\354\023\344\224"
 126      0314F1E2 
 126      349083EC 
 126      13E494
 127 0130 0695F447 		.ascii	"\006\225\364G\255\243\364\365\347\222W\351\344(\202"
 127      ADA3F4F5 
 127      E79257E9 
 127      E42882
 128 013f C35A9FEA 		.ascii	"\303Z\237\352W\353\327\316\003\353[\332\221e\321\362"
 128      57EBD7CE 
 128      03EB5BDA 
 128      9165D1F2 
 129 014f 50D56F8E 		.ascii	"P\325o\216\237\316\2348\267R\221\036\262\022\255\217"
 129      9FCE9C38 
ARM GAS  /tmp/ccZbts0L.s 			page 10


 129      B752911E 
 129      B212AD8F 
 130 015f F6EDFA29 		.ascii	"\366\355\372)_\245\264*\311\362r\021\237\261\245i\375"
 130      5FA5B42A 
 130      C9F27211 
 130      9FB1A569 
 130      FD
 131 0170 F7E72B1B 		.ascii	"\367\347+\033R\271*\313\317\026\301iq\240\213\366\352"
 131      52B92ACB 
 131      CF16C169 
 131      71A08BF6 
 131      EA
 132 0181 5B6B577D 		.ascii	"[kW}\227\354\325\367}\273\352\273l\257\276\255v\325"
 132      97ECD5F7 
 132      7DBBEABB 
 132      6CAFBEAD 
 132      76D5
 133 0193 F793BDFA 		.ascii	"\367\223\275\372~nW}\277\330\253\357f\273\352\373\325"
 133      7E6E577D 
 133      BFD8ABEF 
 133      66BBEAFB 
 133      D5
 134 01a4 5E7DBFD9 		.ascii	"^}\277\331\251O\266Q\337\357\366\352\333iW}w\354\325"
 134      A94FB651 
 134      DFEFF6EA 
 134      DB69577D 
 134      77ECD5
 135 01b7 F74FBBEA 		.ascii	"\367O\273\352\333\265W\337\277\355\252\357\276\275\372"
 135      DBB557DF 
 135      BFEDAAEF 
 135      BEBDFA
 136 01c6 1EB4AB3E 		.ascii	"\036\264\253>\331^}\225\253m\252\357\275\343g2\222V"
 136      D95E7D95 
 136      AB6DAAEF 
 136      BDE36732 
 136      9256
 137 01d8 9F8B9251 		.ascii	"\237\213\222Q\260\326\363\203\365+\272\367\275\233\222"
 137      B0D6F383 
 137      F52BBAF7 
 137      BD9B92
 138 01e7 FDCD3A5E 		.ascii	"\375\315:^\240\325mY>\365\335\316\037'!\272\027\310"
 138      A0D56D59 
 138      3EF5DDCE 
 138      1F2721BA 
 138      17C8
 139 01f9 245C855E 		.ascii	"$\\\205^\266\253c\273\005\007;9\004\226\331`\031'f\\"
 139      B6AB63BB 
 139      05073B39 
 139      0496D960 
 139      1927665C 
 140 020d 9871B393 		.ascii	"\230q\263\223\340a'\247\027C\037\206~\014\003\030\006"
 140      E06127A7 
 140      17431F86 
 140      7E0C0318 
 140      06
 141 021e 310C6128 		.ascii	"1\014a(b\030\3060\202a\024\303\030\206q\014\023\030"
 141      6218C630 
ARM GAS  /tmp/ccZbts0L.s 			page 11


 141      826114C3 
 141      1886710C 
 141      1318
 142 0230 26314C61 		.ascii	"&1La\230\3060\203a\026\303\016\014;1\354\302p\017\206"
 142      98C63083 
 142      6116C30E 
 142      0C3B31EC 
 142      C2700F86 
 143 0244 DD18E630 		.ascii	"\335\030\3460\354\301\260\027\303>\014\3731\034\300"
 143      ECC1B017 
 143      C33E0CFB 
 143      311CC0
 144 0253 7010C321 		.ascii	"p\020\303!\014\2071\034!\2129\253\275,I\225\\m\"\265"
 144      0C87311C 
 144      218A39AB 
 144      BD2C4995 
 144      5C6D22B5 
 145 0267 092A4F82 		.ascii	"\011*O\202\035\343\312\371\000nR\035\327Iy\373\332\364"
 145      1DE3CAF9 
 145      006E521D 
 145      D74979FB 
 145      DAF4
 146 0279 24FCC83A 		.ascii	"$\374\310:\315\000\274E\356I\253R\270\010\236ie\227"
 146      CD00BC45 
 146      EE49AB52 
 146      B8089E69 
 146      6597
 147 028b 47143FB6 		.ascii	"G\024?\266#-\342Vt\223\254\254\255\261\275\034\277\235"
 147      232DE256 
 147      7493ACAC 
 147      ADB1BD1C 
 147      BF9D
 148 029d E24522AD 		.ascii	"\342E\"\255\226%\004\336$?\274\306\2578\366\221/\244"
 148      962504DE 
 148      243FBCC6 
 148      AF38F691 
 148      2FA4
 149 02af 32BBEAFF 		.ascii	"2\273\352\377\230|\304\232\000\277Y9\246\200?\211Mr"
 149      987CC49A 
 149      00BF5939 
 149      A6803F89 
 149      4D72
 150 02c1 ECD2B12C 		.ascii	"\354\322\261,\357%\260\216x\227cGv\220\332pg\357>\315"
 150      EF25B08E 
 150      78976347 
 150      7690DA70 
 150      67EF3ECD 
 151 02d5 AF3A1F1D 		.ascii	"\257:\037\035\355J\305]\273\246\014V\222D\375p\316\306"
 151      ED4AC55D 
 151      BBA60C56 
 151      9244FD70 
 151      CEC6
 152 02e7 E1667001 		.ascii	"\341fp\001+#\336>\243\216\351bYeL\266i&\033\244\374"
 152      2B23DE3E 
 152      A38EE962 
 152      59654CB6 
 152      69261BA4 
ARM GAS  /tmp/ccZbts0L.s 			page 12


 153 02fc 5729A85E 		.ascii	"W)\250^:X\373C\321\216\003\030:X]\267n\336\335R\031"
 153      3A58FB43 
 153      D18E0318 
 153      3A585DB7 
 153      6EDEDD52 
 154 0311 DCFBC85E 		.ascii	"\334\373\310^&\317\206.Ih\027T\025C\207\201\033\206"
 154      26CF862E 
 154      49681754 
 154      15438781 
 154      1B86
 155 0323 EAA5803A 		.ascii	"\352\245\200:\363\225[[\"\377\012\017N\201u\020\037"
 155      F3955B5B 
 155      22FF0A0F 
 155      4E817510 
 155      1F
 156 0334 235F4A15 		.ascii	"#_J\025Iz\263\010aL\261\217cE\210\324f\025eC\341W\011"
 156      497AB308 
 156      614CB18F 
 156      634588D4 
 156      66156543 
 157 034b F5AFA2EA 		.ascii	"\365\257\242\352\003\212\251\013|J-\370:y\273\372|\355"
 157      038AA90B 
 157      7C4A2DF8 
 157      3A79BBFA 
 157      7CED
 158 035d FB71EAEC 		.ascii	"\373q\352\354\267\005\226\345\251\025U\317c\337\270"
 158      B70596E5 
 158      A91555CF 
 158      63DFB8
 159 036c C01E6E82 		.ascii	"\300\036n\202\317OP\346\307\210\376\326\210\274\234"
 159      CF4F50E6 
 159      C788FED6 
 159      88BC9C
 160 037b 28D740E4 		.ascii	"(\327@\3445 r\326\211\316\356jD\276\326\211\374\026"
 160      352072D6 
 160      89CEEE6A 
 160      44BED689 
 160      FC16
 161 038d 897C2644 		.ascii	"\211|&D\316\246D~S\"\247\236\310\305\211v5\242\000'"
 161      CEA6447E 
 161      5322A79E 
 161      C8C58976 
 161      35A20027 
 162 03a1 1A6D200A 		.ascii	"\032m \012\030\020\271\371*\322\021\005['\012Y$\012"
 162      1810B9F9 
 162      2AD21105 
 162      5B270A59 
 162      240A
 163 03b3 9A10B99A 		.ascii	"\232\020\271\232\022\205L\211\\z\"\017'\2225\"\221\023"
 163      12854C89 
 163      5C7A220F 
 163      27923522 
 163      9113
 164 03c5 49D06024 		.ascii	"I\320`$\032\030y\3712\272\247\031\205[7\212X4\012\233"
 164      1A1879F9 
 164      32BAA719 
 164      855B378A 
ARM GAS  /tmp/ccZbts0L.s 			page 13


 164      58340A9B 
 165 03d9 18B99B1A 		.ascii	"\030\271\233\032EL\215\334z#\0377\372\354\035\325(\252"
 165      454C8DDC 
 165      7A231F37 
 165      FAEC1DD5 
 165      28AA
 166 03eb 1AD106A3 		.ascii	"\032\321\006\243\250\201\221\237\257#\235Q\254u\243"
 166      A881919F 
 166      AF239D51 
 166      AC75A3
 167 03fa B845A398 		.ascii	"\270E\243\230\211\221\247\251Q\334\324\310\2437\012"
 167      8991A7A9 
 167      51DCD4C8 
 167      A3370A
 168 0409 70A30B9A 		.ascii	"p\243\013\232QB5\022\032\214\022\006FA\276\216\356k"
 168      51423512 
 168      1A8C1206 
 168      4641BE8E 
 168      EE6B
 169 041b 46C9D68D 		.ascii	"F\311\326\215R\026\215\222&F\336\246F)S#\257\336(\304"
 169      52168D92 
 169      2646DEA6 
 169      46295323 
 169      AFDE28C4 
 170 042f 8D2E6A46 		.ascii	"\215.jFi\325\310\323`\22460\022\371:\322\031e\354\032"
 170      69D5C8D3 
 170      60943630 
 170      12F93AD2 
 170      1965EC1A 
 171 0443 EDA84659 		.ascii	"\355\250FY\213F\031\023#\237\261\321\013\232Q\326\324"
 171      8B461913 
 171      239FB1D1 
 171      0B9A51D6 
 171      D4
 172 0454 C8A7370A 		.ascii	"\310\2477\012s\243\313\232Q\207j\324\370\346\35700\212"
 172      73A3CB9A 
 172      51876AD4 
 172      F8E6EF30 
 172      308A
 173 0466 F075F450 		.ascii	"\360u\364P3\352l\335\250\313\242Q\247\211\221\277\251"
 173      33EA6CDD 
 173      A8CBA251 
 173      A78991BF 
 173      A9
 174 0477 5197A991 		.ascii	"Q\227\251\221_o\024\345F\2675\243=\252Q\256\301h\217"
 174      5F6F14E5 
 174      46B735A3 
 174      3DAA51AE 
 174      C1688F
 175 048a 81518CAF 		.ascii	"\201Q\214\257#\235Qw\353F9\213F\335&F\201\246F9S\243"
 175      239D5177 
 175      EB46398B 
 175      46DD2646 
 175      81A64639 
 176 04a0 80DE28AE 		.ascii	"\200\336(\256\356\2164\243\036\325h\264\301\250\307"
 176      EE8E34A3 
 176      1ED568B4 
ARM GAS  /tmp/ccZbts0L.s 			page 14


 176      C1A8C7
 177 04af C028C1D7 		.ascii	"\300(\301\327\221\254\031\365\266n\324g\321\250\327"
 177      91AC19F5 
 177      B66ED467 
 177      D1A8D7
 178 04be C428D8D4 		.ascii	"\304(\330\324\250\317\324(\2507J\252\333#\315\250_5"
 178      A8CFD428 
 178      A8374AAA 
 178      DB23CDA8 
 178      5F35
 179 04d0 3278F9F7 		.ascii	"2x\371\367\033 \245\370B\322!\015\264\2164h\021i\300"
 179      1B20A5F8 
 179      42D2210D 
 179      B48E3468 
 179      1169C0
 180 04e3 0429D414 		.ascii	"\004)\324\024i\320\024)\244GJ\253\033$\015iHCj|\373"
 180      69D01429 
 180      A4474AAB 
 180      1B240D69 
 180      48436A7C 
 181 04f8 0F192065 		.ascii	"\017\031 e\370J\372\344\206\2124\334:\322\210E\244a"
 181      F84AFAE4 
 181      868A34DC 
 181      3AD28845 
 181      A461
 182 050a 1324B129 		.ascii	"\023$\261)\322\210)\222\250G\312\326\177\237\236(\360"
 182      D2882992 
 182      A847CAD6 
 182      7F9F9E28 
 182      F0
 183 051b AEEA6492 		.ascii	"\256\352d\222\323\365\021g\360\337\011l\265\334 \245"
 183      D3F51167 
 183      F0DF096C 
 183      B5DC20A5 
 184 052b ED9303FC 		.ascii	"\355\223\003\374\276\3321\216\023\304\333\236\311\317"
 184      BEDA318E 
 184      13C4DB9E 
 184      C9CF
 185 0539 CE1F2EE4 		.ascii	"\316\037.\344\013\257\027\362\373g\213S\305\227\307"
 185      0BAF17F2 
 185      FB678B53 
 185      C597C7
 186 0548 F2F38BF9 		.ascii	"\362\363\213\371\331\311\271\374\221\371\205\243\213"
 186      D9C9B9FC 
 186      91F985A3 
 186      8B
 187 0555 F9B1F197 		.ascii	"\371\261\361\227\236z\262v~\356\211\245\245|a\351\350"
 187      9E7AB276 
 187      7EEE89A5 
 187      A57C61E9 
 187      E8
 188 0566 C4DCDCA1 		.ascii	"\304\334\334\241\211\342\342\302\343\323\204\036Y\360"
 188      89E2E2C2 
 188      E3D3841E 
 188      59F0
 189 0574 4E2C4EBE 		.ascii	"N,N\276Q841\267\360?{\336RE"
 189      51383431 
ARM GAS  /tmp/ccZbts0L.s 			page 15


 189      B7F03F7B 
 189      DE5245
 190              		.text
 191              		.section	.gnu.lto_Vector48.96712724992c6518,"",%progbits
 192 0000 789CBD56 		.ascii	"x\234\275VKHTa\024>\347\336;3w\034\347\245V\330J\204"
 192      4B485461 
 192      143EE7DE 
 192      3B33771C 
 192      E7A556D8 
 193 0016 36494DD4 		.ascii	"6IM\324\312E$\010-\242HP\301\332\210\217I/(\212J\011"
 193      CA452408 
 193      2DA24850 
 193      C1DA888F 
 193      492F288A 
 194 002c 2DFC4727 		.ascii	"-\374G'\020{0D\017\313 ]\024\021\201bQB\013\207V\232"
 194      107B3044 
 194      0FCB205D 
 194      14118162 
 194      51420B87 
 195 0042 89488B44 		.ascii	"\211H\213D\027)\264l\341\272\242\3339\3675\027u\360"
 195      1729B46C 
 195      E1BAA2DB 
 195      39F73517 
 195      75F0
 196 0054 A2E40FF3 		.ascii	"\242\344\017\363?\316\363;\337\377\337\303H \301\326"
 196      3FCEF33B 
 196      DFFFDFC3 
 196      4820C1D6 
 197 0064 5143BFCA 		.ascii	"QC\277\312 \300E>\004\001\311\002%I\006\020\222B\223"
 197      20C0453E 
 197      0401C902 
 197      25490610 
 197      924293
 198 0077 22232DA8 		.ascii	"\"#-\250H>\226\370Y\342CZ\320/\005X\242\262$\200\264"
 198      483E96F8 
 198      59E2435A 
 198      D02F0558 
 198      A2B22480 
 199 008c A08A4821 		.ascii	"\240\212H!\020\006$Y\361\371\003*\016\\a\001\304\313"
 199      10062459 
 199      F1F9032A 
 199      0E5C6101 
 199      C4CB
 200 009e 614288FB 		.ascii	"aB\210\373\353/\2467\360\311\203lz\\\374\321uD\215\225"
 200      EB2FA637 
 200      F0C9836C 
 200      7A5CFCD1 
 200      75448D95 
 201 00b2 2D080DB4 		.ascii	"-\010\015\264\3032c\341\214\356a:\212\351W\"h8\311\032"
 201      C33263E1 
 201      8CEE613A 
 201      8AE95722 
 201      6838C91A 
 202 00c6 CA1E7DBE 		.ascii	"\312\036}\276\377\250\231\023\351\254\256\237\373\277"
 202      FFA89913 
 202      E9ACAE9F 
 202      FBBF
ARM GAS  /tmp/ccZbts0L.s 			page 16


 203 00d4 79BEBAF2 		.ascii	"y\276\272\362x\364\311>\\X\230@\362Mm\352z\3243\274"
 203      78F4C93E 
 203      5C589840 
 203      F24D6DEA 
 203      7AD433BC 
 204 00e8 ECE3DB77 		.ascii	"\354\343\333wKG\306\0073\342/\321\347=\333\350\302\235"
 204      4B47C607 
 204      33E22FD1 
 204      E73DDBE8 
 204      C29D
 205 00fa 824C6A58 		.ascii	"\202LjX\350\372\200\306w\351\251,\335U\226\317c\242"
 205      E8FA80C6 
 205      77E9A92C 
 205      DD5596CF 
 205      63A2
 206 010c B1BDE17B 		.ascii	"\261\275\341{vP\370\236\357\015\337\324A\341\373=r\257"
 206      7650F89E 
 206      EF0DDFD4 
 206      41E1FB3D 
 206      72AF
 207 011e 54E4F0F9 		.ascii	"T\344\360\371%\250Bo\236\372\347y\327{\012HP\275\233"
 207      25A8426F 
 207      9EFAE779 
 207      D77B0A48 
 207      50BD9B
 208 0131 E3A4945D 		.ascii	"\343\244\224]\327\365/\33767\326\260\250\010\241\011"
 208      D7F52FDF 
 208      3637D6B0 
 208      A808A109 
 209 0141 A7B19CBA 		.ascii	"\247\261\234\272\003\275F\231&Y\341\235\217w~\236\002"
 209      03BD4699 
 209      2659E19D 
 209      8F777E9E 
 209      02
 210 0152 64304506 		.ascii	"d0E\006*\213\203,)\240I\011\321\344+\344c\230\217\021"
 210      2A8B832C 
 210      29A04909 
 210      D1E42BE4 
 210      63988F11 
 211 0166 3E46F918 		.ascii	">F\371\030\343c\034\214\332)LZ\210L\231\031\301Ld0B"
 211      E3631C8C 
 211      DA294C5A 
 211      884C9919 
 211      C14C6430 
 212 017b A3CE98EB 		.ascii	"\243\316\230\353\271\351\310K\220^\237M6\341;rjC\274"
 212      B9E9C84B 
 212      905E9F4D 
 212      36E13B72 
 212      6A43BC
 213 018e 09BFC4B0 		.ascii	"\011\277\304\260\210i\250\266\030}\005\214:\250QiX\000"
 213      8869A8B6 
 213      187D058C 
 213      3AA85169 
 213      5800
 214 01a0 B0088333 		.ascii	"\260\010\20333\324Ols\211\225 \206\323\202\013]\204"
 214      33D44F6C 
 214      73899520 
ARM GAS  /tmp/ccZbts0L.s 			page 17


 214      86D3820B 
 214      5D84
 215 01b2 4F576D8D 		.ascii	"OWm\215\\\001\257E\232\264\2411xJK\241ml\214f\264\031"
 215      5C01AF45 
 215      9AB4A131 
 215      784A4BA1 
 215      6D6C8C66 
 216 01c8 E1889B21 		.ascii	"\341\210\233!\333K\311\033\317\267=\236\342\216\207"
 216      DB4BC91B 
 216      CFB73D9E 
 216      E28E87
 217 01d7 4EBCA18F 		.ascii	"N\274\241\217C/\035\200~B\322\306t\030\362\243\2668"
 217      432F1D80 
 217      7E42D2C6 
 217      7418F2A3 
 217      B638
 218 01e9 401AF696 		.ascii	"@\032\366\226\205h\267@\254LW\332Zu+\212\371L\300\324"
 218      8568B740 
 218      AC4C57DA 
 218      5A752B8A 
 218      F94CC0D4 
 219 01fd 19205222 		.ascii	"\031 R\"\352\206\241n/\213\022X\031'\03799\203$\265"
 219      EA86A16E 
 219      2F8B1258 
 219      19271F39 
 219      398324B5 
 220 0211 7252DB86 		.ascii	"rR\333\2069H\377L\205\035e\203\371i\344F=\037eB\266"
 220      3948FF4C 
 220      851D6583 
 220      F969E446 
 220      3D1F6542 
 221 0226 3AFA76D9 		.ascii	":\372v\331\251\247\240\002\216\323\035S\362\224\340"
 221      A9A7A002 
 221      8ED31D53 
 221      F294E0
 222 0235 5B0A3BF7 		.ascii	"[\012;\367\025\351D\373\266\"\026\030\311\341dpu3j\207"
 222      15E944FB 
 222      B6221618 
 222      C9E16470 
 222      75336A87 
 223 0249 087111E4 		.ascii	"\010q\021\344\020=\001oDF\210\033\032\306XD\333Z\015"
 223      103D016F 
 223      4446881B 
 223      1AC65844 
 223      DB5A0D
 224 025c E3665D45 		.ascii	"\343f]E\224\212C)V(\331y\012\305q\033a3\332\257{\011"
 224      948A4329 
 224      5628D979 
 224      0AC5711B 
 224      6133DAAF 
 225 0272 6E652F98 		.ascii	"ne/\230\361\271\370\020\000\303RMP\226\234}K\370m\036"
 225      F1B9F810 
 225      00C3524D 
 225      50969C7D 
 225      4BF86D1E 
 226 0286 B2EB538C 		.ascii	"\262\353S\214\372\210\244\0179\222\012s$\225m#\251p"
 226      FA88A40F 
ARM GAS  /tmp/ccZbts0L.s 			page 18


 226      39920A73 
 226      24956D23 
 226      A970
 227 0298 07927C16 		.ascii	"\007\222|\026I+.\222\302\373')\342\221\244p\036\222"
 227      492B2E92 
 227      C2FB2729 
 227      E291A470 
 227      1E92
 228 02aa 8A772529 		.ascii	"\212w%)\222\227\244b7I~\233\244\331\034I\321\034IU\333"
 228      9297A462 
 228      37497E9B 
 228      A4D91C49 
 228      D11C4955 
 229 02bf 488AEE40 		.ascii	"H\212\356@R\300~I\357s$\305\366OR\334#I\261<$\225\354"
 229      52C07E49 
 229      EF7324C5 
 229      F64F52DC 
 229      2349B13C 
 230 02d6 4A523C2F 		.ascii	"JR</I%n\222T\253\217\255&mW\247\230\303-\026\3706\376"
 230      49256E92 
 230      54AB8FAD 
 230      266D57A7 
 230      98C32D16 
 231 02ed EB730460 		.ascii	"\353s\004`\031R\353k\307l;s\324q\373`\263\263\211\366"
 231      1952EB6B 
 231      C76C3B73 
 231      D471FB60 
 231      B3B389F6 
 232 0301 AECE6422 		.ascii	"\256\316d\"y-\231\250n\327\232\265\313\265\211\256\336"
 232      792D99A8 
 232      6ED79AB5 
 232      CBB589AE 
 232      DE
 233 0312 447B5347 		.ascii	"D{SG\242\273\253\247\2577Q[w\351\314is>\177\252\277"
 233      A2BBABA7 
 233      AF37515B 
 233      77E9CC69 
 233      733E7FAA 
 234 0327 3F91ECEF 		.ascii	"?\221\354\357k\354\350hm\324z{N\266\200\324\335\023"
 234      6BECE868 
 234      6DD47A7B 
 234      4EB680D4 
 234      DD13
 235 0339 6CEC6DBA 		.ascii	"l\354m\272\236lm\354\350\371\007(\241\022\260"
 235      9E6C6DEC 
 235      E8F90728 
 235      A112B0
 236              		.text
 237              		.section	.gnu.lto_ext_lld_exti_irq_enable.96712724992c6518,"",%progbits
 238 0000 789C6362 		.ascii	"x\234cb`b@\007\"@,\313\310\300`\017\342030\002U021\002"
 238      60624007 
 238      22402CCB 
 238      C8C0600F 
 238      E2303330 
 239 001a 05181819 		.ascii	"\005\030\030\031\352\231\030\353#\031\301\312\3263\035"
 239      EA9918EB 
 239      2319C1CA 
ARM GAS  /tmp/ccZbts0L.s 			page 19


 239      D6331D
 240 0029 78F0FFFF 		.ascii	"x\360\377\377\272?}\313z\030\3672\201\304X\031Z\032"
 240      BA3F7DCB 
 240      7A18F732 
 240      81C45819 
 240      5A1A
 241 003b 1A262830 		.ascii	"\032&(00$\203U\204\200\311P\220~\346\363\014\255\017"
 241      30248355 
 241      8480C950 
 241      907EE6F3 
 241      0CAD0F
 242 004e 4E3CE74A 		.ascii	"N<\347Jd\\\310\310\012\024\254f\370\325\320\321 \220"
 242      645CC8C8 
 242      0A14AC66 
 242      F8D5D0D1 
 242      2090
 243 0060 C908540A 		.ascii	"\311\010T\0121-\2021\223\021(\005\246\230\0312A\232"
 243      312D8231 
 243      93112805 
 243      A6981932 
 243      419A
 244 0072 807A169C 		.ascii	"\200z\026\234d'\240\205\015C\313)BZ\3301\264\234'\244"
 244      6427A085 
 244      0D43CB29 
 244      425AD831 
 244      B49C27A4 
 245 0086 850945CB 		.ascii	"\205\011E\313E\206\306\0077\324aZ  \004\244\034\024"
 245      4586C607 
 245      37D4615A 
 245      202004A4 
 245      1C14
 246 0098 96B6FA19 		.ascii	"\226\266\372\031\371\271\251\372\251i\251\372\316\031"
 246      F9B9A9FA 
 246      A969A9FA 
 246      CE19
 247 00a6 994999FE 		.ascii	"\231I\231\376\301\372\371\305\372\031\2119\372\005\371"
 247      C1FAF9C5 
 247      FA198939 
 247      FA05F9
 248 00b5 4525C5FA 		.ascii	"E%\305\372\301!\276\306F\020\322\315\240\242B?\265\242"
 248      C121BEC6 
 248      4610D2CD 
 248      A0A2423F 
 248      B5A2
 249 00c7 243E2727 		.ascii	"$>''%>\263\270H/\231\001\000\251\324N\311"
 249      253EB3B8 
 249      482F9901 
 249      00A9D44E 
 249      C9
 250              		.text
 251              		.section	.gnu.lto_ext_lld_exti_irq_disable.96712724992c6518,"",%progbits
 252 0000 789C6362 		.ascii	"x\234cb`b@\007\"@\314\310\310\300`\017\342030\002U0"
 252      60624007 
 252      2240CCC8 
 252      C8C0600F 
 252      E2303330 
 253 0017 32810418 		.ascii	"2\201\004\030\030\031\352\231\030\353#\031\301\312\326"
ARM GAS  /tmp/ccZbts0L.s 			page 20


 253      1819EA99 
 253      18EB2319 
 253      C1CAD6
 254 0026 331D78F0 		.ascii	"3\035x\360\377\377\272}\347\227\315a\334\317\004\022"
 254      FFFFBA7D 
 254      E797CD61 
 254      DCCF0412 
 255 0036 63656869 		.ascii	"cehih\230\240\300\300\220\014V\021\002&CA\372\231\317"
 255      6898A0C0 
 255      C0900C56 
 255      11022643 
 255      41FA99CF 
 256 004a 33B43C78 		.ascii	"3\264<x\331\316\235\310\270\220\221\025(X\315\360\253"
 256      D9CE9DC8 
 256      B8909115 
 256      2858CDF0 
 256      AB
 257 005b A1A34120 		.ascii	"\241\243A \223\021\250\024bZ\004c&#P*\023\244\032\250"
 257      9311A814 
 257      625A0463 
 257      2623502A 
 257      13A41AA8 
 258 006f 78C12B76 		.ascii	"x\301+v\002j\331\020j_\023R\313\216P\373\203\220Z&\210"
 258      026AD910 
 258      6A5F1352 
 258      CB8E50FB 
 258      83905A26 
 259 0084 DA8B0C8D 		.ascii	"\332\213\014\215\017~\252\303\324B@\010H\035(\274l\365"
 259      0F7EAAC3 
 259      D4424008 
 259      481D28BC 
 259      6CF5
 260 0096 33F27353 		.ascii	"3\362sS\365S\323R\365\23532\2232\375\203\365\363\213"
 260      F553D352 
 260      F59D3332 
 260      9332FD83 
 260      F5F38B
 261 00a9 F5331273 		.ascii	"\3653\022s\364\013\362\213J\212\365\203C|\215\215 \244"
 261      F40BF28B 
 261      4A8AF583 
 261      437C8D8D 
 261      20A4
 262 00bb 9B414585 		.ascii	"\233AE\205~jEI|NNJ|fq\221^2\003\000\2024K\360"
 262      7E6A4549 
 262      7C4E4E4A 
 262      7C667191 
 262      5E320300 
 263              		.text
 264              		.section	.gnu.lto_.symbol_nodes.96712724992c6518,"",%progbits
 265 0000 789C4DCE 		.ascii	"x\234M\316\315\012\202@\024\206\341\3633\246u\023]\352"
 265      CD0A8240 
 265      1486E1F3 
 265      33A67513 
 265      5DEA
 266 0012 11848C82 		.ascii	"\021\204\214\202\212\242_+!/\241\033\010\334\267\021"
 266      8AA25F2B 
 266      212FA11B 
ARM GAS  /tmp/ccZbts0L.s 			page 21


 266      08DCB711 
 267 0022 5A476DDB 		.ascii	"ZGm\333\265.\032\347\014\251\233\227\317Gf$ 8!\350C"
 267      B52E1AE7 
 267      0CA99B97 
 267      CF476624 
 267      203821E8 
 268 0037 4B1480D9 		.ascii	"K\024\200\331\025@\3446\304`oA\200V(\330\274\2455\012"
 268      1540E436 
 268      C4606F41 
 268      805628D8 
 268      BCA5350A 
 269 004b B5E60685 		.ascii	"\265\346\006\205[s\213bZs\207\0224\023\017(\035\235"
 269      5B738B62 
 269      5A738712 
 269      34130F28 
 269      1D9D
 270 005d 718C98A1 		.ascii	"q\214\230\241\204\315:\242D\315\312Q\272\377\305\020"
 270      84CD3AA2 
 270      44CDCA51 
 270      BAFFC510 
 271 006d 4172FFDA 		.ascii	"Ar\377\332\206\220\214^}\003P\015\\\336\351\253\317"
 271      86908C5E 
 271      7D03500D 
 271      5CDEE9AB 
 271      CF
 272 007e E495BC92 		.ascii	"\344\225\274\222*\251\262W\016\241|\\>lX\231\035\333"
 272      2AA9B257 
 272      0EA17C5C 
 272      3E6C5899 
 272      1DDB
 273 0090 2CC62EE7 		.ascii	",\306.\347\211K5U\233\253\255\324\326j;\265L-W\253\017"
 273      894B3555 
 273      9BABADD4 
 273      D66A3BB5 
 273      4C2D57AB 
 274 00a5 65E36F31 		.ascii	"e\343o1\366\037\352\203\014\234S\227j\344\362\266\227"
 274      F61FEA83 
 274      0C9C5397 
 274      6AE4F2B6 
 274      97
 275 00b6 70D0D58F 		.ascii	"p\320\325\217l\013\337\322\367Y\267\323S\267-|K\337"
 275      6C0BDFD2 
 275      F759B7D3 
 275      53B72D7C 
 275      4BDF
 276 00c8 DAE1077C 		.ascii	"\332\341\007|\276\206\260"
 276      BE86B0
 277              		.text
 278              		.section	.gnu.lto_.refs.96712724992c6518,"",%progbits
 279 0000 789C6362 		.ascii	"x\234cb`b\010e\200\000\026\006\006F&F\020fa\202\261"
 279      60620865 
 279      80001606 
 279      06462646 
 279      10666182 
 280 0015 2498612C 		.ascii	"$\230a,b1\033\013\212\010\0007\204\000\325"
 280      62311B0B 
 280      8A080037 
ARM GAS  /tmp/ccZbts0L.s 			page 22


 280      8400D5
 281              		.text
 282              		.section	.gnu.lto_.decls.96712724992c6518,"",%progbits
 283 0000 789CC557 		.ascii	"x\234\305Wkl\024U\024\276wv\227vK\205Ry\024\321\260"
 283      6B6C1455 
 283      14BE7776 
 283      97764B85 
 283      527914D1 
 284 0015 98800989 		.ascii	"\230\200\011\211li\221\020\242\010i\2136\241@\332\362"
 284      6C699110 
 284      A208698B 
 284      36A140DA 
 284      F2
 285 0026 F0D764BA 		.ascii	"\360\327d\272\235\322\015\333]\334\335\326\362o\332"
 285      9DD20DDB 
 285      5DDCDDD6 
 285      F26FDA
 286 0035 4241A2A4 		.ascii	"BA\242\244\024\360Ipy\210\326\324\240\020\260\002-\203"
 286      14F04970 
 286      7988D6D4 
 286      A010B002 
 286      2D83
 287 0047 0F5A5E05 		.ascii	"\017Z^\005!\010\177\200\205 J\020\201`\023%\340z\356"
 287      21087F80 
 287      85204A10 
 287      81601325 
 287      E07AEE
 288 005a 9D999D47 		.ascii	"\235\231\235Gg\366\201\211Lrf\356\334{\317w\276s\317"
 288      67F68189 
 288      4C7266EE 
 288      DC7BCF77 
 288      BE73CF
 289 006d B9E7CE30 		.ascii	"\271\347\3160\210A/\333\020\212\301\325\233\213\320"
 289      88412FDB 
 289      108AC1D5 
 289      9B8BD0
 290 007c 38686720 		.ascii	"8hg \204f!\365\312\002\331\006\262\013\244\003\244\023"
 290      846621F5 
 290      CA02D906 
 290      B20BA403 
 290      A413
 291 008e 6437C81E 		.ascii	"d7\310\036\220} \207@\272A\372@0\310I\244\277\210n\036"
 291      907D2087 
 291      40BA41FA 
 291      4030C849 
 291      A4BF886E 
 292 00a3 1983C161 		.ascii	"\031\203\301a\360\314F\222\215(\310\003\020\021\244"
 292      F0CC4692 
 292      8D28C803 
 292      1011A4
 293 00b2 0B64248C 		.ascii	"\013d$\214;\3409\012\236\231 \014\310)x\277\0172\006"
 293      3BE0390A 
 293      9E99200C 
 293      C82978BF 
 293      0F3206
 294 00c5 DA792063 		.ascii	"\332y cA\256\302\273\035d\000\344\036\3103\320\267_"
 294      41AEC2BB 
ARM GAS  /tmp/ccZbts0L.s 			page 23


 294      1D6400E4 
 294      1EC833D0 
 294      B75F
 295 00d7 EECB85F6 		.ascii	"\356\313\205\366\025x\336\000\271\003b\223\355\037\222"
 295      1578DE00 
 295      B9036293 
 295      ED1F92
 296 00e6 B99AF1DB 		.ascii	"\271\232\361\333\365\204\371\355J\302\257\343\011\363"
 296      F584F9ED 
 296      4AC2AFE3 
 296      09F3
 297 00f4 EB48C2AF 		.ascii	"\353H\302\257\363\177\342\347\220\371e\230p\354L\302"
 297      F37FE2E7 
 297      90F96598 
 297      70EC4CC2 
 298 0104 71B73C6F 		.ascii	"q\267<o\034\226\370\364\310\375\214<\326\215\006_{d"
 298      1C96F8F4 
 298      C8FD8C3C 
 298      D68D065F 
 298      7B64
 299 0116 9D67659D 		.ascii	"\235ge\235c\032\0352\326g\2423\036m\025\"bt\365\345"
 299      631A1D32 
 299      D667A233 
 299      1E6D1522 
 299      6274F5E5 
 300 012a 3E2CB40B 		.ascii	">,\264\013\017c\261\026;\032\2156\013pEZ\005\001\207"
 300      0F63B116 
 300      3B1A8D36 
 300      0B70455A 
 300      050187
 301 013d 393C6B14 		.ascii	"9<k\024Z\2129<\314\211\\\264\221\355\244\336\"\304\341"
 301      5A8A393C 
 301      CC895CB4 
 301      91EDA4DE 
 301      22C4E1
 302 0150 ED78B4DC 		.ascii	"\355x\264\334ZdSl\315\306h2\352\000\3756A\330>\011\233"
 302      5A64536C 
 302      CDC66832 
 302      EA00FD36 
 302      41D83E09 
 303 0165 D8446812 		.ascii	"\330Dh\022\372\224X\020>\027l\024\237 l\303\343\265"
 303      FA945810 
 303      3E176C14 
 303      9F206CC3 
 303      E3B5
 304 0177 5338BC03 		.ascii	"S8\274\0033\203\231\212]G\263\333\232\242\261\330'."
 304      3383998A 
 304      5D47B3DB 
 304      9AA2B1D8 
 304      272E
 305 0189 C93C8316 		.ascii	"\311<\203\026b\230\274\023ON\210\276\313\210\376\231"
 305      6298BC13 
 305      4F4E88BE 
 305      CB88FE99 
 306 0199 297A5BAF 		.ascii	")z[\257\021\375\215T\320;\214\350_\230\242\377u\334"
 306      11FD8D54 
 306      D03B8CE8 
ARM GAS  /tmp/ccZbts0L.s 			page 24


 306      5F98A2FF 
 306      75DC
 307 01ab 885E950A 		.ascii	"\210^\225\012z\247\021\375KS\364G\353O\2501T\014,O\305"
 307      7AA711FD 
 307      4B53F447 
 307      EB4FA831 
 307      540C2C4F 
 308 01c0 C06EA381 		.ascii	"\300n\243\201\257L\015\364\2346\322o\301\251\300\357"
 308      AF4C0DF4 
 308      9C36D26F 
 308      C1A9C0EF 
 309 01d0 31C2EF1D 		.ascii	"1\302\357\035\014\037m\213\376}\274\177\025\336\320"
 309      0C1F6D8B 
 309      FE7DBC7F 
 309      15DED0
 310 01df 12E913EE 		.ascii	"\022\351\023\356\306b\303\323\310\302\375r\026\332h"
 310      C662C3D3 
 310      C8C2FD72 
 310      16DA68
 311 01ee A6A3A168 		.ascii	"\246\243\241h\235 4\023\305\327\373\206Y*ND;!E\243\207"
 311      9D203413 
 311      C5D7FB86 
 311      592A4E44 
 311      3B2145A3 
 312 0203 FB6FDCC3 		.ascii	"\373o\334\303M`\202\303]x(\000\374cp\211\303\257\016"
 312      4D6082C3 
 312      5D782800 
 312      FC637089 
 312      C3AF0E
 313 0216 D5B38777 		.ascii	"\325\263\207w\315\0045\365\021\311\3765\214qE\244I\007"
 313      CD0435F5 
 313      11C9FE35 
 313      8C7145A4 
 313      4907
 314 0228 F52E2FC1 		.ascii	"\365./\301\266w\355\212\343\003\355\247\233\036\313"
 314      B677ED8A 
 314      E303EDA7 
 314      9B1ECB
 315 0237 F11EBDE3 		.ascii	"\361\036\275\343N\264Vu\034%\364\372\275\037\217\340"
 315      4EB45675 
 315      1C25F4FA 
 315      BD1F8FE0 
 316 0247 66EAB588 		.ascii	"f\352\265\210\235\240}\333@;u\250K\027~\330\200[(\324"
 316      9DA07DDB 
 316      403B75A8 
 316      4B177ED8 
 316      805B28D4 
 317 025b F7146AA7 		.ascii	"\367\024j\247\315\270\200\031N\375Z\300\2732\201\340"
 317      CDB88019 
 317      4EFD5AC0 
 317      BB3281E0 
 318 026b D161B941 		.ascii	"\321a\271A\216\365\341(\335\351\262\377\2223\203c\262"
 318      8EF5E128 
 318      DDE9B2FF 
 318      92338363 
 318      B2
 319 027c DB661E93 		.ascii	"\333f\036\223^\3234\0348\373\230\3218\246\217\206\304"
ARM GAS  /tmp/ccZbts0L.s 			page 25


 319      5ED3341C 
 319      38FB98D1 
 319      38A68F86 
 319      C4
 320 028d C64045B4 		.ascii	"\306@E\264\240rBO\345y\264\215P9\277\365\344v\334.\000"
 320      A072424F 
 320      E579B48D 
 320      5039BFF5 
 320      E476DC2E 
 321 02a2 15418CC5 		.ascii	"\025A\214\305\360\370\\\264\201pqiB2[a\221\251\206\344"
 321      F0F85CB4 
 321      81707169 
 321      42325B61 
 321      91A986E4 
 322 02b6 E03571EC 		.ascii	"\3405q\354\001A\310\341\360)\234\013F\367\331\365Fe"
 322      0141C8E1 
 322      F0299C0B 
 322      46F7D9F5 
 322      4665
 323 02c8 98C86C2B 		.ascii	"\230\310l+\034\016\237\006>\034>\003\352\222\"E\026"
 323      1C0E9F06 
 323      3E1C3E03 
 323      EA922245 
 323      16
 324 02d9 A2E72F0F 		.ascii	"\242\347/\0174\311\273\205\214!\023_\344k\002\212@\002"
 324      34C9BB85 
 324      8C21135F 
 324      E46B028A 
 324      4002
 325 02eb 89577AB7 		.ascii	"\211Wz\267\216\021\242\"\316@\255$\237\242\253\233\363"
 325      8E11A222 
 325      CE40AD24 
 325      9FA2AB9B 
 325      F3
 326 02fc 3E508D66 		.ascii	">P\215f*F\261\226\374\305<)\235\316\201\026\203\016"
 326      2A46B196 
 326      FCC53C29 
 326      9DCE8116 
 326      830E
 327 030e 1BC8A780 		.ascii	"\033\310\247\200Dh\375\014\312Z\352bl\245K\352M@\232"
 327      4468FD0C 
 327      CA5AEA62 
 327      6CA54BEA 
 327      4D409A
 328 0321 468E41C7 		.ascii	"F\216A\307\301$\201\263;\325\276\363j\037\326L\275\254"
 328      C12481B3 
 328      3BD5BEF3 
 328      6A1FD64C 
 328      BDAC
 329 0333 762B0124 		.ascii	"v+\001$\257\330\2516b\372#PK\215\303\027\360D\270_\304"
 329      AFD8A936 
 329      62FA2350 
 329      4B8DC317 
 329      F044B85F 
 330 0348 36533506 		.ascii	"6S5\006\335\244\336\223\2656sTn\252v\207\305w\232\264"
 330      DDA4DE93 
 330      B5367354 
ARM GAS  /tmp/ccZbts0L.s 			page 26


 330      6EAA7687 
 330      C5779AB4 
 331 035c FE10B047 		.ascii	"\376\020\260GW\361\306\026\241/_W\025\225\014\200u\326"
 331      57F1C616 
 331      A12F5F57 
 331      15950C80 
 331      75D6
 332 036e E48090A5 		.ascii	"\344\200\220\245 F\324\200\210\335\275\330e\222x\206"
 332      2046D480 
 332      88DDBDD8 
 332      65927886 
 333 037e C91CBE06 		.ascii	"\311\034\276\006\256$\237Gf^7\244\225\370uo\266`\227"
 333      AE249F47 
 333      665E37A4 
 333      95F8756F 
 333      B66097
 334 0391 FA93A594 		.ascii	"\372\223\245\224 ~\333\273\005\013\221\357\360\010\324"
 334      207EDBBB 
 334      050B91EF 
 334      F008D4
 335 03a0 26DB4A9A 		.ascii	"&\333J\232\317\262'\233\301\023\016\377F\367\304\235"
 335      CFB2279B 
 335      C1130EFF 
 335      46F7C49D 
 336 03b0 74F70421 		.ascii	"t\367\004!v\313H\374\322QJ\374VJ{a\340\350\226\261\204"
 336      76CB48FC 
 336      D2514AFC 
 336      564A7B61 
 336      E0E896B1 
 337 03c5 B8527305 		.ascii	"\270Rs\005\007\2261\315*J\322\330\212\355\360\255\302"
 337      079631CD 
 337      2A4AD2D8 
 337      8AEDF0AD 
 337      C2
 338 03d6 E9C29A7A 		.ascii	"\351\302\232z\255\272\227\360\310<e\301\211h\336\307"
 338      ADBA97F0 
 338      C83C65C1 
 338      8968DEC7 
 339 03e6 F1E330DD 		.ascii	"\361\3430\335cG\334\333:\212,\327\000u\177\265\303x"
 339      6347DCDB 
 339      3A8A2CD7 
 339      00757FB5 
 339      C378
 340 03f8 4EC8D55B 		.ascii	"N\310\325[\335))\035\024\272\012\233\300\370\271\326"
 340      DD29291D 
 340      14BA0A9B 
 340      C0F8B9D6 
 341 0408 91C4F85D 		.ascii	"\221\304\370]z\312\267\033\214\033\026\200,\217\325"
 341      7ACAB71B 
 341      8C1B1680 
 341      2C8FD5
 342 0417 023CC043 		.ascii	"\002<\300C-B=h\214A\221\264c\3542\313 \005_M@\016\377"
 342      2D423D68 
 342      8C4191B4 
 342      63EC32CB 
 342      20055F4D 
 343 042e 4E4BC76D 		.ascii	"NK\307m<\001\356w\340n\\\003\223\215\367+l\232x\304"
ARM GAS  /tmp/ccZbts0L.s 			page 27


 343      3C01EE77 
 343      E06E5C03 
 343      938DF72B 
 343      6C9A78C4 
 344 0442 84B8B730 		.ascii	"\204\270\2670\305\312\331\207rH\342L\345\306\323H\361"
 344      C5CAD987 
 344      7248E24C 
 344      E5C6D348 
 344      F1
 345 0453 7007F5F0 		.ascii	"p\007\365\360\272\352\241\301n\202<\3268&\271\364\013"
 345      BAEAA1C1 
 345      6E823CD6 
 345      3826B9F4 
 345      0B
 346 0464 75E986D6 		.ascii	"u\351\206\326\031\006u\016\312\023\251Nh\264\325\202"
 346      1906750E 
 346      CA13A94E 
 346      68B4D582 
 347 0474 828CFA56 		.ascii	"\202\214\372V\216E\3254f\320~\207\241\312\376\267(\235"
 347      8E45D534 
 347      66D07E87 
 347      A1CAFEB7 
 347      289D
 348 0486 D144E927 		.ascii	"\321D\351'\352\322Y\032\245+z\307\272\343\216Y\325\033"
 348      EAD2591A 
 348      A52B7AC7 
 348      BAE38E59 
 348      D51B
 349 0498 81897F15 		.ascii	"\201\211\177\025\230\225om\231\025\261\242L\376l\345"
 349      98956F6D 
 349      9915B1A2 
 349      4CFE6CE5 
 350 04a8 B3F4FD3F 		.ascii	"\263\364\375?\372fJ_y\315\014)z\177:L\213\2365\016!"
 350      FA664A5F 
 350      79CD0C29 
 350      7A7F3A4C 
 350      8B9E350E 
 351 04bd B19A3114 		.ascii	"\261\2321\024\275\275\375\264\350\221\376$EoU\213\370"
 351      BDBDFDB4 
 351      E891FE24 
 351      456F558B 
 351      F8
 352 04ce 4DFF265A 		.ascii	"M\377&Z\364h\312\265$,\022\034>B\027+\371\256gP\323"
 352      F468CAB5 
 352      242C121C 
 352      3E42172B 
 352      F9AE6750 
 353 04e3 102C537B 		.ascii	"\020,S{\214\332\011\264\272\372\241vrx-C+Q\332`.\035"
 353      8CDA09B4 
 353      BAFAA176 
 353      72782D43 
 353      2B51DA60 
 354 04f9 D8012DD8 		.ascii	"\330\001-\330\333\251\200eZ3;\244\005[\2376\230\236"
 354      DBA98065 
 354      5A333BA4 
 354      055B9F36 
 354      989E
ARM GAS  /tmp/ccZbts0L.s 			page 28


 355 050b 598F166C 		.ascii	"Y\217\026lc*`9\326\314\316h\301>L\033\314e\271ctI\306"
 355      632A6039 
 355      D6CCCE68 
 355      C13E4C1B 
 355      CC65B963 
 356 0522 E1568664 		.ascii	"\341V\206d\301\032\206l\231u\364\376\016\275\257\247"
 356      C11A866C 
 356      9975F4FE 
 356      0EBDAFA7 
 357 0532 F7367A6F 		.ascii	"\3676zogR\330\343ML|\217':&\341\177\316\012a3c\370\244"
 357      6752D8E3 
 357      4D4C7C8F 
 357      273A26E1 
 357      7FCE0A61 
 358 054a 7718BEE8 		.ascii	"w\030\276\350\255\0247\231\230\026\323=Z\224o\022Q\367"
 358      AD143799 
 358      9816D33D 
 358      5A946F12 
 358      51F7
 359 055c 9566F852 		.ascii	"\225f\370R\277I\367\314-]\00549\024\324\257%\016\177"
 359      BF49F7CC 
 359      2D5D0534 
 359      3914D4AF 
 359      250E7F
 360 056f C058156B 		.ascii	"\300X\025k\355!\241\026\177\343\351\270?\201\013\037"
 360      ED21A116 
 360      7FE3E9B8 
 360      3F810B1F 
 361 057f 59ACB9F4 		.ascii	"Y\254\271\364\263j\245\365\261\245\326\261\004Z[T-\364"
 361      B36AA5F5 
 361      B1A5D6B1 
 361      045A5B54 
 361      2DF4
 362 0591 8ABB3650 		.ascii	"\212\2736P\307\273\371\032\336]T\353\255\362.\250p\007"
 362      C7BBF91A 
 362      DE5D54EB 
 362      ADF22EA8 
 362      7007
 363 05a3 42EE5ACE 		.ascii	"B\356Z\316\347^\021\010\206C\356\212\312\262\302\002"
 363      E75E1108 
 363      8643EE8A 
 363      CAB2C202 
 364 05b3 E93E37BF 		.ascii	"\351>7\277\261\321\3157\206Y\237\257\232\365\206\202"
 364      B1D1CD37 
 364      86599FAF 
 364      9AF58682 
 365 05c3 533C2873 		.ascii	"S<(s1\357\011\007\202/M\033\362\332\374E\256\242\370"
 365      31EF0907 
 365      822F4D1B 
 365      F2DAFC45 
 365      AEA2F8
 366 05d6 FB0CA551 		.ascii	"\373\014\245Q$7\246\315\030\243h\302\323\313z\203o\262"
 366      2437A6CD 
 366      18A368C2 
 366      D3CB7A83 
 366      6FB2
 367 05e8 BC9FABF2 		.ascii	"\274\237\253\362\361y\203\372\253\275!2P`\312,\030\226"
ARM GAS  /tmp/ccZbts0L.s 			page 29


 367      F17983FA 
 367      ABBD2132 
 367      5060CA2C 
 367      1896
 368 05fa 89CD292F 		.ascii	"\211\315)/+*kt{j=\201 \3176L\257\233R\213\246\244\241"
 368      2B2A6B74 
 368      7B6A3D81 
 368      20CF364C 
 368      AF9B528B 
 369 0611 02D33383 		.ascii	"\002\3233\203\3742.X\307\206sY2A\"\265\302\353\013,"
 369      FC322E58 
 369      C7867359 
 369      324122B5 
 369      C2EB0B2C 
 370 0625 ABE7A725 		.ascii	"\253\347\247%Y\027O\240\256.\340W \375\015^\017\000"
 370      59174FA0 
 370      AE2EE057 
 370      20FD0D5E 
 370      0F00
 371 0637 3EE7AE0F 		.ascii	">\347\256\017\005\335^\277\307W_\315\273\375\374[>o"
 371      05DD5EBF 
 371      C7575FCD 
 371      BBFDFC5B 
 371      3E6F
 372 0649 953B14AE 		.ascii	"\225;\024\256\366\372\303\304\\=<\013\013\330\360\213"
 372      F6FAC3C4 
 372      5C3D3C0B 
 372      0BD8F08B 
 373 0659 66D3EA38 		.ascii	"f\323\3528O\255\327\317\273\331j\276\206\253\367\205"
 373      4FADD7CF 
 373      BBD96ABE 
 373      86ABF785 
 374 0669 D9F0CA15 		.ascii	"\331\360\312\025|\010\324\262XVQ\314!vJ\350\262I\313"
 374      7C08D4B2 
 374      585651CC 
 374      21764AE8 
 374      B249CB
 375 067c 3A827414 		.ascii	":\202t\024K\353%\365\314L)\236\363\346\025\273K\226"
 375      4BEB25F5 
 375      CC4C299E 
 375      F3E615BB 
 375      4B96
 376 068e 5696364C 		.ascii	"V\2266LU\002\012\206^\260TU\250\302\\\230\347\004\315"
 376      55020A86 
 376      5EB05455 
 376      A8C25C98 
 376      E704CD
 377 06a1 E2A0B781 		.ascii	"\342\240\267\201\017fAG(\314\205y6\234\005\235\354\242"
 377      0F664147 
 377      28CC8579 
 377      369C059D 
 377      ECA2
 378 06b3 F9A5F34B 		.ascii	"\371\245\363K+3I\263\242r\301B\3327\247\250\262tq\211"
 378      2B3349B3 
 378      A272C142 
 378      DA37A7A8 
 378      B2747189 
ARM GAS  /tmp/ccZbts0L.s 			page 30


 379 06c7 834ECB81 		.ascii	"\203N\313\201\216\242Z\316\357\347}E\001\177\215w\231"
 379      8EA25ACE 
 379      EFE77D45 
 379      017F8D77 
 379      99
 380 06d8 BD2E50CD 		.ascii	"\275.P\315g\363\215+<R/\033~\012 =\234\317W\305y\226"
 380      67F38D2B 
 380      3C522F1B 
 380      7E0A203D 
 380      9CCF57C5 
 381 06ee B361C653 		.ascii	"\263a\306S\225)\017\205\210YIk\210\207>\034\204\307"
 381      95290F85 
 381      8859496B 
 381      88873E1C 
 381      84C7
 382 0700 D47C53D6 		.ascii	"\324|S\326\200\342.*\253(\255\000\207!\002u\205\005"
 382      80E22E2A 
 382      AB28AD00 
 382      87210275 
 382      8505
 383 0712 35F985F9 		.ascii	"5\371\205\371\215\323\201~6q\234\255\204\325-\346kl"
 383      8DD3817E 
 383      36719CAD 
 383      84D52DE6 
 383      6B6C
 384 0724 A565E5B6 		.ascii	"\245e\345\266\222\262r{yeE\271}.\334\034\025KJK\312"
 384      92B2727B 
 384      796545B9 
 384      7D2EDC1C 
 384      154B4A4B 
 385 0739 9985E5FF 		.ascii	"\231\205\345\377\002\270i\302$"
 385      02B869C2 
 385      24
 386              		.text
 387              		.section	.gnu.lto_.symtab.96712724992c6518,"",%progbits
 388 0000 56656374 		.ascii	"Vector54\000\000\000\000\000\000\000\000\000\000\000"
 388      6F723534 
 388      00000000 
 388      00000000 
 388      000000
 389 0013 00A10000 		.ascii	"\000\241\000\000\000Vector58\000\000\000\000\000\000"
 389      00566563 
 389      746F7235 
 389      38000000 
 389      000000
 390 0026 00000000 		.ascii	"\000\000\000\000\000\000\246\000\000\000Vector5C\000"
 390      0000A600 
 390      00005665 
 390      63746F72 
 390      354300
 391 0039 00000000 		.ascii	"\000\000\000\000\000\000\000\000\000\000\000\251\000"
 391      00000000 
 391      000000A9 
 391      00
 392 0046 00005665 		.ascii	"\000\000Vector48\000\000\000\000\000\000\000\000\000"
 392      63746F72 
 392      34380000 
ARM GAS  /tmp/ccZbts0L.s 			page 31


 392      00000000 
 392      000000
 393 0059 000000AC 		.ascii	"\000\000\000\254\000\000\000ext_lld_exti_irq_enable"
 393      00000065 
 393      78745F6C 
 393      6C645F65 
 393      7874695F 
 394 0077 00000000 		.ascii	"\000\000\000\000\000\000\000\000\000\000\000\000\257"
 394      00000000 
 394      00000000 
 394      AF
 395 0084 00000065 		.ascii	"\000\000\000ext_lld_exti_irq_disable\000\000\000\000"
 395      78745F6C 
 395      6C645F65 
 395      7874695F 
 395      6972715F 
 396 00a3 00000000 		.ascii	"\000\000\000\000\000\000\000\000\262\000\000\000EXT"
 396      00000000 
 396      B2000000 
 396      455854
 397 00b2 44310000 		.ascii	"D1\000\000\002\000\000\000\000\000\000\000\000\000\314"
 397      02000000 
 397      00000000 
 397      0000CC
 398 00c1 0000005F 		.ascii	"\000\000\000_port_irq_epilogue\000\000\002\000\000\000"
 398      706F7274 
 398      5F697271 
 398      5F657069 
 398      6C6F6775 
 399 00dc 00000000 		.ascii	"\000\000\000\000\000\000\265\000\000\000nvicEnableV"
 399      0000B500 
 399      00006E76 
 399      6963456E 
 399      61626C65 
 400 00f1 6563746F 		.ascii	"ector\000\000\002\000\000\000\000\000\000\000\000\000"
 400      72000002 
 400      00000000 
 400      00000000 
 400      00
 401 0102 BD000000 		.ascii	"\275\000\000\000nvicDisableVector\000\000\002\000\000"
 401      6E766963 
 401      44697361 
 401      626C6556 
 401      6563746F 
 402 011c 00000000 		.ascii	"\000\000\000\000\000\000\000\310\000\000\000"
 402      000000C8 
 402      000000
 403              		.text
 404              		.section	.gnu.lto_.opts,"",%progbits
 405 0000 272D6D63 		.ascii	"'-mcpu=cortex-m0' '-mno-thumb-interwork' '-mthumb' "
 405      70753D63 
 405      6F727465 
 405      782D6D30 
 405      2720272D 
 406 0033 272D6767 		.ascii	"'-ggdb' '-O0' '-fomit-frame-pointer' '-falign-funct"
 406      64622720 
 406      272D4F30 
ARM GAS  /tmp/ccZbts0L.s 			page 32


 406      2720272D 
 406      666F6D69 
 407 0066 696F6E73 		.ascii	"ions=16' '-ffunction-sections' '-fdata-sections' '-"
 407      3D313627 
 407      20272D66 
 407      66756E63 
 407      74696F6E 
 408 0099 666E6F2D 		.ascii	"fno-common' '-flto'\000"
 408      636F6D6D 
 408      6F6E2720 
 408      272D666C 
 408      746F2700 
 409              		.text
 410              		.cfi_sections	.debug_frame
 411              		.section	.text.Vector54,"ax",%progbits
 412              		.align	2
 413              		.p2align 4,,15
 414              		.global	Vector54
 415              		.code	16
 416              		.thumb_func
 417              		.type	Vector54, %function
 418              	Vector54:
 419              	.LFB149:
 420              		.file 1 "/home/efe/ChibiOS/os/hal/ports/STM32/STM32F0xx/ext_lld_isr.c"
 421              		.loc 1 56 0
 422              		.cfi_startproc
 423 0000 00B5     		push	{lr}
 424              		.cfi_def_cfa_offset 4
 425              		.cfi_offset 14, -4
 426 0002 83B0     		sub	sp, sp, #12
 427              		.cfi_def_cfa_offset 16
 428 0004 7346     		mov	r3, lr
 429              		.loc 1 59 0
 430 0006 0193     		str	r3, [sp, #4]
 431              		.loc 1 61 0
 432 0008 114B     		ldr	r3, .L4
 433 000a 5A69     		ldr	r2, [r3, #20]
 434 000c 0323     		mov	r3, #3
 435 000e 1340     		and	r3, r2
 436 0010 0093     		str	r3, [sp]
 437              		.loc 1 62 0
 438 0012 0F4B     		ldr	r3, .L4
 439 0014 009A     		ldr	r2, [sp]
 440 0016 5A61     		str	r2, [r3, #20]
 441              		.loc 1 63 0
 442 0018 009A     		ldr	r2, [sp]
 443 001a 0123     		mov	r3, #1
 444 001c 1340     		and	r3, r2
 445 001e 06D0     		beq	.L2
 446              		.loc 1 64 0
 447 0020 0C4B     		ldr	r3, .L4+4
 448 0022 5B68     		ldr	r3, [r3, #4]
 449 0024 5B68     		ldr	r3, [r3, #4]
 450 0026 0B4A     		ldr	r2, .L4+4
 451 0028 101C     		mov	r0, r2
 452 002a 0021     		mov	r1, #0
 453 002c 9847     		blx	r3
ARM GAS  /tmp/ccZbts0L.s 			page 33


 454              	.L2:
 455              		.loc 1 65 0
 456 002e 009A     		ldr	r2, [sp]
 457 0030 0223     		mov	r3, #2
 458 0032 1340     		and	r3, r2
 459 0034 06D0     		beq	.L3
 460              		.loc 1 66 0
 461 0036 074B     		ldr	r3, .L4+4
 462 0038 5B68     		ldr	r3, [r3, #4]
 463 003a DB68     		ldr	r3, [r3, #12]
 464 003c 054A     		ldr	r2, .L4+4
 465 003e 101C     		mov	r0, r2
 466 0040 0121     		mov	r1, #1
 467 0042 9847     		blx	r3
 468              	.L3:
 469              		.loc 1 68 0
 470 0044 019B     		ldr	r3, [sp, #4]
 471 0046 181C     		mov	r0, r3
 472 0048 FFF7FEFF 		bl	_port_irq_epilogue
 473              		.loc 1 69 0
 474 004c 03B0     		add	sp, sp, #12
 475              		@ sp needed
 476 004e 00BD     		pop	{pc}
 477              	.L5:
 478              		.align	2
 479              	.L4:
 480 0050 00040140 		.word	1073808384
 481 0054 00000000 		.word	EXTD1
 482              		.cfi_endproc
 483              	.LFE149:
 484              		.size	Vector54, .-Vector54
 485 0058 C046C046 		.section	.text.Vector58,"ax",%progbits
 485      C046C046 
 486              		.align	2
 487              		.p2align 4,,15
 488              		.global	Vector58
 489              		.code	16
 490              		.thumb_func
 491              		.type	Vector58, %function
 492              	Vector58:
 493              	.LFB150:
 494              		.loc 1 76 0
 495              		.cfi_startproc
 496 0000 00B5     		push	{lr}
 497              		.cfi_def_cfa_offset 4
 498              		.cfi_offset 14, -4
 499 0002 83B0     		sub	sp, sp, #12
 500              		.cfi_def_cfa_offset 16
 501 0004 7346     		mov	r3, lr
 502              		.loc 1 79 0
 503 0006 0193     		str	r3, [sp, #4]
 504              		.loc 1 81 0
 505 0008 114B     		ldr	r3, .L9
 506 000a 5A69     		ldr	r2, [r3, #20]
 507 000c 0C23     		mov	r3, #12
 508 000e 1340     		and	r3, r2
 509 0010 0093     		str	r3, [sp]
ARM GAS  /tmp/ccZbts0L.s 			page 34


 510              		.loc 1 82 0
 511 0012 0F4B     		ldr	r3, .L9
 512 0014 009A     		ldr	r2, [sp]
 513 0016 5A61     		str	r2, [r3, #20]
 514              		.loc 1 83 0
 515 0018 009A     		ldr	r2, [sp]
 516 001a 0423     		mov	r3, #4
 517 001c 1340     		and	r3, r2
 518 001e 06D0     		beq	.L7
 519              		.loc 1 84 0
 520 0020 0C4B     		ldr	r3, .L9+4
 521 0022 5B68     		ldr	r3, [r3, #4]
 522 0024 5B69     		ldr	r3, [r3, #20]
 523 0026 0B4A     		ldr	r2, .L9+4
 524 0028 101C     		mov	r0, r2
 525 002a 0221     		mov	r1, #2
 526 002c 9847     		blx	r3
 527              	.L7:
 528              		.loc 1 85 0
 529 002e 009A     		ldr	r2, [sp]
 530 0030 0823     		mov	r3, #8
 531 0032 1340     		and	r3, r2
 532 0034 06D0     		beq	.L8
 533              		.loc 1 86 0
 534 0036 074B     		ldr	r3, .L9+4
 535 0038 5B68     		ldr	r3, [r3, #4]
 536 003a DB69     		ldr	r3, [r3, #28]
 537 003c 054A     		ldr	r2, .L9+4
 538 003e 101C     		mov	r0, r2
 539 0040 0321     		mov	r1, #3
 540 0042 9847     		blx	r3
 541              	.L8:
 542              		.loc 1 88 0
 543 0044 019B     		ldr	r3, [sp, #4]
 544 0046 181C     		mov	r0, r3
 545 0048 FFF7FEFF 		bl	_port_irq_epilogue
 546              		.loc 1 89 0
 547 004c 03B0     		add	sp, sp, #12
 548              		@ sp needed
 549 004e 00BD     		pop	{pc}
 550              	.L10:
 551              		.align	2
 552              	.L9:
 553 0050 00040140 		.word	1073808384
 554 0054 00000000 		.word	EXTD1
 555              		.cfi_endproc
 556              	.LFE150:
 557              		.size	Vector58, .-Vector58
 558 0058 C046C046 		.section	.text.Vector5C,"ax",%progbits
 558      C046C046 
 559              		.align	2
 560              		.p2align 4,,15
 561              		.global	Vector5C
 562              		.code	16
 563              		.thumb_func
 564              		.type	Vector5C, %function
 565              	Vector5C:
ARM GAS  /tmp/ccZbts0L.s 			page 35


 566              	.LFB151:
 567              		.loc 1 96 0
 568              		.cfi_startproc
 569 0000 00B5     		push	{lr}
 570              		.cfi_def_cfa_offset 4
 571              		.cfi_offset 14, -4
 572 0002 83B0     		sub	sp, sp, #12
 573              		.cfi_def_cfa_offset 16
 574 0004 7346     		mov	r3, lr
 575              		.loc 1 99 0
 576 0006 0193     		str	r3, [sp, #4]
 577              		.loc 1 101 0
 578 0008 4C4B     		ldr	r3, .L24
 579 000a 5A69     		ldr	r2, [r3, #20]
 580 000c 4C4B     		ldr	r3, .L24+4
 581 000e 1340     		and	r3, r2
 582 0010 0093     		str	r3, [sp]
 583              		.loc 1 104 0
 584 0012 4A4B     		ldr	r3, .L24
 585 0014 009A     		ldr	r2, [sp]
 586 0016 5A61     		str	r2, [r3, #20]
 587              		.loc 1 105 0
 588 0018 009A     		ldr	r2, [sp]
 589 001a 1023     		mov	r3, #16
 590 001c 1340     		and	r3, r2
 591 001e 06D0     		beq	.L12
 592              		.loc 1 106 0
 593 0020 484B     		ldr	r3, .L24+8
 594 0022 5B68     		ldr	r3, [r3, #4]
 595 0024 5B6A     		ldr	r3, [r3, #36]
 596 0026 474A     		ldr	r2, .L24+8
 597 0028 101C     		mov	r0, r2
 598 002a 0421     		mov	r1, #4
 599 002c 9847     		blx	r3
 600              	.L12:
 601              		.loc 1 107 0
 602 002e 009A     		ldr	r2, [sp]
 603 0030 2023     		mov	r3, #32
 604 0032 1340     		and	r3, r2
 605 0034 06D0     		beq	.L13
 606              		.loc 1 108 0
 607 0036 434B     		ldr	r3, .L24+8
 608 0038 5B68     		ldr	r3, [r3, #4]
 609 003a DB6A     		ldr	r3, [r3, #44]
 610 003c 414A     		ldr	r2, .L24+8
 611 003e 101C     		mov	r0, r2
 612 0040 0521     		mov	r1, #5
 613 0042 9847     		blx	r3
 614              	.L13:
 615              		.loc 1 109 0
 616 0044 009A     		ldr	r2, [sp]
 617 0046 4023     		mov	r3, #64
 618 0048 1340     		and	r3, r2
 619 004a 06D0     		beq	.L14
 620              		.loc 1 110 0
 621 004c 3D4B     		ldr	r3, .L24+8
 622 004e 5B68     		ldr	r3, [r3, #4]
ARM GAS  /tmp/ccZbts0L.s 			page 36


 623 0050 5B6B     		ldr	r3, [r3, #52]
 624 0052 3C4A     		ldr	r2, .L24+8
 625 0054 101C     		mov	r0, r2
 626 0056 0621     		mov	r1, #6
 627 0058 9847     		blx	r3
 628              	.L14:
 629              		.loc 1 111 0
 630 005a 009A     		ldr	r2, [sp]
 631 005c 8023     		mov	r3, #128
 632 005e 1340     		and	r3, r2
 633 0060 06D0     		beq	.L15
 634              		.loc 1 112 0
 635 0062 384B     		ldr	r3, .L24+8
 636 0064 5B68     		ldr	r3, [r3, #4]
 637 0066 DB6B     		ldr	r3, [r3, #60]
 638 0068 364A     		ldr	r2, .L24+8
 639 006a 101C     		mov	r0, r2
 640 006c 0721     		mov	r1, #7
 641 006e 9847     		blx	r3
 642              	.L15:
 643              		.loc 1 113 0
 644 0070 009A     		ldr	r2, [sp]
 645 0072 8023     		mov	r3, #128
 646 0074 5B00     		lsl	r3, r3, #1
 647 0076 1340     		and	r3, r2
 648 0078 06D0     		beq	.L16
 649              		.loc 1 114 0
 650 007a 324B     		ldr	r3, .L24+8
 651 007c 5B68     		ldr	r3, [r3, #4]
 652 007e 5B6C     		ldr	r3, [r3, #68]
 653 0080 304A     		ldr	r2, .L24+8
 654 0082 101C     		mov	r0, r2
 655 0084 0821     		mov	r1, #8
 656 0086 9847     		blx	r3
 657              	.L16:
 658              		.loc 1 115 0
 659 0088 009A     		ldr	r2, [sp]
 660 008a 8023     		mov	r3, #128
 661 008c 9B00     		lsl	r3, r3, #2
 662 008e 1340     		and	r3, r2
 663 0090 06D0     		beq	.L17
 664              		.loc 1 116 0
 665 0092 2C4B     		ldr	r3, .L24+8
 666 0094 5B68     		ldr	r3, [r3, #4]
 667 0096 DB6C     		ldr	r3, [r3, #76]
 668 0098 2A4A     		ldr	r2, .L24+8
 669 009a 101C     		mov	r0, r2
 670 009c 0921     		mov	r1, #9
 671 009e 9847     		blx	r3
 672              	.L17:
 673              		.loc 1 117 0
 674 00a0 009A     		ldr	r2, [sp]
 675 00a2 8023     		mov	r3, #128
 676 00a4 DB00     		lsl	r3, r3, #3
 677 00a6 1340     		and	r3, r2
 678 00a8 06D0     		beq	.L18
 679              		.loc 1 118 0
ARM GAS  /tmp/ccZbts0L.s 			page 37


 680 00aa 264B     		ldr	r3, .L24+8
 681 00ac 5B68     		ldr	r3, [r3, #4]
 682 00ae 5B6D     		ldr	r3, [r3, #84]
 683 00b0 244A     		ldr	r2, .L24+8
 684 00b2 101C     		mov	r0, r2
 685 00b4 0A21     		mov	r1, #10
 686 00b6 9847     		blx	r3
 687              	.L18:
 688              		.loc 1 119 0
 689 00b8 009A     		ldr	r2, [sp]
 690 00ba 8023     		mov	r3, #128
 691 00bc 1B01     		lsl	r3, r3, #4
 692 00be 1340     		and	r3, r2
 693 00c0 06D0     		beq	.L19
 694              		.loc 1 120 0
 695 00c2 204B     		ldr	r3, .L24+8
 696 00c4 5B68     		ldr	r3, [r3, #4]
 697 00c6 DB6D     		ldr	r3, [r3, #92]
 698 00c8 1E4A     		ldr	r2, .L24+8
 699 00ca 101C     		mov	r0, r2
 700 00cc 0B21     		mov	r1, #11
 701 00ce 9847     		blx	r3
 702              	.L19:
 703              		.loc 1 121 0
 704 00d0 009A     		ldr	r2, [sp]
 705 00d2 8023     		mov	r3, #128
 706 00d4 5B01     		lsl	r3, r3, #5
 707 00d6 1340     		and	r3, r2
 708 00d8 06D0     		beq	.L20
 709              		.loc 1 122 0
 710 00da 1A4B     		ldr	r3, .L24+8
 711 00dc 5B68     		ldr	r3, [r3, #4]
 712 00de 5B6E     		ldr	r3, [r3, #100]
 713 00e0 184A     		ldr	r2, .L24+8
 714 00e2 101C     		mov	r0, r2
 715 00e4 0C21     		mov	r1, #12
 716 00e6 9847     		blx	r3
 717              	.L20:
 718              		.loc 1 123 0
 719 00e8 009A     		ldr	r2, [sp]
 720 00ea 8023     		mov	r3, #128
 721 00ec 9B01     		lsl	r3, r3, #6
 722 00ee 1340     		and	r3, r2
 723 00f0 06D0     		beq	.L21
 724              		.loc 1 124 0
 725 00f2 144B     		ldr	r3, .L24+8
 726 00f4 5B68     		ldr	r3, [r3, #4]
 727 00f6 DB6E     		ldr	r3, [r3, #108]
 728 00f8 124A     		ldr	r2, .L24+8
 729 00fa 101C     		mov	r0, r2
 730 00fc 0D21     		mov	r1, #13
 731 00fe 9847     		blx	r3
 732              	.L21:
 733              		.loc 1 125 0
 734 0100 009A     		ldr	r2, [sp]
 735 0102 8023     		mov	r3, #128
 736 0104 DB01     		lsl	r3, r3, #7
ARM GAS  /tmp/ccZbts0L.s 			page 38


 737 0106 1340     		and	r3, r2
 738 0108 06D0     		beq	.L22
 739              		.loc 1 126 0
 740 010a 0E4B     		ldr	r3, .L24+8
 741 010c 5B68     		ldr	r3, [r3, #4]
 742 010e 5B6F     		ldr	r3, [r3, #116]
 743 0110 0C4A     		ldr	r2, .L24+8
 744 0112 101C     		mov	r0, r2
 745 0114 0E21     		mov	r1, #14
 746 0116 9847     		blx	r3
 747              	.L22:
 748              		.loc 1 127 0
 749 0118 009A     		ldr	r2, [sp]
 750 011a 8023     		mov	r3, #128
 751 011c 1B02     		lsl	r3, r3, #8
 752 011e 1340     		and	r3, r2
 753 0120 06D0     		beq	.L23
 754              		.loc 1 128 0
 755 0122 084B     		ldr	r3, .L24+8
 756 0124 5B68     		ldr	r3, [r3, #4]
 757 0126 DB6F     		ldr	r3, [r3, #124]
 758 0128 064A     		ldr	r2, .L24+8
 759 012a 101C     		mov	r0, r2
 760 012c 0F21     		mov	r1, #15
 761 012e 9847     		blx	r3
 762              	.L23:
 763              		.loc 1 130 0
 764 0130 019B     		ldr	r3, [sp, #4]
 765 0132 181C     		mov	r0, r3
 766 0134 FFF7FEFF 		bl	_port_irq_epilogue
 767              		.loc 1 131 0
 768 0138 03B0     		add	sp, sp, #12
 769              		@ sp needed
 770 013a 00BD     		pop	{pc}
 771              	.L25:
 772              		.align	2
 773              	.L24:
 774 013c 00040140 		.word	1073808384
 775 0140 F0FF0000 		.word	65520
 776 0144 00000000 		.word	EXTD1
 777              		.cfi_endproc
 778              	.LFE151:
 779              		.size	Vector5C, .-Vector5C
 780 0148 C046C046 		.section	.text.Vector48,"ax",%progbits
 780      C046C046 
 781              		.align	2
 782              		.p2align 4,,15
 783              		.global	Vector48
 784              		.code	16
 785              		.thumb_func
 786              		.type	Vector48, %function
 787              	Vector48:
 788              	.LFB152:
 789              		.loc 1 156 0
 790              		.cfi_startproc
 791 0000 00B5     		push	{lr}
 792              		.cfi_def_cfa_offset 4
ARM GAS  /tmp/ccZbts0L.s 			page 39


 793              		.cfi_offset 14, -4
 794 0002 83B0     		sub	sp, sp, #12
 795              		.cfi_def_cfa_offset 16
 796 0004 7346     		mov	r3, lr
 797              		.loc 1 159 0
 798 0006 0193     		str	r3, [sp, #4]
 799              		.loc 1 161 0
 800 0008 1C4B     		ldr	r3, .L30
 801 000a 5A69     		ldr	r2, [r3, #20]
 802 000c 1B4B     		ldr	r3, .L30
 803 000e 1B68     		ldr	r3, [r3]
 804 0010 1A40     		and	r2, r3
 805 0012 D023     		mov	r3, #208
 806 0014 5B03     		lsl	r3, r3, #13
 807 0016 1340     		and	r3, r2
 808 0018 0093     		str	r3, [sp]
 809              		.loc 1 162 0
 810 001a 184B     		ldr	r3, .L30
 811 001c 009A     		ldr	r2, [sp]
 812 001e 5A61     		str	r2, [r3, #20]
 813              		.loc 1 163 0
 814 0020 009A     		ldr	r2, [sp]
 815 0022 8023     		mov	r3, #128
 816 0024 9B02     		lsl	r3, r3, #10
 817 0026 1340     		and	r3, r2
 818 0028 07D0     		beq	.L27
 819              		.loc 1 164 0
 820 002a 154B     		ldr	r3, .L30+4
 821 002c 5A68     		ldr	r2, [r3, #4]
 822 002e 8C23     		mov	r3, #140
 823 0030 D358     		ldr	r3, [r2, r3]
 824 0032 134A     		ldr	r2, .L30+4
 825 0034 101C     		mov	r0, r2
 826 0036 1121     		mov	r1, #17
 827 0038 9847     		blx	r3
 828              	.L27:
 829              		.loc 1 165 0
 830 003a 009A     		ldr	r2, [sp]
 831 003c 8023     		mov	r3, #128
 832 003e 1B03     		lsl	r3, r3, #12
 833 0040 1340     		and	r3, r2
 834 0042 07D0     		beq	.L28
 835              		.loc 1 166 0
 836 0044 0E4B     		ldr	r3, .L30+4
 837 0046 5A68     		ldr	r2, [r3, #4]
 838 0048 9C23     		mov	r3, #156
 839 004a D358     		ldr	r3, [r2, r3]
 840 004c 0C4A     		ldr	r2, .L30+4
 841 004e 101C     		mov	r0, r2
 842 0050 1321     		mov	r1, #19
 843 0052 9847     		blx	r3
 844              	.L28:
 845              		.loc 1 167 0
 846 0054 009A     		ldr	r2, [sp]
 847 0056 8023     		mov	r3, #128
 848 0058 5B03     		lsl	r3, r3, #13
 849 005a 1340     		and	r3, r2
ARM GAS  /tmp/ccZbts0L.s 			page 40


 850 005c 07D0     		beq	.L29
 851              		.loc 1 168 0
 852 005e 084B     		ldr	r3, .L30+4
 853 0060 5A68     		ldr	r2, [r3, #4]
 854 0062 A423     		mov	r3, #164
 855 0064 D358     		ldr	r3, [r2, r3]
 856 0066 064A     		ldr	r2, .L30+4
 857 0068 101C     		mov	r0, r2
 858 006a 1421     		mov	r1, #20
 859 006c 9847     		blx	r3
 860              	.L29:
 861              		.loc 1 170 0
 862 006e 019B     		ldr	r3, [sp, #4]
 863 0070 181C     		mov	r0, r3
 864 0072 FFF7FEFF 		bl	_port_irq_epilogue
 865              		.loc 1 171 0
 866 0076 03B0     		add	sp, sp, #12
 867              		@ sp needed
 868 0078 00BD     		pop	{pc}
 869              	.L31:
 870 007a C046     		.align	2
 871              	.L30:
 872 007c 00040140 		.word	1073808384
 873 0080 00000000 		.word	EXTD1
 874              		.cfi_endproc
 875              	.LFE152:
 876              		.size	Vector48, .-Vector48
 877 0084 C046C046 		.section	.text.ext_lld_exti_irq_enable,"ax",%progbits
 877      C046C046 
 877      C046C046 
 878              		.align	2
 879              		.p2align 4,,15
 880              		.global	ext_lld_exti_irq_enable
 881              		.code	16
 882              		.thumb_func
 883              		.type	ext_lld_exti_irq_enable, %function
 884              	ext_lld_exti_irq_enable:
 885              	.LFB153:
 886              		.loc 1 222 0
 887              		.cfi_startproc
 888 0000 08B5     		push	{r3, lr}
 889              		.cfi_def_cfa_offset 8
 890              		.cfi_offset 3, -8
 891              		.cfi_offset 14, -4
 892              		.loc 1 224 0
 893 0002 0520     		mov	r0, #5
 894 0004 0321     		mov	r1, #3
 895 0006 FFF7FEFF 		bl	nvicEnableVector
 896              		.loc 1 225 0
 897 000a 0620     		mov	r0, #6
 898 000c 0321     		mov	r1, #3
 899 000e FFF7FEFF 		bl	nvicEnableVector
 900              		.loc 1 226 0
 901 0012 0720     		mov	r0, #7
 902 0014 0321     		mov	r1, #3
 903 0016 FFF7FEFF 		bl	nvicEnableVector
 904              		.loc 1 231 0
ARM GAS  /tmp/ccZbts0L.s 			page 41


 905 001a 0220     		mov	r0, #2
 906 001c 0321     		mov	r1, #3
 907 001e FFF7FEFF 		bl	nvicEnableVector
 908              		.loc 1 232 0
 909              		@ sp needed
 910 0022 08BD     		pop	{r3, pc}
 911              		.cfi_endproc
 912              	.LFE153:
 913              		.size	ext_lld_exti_irq_enable, .-ext_lld_exti_irq_enable
 914 0024 C046C046 		.section	.text.ext_lld_exti_irq_disable,"ax",%progbits
 914      C046C046 
 914      C046C046 
 915              		.align	2
 916              		.p2align 4,,15
 917              		.global	ext_lld_exti_irq_disable
 918              		.code	16
 919              		.thumb_func
 920              		.type	ext_lld_exti_irq_disable, %function
 921              	ext_lld_exti_irq_disable:
 922              	.LFB154:
 923              		.loc 1 239 0
 924              		.cfi_startproc
 925 0000 08B5     		push	{r3, lr}
 926              		.cfi_def_cfa_offset 8
 927              		.cfi_offset 3, -8
 928              		.cfi_offset 14, -4
 929              		.loc 1 241 0
 930 0002 0520     		mov	r0, #5
 931 0004 FFF7FEFF 		bl	nvicDisableVector
 932              		.loc 1 242 0
 933 0008 0620     		mov	r0, #6
 934 000a FFF7FEFF 		bl	nvicDisableVector
 935              		.loc 1 243 0
 936 000e 0720     		mov	r0, #7
 937 0010 FFF7FEFF 		bl	nvicDisableVector
 938              		.loc 1 248 0
 939 0014 0220     		mov	r0, #2
 940 0016 FFF7FEFF 		bl	nvicDisableVector
 941              		.loc 1 249 0
 942              		@ sp needed
 943 001a 08BD     		pop	{r3, pc}
 944              		.cfi_endproc
 945              	.LFE154:
 946              		.size	ext_lld_exti_irq_disable, .-ext_lld_exti_irq_disable
 947 001c C046C046 		.text
 948              	.Letext0:
 949              		.file 2 "/usr/include/newlib/machine/_default_types.h"
 950              		.file 3 "/usr/include/newlib/stdint.h"
 951              		.file 4 "/home/efe/ChibiOS/os/rt/ports/ARMCMx/compilers/GCC/chtypes.h"
 952              		.file 5 "/home/efe/ChibiOS/os/rt/include/chsystypes.h"
 953              		.file 6 "/home/efe/ChibiOS/os/rt/include/chschd.h"
 954              		.file 7 "/home/efe/ChibiOS/os/ext/CMSIS/ST/stm32f030x6.h"
 955              		.file 8 "/home/efe/ChibiOS/os/rt/ports/ARMCMx/chcore.h"
 956              		.file 9 "/home/efe/ChibiOS/os/rt/ports/ARMCMx/chcore_v6m.h"
 957              		.file 10 "/home/efe/ChibiOS/os/rt/include/chsem.h"
 958              		.file 11 "/home/efe/ChibiOS/os/rt/include/chmtx.h"
 959              		.file 12 "/home/efe/ChibiOS/os/hal/include/ext.h"
ARM GAS  /tmp/ccZbts0L.s 			page 42


 960              		.file 13 "/home/efe/ChibiOS/os/hal/ports/STM32/LLD/EXTIv1/ext_lld.h"
 961              		.section	.debug_info,"",%progbits
 962              	.Ldebug_info0:
 963 0000 73080000 		.4byte	0x873
 964 0004 0400     		.2byte	0x4
 965 0006 00000000 		.4byte	.Ldebug_abbrev0
 966 000a 04       		.byte	0x4
 967 000b 01       		.uleb128 0x1
 968 000c 81030000 		.4byte	.LASF143
 969 0010 01       		.byte	0x1
 970 0011 7B040000 		.4byte	.LASF144
 971 0015 00000000 		.4byte	.Ldebug_ranges0+0
 972 0019 00000000 		.4byte	0
 973 001d 00000000 		.4byte	.Ldebug_line0
 974 0021 02       		.uleb128 0x2
 975 0022 04       		.byte	0x4
 976 0023 05       		.byte	0x5
 977 0024 696E7400 		.ascii	"int\000"
 978 0028 03       		.uleb128 0x3
 979 0029 04       		.byte	0x4
 980 002a 07       		.byte	0x7
 981 002b 84000000 		.4byte	.LASF0
 982 002f 03       		.uleb128 0x3
 983 0030 01       		.byte	0x1
 984 0031 06       		.byte	0x6
 985 0032 A3060000 		.4byte	.LASF1
 986 0036 04       		.uleb128 0x4
 987 0037 96050000 		.4byte	.LASF4
 988 003b 02       		.byte	0x2
 989 003c 1D       		.byte	0x1d
 990 003d 41000000 		.4byte	0x41
 991 0041 03       		.uleb128 0x3
 992 0042 01       		.byte	0x1
 993 0043 08       		.byte	0x8
 994 0044 34060000 		.4byte	.LASF2
 995 0048 03       		.uleb128 0x3
 996 0049 02       		.byte	0x2
 997 004a 05       		.byte	0x5
 998 004b D8040000 		.4byte	.LASF3
 999 004f 04       		.uleb128 0x4
 1000 0050 BA010000 		.4byte	.LASF5
 1001 0054 02       		.byte	0x2
 1002 0055 2B       		.byte	0x2b
 1003 0056 5A000000 		.4byte	0x5a
 1004 005a 03       		.uleb128 0x3
 1005 005b 02       		.byte	0x2
 1006 005c 07       		.byte	0x7
 1007 005d AF060000 		.4byte	.LASF6
 1008 0061 04       		.uleb128 0x4
 1009 0062 AB000000 		.4byte	.LASF7
 1010 0066 02       		.byte	0x2
 1011 0067 3F       		.byte	0x3f
 1012 0068 6C000000 		.4byte	0x6c
 1013 006c 03       		.uleb128 0x3
 1014 006d 04       		.byte	0x4
 1015 006e 05       		.byte	0x5
 1016 006f F4040000 		.4byte	.LASF8
ARM GAS  /tmp/ccZbts0L.s 			page 43


 1017 0073 04       		.uleb128 0x4
 1018 0074 42060000 		.4byte	.LASF9
 1019 0078 02       		.byte	0x2
 1020 0079 41       		.byte	0x41
 1021 007a 7E000000 		.4byte	0x7e
 1022 007e 03       		.uleb128 0x3
 1023 007f 04       		.byte	0x4
 1024 0080 07       		.byte	0x7
 1025 0081 CC050000 		.4byte	.LASF10
 1026 0085 03       		.uleb128 0x3
 1027 0086 08       		.byte	0x8
 1028 0087 05       		.byte	0x5
 1029 0088 F9020000 		.4byte	.LASF11
 1030 008c 04       		.uleb128 0x4
 1031 008d 24020000 		.4byte	.LASF12
 1032 0091 02       		.byte	0x2
 1033 0092 5B       		.byte	0x5b
 1034 0093 97000000 		.4byte	0x97
 1035 0097 03       		.uleb128 0x3
 1036 0098 08       		.byte	0x8
 1037 0099 07       		.byte	0x7
 1038 009a 94010000 		.4byte	.LASF13
 1039 009e 04       		.uleb128 0x4
 1040 009f A8020000 		.4byte	.LASF14
 1041 00a3 03       		.byte	0x3
 1042 00a4 2A       		.byte	0x2a
 1043 00a5 36000000 		.4byte	0x36
 1044 00a9 04       		.uleb128 0x4
 1045 00aa 72040000 		.4byte	.LASF15
 1046 00ae 03       		.byte	0x3
 1047 00af 36       		.byte	0x36
 1048 00b0 4F000000 		.4byte	0x4f
 1049 00b4 04       		.uleb128 0x4
 1050 00b5 FD050000 		.4byte	.LASF16
 1051 00b9 03       		.byte	0x3
 1052 00ba 41       		.byte	0x41
 1053 00bb 61000000 		.4byte	0x61
 1054 00bf 04       		.uleb128 0x4
 1055 00c0 4D010000 		.4byte	.LASF17
 1056 00c4 03       		.byte	0x3
 1057 00c5 42       		.byte	0x42
 1058 00c6 73000000 		.4byte	0x73
 1059 00ca 04       		.uleb128 0x4
 1060 00cb 61050000 		.4byte	.LASF18
 1061 00cf 03       		.byte	0x3
 1062 00d0 4E       		.byte	0x4e
 1063 00d1 8C000000 		.4byte	0x8c
 1064 00d5 04       		.uleb128 0x4
 1065 00d6 54040000 		.4byte	.LASF19
 1066 00da 04       		.byte	0x4
 1067 00db 3C       		.byte	0x3c
 1068 00dc 9E000000 		.4byte	0x9e
 1069 00e0 04       		.uleb128 0x4
 1070 00e1 85020000 		.4byte	.LASF20
 1071 00e5 04       		.byte	0x4
 1072 00e6 3D       		.byte	0x3d
 1073 00e7 9E000000 		.4byte	0x9e
ARM GAS  /tmp/ccZbts0L.s 			page 44


 1074 00eb 04       		.uleb128 0x4
 1075 00ec 71010000 		.4byte	.LASF21
 1076 00f0 04       		.byte	0x4
 1077 00f1 40       		.byte	0x40
 1078 00f2 BF000000 		.4byte	0xbf
 1079 00f6 04       		.uleb128 0x4
 1080 00f7 21030000 		.4byte	.LASF22
 1081 00fb 04       		.byte	0x4
 1082 00fc 41       		.byte	0x41
 1083 00fd B4000000 		.4byte	0xb4
 1084 0101 04       		.uleb128 0x4
 1085 0102 C5010000 		.4byte	.LASF23
 1086 0106 04       		.byte	0x4
 1087 0107 45       		.byte	0x45
 1088 0108 B4000000 		.4byte	0xb4
 1089 010c 04       		.uleb128 0x4
 1090 010d 6A000000 		.4byte	.LASF24
 1091 0111 05       		.byte	0x5
 1092 0112 35       		.byte	0x35
 1093 0113 A9000000 		.4byte	0xa9
 1094 0117 04       		.uleb128 0x4
 1095 0118 EA010000 		.4byte	.LASF25
 1096 011c 05       		.byte	0x5
 1097 011d 3F       		.byte	0x3f
 1098 011e 22010000 		.4byte	0x122
 1099 0122 05       		.uleb128 0x5
 1100 0123 D2020000 		.4byte	.LASF40
 1101 0127 30       		.byte	0x30
 1102 0128 06       		.byte	0x6
 1103 0129 C2       		.byte	0xc2
 1104 012a CF010000 		.4byte	0x1cf
 1105 012e 06       		.uleb128 0x6
 1106 012f 5A050000 		.4byte	.LASF26
 1107 0133 06       		.byte	0x6
 1108 0134 C3       		.byte	0xc3
 1109 0135 DA010000 		.4byte	0x1da
 1110 0139 00       		.byte	0
 1111 013a 06       		.uleb128 0x6
 1112 013b B6050000 		.4byte	.LASF27
 1113 013f 06       		.byte	0x6
 1114 0140 C5       		.byte	0xc5
 1115 0141 DA010000 		.4byte	0x1da
 1116 0145 04       		.byte	0x4
 1117 0146 06       		.uleb128 0x6
 1118 0147 4D000000 		.4byte	.LASF28
 1119 014b 06       		.byte	0x6
 1120 014c C7       		.byte	0xc7
 1121 014d EB000000 		.4byte	0xeb
 1122 0151 08       		.byte	0x8
 1123 0152 06       		.uleb128 0x6
 1124 0153 6A050000 		.4byte	.LASF29
 1125 0157 06       		.byte	0x6
 1126 0158 C8       		.byte	0xc8
 1127 0159 FD040000 		.4byte	0x4fd
 1128 015d 0C       		.byte	0xc
 1129 015e 06       		.uleb128 0x6
 1130 015f CB010000 		.4byte	.LASF30
ARM GAS  /tmp/ccZbts0L.s 			page 45


 1131 0163 06       		.byte	0x6
 1132 0164 CA       		.byte	0xca
 1133 0165 DA010000 		.4byte	0x1da
 1134 0169 10       		.byte	0x10
 1135 016a 06       		.uleb128 0x6
 1136 016b 98020000 		.4byte	.LASF31
 1137 016f 06       		.byte	0x6
 1138 0170 CB       		.byte	0xcb
 1139 0171 DA010000 		.4byte	0x1da
 1140 0175 14       		.byte	0x14
 1141 0176 06       		.uleb128 0x6
 1142 0177 2F020000 		.4byte	.LASF32
 1143 017b 06       		.byte	0x6
 1144 017c D2       		.byte	0xd2
 1145 017d 47060000 		.4byte	0x647
 1146 0181 18       		.byte	0x18
 1147 0182 06       		.uleb128 0x6
 1148 0183 A0020000 		.4byte	.LASF33
 1149 0187 06       		.byte	0x6
 1150 0188 DD       		.byte	0xdd
 1151 0189 E0000000 		.4byte	0xe0
 1152 018d 1C       		.byte	0x1c
 1153 018e 06       		.uleb128 0x6
 1154 018f 2F030000 		.4byte	.LASF34
 1155 0193 06       		.byte	0x6
 1156 0194 E1       		.byte	0xe1
 1157 0195 D5000000 		.4byte	0xd5
 1158 0199 1D       		.byte	0x1d
 1159 019a 07       		.uleb128 0x7
 1160 019b 705F7500 		.ascii	"p_u\000"
 1161 019f 06       		.byte	0x6
 1162 01a0 3101     		.2byte	0x131
 1163 01a2 8E050000 		.4byte	0x58e
 1164 01a6 20       		.byte	0x20
 1165 01a7 08       		.uleb128 0x8
 1166 01a8 20000000 		.4byte	.LASF35
 1167 01ac 06       		.byte	0x6
 1168 01ad 3601     		.2byte	0x136
 1169 01af E0010000 		.4byte	0x1e0
 1170 01b3 24       		.byte	0x24
 1171 01b4 08       		.uleb128 0x8
 1172 01b5 C8020000 		.4byte	.LASF36
 1173 01b9 06       		.byte	0x6
 1174 01ba 4D01     		.2byte	0x14d
 1175 01bc 41060000 		.4byte	0x641
 1176 01c0 28       		.byte	0x28
 1177 01c1 08       		.uleb128 0x8
 1178 01c2 CD040000 		.4byte	.LASF37
 1179 01c6 06       		.byte	0x6
 1180 01c7 5101     		.2byte	0x151
 1181 01c9 EB000000 		.4byte	0xeb
 1182 01cd 2C       		.byte	0x2c
 1183 01ce 00       		.byte	0
 1184 01cf 04       		.uleb128 0x4
 1185 01d0 49020000 		.4byte	.LASF38
 1186 01d4 05       		.byte	0x5
 1187 01d5 44       		.byte	0x44
ARM GAS  /tmp/ccZbts0L.s 			page 46


 1188 01d6 DA010000 		.4byte	0x1da
 1189 01da 09       		.uleb128 0x9
 1190 01db 04       		.byte	0x4
 1191 01dc 17010000 		.4byte	0x117
 1192 01e0 04       		.uleb128 0x4
 1193 01e1 91000000 		.4byte	.LASF39
 1194 01e5 05       		.byte	0x5
 1195 01e6 49       		.byte	0x49
 1196 01e7 EB010000 		.4byte	0x1eb
 1197 01eb 05       		.uleb128 0x5
 1198 01ec 00000000 		.4byte	.LASF41
 1199 01f0 04       		.byte	0x4
 1200 01f1 06       		.byte	0x6
 1201 01f2 B0       		.byte	0xb0
 1202 01f3 04020000 		.4byte	0x204
 1203 01f7 06       		.uleb128 0x6
 1204 01f8 5A050000 		.4byte	.LASF26
 1205 01fc 06       		.byte	0x6
 1206 01fd B1       		.byte	0xb1
 1207 01fe DA010000 		.4byte	0x1da
 1208 0202 00       		.byte	0
 1209 0203 00       		.byte	0
 1210 0204 04       		.uleb128 0x4
 1211 0205 10000000 		.4byte	.LASF42
 1212 0209 05       		.byte	0x5
 1213 020a 50       		.byte	0x50
 1214 020b 0F020000 		.4byte	0x20f
 1215 020f 05       		.uleb128 0x5
 1216 0210 07010000 		.4byte	.LASF43
 1217 0214 08       		.byte	0x8
 1218 0215 06       		.byte	0x6
 1219 0216 B7       		.byte	0xb7
 1220 0217 34020000 		.4byte	0x234
 1221 021b 06       		.uleb128 0x6
 1222 021c 5A050000 		.4byte	.LASF26
 1223 0220 06       		.byte	0x6
 1224 0221 B8       		.byte	0xb8
 1225 0222 DA010000 		.4byte	0x1da
 1226 0226 00       		.byte	0
 1227 0227 06       		.uleb128 0x6
 1228 0228 B6050000 		.4byte	.LASF27
 1229 022c 06       		.byte	0x6
 1230 022d B9       		.byte	0xb9
 1231 022e DA010000 		.4byte	0x1da
 1232 0232 04       		.byte	0x4
 1233 0233 00       		.byte	0
 1234 0234 04       		.uleb128 0x4
 1235 0235 EB050000 		.4byte	.LASF44
 1236 0239 05       		.byte	0x5
 1237 023a 57       		.byte	0x57
 1238 023b 3F020000 		.4byte	0x23f
 1239 023f 0A       		.uleb128 0xa
 1240 0240 DB000000 		.4byte	.LASF45
 1241 0244 1C       		.byte	0x1c
 1242 0245 06       		.byte	0x6
 1243 0246 9001     		.2byte	0x190
 1244 0248 9B020000 		.4byte	0x29b
ARM GAS  /tmp/ccZbts0L.s 			page 47


 1245 024c 08       		.uleb128 0x8
 1246 024d 11030000 		.4byte	.LASF46
 1247 0251 06       		.byte	0x6
 1248 0252 9101     		.2byte	0x191
 1249 0254 04020000 		.4byte	0x204
 1250 0258 00       		.byte	0
 1251 0259 08       		.uleb128 0x8
 1252 025a 56010000 		.4byte	.LASF47
 1253 025e 06       		.byte	0x6
 1254 025f 9201     		.2byte	0x192
 1255 0261 EB000000 		.4byte	0xeb
 1256 0265 08       		.byte	0x8
 1257 0266 08       		.uleb128 0x8
 1258 0267 C2060000 		.4byte	.LASF48
 1259 026b 06       		.byte	0x6
 1260 026c 9401     		.2byte	0x194
 1261 026e FD040000 		.4byte	0x4fd
 1262 0272 0C       		.byte	0xc
 1263 0273 08       		.uleb128 0x8
 1264 0274 19030000 		.4byte	.LASF49
 1265 0278 06       		.byte	0x6
 1266 0279 9701     		.2byte	0x197
 1267 027b DA010000 		.4byte	0x1da
 1268 027f 10       		.byte	0x10
 1269 0280 08       		.uleb128 0x8
 1270 0281 42040000 		.4byte	.LASF50
 1271 0285 06       		.byte	0x6
 1272 0286 9801     		.2byte	0x198
 1273 0288 DA010000 		.4byte	0x1da
 1274 028c 14       		.byte	0x14
 1275 028d 08       		.uleb128 0x8
 1276 028e E2040000 		.4byte	.LASF51
 1277 0292 06       		.byte	0x6
 1278 0293 9B01     		.2byte	0x19b
 1279 0295 DA010000 		.4byte	0x1da
 1280 0299 18       		.byte	0x18
 1281 029a 00       		.byte	0
 1282 029b 04       		.uleb128 0x4
 1283 029c 2E010000 		.4byte	.LASF52
 1284 02a0 05       		.byte	0x5
 1285 02a1 5C       		.byte	0x5c
 1286 02a2 A6020000 		.4byte	0x2a6
 1287 02a6 09       		.uleb128 0x9
 1288 02a7 04       		.byte	0x4
 1289 02a8 AC020000 		.4byte	0x2ac
 1290 02ac 0B       		.uleb128 0xb
 1291 02ad B7020000 		.4byte	0x2b7
 1292 02b1 0C       		.uleb128 0xc
 1293 02b2 B7020000 		.4byte	0x2b7
 1294 02b6 00       		.byte	0
 1295 02b7 0D       		.uleb128 0xd
 1296 02b8 04       		.byte	0x4
 1297 02b9 04       		.uleb128 0x4
 1298 02ba 40030000 		.4byte	.LASF53
 1299 02be 05       		.byte	0x5
 1300 02bf 61       		.byte	0x61
 1301 02c0 C4020000 		.4byte	0x2c4
ARM GAS  /tmp/ccZbts0L.s 			page 48


 1302 02c4 0A       		.uleb128 0xa
 1303 02c5 79010000 		.4byte	.LASF54
 1304 02c9 14       		.byte	0x14
 1305 02ca 06       		.byte	0x6
 1306 02cb 6B01     		.2byte	0x16b
 1307 02cd 13030000 		.4byte	0x313
 1308 02d1 08       		.uleb128 0x8
 1309 02d2 82060000 		.4byte	.LASF55
 1310 02d6 06       		.byte	0x6
 1311 02d7 6C01     		.2byte	0x16c
 1312 02d9 59060000 		.4byte	0x659
 1313 02dd 00       		.byte	0
 1314 02de 08       		.uleb128 0x8
 1315 02df EA060000 		.4byte	.LASF56
 1316 02e3 06       		.byte	0x6
 1317 02e4 6D01     		.2byte	0x16d
 1318 02e6 59060000 		.4byte	0x659
 1319 02ea 04       		.byte	0x4
 1320 02eb 08       		.uleb128 0x8
 1321 02ec 40020000 		.4byte	.LASF57
 1322 02f0 06       		.byte	0x6
 1323 02f1 6E01     		.2byte	0x16e
 1324 02f3 0C010000 		.4byte	0x10c
 1325 02f7 08       		.byte	0x8
 1326 02f8 08       		.uleb128 0x8
 1327 02f9 E2060000 		.4byte	.LASF58
 1328 02fd 06       		.byte	0x6
 1329 02fe 6F01     		.2byte	0x16f
 1330 0300 9B020000 		.4byte	0x29b
 1331 0304 0C       		.byte	0xc
 1332 0305 08       		.uleb128 0x8
 1333 0306 5D010000 		.4byte	.LASF59
 1334 030a 06       		.byte	0x6
 1335 030b 7101     		.2byte	0x171
 1336 030d B7020000 		.4byte	0x2b7
 1337 0311 10       		.byte	0x10
 1338 0312 00       		.byte	0
 1339 0313 04       		.uleb128 0x4
 1340 0314 4D060000 		.4byte	.LASF60
 1341 0318 05       		.byte	0x5
 1342 0319 66       		.byte	0x66
 1343 031a 1E030000 		.4byte	0x31e
 1344 031e 0A       		.uleb128 0xa
 1345 031f D3010000 		.4byte	.LASF61
 1346 0323 0C       		.byte	0xc
 1347 0324 06       		.byte	0x6
 1348 0325 7B01     		.2byte	0x17b
 1349 0327 60030000 		.4byte	0x360
 1350 032b 08       		.uleb128 0x8
 1351 032c 82060000 		.4byte	.LASF55
 1352 0330 06       		.byte	0x6
 1353 0331 7C01     		.2byte	0x17c
 1354 0333 59060000 		.4byte	0x659
 1355 0337 00       		.byte	0
 1356 0338 08       		.uleb128 0x8
 1357 0339 EA060000 		.4byte	.LASF56
 1358 033d 06       		.byte	0x6
ARM GAS  /tmp/ccZbts0L.s 			page 49


 1359 033e 7E01     		.2byte	0x17e
 1360 0340 59060000 		.4byte	0x659
 1361 0344 04       		.byte	0x4
 1362 0345 08       		.uleb128 0x8
 1363 0346 40020000 		.4byte	.LASF57
 1364 034a 06       		.byte	0x6
 1365 034b 8001     		.2byte	0x180
 1366 034d 0C010000 		.4byte	0x10c
 1367 0351 08       		.byte	0x8
 1368 0352 08       		.uleb128 0x8
 1369 0353 5C020000 		.4byte	.LASF62
 1370 0357 06       		.byte	0x6
 1371 0358 8801     		.2byte	0x188
 1372 035a 0C010000 		.4byte	0x10c
 1373 035e 0A       		.byte	0xa
 1374 035f 00       		.byte	0
 1375 0360 04       		.uleb128 0x4
 1376 0361 EA020000 		.4byte	.LASF63
 1377 0365 05       		.byte	0x5
 1378 0366 6B       		.byte	0x6b
 1379 0367 6B030000 		.4byte	0x36b
 1380 036b 0A       		.uleb128 0xa
 1381 036c 3D010000 		.4byte	.LASF64
 1382 0370 04       		.byte	0x4
 1383 0371 06       		.byte	0x6
 1384 0372 A201     		.2byte	0x1a2
 1385 0374 86030000 		.4byte	0x386
 1386 0378 08       		.uleb128 0x8
 1387 0379 4A040000 		.4byte	.LASF65
 1388 037d 06       		.byte	0x6
 1389 037e AA01     		.2byte	0x1aa
 1390 0380 5F060000 		.4byte	0x65f
 1391 0384 00       		.byte	0
 1392 0385 00       		.byte	0
 1393 0386 04       		.uleb128 0x4
 1394 0387 8A060000 		.4byte	.LASF66
 1395 038b 05       		.byte	0x5
 1396 038c 70       		.byte	0x70
 1397 038d 91030000 		.4byte	0x391
 1398 0391 0E       		.uleb128 0xe
 1399 0392 3A050000 		.4byte	.LASF67
 1400 0396 2801     		.2byte	0x128
 1401 0398 06       		.byte	0x6
 1402 0399 C201     		.2byte	0x1c2
 1403 039b E1030000 		.4byte	0x3e1
 1404 039f 08       		.uleb128 0x8
 1405 03a0 70050000 		.4byte	.LASF68
 1406 03a4 06       		.byte	0x6
 1407 03a5 C601     		.2byte	0x1c6
 1408 03a7 34020000 		.4byte	0x234
 1409 03ab 00       		.byte	0
 1410 03ac 08       		.uleb128 0x8
 1411 03ad C7000000 		.4byte	.LASF69
 1412 03b1 06       		.byte	0x6
 1413 03b2 CA01     		.2byte	0x1ca
 1414 03b4 13030000 		.4byte	0x313
 1415 03b8 1C       		.byte	0x1c
ARM GAS  /tmp/ccZbts0L.s 			page 50


 1416 03b9 07       		.uleb128 0x7
 1417 03ba 64626700 		.ascii	"dbg\000"
 1418 03be 06       		.byte	0x6
 1419 03bf CE01     		.2byte	0x1ce
 1420 03c1 60030000 		.4byte	0x360
 1421 03c5 28       		.byte	0x28
 1422 03c6 08       		.uleb128 0x8
 1423 03c7 67040000 		.4byte	.LASF70
 1424 03cb 06       		.byte	0x6
 1425 03cc D201     		.2byte	0x1d2
 1426 03ce 17010000 		.4byte	0x117
 1427 03d2 2C       		.byte	0x2c
 1428 03d3 08       		.uleb128 0x8
 1429 03d4 E9000000 		.4byte	.LASF71
 1430 03d8 06       		.byte	0x6
 1431 03d9 E301     		.2byte	0x1e3
 1432 03db 64060000 		.4byte	0x664
 1433 03df 60       		.byte	0x60
 1434 03e0 00       		.byte	0
 1435 03e1 0F       		.uleb128 0xf
 1436 03e2 01       		.byte	0x1
 1437 03e3 07       		.byte	0x7
 1438 03e4 52       		.byte	0x52
 1439 03e5 80040000 		.4byte	0x480
 1440 03e9 10       		.uleb128 0x10
 1441 03ea 15050000 		.4byte	.LASF72
 1442 03ee 72       		.sleb128 -14
 1443 03ef 10       		.uleb128 0x10
 1444 03f0 D3060000 		.4byte	.LASF73
 1445 03f4 73       		.sleb128 -13
 1446 03f5 10       		.uleb128 0x10
 1447 03f6 61000000 		.4byte	.LASF74
 1448 03fa 7B       		.sleb128 -5
 1449 03fb 10       		.uleb128 0x10
 1450 03fc 22010000 		.4byte	.LASF75
 1451 0400 7E       		.sleb128 -2
 1452 0401 10       		.uleb128 0x10
 1453 0402 A9050000 		.4byte	.LASF76
 1454 0406 7F       		.sleb128 -1
 1455 0407 10       		.uleb128 0x10
 1456 0408 07030000 		.4byte	.LASF77
 1457 040c 00       		.sleb128 0
 1458 040d 10       		.uleb128 0x10
 1459 040e C4040000 		.4byte	.LASF78
 1460 0412 02       		.sleb128 2
 1461 0413 10       		.uleb128 0x10
 1462 0414 B5000000 		.4byte	.LASF79
 1463 0418 03       		.sleb128 3
 1464 0419 10       		.uleb128 0x10
 1465 041a 51050000 		.4byte	.LASF80
 1466 041e 04       		.sleb128 4
 1467 041f 10       		.uleb128 0x10
 1468 0420 CE000000 		.4byte	.LASF81
 1469 0424 05       		.sleb128 5
 1470 0425 10       		.uleb128 0x10
 1471 0426 54000000 		.4byte	.LASF82
 1472 042a 06       		.sleb128 6
ARM GAS  /tmp/ccZbts0L.s 			page 51


 1473 042b 10       		.uleb128 0x10
 1474 042c 31000000 		.4byte	.LASF83
 1475 0430 07       		.sleb128 7
 1476 0431 10       		.uleb128 0x10
 1477 0432 72020000 		.4byte	.LASF84
 1478 0436 09       		.sleb128 9
 1479 0437 10       		.uleb128 0x10
 1480 0438 17060000 		.4byte	.LASF85
 1481 043c 0A       		.sleb128 10
 1482 043d 10       		.uleb128 0x10
 1483 043e 81050000 		.4byte	.LASF86
 1484 0442 0B       		.sleb128 11
 1485 0443 10       		.uleb128 0x10
 1486 0444 36020000 		.4byte	.LASF87
 1487 0448 0C       		.sleb128 12
 1488 0449 10       		.uleb128 0x10
 1489 044a 5D030000 		.4byte	.LASF88
 1490 044e 0D       		.sleb128 13
 1491 044f 10       		.uleb128 0x10
 1492 0450 44050000 		.4byte	.LASF89
 1493 0454 0E       		.sleb128 14
 1494 0455 10       		.uleb128 0x10
 1495 0456 68020000 		.4byte	.LASF90
 1496 045a 10       		.sleb128 16
 1497 045b 10       		.uleb128 0x10
 1498 045c 0C060000 		.4byte	.LASF91
 1499 0460 13       		.sleb128 19
 1500 0461 10       		.uleb128 0x10
 1501 0462 A0000000 		.4byte	.LASF92
 1502 0466 15       		.sleb128 21
 1503 0467 10       		.uleb128 0x10
 1504 0468 76050000 		.4byte	.LASF93
 1505 046c 16       		.sleb128 22
 1506 046d 10       		.uleb128 0x10
 1507 046e 18010000 		.4byte	.LASF94
 1508 0472 17       		.sleb128 23
 1509 0473 10       		.uleb128 0x10
 1510 0474 8A010000 		.4byte	.LASF95
 1511 0478 19       		.sleb128 25
 1512 0479 10       		.uleb128 0x10
 1513 047a FD040000 		.4byte	.LASF96
 1514 047e 1B       		.sleb128 27
 1515 047f 00       		.byte	0
 1516 0480 03       		.uleb128 0x3
 1517 0481 04       		.byte	0x4
 1518 0482 07       		.byte	0x7
 1519 0483 C3050000 		.4byte	.LASF97
 1520 0487 11       		.uleb128 0x11
 1521 0488 BF000000 		.4byte	0xbf
 1522 048c 12       		.uleb128 0x12
 1523 048d 18       		.byte	0x18
 1524 048e 07       		.byte	0x7
 1525 048f C9       		.byte	0xc9
 1526 0490 DC040000 		.4byte	0x4dc
 1527 0494 13       		.uleb128 0x13
 1528 0495 494D5200 		.ascii	"IMR\000"
 1529 0499 07       		.byte	0x7
ARM GAS  /tmp/ccZbts0L.s 			page 52


 1530 049a CB       		.byte	0xcb
 1531 049b 87040000 		.4byte	0x487
 1532 049f 00       		.byte	0
 1533 04a0 13       		.uleb128 0x13
 1534 04a1 454D5200 		.ascii	"EMR\000"
 1535 04a5 07       		.byte	0x7
 1536 04a6 CC       		.byte	0xcc
 1537 04a7 87040000 		.4byte	0x487
 1538 04ab 04       		.byte	0x4
 1539 04ac 06       		.uleb128 0x6
 1540 04ad B8040000 		.4byte	.LASF98
 1541 04b1 07       		.byte	0x7
 1542 04b2 CD       		.byte	0xcd
 1543 04b3 87040000 		.4byte	0x487
 1544 04b7 08       		.byte	0x8
 1545 04b8 06       		.uleb128 0x6
 1546 04b9 F8050000 		.4byte	.LASF99
 1547 04bd 07       		.byte	0x7
 1548 04be CE       		.byte	0xce
 1549 04bf 87040000 		.4byte	0x487
 1550 04c3 0C       		.byte	0xc
 1551 04c4 06       		.uleb128 0x6
 1552 04c5 BD050000 		.4byte	.LASF100
 1553 04c9 07       		.byte	0x7
 1554 04ca CF       		.byte	0xcf
 1555 04cb 87040000 		.4byte	0x487
 1556 04cf 10       		.byte	0x10
 1557 04d0 13       		.uleb128 0x13
 1558 04d1 505200   		.ascii	"PR\000"
 1559 04d4 07       		.byte	0x7
 1560 04d5 D0       		.byte	0xd0
 1561 04d6 87040000 		.4byte	0x487
 1562 04da 14       		.byte	0x14
 1563 04db 00       		.byte	0
 1564 04dc 04       		.uleb128 0x4
 1565 04dd 50030000 		.4byte	.LASF101
 1566 04e1 07       		.byte	0x7
 1567 04e2 D1       		.byte	0xd1
 1568 04e3 8C040000 		.4byte	0x48c
 1569 04e7 04       		.uleb128 0x4
 1570 04e8 44000000 		.4byte	.LASF102
 1571 04ec 08       		.byte	0x8
 1572 04ed 65       		.byte	0x65
 1573 04ee B7020000 		.4byte	0x2b7
 1574 04f2 04       		.uleb128 0x4
 1575 04f3 C8060000 		.4byte	.LASF103
 1576 04f7 08       		.byte	0x8
 1577 04f8 6D       		.byte	0x6d
 1578 04f9 CA000000 		.4byte	0xca
 1579 04fd 05       		.uleb128 0x5
 1580 04fe 27030000 		.4byte	.LASF104
 1581 0502 04       		.byte	0x4
 1582 0503 08       		.byte	0x8
 1583 0504 89       		.byte	0x89
 1584 0505 16050000 		.4byte	0x516
 1585 0509 13       		.uleb128 0x13
 1586 050a 72313300 		.ascii	"r13\000"
ARM GAS  /tmp/ccZbts0L.s 			page 53


 1587 050e 08       		.byte	0x8
 1588 050f 8A       		.byte	0x8a
 1589 0510 88050000 		.4byte	0x588
 1590 0514 00       		.byte	0
 1591 0515 00       		.byte	0
 1592 0516 05       		.uleb128 0x5
 1593 0517 09050000 		.4byte	.LASF105
 1594 051b 24       		.byte	0x24
 1595 051c 09       		.byte	0x9
 1596 051d A4       		.byte	0xa4
 1597 051e 88050000 		.4byte	0x588
 1598 0522 13       		.uleb128 0x13
 1599 0523 723800   		.ascii	"r8\000"
 1600 0526 09       		.byte	0x9
 1601 0527 A5       		.byte	0xa5
 1602 0528 E7040000 		.4byte	0x4e7
 1603 052c 00       		.byte	0
 1604 052d 13       		.uleb128 0x13
 1605 052e 723900   		.ascii	"r9\000"
 1606 0531 09       		.byte	0x9
 1607 0532 A6       		.byte	0xa6
 1608 0533 E7040000 		.4byte	0x4e7
 1609 0537 04       		.byte	0x4
 1610 0538 13       		.uleb128 0x13
 1611 0539 72313000 		.ascii	"r10\000"
 1612 053d 09       		.byte	0x9
 1613 053e A7       		.byte	0xa7
 1614 053f E7040000 		.4byte	0x4e7
 1615 0543 08       		.byte	0x8
 1616 0544 13       		.uleb128 0x13
 1617 0545 72313100 		.ascii	"r11\000"
 1618 0549 09       		.byte	0x9
 1619 054a A8       		.byte	0xa8
 1620 054b E7040000 		.4byte	0x4e7
 1621 054f 0C       		.byte	0xc
 1622 0550 13       		.uleb128 0x13
 1623 0551 723400   		.ascii	"r4\000"
 1624 0554 09       		.byte	0x9
 1625 0555 A9       		.byte	0xa9
 1626 0556 E7040000 		.4byte	0x4e7
 1627 055a 10       		.byte	0x10
 1628 055b 13       		.uleb128 0x13
 1629 055c 723500   		.ascii	"r5\000"
 1630 055f 09       		.byte	0x9
 1631 0560 AA       		.byte	0xaa
 1632 0561 E7040000 		.4byte	0x4e7
 1633 0565 14       		.byte	0x14
 1634 0566 13       		.uleb128 0x13
 1635 0567 723600   		.ascii	"r6\000"
 1636 056a 09       		.byte	0x9
 1637 056b AB       		.byte	0xab
 1638 056c E7040000 		.4byte	0x4e7
 1639 0570 18       		.byte	0x18
 1640 0571 13       		.uleb128 0x13
 1641 0572 723700   		.ascii	"r7\000"
 1642 0575 09       		.byte	0x9
 1643 0576 AC       		.byte	0xac
ARM GAS  /tmp/ccZbts0L.s 			page 54


 1644 0577 E7040000 		.4byte	0x4e7
 1645 057b 1C       		.byte	0x1c
 1646 057c 13       		.uleb128 0x13
 1647 057d 6C7200   		.ascii	"lr\000"
 1648 0580 09       		.byte	0x9
 1649 0581 AD       		.byte	0xad
 1650 0582 E7040000 		.4byte	0x4e7
 1651 0586 20       		.byte	0x20
 1652 0587 00       		.byte	0
 1653 0588 09       		.uleb128 0x9
 1654 0589 04       		.byte	0x4
 1655 058a 16050000 		.4byte	0x516
 1656 058e 14       		.uleb128 0x14
 1657 058f 04       		.byte	0x4
 1658 0590 06       		.byte	0x6
 1659 0591 FA       		.byte	0xfa
 1660 0592 DF050000 		.4byte	0x5df
 1661 0596 15       		.uleb128 0x15
 1662 0597 05020000 		.4byte	.LASF106
 1663 059b 06       		.byte	0x6
 1664 059c 0101     		.2byte	0x101
 1665 059e F6000000 		.4byte	0xf6
 1666 05a2 15       		.uleb128 0x15
 1667 05a3 FC060000 		.4byte	.LASF107
 1668 05a7 06       		.byte	0x6
 1669 05a8 0801     		.2byte	0x108
 1670 05aa F6000000 		.4byte	0xf6
 1671 05ae 15       		.uleb128 0x15
 1672 05af C0000000 		.4byte	.LASF108
 1673 05b3 06       		.byte	0x6
 1674 05b4 0F01     		.2byte	0x10f
 1675 05b6 B7020000 		.4byte	0x2b7
 1676 05ba 15       		.uleb128 0x15
 1677 05bb 96060000 		.4byte	.LASF109
 1678 05bf 06       		.byte	0x6
 1679 05c0 1601     		.2byte	0x116
 1680 05c2 DF050000 		.4byte	0x5df
 1681 05c6 15       		.uleb128 0x15
 1682 05c7 05060000 		.4byte	.LASF110
 1683 05cb 06       		.byte	0x6
 1684 05cc 1E01     		.2byte	0x11e
 1685 05ce 0A060000 		.4byte	0x60a
 1686 05d2 15       		.uleb128 0x15
 1687 05d3 2A000000 		.4byte	.LASF111
 1688 05d7 06       		.byte	0x6
 1689 05d8 2701     		.2byte	0x127
 1690 05da 41060000 		.4byte	0x641
 1691 05de 00       		.byte	0
 1692 05df 09       		.uleb128 0x9
 1693 05e0 04       		.byte	0x4
 1694 05e1 CF010000 		.4byte	0x1cf
 1695 05e5 05       		.uleb128 0x5
 1696 05e6 64010000 		.4byte	.LASF112
 1697 05ea 0C       		.byte	0xc
 1698 05eb 0A       		.byte	0xa
 1699 05ec 34       		.byte	0x34
 1700 05ed 0A060000 		.4byte	0x60a
ARM GAS  /tmp/ccZbts0L.s 			page 55


 1701 05f1 06       		.uleb128 0x6
 1702 05f2 7C000000 		.4byte	.LASF113
 1703 05f6 0A       		.byte	0xa
 1704 05f7 35       		.byte	0x35
 1705 05f8 04020000 		.4byte	0x204
 1706 05fc 00       		.byte	0
 1707 05fd 06       		.uleb128 0x6
 1708 05fe 37010000 		.4byte	.LASF114
 1709 0602 0A       		.byte	0xa
 1710 0603 37       		.byte	0x37
 1711 0604 01010000 		.4byte	0x101
 1712 0608 08       		.byte	0x8
 1713 0609 00       		.byte	0
 1714 060a 09       		.uleb128 0x9
 1715 060b 04       		.byte	0x4
 1716 060c E5050000 		.4byte	0x5e5
 1717 0610 05       		.uleb128 0x5
 1718 0611 1B020000 		.4byte	.LASF115
 1719 0615 10       		.byte	0x10
 1720 0616 0B       		.byte	0xb
 1721 0617 39       		.byte	0x39
 1722 0618 41060000 		.4byte	0x641
 1723 061c 06       		.uleb128 0x6
 1724 061d EC040000 		.4byte	.LASF116
 1725 0621 0B       		.byte	0xb
 1726 0622 3A       		.byte	0x3a
 1727 0623 04020000 		.4byte	0x204
 1728 0627 00       		.byte	0
 1729 0628 06       		.uleb128 0x6
 1730 0629 74000000 		.4byte	.LASF117
 1731 062d 0B       		.byte	0xb
 1732 062e 3C       		.byte	0x3c
 1733 062f DA010000 		.4byte	0x1da
 1734 0633 08       		.byte	0x8
 1735 0634 06       		.uleb128 0x6
 1736 0635 9C060000 		.4byte	.LASF118
 1737 0639 0B       		.byte	0xb
 1738 063a 3E       		.byte	0x3e
 1739 063b 7F060000 		.4byte	0x67f
 1740 063f 0C       		.byte	0xc
 1741 0640 00       		.byte	0
 1742 0641 09       		.uleb128 0x9
 1743 0642 04       		.byte	0x4
 1744 0643 10060000 		.4byte	0x610
 1745 0647 09       		.uleb128 0x9
 1746 0648 04       		.byte	0x4
 1747 0649 4D060000 		.4byte	0x64d
 1748 064d 16       		.uleb128 0x16
 1749 064e 52060000 		.4byte	0x652
 1750 0652 03       		.uleb128 0x3
 1751 0653 01       		.byte	0x1
 1752 0654 08       		.byte	0x8
 1753 0655 3F000000 		.4byte	.LASF119
 1754 0659 09       		.uleb128 0x9
 1755 065a 04       		.byte	0x4
 1756 065b B9020000 		.4byte	0x2b9
 1757 065f 11       		.uleb128 0x11
ARM GAS  /tmp/ccZbts0L.s 			page 56


 1758 0660 47060000 		.4byte	0x647
 1759 0664 17       		.uleb128 0x17
 1760 0665 F2040000 		.4byte	0x4f2
 1761 0669 74060000 		.4byte	0x674
 1762 066d 18       		.uleb128 0x18
 1763 066e 80040000 		.4byte	0x480
 1764 0672 18       		.byte	0x18
 1765 0673 00       		.byte	0
 1766 0674 04       		.uleb128 0x4
 1767 0675 2C060000 		.4byte	.LASF120
 1768 0679 0B       		.byte	0xb
 1769 067a 34       		.byte	0x34
 1770 067b 10060000 		.4byte	0x610
 1771 067f 09       		.uleb128 0x9
 1772 0680 04       		.byte	0x4
 1773 0681 74060000 		.4byte	0x674
 1774 0685 03       		.uleb128 0x3
 1775 0686 01       		.byte	0x1
 1776 0687 02       		.byte	0x2
 1777 0688 15020000 		.4byte	.LASF121
 1778 068c 0F       		.uleb128 0xf
 1779 068d 01       		.byte	0x1
 1780 068e 0C       		.byte	0xc
 1781 068f 3F       		.byte	0x3f
 1782 0690 A7060000 		.4byte	0x6a7
 1783 0694 10       		.uleb128 0x10
 1784 0695 76030000 		.4byte	.LASF122
 1785 0699 00       		.sleb128 0
 1786 069a 10       		.uleb128 0x10
 1787 069b A0050000 		.4byte	.LASF123
 1788 069f 01       		.sleb128 1
 1789 06a0 10       		.uleb128 0x10
 1790 06a1 37040000 		.4byte	.LASF124
 1791 06a5 02       		.sleb128 2
 1792 06a6 00       		.byte	0
 1793 06a7 04       		.uleb128 0x4
 1794 06a8 5C040000 		.4byte	.LASF125
 1795 06ac 0C       		.byte	0xc
 1796 06ad 43       		.byte	0x43
 1797 06ae 8C060000 		.4byte	0x68c
 1798 06b2 04       		.uleb128 0x4
 1799 06b3 FD000000 		.4byte	.LASF126
 1800 06b7 0C       		.byte	0xc
 1801 06b8 48       		.byte	0x48
 1802 06b9 BD060000 		.4byte	0x6bd
 1803 06bd 05       		.uleb128 0x5
 1804 06be FD000000 		.4byte	.LASF126
 1805 06c2 08       		.byte	0x8
 1806 06c3 0D       		.byte	0xd
 1807 06c4 73       		.byte	0x73
 1808 06c5 E2060000 		.4byte	0x6e2
 1809 06c9 06       		.uleb128 0x6
 1810 06ca 7C060000 		.4byte	.LASF127
 1811 06ce 0D       		.byte	0xd
 1812 06cf 77       		.byte	0x77
 1813 06d0 A7060000 		.4byte	0x6a7
 1814 06d4 00       		.byte	0
ARM GAS  /tmp/ccZbts0L.s 			page 57


 1815 06d5 06       		.uleb128 0x6
 1816 06d6 BD040000 		.4byte	.LASF128
 1817 06da 0D       		.byte	0xd
 1818 06db 7B       		.byte	0x7b
 1819 06dc 6F070000 		.4byte	0x76f
 1820 06e0 04       		.byte	0x4
 1821 06e1 00       		.byte	0
 1822 06e2 04       		.uleb128 0x4
 1823 06e3 DE050000 		.4byte	.LASF129
 1824 06e7 0D       		.byte	0xd
 1825 06e8 49       		.byte	0x49
 1826 06e9 BF000000 		.4byte	0xbf
 1827 06ed 04       		.uleb128 0x4
 1828 06ee DC020000 		.4byte	.LASF130
 1829 06f2 0D       		.byte	0xd
 1830 06f3 51       		.byte	0x51
 1831 06f4 F8060000 		.4byte	0x6f8
 1832 06f8 09       		.uleb128 0x9
 1833 06f9 04       		.byte	0x4
 1834 06fa FE060000 		.4byte	0x6fe
 1835 06fe 0B       		.uleb128 0xb
 1836 06ff 0E070000 		.4byte	0x70e
 1837 0703 0C       		.uleb128 0xc
 1838 0704 0E070000 		.4byte	0x70e
 1839 0708 0C       		.uleb128 0xc
 1840 0709 E2060000 		.4byte	0x6e2
 1841 070d 00       		.byte	0
 1842 070e 09       		.uleb128 0x9
 1843 070f 04       		.byte	0x4
 1844 0710 B2060000 		.4byte	0x6b2
 1845 0714 12       		.uleb128 0x12
 1846 0715 08       		.byte	0x8
 1847 0716 0D       		.byte	0xd
 1848 0717 56       		.byte	0x56
 1849 0718 34070000 		.4byte	0x734
 1850 071c 06       		.uleb128 0x6
 1851 071d F8000000 		.4byte	.LASF131
 1852 0721 0D       		.byte	0xd
 1853 0722 5A       		.byte	0x5a
 1854 0723 BF000000 		.4byte	0xbf
 1855 0727 00       		.byte	0
 1856 0728 13       		.uleb128 0x13
 1857 0729 636200   		.ascii	"cb\000"
 1858 072c 0D       		.byte	0xd
 1859 072d 61       		.byte	0x61
 1860 072e ED060000 		.4byte	0x6ed
 1861 0732 04       		.byte	0x4
 1862 0733 00       		.byte	0
 1863 0734 04       		.uleb128 0x4
 1864 0735 29050000 		.4byte	.LASF132
 1865 0739 0D       		.byte	0xd
 1866 073a 62       		.byte	0x62
 1867 073b 14070000 		.4byte	0x714
 1868 073f 12       		.uleb128 0x12
 1869 0740 A0       		.byte	0xa0
 1870 0741 0D       		.byte	0xd
 1871 0742 68       		.byte	0x68
ARM GAS  /tmp/ccZbts0L.s 			page 58


 1872 0743 54070000 		.4byte	0x754
 1873 0747 06       		.uleb128 0x6
 1874 0748 37030000 		.4byte	.LASF133
 1875 074c 0D       		.byte	0xd
 1876 074d 6C       		.byte	0x6c
 1877 074e 54070000 		.4byte	0x754
 1878 0752 00       		.byte	0
 1879 0753 00       		.byte	0
 1880 0754 17       		.uleb128 0x17
 1881 0755 34070000 		.4byte	0x734
 1882 0759 64070000 		.4byte	0x764
 1883 075d 18       		.uleb128 0x18
 1884 075e 80040000 		.4byte	0x480
 1885 0762 13       		.byte	0x13
 1886 0763 00       		.byte	0
 1887 0764 04       		.uleb128 0x4
 1888 0765 8E020000 		.4byte	.LASF134
 1889 0769 0D       		.byte	0xd
 1890 076a 6E       		.byte	0x6e
 1891 076b 3F070000 		.4byte	0x73f
 1892 076f 09       		.uleb128 0x9
 1893 0770 04       		.byte	0x4
 1894 0771 75070000 		.4byte	0x775
 1895 0775 16       		.uleb128 0x16
 1896 0776 64070000 		.4byte	0x764
 1897 077a 19       		.uleb128 0x19
 1898 077b F3010000 		.4byte	.LASF136
 1899 077f 01       		.byte	0x1
 1900 0780 38       		.byte	0x38
 1901 0781 00000000 		.4byte	.LFB149
 1902 0785 58000000 		.4byte	.LFE149-.LFB149
 1903 0789 01       		.uleb128 0x1
 1904 078a 9C       		.byte	0x9c
 1905 078b AB070000 		.4byte	0x7ab
 1906 078f 1A       		.uleb128 0x1a
 1907 0790 707200   		.ascii	"pr\000"
 1908 0793 01       		.byte	0x1
 1909 0794 39       		.byte	0x39
 1910 0795 BF000000 		.4byte	0xbf
 1911 0799 02       		.uleb128 0x2
 1912 079a 91       		.byte	0x91
 1913 079b 70       		.sleb128 -16
 1914 079c 1B       		.uleb128 0x1b
 1915 079d F2060000 		.4byte	.LASF135
 1916 07a1 01       		.byte	0x1
 1917 07a2 3B       		.byte	0x3b
 1918 07a3 E7040000 		.4byte	0x4e7
 1919 07a7 02       		.uleb128 0x2
 1920 07a8 91       		.byte	0x91
 1921 07a9 74       		.sleb128 -12
 1922 07aa 00       		.byte	0
 1923 07ab 19       		.uleb128 0x19
 1924 07ac FC010000 		.4byte	.LASF137
 1925 07b0 01       		.byte	0x1
 1926 07b1 4C       		.byte	0x4c
 1927 07b2 00000000 		.4byte	.LFB150
 1928 07b6 58000000 		.4byte	.LFE150-.LFB150
ARM GAS  /tmp/ccZbts0L.s 			page 59


 1929 07ba 01       		.uleb128 0x1
 1930 07bb 9C       		.byte	0x9c
 1931 07bc DC070000 		.4byte	0x7dc
 1932 07c0 1A       		.uleb128 0x1a
 1933 07c1 707200   		.ascii	"pr\000"
 1934 07c4 01       		.byte	0x1
 1935 07c5 4D       		.byte	0x4d
 1936 07c6 BF000000 		.4byte	0xbf
 1937 07ca 02       		.uleb128 0x2
 1938 07cb 91       		.byte	0x91
 1939 07cc 70       		.sleb128 -16
 1940 07cd 1B       		.uleb128 0x1b
 1941 07ce F2060000 		.4byte	.LASF135
 1942 07d2 01       		.byte	0x1
 1943 07d3 4F       		.byte	0x4f
 1944 07d4 E7040000 		.4byte	0x4e7
 1945 07d8 02       		.uleb128 0x2
 1946 07d9 91       		.byte	0x91
 1947 07da 74       		.sleb128 -12
 1948 07db 00       		.byte	0
 1949 07dc 19       		.uleb128 0x19
 1950 07dd 0C020000 		.4byte	.LASF138
 1951 07e1 01       		.byte	0x1
 1952 07e2 60       		.byte	0x60
 1953 07e3 00000000 		.4byte	.LFB151
 1954 07e7 48010000 		.4byte	.LFE151-.LFB151
 1955 07eb 01       		.uleb128 0x1
 1956 07ec 9C       		.byte	0x9c
 1957 07ed 0D080000 		.4byte	0x80d
 1958 07f1 1A       		.uleb128 0x1a
 1959 07f2 707200   		.ascii	"pr\000"
 1960 07f5 01       		.byte	0x1
 1961 07f6 61       		.byte	0x61
 1962 07f7 BF000000 		.4byte	0xbf
 1963 07fb 02       		.uleb128 0x2
 1964 07fc 91       		.byte	0x91
 1965 07fd 70       		.sleb128 -16
 1966 07fe 1B       		.uleb128 0x1b
 1967 07ff F2060000 		.4byte	.LASF135
 1968 0803 01       		.byte	0x1
 1969 0804 63       		.byte	0x63
 1970 0805 E7040000 		.4byte	0x4e7
 1971 0809 02       		.uleb128 0x2
 1972 080a 91       		.byte	0x91
 1973 080b 74       		.sleb128 -12
 1974 080c 00       		.byte	0
 1975 080d 19       		.uleb128 0x19
 1976 080e B1010000 		.4byte	.LASF139
 1977 0812 01       		.byte	0x1
 1978 0813 9C       		.byte	0x9c
 1979 0814 00000000 		.4byte	.LFB152
 1980 0818 84000000 		.4byte	.LFE152-.LFB152
 1981 081c 01       		.uleb128 0x1
 1982 081d 9C       		.byte	0x9c
 1983 081e 3E080000 		.4byte	0x83e
 1984 0822 1A       		.uleb128 0x1a
 1985 0823 707200   		.ascii	"pr\000"
ARM GAS  /tmp/ccZbts0L.s 			page 60


 1986 0826 01       		.byte	0x1
 1987 0827 9D       		.byte	0x9d
 1988 0828 BF000000 		.4byte	0xbf
 1989 082c 02       		.uleb128 0x2
 1990 082d 91       		.byte	0x91
 1991 082e 70       		.sleb128 -16
 1992 082f 1B       		.uleb128 0x1b
 1993 0830 F2060000 		.4byte	.LASF135
 1994 0834 01       		.byte	0x1
 1995 0835 9F       		.byte	0x9f
 1996 0836 E7040000 		.4byte	0x4e7
 1997 083a 02       		.uleb128 0x2
 1998 083b 91       		.byte	0x91
 1999 083c 74       		.sleb128 -12
 2000 083d 00       		.byte	0
 2001 083e 1C       		.uleb128 0x1c
 2002 083f B0020000 		.4byte	.LASF140
 2003 0843 01       		.byte	0x1
 2004 0844 DE       		.byte	0xde
 2005 0845 00000000 		.4byte	.LFB153
 2006 0849 24000000 		.4byte	.LFE153-.LFB153
 2007 084d 01       		.uleb128 0x1
 2008 084e 9C       		.byte	0x9c
 2009 084f 1C       		.uleb128 0x1c
 2010 0850 63060000 		.4byte	.LASF141
 2011 0854 01       		.byte	0x1
 2012 0855 EF       		.byte	0xef
 2013 0856 00000000 		.4byte	.LFB154
 2014 085a 1C000000 		.4byte	.LFE154-.LFB154
 2015 085e 01       		.uleb128 0x1
 2016 085f 9C       		.byte	0x9c
 2017 0860 1D       		.uleb128 0x1d
 2018 0861 636800   		.ascii	"ch\000"
 2019 0864 06       		.byte	0x6
 2020 0865 0902     		.2byte	0x209
 2021 0867 86030000 		.4byte	0x386
 2022 086b 1E       		.uleb128 0x1e
 2023 086c AB010000 		.4byte	.LASF142
 2024 0870 0D       		.byte	0xd
 2025 0871 88       		.byte	0x88
 2026 0872 B2060000 		.4byte	0x6b2
 2027 0876 00       		.byte	0
 2028              		.section	.debug_abbrev,"",%progbits
 2029              	.Ldebug_abbrev0:
 2030 0000 01       		.uleb128 0x1
 2031 0001 11       		.uleb128 0x11
 2032 0002 01       		.byte	0x1
 2033 0003 25       		.uleb128 0x25
 2034 0004 0E       		.uleb128 0xe
 2035 0005 13       		.uleb128 0x13
 2036 0006 0B       		.uleb128 0xb
 2037 0007 03       		.uleb128 0x3
 2038 0008 0E       		.uleb128 0xe
 2039 0009 55       		.uleb128 0x55
 2040 000a 17       		.uleb128 0x17
 2041 000b 11       		.uleb128 0x11
 2042 000c 01       		.uleb128 0x1
ARM GAS  /tmp/ccZbts0L.s 			page 61


 2043 000d 10       		.uleb128 0x10
 2044 000e 17       		.uleb128 0x17
 2045 000f 00       		.byte	0
 2046 0010 00       		.byte	0
 2047 0011 02       		.uleb128 0x2
 2048 0012 24       		.uleb128 0x24
 2049 0013 00       		.byte	0
 2050 0014 0B       		.uleb128 0xb
 2051 0015 0B       		.uleb128 0xb
 2052 0016 3E       		.uleb128 0x3e
 2053 0017 0B       		.uleb128 0xb
 2054 0018 03       		.uleb128 0x3
 2055 0019 08       		.uleb128 0x8
 2056 001a 00       		.byte	0
 2057 001b 00       		.byte	0
 2058 001c 03       		.uleb128 0x3
 2059 001d 24       		.uleb128 0x24
 2060 001e 00       		.byte	0
 2061 001f 0B       		.uleb128 0xb
 2062 0020 0B       		.uleb128 0xb
 2063 0021 3E       		.uleb128 0x3e
 2064 0022 0B       		.uleb128 0xb
 2065 0023 03       		.uleb128 0x3
 2066 0024 0E       		.uleb128 0xe
 2067 0025 00       		.byte	0
 2068 0026 00       		.byte	0
 2069 0027 04       		.uleb128 0x4
 2070 0028 16       		.uleb128 0x16
 2071 0029 00       		.byte	0
 2072 002a 03       		.uleb128 0x3
 2073 002b 0E       		.uleb128 0xe
 2074 002c 3A       		.uleb128 0x3a
 2075 002d 0B       		.uleb128 0xb
 2076 002e 3B       		.uleb128 0x3b
 2077 002f 0B       		.uleb128 0xb
 2078 0030 49       		.uleb128 0x49
 2079 0031 13       		.uleb128 0x13
 2080 0032 00       		.byte	0
 2081 0033 00       		.byte	0
 2082 0034 05       		.uleb128 0x5
 2083 0035 13       		.uleb128 0x13
 2084 0036 01       		.byte	0x1
 2085 0037 03       		.uleb128 0x3
 2086 0038 0E       		.uleb128 0xe
 2087 0039 0B       		.uleb128 0xb
 2088 003a 0B       		.uleb128 0xb
 2089 003b 3A       		.uleb128 0x3a
 2090 003c 0B       		.uleb128 0xb
 2091 003d 3B       		.uleb128 0x3b
 2092 003e 0B       		.uleb128 0xb
 2093 003f 01       		.uleb128 0x1
 2094 0040 13       		.uleb128 0x13
 2095 0041 00       		.byte	0
 2096 0042 00       		.byte	0
 2097 0043 06       		.uleb128 0x6
 2098 0044 0D       		.uleb128 0xd
 2099 0045 00       		.byte	0
ARM GAS  /tmp/ccZbts0L.s 			page 62


 2100 0046 03       		.uleb128 0x3
 2101 0047 0E       		.uleb128 0xe
 2102 0048 3A       		.uleb128 0x3a
 2103 0049 0B       		.uleb128 0xb
 2104 004a 3B       		.uleb128 0x3b
 2105 004b 0B       		.uleb128 0xb
 2106 004c 49       		.uleb128 0x49
 2107 004d 13       		.uleb128 0x13
 2108 004e 38       		.uleb128 0x38
 2109 004f 0B       		.uleb128 0xb
 2110 0050 00       		.byte	0
 2111 0051 00       		.byte	0
 2112 0052 07       		.uleb128 0x7
 2113 0053 0D       		.uleb128 0xd
 2114 0054 00       		.byte	0
 2115 0055 03       		.uleb128 0x3
 2116 0056 08       		.uleb128 0x8
 2117 0057 3A       		.uleb128 0x3a
 2118 0058 0B       		.uleb128 0xb
 2119 0059 3B       		.uleb128 0x3b
 2120 005a 05       		.uleb128 0x5
 2121 005b 49       		.uleb128 0x49
 2122 005c 13       		.uleb128 0x13
 2123 005d 38       		.uleb128 0x38
 2124 005e 0B       		.uleb128 0xb
 2125 005f 00       		.byte	0
 2126 0060 00       		.byte	0
 2127 0061 08       		.uleb128 0x8
 2128 0062 0D       		.uleb128 0xd
 2129 0063 00       		.byte	0
 2130 0064 03       		.uleb128 0x3
 2131 0065 0E       		.uleb128 0xe
 2132 0066 3A       		.uleb128 0x3a
 2133 0067 0B       		.uleb128 0xb
 2134 0068 3B       		.uleb128 0x3b
 2135 0069 05       		.uleb128 0x5
 2136 006a 49       		.uleb128 0x49
 2137 006b 13       		.uleb128 0x13
 2138 006c 38       		.uleb128 0x38
 2139 006d 0B       		.uleb128 0xb
 2140 006e 00       		.byte	0
 2141 006f 00       		.byte	0
 2142 0070 09       		.uleb128 0x9
 2143 0071 0F       		.uleb128 0xf
 2144 0072 00       		.byte	0
 2145 0073 0B       		.uleb128 0xb
 2146 0074 0B       		.uleb128 0xb
 2147 0075 49       		.uleb128 0x49
 2148 0076 13       		.uleb128 0x13
 2149 0077 00       		.byte	0
 2150 0078 00       		.byte	0
 2151 0079 0A       		.uleb128 0xa
 2152 007a 13       		.uleb128 0x13
 2153 007b 01       		.byte	0x1
 2154 007c 03       		.uleb128 0x3
 2155 007d 0E       		.uleb128 0xe
 2156 007e 0B       		.uleb128 0xb
ARM GAS  /tmp/ccZbts0L.s 			page 63


 2157 007f 0B       		.uleb128 0xb
 2158 0080 3A       		.uleb128 0x3a
 2159 0081 0B       		.uleb128 0xb
 2160 0082 3B       		.uleb128 0x3b
 2161 0083 05       		.uleb128 0x5
 2162 0084 01       		.uleb128 0x1
 2163 0085 13       		.uleb128 0x13
 2164 0086 00       		.byte	0
 2165 0087 00       		.byte	0
 2166 0088 0B       		.uleb128 0xb
 2167 0089 15       		.uleb128 0x15
 2168 008a 01       		.byte	0x1
 2169 008b 27       		.uleb128 0x27
 2170 008c 19       		.uleb128 0x19
 2171 008d 01       		.uleb128 0x1
 2172 008e 13       		.uleb128 0x13
 2173 008f 00       		.byte	0
 2174 0090 00       		.byte	0
 2175 0091 0C       		.uleb128 0xc
 2176 0092 05       		.uleb128 0x5
 2177 0093 00       		.byte	0
 2178 0094 49       		.uleb128 0x49
 2179 0095 13       		.uleb128 0x13
 2180 0096 00       		.byte	0
 2181 0097 00       		.byte	0
 2182 0098 0D       		.uleb128 0xd
 2183 0099 0F       		.uleb128 0xf
 2184 009a 00       		.byte	0
 2185 009b 0B       		.uleb128 0xb
 2186 009c 0B       		.uleb128 0xb
 2187 009d 00       		.byte	0
 2188 009e 00       		.byte	0
 2189 009f 0E       		.uleb128 0xe
 2190 00a0 13       		.uleb128 0x13
 2191 00a1 01       		.byte	0x1
 2192 00a2 03       		.uleb128 0x3
 2193 00a3 0E       		.uleb128 0xe
 2194 00a4 0B       		.uleb128 0xb
 2195 00a5 05       		.uleb128 0x5
 2196 00a6 3A       		.uleb128 0x3a
 2197 00a7 0B       		.uleb128 0xb
 2198 00a8 3B       		.uleb128 0x3b
 2199 00a9 05       		.uleb128 0x5
 2200 00aa 01       		.uleb128 0x1
 2201 00ab 13       		.uleb128 0x13
 2202 00ac 00       		.byte	0
 2203 00ad 00       		.byte	0
 2204 00ae 0F       		.uleb128 0xf
 2205 00af 04       		.uleb128 0x4
 2206 00b0 01       		.byte	0x1
 2207 00b1 0B       		.uleb128 0xb
 2208 00b2 0B       		.uleb128 0xb
 2209 00b3 3A       		.uleb128 0x3a
 2210 00b4 0B       		.uleb128 0xb
 2211 00b5 3B       		.uleb128 0x3b
 2212 00b6 0B       		.uleb128 0xb
 2213 00b7 01       		.uleb128 0x1
ARM GAS  /tmp/ccZbts0L.s 			page 64


 2214 00b8 13       		.uleb128 0x13
 2215 00b9 00       		.byte	0
 2216 00ba 00       		.byte	0
 2217 00bb 10       		.uleb128 0x10
 2218 00bc 28       		.uleb128 0x28
 2219 00bd 00       		.byte	0
 2220 00be 03       		.uleb128 0x3
 2221 00bf 0E       		.uleb128 0xe
 2222 00c0 1C       		.uleb128 0x1c
 2223 00c1 0D       		.uleb128 0xd
 2224 00c2 00       		.byte	0
 2225 00c3 00       		.byte	0
 2226 00c4 11       		.uleb128 0x11
 2227 00c5 35       		.uleb128 0x35
 2228 00c6 00       		.byte	0
 2229 00c7 49       		.uleb128 0x49
 2230 00c8 13       		.uleb128 0x13
 2231 00c9 00       		.byte	0
 2232 00ca 00       		.byte	0
 2233 00cb 12       		.uleb128 0x12
 2234 00cc 13       		.uleb128 0x13
 2235 00cd 01       		.byte	0x1
 2236 00ce 0B       		.uleb128 0xb
 2237 00cf 0B       		.uleb128 0xb
 2238 00d0 3A       		.uleb128 0x3a
 2239 00d1 0B       		.uleb128 0xb
 2240 00d2 3B       		.uleb128 0x3b
 2241 00d3 0B       		.uleb128 0xb
 2242 00d4 01       		.uleb128 0x1
 2243 00d5 13       		.uleb128 0x13
 2244 00d6 00       		.byte	0
 2245 00d7 00       		.byte	0
 2246 00d8 13       		.uleb128 0x13
 2247 00d9 0D       		.uleb128 0xd
 2248 00da 00       		.byte	0
 2249 00db 03       		.uleb128 0x3
 2250 00dc 08       		.uleb128 0x8
 2251 00dd 3A       		.uleb128 0x3a
 2252 00de 0B       		.uleb128 0xb
 2253 00df 3B       		.uleb128 0x3b
 2254 00e0 0B       		.uleb128 0xb
 2255 00e1 49       		.uleb128 0x49
 2256 00e2 13       		.uleb128 0x13
 2257 00e3 38       		.uleb128 0x38
 2258 00e4 0B       		.uleb128 0xb
 2259 00e5 00       		.byte	0
 2260 00e6 00       		.byte	0
 2261 00e7 14       		.uleb128 0x14
 2262 00e8 17       		.uleb128 0x17
 2263 00e9 01       		.byte	0x1
 2264 00ea 0B       		.uleb128 0xb
 2265 00eb 0B       		.uleb128 0xb
 2266 00ec 3A       		.uleb128 0x3a
 2267 00ed 0B       		.uleb128 0xb
 2268 00ee 3B       		.uleb128 0x3b
 2269 00ef 0B       		.uleb128 0xb
 2270 00f0 01       		.uleb128 0x1
ARM GAS  /tmp/ccZbts0L.s 			page 65


 2271 00f1 13       		.uleb128 0x13
 2272 00f2 00       		.byte	0
 2273 00f3 00       		.byte	0
 2274 00f4 15       		.uleb128 0x15
 2275 00f5 0D       		.uleb128 0xd
 2276 00f6 00       		.byte	0
 2277 00f7 03       		.uleb128 0x3
 2278 00f8 0E       		.uleb128 0xe
 2279 00f9 3A       		.uleb128 0x3a
 2280 00fa 0B       		.uleb128 0xb
 2281 00fb 3B       		.uleb128 0x3b
 2282 00fc 05       		.uleb128 0x5
 2283 00fd 49       		.uleb128 0x49
 2284 00fe 13       		.uleb128 0x13
 2285 00ff 00       		.byte	0
 2286 0100 00       		.byte	0
 2287 0101 16       		.uleb128 0x16
 2288 0102 26       		.uleb128 0x26
 2289 0103 00       		.byte	0
 2290 0104 49       		.uleb128 0x49
 2291 0105 13       		.uleb128 0x13
 2292 0106 00       		.byte	0
 2293 0107 00       		.byte	0
 2294 0108 17       		.uleb128 0x17
 2295 0109 01       		.uleb128 0x1
 2296 010a 01       		.byte	0x1
 2297 010b 49       		.uleb128 0x49
 2298 010c 13       		.uleb128 0x13
 2299 010d 01       		.uleb128 0x1
 2300 010e 13       		.uleb128 0x13
 2301 010f 00       		.byte	0
 2302 0110 00       		.byte	0
 2303 0111 18       		.uleb128 0x18
 2304 0112 21       		.uleb128 0x21
 2305 0113 00       		.byte	0
 2306 0114 49       		.uleb128 0x49
 2307 0115 13       		.uleb128 0x13
 2308 0116 2F       		.uleb128 0x2f
 2309 0117 0B       		.uleb128 0xb
 2310 0118 00       		.byte	0
 2311 0119 00       		.byte	0
 2312 011a 19       		.uleb128 0x19
 2313 011b 2E       		.uleb128 0x2e
 2314 011c 01       		.byte	0x1
 2315 011d 3F       		.uleb128 0x3f
 2316 011e 19       		.uleb128 0x19
 2317 011f 03       		.uleb128 0x3
 2318 0120 0E       		.uleb128 0xe
 2319 0121 3A       		.uleb128 0x3a
 2320 0122 0B       		.uleb128 0xb
 2321 0123 3B       		.uleb128 0x3b
 2322 0124 0B       		.uleb128 0xb
 2323 0125 27       		.uleb128 0x27
 2324 0126 19       		.uleb128 0x19
 2325 0127 11       		.uleb128 0x11
 2326 0128 01       		.uleb128 0x1
 2327 0129 12       		.uleb128 0x12
ARM GAS  /tmp/ccZbts0L.s 			page 66


 2328 012a 06       		.uleb128 0x6
 2329 012b 40       		.uleb128 0x40
 2330 012c 18       		.uleb128 0x18
 2331 012d 9642     		.uleb128 0x2116
 2332 012f 19       		.uleb128 0x19
 2333 0130 01       		.uleb128 0x1
 2334 0131 13       		.uleb128 0x13
 2335 0132 00       		.byte	0
 2336 0133 00       		.byte	0
 2337 0134 1A       		.uleb128 0x1a
 2338 0135 34       		.uleb128 0x34
 2339 0136 00       		.byte	0
 2340 0137 03       		.uleb128 0x3
 2341 0138 08       		.uleb128 0x8
 2342 0139 3A       		.uleb128 0x3a
 2343 013a 0B       		.uleb128 0xb
 2344 013b 3B       		.uleb128 0x3b
 2345 013c 0B       		.uleb128 0xb
 2346 013d 49       		.uleb128 0x49
 2347 013e 13       		.uleb128 0x13
 2348 013f 02       		.uleb128 0x2
 2349 0140 18       		.uleb128 0x18
 2350 0141 00       		.byte	0
 2351 0142 00       		.byte	0
 2352 0143 1B       		.uleb128 0x1b
 2353 0144 34       		.uleb128 0x34
 2354 0145 00       		.byte	0
 2355 0146 03       		.uleb128 0x3
 2356 0147 0E       		.uleb128 0xe
 2357 0148 3A       		.uleb128 0x3a
 2358 0149 0B       		.uleb128 0xb
 2359 014a 3B       		.uleb128 0x3b
 2360 014b 0B       		.uleb128 0xb
 2361 014c 49       		.uleb128 0x49
 2362 014d 13       		.uleb128 0x13
 2363 014e 02       		.uleb128 0x2
 2364 014f 18       		.uleb128 0x18
 2365 0150 00       		.byte	0
 2366 0151 00       		.byte	0
 2367 0152 1C       		.uleb128 0x1c
 2368 0153 2E       		.uleb128 0x2e
 2369 0154 00       		.byte	0
 2370 0155 3F       		.uleb128 0x3f
 2371 0156 19       		.uleb128 0x19
 2372 0157 03       		.uleb128 0x3
 2373 0158 0E       		.uleb128 0xe
 2374 0159 3A       		.uleb128 0x3a
 2375 015a 0B       		.uleb128 0xb
 2376 015b 3B       		.uleb128 0x3b
 2377 015c 0B       		.uleb128 0xb
 2378 015d 27       		.uleb128 0x27
 2379 015e 19       		.uleb128 0x19
 2380 015f 11       		.uleb128 0x11
 2381 0160 01       		.uleb128 0x1
 2382 0161 12       		.uleb128 0x12
 2383 0162 06       		.uleb128 0x6
 2384 0163 40       		.uleb128 0x40
ARM GAS  /tmp/ccZbts0L.s 			page 67


 2385 0164 18       		.uleb128 0x18
 2386 0165 9642     		.uleb128 0x2116
 2387 0167 19       		.uleb128 0x19
 2388 0168 00       		.byte	0
 2389 0169 00       		.byte	0
 2390 016a 1D       		.uleb128 0x1d
 2391 016b 34       		.uleb128 0x34
 2392 016c 00       		.byte	0
 2393 016d 03       		.uleb128 0x3
 2394 016e 08       		.uleb128 0x8
 2395 016f 3A       		.uleb128 0x3a
 2396 0170 0B       		.uleb128 0xb
 2397 0171 3B       		.uleb128 0x3b
 2398 0172 05       		.uleb128 0x5
 2399 0173 49       		.uleb128 0x49
 2400 0174 13       		.uleb128 0x13
 2401 0175 3F       		.uleb128 0x3f
 2402 0176 19       		.uleb128 0x19
 2403 0177 3C       		.uleb128 0x3c
 2404 0178 19       		.uleb128 0x19
 2405 0179 00       		.byte	0
 2406 017a 00       		.byte	0
 2407 017b 1E       		.uleb128 0x1e
 2408 017c 34       		.uleb128 0x34
 2409 017d 00       		.byte	0
 2410 017e 03       		.uleb128 0x3
 2411 017f 0E       		.uleb128 0xe
 2412 0180 3A       		.uleb128 0x3a
 2413 0181 0B       		.uleb128 0xb
 2414 0182 3B       		.uleb128 0x3b
 2415 0183 0B       		.uleb128 0xb
 2416 0184 49       		.uleb128 0x49
 2417 0185 13       		.uleb128 0x13
 2418 0186 3F       		.uleb128 0x3f
 2419 0187 19       		.uleb128 0x19
 2420 0188 3C       		.uleb128 0x3c
 2421 0189 19       		.uleb128 0x19
 2422 018a 00       		.byte	0
 2423 018b 00       		.byte	0
 2424 018c 00       		.byte	0
 2425              		.section	.debug_aranges,"",%progbits
 2426 0000 44000000 		.4byte	0x44
 2427 0004 0200     		.2byte	0x2
 2428 0006 00000000 		.4byte	.Ldebug_info0
 2429 000a 04       		.byte	0x4
 2430 000b 00       		.byte	0
 2431 000c 0000     		.2byte	0
 2432 000e 0000     		.2byte	0
 2433 0010 00000000 		.4byte	.LFB149
 2434 0014 58000000 		.4byte	.LFE149-.LFB149
 2435 0018 00000000 		.4byte	.LFB150
 2436 001c 58000000 		.4byte	.LFE150-.LFB150
 2437 0020 00000000 		.4byte	.LFB151
 2438 0024 48010000 		.4byte	.LFE151-.LFB151
 2439 0028 00000000 		.4byte	.LFB152
 2440 002c 84000000 		.4byte	.LFE152-.LFB152
 2441 0030 00000000 		.4byte	.LFB153
ARM GAS  /tmp/ccZbts0L.s 			page 68


 2442 0034 24000000 		.4byte	.LFE153-.LFB153
 2443 0038 00000000 		.4byte	.LFB154
 2444 003c 1C000000 		.4byte	.LFE154-.LFB154
 2445 0040 00000000 		.4byte	0
 2446 0044 00000000 		.4byte	0
 2447              		.section	.debug_ranges,"",%progbits
 2448              	.Ldebug_ranges0:
 2449 0000 00000000 		.4byte	.LFB149
 2450 0004 58000000 		.4byte	.LFE149
 2451 0008 00000000 		.4byte	.LFB150
 2452 000c 58000000 		.4byte	.LFE150
 2453 0010 00000000 		.4byte	.LFB151
 2454 0014 48010000 		.4byte	.LFE151
 2455 0018 00000000 		.4byte	.LFB152
 2456 001c 84000000 		.4byte	.LFE152
 2457 0020 00000000 		.4byte	.LFB153
 2458 0024 24000000 		.4byte	.LFE153
 2459 0028 00000000 		.4byte	.LFB154
 2460 002c 1C000000 		.4byte	.LFE154
 2461 0030 00000000 		.4byte	0
 2462 0034 00000000 		.4byte	0
 2463              		.section	.debug_line,"",%progbits
 2464              	.Ldebug_line0:
 2465 0000 B9020000 		.section	.debug_str,"MS",%progbits,1
 2465      02001002 
 2465      00000201 
 2465      FB0E0D00 
 2465      01010101 
 2466              	.LASF41:
 2467 0000 63685F74 		.ascii	"ch_threads_list\000"
 2467      68726561 
 2467      64735F6C 
 2467      69737400 
 2468              	.LASF42:
 2469 0010 74687265 		.ascii	"threads_queue_t\000"
 2469      6164735F 
 2469      71756575 
 2469      655F7400 
 2470              	.LASF35:
 2471 0020 705F7761 		.ascii	"p_waiting\000"
 2471      6974696E 
 2471      6700
 2472              	.LASF111:
 2473 002a 77746D74 		.ascii	"wtmtxp\000"
 2473      787000
 2474              	.LASF83:
 2475 0031 45585449 		.ascii	"EXTI4_15_IRQn\000"
 2475      345F3135 
 2475      5F495251 
 2475      6E00
 2476              	.LASF119:
 2477 003f 63686172 		.ascii	"char\000"
 2477      00
 2478              	.LASF102:
 2479 0044 72656761 		.ascii	"regarm_t\000"
 2479      726D5F74 
 2479      00
ARM GAS  /tmp/ccZbts0L.s 			page 69


 2480              	.LASF28:
 2481 004d 705F7072 		.ascii	"p_prio\000"
 2481      696F00
 2482              	.LASF82:
 2483 0054 45585449 		.ascii	"EXTI2_3_IRQn\000"
 2483      325F335F 
 2483      4952516E 
 2483      00
 2484              	.LASF74:
 2485 0061 5356435F 		.ascii	"SVC_IRQn\000"
 2485      4952516E 
 2485      00
 2486              	.LASF24:
 2487 006a 73797374 		.ascii	"systime_t\000"
 2487      696D655F 
 2487      7400
 2488              	.LASF117:
 2489 0074 6D5F6F77 		.ascii	"m_owner\000"
 2489      6E657200 
 2490              	.LASF113:
 2491 007c 735F7175 		.ascii	"s_queue\000"
 2491      65756500 
 2492              	.LASF0:
 2493 0084 756E7369 		.ascii	"unsigned int\000"
 2493      676E6564 
 2493      20696E74 
 2493      00
 2494              	.LASF39:
 2495 0091 74687265 		.ascii	"threads_list_t\000"
 2495      6164735F 
 2495      6C697374 
 2495      5F7400
 2496              	.LASF92:
 2497 00a0 54494D31 		.ascii	"TIM16_IRQn\000"
 2497      365F4952 
 2497      516E00
 2498              	.LASF7:
 2499 00ab 5F5F696E 		.ascii	"__int32_t\000"
 2499      7433325F 
 2499      7400
 2500              	.LASF79:
 2501 00b5 464C4153 		.ascii	"FLASH_IRQn\000"
 2501      485F4952 
 2501      516E00
 2502              	.LASF108:
 2503 00c0 77746F62 		.ascii	"wtobjp\000"
 2503      6A7000
 2504              	.LASF69:
 2505 00c7 76746C69 		.ascii	"vtlist\000"
 2505      737400
 2506              	.LASF81:
 2507 00ce 45585449 		.ascii	"EXTI0_1_IRQn\000"
 2507      305F315F 
 2507      4952516E 
 2507      00
 2508              	.LASF45:
 2509 00db 63685F72 		.ascii	"ch_ready_list\000"
ARM GAS  /tmp/ccZbts0L.s 			page 70


 2509      65616479 
 2509      5F6C6973 
 2509      7400
 2510              	.LASF71:
 2511 00e9 69646C65 		.ascii	"idle_thread_wa\000"
 2511      5F746872 
 2511      6561645F 
 2511      776100
 2512              	.LASF131:
 2513 00f8 6D6F6465 		.ascii	"mode\000"
 2513      00
 2514              	.LASF126:
 2515 00fd 45585444 		.ascii	"EXTDriver\000"
 2515      72697665 
 2515      7200
 2516              	.LASF43:
 2517 0107 63685F74 		.ascii	"ch_threads_queue\000"
 2517      68726561 
 2517      64735F71 
 2517      75657565 
 2517      00
 2518              	.LASF94:
 2519 0118 49324331 		.ascii	"I2C1_IRQn\000"
 2519      5F495251 
 2519      6E00
 2520              	.LASF75:
 2521 0122 50656E64 		.ascii	"PendSV_IRQn\000"
 2521      53565F49 
 2521      52516E00 
 2522              	.LASF52:
 2523 012e 76746675 		.ascii	"vtfunc_t\000"
 2523      6E635F74 
 2523      00
 2524              	.LASF114:
 2525 0137 735F636E 		.ascii	"s_cnt\000"
 2525      7400
 2526              	.LASF64:
 2527 013d 63685F73 		.ascii	"ch_system_debug\000"
 2527      79737465 
 2527      6D5F6465 
 2527      62756700 
 2528              	.LASF17:
 2529 014d 75696E74 		.ascii	"uint32_t\000"
 2529      33325F74 
 2529      00
 2530              	.LASF47:
 2531 0156 725F7072 		.ascii	"r_prio\000"
 2531      696F00
 2532              	.LASF59:
 2533 015d 76745F70 		.ascii	"vt_par\000"
 2533      617200
 2534              	.LASF112:
 2535 0164 63685F73 		.ascii	"ch_semaphore\000"
 2535      656D6170 
 2535      686F7265 
 2535      00
 2536              	.LASF21:
ARM GAS  /tmp/ccZbts0L.s 			page 71


 2537 0171 74707269 		.ascii	"tprio_t\000"
 2537      6F5F7400 
 2538              	.LASF54:
 2539 0179 63685F76 		.ascii	"ch_virtual_timer\000"
 2539      69727475 
 2539      616C5F74 
 2539      696D6572 
 2539      00
 2540              	.LASF95:
 2541 018a 53504931 		.ascii	"SPI1_IRQn\000"
 2541      5F495251 
 2541      6E00
 2542              	.LASF13:
 2543 0194 6C6F6E67 		.ascii	"long long unsigned int\000"
 2543      206C6F6E 
 2543      6720756E 
 2543      7369676E 
 2543      65642069 
 2544              	.LASF142:
 2545 01ab 45585444 		.ascii	"EXTD1\000"
 2545      3100
 2546              	.LASF139:
 2547 01b1 56656374 		.ascii	"Vector48\000"
 2547      6F723438 
 2547      00
 2548              	.LASF5:
 2549 01ba 5F5F7569 		.ascii	"__uint16_t\000"
 2549      6E743136 
 2549      5F7400
 2550              	.LASF23:
 2551 01c5 636E745F 		.ascii	"cnt_t\000"
 2551      7400
 2552              	.LASF30:
 2553 01cb 705F6E65 		.ascii	"p_newer\000"
 2553      77657200 
 2554              	.LASF61:
 2555 01d3 63685F76 		.ascii	"ch_virtual_timers_list\000"
 2555      69727475 
 2555      616C5F74 
 2555      696D6572 
 2555      735F6C69 
 2556              	.LASF25:
 2557 01ea 74687265 		.ascii	"thread_t\000"
 2557      61645F74 
 2557      00
 2558              	.LASF136:
 2559 01f3 56656374 		.ascii	"Vector54\000"
 2559      6F723534 
 2559      00
 2560              	.LASF137:
 2561 01fc 56656374 		.ascii	"Vector58\000"
 2561      6F723538 
 2561      00
 2562              	.LASF106:
 2563 0205 7264796D 		.ascii	"rdymsg\000"
 2563      736700
 2564              	.LASF138:
ARM GAS  /tmp/ccZbts0L.s 			page 72


 2565 020c 56656374 		.ascii	"Vector5C\000"
 2565      6F723543 
 2565      00
 2566              	.LASF121:
 2567 0215 5F426F6F 		.ascii	"_Bool\000"
 2567      6C00
 2568              	.LASF115:
 2569 021b 63685F6D 		.ascii	"ch_mutex\000"
 2569      75746578 
 2569      00
 2570              	.LASF12:
 2571 0224 5F5F7569 		.ascii	"__uint64_t\000"
 2571      6E743634 
 2571      5F7400
 2572              	.LASF32:
 2573 022f 705F6E61 		.ascii	"p_name\000"
 2573      6D6500
 2574              	.LASF87:
 2575 0236 41444331 		.ascii	"ADC1_IRQn\000"
 2575      5F495251 
 2575      6E00
 2576              	.LASF57:
 2577 0240 76745F64 		.ascii	"vt_delta\000"
 2577      656C7461 
 2577      00
 2578              	.LASF38:
 2579 0249 74687265 		.ascii	"thread_reference_t\000"
 2579      61645F72 
 2579      65666572 
 2579      656E6365 
 2579      5F7400
 2580              	.LASF62:
 2581 025c 76745F6C 		.ascii	"vt_lasttime\000"
 2581      61737474 
 2581      696D6500 
 2582              	.LASF90:
 2583 0268 54494D33 		.ascii	"TIM3_IRQn\000"
 2583      5F495251 
 2583      6E00
 2584              	.LASF84:
 2585 0272 444D4131 		.ascii	"DMA1_Channel1_IRQn\000"
 2585      5F436861 
 2585      6E6E656C 
 2585      315F4952 
 2585      516E00
 2586              	.LASF20:
 2587 0285 74737461 		.ascii	"tstate_t\000"
 2587      74655F74 
 2587      00
 2588              	.LASF134:
 2589 028e 45585443 		.ascii	"EXTConfig\000"
 2589      6F6E6669 
 2589      6700
 2590              	.LASF31:
 2591 0298 705F6F6C 		.ascii	"p_older\000"
 2591      64657200 
 2592              	.LASF33:
ARM GAS  /tmp/ccZbts0L.s 			page 73


 2593 02a0 705F7374 		.ascii	"p_state\000"
 2593      61746500 
 2594              	.LASF14:
 2595 02a8 75696E74 		.ascii	"uint8_t\000"
 2595      385F7400 
 2596              	.LASF140:
 2597 02b0 6578745F 		.ascii	"ext_lld_exti_irq_enable\000"
 2597      6C6C645F 
 2597      65787469 
 2597      5F697271 
 2597      5F656E61 
 2598              	.LASF36:
 2599 02c8 705F6D74 		.ascii	"p_mtxlist\000"
 2599      786C6973 
 2599      7400
 2600              	.LASF40:
 2601 02d2 63685F74 		.ascii	"ch_thread\000"
 2601      68726561 
 2601      6400
 2602              	.LASF130:
 2603 02dc 65787463 		.ascii	"extcallback_t\000"
 2603      616C6C62 
 2603      61636B5F 
 2603      7400
 2604              	.LASF63:
 2605 02ea 73797374 		.ascii	"system_debug_t\000"
 2605      656D5F64 
 2605      65627567 
 2605      5F7400
 2606              	.LASF11:
 2607 02f9 6C6F6E67 		.ascii	"long long int\000"
 2607      206C6F6E 
 2607      6720696E 
 2607      7400
 2608              	.LASF77:
 2609 0307 57574447 		.ascii	"WWDG_IRQn\000"
 2609      5F495251 
 2609      6E00
 2610              	.LASF46:
 2611 0311 725F7175 		.ascii	"r_queue\000"
 2611      65756500 
 2612              	.LASF49:
 2613 0319 725F6E65 		.ascii	"r_newer\000"
 2613      77657200 
 2614              	.LASF22:
 2615 0321 6D73675F 		.ascii	"msg_t\000"
 2615      7400
 2616              	.LASF104:
 2617 0327 636F6E74 		.ascii	"context\000"
 2617      65787400 
 2618              	.LASF34:
 2619 032f 705F666C 		.ascii	"p_flags\000"
 2619      61677300 
 2620              	.LASF133:
 2621 0337 6368616E 		.ascii	"channels\000"
 2621      6E656C73 
 2621      00
ARM GAS  /tmp/ccZbts0L.s 			page 74


 2622              	.LASF53:
 2623 0340 76697274 		.ascii	"virtual_timer_t\000"
 2623      75616C5F 
 2623      74696D65 
 2623      725F7400 
 2624              	.LASF101:
 2625 0350 45585449 		.ascii	"EXTI_TypeDef\000"
 2625      5F547970 
 2625      65446566 
 2625      00
 2626              	.LASF88:
 2627 035d 54494D31 		.ascii	"TIM1_BRK_UP_TRG_COM_IRQn\000"
 2627      5F42524B 
 2627      5F55505F 
 2627      5452475F 
 2627      434F4D5F 
 2628              	.LASF122:
 2629 0376 4558545F 		.ascii	"EXT_UNINIT\000"
 2629      554E494E 
 2629      495400
 2630              	.LASF143:
 2631 0381 474E5520 		.ascii	"GNU C 4.8.4 20141219 (release) -mcpu=cortex-m0 -mno"
 2631      4320342E 
 2631      382E3420 
 2631      32303134 
 2631      31323139 
 2632 03b4 2D746875 		.ascii	"-thumb-interwork -mthumb -ggdb -O0 -fomit-frame-poi"
 2632      6D622D69 
 2632      6E746572 
 2632      776F726B 
 2632      202D6D74 
 2633 03e7 6E746572 		.ascii	"nter -falign-functions=16 -ffunction-sections -fdat"
 2633      202D6661 
 2633      6C69676E 
 2633      2D66756E 
 2633      6374696F 
 2634 041a 612D7365 		.ascii	"a-sections -fno-common -flto\000"
 2634      6374696F 
 2634      6E73202D 
 2634      666E6F2D 
 2634      636F6D6D 
 2635              	.LASF124:
 2636 0437 4558545F 		.ascii	"EXT_ACTIVE\000"
 2636      41435449 
 2636      564500
 2637              	.LASF50:
 2638 0442 725F6F6C 		.ascii	"r_older\000"
 2638      64657200 
 2639              	.LASF65:
 2640 044a 70616E69 		.ascii	"panic_msg\000"
 2640      635F6D73 
 2640      6700
 2641              	.LASF19:
 2642 0454 746D6F64 		.ascii	"tmode_t\000"
 2642      655F7400 
 2643              	.LASF125:
 2644 045c 65787473 		.ascii	"extstate_t\000"
ARM GAS  /tmp/ccZbts0L.s 			page 75


 2644      74617465 
 2644      5F7400
 2645              	.LASF70:
 2646 0467 6D61696E 		.ascii	"mainthread\000"
 2646      74687265 
 2646      616400
 2647              	.LASF15:
 2648 0472 75696E74 		.ascii	"uint16_t\000"
 2648      31365F74 
 2648      00
 2649              	.LASF144:
 2650 047b 2F686F6D 		.ascii	"/home/efe/ChibiOS/os/hal/ports/STM32/STM32F0xx/ext_"
 2650      652F6566 
 2650      652F4368 
 2650      6962694F 
 2650      532F6F73 
 2651 04ae 6C6C645F 		.ascii	"lld_isr.c\000"
 2651      6973722E 
 2651      6300
 2652              	.LASF98:
 2653 04b8 52545352 		.ascii	"RTSR\000"
 2653      00
 2654              	.LASF128:
 2655 04bd 636F6E66 		.ascii	"config\000"
 2655      696700
 2656              	.LASF78:
 2657 04c4 5254435F 		.ascii	"RTC_IRQn\000"
 2657      4952516E 
 2657      00
 2658              	.LASF37:
 2659 04cd 705F7265 		.ascii	"p_realprio\000"
 2659      616C7072 
 2659      696F00
 2660              	.LASF3:
 2661 04d8 73686F72 		.ascii	"short int\000"
 2661      7420696E 
 2661      7400
 2662              	.LASF51:
 2663 04e2 725F6375 		.ascii	"r_current\000"
 2663      7272656E 
 2663      7400
 2664              	.LASF116:
 2665 04ec 6D5F7175 		.ascii	"m_queue\000"
 2665      65756500 
 2666              	.LASF8:
 2667 04f4 6C6F6E67 		.ascii	"long int\000"
 2667      20696E74 
 2667      00
 2668              	.LASF96:
 2669 04fd 55534152 		.ascii	"USART1_IRQn\000"
 2669      54315F49 
 2669      52516E00 
 2670              	.LASF105:
 2671 0509 706F7274 		.ascii	"port_intctx\000"
 2671      5F696E74 
 2671      63747800 
 2672              	.LASF72:
ARM GAS  /tmp/ccZbts0L.s 			page 76


 2673 0515 4E6F6E4D 		.ascii	"NonMaskableInt_IRQn\000"
 2673      61736B61 
 2673      626C6549 
 2673      6E745F49 
 2673      52516E00 
 2674              	.LASF132:
 2675 0529 45585443 		.ascii	"EXTChannelConfig\000"
 2675      68616E6E 
 2675      656C436F 
 2675      6E666967 
 2675      00
 2676              	.LASF67:
 2677 053a 63685F73 		.ascii	"ch_system\000"
 2677      79737465 
 2677      6D00
 2678              	.LASF89:
 2679 0544 54494D31 		.ascii	"TIM1_CC_IRQn\000"
 2679      5F43435F 
 2679      4952516E 
 2679      00
 2680              	.LASF80:
 2681 0551 5243435F 		.ascii	"RCC_IRQn\000"
 2681      4952516E 
 2681      00
 2682              	.LASF26:
 2683 055a 705F6E65 		.ascii	"p_next\000"
 2683      787400
 2684              	.LASF18:
 2685 0561 75696E74 		.ascii	"uint64_t\000"
 2685      36345F74 
 2685      00
 2686              	.LASF29:
 2687 056a 705F6374 		.ascii	"p_ctx\000"
 2687      7800
 2688              	.LASF68:
 2689 0570 726C6973 		.ascii	"rlist\000"
 2689      7400
 2690              	.LASF93:
 2691 0576 54494D31 		.ascii	"TIM17_IRQn\000"
 2691      375F4952 
 2691      516E00
 2692              	.LASF86:
 2693 0581 444D4131 		.ascii	"DMA1_Channel4_5_IRQn\000"
 2693      5F436861 
 2693      6E6E656C 
 2693      345F355F 
 2693      4952516E 
 2694              	.LASF4:
 2695 0596 5F5F7569 		.ascii	"__uint8_t\000"
 2695      6E74385F 
 2695      7400
 2696              	.LASF123:
 2697 05a0 4558545F 		.ascii	"EXT_STOP\000"
 2697      53544F50 
 2697      00
 2698              	.LASF76:
 2699 05a9 53797354 		.ascii	"SysTick_IRQn\000"
ARM GAS  /tmp/ccZbts0L.s 			page 77


 2699      69636B5F 
 2699      4952516E 
 2699      00
 2700              	.LASF27:
 2701 05b6 705F7072 		.ascii	"p_prev\000"
 2701      657600
 2702              	.LASF100:
 2703 05bd 53574945 		.ascii	"SWIER\000"
 2703      5200
 2704              	.LASF97:
 2705 05c3 73697A65 		.ascii	"sizetype\000"
 2705      74797065 
 2705      00
 2706              	.LASF10:
 2707 05cc 6C6F6E67 		.ascii	"long unsigned int\000"
 2707      20756E73 
 2707      69676E65 
 2707      6420696E 
 2707      7400
 2708              	.LASF129:
 2709 05de 65787063 		.ascii	"expchannel_t\000"
 2709      68616E6E 
 2709      656C5F74 
 2709      00
 2710              	.LASF44:
 2711 05eb 72656164 		.ascii	"ready_list_t\000"
 2711      795F6C69 
 2711      73745F74 
 2711      00
 2712              	.LASF99:
 2713 05f8 46545352 		.ascii	"FTSR\000"
 2713      00
 2714              	.LASF16:
 2715 05fd 696E7433 		.ascii	"int32_t\000"
 2715      325F7400 
 2716              	.LASF110:
 2717 0605 77747365 		.ascii	"wtsemp\000"
 2717      6D7000
 2718              	.LASF91:
 2719 060c 54494D31 		.ascii	"TIM14_IRQn\000"
 2719      345F4952 
 2719      516E00
 2720              	.LASF85:
 2721 0617 444D4131 		.ascii	"DMA1_Channel2_3_IRQn\000"
 2721      5F436861 
 2721      6E6E656C 
 2721      325F335F 
 2721      4952516E 
 2722              	.LASF120:
 2723 062c 6D757465 		.ascii	"mutex_t\000"
 2723      785F7400 
 2724              	.LASF2:
 2725 0634 756E7369 		.ascii	"unsigned char\000"
 2725      676E6564 
 2725      20636861 
 2725      7200
 2726              	.LASF9:
ARM GAS  /tmp/ccZbts0L.s 			page 78


 2727 0642 5F5F7569 		.ascii	"__uint32_t\000"
 2727      6E743332 
 2727      5F7400
 2728              	.LASF60:
 2729 064d 76697274 		.ascii	"virtual_timers_list_t\000"
 2729      75616C5F 
 2729      74696D65 
 2729      72735F6C 
 2729      6973745F 
 2730              	.LASF141:
 2731 0663 6578745F 		.ascii	"ext_lld_exti_irq_disable\000"
 2731      6C6C645F 
 2731      65787469 
 2731      5F697271 
 2731      5F646973 
 2732              	.LASF127:
 2733 067c 73746174 		.ascii	"state\000"
 2733      6500
 2734              	.LASF55:
 2735 0682 76745F6E 		.ascii	"vt_next\000"
 2735      65787400 
 2736              	.LASF66:
 2737 068a 63685F73 		.ascii	"ch_system_t\000"
 2737      79737465 
 2737      6D5F7400 
 2738              	.LASF109:
 2739 0696 77747472 		.ascii	"wttrp\000"
 2739      7000
 2740              	.LASF118:
 2741 069c 6D5F6E65 		.ascii	"m_next\000"
 2741      787400
 2742              	.LASF1:
 2743 06a3 7369676E 		.ascii	"signed char\000"
 2743      65642063 
 2743      68617200 
 2744              	.LASF6:
 2745 06af 73686F72 		.ascii	"short unsigned int\000"
 2745      7420756E 
 2745      7369676E 
 2745      65642069 
 2745      6E7400
 2746              	.LASF48:
 2747 06c2 725F6374 		.ascii	"r_ctx\000"
 2747      7800
 2748              	.LASF103:
 2749 06c8 73746B61 		.ascii	"stkalign_t\000"
 2749      6C69676E 
 2749      5F7400
 2750              	.LASF73:
 2751 06d3 48617264 		.ascii	"HardFault_IRQn\000"
 2751      4661756C 
 2751      745F4952 
 2751      516E00
 2752              	.LASF58:
 2753 06e2 76745F66 		.ascii	"vt_func\000"
 2753      756E6300 
 2754              	.LASF56:
ARM GAS  /tmp/ccZbts0L.s 			page 79


 2755 06ea 76745F70 		.ascii	"vt_prev\000"
 2755      72657600 
 2756              	.LASF135:
 2757 06f2 5F736176 		.ascii	"_saved_lr\000"
 2757      65645F6C 
 2757      7200
 2758              	.LASF107:
 2759 06fc 65786974 		.ascii	"exitcode\000"
 2759      636F6465 
 2759      00
 2760              		.comm	__gnu_lto_v1,1,1
 2761              		.ident	"GCC: (4.8.4-1+11-1) 4.8.4 20141219 (release)"
ARM GAS  /tmp/ccZbts0L.s 			page 80


DEFINED SYMBOLS
                            *ABS*:0000000000000000 ext_lld_isr.c
     /tmp/ccZbts0L.s:412    .text.Vector54:0000000000000000 $t
     /tmp/ccZbts0L.s:418    .text.Vector54:0000000000000000 Vector54
     /tmp/ccZbts0L.s:480    .text.Vector54:0000000000000050 $d
     /tmp/ccZbts0L.s:486    .text.Vector58:0000000000000000 $t
     /tmp/ccZbts0L.s:492    .text.Vector58:0000000000000000 Vector58
     /tmp/ccZbts0L.s:553    .text.Vector58:0000000000000050 $d
     /tmp/ccZbts0L.s:559    .text.Vector5C:0000000000000000 $t
     /tmp/ccZbts0L.s:565    .text.Vector5C:0000000000000000 Vector5C
     /tmp/ccZbts0L.s:774    .text.Vector5C:000000000000013c $d
     /tmp/ccZbts0L.s:781    .text.Vector48:0000000000000000 $t
     /tmp/ccZbts0L.s:787    .text.Vector48:0000000000000000 Vector48
     /tmp/ccZbts0L.s:872    .text.Vector48:000000000000007c $d
     /tmp/ccZbts0L.s:878    .text.ext_lld_exti_irq_enable:0000000000000000 $t
     /tmp/ccZbts0L.s:884    .text.ext_lld_exti_irq_enable:0000000000000000 ext_lld_exti_irq_enable
     /tmp/ccZbts0L.s:915    .text.ext_lld_exti_irq_disable:0000000000000000 $t
     /tmp/ccZbts0L.s:921    .text.ext_lld_exti_irq_disable:0000000000000000 ext_lld_exti_irq_disable
                            *COM*:0000000000000001 __gnu_lto_v1
                     .debug_frame:0000000000000010 $d
     /tmp/ccZbts0L.s:485    .text.Vector54:0000000000000058 $t
     /tmp/ccZbts0L.s:558    .text.Vector58:0000000000000058 $t
     /tmp/ccZbts0L.s:780    .text.Vector5C:0000000000000148 $t
     /tmp/ccZbts0L.s:877    .text.Vector48:0000000000000084 $t

UNDEFINED SYMBOLS
_port_irq_epilogue
EXTD1
nvicEnableVector
nvicDisableVector
