ARM GAS  /tmp/ccFrmcKa.s 			page 1


   1              		.cpu cortex-m0
   2              		.fpu softvfp
   3              		.eabi_attribute 20, 1
   4              		.eabi_attribute 21, 1
   5              		.eabi_attribute 23, 3
   6              		.eabi_attribute 24, 1
   7              		.eabi_attribute 25, 1
   8              		.eabi_attribute 26, 1
   9              		.eabi_attribute 30, 6
  10              		.eabi_attribute 34, 0
  11              		.eabi_attribute 18, 4
  12              		.code	16
  13              		.file	"hal.c"
  14              		.text
  15              	.Ltext0:
  16              		.section	.gnu.lto_.inline.ad4525e8882ad49c,"",%progbits
  17 0000 789C6362 		.ascii	"x\234cb`b\300\006\274\2404P\226\031\210\231\230\026"
  17      6062C006 
  17      BCA03450 
  17      96198899 
  17      9816
  18 0012 C833B040 		.ascii	"\3103\260@\32422p\237d@\023\342\302$\230\270Q\270\014"
  18      D4323270 
  18      9F644013 
  18      E2C22498 
  18      B851B80C 
  19 0026 00A3FC03 		.ascii	"\000\243\374\003\014"
  19      0C
  20              		.text
  21              		.section	.gnu.lto_osalInit.ad4525e8882ad49c,"",%progbits
  22 0000 789C6362 		.ascii	"x\234cb`b@\007\"@\354\013\304Z \0163\003#P\005#\023"
  22      60624007 
  22      2240EC0B 
  22      C45A200E 
  22      33032350 
  23 0017 232390C3 		.ascii	"##\220\303\310P\317\304X\037\311\010V\266\236\351\300"
  23      C850CFC4 
  23      581FC908 
  23      56B69EE9 
  23      C0
  24 0028 83FFFFD7 		.ascii	"\203\377\377\327M\272\267t\017\343\017&\220\030+CKC"
  24      4DBAB774 
  24      0FE30F26 
  24      90182B43 
  24      4B43
  25 003a C3040506 		.ascii	"\303\004\005\006\206d\260\212\0200\031\012\322\317|"
  25      8664B08A 
  25      1030190A 
  25      D2CF7C
  26 0049 91813191 		.ascii	"\221\2011\221q!#+\334\222\020\220\201 \2735\3643\362"
  26      7121232B 
  26      DC921090 
  26      8120BB35 
  26      F433F2
  27 005c 7353F553 		.ascii	"sS\365S\323R\365\23532\2232\375\203\365\363\213\365"
  27      D352F59D 
  27      33329332 
ARM GAS  /tmp/ccFrmcKa.s 			page 2


  27      FD83F5F3 
  27      8BF5
  28 006e 33127380 		.ascii	"3\022s\200\024\220(*\001\323z\031\014\000k\233\036,"
  28      1490282A 
  28      01D37A19 
  28      0C006B9B 
  28      1E2C
  29              		.text
  30              		.section	.gnu.lto_halInit.ad4525e8882ad49c,"",%progbits
  31 0000 789C6362 		.ascii	"x\234cb`b@\007\"@\234\301\310\300\240\012\342030\002"
  31      60624007 
  31      22409CC1 
  31      C8C0A00A 
  31      E2303330 
  32 0015 55303231 		.ascii	"U021\002\005\030\030\031\352\231\030\353#\031\301\312"
  32      02051818 
  32      19EA9918 
  32      EB2319C1 
  32      CA
  33 0026 D6331D78 		.ascii	"\3263\035x\360\377\377\272\017\033\037\316f\024\002"
  33      F0FFFFBA 
  33      0F1B1FCE 
  33      661402
  34 0035 09B132B4 		.ascii	"\011\2612\26444LP``H\006+\010\001\223\241 \355\314\347"
  34      34344C50 
  34      60604806 
  34      2B080193 
  34      A120EDCC 
  35 004a 199A1FFC 		.ascii	"\031\232\037\3746Kd\\\310\310\012\024\253f\370\325\320"
  35      364B645C 
  35      C8C80A14 
  35      AB66F8D5 
  35      D0
  36 005b D12090C9 		.ascii	"\321 \220\311\010T\0111+\023D\203\024\375\263\303\246"
  36      08540931 
  36      2B134483 
  36      14FDB3C3 
  36      A6
  37 006c 88095951 		.ascii	"\210\011YQ\313\203\316d\014EL\311\214\314`E \021\211"
  37      CB83CE64 
  37      0C454CC9 
  37      8CCC6045 
  37      201189
  38 007f 4C46E65C 		.ascii	"LF\346\\F\006\250\242LF\026\210\331s\017\263a3\234\005"
  38      4606A8A2 
  38      4C461688 
  38      D9730FB3 
  38      61339C05 
  39 0093 D505A716 		.ascii	"\325\005\247\026cU\305\212\252\252\253\225\035\233*"
  39      6355C58A 
  39      AAAAAB95 
  39      1D9B2A
  40 00a2 36545533 		.ascii	"6TU3\227b5\213\035\241\352\"C\343\203\331\2520E\020"
  40      9762358B 
  40      1DA1EA22 
  40      43E383D9 
  40      AA304510 
ARM GAS  /tmp/ccFrmcKa.s 			page 3


  41 00b6 10029200 		.ascii	"\020\002\222\000yYY?#?7U?5-U\3379#3)\323?X?\277X?#1"
  41      7959593F 
  41      233F3755 
  41      3F352D55 
  41      DF392333 
  42 00d4 47BFB828 		.ascii	"G\277\270(\031D\353%3\000\000]Z^\355"
  42      1944EB25 
  42      3300005D 
  42      5A5EED
  43              		.text
  44              		.section	.gnu.lto_.symbol_nodes.ad4525e8882ad49c,"",%progbits
  45 0000 789C45CC 		.ascii	"x\234E\314\273\021\203@\014\204\341]\035\007n\323\225"
  45      BB118340 
  45      0C84E15D 
  45      1D076ED3 
  45      95
  46 0011 2C0309A1 		.ascii	",\003\011\241\023\3603\243\004J '$\206q\021\316<\234"
  46      13F033A3 
  46      044A2027 
  46      24867111 
  46      CE3C9C
  47 0024 CF0CA7E4 		.ascii	"\317\014\247\344\323\257@\006\303\200}\354\003\001\227"
  47      D3AF4006 
  47      C3807DEC 
  47      030197
  48 0033 0990DAE6 		.ascii	"\011\220\332\346l-\305=\347\206\376\306\260\201/\312"
  48      6C2DC53D 
  48      E786FEC6 
  48      B0812FCA 
  49 0043 FED7B224 		.ascii	"\376\327\262$\237\224K\365\240\262Tw\312\247\272Ry\252"
  49      9F944BF5 
  49      A0B25477 
  49      CAA7BA52 
  49      79AA
  50 0055 8E2A8E72 		.ascii	"\216*\216r\341s\265|\203'\364\321\002c4\307;\352Q\257"
  50      E173B57C 
  50      8327F4D1 
  50      026334C7 
  50      3BEA51AF 
  51 0069 3F33F451 		.ascii	"?3\364Q\2071\210\015\324\2315\363"
  51      8731880D 
  51      D49935F3 
  52              		.text
  53              		.section	.gnu.lto_.refs.ad4525e8882ad49c,"",%progbits
  54 0000 789C6362 		.ascii	"x\234cb`b`e\200\000FF&&\006\000\000\245\000\020"
  54      60626065 
  54      80004646 
  54      26260600 
  54      00A50010 
  55              		.text
  56              		.section	.gnu.lto_.decls.ad4525e8882ad49c,"",%progbits
  57 0000 789C9596 		.ascii	"x\234\225\226\177l\023e\030\307\237\367\332u+\314a\226"
  57      7F6C1365 
  57      18C79FF7 
  57      DA752BCC 
  57      6196
  58 0012 4846D0AC 		.ascii	"HF\320\254h@3#G6c\324?\2108\034\222Li\034$\376w\271"
ARM GAS  /tmp/ccFrmcKa.s 			page 4


  58      68403323 
  58      473663D4 
  58      3F88381C 
  58      924C691C 
  59 002a AD377A49 		.ascii	"\2557zI\3276wW\235\177\361n,\210&\220\015\243q\006\245"
  59      D7367757 
  59      9D7FF16E 
  59      2C882690 
  59      0DA37106 
  60 003f E3C726A2 		.ascii	"\343\307&\242\240\033\222)\011\034d\232\205\030\013"
  60      A01B9229 
  60      091C649A 
  60      85180B
  61 004e 25061561 		.ascii	"%\006\025a\335\214&\376\305b\342 \306P\337\367\275\273"
  61      DD8C26FE 
  61      C562E220 
  61      C650DFF7 
  61      BDBB
  62 0060 F6AEBB5B 		.ascii	"\366\256\273[\2737y\336\367m\357y>\317\367}\356\355"
  62      BB3779DE 
  62      F76DEF79 
  62      3ECFF77D 
  62      EEED
  63 0072 FB96030E 		.ascii	"\373\226\003\016\246\000 O\332K+\000\216p\000>\362y"
  63      A600204F 
  63      DA4B2B00 
  63      8E70003E 
  63      F279
  64 0084 33145B0D 		.ascii	"3\024[\015\261\021b\243\304N\022;E\354\013bg\210}E\354"
  64      B11162A3 
  64      C44E123B 
  64      45EC0B62 
  64      67887D45 
  65 0099 1631446C 		.ascii	"\0261Dl\006\234m\3046G%\237\255F\231U\304f\211\035%"
  65      069C6DC4 
  65      3647259F 
  65      AD469955 
  65      C466891D 
  66 00ae 3647EC2C 		.ascii	"6G\354,\261q[\356Q3\366\226\231\357\214\231\377\224"
  66      B1715BEE 
  66      5133F696 
  66      99EF8C99 
  66      FF94
  67 00c0 A9C72D77 		.ascii	"\251\307-w#|\202\365\253\271\023s\277s\303X\037\300"
  67      237C82F5 
  67      ABB91373 
  67      BF73C358 
  67      1FC0
  68 00d2 64791885 		.ascii	"dy\030\205V\303\373\230\264\364>\214\221&\242\315\017"
  68      56C3FB98 
  68      B4F43E8C 
  68      9126A2CD 
  68      0F
  69 00e3 C1EB4844 		.ascii	"\301\353HDuA\010\261Im\020\374,ZDG\321js\266\313g\020"
  69      754108B1 
  69      496D10FC 
  69      2C5A4447 
ARM GAS  /tmp/ccFrmcKa.s 			page 5


  69      D16A73B6 
  70 00fa 39781241 		.ascii	"9x\022A\023\234$\361\203\030\367\257uY\014\300\0068"
  70      139C24F1 
  70      8318F7AF 
  70      75590CC0 
  70      0638
  71 010c 4113E04F 		.ascii	"A\023\340O\261\217\341)`\0045\332]Dt\014q\245R\323z"
  71      B18FE129 
  71      600435DA 
  71      5D44740C 
  71      71A552D3 
  72 0121 EEEEECC4 		.ascii	"\356\356\354\304\032\234\356\327\363\371\213/\230\002"
  72      1A9CEED7 
  72      F3F98B2F 
  72      9802
  73 012f 38101099 		.ascii	"8\020\020\231\036GMK&\030-M0\2668An0w\344\355\033}h"
  73      1E474D4B 
  73      26182D4D 
  73      30B63841 
  73      6E3077E4 
  74 0147 686F7A1A 		.ascii	"hoz\032\317\347\363\253\012)\016\242\322\034\006\344"
  74      CFE7F3AB 
  74      0A290EA2 
  74      D21C06E4 
  75 0157 3357C8AF 		.ascii	"3W\310\257W\356\254\035\306\227iA\367\024\020\031\017"
  75      57EEAC1D 
  75      C6976941 
  75      F7141019 
  75      0F
  76 0168 C4E7AE88 		.ascii	"\304\347\256\210\277\017f\374\213\020\003\234;\342\264"
  76      BF0F66FC 
  76      8B10039C 
  76      3BE2B4
  77 0177 2BE25CF6 		.ascii	"+\342\\\366{n\021b\302\003\361\245+b\341\372\037\015"
  77      7B6E1162 
  77      C203F1A5 
  77      2B62E1FA 
  77      1F0D
  78 0189 0544E5FB 		.ascii	"\005D\345\373b\334\334\027>`\320\225\360.\331\0134\360"
  78      62DCDC17 
  78      3E60D095 
  78      F02ED90B 
  78      34F0
  79 019b E5E9BA7A 		.ascii	"\345\351\272z\030b\024\002\231\256\003\013\201\253-"
  79      18621402 
  79      99AE030B 
  79      81AB2D
  80 01aa 469204AC 		.ascii	"F\222\004\254\207\343d\377\350\377\\G!\323=\344\351"
  80      87E364FF 
  80      E8FF5C47 
  80      21D33DE4 
  80      E9
  81 01bb 2BA27368 		.ascii	"+\242sh=\224u\243\216\223\250\336\\;K\200\365\363\331"
  81      3D9475A3 
  81      8E93A8DE 
  81      5C3B4B80 
  81      F5F3D9
ARM GAS  /tmp/ccFrmcKa.s 			page 6


  82 01ce 5AEC37BE 		.ascii	"Z\3547\276\007\227\252\230m\035\244\251\363\265\354"
  82      0797AA98 
  82      6D1DA4A9 
  82      F3B5EC
  83 01dd 6184D397 		.ascii	"a\204\323\227\221K\252\034\262R=\\T?\234E!\021\235'"
  83      914BAA1C 
  83      B2523D5C 
  83      543F9C45 
  83      21119D27 
  84 01f1 FE1C2C94 		.ascii	"\376\034,\224T\275,\203\312\271P*\367f\206\311\275P"
  84      54BD2C83 
  84      CAB9502A 
  84      F76686C9 
  84      BD50
  85 0203 81DC7E7D 		.ascii	"\201\334~}&sx\015\225\033\204\375\305\342\203\353+3"
  85      2673780D 
  85      951B84FD 
  85      C5E283EB 
  85      2B33
  86 0215 04E7263E 		.ascii	"\004\347&>\372\356\022\352'\357ED\227H\030\007c>\247"
  86      FAEE12EA 
  86      27EF4544 
  86      97481807 
  86      633EA7
  87 0228 EACA51D7 		.ascii	"\352\312Q\327nN\015\241\275\0145\305P\267KP\"\252\016"
  87      6E4E0DA1 
  87      BD0C35C5 
  87      50B74B50 
  87      22AA0E
  88 023b 3A3720F9 		.ascii	":7 \371l9P\036{lN\350\261\273\012\226\353\316\301_,"
  88      6C39501E 
  88      7B6C4EE8 
  88      B1BB0A96 
  88      EBCEC15F 
  89 0250 292D979B 		.ascii	")-\227\233Tsj4\323\301QB\262\373\377\363\321s\321g\025"
  89      54736A34 
  89      D3C15142 
  89      B2FBFFF3 
  89      D173D167 
  90 0265 E4CEB281 		.ascii	"\344\316\262\201!\307;Y\310\324\016\212\026l\241\022"
  90      21C73B59 
  90      C8D40E8A 
  90      166CA112 
  91 0275 588DA73A 		.ascii	"X\215\247:\375_;\354\376\262aNe\367\355\260\001\177"
  91      FD5F3BEC 
  91      FEB2614E 
  91      65F7EDB0 
  91      017F
  92 0287 05B007BD 		.ascii	"\005\260\007\275\225\035\312\332`\373\227\015s*\373"
  92      951DCADA 
  92      60FB970D 
  92      732AFB
  93 0296 C00E3B50 		.ascii	"\300\016;P\011\254\301E\231[\263\377\302Dt\221\234\""
  93      09ACC145 
  93      995BB3FF 
  93      C2447491 
  93      9C22
ARM GAS  /tmp/ccFrmcKa.s 			page 7


  94 02a8 22D2D13A 		.ascii	"\"\322\321:\322O\263\376\012\353\177`\375\217\254\277"
  94      D24FB3FE 
  94      0AEB7F60 
  94      FD8FACBF 
  95 02b8 CAFA2CE9 		.ascii	"\312\372,\351\013\215\203CL\323dQ\223\363\227\\n\233"
  95      0B8D8343 
  95      4CD36451 
  95      93F3975C 
  95      6E9B
  96 02ca 61FDE7D7 		.ascii	"a\375\347\327\350\002\215\203b\270\"\230c\205!\007l"
  96      E8028D83 
  96      62B82298 
  96      63852107 
  96      6C
  97 02db DE064B57 		.ascii	"\336\006KW\004{\326[\331\207\035E\330XE\260\260\213"
  97      047BD65B 
  97      D9871D45 
  97      D85845B0 
  97      B08B
  98 02ed 325BC18D 		.ascii	"2[\301\215R\177\303J\375-+\346O\254\277\301\372_\234"
  98      527FC34A 
  98      FD2D2BE6 
  98      4FACBFC1 
  98      FA5F9C
  99 0300 853DED2F 		.ascii	"\205=\355/=3\214\203\332\306+\236\350P\236\350u[\235"
  99      3D338C83 
  99      DAC62B9E 
  99      E8509EE8 
  99      755B9D
 100 0313 452B8B44 		.ascii	"E+\213D\353\217\014S0\351w\277,\177s\275,?\376S\277"
 100      EB8F0C53 
 100      30E977BF 
 100      2C7F73BD 
 100      2C3FFE53 
 101 0328 87FA8EED 		.ascii	"\207\372\216\355\323\007\373r\371=\215\326\215\213\253"
 101      D307FB72 
 101      F93D8DD6 
 101      8D8BAB
 102 0337 DC21B79D 		.ascii	"\334!\267\235\220Ga\004\317\017\346\356\2767\3230\331"
 102      90476104 
 102      CF0FE6EE 
 102      BE37D330 
 102      D9
 103 0348 8F07DEC1 		.ascii	"\217\007\336\301\370^\036\345\311\321\3635+\377\201"
 103      F85E1EE5 
 103      C9D1F335 
 103      2BFF81
 104 0357 02C5F37A 		.ascii	"\002\305\363z\313\025\201\216\033\327\020\342\265\372"
 104      CB15818E 
 104      1BD710E2 
 104      B5FA
 105 0365 D9E2EA4B 		.ascii	"\331\342\352K\242\306\227\210\232+F\301\023|4\321#\361"
 105      A2C69788 
 105      9A2B46C1 
 105      137C34D1 
 105      23F1
 106 0377 52B7C4B7 		.ascii	"R\267\304\267F\345NyG\007\237P\371\250\030#\003\351"
ARM GAS  /tmp/ccFrmcKa.s 			page 8


 106      46E54E79 
 106      47079F50 
 106      F9A81823 
 106      03E9
 107 0389 148D8D1B 		.ascii	"\024\215\215\033\243PC\307\355qY\013l{uW\250\025\036"
 107      A35043C7 
 107      ED71590B 
 107      6C7B7557 
 107      A8151E
 108 039c F30C5495 		.ascii	"\363\014T\225.:n\354\202\352\250\021\262\301\323W\216"
 108      2E3A6EEC 
 108      82EAA811 
 108      B2C1D357 
 108      8E
 109 03ad 77C55211 		.ascii	"w\305R\021\211W5\222\"\240j\324\3739O\357\316\204\250"
 109      89573592 
 109      22A06AD4 
 109      FB394FEF 
 109      CE84A8
 110 03c0 4454BE63 		.ascii	"DT\276c\247\320\261\363\225\226\346\266M-\233\332\236"
 110      A7D0B1F3 
 110      9596E6B6 
 110      4D2D9BDA 
 110      9E
 111 03d1 0E3F637C 		.ascii	"\016?c|O\000A6\241\214\246\362\031%Ef\013\013\250,\342"
 111      4F004136 
 111      A18CA6F2 
 111      19254566 
 111      0B0BA82C 
 112 03e6 F1B21152 		.ascii	"\361\262\021R/\025YM\006\352\377\274\247\1772\241hT"
 112      2F15594D 
 112      06EAFFBC 
 112      A77F32A1 
 112      6854
 113 03f8 2451C8B7 		.ascii	"$Q\310\267\267o\345\267\205\267\357x\243\231O\2121!"
 113      B76FE5B7 
 113      85B7EF78 
 113      A3994F8A 
 113      3121
 114 040a 16A332EB 		.ascii	"\026\2432\353U\255\247\245Y\330\235\224\023\202*i\251"
 114      55ADA7A5 
 114      59D89D94 
 114      13822A69 
 114      A9
 115 041b A4A03DC2 		.ascii	"\244\240=\302\247T\245\220).\275\031\223;IQ\"r\234\346"
 115      A754A590 
 115      292EBD19 
 115      933B4951 
 115      22729CE6 
 116 042f AC499191 		.ascii	"\254I\221\221DhO\271\271\365\210]Q9.\361BD\352\026S"
 116      44684FB9 
 116      B9F5885D 
 116      51392EF1 
 116      4244EA16 
 117 0444 314DD0DE 		.ascii	"1M\320\336JJ*\011[!\010V`UO\"\")\201\004}\244T'\324"
 117      4A4A2A09 
 117      5B210856 
ARM GAS  /tmp/ccFrmcKa.s 			page 9


 117      60554F22 
 117      22298104 
 118 045d A4244594 		.ascii	"\244$E\224\252d*\031Q|\211\210\342\027\273\225\030\355"
 118      AA642A19 
 118      517C8988 
 118      E217BB95 
 118      18ED
 119 046f A281F096 		.ascii	"\242\201\360\226\255\242&\006\302/\032C\2531\264\321"
 119      ADA22606 
 119      C22F1A43 
 119      AB31B4D1 
 120 047f 2118DED2 		.ascii	"!\030\336\322\336\232\210w\313\273\037\020\314\325\010"
 120      DE9A8877 
 120      CBBB1F10 
 120      CCD508
 121 048e F2922FCC 		.ascii	"\362\222/\314^\012\363\225\365\366\322'f%j\2436L=eZ"
 121      5E0AF395 
 121      F5F6D227 
 121      66256AA3 
 121      364C3D65 
 122 04a3 6BE86279 		.ascii	"k\350by\376\007\211c\355\011"
 122      FE078963 
 122      ED09
 123              		.text
 124              		.section	.gnu.lto_.symtab.ad4525e8882ad49c,"",%progbits
 125 0000 68616C49 		.ascii	"halInit\000\000\000\000\000\000\000\000\000\000\000"
 125      6E697400 
 125      00000000 
 125      00000000 
 125      0000
 126 0012 00A60000 		.ascii	"\000\246\000\000\000pal_default_config\000\000\002\000"
 126      0070616C 
 126      5F646566 
 126      61756C74 
 126      5F636F6E 
 127 002d 00000000 		.ascii	"\000\000\000\000\000\000\000\000\337\000\000\000stI"
 127      00000000 
 127      DF000000 
 127      737449
 128 003c 6E697400 		.ascii	"nit\000\000\002\000\000\000\000\000\000\000\000\000"
 128      00020000 
 128      00000000 
 128      000000
 129 004b A9000000 		.ascii	"\251\000\000\000boardInit\000\000\002\000\000\000\000"
 129      626F6172 
 129      64496E69 
 129      74000002 
 129      00000000 
 130 005f 00000000 		.ascii	"\000\000\000\000\000\253\000\000\000sdInit\000\000\002"
 130      00AB0000 
 130      00736449 
 130      6E697400 
 130      0002
 131 0071 00000000 		.ascii	"\000\000\000\000\000\000\000\000\000\255\000\000\000"
 131      00000000 
 131      00AD0000 
 131      00
ARM GAS  /tmp/ccFrmcKa.s 			page 10


 132 007e 65787449 		.ascii	"extInit\000\000\002\000\000\000\000\000\000\000\000"
 132      6E697400 
 132      00020000 
 132      00000000 
 132      0000
 133 0090 00AF0000 		.ascii	"\000\257\000\000\000_pal_lld_init\000\000\002\000\000"
 133      005F7061 
 133      6C5F6C6C 
 133      645F696E 
 133      69740000 
 134 00a7 00000000 		.ascii	"\000\000\000\000\000\000\000\261\000\000\000hal_lld"
 134      000000B1 
 134      00000068 
 134      616C5F6C 
 134      6C64
 135 00b9 5F696E69 		.ascii	"_init\000\000\002\000\000\000\000\000\000\000\000\000"
 135      74000002 
 135      00000000 
 135      00000000 
 135      00
 136 00ca DD000000 		.ascii	"\335\000\000\000"
 137              		.text
 138              		.section	.gnu.lto_.opts,"",%progbits
 139 0000 272D6D63 		.ascii	"'-mcpu=cortex-m0' '-mno-thumb-interwork' '-mthumb' "
 139      70753D63 
 139      6F727465 
 139      782D6D30 
 139      2720272D 
 140 0033 272D6767 		.ascii	"'-ggdb' '-O0' '-fomit-frame-pointer' '-falign-funct"
 140      64622720 
 140      272D4F30 
 140      2720272D 
 140      666F6D69 
 141 0066 696F6E73 		.ascii	"ions=16' '-ffunction-sections' '-fdata-sections' '-"
 141      3D313627 
 141      20272D66 
 141      66756E63 
 141      74696F6E 
 142 0099 666E6F2D 		.ascii	"fno-common' '-flto'\000"
 142      636F6D6D 
 142      6F6E2720 
 142      272D666C 
 142      746F2700 
 143              		.text
 144              		.cfi_sections	.debug_frame
 145              		.section	.text.osalInit,"ax",%progbits
 146              		.align	2
 147              		.p2align 4,,15
 148              		.code	16
 149              		.thumb_func
 150              		.type	osalInit, %function
 151              	osalInit:
 152              	.LFB119:
 153              		.file 1 "/home/efe/ChibiOS/os/hal/osal/rt/osal.h"
 154              		.loc 1 449 0
 155              		.cfi_startproc
 156              		.loc 1 451 0
ARM GAS  /tmp/ccFrmcKa.s 			page 11


 157              		@ sp needed
 158 0000 7047     		bx	lr
 159              		.cfi_endproc
 160              	.LFE119:
 161              		.size	osalInit, .-osalInit
 162 0002 C046C046 		.section	.text.halInit,"ax",%progbits
 162      C046C046 
 162      C046C046 
 162      C046
 163              		.align	2
 164              		.p2align 4,,15
 165              		.global	halInit
 166              		.code	16
 167              		.thumb_func
 168              		.type	halInit, %function
 169              	halInit:
 170              	.LFB149:
 171              		.file 2 "/home/efe/ChibiOS/os/hal/src/hal.c"
 172              		.loc 2 56 0
 173              		.cfi_startproc
 174 0000 08B5     		push	{r3, lr}
 175              		.cfi_def_cfa_offset 8
 176              		.cfi_offset 3, -8
 177              		.cfi_offset 14, -4
 178              		.loc 2 59 0
 179 0002 FFF7FEFF 		bl	osalInit
 180              		.loc 2 62 0
 181 0006 FFF7FEFF 		bl	hal_lld_init
 182              		.loc 2 65 0
 183 000a 064B     		ldr	r3, .L3
 184 000c 181C     		mov	r0, r3
 185 000e FFF7FEFF 		bl	_pal_lld_init
 186              		.loc 2 77 0
 187 0012 FFF7FEFF 		bl	extInit
 188              		.loc 2 98 0
 189 0016 FFF7FEFF 		bl	sdInit
 190              		.loc 2 130 0
 191 001a FFF7FEFF 		bl	boardInit
 192              		.loc 2 137 0
 193 001e FFF7FEFF 		bl	stInit
 194              		.loc 2 139 0
 195              		@ sp needed
 196 0022 08BD     		pop	{r3, pc}
 197              	.L4:
 198              		.align	2
 199              	.L3:
 200 0024 00000000 		.word	pal_default_config
 201              		.cfi_endproc
 202              	.LFE149:
 203              		.size	halInit, .-halInit
 204 0028 C046C046 		.text
 204      C046C046 
 205              	.Letext0:
 206              		.file 3 "/usr/include/newlib/machine/_default_types.h"
 207              		.file 4 "/usr/include/newlib/stdint.h"
 208              		.file 5 "/home/efe/ChibiOS/os/rt/ports/ARMCMx/compilers/GCC/chtypes.h"
 209              		.file 6 "/home/efe/ChibiOS/os/rt/include/chsystypes.h"
ARM GAS  /tmp/ccFrmcKa.s 			page 12


 210              		.file 7 "/home/efe/ChibiOS/os/rt/include/chschd.h"
 211              		.file 8 "/home/efe/ChibiOS/os/rt/ports/ARMCMx/chcore.h"
 212              		.file 9 "/home/efe/ChibiOS/os/rt/ports/ARMCMx/chcore_v6m.h"
 213              		.file 10 "/home/efe/ChibiOS/os/rt/include/chsem.h"
 214              		.file 11 "/home/efe/ChibiOS/os/rt/include/chmtx.h"
 215              		.file 12 "/home/efe/ChibiOS/os/hal/ports/STM32/LLD/GPIOv2/pal_lld.h"
 216              		.section	.debug_info,"",%progbits
 217              	.Ldebug_info0:
 218 0000 7E060000 		.4byte	0x67e
 219 0004 0400     		.2byte	0x4
 220 0006 00000000 		.4byte	.Ldebug_abbrev0
 221 000a 04       		.byte	0x4
 222 000b 01       		.uleb128 0x1
 223 000c 85020000 		.4byte	.LASF106
 224 0010 01       		.byte	0x1
 225 0011 0F010000 		.4byte	.LASF107
 226 0015 00000000 		.4byte	.Ldebug_ranges0+0
 227 0019 00000000 		.4byte	0
 228 001d 00000000 		.4byte	.Ldebug_line0
 229 0021 02       		.uleb128 0x2
 230 0022 04       		.byte	0x4
 231 0023 05       		.byte	0x5
 232 0024 696E7400 		.ascii	"int\000"
 233 0028 03       		.uleb128 0x3
 234 0029 04       		.byte	0x4
 235 002a 07       		.byte	0x7
 236 002b 48020000 		.4byte	.LASF0
 237 002f 03       		.uleb128 0x3
 238 0030 01       		.byte	0x1
 239 0031 06       		.byte	0x6
 240 0032 14020000 		.4byte	.LASF1
 241 0036 04       		.uleb128 0x4
 242 0037 C5010000 		.4byte	.LASF4
 243 003b 03       		.byte	0x3
 244 003c 1D       		.byte	0x1d
 245 003d 41000000 		.4byte	0x41
 246 0041 03       		.uleb128 0x3
 247 0042 01       		.byte	0x1
 248 0043 08       		.byte	0x8
 249 0044 06020000 		.4byte	.LASF2
 250 0048 03       		.uleb128 0x3
 251 0049 02       		.byte	0x2
 252 004a 05       		.byte	0x5
 253 004b 45000000 		.4byte	.LASF3
 254 004f 04       		.uleb128 0x4
 255 0050 84000000 		.4byte	.LASF5
 256 0054 03       		.byte	0x3
 257 0055 2B       		.byte	0x2b
 258 0056 5A000000 		.4byte	0x5a
 259 005a 03       		.uleb128 0x3
 260 005b 02       		.byte	0x2
 261 005c 07       		.byte	0x7
 262 005d 18040000 		.4byte	.LASF6
 263 0061 04       		.uleb128 0x4
 264 0062 50040000 		.4byte	.LASF7
 265 0066 03       		.byte	0x3
 266 0067 3F       		.byte	0x3f
ARM GAS  /tmp/ccFrmcKa.s 			page 13


 267 0068 6C000000 		.4byte	0x6c
 268 006c 03       		.uleb128 0x3
 269 006d 04       		.byte	0x4
 270 006e 05       		.byte	0x5
 271 006f 92010000 		.4byte	.LASF8
 272 0073 04       		.uleb128 0x4
 273 0074 2B040000 		.4byte	.LASF9
 274 0078 03       		.byte	0x3
 275 0079 41       		.byte	0x41
 276 007a 7E000000 		.4byte	0x7e
 277 007e 03       		.uleb128 0x3
 278 007f 04       		.byte	0x4
 279 0080 07       		.byte	0x7
 280 0081 FC030000 		.4byte	.LASF10
 281 0085 03       		.uleb128 0x3
 282 0086 08       		.byte	0x8
 283 0087 05       		.byte	0x5
 284 0088 56010000 		.4byte	.LASF11
 285 008c 04       		.uleb128 0x4
 286 008d C9030000 		.4byte	.LASF12
 287 0091 03       		.byte	0x3
 288 0092 5B       		.byte	0x5b
 289 0093 97000000 		.4byte	0x97
 290 0097 03       		.uleb128 0x3
 291 0098 08       		.byte	0x8
 292 0099 07       		.byte	0x7
 293 009a 28020000 		.4byte	.LASF13
 294 009e 04       		.uleb128 0x4
 295 009f E5000000 		.4byte	.LASF14
 296 00a3 04       		.byte	0x4
 297 00a4 2A       		.byte	0x2a
 298 00a5 36000000 		.4byte	0x36
 299 00a9 04       		.uleb128 0x4
 300 00aa 55020000 		.4byte	.LASF15
 301 00ae 04       		.byte	0x4
 302 00af 36       		.byte	0x36
 303 00b0 4F000000 		.4byte	0x4f
 304 00b4 04       		.uleb128 0x4
 305 00b5 07010000 		.4byte	.LASF16
 306 00b9 04       		.byte	0x4
 307 00ba 41       		.byte	0x41
 308 00bb 61000000 		.4byte	0x61
 309 00bf 04       		.uleb128 0x4
 310 00c0 3F020000 		.4byte	.LASF17
 311 00c4 04       		.byte	0x4
 312 00c5 42       		.byte	0x42
 313 00c6 73000000 		.4byte	0x73
 314 00ca 04       		.uleb128 0x4
 315 00cb 31000000 		.4byte	.LASF18
 316 00cf 04       		.byte	0x4
 317 00d0 4E       		.byte	0x4e
 318 00d1 8C000000 		.4byte	0x8c
 319 00d5 04       		.uleb128 0x4
 320 00d6 4E010000 		.4byte	.LASF19
 321 00da 05       		.byte	0x5
 322 00db 3C       		.byte	0x3c
 323 00dc 9E000000 		.4byte	0x9e
ARM GAS  /tmp/ccFrmcKa.s 			page 14


 324 00e0 04       		.uleb128 0x4
 325 00e1 79040000 		.4byte	.LASF20
 326 00e5 05       		.byte	0x5
 327 00e6 3D       		.byte	0x3d
 328 00e7 9E000000 		.4byte	0x9e
 329 00eb 04       		.uleb128 0x4
 330 00ec 6B010000 		.4byte	.LASF21
 331 00f0 05       		.byte	0x5
 332 00f1 40       		.byte	0x40
 333 00f2 BF000000 		.4byte	0xbf
 334 00f6 04       		.uleb128 0x4
 335 00f7 FE040000 		.4byte	.LASF22
 336 00fb 05       		.byte	0x5
 337 00fc 41       		.byte	0x41
 338 00fd B4000000 		.4byte	0xb4
 339 0101 04       		.uleb128 0x4
 340 0102 A2030000 		.4byte	.LASF23
 341 0106 05       		.byte	0x5
 342 0107 45       		.byte	0x45
 343 0108 B4000000 		.4byte	0xb4
 344 010c 04       		.uleb128 0x4
 345 010d 65030000 		.4byte	.LASF24
 346 0111 06       		.byte	0x6
 347 0112 35       		.byte	0x35
 348 0113 A9000000 		.4byte	0xa9
 349 0117 04       		.uleb128 0x4
 350 0118 00000000 		.4byte	.LASF25
 351 011c 06       		.byte	0x6
 352 011d 3F       		.byte	0x3f
 353 011e 22010000 		.4byte	0x122
 354 0122 05       		.uleb128 0x5
 355 0123 32010000 		.4byte	.LASF40
 356 0127 30       		.byte	0x30
 357 0128 07       		.byte	0x7
 358 0129 C2       		.byte	0xc2
 359 012a CF010000 		.4byte	0x1cf
 360 012e 06       		.uleb128 0x6
 361 012f 49040000 		.4byte	.LASF26
 362 0133 07       		.byte	0x7
 363 0134 C3       		.byte	0xc3
 364 0135 DA010000 		.4byte	0x1da
 365 0139 00       		.byte	0
 366 013a 06       		.uleb128 0x6
 367 013b 6E000000 		.4byte	.LASF27
 368 013f 07       		.byte	0x7
 369 0140 C5       		.byte	0xc5
 370 0141 DA010000 		.4byte	0x1da
 371 0145 04       		.byte	0x4
 372 0146 06       		.uleb128 0x6
 373 0147 97000000 		.4byte	.LASF28
 374 014b 07       		.byte	0x7
 375 014c C7       		.byte	0xc7
 376 014d EB000000 		.4byte	0xeb
 377 0151 08       		.byte	0x8
 378 0152 06       		.uleb128 0x6
 379 0153 E9040000 		.4byte	.LASF29
 380 0157 07       		.byte	0x7
ARM GAS  /tmp/ccFrmcKa.s 			page 15


 381 0158 C8       		.byte	0xc8
 382 0159 FE030000 		.4byte	0x3fe
 383 015d 0C       		.byte	0xc
 384 015e 06       		.uleb128 0x6
 385 015f 20020000 		.4byte	.LASF30
 386 0163 07       		.byte	0x7
 387 0164 CA       		.byte	0xca
 388 0165 DA010000 		.4byte	0x1da
 389 0169 10       		.byte	0x10
 390 016a 06       		.uleb128 0x6
 391 016b AA040000 		.4byte	.LASF31
 392 016f 07       		.byte	0x7
 393 0170 CB       		.byte	0xcb
 394 0171 DA010000 		.4byte	0x1da
 395 0175 14       		.byte	0x14
 396 0176 06       		.uleb128 0x6
 397 0177 64010000 		.4byte	.LASF32
 398 017b 07       		.byte	0x7
 399 017c D2       		.byte	0xd2
 400 017d 48050000 		.4byte	0x548
 401 0181 18       		.byte	0x18
 402 0182 06       		.uleb128 0x6
 403 0183 93030000 		.4byte	.LASF33
 404 0187 07       		.byte	0x7
 405 0188 DD       		.byte	0xdd
 406 0189 E0000000 		.4byte	0xe0
 407 018d 1C       		.byte	0x1c
 408 018e 06       		.uleb128 0x6
 409 018f 49030000 		.4byte	.LASF34
 410 0193 07       		.byte	0x7
 411 0194 E1       		.byte	0xe1
 412 0195 D5000000 		.4byte	0xd5
 413 0199 1D       		.byte	0x1d
 414 019a 07       		.uleb128 0x7
 415 019b 705F7500 		.ascii	"p_u\000"
 416 019f 07       		.byte	0x7
 417 01a0 3101     		.2byte	0x131
 418 01a2 8F040000 		.4byte	0x48f
 419 01a6 20       		.byte	0x20
 420 01a7 08       		.uleb128 0x8
 421 01a8 BF030000 		.4byte	.LASF35
 422 01ac 07       		.byte	0x7
 423 01ad 3601     		.2byte	0x136
 424 01af E0010000 		.4byte	0x1e0
 425 01b3 24       		.byte	0x24
 426 01b4 08       		.uleb128 0x8
 427 01b5 D4030000 		.4byte	.LASF36
 428 01b9 07       		.byte	0x7
 429 01ba 4D01     		.2byte	0x14d
 430 01bc 42050000 		.4byte	0x542
 431 01c0 28       		.byte	0x28
 432 01c1 08       		.uleb128 0x8
 433 01c2 5A030000 		.4byte	.LASF37
 434 01c6 07       		.byte	0x7
 435 01c7 5101     		.2byte	0x151
 436 01c9 EB000000 		.4byte	0xeb
 437 01cd 2C       		.byte	0x2c
ARM GAS  /tmp/ccFrmcKa.s 			page 16


 438 01ce 00       		.byte	0
 439 01cf 04       		.uleb128 0x4
 440 01d0 5A040000 		.4byte	.LASF38
 441 01d4 06       		.byte	0x6
 442 01d5 44       		.byte	0x44
 443 01d6 DA010000 		.4byte	0x1da
 444 01da 09       		.uleb128 0x9
 445 01db 04       		.byte	0x4
 446 01dc 17010000 		.4byte	0x117
 447 01e0 04       		.uleb128 0x4
 448 01e1 0B050000 		.4byte	.LASF39
 449 01e5 06       		.byte	0x6
 450 01e6 49       		.byte	0x49
 451 01e7 EB010000 		.4byte	0x1eb
 452 01eb 05       		.uleb128 0x5
 453 01ec 9E000000 		.4byte	.LASF41
 454 01f0 04       		.byte	0x4
 455 01f1 07       		.byte	0x7
 456 01f2 B0       		.byte	0xb0
 457 01f3 04020000 		.4byte	0x204
 458 01f7 06       		.uleb128 0x6
 459 01f8 49040000 		.4byte	.LASF26
 460 01fc 07       		.byte	0x7
 461 01fd B1       		.byte	0xb1
 462 01fe DA010000 		.4byte	0x1da
 463 0202 00       		.byte	0
 464 0203 00       		.byte	0
 465 0204 04       		.uleb128 0x4
 466 0205 11000000 		.4byte	.LASF42
 467 0209 06       		.byte	0x6
 468 020a 50       		.byte	0x50
 469 020b 0F020000 		.4byte	0x20f
 470 020f 05       		.uleb128 0x5
 471 0210 ED000000 		.4byte	.LASF43
 472 0214 08       		.byte	0x8
 473 0215 07       		.byte	0x7
 474 0216 B7       		.byte	0xb7
 475 0217 34020000 		.4byte	0x234
 476 021b 06       		.uleb128 0x6
 477 021c 49040000 		.4byte	.LASF26
 478 0220 07       		.byte	0x7
 479 0221 B8       		.byte	0xb8
 480 0222 DA010000 		.4byte	0x1da
 481 0226 00       		.byte	0
 482 0227 06       		.uleb128 0x6
 483 0228 6E000000 		.4byte	.LASF27
 484 022c 07       		.byte	0x7
 485 022d B9       		.byte	0xb9
 486 022e DA010000 		.4byte	0x1da
 487 0232 04       		.byte	0x4
 488 0233 00       		.byte	0
 489 0234 04       		.uleb128 0x4
 490 0235 BC000000 		.4byte	.LASF44
 491 0239 06       		.byte	0x6
 492 023a 57       		.byte	0x57
 493 023b 3F020000 		.4byte	0x23f
 494 023f 0A       		.uleb128 0xa
ARM GAS  /tmp/ccFrmcKa.s 			page 17


 495 0240 DB040000 		.4byte	.LASF45
 496 0244 1C       		.byte	0x1c
 497 0245 07       		.byte	0x7
 498 0246 9001     		.2byte	0x190
 499 0248 9B020000 		.4byte	0x29b
 500 024c 08       		.uleb128 0x8
 501 024d 4F000000 		.4byte	.LASF46
 502 0251 07       		.byte	0x7
 503 0252 9101     		.2byte	0x191
 504 0254 04020000 		.4byte	0x204
 505 0258 00       		.byte	0
 506 0259 08       		.uleb128 0x8
 507 025a 9B030000 		.4byte	.LASF47
 508 025e 07       		.byte	0x7
 509 025f 9201     		.2byte	0x192
 510 0261 EB000000 		.4byte	0xeb
 511 0265 08       		.byte	0x8
 512 0266 08       		.uleb128 0x8
 513 0267 3B030000 		.4byte	.LASF48
 514 026b 07       		.byte	0x7
 515 026c 9401     		.2byte	0x194
 516 026e FE030000 		.4byte	0x3fe
 517 0272 0C       		.byte	0xc
 518 0273 08       		.uleb128 0x8
 519 0274 41030000 		.4byte	.LASF49
 520 0278 07       		.byte	0x7
 521 0279 9701     		.2byte	0x197
 522 027b DA010000 		.4byte	0x1da
 523 027f 10       		.byte	0x10
 524 0280 08       		.uleb128 0x8
 525 0281 09000000 		.4byte	.LASF50
 526 0285 07       		.byte	0x7
 527 0286 9801     		.2byte	0x198
 528 0288 DA010000 		.4byte	0x1da
 529 028c 14       		.byte	0x14
 530 028d 08       		.uleb128 0x8
 531 028e DF010000 		.4byte	.LASF51
 532 0292 07       		.byte	0x7
 533 0293 9B01     		.2byte	0x19b
 534 0295 DA010000 		.4byte	0x1da
 535 0299 18       		.byte	0x18
 536 029a 00       		.byte	0
 537 029b 04       		.uleb128 0x4
 538 029c 9B040000 		.4byte	.LASF52
 539 02a0 06       		.byte	0x6
 540 02a1 5C       		.byte	0x5c
 541 02a2 A6020000 		.4byte	0x2a6
 542 02a6 09       		.uleb128 0x9
 543 02a7 04       		.byte	0x4
 544 02a8 AC020000 		.4byte	0x2ac
 545 02ac 0B       		.uleb128 0xb
 546 02ad B7020000 		.4byte	0x2b7
 547 02b1 0C       		.uleb128 0xc
 548 02b2 B7020000 		.4byte	0x2b7
 549 02b6 00       		.byte	0
 550 02b7 0D       		.uleb128 0xd
 551 02b8 04       		.byte	0x4
ARM GAS  /tmp/ccFrmcKa.s 			page 18


 552 02b9 04       		.uleb128 0x4
 553 02ba AD010000 		.4byte	.LASF53
 554 02be 06       		.byte	0x6
 555 02bf 61       		.byte	0x61
 556 02c0 C4020000 		.4byte	0x2c4
 557 02c4 0A       		.uleb128 0xa
 558 02c5 82030000 		.4byte	.LASF54
 559 02c9 14       		.byte	0x14
 560 02ca 07       		.byte	0x7
 561 02cb 6B01     		.2byte	0x16b
 562 02cd 13030000 		.4byte	0x313
 563 02d1 08       		.uleb128 0x8
 564 02d2 5E020000 		.4byte	.LASF55
 565 02d6 07       		.byte	0x7
 566 02d7 6C01     		.2byte	0x16c
 567 02d9 5A050000 		.4byte	0x55a
 568 02dd 00       		.byte	0
 569 02de 08       		.uleb128 0x8
 570 02df D7010000 		.4byte	.LASF56
 571 02e3 07       		.byte	0x7
 572 02e4 6D01     		.2byte	0x16d
 573 02e6 5A050000 		.4byte	0x55a
 574 02ea 04       		.byte	0x4
 575 02eb 08       		.uleb128 0x8
 576 02ec 51030000 		.4byte	.LASF57
 577 02f0 07       		.byte	0x7
 578 02f1 6E01     		.2byte	0x16e
 579 02f3 0C010000 		.4byte	0x10c
 580 02f7 08       		.byte	0x8
 581 02f8 08       		.uleb128 0x8
 582 02f9 8F000000 		.4byte	.LASF58
 583 02fd 07       		.byte	0x7
 584 02fe 6F01     		.2byte	0x16f
 585 0300 9B020000 		.4byte	0x29b
 586 0304 0C       		.byte	0xc
 587 0305 08       		.uleb128 0x8
 588 0306 B5000000 		.4byte	.LASF59
 589 030a 07       		.byte	0x7
 590 030b 7101     		.2byte	0x171
 591 030d B7020000 		.4byte	0x2b7
 592 0311 10       		.byte	0x10
 593 0312 00       		.byte	0
 594 0313 04       		.uleb128 0x4
 595 0314 C5040000 		.4byte	.LASF60
 596 0318 06       		.byte	0x6
 597 0319 66       		.byte	0x66
 598 031a 1E030000 		.4byte	0x31e
 599 031e 0A       		.uleb128 0xa
 600 031f 73010000 		.4byte	.LASF61
 601 0323 0C       		.byte	0xc
 602 0324 07       		.byte	0x7
 603 0325 7B01     		.2byte	0x17b
 604 0327 60030000 		.4byte	0x360
 605 032b 08       		.uleb128 0x8
 606 032c 5E020000 		.4byte	.LASF55
 607 0330 07       		.byte	0x7
 608 0331 7C01     		.2byte	0x17c
ARM GAS  /tmp/ccFrmcKa.s 			page 19


 609 0333 5A050000 		.4byte	0x55a
 610 0337 00       		.byte	0
 611 0338 08       		.uleb128 0x8
 612 0339 D7010000 		.4byte	.LASF56
 613 033d 07       		.byte	0x7
 614 033e 7E01     		.2byte	0x17e
 615 0340 5A050000 		.4byte	0x55a
 616 0344 04       		.byte	0x4
 617 0345 08       		.uleb128 0x8
 618 0346 51030000 		.4byte	.LASF57
 619 034a 07       		.byte	0x7
 620 034b 8001     		.2byte	0x180
 621 034d 0C010000 		.4byte	0x10c
 622 0351 08       		.byte	0x8
 623 0352 08       		.uleb128 0x8
 624 0353 42010000 		.4byte	.LASF62
 625 0357 07       		.byte	0x7
 626 0358 8801     		.2byte	0x188
 627 035a 0C010000 		.4byte	0x10c
 628 035e 0A       		.byte	0xa
 629 035f 00       		.byte	0
 630 0360 04       		.uleb128 0x4
 631 0361 75000000 		.4byte	.LASF63
 632 0365 06       		.byte	0x6
 633 0366 6B       		.byte	0x6b
 634 0367 6B030000 		.4byte	0x36b
 635 036b 0A       		.uleb128 0xa
 636 036c 21000000 		.4byte	.LASF64
 637 0370 04       		.byte	0x4
 638 0371 07       		.byte	0x7
 639 0372 A201     		.2byte	0x1a2
 640 0374 86030000 		.4byte	0x386
 641 0378 08       		.uleb128 0x8
 642 0379 0E040000 		.4byte	.LASF65
 643 037d 07       		.byte	0x7
 644 037e AA01     		.2byte	0x1aa
 645 0380 60050000 		.4byte	0x560
 646 0384 00       		.byte	0
 647 0385 00       		.byte	0
 648 0386 04       		.uleb128 0x4
 649 0387 C9000000 		.4byte	.LASF66
 650 038b 06       		.byte	0x6
 651 038c 70       		.byte	0x70
 652 038d 91030000 		.4byte	0x391
 653 0391 0E       		.uleb128 0xe
 654 0392 9B010000 		.4byte	.LASF67
 655 0396 2801     		.2byte	0x128
 656 0398 07       		.byte	0x7
 657 0399 C201     		.2byte	0x1c2
 658 039b E1030000 		.4byte	0x3e1
 659 039f 08       		.uleb128 0x8
 660 03a0 6F030000 		.4byte	.LASF68
 661 03a4 07       		.byte	0x7
 662 03a5 C601     		.2byte	0x1c6
 663 03a7 34020000 		.4byte	0x234
 664 03ab 00       		.byte	0
 665 03ac 08       		.uleb128 0x8
ARM GAS  /tmp/ccFrmcKa.s 			page 20


 666 03ad AE000000 		.4byte	.LASF69
 667 03b1 07       		.byte	0x7
 668 03b2 CA01     		.2byte	0x1ca
 669 03b4 13030000 		.4byte	0x313
 670 03b8 1C       		.byte	0x1c
 671 03b9 07       		.uleb128 0x7
 672 03ba 64626700 		.ascii	"dbg\000"
 673 03be 07       		.byte	0x7
 674 03bf CE01     		.2byte	0x1ce
 675 03c1 60030000 		.4byte	0x360
 676 03c5 28       		.byte	0x28
 677 03c6 08       		.uleb128 0x8
 678 03c7 3A000000 		.4byte	.LASF70
 679 03cb 07       		.byte	0x7
 680 03cc D201     		.2byte	0x1d2
 681 03ce 17010000 		.4byte	0x117
 682 03d2 2C       		.byte	0x2c
 683 03d3 08       		.uleb128 0x8
 684 03d4 DE030000 		.4byte	.LASF71
 685 03d8 07       		.byte	0x7
 686 03d9 E301     		.2byte	0x1e3
 687 03db 65050000 		.4byte	0x565
 688 03df 60       		.byte	0x60
 689 03e0 00       		.byte	0
 690 03e1 03       		.uleb128 0x3
 691 03e2 04       		.byte	0x4
 692 03e3 07       		.byte	0x7
 693 03e4 5E000000 		.4byte	.LASF72
 694 03e8 04       		.uleb128 0x4
 695 03e9 D5000000 		.4byte	.LASF73
 696 03ed 08       		.byte	0x8
 697 03ee 65       		.byte	0x65
 698 03ef B7020000 		.4byte	0x2b7
 699 03f3 04       		.uleb128 0x4
 700 03f4 82040000 		.4byte	.LASF74
 701 03f8 08       		.byte	0x8
 702 03f9 6D       		.byte	0x6d
 703 03fa CA000000 		.4byte	0xca
 704 03fe 05       		.uleb128 0x5
 705 03ff CF010000 		.4byte	.LASF75
 706 0403 04       		.byte	0x4
 707 0404 08       		.byte	0x8
 708 0405 89       		.byte	0x89
 709 0406 17040000 		.4byte	0x417
 710 040a 0F       		.uleb128 0xf
 711 040b 72313300 		.ascii	"r13\000"
 712 040f 08       		.byte	0x8
 713 0410 8A       		.byte	0x8a
 714 0411 89040000 		.4byte	0x489
 715 0415 00       		.byte	0
 716 0416 00       		.byte	0
 717 0417 05       		.uleb128 0x5
 718 0418 79020000 		.4byte	.LASF76
 719 041c 24       		.byte	0x24
 720 041d 09       		.byte	0x9
 721 041e A4       		.byte	0xa4
 722 041f 89040000 		.4byte	0x489
ARM GAS  /tmp/ccFrmcKa.s 			page 21


 723 0423 0F       		.uleb128 0xf
 724 0424 723800   		.ascii	"r8\000"
 725 0427 09       		.byte	0x9
 726 0428 A5       		.byte	0xa5
 727 0429 E8030000 		.4byte	0x3e8
 728 042d 00       		.byte	0
 729 042e 0F       		.uleb128 0xf
 730 042f 723900   		.ascii	"r9\000"
 731 0432 09       		.byte	0x9
 732 0433 A6       		.byte	0xa6
 733 0434 E8030000 		.4byte	0x3e8
 734 0438 04       		.byte	0x4
 735 0439 0F       		.uleb128 0xf
 736 043a 72313000 		.ascii	"r10\000"
 737 043e 09       		.byte	0x9
 738 043f A7       		.byte	0xa7
 739 0440 E8030000 		.4byte	0x3e8
 740 0444 08       		.byte	0x8
 741 0445 0F       		.uleb128 0xf
 742 0446 72313100 		.ascii	"r11\000"
 743 044a 09       		.byte	0x9
 744 044b A8       		.byte	0xa8
 745 044c E8030000 		.4byte	0x3e8
 746 0450 0C       		.byte	0xc
 747 0451 0F       		.uleb128 0xf
 748 0452 723400   		.ascii	"r4\000"
 749 0455 09       		.byte	0x9
 750 0456 A9       		.byte	0xa9
 751 0457 E8030000 		.4byte	0x3e8
 752 045b 10       		.byte	0x10
 753 045c 0F       		.uleb128 0xf
 754 045d 723500   		.ascii	"r5\000"
 755 0460 09       		.byte	0x9
 756 0461 AA       		.byte	0xaa
 757 0462 E8030000 		.4byte	0x3e8
 758 0466 14       		.byte	0x14
 759 0467 0F       		.uleb128 0xf
 760 0468 723600   		.ascii	"r6\000"
 761 046b 09       		.byte	0x9
 762 046c AB       		.byte	0xab
 763 046d E8030000 		.4byte	0x3e8
 764 0471 18       		.byte	0x18
 765 0472 0F       		.uleb128 0xf
 766 0473 723700   		.ascii	"r7\000"
 767 0476 09       		.byte	0x9
 768 0477 AC       		.byte	0xac
 769 0478 E8030000 		.4byte	0x3e8
 770 047c 1C       		.byte	0x1c
 771 047d 0F       		.uleb128 0xf
 772 047e 6C7200   		.ascii	"lr\000"
 773 0481 09       		.byte	0x9
 774 0482 AD       		.byte	0xad
 775 0483 E8030000 		.4byte	0x3e8
 776 0487 20       		.byte	0x20
 777 0488 00       		.byte	0
 778 0489 09       		.uleb128 0x9
 779 048a 04       		.byte	0x4
ARM GAS  /tmp/ccFrmcKa.s 			page 22


 780 048b 17040000 		.4byte	0x417
 781 048f 10       		.uleb128 0x10
 782 0490 04       		.byte	0x4
 783 0491 07       		.byte	0x7
 784 0492 FA       		.byte	0xfa
 785 0493 E0040000 		.4byte	0x4e0
 786 0497 11       		.uleb128 0x11
 787 0498 F7040000 		.4byte	.LASF77
 788 049c 07       		.byte	0x7
 789 049d 0101     		.2byte	0x101
 790 049f F6000000 		.4byte	0xf6
 791 04a3 11       		.uleb128 0x11
 792 04a4 8D040000 		.4byte	.LASF78
 793 04a8 07       		.byte	0x7
 794 04a9 0801     		.2byte	0x108
 795 04ab F6000000 		.4byte	0xf6
 796 04af 11       		.uleb128 0x11
 797 04b0 6D040000 		.4byte	.LASF79
 798 04b4 07       		.byte	0x7
 799 04b5 0F01     		.2byte	0x10f
 800 04b7 B7020000 		.4byte	0x2b7
 801 04bb 11       		.uleb128 0x11
 802 04bc 36040000 		.4byte	.LASF80
 803 04c0 07       		.byte	0x7
 804 04c1 1601     		.2byte	0x116
 805 04c3 E0040000 		.4byte	0x4e0
 806 04c7 11       		.uleb128 0x11
 807 04c8 F5030000 		.4byte	.LASF81
 808 04cc 07       		.byte	0x7
 809 04cd 1E01     		.2byte	0x11e
 810 04cf 0B050000 		.4byte	0x50b
 811 04d3 11       		.uleb128 0x11
 812 04d4 04050000 		.4byte	.LASF82
 813 04d8 07       		.byte	0x7
 814 04d9 2701     		.2byte	0x127
 815 04db 42050000 		.4byte	0x542
 816 04df 00       		.byte	0
 817 04e0 09       		.uleb128 0x9
 818 04e1 04       		.byte	0x4
 819 04e2 CF010000 		.4byte	0x1cf
 820 04e6 05       		.uleb128 0x5
 821 04e7 3C040000 		.4byte	.LASF83
 822 04eb 0C       		.byte	0xc
 823 04ec 0A       		.byte	0xa
 824 04ed 34       		.byte	0x34
 825 04ee 0B050000 		.4byte	0x50b
 826 04f2 06       		.uleb128 0x6
 827 04f3 7A030000 		.4byte	.LASF84
 828 04f7 0A       		.byte	0xa
 829 04f8 35       		.byte	0x35
 830 04f9 04020000 		.4byte	0x204
 831 04fd 00       		.byte	0
 832 04fe 06       		.uleb128 0x6
 833 04ff F9010000 		.4byte	.LASF85
 834 0503 0A       		.byte	0xa
 835 0504 37       		.byte	0x37
 836 0505 01010000 		.4byte	0x101
ARM GAS  /tmp/ccFrmcKa.s 			page 23


 837 0509 08       		.byte	0x8
 838 050a 00       		.byte	0
 839 050b 09       		.uleb128 0x9
 840 050c 04       		.byte	0x4
 841 050d E6040000 		.4byte	0x4e6
 842 0511 05       		.uleb128 0x5
 843 0512 FE000000 		.4byte	.LASF86
 844 0516 10       		.byte	0x10
 845 0517 0B       		.byte	0xb
 846 0518 39       		.byte	0x39
 847 0519 42050000 		.4byte	0x542
 848 051d 06       		.uleb128 0x6
 849 051e BD010000 		.4byte	.LASF87
 850 0522 0B       		.byte	0xb
 851 0523 3A       		.byte	0x3a
 852 0524 04020000 		.4byte	0x204
 853 0528 00       		.byte	0
 854 0529 06       		.uleb128 0x6
 855 052a EF040000 		.4byte	.LASF88
 856 052e 0B       		.byte	0xb
 857 052f 3C       		.byte	0x3c
 858 0530 DA010000 		.4byte	0x1da
 859 0534 08       		.byte	0x8
 860 0535 06       		.uleb128 0x6
 861 0536 57000000 		.4byte	.LASF89
 862 053a 0B       		.byte	0xb
 863 053b 3E       		.byte	0x3e
 864 053c 80050000 		.4byte	0x580
 865 0540 0C       		.byte	0xc
 866 0541 00       		.byte	0
 867 0542 09       		.uleb128 0x9
 868 0543 04       		.byte	0x4
 869 0544 11050000 		.4byte	0x511
 870 0548 09       		.uleb128 0x9
 871 0549 04       		.byte	0x4
 872 054a 4E050000 		.4byte	0x54e
 873 054e 12       		.uleb128 0x12
 874 054f 53050000 		.4byte	0x553
 875 0553 03       		.uleb128 0x3
 876 0554 01       		.byte	0x1
 877 0555 08       		.byte	0x8
 878 0556 75030000 		.4byte	.LASF90
 879 055a 09       		.uleb128 0x9
 880 055b 04       		.byte	0x4
 881 055c B9020000 		.4byte	0x2b9
 882 0560 13       		.uleb128 0x13
 883 0561 48050000 		.4byte	0x548
 884 0565 14       		.uleb128 0x14
 885 0566 F3030000 		.4byte	0x3f3
 886 056a 75050000 		.4byte	0x575
 887 056e 15       		.uleb128 0x15
 888 056f E1030000 		.4byte	0x3e1
 889 0573 18       		.byte	0x18
 890 0574 00       		.byte	0
 891 0575 04       		.uleb128 0x4
 892 0576 A5010000 		.4byte	.LASF91
 893 057a 0B       		.byte	0xb
ARM GAS  /tmp/ccFrmcKa.s 			page 24


 894 057b 34       		.byte	0x34
 895 057c 11050000 		.4byte	0x511
 896 0580 09       		.uleb128 0x9
 897 0581 04       		.byte	0x4
 898 0582 75050000 		.4byte	0x575
 899 0586 03       		.uleb128 0x3
 900 0587 01       		.byte	0x1
 901 0588 02       		.byte	0x2
 902 0589 B9030000 		.4byte	.LASF92
 903 058d 16       		.uleb128 0x16
 904 058e 1C       		.byte	0x1c
 905 058f 0C       		.byte	0xc
 906 0590 F5       		.byte	0xf5
 907 0591 EC050000 		.4byte	0x5ec
 908 0595 06       		.uleb128 0x6
 909 0596 A4040000 		.4byte	.LASF93
 910 059a 0C       		.byte	0xc
 911 059b F7       		.byte	0xf7
 912 059c BF000000 		.4byte	0xbf
 913 05a0 00       		.byte	0
 914 05a1 06       		.uleb128 0x6
 915 05a2 DE000000 		.4byte	.LASF94
 916 05a6 0C       		.byte	0xc
 917 05a7 F9       		.byte	0xf9
 918 05a8 BF000000 		.4byte	0xbf
 919 05ac 04       		.byte	0x4
 920 05ad 06       		.uleb128 0x6
 921 05ae 8A010000 		.4byte	.LASF95
 922 05b2 0C       		.byte	0xc
 923 05b3 FB       		.byte	0xfb
 924 05b4 BF000000 		.4byte	0xbf
 925 05b8 08       		.byte	0x8
 926 05b9 06       		.uleb128 0x6
 927 05ba 3C010000 		.4byte	.LASF96
 928 05be 0C       		.byte	0xc
 929 05bf FD       		.byte	0xfd
 930 05c0 BF000000 		.4byte	0xbf
 931 05c4 0C       		.byte	0xc
 932 05c5 0F       		.uleb128 0xf
 933 05c6 6F647200 		.ascii	"odr\000"
 934 05ca 0C       		.byte	0xc
 935 05cb FF       		.byte	0xff
 936 05cc BF000000 		.4byte	0xbf
 937 05d0 10       		.byte	0x10
 938 05d1 08       		.uleb128 0x8
 939 05d2 96040000 		.4byte	.LASF97
 940 05d6 0C       		.byte	0xc
 941 05d7 0101     		.2byte	0x101
 942 05d9 BF000000 		.4byte	0xbf
 943 05dd 14       		.byte	0x14
 944 05de 08       		.uleb128 0x8
 945 05df 74040000 		.4byte	.LASF98
 946 05e3 0C       		.byte	0xc
 947 05e4 0301     		.2byte	0x103
 948 05e6 BF000000 		.4byte	0xbf
 949 05ea 18       		.byte	0x18
 950 05eb 00       		.byte	0
ARM GAS  /tmp/ccFrmcKa.s 			page 25


 951 05ec 17       		.uleb128 0x17
 952 05ed 66020000 		.4byte	.LASF99
 953 05f1 0C       		.byte	0xc
 954 05f2 0401     		.2byte	0x104
 955 05f4 8D050000 		.4byte	0x58d
 956 05f8 18       		.uleb128 0x18
 957 05f9 70       		.byte	0x70
 958 05fa 0C       		.byte	0xc
 959 05fb 0D01     		.2byte	0x10d
 960 05fd 36060000 		.4byte	0x636
 961 0601 08       		.uleb128 0x8
 962 0602 E9010000 		.4byte	.LASF100
 963 0606 0C       		.byte	0xc
 964 0607 1001     		.2byte	0x110
 965 0609 EC050000 		.4byte	0x5ec
 966 060d 00       		.byte	0
 967 060e 08       		.uleb128 0x8
 968 060f B2030000 		.4byte	.LASF101
 969 0613 0C       		.byte	0xc
 970 0614 1401     		.2byte	0x114
 971 0616 EC050000 		.4byte	0x5ec
 972 061a 1C       		.byte	0x1c
 973 061b 08       		.uleb128 0x8
 974 061c FF010000 		.4byte	.LASF102
 975 0620 0C       		.byte	0xc
 976 0621 1801     		.2byte	0x118
 977 0623 EC050000 		.4byte	0x5ec
 978 0627 38       		.byte	0x38
 979 0628 08       		.uleb128 0x8
 980 0629 67000000 		.4byte	.LASF103
 981 062d 0C       		.byte	0xc
 982 062e 2401     		.2byte	0x124
 983 0630 EC050000 		.4byte	0x5ec
 984 0634 54       		.byte	0x54
 985 0635 00       		.byte	0
 986 0636 17       		.uleb128 0x17
 987 0637 A8030000 		.4byte	.LASF104
 988 063b 0C       		.byte	0xc
 989 063c 3A01     		.2byte	0x13a
 990 063e F8050000 		.4byte	0x5f8
 991 0642 19       		.uleb128 0x19
 992 0643 F0010000 		.4byte	.LASF108
 993 0647 01       		.byte	0x1
 994 0648 C101     		.2byte	0x1c1
 995 064a 00000000 		.4byte	.LFB119
 996 064e 02000000 		.4byte	.LFE119-.LFB119
 997 0652 01       		.uleb128 0x1
 998 0653 9C       		.byte	0x9c
 999 0654 1A       		.uleb128 0x1a
 1000 0655 ED030000 		.4byte	.LASF109
 1001 0659 02       		.byte	0x2
 1002 065a 38       		.byte	0x38
 1003 065b 00000000 		.4byte	.LFB149
 1004 065f 28000000 		.4byte	.LFE149-.LFB149
 1005 0663 01       		.uleb128 0x1
 1006 0664 9C       		.byte	0x9c
 1007 0665 1B       		.uleb128 0x1b
ARM GAS  /tmp/ccFrmcKa.s 			page 26


 1008 0666 636800   		.ascii	"ch\000"
 1009 0669 07       		.byte	0x7
 1010 066a 0902     		.2byte	0x209
 1011 066c 86030000 		.4byte	0x386
 1012 0670 1C       		.uleb128 0x1c
 1013 0671 B2040000 		.4byte	.LASF105
 1014 0675 0C       		.byte	0xc
 1015 0676 1E02     		.2byte	0x21e
 1016 0678 7C060000 		.4byte	0x67c
 1017 067c 12       		.uleb128 0x12
 1018 067d 36060000 		.4byte	0x636
 1019 0681 00       		.byte	0
 1020              		.section	.debug_abbrev,"",%progbits
 1021              	.Ldebug_abbrev0:
 1022 0000 01       		.uleb128 0x1
 1023 0001 11       		.uleb128 0x11
 1024 0002 01       		.byte	0x1
 1025 0003 25       		.uleb128 0x25
 1026 0004 0E       		.uleb128 0xe
 1027 0005 13       		.uleb128 0x13
 1028 0006 0B       		.uleb128 0xb
 1029 0007 03       		.uleb128 0x3
 1030 0008 0E       		.uleb128 0xe
 1031 0009 55       		.uleb128 0x55
 1032 000a 17       		.uleb128 0x17
 1033 000b 11       		.uleb128 0x11
 1034 000c 01       		.uleb128 0x1
 1035 000d 10       		.uleb128 0x10
 1036 000e 17       		.uleb128 0x17
 1037 000f 00       		.byte	0
 1038 0010 00       		.byte	0
 1039 0011 02       		.uleb128 0x2
 1040 0012 24       		.uleb128 0x24
 1041 0013 00       		.byte	0
 1042 0014 0B       		.uleb128 0xb
 1043 0015 0B       		.uleb128 0xb
 1044 0016 3E       		.uleb128 0x3e
 1045 0017 0B       		.uleb128 0xb
 1046 0018 03       		.uleb128 0x3
 1047 0019 08       		.uleb128 0x8
 1048 001a 00       		.byte	0
 1049 001b 00       		.byte	0
 1050 001c 03       		.uleb128 0x3
 1051 001d 24       		.uleb128 0x24
 1052 001e 00       		.byte	0
 1053 001f 0B       		.uleb128 0xb
 1054 0020 0B       		.uleb128 0xb
 1055 0021 3E       		.uleb128 0x3e
 1056 0022 0B       		.uleb128 0xb
 1057 0023 03       		.uleb128 0x3
 1058 0024 0E       		.uleb128 0xe
 1059 0025 00       		.byte	0
 1060 0026 00       		.byte	0
 1061 0027 04       		.uleb128 0x4
 1062 0028 16       		.uleb128 0x16
 1063 0029 00       		.byte	0
 1064 002a 03       		.uleb128 0x3
ARM GAS  /tmp/ccFrmcKa.s 			page 27


 1065 002b 0E       		.uleb128 0xe
 1066 002c 3A       		.uleb128 0x3a
 1067 002d 0B       		.uleb128 0xb
 1068 002e 3B       		.uleb128 0x3b
 1069 002f 0B       		.uleb128 0xb
 1070 0030 49       		.uleb128 0x49
 1071 0031 13       		.uleb128 0x13
 1072 0032 00       		.byte	0
 1073 0033 00       		.byte	0
 1074 0034 05       		.uleb128 0x5
 1075 0035 13       		.uleb128 0x13
 1076 0036 01       		.byte	0x1
 1077 0037 03       		.uleb128 0x3
 1078 0038 0E       		.uleb128 0xe
 1079 0039 0B       		.uleb128 0xb
 1080 003a 0B       		.uleb128 0xb
 1081 003b 3A       		.uleb128 0x3a
 1082 003c 0B       		.uleb128 0xb
 1083 003d 3B       		.uleb128 0x3b
 1084 003e 0B       		.uleb128 0xb
 1085 003f 01       		.uleb128 0x1
 1086 0040 13       		.uleb128 0x13
 1087 0041 00       		.byte	0
 1088 0042 00       		.byte	0
 1089 0043 06       		.uleb128 0x6
 1090 0044 0D       		.uleb128 0xd
 1091 0045 00       		.byte	0
 1092 0046 03       		.uleb128 0x3
 1093 0047 0E       		.uleb128 0xe
 1094 0048 3A       		.uleb128 0x3a
 1095 0049 0B       		.uleb128 0xb
 1096 004a 3B       		.uleb128 0x3b
 1097 004b 0B       		.uleb128 0xb
 1098 004c 49       		.uleb128 0x49
 1099 004d 13       		.uleb128 0x13
 1100 004e 38       		.uleb128 0x38
 1101 004f 0B       		.uleb128 0xb
 1102 0050 00       		.byte	0
 1103 0051 00       		.byte	0
 1104 0052 07       		.uleb128 0x7
 1105 0053 0D       		.uleb128 0xd
 1106 0054 00       		.byte	0
 1107 0055 03       		.uleb128 0x3
 1108 0056 08       		.uleb128 0x8
 1109 0057 3A       		.uleb128 0x3a
 1110 0058 0B       		.uleb128 0xb
 1111 0059 3B       		.uleb128 0x3b
 1112 005a 05       		.uleb128 0x5
 1113 005b 49       		.uleb128 0x49
 1114 005c 13       		.uleb128 0x13
 1115 005d 38       		.uleb128 0x38
 1116 005e 0B       		.uleb128 0xb
 1117 005f 00       		.byte	0
 1118 0060 00       		.byte	0
 1119 0061 08       		.uleb128 0x8
 1120 0062 0D       		.uleb128 0xd
 1121 0063 00       		.byte	0
ARM GAS  /tmp/ccFrmcKa.s 			page 28


 1122 0064 03       		.uleb128 0x3
 1123 0065 0E       		.uleb128 0xe
 1124 0066 3A       		.uleb128 0x3a
 1125 0067 0B       		.uleb128 0xb
 1126 0068 3B       		.uleb128 0x3b
 1127 0069 05       		.uleb128 0x5
 1128 006a 49       		.uleb128 0x49
 1129 006b 13       		.uleb128 0x13
 1130 006c 38       		.uleb128 0x38
 1131 006d 0B       		.uleb128 0xb
 1132 006e 00       		.byte	0
 1133 006f 00       		.byte	0
 1134 0070 09       		.uleb128 0x9
 1135 0071 0F       		.uleb128 0xf
 1136 0072 00       		.byte	0
 1137 0073 0B       		.uleb128 0xb
 1138 0074 0B       		.uleb128 0xb
 1139 0075 49       		.uleb128 0x49
 1140 0076 13       		.uleb128 0x13
 1141 0077 00       		.byte	0
 1142 0078 00       		.byte	0
 1143 0079 0A       		.uleb128 0xa
 1144 007a 13       		.uleb128 0x13
 1145 007b 01       		.byte	0x1
 1146 007c 03       		.uleb128 0x3
 1147 007d 0E       		.uleb128 0xe
 1148 007e 0B       		.uleb128 0xb
 1149 007f 0B       		.uleb128 0xb
 1150 0080 3A       		.uleb128 0x3a
 1151 0081 0B       		.uleb128 0xb
 1152 0082 3B       		.uleb128 0x3b
 1153 0083 05       		.uleb128 0x5
 1154 0084 01       		.uleb128 0x1
 1155 0085 13       		.uleb128 0x13
 1156 0086 00       		.byte	0
 1157 0087 00       		.byte	0
 1158 0088 0B       		.uleb128 0xb
 1159 0089 15       		.uleb128 0x15
 1160 008a 01       		.byte	0x1
 1161 008b 27       		.uleb128 0x27
 1162 008c 19       		.uleb128 0x19
 1163 008d 01       		.uleb128 0x1
 1164 008e 13       		.uleb128 0x13
 1165 008f 00       		.byte	0
 1166 0090 00       		.byte	0
 1167 0091 0C       		.uleb128 0xc
 1168 0092 05       		.uleb128 0x5
 1169 0093 00       		.byte	0
 1170 0094 49       		.uleb128 0x49
 1171 0095 13       		.uleb128 0x13
 1172 0096 00       		.byte	0
 1173 0097 00       		.byte	0
 1174 0098 0D       		.uleb128 0xd
 1175 0099 0F       		.uleb128 0xf
 1176 009a 00       		.byte	0
 1177 009b 0B       		.uleb128 0xb
 1178 009c 0B       		.uleb128 0xb
ARM GAS  /tmp/ccFrmcKa.s 			page 29


 1179 009d 00       		.byte	0
 1180 009e 00       		.byte	0
 1181 009f 0E       		.uleb128 0xe
 1182 00a0 13       		.uleb128 0x13
 1183 00a1 01       		.byte	0x1
 1184 00a2 03       		.uleb128 0x3
 1185 00a3 0E       		.uleb128 0xe
 1186 00a4 0B       		.uleb128 0xb
 1187 00a5 05       		.uleb128 0x5
 1188 00a6 3A       		.uleb128 0x3a
 1189 00a7 0B       		.uleb128 0xb
 1190 00a8 3B       		.uleb128 0x3b
 1191 00a9 05       		.uleb128 0x5
 1192 00aa 01       		.uleb128 0x1
 1193 00ab 13       		.uleb128 0x13
 1194 00ac 00       		.byte	0
 1195 00ad 00       		.byte	0
 1196 00ae 0F       		.uleb128 0xf
 1197 00af 0D       		.uleb128 0xd
 1198 00b0 00       		.byte	0
 1199 00b1 03       		.uleb128 0x3
 1200 00b2 08       		.uleb128 0x8
 1201 00b3 3A       		.uleb128 0x3a
 1202 00b4 0B       		.uleb128 0xb
 1203 00b5 3B       		.uleb128 0x3b
 1204 00b6 0B       		.uleb128 0xb
 1205 00b7 49       		.uleb128 0x49
 1206 00b8 13       		.uleb128 0x13
 1207 00b9 38       		.uleb128 0x38
 1208 00ba 0B       		.uleb128 0xb
 1209 00bb 00       		.byte	0
 1210 00bc 00       		.byte	0
 1211 00bd 10       		.uleb128 0x10
 1212 00be 17       		.uleb128 0x17
 1213 00bf 01       		.byte	0x1
 1214 00c0 0B       		.uleb128 0xb
 1215 00c1 0B       		.uleb128 0xb
 1216 00c2 3A       		.uleb128 0x3a
 1217 00c3 0B       		.uleb128 0xb
 1218 00c4 3B       		.uleb128 0x3b
 1219 00c5 0B       		.uleb128 0xb
 1220 00c6 01       		.uleb128 0x1
 1221 00c7 13       		.uleb128 0x13
 1222 00c8 00       		.byte	0
 1223 00c9 00       		.byte	0
 1224 00ca 11       		.uleb128 0x11
 1225 00cb 0D       		.uleb128 0xd
 1226 00cc 00       		.byte	0
 1227 00cd 03       		.uleb128 0x3
 1228 00ce 0E       		.uleb128 0xe
 1229 00cf 3A       		.uleb128 0x3a
 1230 00d0 0B       		.uleb128 0xb
 1231 00d1 3B       		.uleb128 0x3b
 1232 00d2 05       		.uleb128 0x5
 1233 00d3 49       		.uleb128 0x49
 1234 00d4 13       		.uleb128 0x13
 1235 00d5 00       		.byte	0
ARM GAS  /tmp/ccFrmcKa.s 			page 30


 1236 00d6 00       		.byte	0
 1237 00d7 12       		.uleb128 0x12
 1238 00d8 26       		.uleb128 0x26
 1239 00d9 00       		.byte	0
 1240 00da 49       		.uleb128 0x49
 1241 00db 13       		.uleb128 0x13
 1242 00dc 00       		.byte	0
 1243 00dd 00       		.byte	0
 1244 00de 13       		.uleb128 0x13
 1245 00df 35       		.uleb128 0x35
 1246 00e0 00       		.byte	0
 1247 00e1 49       		.uleb128 0x49
 1248 00e2 13       		.uleb128 0x13
 1249 00e3 00       		.byte	0
 1250 00e4 00       		.byte	0
 1251 00e5 14       		.uleb128 0x14
 1252 00e6 01       		.uleb128 0x1
 1253 00e7 01       		.byte	0x1
 1254 00e8 49       		.uleb128 0x49
 1255 00e9 13       		.uleb128 0x13
 1256 00ea 01       		.uleb128 0x1
 1257 00eb 13       		.uleb128 0x13
 1258 00ec 00       		.byte	0
 1259 00ed 00       		.byte	0
 1260 00ee 15       		.uleb128 0x15
 1261 00ef 21       		.uleb128 0x21
 1262 00f0 00       		.byte	0
 1263 00f1 49       		.uleb128 0x49
 1264 00f2 13       		.uleb128 0x13
 1265 00f3 2F       		.uleb128 0x2f
 1266 00f4 0B       		.uleb128 0xb
 1267 00f5 00       		.byte	0
 1268 00f6 00       		.byte	0
 1269 00f7 16       		.uleb128 0x16
 1270 00f8 13       		.uleb128 0x13
 1271 00f9 01       		.byte	0x1
 1272 00fa 0B       		.uleb128 0xb
 1273 00fb 0B       		.uleb128 0xb
 1274 00fc 3A       		.uleb128 0x3a
 1275 00fd 0B       		.uleb128 0xb
 1276 00fe 3B       		.uleb128 0x3b
 1277 00ff 0B       		.uleb128 0xb
 1278 0100 01       		.uleb128 0x1
 1279 0101 13       		.uleb128 0x13
 1280 0102 00       		.byte	0
 1281 0103 00       		.byte	0
 1282 0104 17       		.uleb128 0x17
 1283 0105 16       		.uleb128 0x16
 1284 0106 00       		.byte	0
 1285 0107 03       		.uleb128 0x3
 1286 0108 0E       		.uleb128 0xe
 1287 0109 3A       		.uleb128 0x3a
 1288 010a 0B       		.uleb128 0xb
 1289 010b 3B       		.uleb128 0x3b
 1290 010c 05       		.uleb128 0x5
 1291 010d 49       		.uleb128 0x49
 1292 010e 13       		.uleb128 0x13
ARM GAS  /tmp/ccFrmcKa.s 			page 31


 1293 010f 00       		.byte	0
 1294 0110 00       		.byte	0
 1295 0111 18       		.uleb128 0x18
 1296 0112 13       		.uleb128 0x13
 1297 0113 01       		.byte	0x1
 1298 0114 0B       		.uleb128 0xb
 1299 0115 0B       		.uleb128 0xb
 1300 0116 3A       		.uleb128 0x3a
 1301 0117 0B       		.uleb128 0xb
 1302 0118 3B       		.uleb128 0x3b
 1303 0119 05       		.uleb128 0x5
 1304 011a 01       		.uleb128 0x1
 1305 011b 13       		.uleb128 0x13
 1306 011c 00       		.byte	0
 1307 011d 00       		.byte	0
 1308 011e 19       		.uleb128 0x19
 1309 011f 2E       		.uleb128 0x2e
 1310 0120 00       		.byte	0
 1311 0121 03       		.uleb128 0x3
 1312 0122 0E       		.uleb128 0xe
 1313 0123 3A       		.uleb128 0x3a
 1314 0124 0B       		.uleb128 0xb
 1315 0125 3B       		.uleb128 0x3b
 1316 0126 05       		.uleb128 0x5
 1317 0127 27       		.uleb128 0x27
 1318 0128 19       		.uleb128 0x19
 1319 0129 11       		.uleb128 0x11
 1320 012a 01       		.uleb128 0x1
 1321 012b 12       		.uleb128 0x12
 1322 012c 06       		.uleb128 0x6
 1323 012d 40       		.uleb128 0x40
 1324 012e 18       		.uleb128 0x18
 1325 012f 9742     		.uleb128 0x2117
 1326 0131 19       		.uleb128 0x19
 1327 0132 00       		.byte	0
 1328 0133 00       		.byte	0
 1329 0134 1A       		.uleb128 0x1a
 1330 0135 2E       		.uleb128 0x2e
 1331 0136 00       		.byte	0
 1332 0137 3F       		.uleb128 0x3f
 1333 0138 19       		.uleb128 0x19
 1334 0139 03       		.uleb128 0x3
 1335 013a 0E       		.uleb128 0xe
 1336 013b 3A       		.uleb128 0x3a
 1337 013c 0B       		.uleb128 0xb
 1338 013d 3B       		.uleb128 0x3b
 1339 013e 0B       		.uleb128 0xb
 1340 013f 27       		.uleb128 0x27
 1341 0140 19       		.uleb128 0x19
 1342 0141 11       		.uleb128 0x11
 1343 0142 01       		.uleb128 0x1
 1344 0143 12       		.uleb128 0x12
 1345 0144 06       		.uleb128 0x6
 1346 0145 40       		.uleb128 0x40
 1347 0146 18       		.uleb128 0x18
 1348 0147 9642     		.uleb128 0x2116
 1349 0149 19       		.uleb128 0x19
ARM GAS  /tmp/ccFrmcKa.s 			page 32


 1350 014a 00       		.byte	0
 1351 014b 00       		.byte	0
 1352 014c 1B       		.uleb128 0x1b
 1353 014d 34       		.uleb128 0x34
 1354 014e 00       		.byte	0
 1355 014f 03       		.uleb128 0x3
 1356 0150 08       		.uleb128 0x8
 1357 0151 3A       		.uleb128 0x3a
 1358 0152 0B       		.uleb128 0xb
 1359 0153 3B       		.uleb128 0x3b
 1360 0154 05       		.uleb128 0x5
 1361 0155 49       		.uleb128 0x49
 1362 0156 13       		.uleb128 0x13
 1363 0157 3F       		.uleb128 0x3f
 1364 0158 19       		.uleb128 0x19
 1365 0159 3C       		.uleb128 0x3c
 1366 015a 19       		.uleb128 0x19
 1367 015b 00       		.byte	0
 1368 015c 00       		.byte	0
 1369 015d 1C       		.uleb128 0x1c
 1370 015e 34       		.uleb128 0x34
 1371 015f 00       		.byte	0
 1372 0160 03       		.uleb128 0x3
 1373 0161 0E       		.uleb128 0xe
 1374 0162 3A       		.uleb128 0x3a
 1375 0163 0B       		.uleb128 0xb
 1376 0164 3B       		.uleb128 0x3b
 1377 0165 05       		.uleb128 0x5
 1378 0166 49       		.uleb128 0x49
 1379 0167 13       		.uleb128 0x13
 1380 0168 3F       		.uleb128 0x3f
 1381 0169 19       		.uleb128 0x19
 1382 016a 3C       		.uleb128 0x3c
 1383 016b 19       		.uleb128 0x19
 1384 016c 00       		.byte	0
 1385 016d 00       		.byte	0
 1386 016e 00       		.byte	0
 1387              		.section	.debug_aranges,"",%progbits
 1388 0000 24000000 		.4byte	0x24
 1389 0004 0200     		.2byte	0x2
 1390 0006 00000000 		.4byte	.Ldebug_info0
 1391 000a 04       		.byte	0x4
 1392 000b 00       		.byte	0
 1393 000c 0000     		.2byte	0
 1394 000e 0000     		.2byte	0
 1395 0010 00000000 		.4byte	.LFB119
 1396 0014 02000000 		.4byte	.LFE119-.LFB119
 1397 0018 00000000 		.4byte	.LFB149
 1398 001c 28000000 		.4byte	.LFE149-.LFB149
 1399 0020 00000000 		.4byte	0
 1400 0024 00000000 		.4byte	0
 1401              		.section	.debug_ranges,"",%progbits
 1402              	.Ldebug_ranges0:
 1403 0000 00000000 		.4byte	.LFB119
 1404 0004 02000000 		.4byte	.LFE119
 1405 0008 00000000 		.4byte	.LFB149
 1406 000c 28000000 		.4byte	.LFE149
ARM GAS  /tmp/ccFrmcKa.s 			page 33


 1407 0010 00000000 		.4byte	0
 1408 0014 00000000 		.4byte	0
 1409              		.section	.debug_line,"",%progbits
 1410              	.Ldebug_line0:
 1411 0000 FA010000 		.section	.debug_str,"MS",%progbits,1
 1411      0200C401 
 1411      00000201 
 1411      FB0E0D00 
 1411      01010101 
 1412              	.LASF25:
 1413 0000 74687265 		.ascii	"thread_t\000"
 1413      61645F74 
 1413      00
 1414              	.LASF50:
 1415 0009 725F6F6C 		.ascii	"r_older\000"
 1415      64657200 
 1416              	.LASF42:
 1417 0011 74687265 		.ascii	"threads_queue_t\000"
 1417      6164735F 
 1417      71756575 
 1417      655F7400 
 1418              	.LASF64:
 1419 0021 63685F73 		.ascii	"ch_system_debug\000"
 1419      79737465 
 1419      6D5F6465 
 1419      62756700 
 1420              	.LASF18:
 1421 0031 75696E74 		.ascii	"uint64_t\000"
 1421      36345F74 
 1421      00
 1422              	.LASF70:
 1423 003a 6D61696E 		.ascii	"mainthread\000"
 1423      74687265 
 1423      616400
 1424              	.LASF3:
 1425 0045 73686F72 		.ascii	"short int\000"
 1425      7420696E 
 1425      7400
 1426              	.LASF46:
 1427 004f 725F7175 		.ascii	"r_queue\000"
 1427      65756500 
 1428              	.LASF89:
 1429 0057 6D5F6E65 		.ascii	"m_next\000"
 1429      787400
 1430              	.LASF72:
 1431 005e 73697A65 		.ascii	"sizetype\000"
 1431      74797065 
 1431      00
 1432              	.LASF103:
 1433 0067 50464461 		.ascii	"PFData\000"
 1433      746100
 1434              	.LASF27:
 1435 006e 705F7072 		.ascii	"p_prev\000"
 1435      657600
 1436              	.LASF63:
 1437 0075 73797374 		.ascii	"system_debug_t\000"
 1437      656D5F64 
ARM GAS  /tmp/ccFrmcKa.s 			page 34


 1437      65627567 
 1437      5F7400
 1438              	.LASF5:
 1439 0084 5F5F7569 		.ascii	"__uint16_t\000"
 1439      6E743136 
 1439      5F7400
 1440              	.LASF58:
 1441 008f 76745F66 		.ascii	"vt_func\000"
 1441      756E6300 
 1442              	.LASF28:
 1443 0097 705F7072 		.ascii	"p_prio\000"
 1443      696F00
 1444              	.LASF41:
 1445 009e 63685F74 		.ascii	"ch_threads_list\000"
 1445      68726561 
 1445      64735F6C 
 1445      69737400 
 1446              	.LASF69:
 1447 00ae 76746C69 		.ascii	"vtlist\000"
 1447      737400
 1448              	.LASF59:
 1449 00b5 76745F70 		.ascii	"vt_par\000"
 1449      617200
 1450              	.LASF44:
 1451 00bc 72656164 		.ascii	"ready_list_t\000"
 1451      795F6C69 
 1451      73745F74 
 1451      00
 1452              	.LASF66:
 1453 00c9 63685F73 		.ascii	"ch_system_t\000"
 1453      79737465 
 1453      6D5F7400 
 1454              	.LASF73:
 1455 00d5 72656761 		.ascii	"regarm_t\000"
 1455      726D5F74 
 1455      00
 1456              	.LASF94:
 1457 00de 6F747970 		.ascii	"otyper\000"
 1457      657200
 1458              	.LASF14:
 1459 00e5 75696E74 		.ascii	"uint8_t\000"
 1459      385F7400 
 1460              	.LASF43:
 1461 00ed 63685F74 		.ascii	"ch_threads_queue\000"
 1461      68726561 
 1461      64735F71 
 1461      75657565 
 1461      00
 1462              	.LASF86:
 1463 00fe 63685F6D 		.ascii	"ch_mutex\000"
 1463      75746578 
 1463      00
 1464              	.LASF16:
 1465 0107 696E7433 		.ascii	"int32_t\000"
 1465      325F7400 
 1466              	.LASF107:
 1467 010f 2F686F6D 		.ascii	"/home/efe/ChibiOS/os/hal/src/hal.c\000"
ARM GAS  /tmp/ccFrmcKa.s 			page 35


 1467      652F6566 
 1467      652F4368 
 1467      6962694F 
 1467      532F6F73 
 1468              	.LASF40:
 1469 0132 63685F74 		.ascii	"ch_thread\000"
 1469      68726561 
 1469      6400
 1470              	.LASF96:
 1471 013c 70757064 		.ascii	"pupdr\000"
 1471      7200
 1472              	.LASF62:
 1473 0142 76745F6C 		.ascii	"vt_lasttime\000"
 1473      61737474 
 1473      696D6500 
 1474              	.LASF19:
 1475 014e 746D6F64 		.ascii	"tmode_t\000"
 1475      655F7400 
 1476              	.LASF11:
 1477 0156 6C6F6E67 		.ascii	"long long int\000"
 1477      206C6F6E 
 1477      6720696E 
 1477      7400
 1478              	.LASF32:
 1479 0164 705F6E61 		.ascii	"p_name\000"
 1479      6D6500
 1480              	.LASF21:
 1481 016b 74707269 		.ascii	"tprio_t\000"
 1481      6F5F7400 
 1482              	.LASF61:
 1483 0173 63685F76 		.ascii	"ch_virtual_timers_list\000"
 1483      69727475 
 1483      616C5F74 
 1483      696D6572 
 1483      735F6C69 
 1484              	.LASF95:
 1485 018a 6F737065 		.ascii	"ospeedr\000"
 1485      65647200 
 1486              	.LASF8:
 1487 0192 6C6F6E67 		.ascii	"long int\000"
 1487      20696E74 
 1487      00
 1488              	.LASF67:
 1489 019b 63685F73 		.ascii	"ch_system\000"
 1489      79737465 
 1489      6D00
 1490              	.LASF91:
 1491 01a5 6D757465 		.ascii	"mutex_t\000"
 1491      785F7400 
 1492              	.LASF53:
 1493 01ad 76697274 		.ascii	"virtual_timer_t\000"
 1493      75616C5F 
 1493      74696D65 
 1493      725F7400 
 1494              	.LASF87:
 1495 01bd 6D5F7175 		.ascii	"m_queue\000"
 1495      65756500 
ARM GAS  /tmp/ccFrmcKa.s 			page 36


 1496              	.LASF4:
 1497 01c5 5F5F7569 		.ascii	"__uint8_t\000"
 1497      6E74385F 
 1497      7400
 1498              	.LASF75:
 1499 01cf 636F6E74 		.ascii	"context\000"
 1499      65787400 
 1500              	.LASF56:
 1501 01d7 76745F70 		.ascii	"vt_prev\000"
 1501      72657600 
 1502              	.LASF51:
 1503 01df 725F6375 		.ascii	"r_current\000"
 1503      7272656E 
 1503      7400
 1504              	.LASF100:
 1505 01e9 50414461 		.ascii	"PAData\000"
 1505      746100
 1506              	.LASF108:
 1507 01f0 6F73616C 		.ascii	"osalInit\000"
 1507      496E6974 
 1507      00
 1508              	.LASF85:
 1509 01f9 735F636E 		.ascii	"s_cnt\000"
 1509      7400
 1510              	.LASF102:
 1511 01ff 50434461 		.ascii	"PCData\000"
 1511      746100
 1512              	.LASF2:
 1513 0206 756E7369 		.ascii	"unsigned char\000"
 1513      676E6564 
 1513      20636861 
 1513      7200
 1514              	.LASF1:
 1515 0214 7369676E 		.ascii	"signed char\000"
 1515      65642063 
 1515      68617200 
 1516              	.LASF30:
 1517 0220 705F6E65 		.ascii	"p_newer\000"
 1517      77657200 
 1518              	.LASF13:
 1519 0228 6C6F6E67 		.ascii	"long long unsigned int\000"
 1519      206C6F6E 
 1519      6720756E 
 1519      7369676E 
 1519      65642069 
 1520              	.LASF17:
 1521 023f 75696E74 		.ascii	"uint32_t\000"
 1521      33325F74 
 1521      00
 1522              	.LASF0:
 1523 0248 756E7369 		.ascii	"unsigned int\000"
 1523      676E6564 
 1523      20696E74 
 1523      00
 1524              	.LASF15:
 1525 0255 75696E74 		.ascii	"uint16_t\000"
 1525      31365F74 
ARM GAS  /tmp/ccFrmcKa.s 			page 37


 1525      00
 1526              	.LASF55:
 1527 025e 76745F6E 		.ascii	"vt_next\000"
 1527      65787400 
 1528              	.LASF99:
 1529 0266 73746D33 		.ascii	"stm32_gpio_setup_t\000"
 1529      325F6770 
 1529      696F5F73 
 1529      65747570 
 1529      5F7400
 1530              	.LASF76:
 1531 0279 706F7274 		.ascii	"port_intctx\000"
 1531      5F696E74 
 1531      63747800 
 1532              	.LASF106:
 1533 0285 474E5520 		.ascii	"GNU C 4.8.4 20141219 (release) -mcpu=cortex-m0 -mno"
 1533      4320342E 
 1533      382E3420 
 1533      32303134 
 1533      31323139 
 1534 02b8 2D746875 		.ascii	"-thumb-interwork -mthumb -ggdb -O0 -fomit-frame-poi"
 1534      6D622D69 
 1534      6E746572 
 1534      776F726B 
 1534      202D6D74 
 1535 02eb 6E746572 		.ascii	"nter -falign-functions=16 -ffunction-sections -fdat"
 1535      202D6661 
 1535      6C69676E 
 1535      2D66756E 
 1535      6374696F 
 1536 031e 612D7365 		.ascii	"a-sections -fno-common -flto\000"
 1536      6374696F 
 1536      6E73202D 
 1536      666E6F2D 
 1536      636F6D6D 
 1537              	.LASF48:
 1538 033b 725F6374 		.ascii	"r_ctx\000"
 1538      7800
 1539              	.LASF49:
 1540 0341 725F6E65 		.ascii	"r_newer\000"
 1540      77657200 
 1541              	.LASF34:
 1542 0349 705F666C 		.ascii	"p_flags\000"
 1542      61677300 
 1543              	.LASF57:
 1544 0351 76745F64 		.ascii	"vt_delta\000"
 1544      656C7461 
 1544      00
 1545              	.LASF37:
 1546 035a 705F7265 		.ascii	"p_realprio\000"
 1546      616C7072 
 1546      696F00
 1547              	.LASF24:
 1548 0365 73797374 		.ascii	"systime_t\000"
 1548      696D655F 
 1548      7400
 1549              	.LASF68:
ARM GAS  /tmp/ccFrmcKa.s 			page 38


 1550 036f 726C6973 		.ascii	"rlist\000"
 1550      7400
 1551              	.LASF90:
 1552 0375 63686172 		.ascii	"char\000"
 1552      00
 1553              	.LASF84:
 1554 037a 735F7175 		.ascii	"s_queue\000"
 1554      65756500 
 1555              	.LASF54:
 1556 0382 63685F76 		.ascii	"ch_virtual_timer\000"
 1556      69727475 
 1556      616C5F74 
 1556      696D6572 
 1556      00
 1557              	.LASF33:
 1558 0393 705F7374 		.ascii	"p_state\000"
 1558      61746500 
 1559              	.LASF47:
 1560 039b 725F7072 		.ascii	"r_prio\000"
 1560      696F00
 1561              	.LASF23:
 1562 03a2 636E745F 		.ascii	"cnt_t\000"
 1562      7400
 1563              	.LASF104:
 1564 03a8 50414C43 		.ascii	"PALConfig\000"
 1564      6F6E6669 
 1564      6700
 1565              	.LASF101:
 1566 03b2 50424461 		.ascii	"PBData\000"
 1566      746100
 1567              	.LASF92:
 1568 03b9 5F426F6F 		.ascii	"_Bool\000"
 1568      6C00
 1569              	.LASF35:
 1570 03bf 705F7761 		.ascii	"p_waiting\000"
 1570      6974696E 
 1570      6700
 1571              	.LASF12:
 1572 03c9 5F5F7569 		.ascii	"__uint64_t\000"
 1572      6E743634 
 1572      5F7400
 1573              	.LASF36:
 1574 03d4 705F6D74 		.ascii	"p_mtxlist\000"
 1574      786C6973 
 1574      7400
 1575              	.LASF71:
 1576 03de 69646C65 		.ascii	"idle_thread_wa\000"
 1576      5F746872 
 1576      6561645F 
 1576      776100
 1577              	.LASF109:
 1578 03ed 68616C49 		.ascii	"halInit\000"
 1578      6E697400 
 1579              	.LASF81:
 1580 03f5 77747365 		.ascii	"wtsemp\000"
 1580      6D7000
 1581              	.LASF10:
ARM GAS  /tmp/ccFrmcKa.s 			page 39


 1582 03fc 6C6F6E67 		.ascii	"long unsigned int\000"
 1582      20756E73 
 1582      69676E65 
 1582      6420696E 
 1582      7400
 1583              	.LASF65:
 1584 040e 70616E69 		.ascii	"panic_msg\000"
 1584      635F6D73 
 1584      6700
 1585              	.LASF6:
 1586 0418 73686F72 		.ascii	"short unsigned int\000"
 1586      7420756E 
 1586      7369676E 
 1586      65642069 
 1586      6E7400
 1587              	.LASF9:
 1588 042b 5F5F7569 		.ascii	"__uint32_t\000"
 1588      6E743332 
 1588      5F7400
 1589              	.LASF80:
 1590 0436 77747472 		.ascii	"wttrp\000"
 1590      7000
 1591              	.LASF83:
 1592 043c 63685F73 		.ascii	"ch_semaphore\000"
 1592      656D6170 
 1592      686F7265 
 1592      00
 1593              	.LASF26:
 1594 0449 705F6E65 		.ascii	"p_next\000"
 1594      787400
 1595              	.LASF7:
 1596 0450 5F5F696E 		.ascii	"__int32_t\000"
 1596      7433325F 
 1596      7400
 1597              	.LASF38:
 1598 045a 74687265 		.ascii	"thread_reference_t\000"
 1598      61645F72 
 1598      65666572 
 1598      656E6365 
 1598      5F7400
 1599              	.LASF79:
 1600 046d 77746F62 		.ascii	"wtobjp\000"
 1600      6A7000
 1601              	.LASF98:
 1602 0474 61667268 		.ascii	"afrh\000"
 1602      00
 1603              	.LASF20:
 1604 0479 74737461 		.ascii	"tstate_t\000"
 1604      74655F74 
 1604      00
 1605              	.LASF74:
 1606 0482 73746B61 		.ascii	"stkalign_t\000"
 1606      6C69676E 
 1606      5F7400
 1607              	.LASF78:
 1608 048d 65786974 		.ascii	"exitcode\000"
 1608      636F6465 
ARM GAS  /tmp/ccFrmcKa.s 			page 40


 1608      00
 1609              	.LASF97:
 1610 0496 6166726C 		.ascii	"afrl\000"
 1610      00
 1611              	.LASF52:
 1612 049b 76746675 		.ascii	"vtfunc_t\000"
 1612      6E635F74 
 1612      00
 1613              	.LASF93:
 1614 04a4 6D6F6465 		.ascii	"moder\000"
 1614      7200
 1615              	.LASF31:
 1616 04aa 705F6F6C 		.ascii	"p_older\000"
 1616      64657200 
 1617              	.LASF105:
 1618 04b2 70616C5F 		.ascii	"pal_default_config\000"
 1618      64656661 
 1618      756C745F 
 1618      636F6E66 
 1618      696700
 1619              	.LASF60:
 1620 04c5 76697274 		.ascii	"virtual_timers_list_t\000"
 1620      75616C5F 
 1620      74696D65 
 1620      72735F6C 
 1620      6973745F 
 1621              	.LASF45:
 1622 04db 63685F72 		.ascii	"ch_ready_list\000"
 1622      65616479 
 1622      5F6C6973 
 1622      7400
 1623              	.LASF29:
 1624 04e9 705F6374 		.ascii	"p_ctx\000"
 1624      7800
 1625              	.LASF88:
 1626 04ef 6D5F6F77 		.ascii	"m_owner\000"
 1626      6E657200 
 1627              	.LASF77:
 1628 04f7 7264796D 		.ascii	"rdymsg\000"
 1628      736700
 1629              	.LASF22:
 1630 04fe 6D73675F 		.ascii	"msg_t\000"
 1630      7400
 1631              	.LASF82:
 1632 0504 77746D74 		.ascii	"wtmtxp\000"
 1632      787000
 1633              	.LASF39:
 1634 050b 74687265 		.ascii	"threads_list_t\000"
 1634      6164735F 
 1634      6C697374 
 1634      5F7400
 1635              		.comm	__gnu_lto_v1,1,1
 1636              		.ident	"GCC: (4.8.4-1+11-1) 4.8.4 20141219 (release)"
ARM GAS  /tmp/ccFrmcKa.s 			page 41


DEFINED SYMBOLS
                            *ABS*:0000000000000000 hal.c
     /tmp/ccFrmcKa.s:146    .text.osalInit:0000000000000000 $t
     /tmp/ccFrmcKa.s:151    .text.osalInit:0000000000000000 osalInit
     /tmp/ccFrmcKa.s:163    .text.halInit:0000000000000000 $t
     /tmp/ccFrmcKa.s:169    .text.halInit:0000000000000000 halInit
     /tmp/ccFrmcKa.s:200    .text.halInit:0000000000000024 $d
                            *COM*:0000000000000001 __gnu_lto_v1
                     .debug_frame:0000000000000010 $d
     /tmp/ccFrmcKa.s:204    .text.halInit:0000000000000028 $t

UNDEFINED SYMBOLS
hal_lld_init
_pal_lld_init
extInit
sdInit
boardInit
stInit
pal_default_config
