ARM GAS  /tmp/ccAvdaKp.s 			page 1


   1              		.syntax unified
   2              		.cpu cortex-m4
   3              		.fpu softvfp
   4              		.eabi_attribute 20, 1
   5              		.eabi_attribute 21, 1
   6              		.eabi_attribute 23, 3
   7              		.eabi_attribute 24, 1
   8              		.eabi_attribute 25, 1
   9              		.eabi_attribute 26, 1
  10              		.eabi_attribute 30, 6
  11              		.eabi_attribute 34, 1
  12              		.eabi_attribute 18, 4
  13              		.thumb
  14              		.file	"hal_lld.c"
  15              		.text
  16              	.Ltext0:
  17              		.cfi_sections	.debug_frame
  18              		.global	SystemCoreClock
  19              		.section	.data.SystemCoreClock,"aw",%progbits
  20              		.align	2
  21              		.type	SystemCoreClock, %object
  22              		.size	SystemCoreClock, 4
  23              	SystemCoreClock:
  24 0000 007A030A 		.word	168000000
  25              		.section	.text.hal_lld_backup_domain_init,"ax",%progbits
  26              		.align	2
  27              		.p2align 4,,15
  28              		.thumb
  29              		.thumb_func
  30              		.type	hal_lld_backup_domain_init, %function
  31              	hal_lld_backup_domain_init:
  32              	.LFB271:
  33              		.file 1 "/home/efe/ChibiOS/os/hal/ports/STM32/STM32F4xx/hal_lld.c"
  34              		.loc 1 54 0
  35              		.cfi_startproc
  36              		@ args = 0, pretend = 0, frame = 0
  37              		@ frame_needed = 0, uses_anonymous_args = 0
  38              		@ link register save eliminated.
  39              		.loc 1 57 0
  40 0000 0D4B     		ldr	r3, .L3
  41 0002 0D4A     		ldr	r2, .L3
  42 0004 1268     		ldr	r2, [r2]
  43 0006 42F48072 		orr	r2, r2, #256
  44 000a 1A60     		str	r2, [r3]
  45              		.loc 1 60 0
  46 000c 0B4B     		ldr	r3, .L3+4
  47 000e 1B6F     		ldr	r3, [r3, #112]
  48 0010 03F44073 		and	r3, r3, #768
  49 0014 B3F5007F 		cmp	r3, #512
  50 0018 06D0     		beq	.L2
  51              		.loc 1 62 0
  52 001a 084B     		ldr	r3, .L3+4
  53 001c 4FF48032 		mov	r2, #65536
  54 0020 1A67     		str	r2, [r3, #112]
  55              		.loc 1 63 0
  56 0022 064B     		ldr	r3, .L3+4
  57 0024 0022     		movs	r2, #0
ARM GAS  /tmp/ccAvdaKp.s 			page 2


  58 0026 1A67     		str	r2, [r3, #112]
  59              	.L2:
  60              		.loc 1 97 0
  61 0028 034B     		ldr	r3, .L3
  62 002a 034A     		ldr	r2, .L3
  63 002c 5268     		ldr	r2, [r2, #4]
  64 002e 22F40072 		bic	r2, r2, #512
  65 0032 5A60     		str	r2, [r3, #4]
  66              		.loc 1 99 0
  67 0034 7047     		bx	lr
  68              	.L4:
  69 0036 00BF     		.align	2
  70              	.L3:
  71 0038 00700040 		.word	1073770496
  72 003c 00380240 		.word	1073887232
  73              		.cfi_endproc
  74              	.LFE271:
  75              		.size	hal_lld_backup_domain_init, .-hal_lld_backup_domain_init
  76              		.section	.text.hal_lld_init,"ax",%progbits
  77              		.align	2
  78              		.p2align 4,,15
  79              		.global	hal_lld_init
  80              		.thumb
  81              		.thumb_func
  82              		.type	hal_lld_init, %function
  83              	hal_lld_init:
  84              	.LFB272:
  85              		.loc 1 114 0
  86              		.cfi_startproc
  87              		@ args = 0, pretend = 0, frame = 0
  88              		@ frame_needed = 0, uses_anonymous_args = 0
  89 0000 08B5     		push	{r3, lr}
  90              		.cfi_def_cfa_offset 8
  91              		.cfi_offset 3, -8
  92              		.cfi_offset 14, -4
  93              		.loc 1 118 0
  94 0002 164B     		ldr	r3, .L6
  95 0004 1B69     		ldr	r3, [r3, #16]
  96 0006 154B     		ldr	r3, .L6
  97 0008 4FF0FF32 		mov	r2, #-1
  98 000c 1A61     		str	r2, [r3, #16]
  99 000e 134B     		ldr	r3, .L6
 100 0010 0022     		movs	r2, #0
 101 0012 1A61     		str	r2, [r3, #16]
 102              		.loc 1 119 0
 103 0014 114B     		ldr	r3, .L6
 104 0016 5B69     		ldr	r3, [r3, #20]
 105 0018 104B     		ldr	r3, .L6
 106 001a 4FF0FF32 		mov	r2, #-1
 107 001e 5A61     		str	r2, [r3, #20]
 108 0020 0E4B     		ldr	r3, .L6
 109 0022 0022     		movs	r2, #0
 110 0024 5A61     		str	r2, [r3, #20]
 111              		.loc 1 120 0
 112 0026 0D4B     		ldr	r3, .L6
 113 0028 0C4A     		ldr	r2, .L6
 114 002a 126A     		ldr	r2, [r2, #32]
ARM GAS  /tmp/ccAvdaKp.s 			page 3


 115 002c 62F08052 		orn	r2, r2, #268435456
 116 0030 1A62     		str	r2, [r3, #32]
 117 0032 0A4B     		ldr	r3, .L6
 118 0034 0022     		movs	r2, #0
 119 0036 1A62     		str	r2, [r3, #32]
 120              		.loc 1 121 0
 121 0038 084B     		ldr	r3, .L6
 122 003a 5B6A     		ldr	r3, [r3, #36]
 123 003c 074B     		ldr	r3, .L6
 124 003e 4FF0FF32 		mov	r2, #-1
 125 0042 5A62     		str	r2, [r3, #36]
 126 0044 054B     		ldr	r3, .L6
 127 0046 0022     		movs	r2, #0
 128 0048 5A62     		str	r2, [r3, #36]
 129              		.loc 1 124 0
 130 004a 044B     		ldr	r3, .L6
 131 004c 034A     		ldr	r2, .L6
 132 004e 126C     		ldr	r2, [r2, #64]
 133 0050 42F08052 		orr	r2, r2, #268435456
 134 0054 1A64     		str	r2, [r3, #64]
 135              		.loc 1 127 0
 136 0056 FFF7FEFF 		bl	hal_lld_backup_domain_init
 137              		.loc 1 137 0
 138 005a 08BD     		pop	{r3, pc}
 139              	.L7:
 140              		.align	2
 141              	.L6:
 142 005c 00380240 		.word	1073887232
 143              		.cfi_endproc
 144              	.LFE272:
 145              		.size	hal_lld_init, .-hal_lld_init
 146              		.section	.text.stm32_clock_init,"ax",%progbits
 147              		.align	2
 148              		.p2align 4,,15
 149              		.global	stm32_clock_init
 150              		.thumb
 151              		.thumb_func
 152              		.type	stm32_clock_init, %function
 153              	stm32_clock_init:
 154              	.LFB273:
 155              		.loc 1 146 0
 156              		.cfi_startproc
 157              		@ args = 0, pretend = 0, frame = 0
 158              		@ frame_needed = 0, uses_anonymous_args = 0
 159              		@ link register save eliminated.
 160              		.loc 1 150 0
 161 0000 404B     		ldr	r3, .L16
 162 0002 4FF08052 		mov	r2, #268435456
 163 0006 1A64     		str	r2, [r3, #64]
 164              		.loc 1 154 0
 165 0008 3F4B     		ldr	r3, .L16+4
 166 000a 4FF44042 		mov	r2, #49152
 167 000e 1A60     		str	r2, [r3]
 168              		.loc 1 161 0
 169 0010 3C4B     		ldr	r3, .L16
 170 0012 3C4A     		ldr	r2, .L16
 171 0014 1268     		ldr	r2, [r2]
ARM GAS  /tmp/ccAvdaKp.s 			page 4


 172 0016 42F00102 		orr	r2, r2, #1
 173 001a 1A60     		str	r2, [r3]
 174              		.loc 1 162 0
 175 001c 00BF     		nop
 176              	.L9:
 177              		.loc 1 162 0 is_stmt 0 discriminator 1
 178 001e 394B     		ldr	r3, .L16
 179 0020 1B68     		ldr	r3, [r3]
 180 0022 03F00203 		and	r3, r3, #2
 181 0026 002B     		cmp	r3, #0
 182 0028 F9D0     		beq	.L9
 183              		.loc 1 168 0 is_stmt 1
 184 002a 364B     		ldr	r3, .L16
 185 002c 354A     		ldr	r2, .L16
 186 002e 9268     		ldr	r2, [r2, #8]
 187 0030 22F00302 		bic	r2, r2, #3
 188 0034 9A60     		str	r2, [r3, #8]
 189              		.loc 1 169 0
 190 0036 334B     		ldr	r3, .L16
 191 0038 324A     		ldr	r2, .L16
 192 003a 9268     		ldr	r2, [r2, #8]
 193 003c 9A60     		str	r2, [r3, #8]
 194              		.loc 1 170 0
 195 003e 00BF     		nop
 196              	.L10:
 197              		.loc 1 170 0 is_stmt 0 discriminator 1
 198 0040 304B     		ldr	r3, .L16
 199 0042 9B68     		ldr	r3, [r3, #8]
 200 0044 03F00C03 		and	r3, r3, #12
 201 0048 002B     		cmp	r3, #0
 202 004a F9D1     		bne	.L10
 203              		.loc 1 174 0 is_stmt 1
 204 004c 2D4B     		ldr	r3, .L16
 205 004e 2D4A     		ldr	r2, .L16
 206 0050 1268     		ldr	r2, [r2]
 207 0052 02F0F902 		and	r2, r2, #249
 208 0056 1A60     		str	r2, [r3]
 209              		.loc 1 175 0
 210 0058 2A4B     		ldr	r3, .L16
 211 005a 0022     		movs	r2, #0
 212 005c 9A60     		str	r2, [r3, #8]
 213              		.loc 1 184 0
 214 005e 294B     		ldr	r3, .L16
 215 0060 284A     		ldr	r2, .L16
 216 0062 1268     		ldr	r2, [r2]
 217 0064 42F48032 		orr	r2, r2, #65536
 218 0068 1A60     		str	r2, [r3]
 219              		.loc 1 186 0
 220 006a 00BF     		nop
 221              	.L11:
 222              		.loc 1 186 0 is_stmt 0 discriminator 1
 223 006c 254B     		ldr	r3, .L16
 224 006e 1B68     		ldr	r3, [r3]
 225 0070 03F40033 		and	r3, r3, #131072
 226 0074 002B     		cmp	r3, #0
 227 0076 F9D0     		beq	.L11
 228              		.loc 1 192 0 is_stmt 1
ARM GAS  /tmp/ccAvdaKp.s 			page 5


 229 0078 224B     		ldr	r3, .L16
 230 007a 224A     		ldr	r2, .L16
 231 007c 526F     		ldr	r2, [r2, #116]
 232 007e 42F00102 		orr	r2, r2, #1
 233 0082 5A67     		str	r2, [r3, #116]
 234              		.loc 1 193 0
 235 0084 00BF     		nop
 236              	.L12:
 237              		.loc 1 193 0 is_stmt 0 discriminator 1
 238 0086 1F4B     		ldr	r3, .L16
 239 0088 5B6F     		ldr	r3, [r3, #116]
 240 008a 03F00203 		and	r3, r3, #2
 241 008e 002B     		cmp	r3, #0
 242 0090 F9D0     		beq	.L12
 243              		.loc 1 199 0 is_stmt 1
 244 0092 1C4B     		ldr	r3, .L16
 245 0094 1D4A     		ldr	r2, .L16+8
 246 0096 5A60     		str	r2, [r3, #4]
 247              		.loc 1 201 0
 248 0098 1A4B     		ldr	r3, .L16
 249 009a 1A4A     		ldr	r2, .L16
 250 009c 1268     		ldr	r2, [r2]
 251 009e 42F08072 		orr	r2, r2, #16777216
 252 00a2 1A60     		str	r2, [r3]
 253              		.loc 1 205 0
 254 00a4 00BF     		nop
 255              	.L13:
 256              		.loc 1 205 0 is_stmt 0 discriminator 1
 257 00a6 184B     		ldr	r3, .L16+4
 258 00a8 5B68     		ldr	r3, [r3, #4]
 259 00aa 03F48043 		and	r3, r3, #16384
 260 00ae 002B     		cmp	r3, #0
 261 00b0 F9D0     		beq	.L13
 262              		.loc 1 221 0 is_stmt 1
 263 00b2 00BF     		nop
 264              	.L14:
 265              		.loc 1 221 0 is_stmt 0 discriminator 1
 266 00b4 134B     		ldr	r3, .L16
 267 00b6 1B68     		ldr	r3, [r3]
 268 00b8 03F00073 		and	r3, r3, #33554432
 269 00bc 002B     		cmp	r3, #0
 270 00be F9D0     		beq	.L14
 271              		.loc 1 247 0 is_stmt 1
 272 00c0 104B     		ldr	r3, .L16
 273 00c2 134A     		ldr	r2, .L16+12
 274 00c4 9A60     		str	r2, [r3, #8]
 275              		.loc 1 260 0
 276 00c6 134B     		ldr	r3, .L16+16
 277 00c8 40F20572 		movw	r2, #1797
 278 00cc 1A60     		str	r2, [r3]
 279              		.loc 1 266 0
 280 00ce 0D4B     		ldr	r3, .L16
 281 00d0 0C4A     		ldr	r2, .L16
 282 00d2 9268     		ldr	r2, [r2, #8]
 283 00d4 42F00202 		orr	r2, r2, #2
 284 00d8 9A60     		str	r2, [r3, #8]
 285              		.loc 1 267 0
ARM GAS  /tmp/ccAvdaKp.s 			page 6


 286 00da 00BF     		nop
 287              	.L15:
 288              		.loc 1 267 0 is_stmt 0 discriminator 1
 289 00dc 094B     		ldr	r3, .L16
 290 00de 9B68     		ldr	r3, [r3, #8]
 291 00e0 03F00C03 		and	r3, r3, #12
 292 00e4 082B     		cmp	r3, #8
 293 00e6 F9D1     		bne	.L15
 294              		.loc 1 274 0 is_stmt 1
 295 00e8 064B     		ldr	r3, .L16
 296 00ea 064A     		ldr	r2, .L16
 297 00ec 526C     		ldr	r2, [r2, #68]
 298 00ee 42F48042 		orr	r2, r2, #16384
 299 00f2 5A64     		str	r2, [r3, #68]
 300 00f4 034B     		ldr	r3, .L16
 301 00f6 034A     		ldr	r2, .L16
 302 00f8 526E     		ldr	r2, [r2, #100]
 303 00fa 42F48042 		orr	r2, r2, #16384
 304 00fe 5A66     		str	r2, [r3, #100]
 305              		.loc 1 275 0
 306 0100 7047     		bx	lr
 307              	.L17:
 308 0102 00BF     		.align	2
 309              	.L16:
 310 0104 00380240 		.word	1073887232
 311 0108 00700040 		.word	1073770496
 312 010c 08544007 		.word	121656328
 313 0110 00940838 		.word	940086272
 314 0114 003C0240 		.word	1073888256
 315              		.cfi_endproc
 316              	.LFE273:
 317              		.size	stm32_clock_init, .-stm32_clock_init
 318 0118 AFF30080 		.text
 318      AFF30080 
 319              	.Letext0:
 320              		.file 2 "/usr/lib/gcc/arm-none-eabi/4.8/include/stddef.h"
 321              		.file 3 "/usr/include/newlib/machine/_default_types.h"
 322              		.file 4 "/usr/include/newlib/stdint.h"
 323              		.file 5 "/home/efe/ChibiOS/os/rt/ports/ARMCMx/compilers/GCC/chtypes.h"
 324              		.file 6 "/home/efe/ChibiOS/os/rt/include/chsystypes.h"
 325              		.file 7 "/home/efe/ChibiOS/os/rt/include/chschd.h"
 326              		.file 8 "/home/efe/ChibiOS/os/ext/CMSIS/ST/stm32f407xx.h"
 327              		.file 9 "/home/efe/ChibiOS/os/rt/ports/ARMCMx/chcore.h"
 328              		.file 10 "/home/efe/ChibiOS/os/rt/ports/ARMCMx/chcore_v7m.h"
 329              		.file 11 "/home/efe/ChibiOS/os/rt/include/chtm.h"
 330              		.file 12 "/home/efe/ChibiOS/os/rt/include/chsem.h"
 331              		.file 13 "/home/efe/ChibiOS/os/rt/include/chmtx.h"
 332              		.file 14 "/home/efe/ChibiOS/os/ext/CMSIS/include/core_cm4.h"