ARM GAS  /tmp/ccAvdaKp.s 			page 1


   1              		.syntax unified
   2              		.cpu cortex-m4
   3              		.fpu softvfp
   4              		.eabi_attribute 20, 1
   5              		.eabi_attribute 21, 1
   6              		.eabi_attribute 23, 3
   7              		.eabi_attribute 24, 1
   8              		.eabi_attribute 25, 1
   9              		.eabi_attribute 26, 1
  10              		.eabi_attribute 30, 6
  11              		.eabi_attribute 34, 1
  12              		.eabi_attribute 18, 4
  13              		.thumb
  14              		.file	"hal_lld.c"
  15              		.text
  16              	.Ltext0:
  17              		.cfi_sections	.debug_frame
  18              		.global	SystemCoreClock
  19              		.section	.data.SystemCoreClock,"aw",%progbits
  20              		.align	2
  21              		.type	SystemCoreClock, %object
  22              		.size	SystemCoreClock, 4
  23              	SystemCoreClock:
  24 0000 007A030A 		.word	168000000
  25              		.section	.text.hal_lld_backup_domain_init,"ax",%progbits
  26              		.align	2
  27              		.p2align 4,,15
  28              		.thumb
  29              		.thumb_func
  30              		.type	hal_lld_backup_domain_init, %function
  31              	hal_lld_backup_domain_init:
  32              	.LFB271:
  33              		.file 1 "/home/efe/ChibiOS/os/hal/ports/STM32/STM32F4xx/hal_lld.c"
  34              		.loc 1 54 0
  35              		.cfi_startproc
  36              		@ args = 0, pretend = 0, frame = 0
  37              		@ frame_needed = 0, uses_anonymous_args = 0
  38              		@ link register save eliminated.
  39              		.loc 1 57 0
  40 0000 0D4B     		ldr	r3, .L3
  41 0002 0D4A     		ldr	r2, .L3
  42 0004 1268     		ldr	r2, [r2]
  43 0006 42F48072 		orr	r2, r2, #256
  44 000a 1A60     		str	r2, [r3]
  45              		.loc 1 60 0
  46 000c 0B4B     		ldr	r3, .L3+4
  47 000e 1B6F     		ldr	r3, [r3, #112]
  48 0010 03F44073 		and	r3, r3, #768
  49 0014 B3F5007F 		cmp	r3, #512
  50 0018 06D0     		beq	.L2
  51              		.loc 1 62 0
  52 001a 084B     		ldr	r3, .L3+4
  53 001c 4FF48032 		mov	r2, #65536
  54 0020 1A67     		str	r2, [r3, #112]
  55              		.loc 1 63 0
  56 0022 064B     		ldr	r3, .L3+4
  57 0024 0022     		movs	r2, #0
ARM GAS  /tmp/ccAvdaKp.s 			page 2


  58 0026 1A67     		str	r2, [r3, #112]
  59              	.L2:
  60              		.loc 1 97 0
  61 0028 034B     		ldr	r3, .L3
  62 002a 034A     		ldr	r2, .L3
  63 002c 5268     		ldr	r2, [r2, #4]
  64 002e 22F40072 		bic	r2, r2, #512
  65 0032 5A60     		str	r2, [r3, #4]
  66              		.loc 1 99 0
  67 0034 7047     		bx	lr
  68              	.L4:
  69 0036 00BF     		.align	2
  70              	.L3:
  71 0038 00700040 		.word	1073770496
  72 003c 00380240 		.word	1073887232
  73              		.cfi_endproc
  74              	.LFE271:
  75              		.size	hal_lld_backup_domain_init, .-hal_lld_backup_domain_init
  76              		.section	.text.hal_lld_init,"ax",%progbits
  77              		.align	2
  78              		.p2align 4,,15
  79              		.global	hal_lld_init
  80              		.thumb
  81              		.thumb_func
  82              		.type	hal_lld_init, %function
  83              	hal_lld_init:
  84              	.LFB272:
  85              		.loc 1 114 0
  86              		.cfi_startproc
  87              		@ args = 0, pretend = 0, frame = 0
  88              		@ frame_needed = 0, uses_anonymous_args = 0
  89 0000 08B5     		push	{r3, lr}
  90              		.cfi_def_cfa_offset 8
  91              		.cfi_offset 3, -8
  92              		.cfi_offset 14, -4
  93              		.loc 1 118 0
  94 0002 164B     		ldr	r3, .L6
  95 0004 1B69     		ldr	r3, [r3, #16]
  96 0006 154B     		ldr	r3, .L6
  97 0008 4FF0FF32 		mov	r2, #-1
  98 000c 1A61     		str	r2, [r3, #16]
  99 000e 134B     		ldr	r3, .L6
 100 0010 0022     		movs	r2, #0
 101 0012 1A61     		str	r2, [r3, #16]
 102              		.loc 1 119 0
 103 0014 114B     		ldr	r3, .L6
 104 0016 5B69     		ldr	r3, [r3, #20]
 105 0018 104B     		ldr	r3, .L6
 106 001a 4FF0FF32 		mov	r2, #-1
 107 001e 5A61     		str	r2, [r3, #20]
 108 0020 0E4B     		ldr	r3, .L6
 109 0022 0022     		movs	r2, #0
 110 0024 5A61     		str	r2, [r3, #20]
 111              		.loc 1 120 0
 112 0026 0D4B     		ldr	r3, .L6
 113 0028 0C4A     		ldr	r2, .L6
 114 002a 126A     		ldr	r2, [r2, #32]
ARM GAS  /tmp/ccAvdaKp.s 			page 3


 115 002c 62F08052 		orn	r2, r2, #268435456
 116 0030 1A62     		str	r2, [r3, #32]
 117 0032 0A4B     		ldr	r3, .L6
 118 0034 0022     		movs	r2, #0
 119 0036 1A62     		str	r2, [r3, #32]
 120              		.loc 1 121 0
 121 0038 084B     		ldr	r3, .L6
 122 003a 5B6A     		ldr	r3, [r3, #36]
 123 003c 074B     		ldr	r3, .L6
 124 003e 4FF0FF32 		mov	r2, #-1
 125 0042 5A62     		str	r2, [r3, #36]
 126 0044 054B     		ldr	r3, .L6
 127 0046 0022     		movs	r2, #0
 128 0048 5A62     		str	r2, [r3, #36]
 129              		.loc 1 124 0
 130 004a 044B     		ldr	r3, .L6
 131 004c 034A     		ldr	r2, .L6
 132 004e 126C     		ldr	r2, [r2, #64]
 133 0050 42F08052 		orr	r2, r2, #268435456
 134 0054 1A64     		str	r2, [r3, #64]
 135              		.loc 1 127 0
 136 0056 FFF7FEFF 		bl	hal_lld_backup_domain_init
 137              		.loc 1 137 0
 138 005a 08BD     		pop	{r3, pc}
 139              	.L7:
 140              		.align	2
 141              	.L6:
 142 005c 00380240 		.word	1073887232
 143              		.cfi_endproc
 144              	.LFE272:
 145              		.size	hal_lld_init, .-hal_lld_init
 146              		.section	.text.stm32_clock_init,"ax",%progbits
 147              		.align	2
 148              		.p2align 4,,15
 149              		.global	stm32_clock_init
 150              		.thumb
 151              		.thumb_func
 152              		.type	stm32_clock_init, %function
 153              	stm32_clock_init:
 154              	.LFB273:
 155              		.loc 1 146 0
 156              		.cfi_startproc
 157              		@ args = 0, pretend = 0, frame = 0
 158              		@ frame_needed = 0, uses_anonymous_args = 0
 159              		@ link register save eliminated.
 160              		.loc 1 150 0
 161 0000 404B     		ldr	r3, .L16
 162 0002 4FF08052 		mov	r2, #268435456
 163 0006 1A64     		str	r2, [r3, #64]
 164              		.loc 1 154 0
 165 0008 3F4B     		ldr	r3, .L16+4
 166 000a 4FF44042 		mov	r2, #49152
 167 000e 1A60     		str	r2, [r3]
 168              		.loc 1 161 0
 169 0010 3C4B     		ldr	r3, .L16
 170 0012 3C4A     		ldr	r2, .L16
 171 0014 1268     		ldr	r2, [r2]
ARM GAS  /tmp/ccAvdaKp.s 			page 4


 172 0016 42F00102 		orr	r2, r2, #1
 173 001a 1A60     		str	r2, [r3]
 174              		.loc 1 162 0
 175 001c 00BF     		nop
 176              	.L9:
 177              		.loc 1 162 0 is_stmt 0 discriminator 1
 178 001e 394B     		ldr	r3, .L16
 179 0020 1B68     		ldr	r3, [r3]
 180 0022 03F00203 		and	r3, r3, #2
 181 0026 002B     		cmp	r3, #0
 182 0028 F9D0     		beq	.L9
 183              		.loc 1 168 0 is_stmt 1
 184 002a 364B     		ldr	r3, .L16
 185 002c 354A     		ldr	r2, .L16
 186 002e 9268     		ldr	r2, [r2, #8]
 187 0030 22F00302 		bic	r2, r2, #3
 188 0034 9A60     		str	r2, [r3, #8]
 189              		.loc 1 169 0
 190 0036 334B     		ldr	r3, .L16
 191 0038 324A     		ldr	r2, .L16
 192 003a 9268     		ldr	r2, [r2, #8]
 193 003c 9A60     		str	r2, [r3, #8]
 194              		.loc 1 170 0
 195 003e 00BF     		nop
 196              	.L10:
 197              		.loc 1 170 0 is_stmt 0 discriminator 1
 198 0040 304B     		ldr	r3, .L16
 199 0042 9B68     		ldr	r3, [r3, #8]
 200 0044 03F00C03 		and	r3, r3, #12
 201 0048 002B     		cmp	r3, #0
 202 004a F9D1     		bne	.L10
 203              		.loc 1 174 0 is_stmt 1
 204 004c 2D4B     		ldr	r3, .L16
 205 004e 2D4A     		ldr	r2, .L16
 206 0050 1268     		ldr	r2, [r2]
 207 0052 02F0F902 		and	r2, r2, #249
 208 0056 1A60     		str	r2, [r3]
 209              		.loc 1 175 0
 210 0058 2A4B     		ldr	r3, .L16
 211 005a 0022     		movs	r2, #0
 212 005c 9A60     		str	r2, [r3, #8]
 213              		.loc 1 184 0
 214 005e 294B     		ldr	r3, .L16
 215 0060 284A     		ldr	r2, .L16
 216 0062 1268     		ldr	r2, [r2]
 217 0064 42F48032 		orr	r2, r2, #65536
 218 0068 1A60     		str	r2, [r3]
 219              		.loc 1 186 0
 220 006a 00BF     		nop
 221              	.L11:
 222              		.loc 1 186 0 is_stmt 0 discriminator 1
 223 006c 254B     		ldr	r3, .L16
 224 006e 1B68     		ldr	r3, [r3]
 225 0070 03F40033 		and	r3, r3, #131072
 226 0074 002B     		cmp	r3, #0
 227 0076 F9D0     		beq	.L11
 228              		.loc 1 192 0 is_stmt 1
ARM GAS  /tmp/ccAvdaKp.s 			page 5


 229 0078 224B     		ldr	r3, .L16
 230 007a 224A     		ldr	r2, .L16
 231 007c 526F     		ldr	r2, [r2, #116]
 232 007e 42F00102 		orr	r2, r2, #1
 233 0082 5A67     		str	r2, [r3, #116]
 234              		.loc 1 193 0
 235 0084 00BF     		nop
 236              	.L12:
 237              		.loc 1 193 0 is_stmt 0 discriminator 1
 238 0086 1F4B     		ldr	r3, .L16
 239 0088 5B6F     		ldr	r3, [r3, #116]
 240 008a 03F00203 		and	r3, r3, #2
 241 008e 002B     		cmp	r3, #0
 242 0090 F9D0     		beq	.L12
 243              		.loc 1 199 0 is_stmt 1
 244 0092 1C4B     		ldr	r3, .L16
 245 0094 1D4A     		ldr	r2, .L16+8
 246 0096 5A60     		str	r2, [r3, #4]
 247              		.loc 1 201 0
 248 0098 1A4B     		ldr	r3, .L16
 249 009a 1A4A     		ldr	r2, .L16
 250 009c 1268     		ldr	r2, [r2]
 251 009e 42F08072 		orr	r2, r2, #16777216
 252 00a2 1A60     		str	r2, [r3]
 253              		.loc 1 205 0
 254 00a4 00BF     		nop
 255              	.L13:
 256              		.loc 1 205 0 is_stmt 0 discriminator 1
 257 00a6 184B     		ldr	r3, .L16+4
 258 00a8 5B68     		ldr	r3, [r3, #4]
 259 00aa 03F48043 		and	r3, r3, #16384
 260 00ae 002B     		cmp	r3, #0
 261 00b0 F9D0     		beq	.L13
 262              		.loc 1 221 0 is_stmt 1
 263 00b2 00BF     		nop
 264              	.L14:
 265              		.loc 1 221 0 is_stmt 0 discriminator 1
 266 00b4 134B     		ldr	r3, .L16
 267 00b6 1B68     		ldr	r3, [r3]
 268 00b8 03F00073 		and	r3, r3, #33554432
 269 00bc 002B     		cmp	r3, #0
 270 00be F9D0     		beq	.L14
 271              		.loc 1 247 0 is_stmt 1
 272 00c0 104B     		ldr	r3, .L16
 273 00c2 134A     		ldr	r2, .L16+12
 274 00c4 9A60     		str	r2, [r3, #8]
 275              		.loc 1 260 0
 276 00c6 134B     		ldr	r3, .L16+16
 277 00c8 40F20572 		movw	r2, #1797
 278 00cc 1A60     		str	r2, [r3]
 279              		.loc 1 266 0
 280 00ce 0D4B     		ldr	r3, .L16
 281 00d0 0C4A     		ldr	r2, .L16
 282 00d2 9268     		ldr	r2, [r2, #8]
 283 00d4 42F00202 		orr	r2, r2, #2
 284 00d8 9A60     		str	r2, [r3, #8]
 285              		.loc 1 267 0
ARM GAS  /tmp/ccAvdaKp.s 			page 6


 286 00da 00BF     		nop
 287              	.L15:
 288              		.loc 1 267 0 is_stmt 0 discriminator 1
 289 00dc 094B     		ldr	r3, .L16
 290 00de 9B68     		ldr	r3, [r3, #8]
 291 00e0 03F00C03 		and	r3, r3, #12
 292 00e4 082B     		cmp	r3, #8
 293 00e6 F9D1     		bne	.L15
 294              		.loc 1 274 0 is_stmt 1
 295 00e8 064B     		ldr	r3, .L16
 296 00ea 064A     		ldr	r2, .L16
 297 00ec 526C     		ldr	r2, [r2, #68]
 298 00ee 42F48042 		orr	r2, r2, #16384
 299 00f2 5A64     		str	r2, [r3, #68]
 300 00f4 034B     		ldr	r3, .L16
 301 00f6 034A     		ldr	r2, .L16
 302 00f8 526E     		ldr	r2, [r2, #100]
 303 00fa 42F48042 		orr	r2, r2, #16384
 304 00fe 5A66     		str	r2, [r3, #100]
 305              		.loc 1 275 0
 306 0100 7047     		bx	lr
 307              	.L17:
 308 0102 00BF     		.align	2
 309              	.L16:
 310 0104 00380240 		.word	1073887232
 311 0108 00700040 		.word	1073770496
 312 010c 08544007 		.word	121656328
 313 0110 00940838 		.word	940086272
 314 0114 003C0240 		.word	1073888256
 315              		.cfi_endproc
 316              	.LFE273:
 317              		.size	stm32_clock_init, .-stm32_clock_init
 318 0118 AFF30080 		.text
 318      AFF30080 
 319              	.Letext0:
 320              		.file 2 "/usr/lib/gcc/arm-none-eabi/4.8/include/stddef.h"
 321              		.file 3 "/usr/include/newlib/machine/_default_types.h"
 322              		.file 4 "/usr/include/newlib/stdint.h"
 323              		.file 5 "/home/efe/ChibiOS/os/rt/ports/ARMCMx/compilers/GCC/chtypes.h"
 324              		.file 6 "/home/efe/ChibiOS/os/rt/include/chsystypes.h"
 325              		.file 7 "/home/efe/ChibiOS/os/rt/include/chschd.h"
 326              		.file 8 "/home/efe/ChibiOS/os/ext/CMSIS/ST/stm32f407xx.h"
 327              		.file 9 "/home/efe/ChibiOS/os/rt/ports/ARMCMx/chcore.h"
 328              		.file 10 "/home/efe/ChibiOS/os/rt/ports/ARMCMx/chcore_v7m.h"
 329              		.file 11 "/home/efe/ChibiOS/os/rt/include/chtm.h"
 330              		.file 12 "/home/efe/ChibiOS/os/rt/include/chsem.h"
 331              		.file 13 "/home/efe/ChibiOS/os/rt/include/chmtx.h"
 332              		.file 14 "/home/efe/ChibiOS/os/ext/CMSIS/include/core_cm4.h"
 333              		.section	.debug_info,"",%progbits
 334              	.Ldebug_info0:
 335 0000 CF080000 		.4byte	0x8cf
 336 0004 0400     		.2byte	0x4
 337 0006 00000000 		.4byte	.Ldebug_abbrev0
 338 000a 04       		.byte	0x4
 339 000b 01       		.uleb128 0x1
 340 000c 5F010000 		.4byte	.LASF141
 341 0010 01       		.byte	0x1
ARM GAS  /tmp/ccAvdaKp.s 			page 7


 342 0011 38020000 		.4byte	.LASF142
 343 0015 00000000 		.4byte	.Ldebug_ranges0+0
 344 0019 00000000 		.4byte	0
 345 001d 00000000 		.4byte	.Ldebug_line0
 346 0021 02       		.uleb128 0x2
 347 0022 04       		.byte	0x4
 348 0023 05       		.byte	0x5
 349 0024 696E7400 		.ascii	"int\000"
 350 0028 03       		.uleb128 0x3
 351 0029 0D000000 		.4byte	.LASF2
 352 002d 02       		.byte	0x2
 353 002e D4       		.byte	0xd4
 354 002f 33000000 		.4byte	0x33
 355 0033 04       		.uleb128 0x4
 356 0034 04       		.byte	0x4
 357 0035 07       		.byte	0x7
 358 0036 A4020000 		.4byte	.LASF0
 359 003a 04       		.uleb128 0x4
 360 003b 01       		.byte	0x1
 361 003c 06       		.byte	0x6
 362 003d DC000000 		.4byte	.LASF1
 363 0041 03       		.uleb128 0x3
 364 0042 24000000 		.4byte	.LASF3
 365 0046 03       		.byte	0x3
 366 0047 1D       		.byte	0x1d
 367 0048 4C000000 		.4byte	0x4c
 368 004c 04       		.uleb128 0x4
 369 004d 01       		.byte	0x1
 370 004e 08       		.byte	0x8
 371 004f BB040000 		.4byte	.LASF4
 372 0053 04       		.uleb128 0x4
 373 0054 02       		.byte	0x2
 374 0055 05       		.byte	0x5
 375 0056 D3040000 		.4byte	.LASF5
 376 005a 04       		.uleb128 0x4
 377 005b 02       		.byte	0x2
 378 005c 07       		.byte	0x7
 379 005d ED020000 		.4byte	.LASF6
 380 0061 03       		.uleb128 0x3
 381 0062 77030000 		.4byte	.LASF7
 382 0066 03       		.byte	0x3
 383 0067 3F       		.byte	0x3f
 384 0068 6C000000 		.4byte	0x6c
 385 006c 04       		.uleb128 0x4
 386 006d 04       		.byte	0x4
 387 006e 05       		.byte	0x5
 388 006f 32010000 		.4byte	.LASF8
 389 0073 03       		.uleb128 0x3
 390 0074 BF050000 		.4byte	.LASF9
 391 0078 03       		.byte	0x3
 392 0079 41       		.byte	0x41
 393 007a 7E000000 		.4byte	0x7e
 394 007e 04       		.uleb128 0x4
 395 007f 04       		.byte	0x4
 396 0080 07       		.byte	0x7
 397 0081 71050000 		.4byte	.LASF10
 398 0085 04       		.uleb128 0x4
ARM GAS  /tmp/ccAvdaKp.s 			page 8


 399 0086 08       		.byte	0x8
 400 0087 05       		.byte	0x5
 401 0088 CE000000 		.4byte	.LASF11
 402 008c 03       		.uleb128 0x3
 403 008d 3F040000 		.4byte	.LASF12
 404 0091 03       		.byte	0x3
 405 0092 5B       		.byte	0x5b
 406 0093 97000000 		.4byte	0x97
 407 0097 04       		.uleb128 0x4
 408 0098 08       		.byte	0x8
 409 0099 07       		.byte	0x7
 410 009a 56000000 		.4byte	.LASF13
 411 009e 03       		.uleb128 0x3
 412 009f 48060000 		.4byte	.LASF14
 413 00a3 04       		.byte	0x4
 414 00a4 2A       		.byte	0x2a
 415 00a5 41000000 		.4byte	0x41
 416 00a9 03       		.uleb128 0x3
 417 00aa B3040000 		.4byte	.LASF15
 418 00ae 04       		.byte	0x4
 419 00af 41       		.byte	0x41
 420 00b0 61000000 		.4byte	0x61
 421 00b4 03       		.uleb128 0x3
 422 00b5 40050000 		.4byte	.LASF16
 423 00b9 04       		.byte	0x4
 424 00ba 42       		.byte	0x42
 425 00bb 73000000 		.4byte	0x73
 426 00bf 03       		.uleb128 0x3
 427 00c0 1B000000 		.4byte	.LASF17
 428 00c4 04       		.byte	0x4
 429 00c5 4E       		.byte	0x4e
 430 00c6 8C000000 		.4byte	0x8c
 431 00ca 05       		.uleb128 0x5
 432 00cb A9000000 		.4byte	0xa9
 433 00cf 05       		.uleb128 0x5
 434 00d0 B4000000 		.4byte	0xb4
 435 00d4 03       		.uleb128 0x3
 436 00d5 08060000 		.4byte	.LASF18
 437 00d9 05       		.byte	0x5
 438 00da 45       		.byte	0x45
 439 00db B4000000 		.4byte	0xb4
 440 00df 03       		.uleb128 0x3
 441 00e0 4B030000 		.4byte	.LASF19
 442 00e4 05       		.byte	0x5
 443 00e5 48       		.byte	0x48
 444 00e6 9E000000 		.4byte	0x9e
 445 00ea 03       		.uleb128 0x3
 446 00eb 4E010000 		.4byte	.LASF20
 447 00ef 05       		.byte	0x5
 448 00f0 49       		.byte	0x49
 449 00f1 9E000000 		.4byte	0x9e
 450 00f5 03       		.uleb128 0x3
 451 00f6 4A040000 		.4byte	.LASF21
 452 00fa 05       		.byte	0x5
 453 00fb 4A       		.byte	0x4a
 454 00fc 9E000000 		.4byte	0x9e
 455 0100 03       		.uleb128 0x3
ARM GAS  /tmp/ccAvdaKp.s 			page 9


 456 0101 95040000 		.4byte	.LASF22
 457 0105 05       		.byte	0x5
 458 0106 4C       		.byte	0x4c
 459 0107 B4000000 		.4byte	0xb4
 460 010b 03       		.uleb128 0x3
 461 010c 15030000 		.4byte	.LASF23
 462 0110 05       		.byte	0x5
 463 0111 4D       		.byte	0x4d
 464 0112 A9000000 		.4byte	0xa9
 465 0116 03       		.uleb128 0x3
 466 0117 6B030000 		.4byte	.LASF24
 467 011b 05       		.byte	0x5
 468 011c 4F       		.byte	0x4f
 469 011d B4000000 		.4byte	0xb4
 470 0121 03       		.uleb128 0x3
 471 0122 9E020000 		.4byte	.LASF25
 472 0126 05       		.byte	0x5
 473 0127 51       		.byte	0x51
 474 0128 A9000000 		.4byte	0xa9
 475 012c 03       		.uleb128 0x3
 476 012d A1050000 		.4byte	.LASF26
 477 0131 06       		.byte	0x6
 478 0132 33       		.byte	0x33
 479 0133 B4000000 		.4byte	0xb4
 480 0137 03       		.uleb128 0x3
 481 0138 91050000 		.4byte	.LASF27
 482 013c 06       		.byte	0x6
 483 013d 3F       		.byte	0x3f
 484 013e 42010000 		.4byte	0x142
 485 0142 06       		.uleb128 0x6
 486 0143 00030000 		.4byte	.LASF47
 487 0147 44       		.byte	0x44
 488 0148 07       		.byte	0x7
 489 0149 C2       		.byte	0xc2
 490 014a 2F020000 		.4byte	0x22f
 491 014e 07       		.uleb128 0x7
 492 014f E8030000 		.4byte	.LASF28
 493 0153 07       		.byte	0x7
 494 0154 C3       		.byte	0xc3
 495 0155 3A020000 		.4byte	0x23a
 496 0159 00       		.byte	0
 497 015a 07       		.uleb128 0x7
 498 015b 84040000 		.4byte	.LASF29
 499 015f 07       		.byte	0x7
 500 0160 C5       		.byte	0xc5
 501 0161 3A020000 		.4byte	0x23a
 502 0165 04       		.byte	0x4
 503 0166 07       		.uleb128 0x7
 504 0167 C7000000 		.4byte	.LASF30
 505 016b 07       		.byte	0x7
 506 016c C7       		.byte	0xc7
 507 016d 00010000 		.4byte	0x100
 508 0171 08       		.byte	0x8
 509 0172 07       		.uleb128 0x7
 510 0173 79060000 		.4byte	.LASF31
 511 0177 07       		.byte	0x7
 512 0178 C8       		.byte	0xc8
ARM GAS  /tmp/ccAvdaKp.s 			page 10


 513 0179 B3060000 		.4byte	0x6b3
 514 017d 0C       		.byte	0xc
 515 017e 07       		.uleb128 0x7
 516 017f 0F020000 		.4byte	.LASF32
 517 0183 07       		.byte	0x7
 518 0184 CA       		.byte	0xca
 519 0185 3A020000 		.4byte	0x23a
 520 0189 10       		.byte	0x10
 521 018a 07       		.uleb128 0x7
 522 018b 03040000 		.4byte	.LASF33
 523 018f 07       		.byte	0x7
 524 0190 CB       		.byte	0xcb
 525 0191 3A020000 		.4byte	0x23a
 526 0195 14       		.byte	0x14
 527 0196 07       		.uleb128 0x7
 528 0197 57060000 		.4byte	.LASF34
 529 019b 07       		.byte	0x7
 530 019c D2       		.byte	0xd2
 531 019d 32080000 		.4byte	0x832
 532 01a1 18       		.byte	0x18
 533 01a2 07       		.uleb128 0x7
 534 01a3 DD040000 		.4byte	.LASF35
 535 01a7 07       		.byte	0x7
 536 01a8 DD       		.byte	0xdd
 537 01a9 EA000000 		.4byte	0xea
 538 01ad 1C       		.byte	0x1c
 539 01ae 07       		.uleb128 0x7
 540 01af FD040000 		.4byte	.LASF36
 541 01b3 07       		.byte	0x7
 542 01b4 E1       		.byte	0xe1
 543 01b5 DF000000 		.4byte	0xdf
 544 01b9 1D       		.byte	0x1d
 545 01ba 07       		.uleb128 0x7
 546 01bb 36060000 		.4byte	.LASF37
 547 01bf 07       		.byte	0x7
 548 01c0 E6       		.byte	0xe6
 549 01c1 F5000000 		.4byte	0xf5
 550 01c5 1E       		.byte	0x1e
 551 01c6 08       		.uleb128 0x8
 552 01c7 705F7500 		.ascii	"p_u\000"
 553 01cb 07       		.byte	0x7
 554 01cc 3101     		.2byte	0x131
 555 01ce 6D070000 		.4byte	0x76d
 556 01d2 20       		.byte	0x20
 557 01d3 09       		.uleb128 0x9
 558 01d4 AB030000 		.4byte	.LASF38
 559 01d8 07       		.byte	0x7
 560 01d9 3601     		.2byte	0x136
 561 01db 40020000 		.4byte	0x240
 562 01df 24       		.byte	0x24
 563 01e0 09       		.uleb128 0x9
 564 01e1 D0020000 		.4byte	.LASF39
 565 01e5 07       		.byte	0x7
 566 01e6 3C01     		.2byte	0x13c
 567 01e8 64020000 		.4byte	0x264
 568 01ec 28       		.byte	0x28
 569 01ed 09       		.uleb128 0x9
ARM GAS  /tmp/ccAvdaKp.s 			page 11


 570 01ee 6B060000 		.4byte	.LASF40
 571 01f2 07       		.byte	0x7
 572 01f3 4001     		.2byte	0x140
 573 01f5 0B010000 		.4byte	0x10b
 574 01f9 30       		.byte	0x30
 575 01fa 09       		.uleb128 0x9
 576 01fb 2B050000 		.4byte	.LASF41
 577 01ff 07       		.byte	0x7
 578 0200 4601     		.2byte	0x146
 579 0202 16010000 		.4byte	0x116
 580 0206 34       		.byte	0x34
 581 0207 09       		.uleb128 0x9
 582 0208 C9040000 		.4byte	.LASF42
 583 020c 07       		.byte	0x7
 584 020d 4D01     		.2byte	0x14d
 585 020f 2C080000 		.4byte	0x82c
 586 0213 38       		.byte	0x38
 587 0214 09       		.uleb128 0x9
 588 0215 AB050000 		.4byte	.LASF43
 589 0219 07       		.byte	0x7
 590 021a 5101     		.2byte	0x151
 591 021c 00010000 		.4byte	0x100
 592 0220 3C       		.byte	0x3c
 593 0221 09       		.uleb128 0x9
 594 0222 FF000000 		.4byte	.LASF44
 595 0226 07       		.byte	0x7
 596 0227 5801     		.2byte	0x158
 597 0229 17030000 		.4byte	0x317
 598 022d 40       		.byte	0x40
 599 022e 00       		.byte	0
 600 022f 03       		.uleb128 0x3
 601 0230 BE030000 		.4byte	.LASF45
 602 0234 06       		.byte	0x6
 603 0235 44       		.byte	0x44
 604 0236 3A020000 		.4byte	0x23a
 605 023a 0A       		.uleb128 0xa
 606 023b 04       		.byte	0x4
 607 023c 37010000 		.4byte	0x137
 608 0240 03       		.uleb128 0x3
 609 0241 8C030000 		.4byte	.LASF46
 610 0245 06       		.byte	0x6
 611 0246 49       		.byte	0x49
 612 0247 4B020000 		.4byte	0x24b
 613 024b 06       		.uleb128 0x6
 614 024c 61050000 		.4byte	.LASF48
 615 0250 04       		.byte	0x4
 616 0251 07       		.byte	0x7
 617 0252 B0       		.byte	0xb0
 618 0253 64020000 		.4byte	0x264
 619 0257 07       		.uleb128 0x7
 620 0258 E8030000 		.4byte	.LASF28
 621 025c 07       		.byte	0x7
 622 025d B1       		.byte	0xb1
 623 025e 3A020000 		.4byte	0x23a
 624 0262 00       		.byte	0
 625 0263 00       		.byte	0
 626 0264 03       		.uleb128 0x3
ARM GAS  /tmp/ccAvdaKp.s 			page 12


 627 0265 1D060000 		.4byte	.LASF49
 628 0269 06       		.byte	0x6
 629 026a 50       		.byte	0x50
 630 026b 6F020000 		.4byte	0x26f
 631 026f 06       		.uleb128 0x6
 632 0270 AC000000 		.4byte	.LASF50
 633 0274 08       		.byte	0x8
 634 0275 07       		.byte	0x7
 635 0276 B7       		.byte	0xb7
 636 0277 94020000 		.4byte	0x294
 637 027b 07       		.uleb128 0x7
 638 027c E8030000 		.4byte	.LASF28
 639 0280 07       		.byte	0x7
 640 0281 B8       		.byte	0xb8
 641 0282 3A020000 		.4byte	0x23a
 642 0286 00       		.byte	0
 643 0287 07       		.uleb128 0x7
 644 0288 84040000 		.4byte	.LASF29
 645 028c 07       		.byte	0x7
 646 028d B9       		.byte	0xb9
 647 028e 3A020000 		.4byte	0x23a
 648 0292 04       		.byte	0x4
 649 0293 00       		.byte	0
 650 0294 03       		.uleb128 0x3
 651 0295 00000000 		.4byte	.LASF51
 652 0299 06       		.byte	0x6
 653 029a 57       		.byte	0x57
 654 029b 9F020000 		.4byte	0x29f
 655 029f 0B       		.uleb128 0xb
 656 02a0 5D030000 		.4byte	.LASF52
 657 02a4 1C       		.byte	0x1c
 658 02a5 07       		.byte	0x7
 659 02a6 9001     		.2byte	0x190
 660 02a8 FB020000 		.4byte	0x2fb
 661 02ac 09       		.uleb128 0x9
 662 02ad 50050000 		.4byte	.LASF53
 663 02b1 07       		.byte	0x7
 664 02b2 9101     		.2byte	0x191
 665 02b4 64020000 		.4byte	0x264
 666 02b8 00       		.byte	0
 667 02b9 09       		.uleb128 0x9
 668 02ba EF040000 		.4byte	.LASF54
 669 02be 07       		.byte	0x7
 670 02bf 9201     		.2byte	0x192
 671 02c1 00010000 		.4byte	0x100
 672 02c5 08       		.byte	0x8
 673 02c6 09       		.uleb128 0x9
 674 02c7 0B040000 		.4byte	.LASF55
 675 02cb 07       		.byte	0x7
 676 02cc 9401     		.2byte	0x194
 677 02ce B3060000 		.4byte	0x6b3
 678 02d2 0C       		.byte	0xc
 679 02d3 09       		.uleb128 0x9
 680 02d4 1F020000 		.4byte	.LASF56
 681 02d8 07       		.byte	0x7
 682 02d9 9701     		.2byte	0x197
 683 02db 3A020000 		.4byte	0x23a
ARM GAS  /tmp/ccAvdaKp.s 			page 13


 684 02df 10       		.byte	0x10
 685 02e0 09       		.uleb128 0x9
 686 02e1 F3050000 		.4byte	.LASF57
 687 02e5 07       		.byte	0x7
 688 02e6 9801     		.2byte	0x198
 689 02e8 3A020000 		.4byte	0x23a
 690 02ec 14       		.byte	0x14
 691 02ed 09       		.uleb128 0x9
 692 02ee 2C040000 		.4byte	.LASF58
 693 02f2 07       		.byte	0x7
 694 02f3 9B01     		.2byte	0x19b
 695 02f5 3A020000 		.4byte	0x23a
 696 02f9 18       		.byte	0x18
 697 02fa 00       		.byte	0
 698 02fb 03       		.uleb128 0x3
 699 02fc B6050000 		.4byte	.LASF59
 700 0300 06       		.byte	0x6
 701 0301 5C       		.byte	0x5c
 702 0302 06030000 		.4byte	0x306
 703 0306 0A       		.uleb128 0xa
 704 0307 04       		.byte	0x4
 705 0308 0C030000 		.4byte	0x30c
 706 030c 0C       		.uleb128 0xc
 707 030d 17030000 		.4byte	0x317
 708 0311 0D       		.uleb128 0xd
 709 0312 17030000 		.4byte	0x317
 710 0316 00       		.byte	0
 711 0317 0E       		.uleb128 0xe
 712 0318 04       		.byte	0x4
 713 0319 03       		.uleb128 0x3
 714 031a 9B030000 		.4byte	.LASF60
 715 031e 06       		.byte	0x6
 716 031f 61       		.byte	0x61
 717 0320 24030000 		.4byte	0x324
 718 0324 0B       		.uleb128 0xb
 719 0325 0D050000 		.4byte	.LASF61
 720 0329 14       		.byte	0x14
 721 032a 07       		.byte	0x7
 722 032b 6B01     		.2byte	0x16b
 723 032d 73030000 		.4byte	0x373
 724 0331 09       		.uleb128 0x9
 725 0332 B1020000 		.4byte	.LASF62
 726 0336 07       		.byte	0x7
 727 0337 6C01     		.2byte	0x16c
 728 0339 44080000 		.4byte	0x844
 729 033d 00       		.byte	0
 730 033e 09       		.uleb128 0x9
 731 033f 30020000 		.4byte	.LASF63
 732 0343 07       		.byte	0x7
 733 0344 6D01     		.2byte	0x16d
 734 0346 44080000 		.4byte	0x844
 735 034a 04       		.byte	0x4
 736 034b 09       		.uleb128 0x9
 737 034c 58050000 		.4byte	.LASF64
 738 0350 07       		.byte	0x7
 739 0351 6E01     		.2byte	0x16e
 740 0353 2C010000 		.4byte	0x12c
ARM GAS  /tmp/ccAvdaKp.s 			page 14


 741 0357 08       		.byte	0x8
 742 0358 09       		.uleb128 0x9
 743 0359 7F060000 		.4byte	.LASF65
 744 035d 07       		.byte	0x7
 745 035e 6F01     		.2byte	0x16f
 746 0360 FB020000 		.4byte	0x2fb
 747 0364 0C       		.byte	0xc
 748 0365 09       		.uleb128 0x9
 749 0366 10060000 		.4byte	.LASF66
 750 036a 07       		.byte	0x7
 751 036b 7101     		.2byte	0x171
 752 036d 17030000 		.4byte	0x317
 753 0371 10       		.byte	0x10
 754 0372 00       		.byte	0
 755 0373 03       		.uleb128 0x3
 756 0374 89000000 		.4byte	.LASF67
 757 0378 06       		.byte	0x6
 758 0379 66       		.byte	0x66
 759 037a 7E030000 		.4byte	0x37e
 760 037e 0B       		.uleb128 0xb
 761 037f D1030000 		.4byte	.LASF68
 762 0383 10       		.byte	0x10
 763 0384 07       		.byte	0x7
 764 0385 7B01     		.2byte	0x17b
 765 0387 C0030000 		.4byte	0x3c0
 766 038b 09       		.uleb128 0x9
 767 038c B1020000 		.4byte	.LASF62
 768 0390 07       		.byte	0x7
 769 0391 7C01     		.2byte	0x17c
 770 0393 44080000 		.4byte	0x844
 771 0397 00       		.byte	0
 772 0398 09       		.uleb128 0x9
 773 0399 30020000 		.4byte	.LASF63
 774 039d 07       		.byte	0x7
 775 039e 7E01     		.2byte	0x17e
 776 03a0 44080000 		.4byte	0x844
 777 03a4 04       		.byte	0x4
 778 03a5 09       		.uleb128 0x9
 779 03a6 58050000 		.4byte	.LASF64
 780 03aa 07       		.byte	0x7
 781 03ab 8001     		.2byte	0x180
 782 03ad 2C010000 		.4byte	0x12c
 783 03b1 08       		.byte	0x8
 784 03b2 09       		.uleb128 0x9
 785 03b3 F7030000 		.4byte	.LASF69
 786 03b7 07       		.byte	0x7
 787 03b8 8801     		.2byte	0x188
 788 03ba 2C010000 		.4byte	0x12c
 789 03be 0C       		.byte	0xc
 790 03bf 00       		.byte	0
 791 03c0 03       		.uleb128 0x3
 792 03c1 3A000000 		.4byte	.LASF70
 793 03c5 06       		.byte	0x6
 794 03c6 6B       		.byte	0x6b
 795 03c7 CB030000 		.4byte	0x3cb
 796 03cb 0B       		.uleb128 0xb
 797 03cc 9D040000 		.4byte	.LASF71
ARM GAS  /tmp/ccAvdaKp.s 			page 15


 798 03d0 04       		.byte	0x4
 799 03d1 07       		.byte	0x7
 800 03d2 A201     		.2byte	0x1a2
 801 03d4 E6030000 		.4byte	0x3e6
 802 03d8 09       		.uleb128 0x9
 803 03d9 CA050000 		.4byte	.LASF72
 804 03dd 07       		.byte	0x7
 805 03de AA01     		.2byte	0x1aa
 806 03e0 4A080000 		.4byte	0x84a
 807 03e4 00       		.byte	0
 808 03e5 00       		.byte	0
 809 03e6 03       		.uleb128 0x3
 810 03e7 3F030000 		.4byte	.LASF73
 811 03eb 06       		.byte	0x6
 812 03ec 70       		.byte	0x70
 813 03ed F1030000 		.4byte	0x3f1
 814 03f1 0F       		.uleb128 0xf
 815 03f2 28010000 		.4byte	.LASF74
 816 03f6 5001     		.2byte	0x150
 817 03f8 07       		.byte	0x7
 818 03f9 C201     		.2byte	0x1c2
 819 03fb 4D040000 		.4byte	0x44d
 820 03ff 09       		.uleb128 0x9
 821 0400 42060000 		.4byte	.LASF75
 822 0404 07       		.byte	0x7
 823 0405 C601     		.2byte	0x1c6
 824 0407 94020000 		.4byte	0x294
 825 040b 00       		.byte	0
 826 040c 09       		.uleb128 0x9
 827 040d 0F010000 		.4byte	.LASF76
 828 0411 07       		.byte	0x7
 829 0412 CA01     		.2byte	0x1ca
 830 0414 73030000 		.4byte	0x373
 831 0418 1C       		.byte	0x1c
 832 0419 08       		.uleb128 0x8
 833 041a 64626700 		.ascii	"dbg\000"
 834 041e 07       		.byte	0x7
 835 041f CE01     		.2byte	0x1ce
 836 0421 C0030000 		.4byte	0x3c0
 837 0425 2C       		.byte	0x2c
 838 0426 09       		.uleb128 0x9
 839 0427 7E000000 		.4byte	.LASF77
 840 042b 07       		.byte	0x7
 841 042c D201     		.2byte	0x1d2
 842 042e 37010000 		.4byte	0x137
 843 0432 30       		.byte	0x30
 844 0433 08       		.uleb128 0x8
 845 0434 746D00   		.ascii	"tm\000"
 846 0437 07       		.byte	0x7
 847 0438 D701     		.2byte	0x1d7
 848 043a 62070000 		.4byte	0x762
 849 043e 74       		.byte	0x74
 850 043f 09       		.uleb128 0x9
 851 0440 8F020000 		.4byte	.LASF78
 852 0444 07       		.byte	0x7
 853 0445 E301     		.2byte	0x1e3
 854 0447 4F080000 		.4byte	0x84f
ARM GAS  /tmp/ccAvdaKp.s 			page 16


 855 044b 78       		.byte	0x78
 856 044c 00       		.byte	0
 857 044d 04       		.uleb128 0x4
 858 044e 04       		.byte	0x4
 859 044f 07       		.byte	0x7
 860 0450 B5030000 		.4byte	.LASF79
 861 0454 10       		.uleb128 0x10
 862 0455 B4000000 		.4byte	0xb4
 863 0459 64040000 		.4byte	0x464
 864 045d 11       		.uleb128 0x11
 865 045e 4D040000 		.4byte	0x44d
 866 0462 01       		.byte	0x1
 867 0463 00       		.byte	0
 868 0464 12       		.uleb128 0x12
 869 0465 1C       		.byte	0x1c
 870 0466 08       		.byte	0x8
 871 0467 DA01     		.2byte	0x1da
 872 0469 C7040000 		.4byte	0x4c7
 873 046d 08       		.uleb128 0x8
 874 046e 41435200 		.ascii	"ACR\000"
 875 0472 08       		.byte	0x8
 876 0473 DC01     		.2byte	0x1dc
 877 0475 CF000000 		.4byte	0xcf
 878 0479 00       		.byte	0
 879 047a 09       		.uleb128 0x9
 880 047b 71020000 		.4byte	.LASF80
 881 047f 08       		.byte	0x8
 882 0480 DD01     		.2byte	0x1dd
 883 0482 CF000000 		.4byte	0xcf
 884 0486 04       		.byte	0x4
 885 0487 09       		.uleb128 0x9
 886 0488 57010000 		.4byte	.LASF81
 887 048c 08       		.byte	0x8
 888 048d DE01     		.2byte	0x1de
 889 048f CF000000 		.4byte	0xcf
 890 0493 08       		.byte	0x8
 891 0494 08       		.uleb128 0x8
 892 0495 535200   		.ascii	"SR\000"
 893 0498 08       		.byte	0x8
 894 0499 DF01     		.2byte	0x1df
 895 049b CF000000 		.4byte	0xcf
 896 049f 0C       		.byte	0xc
 897 04a0 08       		.uleb128 0x8
 898 04a1 435200   		.ascii	"CR\000"
 899 04a4 08       		.byte	0x8
 900 04a5 E001     		.2byte	0x1e0
 901 04a7 CF000000 		.4byte	0xcf
 902 04ab 10       		.byte	0x10
 903 04ac 09       		.uleb128 0x9
 904 04ad 49000000 		.4byte	.LASF82
 905 04b1 08       		.byte	0x8
 906 04b2 E101     		.2byte	0x1e1
 907 04b4 CF000000 		.4byte	0xcf
 908 04b8 14       		.byte	0x14
 909 04b9 09       		.uleb128 0x9
 910 04ba 4F000000 		.4byte	.LASF83
 911 04be 08       		.byte	0x8
ARM GAS  /tmp/ccAvdaKp.s 			page 17


 912 04bf E201     		.2byte	0x1e2
 913 04c1 CF000000 		.4byte	0xcf
 914 04c5 18       		.byte	0x18
 915 04c6 00       		.byte	0
 916 04c7 13       		.uleb128 0x13
 917 04c8 F1000000 		.4byte	.LASF84
 918 04cc 08       		.byte	0x8
 919 04cd E301     		.2byte	0x1e3
 920 04cf 64040000 		.4byte	0x464
 921 04d3 12       		.uleb128 0x12
 922 04d4 08       		.byte	0x8
 923 04d5 08       		.byte	0x8
 924 04d6 5D02     		.2byte	0x25d
 925 04d8 F6040000 		.4byte	0x4f6
 926 04dc 08       		.uleb128 0x8
 927 04dd 435200   		.ascii	"CR\000"
 928 04e0 08       		.byte	0x8
 929 04e1 5F02     		.2byte	0x25f
 930 04e3 CF000000 		.4byte	0xcf
 931 04e7 00       		.byte	0
 932 04e8 08       		.uleb128 0x8
 933 04e9 43535200 		.ascii	"CSR\000"
 934 04ed 08       		.byte	0x8
 935 04ee 6002     		.2byte	0x260
 936 04f0 CF000000 		.4byte	0xcf
 937 04f4 04       		.byte	0x4
 938 04f5 00       		.byte	0
 939 04f6 13       		.uleb128 0x13
 940 04f7 16010000 		.4byte	.LASF85
 941 04fb 08       		.byte	0x8
 942 04fc 6102     		.2byte	0x261
 943 04fe D3040000 		.4byte	0x4d3
 944 0502 12       		.uleb128 0x12
 945 0503 88       		.byte	0x88
 946 0504 08       		.byte	0x8
 947 0505 6702     		.2byte	0x267
 948 0507 91060000 		.4byte	0x691
 949 050b 08       		.uleb128 0x8
 950 050c 435200   		.ascii	"CR\000"
 951 050f 08       		.byte	0x8
 952 0510 6902     		.2byte	0x269
 953 0512 CF000000 		.4byte	0xcf
 954 0516 00       		.byte	0
 955 0517 09       		.uleb128 0x9
 956 0518 17020000 		.4byte	.LASF86
 957 051c 08       		.byte	0x8
 958 051d 6A02     		.2byte	0x26a
 959 051f CF000000 		.4byte	0xcf
 960 0523 04       		.byte	0x4
 961 0524 09       		.uleb128 0x9
 962 0525 66060000 		.4byte	.LASF87
 963 0529 08       		.byte	0x8
 964 052a 6B02     		.2byte	0x26b
 965 052c CF000000 		.4byte	0xcf
 966 0530 08       		.byte	0x8
 967 0531 08       		.uleb128 0x8
 968 0532 43495200 		.ascii	"CIR\000"
ARM GAS  /tmp/ccAvdaKp.s 			page 18


 969 0536 08       		.byte	0x8
 970 0537 6C02     		.2byte	0x26c
 971 0539 CF000000 		.4byte	0xcf
 972 053d 0C       		.byte	0xc
 973 053e 09       		.uleb128 0x9
 974 053f E8000000 		.4byte	.LASF88
 975 0543 08       		.byte	0x8
 976 0544 6D02     		.2byte	0x26d
 977 0546 CF000000 		.4byte	0xcf
 978 054a 10       		.byte	0x10
 979 054b 09       		.uleb128 0x9
 980 054c 88050000 		.4byte	.LASF89
 981 0550 08       		.byte	0x8
 982 0551 6E02     		.2byte	0x26e
 983 0553 CF000000 		.4byte	0xcf
 984 0557 14       		.byte	0x14
 985 0558 09       		.uleb128 0x9
 986 0559 1B030000 		.4byte	.LASF90
 987 055d 08       		.byte	0x8
 988 055e 6F02     		.2byte	0x26f
 989 0560 CF000000 		.4byte	0xcf
 990 0564 18       		.byte	0x18
 991 0565 09       		.uleb128 0x9
 992 0566 52040000 		.4byte	.LASF91
 993 056a 08       		.byte	0x8
 994 056b 7002     		.2byte	0x270
 995 056d B4000000 		.4byte	0xb4
 996 0571 1C       		.byte	0x1c
 997 0572 09       		.uleb128 0x9
 998 0573 36040000 		.4byte	.LASF92
 999 0577 08       		.byte	0x8
 1000 0578 7102     		.2byte	0x271
 1001 057a CF000000 		.4byte	0xcf
 1002 057e 20       		.byte	0x20
 1003 057f 09       		.uleb128 0x9
 1004 0580 3B010000 		.4byte	.LASF93
 1005 0584 08       		.byte	0x8
 1006 0585 7202     		.2byte	0x272
 1007 0587 CF000000 		.4byte	0xcf
 1008 058b 24       		.byte	0x24
 1009 058c 09       		.uleb128 0x9
 1010 058d 5C040000 		.4byte	.LASF94
 1011 0591 08       		.byte	0x8
 1012 0592 7302     		.2byte	0x273
 1013 0594 54040000 		.4byte	0x454
 1014 0598 28       		.byte	0x28
 1015 0599 09       		.uleb128 0x9
 1016 059a 5E060000 		.4byte	.LASF95
 1017 059e 08       		.byte	0x8
 1018 059f 7402     		.2byte	0x274
 1019 05a1 CF000000 		.4byte	0xcf
 1020 05a5 30       		.byte	0x30
 1021 05a6 09       		.uleb128 0x9
 1022 05a7 E3050000 		.4byte	.LASF96
 1023 05ab 08       		.byte	0x8
 1024 05ac 7502     		.2byte	0x275
 1025 05ae CF000000 		.4byte	0xcf
ARM GAS  /tmp/ccAvdaKp.s 			page 19


 1026 05b2 34       		.byte	0x34
 1027 05b3 09       		.uleb128 0x9
 1028 05b4 EF030000 		.4byte	.LASF97
 1029 05b8 08       		.byte	0x8
 1030 05b9 7602     		.2byte	0x276
 1031 05bb CF000000 		.4byte	0xcf
 1032 05bf 38       		.byte	0x38
 1033 05c0 09       		.uleb128 0x9
 1034 05c1 66040000 		.4byte	.LASF98
 1035 05c5 08       		.byte	0x8
 1036 05c6 7702     		.2byte	0x277
 1037 05c8 B4000000 		.4byte	0xb4
 1038 05cc 3C       		.byte	0x3c
 1039 05cd 09       		.uleb128 0x9
 1040 05ce DB050000 		.4byte	.LASF99
 1041 05d2 08       		.byte	0x8
 1042 05d3 7802     		.2byte	0x278
 1043 05d5 CF000000 		.4byte	0xcf
 1044 05d9 40       		.byte	0x40
 1045 05da 09       		.uleb128 0x9
 1046 05db 05050000 		.4byte	.LASF100
 1047 05df 08       		.byte	0x8
 1048 05e0 7902     		.2byte	0x279
 1049 05e2 CF000000 		.4byte	0xcf
 1050 05e6 44       		.byte	0x44
 1051 05e7 09       		.uleb128 0x9
 1052 05e8 70040000 		.4byte	.LASF101
 1053 05ec 08       		.byte	0x8
 1054 05ed 7A02     		.2byte	0x27a
 1055 05ef 54040000 		.4byte	0x454
 1056 05f3 48       		.byte	0x48
 1057 05f4 09       		.uleb128 0x9
 1058 05f5 BD000000 		.4byte	.LASF102
 1059 05f9 08       		.byte	0x8
 1060 05fa 7B02     		.2byte	0x27b
 1061 05fc CF000000 		.4byte	0xcf
 1062 0600 50       		.byte	0x50
 1063 0601 09       		.uleb128 0x9
 1064 0602 11040000 		.4byte	.LASF103
 1065 0606 08       		.byte	0x8
 1066 0607 7C02     		.2byte	0x27c
 1067 0609 CF000000 		.4byte	0xcf
 1068 060d 54       		.byte	0x54
 1069 060e 09       		.uleb128 0x9
 1070 060f E5040000 		.4byte	.LASF104
 1071 0613 08       		.byte	0x8
 1072 0614 7D02     		.2byte	0x27d
 1073 0616 CF000000 		.4byte	0xcf
 1074 061a 58       		.byte	0x58
 1075 061b 09       		.uleb128 0x9
 1076 061c 7A040000 		.4byte	.LASF105
 1077 0620 08       		.byte	0x8
 1078 0621 7E02     		.2byte	0x27e
 1079 0623 B4000000 		.4byte	0xb4
 1080 0627 5C       		.byte	0x5c
 1081 0628 09       		.uleb128 0x9
 1082 0629 44010000 		.4byte	.LASF106
ARM GAS  /tmp/ccAvdaKp.s 			page 20


 1083 062d 08       		.byte	0x8
 1084 062e 7F02     		.2byte	0x27f
 1085 0630 CF000000 		.4byte	0xcf
 1086 0634 60       		.byte	0x60
 1087 0635 09       		.uleb128 0x9
 1088 0636 53030000 		.4byte	.LASF107
 1089 063a 08       		.byte	0x8
 1090 063b 8002     		.2byte	0x280
 1091 063d CF000000 		.4byte	0xcf
 1092 0641 64       		.byte	0x64
 1093 0642 09       		.uleb128 0x9
 1094 0643 36050000 		.4byte	.LASF108
 1095 0647 08       		.byte	0x8
 1096 0648 8102     		.2byte	0x281
 1097 064a 54040000 		.4byte	0x454
 1098 064e 68       		.byte	0x68
 1099 064f 09       		.uleb128 0x9
 1100 0650 3D060000 		.4byte	.LASF109
 1101 0654 08       		.byte	0x8
 1102 0655 8202     		.2byte	0x282
 1103 0657 CF000000 		.4byte	0xcf
 1104 065b 70       		.byte	0x70
 1105 065c 08       		.uleb128 0x8
 1106 065d 43535200 		.ascii	"CSR\000"
 1107 0661 08       		.byte	0x8
 1108 0662 8302     		.2byte	0x283
 1109 0664 CF000000 		.4byte	0xcf
 1110 0668 74       		.byte	0x74
 1111 0669 09       		.uleb128 0x9
 1112 066a 8B040000 		.4byte	.LASF110
 1113 066e 08       		.byte	0x8
 1114 066f 8402     		.2byte	0x284
 1115 0671 54040000 		.4byte	0x454
 1116 0675 78       		.byte	0x78
 1117 0676 09       		.uleb128 0x9
 1118 0677 17060000 		.4byte	.LASF111
 1119 067b 08       		.byte	0x8
 1120 067c 8502     		.2byte	0x285
 1121 067e CF000000 		.4byte	0xcf
 1122 0682 80       		.byte	0x80
 1123 0683 09       		.uleb128 0x9
 1124 0684 0A030000 		.4byte	.LASF112
 1125 0688 08       		.byte	0x8
 1126 0689 8602     		.2byte	0x286
 1127 068b CF000000 		.4byte	0xcf
 1128 068f 84       		.byte	0x84
 1129 0690 00       		.byte	0
 1130 0691 13       		.uleb128 0x13
 1131 0692 DB020000 		.4byte	.LASF113
 1132 0696 08       		.byte	0x8
 1133 0697 8802     		.2byte	0x288
 1134 0699 02050000 		.4byte	0x502
 1135 069d 03       		.uleb128 0x3
 1136 069e 27020000 		.4byte	.LASF114
 1137 06a2 09       		.byte	0x9
 1138 06a3 65       		.byte	0x65
 1139 06a4 17030000 		.4byte	0x317
ARM GAS  /tmp/ccAvdaKp.s 			page 21


 1140 06a8 03       		.uleb128 0x3
 1141 06a9 81030000 		.4byte	.LASF115
 1142 06ad 09       		.byte	0x9
 1143 06ae 6D       		.byte	0x6d
 1144 06af BF000000 		.4byte	0xbf
 1145 06b3 06       		.uleb128 0x6
 1146 06b4 EB050000 		.4byte	.LASF116
 1147 06b8 04       		.byte	0x4
 1148 06b9 09       		.byte	0x9
 1149 06ba 89       		.byte	0x89
 1150 06bb CC060000 		.4byte	0x6cc
 1151 06bf 14       		.uleb128 0x14
 1152 06c0 72313300 		.ascii	"r13\000"
 1153 06c4 09       		.byte	0x9
 1154 06c5 8A       		.byte	0x8a
 1155 06c6 47070000 		.4byte	0x747
 1156 06ca 00       		.byte	0
 1157 06cb 00       		.byte	0
 1158 06cc 06       		.uleb128 0x6
 1159 06cd 2E000000 		.4byte	.LASF117
 1160 06d1 24       		.byte	0x24
 1161 06d2 0A       		.byte	0xa
 1162 06d3 FD       		.byte	0xfd
 1163 06d4 47070000 		.4byte	0x747
 1164 06d8 08       		.uleb128 0x8
 1165 06d9 723400   		.ascii	"r4\000"
 1166 06dc 0A       		.byte	0xa
 1167 06dd 1001     		.2byte	0x110
 1168 06df 9D060000 		.4byte	0x69d
 1169 06e3 00       		.byte	0
 1170 06e4 08       		.uleb128 0x8
 1171 06e5 723500   		.ascii	"r5\000"
 1172 06e8 0A       		.byte	0xa
 1173 06e9 1101     		.2byte	0x111
 1174 06eb 9D060000 		.4byte	0x69d
 1175 06ef 04       		.byte	0x4
 1176 06f0 08       		.uleb128 0x8
 1177 06f1 723600   		.ascii	"r6\000"
 1178 06f4 0A       		.byte	0xa
 1179 06f5 1201     		.2byte	0x112
 1180 06f7 9D060000 		.4byte	0x69d
 1181 06fb 08       		.byte	0x8
 1182 06fc 08       		.uleb128 0x8
 1183 06fd 723700   		.ascii	"r7\000"
 1184 0700 0A       		.byte	0xa
 1185 0701 1301     		.2byte	0x113
 1186 0703 9D060000 		.4byte	0x69d
 1187 0707 0C       		.byte	0xc
 1188 0708 08       		.uleb128 0x8
 1189 0709 723800   		.ascii	"r8\000"
 1190 070c 0A       		.byte	0xa
 1191 070d 1401     		.2byte	0x114
 1192 070f 9D060000 		.4byte	0x69d
 1193 0713 10       		.byte	0x10
 1194 0714 08       		.uleb128 0x8
 1195 0715 723900   		.ascii	"r9\000"
 1196 0718 0A       		.byte	0xa
ARM GAS  /tmp/ccAvdaKp.s 			page 22


 1197 0719 1501     		.2byte	0x115
 1198 071b 9D060000 		.4byte	0x69d
 1199 071f 14       		.byte	0x14
 1200 0720 08       		.uleb128 0x8
 1201 0721 72313000 		.ascii	"r10\000"
 1202 0725 0A       		.byte	0xa
 1203 0726 1601     		.2byte	0x116
 1204 0728 9D060000 		.4byte	0x69d
 1205 072c 18       		.byte	0x18
 1206 072d 08       		.uleb128 0x8
 1207 072e 72313100 		.ascii	"r11\000"
 1208 0732 0A       		.byte	0xa
 1209 0733 1701     		.2byte	0x117
 1210 0735 9D060000 		.4byte	0x69d
 1211 0739 1C       		.byte	0x1c
 1212 073a 08       		.uleb128 0x8
 1213 073b 6C7200   		.ascii	"lr\000"
 1214 073e 0A       		.byte	0xa
 1215 073f 1801     		.2byte	0x118
 1216 0741 9D060000 		.4byte	0x69d
 1217 0745 20       		.byte	0x20
 1218 0746 00       		.byte	0
 1219 0747 0A       		.uleb128 0xa
 1220 0748 04       		.byte	0x4
 1221 0749 CC060000 		.4byte	0x6cc
 1222 074d 15       		.uleb128 0x15
 1223 074e 04       		.byte	0x4
 1224 074f 0B       		.byte	0xb
 1225 0750 38       		.byte	0x38
 1226 0751 62070000 		.4byte	0x762
 1227 0755 07       		.uleb128 0x7
 1228 0756 D4050000 		.4byte	.LASF118
 1229 075a 0B       		.byte	0xb
 1230 075b 3C       		.byte	0x3c
 1231 075c D4000000 		.4byte	0xd4
 1232 0760 00       		.byte	0
 1233 0761 00       		.byte	0
 1234 0762 03       		.uleb128 0x3
 1235 0763 1B040000 		.4byte	.LASF119
 1236 0767 0B       		.byte	0xb
 1237 0768 3D       		.byte	0x3d
 1238 0769 4D070000 		.4byte	0x74d
 1239 076d 16       		.uleb128 0x16
 1240 076e 04       		.byte	0x4
 1241 076f 07       		.byte	0x7
 1242 0770 FA       		.byte	0xfa
 1243 0771 CA070000 		.4byte	0x7ca
 1244 0775 17       		.uleb128 0x17
 1245 0776 14000000 		.4byte	.LASF120
 1246 077a 07       		.byte	0x7
 1247 077b 0101     		.2byte	0x101
 1248 077d 0B010000 		.4byte	0x10b
 1249 0781 17       		.uleb128 0x17
 1250 0782 75000000 		.4byte	.LASF121
 1251 0786 07       		.byte	0x7
 1252 0787 0801     		.2byte	0x108
 1253 0789 0B010000 		.4byte	0x10b
ARM GAS  /tmp/ccAvdaKp.s 			page 23


 1254 078d 17       		.uleb128 0x17
 1255 078e 50060000 		.4byte	.LASF122
 1256 0792 07       		.byte	0x7
 1257 0793 0F01     		.2byte	0x10f
 1258 0795 17030000 		.4byte	0x317
 1259 0799 17       		.uleb128 0x17
 1260 079a 22010000 		.4byte	.LASF123
 1261 079e 07       		.byte	0x7
 1262 079f 1601     		.2byte	0x116
 1263 07a1 CA070000 		.4byte	0x7ca
 1264 07a5 17       		.uleb128 0x17
 1265 07a6 C9020000 		.4byte	.LASF124
 1266 07aa 07       		.byte	0x7
 1267 07ab 1E01     		.2byte	0x11e
 1268 07ad F5070000 		.4byte	0x7f5
 1269 07b1 17       		.uleb128 0x17
 1270 07b2 49050000 		.4byte	.LASF125
 1271 07b6 07       		.byte	0x7
 1272 07b7 2701     		.2byte	0x127
 1273 07b9 2C080000 		.4byte	0x82c
 1274 07bd 17       		.uleb128 0x17
 1275 07be F6040000 		.4byte	.LASF126
 1276 07c2 07       		.byte	0x7
 1277 07c3 2F01     		.2byte	0x12f
 1278 07c5 16010000 		.4byte	0x116
 1279 07c9 00       		.byte	0
 1280 07ca 0A       		.uleb128 0xa
 1281 07cb 04       		.byte	0x4
 1282 07cc 2F020000 		.4byte	0x22f
 1283 07d0 06       		.uleb128 0x6
 1284 07d1 1E050000 		.4byte	.LASF127
 1285 07d5 0C       		.byte	0xc
 1286 07d6 0C       		.byte	0xc
 1287 07d7 34       		.byte	0x34
 1288 07d8 F5070000 		.4byte	0x7f5
 1289 07dc 07       		.uleb128 0x7
 1290 07dd 6D000000 		.4byte	.LASF128
 1291 07e1 0C       		.byte	0xc
 1292 07e2 35       		.byte	0x35
 1293 07e3 64020000 		.4byte	0x264
 1294 07e7 00       		.byte	0
 1295 07e8 07       		.uleb128 0x7
 1296 07e9 E7020000 		.4byte	.LASF129
 1297 07ed 0C       		.byte	0xc
 1298 07ee 37       		.byte	0x37
 1299 07ef 21010000 		.4byte	0x121
 1300 07f3 08       		.byte	0x8
 1301 07f4 00       		.byte	0
 1302 07f5 0A       		.uleb128 0xa
 1303 07f6 04       		.byte	0x4
 1304 07f7 D0070000 		.4byte	0x7d0
 1305 07fb 06       		.uleb128 0x6
 1306 07fc 2D060000 		.4byte	.LASF130
 1307 0800 10       		.byte	0x10
 1308 0801 0D       		.byte	0xd
 1309 0802 39       		.byte	0x39
 1310 0803 2C080000 		.4byte	0x82c
ARM GAS  /tmp/ccAvdaKp.s 			page 24


 1311 0807 07       		.uleb128 0x7
 1312 0808 07010000 		.4byte	.LASF131
 1313 080c 0D       		.byte	0xd
 1314 080d 3A       		.byte	0x3a
 1315 080e 64020000 		.4byte	0x264
 1316 0812 00       		.byte	0
 1317 0813 07       		.uleb128 0x7
 1318 0814 71060000 		.4byte	.LASF132
 1319 0818 0D       		.byte	0xd
 1320 0819 3C       		.byte	0x3c
 1321 081a 3A020000 		.4byte	0x23a
 1322 081e 08       		.byte	0x8
 1323 081f 07       		.uleb128 0x7
 1324 0820 9A050000 		.4byte	.LASF133
 1325 0824 0D       		.byte	0xd
 1326 0825 3E       		.byte	0x3e
 1327 0826 6A080000 		.4byte	0x86a
 1328 082a 0C       		.byte	0xc
 1329 082b 00       		.byte	0
 1330 082c 0A       		.uleb128 0xa
 1331 082d 04       		.byte	0x4
 1332 082e FB070000 		.4byte	0x7fb
 1333 0832 0A       		.uleb128 0xa
 1334 0833 04       		.byte	0x4
 1335 0834 38080000 		.4byte	0x838
 1336 0838 18       		.uleb128 0x18
 1337 0839 3D080000 		.4byte	0x83d
 1338 083d 04       		.uleb128 0x4
 1339 083e 01       		.byte	0x1
 1340 083f 08       		.byte	0x8
 1341 0840 83050000 		.4byte	.LASF134
 1342 0844 0A       		.uleb128 0xa
 1343 0845 04       		.byte	0x4
 1344 0846 19030000 		.4byte	0x319
 1345 084a 05       		.uleb128 0x5
 1346 084b 32080000 		.4byte	0x832
 1347 084f 10       		.uleb128 0x10
 1348 0850 A8060000 		.4byte	0x6a8
 1349 0854 5F080000 		.4byte	0x85f
 1350 0858 11       		.uleb128 0x11
 1351 0859 4D040000 		.4byte	0x44d
 1352 085d 1A       		.byte	0x1a
 1353 085e 00       		.byte	0
 1354 085f 03       		.uleb128 0x3
 1355 0860 87020000 		.4byte	.LASF135
 1356 0864 0D       		.byte	0xd
 1357 0865 34       		.byte	0x34
 1358 0866 FB070000 		.4byte	0x7fb
 1359 086a 0A       		.uleb128 0xa
 1360 086b 04       		.byte	0x4
 1361 086c 5F080000 		.4byte	0x85f
 1362 0870 04       		.uleb128 0x4
 1363 0871 01       		.byte	0x1
 1364 0872 02       		.byte	0x2
 1365 0873 AD040000 		.4byte	.LASF136
 1366 0877 19       		.uleb128 0x19
 1367 0878 24030000 		.4byte	.LASF143
ARM GAS  /tmp/ccAvdaKp.s 			page 25


 1368 087c 01       		.byte	0x1
 1369 087d 36       		.byte	0x36
 1370 087e 00000000 		.4byte	.LFB271
 1371 0882 40000000 		.4byte	.LFE271-.LFB271
 1372 0886 01       		.uleb128 0x1
 1373 0887 9C       		.byte	0x9c
 1374 0888 1A       		.uleb128 0x1a
 1375 0889 FB050000 		.4byte	.LASF137
 1376 088d 01       		.byte	0x1
 1377 088e 72       		.byte	0x72
 1378 088f 00000000 		.4byte	.LFB272
 1379 0893 60000000 		.4byte	.LFE272-.LFB272
 1380 0897 01       		.uleb128 0x1
 1381 0898 9C       		.byte	0x9c
 1382 0899 1B       		.uleb128 0x1b
 1383 089a 76020000 		.4byte	.LASF138
 1384 089e 01       		.byte	0x1
 1385 089f 92       		.byte	0x92
 1386 08a0 00000000 		.4byte	.LFB273
 1387 08a4 18010000 		.4byte	.LFE273-.LFB273
 1388 08a8 01       		.uleb128 0x1
 1389 08a9 9C       		.byte	0x9c
 1390 08aa 1C       		.uleb128 0x1c
 1391 08ab 9F000000 		.4byte	.LASF139
 1392 08af 0E       		.byte	0xe
 1393 08b0 FA06     		.2byte	0x6fa
 1394 08b2 CA000000 		.4byte	0xca
 1395 08b6 1D       		.uleb128 0x1d
 1396 08b7 B9020000 		.4byte	.LASF140
 1397 08bb 01       		.byte	0x1
 1398 08bc 27       		.byte	0x27
 1399 08bd B4000000 		.4byte	0xb4
 1400 08c1 05       		.uleb128 0x5
 1401 08c2 03       		.byte	0x3
 1402 08c3 00000000 		.4byte	SystemCoreClock
 1403 08c7 1E       		.uleb128 0x1e
 1404 08c8 636800   		.ascii	"ch\000"
 1405 08cb 07       		.byte	0x7
 1406 08cc 0902     		.2byte	0x209
 1407 08ce E6030000 		.4byte	0x3e6
 1408 08d2 00       		.byte	0
 1409              		.section	.debug_abbrev,"",%progbits
 1410              	.Ldebug_abbrev0:
 1411 0000 01       		.uleb128 0x1
 1412 0001 11       		.uleb128 0x11
 1413 0002 01       		.byte	0x1
 1414 0003 25       		.uleb128 0x25
 1415 0004 0E       		.uleb128 0xe
 1416 0005 13       		.uleb128 0x13
 1417 0006 0B       		.uleb128 0xb
 1418 0007 03       		.uleb128 0x3
 1419 0008 0E       		.uleb128 0xe
 1420 0009 55       		.uleb128 0x55
 1421 000a 17       		.uleb128 0x17
 1422 000b 11       		.uleb128 0x11
 1423 000c 01       		.uleb128 0x1
 1424 000d 10       		.uleb128 0x10
ARM GAS  /tmp/ccAvdaKp.s 			page 26


 1425 000e 17       		.uleb128 0x17
 1426 000f 00       		.byte	0
 1427 0010 00       		.byte	0
 1428 0011 02       		.uleb128 0x2
 1429 0012 24       		.uleb128 0x24
 1430 0013 00       		.byte	0
 1431 0014 0B       		.uleb128 0xb
 1432 0015 0B       		.uleb128 0xb
 1433 0016 3E       		.uleb128 0x3e
 1434 0017 0B       		.uleb128 0xb
 1435 0018 03       		.uleb128 0x3
 1436 0019 08       		.uleb128 0x8
 1437 001a 00       		.byte	0
 1438 001b 00       		.byte	0
 1439 001c 03       		.uleb128 0x3
 1440 001d 16       		.uleb128 0x16
 1441 001e 00       		.byte	0
 1442 001f 03       		.uleb128 0x3
 1443 0020 0E       		.uleb128 0xe
 1444 0021 3A       		.uleb128 0x3a
 1445 0022 0B       		.uleb128 0xb
 1446 0023 3B       		.uleb128 0x3b
 1447 0024 0B       		.uleb128 0xb
 1448 0025 49       		.uleb128 0x49
 1449 0026 13       		.uleb128 0x13
 1450 0027 00       		.byte	0
 1451 0028 00       		.byte	0
 1452 0029 04       		.uleb128 0x4
 1453 002a 24       		.uleb128 0x24
 1454 002b 00       		.byte	0
 1455 002c 0B       		.uleb128 0xb
 1456 002d 0B       		.uleb128 0xb
 1457 002e 3E       		.uleb128 0x3e
 1458 002f 0B       		.uleb128 0xb
 1459 0030 03       		.uleb128 0x3
 1460 0031 0E       		.uleb128 0xe
 1461 0032 00       		.byte	0
 1462 0033 00       		.byte	0
 1463 0034 05       		.uleb128 0x5
 1464 0035 35       		.uleb128 0x35
 1465 0036 00       		.byte	0
 1466 0037 49       		.uleb128 0x49
 1467 0038 13       		.uleb128 0x13
 1468 0039 00       		.byte	0
 1469 003a 00       		.byte	0
 1470 003b 06       		.uleb128 0x6
 1471 003c 13       		.uleb128 0x13
 1472 003d 01       		.byte	0x1
 1473 003e 03       		.uleb128 0x3
 1474 003f 0E       		.uleb128 0xe
 1475 0040 0B       		.uleb128 0xb
 1476 0041 0B       		.uleb128 0xb
 1477 0042 3A       		.uleb128 0x3a
 1478 0043 0B       		.uleb128 0xb
 1479 0044 3B       		.uleb128 0x3b
 1480 0045 0B       		.uleb128 0xb
 1481 0046 01       		.uleb128 0x1
ARM GAS  /tmp/ccAvdaKp.s 			page 27


 1482 0047 13       		.uleb128 0x13
 1483 0048 00       		.byte	0
 1484 0049 00       		.byte	0
 1485 004a 07       		.uleb128 0x7
 1486 004b 0D       		.uleb128 0xd
 1487 004c 00       		.byte	0
 1488 004d 03       		.uleb128 0x3
 1489 004e 0E       		.uleb128 0xe
 1490 004f 3A       		.uleb128 0x3a
 1491 0050 0B       		.uleb128 0xb
 1492 0051 3B       		.uleb128 0x3b
 1493 0052 0B       		.uleb128 0xb
 1494 0053 49       		.uleb128 0x49
 1495 0054 13       		.uleb128 0x13
 1496 0055 38       		.uleb128 0x38
 1497 0056 0B       		.uleb128 0xb
 1498 0057 00       		.byte	0
 1499 0058 00       		.byte	0
 1500 0059 08       		.uleb128 0x8
 1501 005a 0D       		.uleb128 0xd
 1502 005b 00       		.byte	0
 1503 005c 03       		.uleb128 0x3
 1504 005d 08       		.uleb128 0x8
 1505 005e 3A       		.uleb128 0x3a
 1506 005f 0B       		.uleb128 0xb
 1507 0060 3B       		.uleb128 0x3b
 1508 0061 05       		.uleb128 0x5
 1509 0062 49       		.uleb128 0x49
 1510 0063 13       		.uleb128 0x13
 1511 0064 38       		.uleb128 0x38
 1512 0065 0B       		.uleb128 0xb
 1513 0066 00       		.byte	0
 1514 0067 00       		.byte	0
 1515 0068 09       		.uleb128 0x9
 1516 0069 0D       		.uleb128 0xd
 1517 006a 00       		.byte	0
 1518 006b 03       		.uleb128 0x3
 1519 006c 0E       		.uleb128 0xe
 1520 006d 3A       		.uleb128 0x3a
 1521 006e 0B       		.uleb128 0xb
 1522 006f 3B       		.uleb128 0x3b
 1523 0070 05       		.uleb128 0x5
 1524 0071 49       		.uleb128 0x49
 1525 0072 13       		.uleb128 0x13
 1526 0073 38       		.uleb128 0x38
 1527 0074 0B       		.uleb128 0xb
 1528 0075 00       		.byte	0
 1529 0076 00       		.byte	0
 1530 0077 0A       		.uleb128 0xa
 1531 0078 0F       		.uleb128 0xf
 1532 0079 00       		.byte	0
 1533 007a 0B       		.uleb128 0xb
 1534 007b 0B       		.uleb128 0xb
 1535 007c 49       		.uleb128 0x49
 1536 007d 13       		.uleb128 0x13
 1537 007e 00       		.byte	0
 1538 007f 00       		.byte	0
ARM GAS  /tmp/ccAvdaKp.s 			page 28


 1539 0080 0B       		.uleb128 0xb
 1540 0081 13       		.uleb128 0x13
 1541 0082 01       		.byte	0x1
 1542 0083 03       		.uleb128 0x3
 1543 0084 0E       		.uleb128 0xe
 1544 0085 0B       		.uleb128 0xb
 1545 0086 0B       		.uleb128 0xb
 1546 0087 3A       		.uleb128 0x3a
 1547 0088 0B       		.uleb128 0xb
 1548 0089 3B       		.uleb128 0x3b
 1549 008a 05       		.uleb128 0x5
 1550 008b 01       		.uleb128 0x1
 1551 008c 13       		.uleb128 0x13
 1552 008d 00       		.byte	0
 1553 008e 00       		.byte	0
 1554 008f 0C       		.uleb128 0xc
 1555 0090 15       		.uleb128 0x15
 1556 0091 01       		.byte	0x1
 1557 0092 27       		.uleb128 0x27
 1558 0093 19       		.uleb128 0x19
 1559 0094 01       		.uleb128 0x1
 1560 0095 13       		.uleb128 0x13
 1561 0096 00       		.byte	0
 1562 0097 00       		.byte	0
 1563 0098 0D       		.uleb128 0xd
 1564 0099 05       		.uleb128 0x5
 1565 009a 00       		.byte	0
 1566 009b 49       		.uleb128 0x49
 1567 009c 13       		.uleb128 0x13
 1568 009d 00       		.byte	0
 1569 009e 00       		.byte	0
 1570 009f 0E       		.uleb128 0xe
 1571 00a0 0F       		.uleb128 0xf
 1572 00a1 00       		.byte	0
 1573 00a2 0B       		.uleb128 0xb
 1574 00a3 0B       		.uleb128 0xb
 1575 00a4 00       		.byte	0
 1576 00a5 00       		.byte	0
 1577 00a6 0F       		.uleb128 0xf
 1578 00a7 13       		.uleb128 0x13
 1579 00a8 01       		.byte	0x1
 1580 00a9 03       		.uleb128 0x3
 1581 00aa 0E       		.uleb128 0xe
 1582 00ab 0B       		.uleb128 0xb
 1583 00ac 05       		.uleb128 0x5
 1584 00ad 3A       		.uleb128 0x3a
 1585 00ae 0B       		.uleb128 0xb
 1586 00af 3B       		.uleb128 0x3b
 1587 00b0 05       		.uleb128 0x5
 1588 00b1 01       		.uleb128 0x1
 1589 00b2 13       		.uleb128 0x13
 1590 00b3 00       		.byte	0
 1591 00b4 00       		.byte	0
 1592 00b5 10       		.uleb128 0x10
 1593 00b6 01       		.uleb128 0x1
 1594 00b7 01       		.byte	0x1
 1595 00b8 49       		.uleb128 0x49
ARM GAS  /tmp/ccAvdaKp.s 			page 29


 1596 00b9 13       		.uleb128 0x13
 1597 00ba 01       		.uleb128 0x1
 1598 00bb 13       		.uleb128 0x13
 1599 00bc 00       		.byte	0
 1600 00bd 00       		.byte	0
 1601 00be 11       		.uleb128 0x11
 1602 00bf 21       		.uleb128 0x21
 1603 00c0 00       		.byte	0
 1604 00c1 49       		.uleb128 0x49
 1605 00c2 13       		.uleb128 0x13
 1606 00c3 2F       		.uleb128 0x2f
 1607 00c4 0B       		.uleb128 0xb
 1608 00c5 00       		.byte	0
 1609 00c6 00       		.byte	0
 1610 00c7 12       		.uleb128 0x12
 1611 00c8 13       		.uleb128 0x13
 1612 00c9 01       		.byte	0x1
 1613 00ca 0B       		.uleb128 0xb
 1614 00cb 0B       		.uleb128 0xb
 1615 00cc 3A       		.uleb128 0x3a
 1616 00cd 0B       		.uleb128 0xb
 1617 00ce 3B       		.uleb128 0x3b
 1618 00cf 05       		.uleb128 0x5
 1619 00d0 01       		.uleb128 0x1
 1620 00d1 13       		.uleb128 0x13
 1621 00d2 00       		.byte	0
 1622 00d3 00       		.byte	0
 1623 00d4 13       		.uleb128 0x13
 1624 00d5 16       		.uleb128 0x16
 1625 00d6 00       		.byte	0
 1626 00d7 03       		.uleb128 0x3
 1627 00d8 0E       		.uleb128 0xe
 1628 00d9 3A       		.uleb128 0x3a
 1629 00da 0B       		.uleb128 0xb
 1630 00db 3B       		.uleb128 0x3b
 1631 00dc 05       		.uleb128 0x5
 1632 00dd 49       		.uleb128 0x49
 1633 00de 13       		.uleb128 0x13
 1634 00df 00       		.byte	0
 1635 00e0 00       		.byte	0
 1636 00e1 14       		.uleb128 0x14
 1637 00e2 0D       		.uleb128 0xd
 1638 00e3 00       		.byte	0
 1639 00e4 03       		.uleb128 0x3
 1640 00e5 08       		.uleb128 0x8
 1641 00e6 3A       		.uleb128 0x3a
 1642 00e7 0B       		.uleb128 0xb
 1643 00e8 3B       		.uleb128 0x3b
 1644 00e9 0B       		.uleb128 0xb
 1645 00ea 49       		.uleb128 0x49
 1646 00eb 13       		.uleb128 0x13
 1647 00ec 38       		.uleb128 0x38
 1648 00ed 0B       		.uleb128 0xb
 1649 00ee 00       		.byte	0
 1650 00ef 00       		.byte	0
 1651 00f0 15       		.uleb128 0x15
 1652 00f1 13       		.uleb128 0x13
ARM GAS  /tmp/ccAvdaKp.s 			page 30


 1653 00f2 01       		.byte	0x1
 1654 00f3 0B       		.uleb128 0xb
 1655 00f4 0B       		.uleb128 0xb
 1656 00f5 3A       		.uleb128 0x3a
 1657 00f6 0B       		.uleb128 0xb
 1658 00f7 3B       		.uleb128 0x3b
 1659 00f8 0B       		.uleb128 0xb
 1660 00f9 01       		.uleb128 0x1
 1661 00fa 13       		.uleb128 0x13
 1662 00fb 00       		.byte	0
 1663 00fc 00       		.byte	0
 1664 00fd 16       		.uleb128 0x16
 1665 00fe 17       		.uleb128 0x17
 1666 00ff 01       		.byte	0x1
 1667 0100 0B       		.uleb128 0xb
 1668 0101 0B       		.uleb128 0xb
 1669 0102 3A       		.uleb128 0x3a
 1670 0103 0B       		.uleb128 0xb
 1671 0104 3B       		.uleb128 0x3b
 1672 0105 0B       		.uleb128 0xb
 1673 0106 01       		.uleb128 0x1
 1674 0107 13       		.uleb128 0x13
 1675 0108 00       		.byte	0
 1676 0109 00       		.byte	0
 1677 010a 17       		.uleb128 0x17
 1678 010b 0D       		.uleb128 0xd
 1679 010c 00       		.byte	0
 1680 010d 03       		.uleb128 0x3
 1681 010e 0E       		.uleb128 0xe
 1682 010f 3A       		.uleb128 0x3a
 1683 0110 0B       		.uleb128 0xb
 1684 0111 3B       		.uleb128 0x3b
 1685 0112 05       		.uleb128 0x5
 1686 0113 49       		.uleb128 0x49
 1687 0114 13       		.uleb128 0x13
 1688 0115 00       		.byte	0
 1689 0116 00       		.byte	0
 1690 0117 18       		.uleb128 0x18
 1691 0118 26       		.uleb128 0x26
 1692 0119 00       		.byte	0
 1693 011a 49       		.uleb128 0x49
 1694 011b 13       		.uleb128 0x13
 1695 011c 00       		.byte	0
 1696 011d 00       		.byte	0
 1697 011e 19       		.uleb128 0x19
 1698 011f 2E       		.uleb128 0x2e
 1699 0120 00       		.byte	0
 1700 0121 03       		.uleb128 0x3
 1701 0122 0E       		.uleb128 0xe
 1702 0123 3A       		.uleb128 0x3a
 1703 0124 0B       		.uleb128 0xb
 1704 0125 3B       		.uleb128 0x3b
 1705 0126 0B       		.uleb128 0xb
 1706 0127 27       		.uleb128 0x27
 1707 0128 19       		.uleb128 0x19
 1708 0129 11       		.uleb128 0x11
 1709 012a 01       		.uleb128 0x1
ARM GAS  /tmp/ccAvdaKp.s 			page 31


 1710 012b 12       		.uleb128 0x12
 1711 012c 06       		.uleb128 0x6
 1712 012d 40       		.uleb128 0x40
 1713 012e 18       		.uleb128 0x18
 1714 012f 9742     		.uleb128 0x2117
 1715 0131 19       		.uleb128 0x19
 1716 0132 00       		.byte	0
 1717 0133 00       		.byte	0
 1718 0134 1A       		.uleb128 0x1a
 1719 0135 2E       		.uleb128 0x2e
 1720 0136 00       		.byte	0
 1721 0137 3F       		.uleb128 0x3f
 1722 0138 19       		.uleb128 0x19
 1723 0139 03       		.uleb128 0x3
 1724 013a 0E       		.uleb128 0xe
 1725 013b 3A       		.uleb128 0x3a
 1726 013c 0B       		.uleb128 0xb
 1727 013d 3B       		.uleb128 0x3b
 1728 013e 0B       		.uleb128 0xb
 1729 013f 27       		.uleb128 0x27
 1730 0140 19       		.uleb128 0x19
 1731 0141 11       		.uleb128 0x11
 1732 0142 01       		.uleb128 0x1
 1733 0143 12       		.uleb128 0x12
 1734 0144 06       		.uleb128 0x6
 1735 0145 40       		.uleb128 0x40
 1736 0146 18       		.uleb128 0x18
 1737 0147 9642     		.uleb128 0x2116
 1738 0149 19       		.uleb128 0x19
 1739 014a 00       		.byte	0
 1740 014b 00       		.byte	0
 1741 014c 1B       		.uleb128 0x1b
 1742 014d 2E       		.uleb128 0x2e
 1743 014e 00       		.byte	0
 1744 014f 3F       		.uleb128 0x3f
 1745 0150 19       		.uleb128 0x19
 1746 0151 03       		.uleb128 0x3
 1747 0152 0E       		.uleb128 0xe
 1748 0153 3A       		.uleb128 0x3a
 1749 0154 0B       		.uleb128 0xb
 1750 0155 3B       		.uleb128 0x3b
 1751 0156 0B       		.uleb128 0xb
 1752 0157 27       		.uleb128 0x27
 1753 0158 19       		.uleb128 0x19
 1754 0159 11       		.uleb128 0x11
 1755 015a 01       		.uleb128 0x1
 1756 015b 12       		.uleb128 0x12
 1757 015c 06       		.uleb128 0x6
 1758 015d 40       		.uleb128 0x40
 1759 015e 18       		.uleb128 0x18
 1760 015f 9742     		.uleb128 0x2117
 1761 0161 19       		.uleb128 0x19
 1762 0162 00       		.byte	0
 1763 0163 00       		.byte	0
 1764 0164 1C       		.uleb128 0x1c
 1765 0165 34       		.uleb128 0x34
 1766 0166 00       		.byte	0
ARM GAS  /tmp/ccAvdaKp.s 			page 32


 1767 0167 03       		.uleb128 0x3
 1768 0168 0E       		.uleb128 0xe
 1769 0169 3A       		.uleb128 0x3a
 1770 016a 0B       		.uleb128 0xb
 1771 016b 3B       		.uleb128 0x3b
 1772 016c 05       		.uleb128 0x5
 1773 016d 49       		.uleb128 0x49
 1774 016e 13       		.uleb128 0x13
 1775 016f 3F       		.uleb128 0x3f
 1776 0170 19       		.uleb128 0x19
 1777 0171 3C       		.uleb128 0x3c
 1778 0172 19       		.uleb128 0x19
 1779 0173 00       		.byte	0
 1780 0174 00       		.byte	0
 1781 0175 1D       		.uleb128 0x1d
 1782 0176 34       		.uleb128 0x34
 1783 0177 00       		.byte	0
 1784 0178 03       		.uleb128 0x3
 1785 0179 0E       		.uleb128 0xe
 1786 017a 3A       		.uleb128 0x3a
 1787 017b 0B       		.uleb128 0xb
 1788 017c 3B       		.uleb128 0x3b
 1789 017d 0B       		.uleb128 0xb
 1790 017e 49       		.uleb128 0x49
 1791 017f 13       		.uleb128 0x13
 1792 0180 3F       		.uleb128 0x3f
 1793 0181 19       		.uleb128 0x19
 1794 0182 02       		.uleb128 0x2
 1795 0183 18       		.uleb128 0x18
 1796 0184 00       		.byte	0
 1797 0185 00       		.byte	0
 1798 0186 1E       		.uleb128 0x1e
 1799 0187 34       		.uleb128 0x34
 1800 0188 00       		.byte	0
 1801 0189 03       		.uleb128 0x3
 1802 018a 08       		.uleb128 0x8
 1803 018b 3A       		.uleb128 0x3a
 1804 018c 0B       		.uleb128 0xb
 1805 018d 3B       		.uleb128 0x3b
 1806 018e 05       		.uleb128 0x5
 1807 018f 49       		.uleb128 0x49
 1808 0190 13       		.uleb128 0x13
 1809 0191 3F       		.uleb128 0x3f
 1810 0192 19       		.uleb128 0x19
 1811 0193 3C       		.uleb128 0x3c
 1812 0194 19       		.uleb128 0x19
 1813 0195 00       		.byte	0
 1814 0196 00       		.byte	0
 1815 0197 00       		.byte	0
 1816              		.section	.debug_aranges,"",%progbits
 1817 0000 2C000000 		.4byte	0x2c
 1818 0004 0200     		.2byte	0x2
 1819 0006 00000000 		.4byte	.Ldebug_info0
 1820 000a 04       		.byte	0x4
 1821 000b 00       		.byte	0
 1822 000c 0000     		.2byte	0
 1823 000e 0000     		.2byte	0
ARM GAS  /tmp/ccAvdaKp.s 			page 33


 1824 0010 00000000 		.4byte	.LFB271
 1825 0014 40000000 		.4byte	.LFE271-.LFB271
 1826 0018 00000000 		.4byte	.LFB272
 1827 001c 60000000 		.4byte	.LFE272-.LFB272
 1828 0020 00000000 		.4byte	.LFB273
 1829 0024 18010000 		.4byte	.LFE273-.LFB273
 1830 0028 00000000 		.4byte	0
 1831 002c 00000000 		.4byte	0
 1832              		.section	.debug_ranges,"",%progbits
 1833              	.Ldebug_ranges0:
 1834 0000 00000000 		.4byte	.LFB271
 1835 0004 40000000 		.4byte	.LFE271
 1836 0008 00000000 		.4byte	.LFB272
 1837 000c 60000000 		.4byte	.LFE272
 1838 0010 00000000 		.4byte	.LFB273
 1839 0014 18010000 		.4byte	.LFE273
 1840 0018 00000000 		.4byte	0
 1841 001c 00000000 		.4byte	0
 1842              		.section	.debug_line,"",%progbits
 1843              	.Ldebug_line0:
 1844 0000 AD020000 		.section	.debug_str,"MS",%progbits,1
 1844      02001702 
 1844      00000201 
 1844      FB0E0D00 
 1844      01010101 
 1845              	.LASF51:
 1846 0000 72656164 		.ascii	"ready_list_t\000"
 1846      795F6C69 
 1846      73745F74 
 1846      00
 1847              	.LASF2:
 1848 000d 73697A65 		.ascii	"size_t\000"
 1848      5F7400
 1849              	.LASF120:
 1850 0014 7264796D 		.ascii	"rdymsg\000"
 1850      736700
 1851              	.LASF17:
 1852 001b 75696E74 		.ascii	"uint64_t\000"
 1852      36345F74 
 1852      00
 1853              	.LASF3:
 1854 0024 5F5F7569 		.ascii	"__uint8_t\000"
 1854      6E74385F 
 1854      7400
 1855              	.LASF117:
 1856 002e 706F7274 		.ascii	"port_intctx\000"
 1856      5F696E74 
 1856      63747800 
 1857              	.LASF70:
 1858 003a 73797374 		.ascii	"system_debug_t\000"
 1858      656D5F64 
 1858      65627567 
 1858      5F7400
 1859              	.LASF82:
 1860 0049 4F505443 		.ascii	"OPTCR\000"
 1860      5200
 1861              	.LASF83:
ARM GAS  /tmp/ccAvdaKp.s 			page 34


 1862 004f 4F505443 		.ascii	"OPTCR1\000"
 1862      523100
 1863              	.LASF13:
 1864 0056 6C6F6E67 		.ascii	"long long unsigned int\000"
 1864      206C6F6E 
 1864      6720756E 
 1864      7369676E 
 1864      65642069 
 1865              	.LASF128:
 1866 006d 735F7175 		.ascii	"s_queue\000"
 1866      65756500 
 1867              	.LASF121:
 1868 0075 65786974 		.ascii	"exitcode\000"
 1868      636F6465 
 1868      00
 1869              	.LASF77:
 1870 007e 6D61696E 		.ascii	"mainthread\000"
 1870      74687265 
 1870      616400
 1871              	.LASF67:
 1872 0089 76697274 		.ascii	"virtual_timers_list_t\000"
 1872      75616C5F 
 1872      74696D65 
 1872      72735F6C 
 1872      6973745F 
 1873              	.LASF139:
 1874 009f 49544D5F 		.ascii	"ITM_RxBuffer\000"
 1874      52784275 
 1874      66666572 
 1874      00
 1875              	.LASF50:
 1876 00ac 63685F74 		.ascii	"ch_threads_queue\000"
 1876      68726561 
 1876      64735F71 
 1876      75657565 
 1876      00
 1877              	.LASF102:
 1878 00bd 41484231 		.ascii	"AHB1LPENR\000"
 1878      4C50454E 
 1878      5200
 1879              	.LASF30:
 1880 00c7 705F7072 		.ascii	"p_prio\000"
 1880      696F00
 1881              	.LASF11:
 1882 00ce 6C6F6E67 		.ascii	"long long int\000"
 1882      206C6F6E 
 1882      6720696E 
 1882      7400
 1883              	.LASF1:
 1884 00dc 7369676E 		.ascii	"signed char\000"
 1884      65642063 
 1884      68617200 
 1885              	.LASF88:
 1886 00e8 41484231 		.ascii	"AHB1RSTR\000"
 1886      52535452 
 1886      00
 1887              	.LASF84:
ARM GAS  /tmp/ccAvdaKp.s 			page 35


 1888 00f1 464C4153 		.ascii	"FLASH_TypeDef\000"
 1888      485F5479 
 1888      70654465 
 1888      6600
 1889              	.LASF44:
 1890 00ff 705F6D70 		.ascii	"p_mpool\000"
 1890      6F6F6C00 
 1891              	.LASF131:
 1892 0107 6D5F7175 		.ascii	"m_queue\000"
 1892      65756500 
 1893              	.LASF76:
 1894 010f 76746C69 		.ascii	"vtlist\000"
 1894      737400
 1895              	.LASF85:
 1896 0116 5057525F 		.ascii	"PWR_TypeDef\000"
 1896      54797065 
 1896      44656600 
 1897              	.LASF123:
 1898 0122 77747472 		.ascii	"wttrp\000"
 1898      7000
 1899              	.LASF74:
 1900 0128 63685F73 		.ascii	"ch_system\000"
 1900      79737465 
 1900      6D00
 1901              	.LASF8:
 1902 0132 6C6F6E67 		.ascii	"long int\000"
 1902      20696E74 
 1902      00
 1903              	.LASF93:
 1904 013b 41504232 		.ascii	"APB2RSTR\000"
 1904      52535452 
 1904      00
 1905              	.LASF106:
 1906 0144 41504231 		.ascii	"APB1LPENR\000"
 1906      4C50454E 
 1906      5200
 1907              	.LASF20:
 1908 014e 74737461 		.ascii	"tstate_t\000"
 1908      74655F74 
 1908      00
 1909              	.LASF81:
 1910 0157 4F50544B 		.ascii	"OPTKEYR\000"
 1910      45595200 
 1911              	.LASF141:
 1912 015f 474E5520 		.ascii	"GNU C 4.8.4 20141219 (release) -mcpu=cortex-m4 -mno"
 1912      4320342E 
 1912      382E3420 
 1912      32303134 
 1912      31323139 
 1913 0192 2D746875 		.ascii	"-thumb-interwork -mthumb -ggdb -O0 -fomit-frame-poi"
 1913      6D622D69 
 1913      6E746572 
 1913      776F726B 
 1913      202D6D74 
 1914 01c5 6E746572 		.ascii	"nter -falign-functions=16 -ffunction-sections -fdat"
 1914      202D6661 
 1914      6C69676E 
ARM GAS  /tmp/ccAvdaKp.s 			page 36


 1914      2D66756E 
 1914      6374696F 
 1915 01f8 612D7365 		.ascii	"a-sections -fno-common\000"
 1915      6374696F 
 1915      6E73202D 
 1915      666E6F2D 
 1915      636F6D6D 
 1916              	.LASF32:
 1917 020f 705F6E65 		.ascii	"p_newer\000"
 1917      77657200 
 1918              	.LASF86:
 1919 0217 504C4C43 		.ascii	"PLLCFGR\000"
 1919      46475200 
 1920              	.LASF56:
 1921 021f 725F6E65 		.ascii	"r_newer\000"
 1921      77657200 
 1922              	.LASF114:
 1923 0227 72656761 		.ascii	"regarm_t\000"
 1923      726D5F74 
 1923      00
 1924              	.LASF63:
 1925 0230 76745F70 		.ascii	"vt_prev\000"
 1925      72657600 
 1926              	.LASF142:
 1927 0238 2F686F6D 		.ascii	"/home/efe/ChibiOS/os/hal/ports/STM32/STM32F4xx/hal_"
 1927      652F6566 
 1927      652F4368 
 1927      6962694F 
 1927      532F6F73 
 1928 026b 6C6C642E 		.ascii	"lld.c\000"
 1928      6300
 1929              	.LASF80:
 1930 0271 4B455952 		.ascii	"KEYR\000"
 1930      00
 1931              	.LASF138:
 1932 0276 73746D33 		.ascii	"stm32_clock_init\000"
 1932      325F636C 
 1932      6F636B5F 
 1932      696E6974 
 1932      00
 1933              	.LASF135:
 1934 0287 6D757465 		.ascii	"mutex_t\000"
 1934      785F7400 
 1935              	.LASF78:
 1936 028f 69646C65 		.ascii	"idle_thread_wa\000"
 1936      5F746872 
 1936      6561645F 
 1936      776100
 1937              	.LASF25:
 1938 029e 636E745F 		.ascii	"cnt_t\000"
 1938      7400
 1939              	.LASF0:
 1940 02a4 756E7369 		.ascii	"unsigned int\000"
 1940      676E6564 
 1940      20696E74 
 1940      00
 1941              	.LASF62:
ARM GAS  /tmp/ccAvdaKp.s 			page 37


 1942 02b1 76745F6E 		.ascii	"vt_next\000"
 1942      65787400 
 1943              	.LASF140:
 1944 02b9 53797374 		.ascii	"SystemCoreClock\000"
 1944      656D436F 
 1944      7265436C 
 1944      6F636B00 
 1945              	.LASF124:
 1946 02c9 77747365 		.ascii	"wtsemp\000"
 1946      6D7000
 1947              	.LASF39:
 1948 02d0 705F6D73 		.ascii	"p_msgqueue\000"
 1948      67717565 
 1948      756500
 1949              	.LASF113:
 1950 02db 5243435F 		.ascii	"RCC_TypeDef\000"
 1950      54797065 
 1950      44656600 
 1951              	.LASF129:
 1952 02e7 735F636E 		.ascii	"s_cnt\000"
 1952      7400
 1953              	.LASF6:
 1954 02ed 73686F72 		.ascii	"short unsigned int\000"
 1954      7420756E 
 1954      7369676E 
 1954      65642069 
 1954      6E7400
 1955              	.LASF47:
 1956 0300 63685F74 		.ascii	"ch_thread\000"
 1956      68726561 
 1956      6400
 1957              	.LASF112:
 1958 030a 504C4C49 		.ascii	"PLLI2SCFGR\000"
 1958      32534346 
 1958      475200
 1959              	.LASF23:
 1960 0315 6D73675F 		.ascii	"msg_t\000"
 1960      7400
 1961              	.LASF90:
 1962 031b 41484233 		.ascii	"AHB3RSTR\000"
 1962      52535452 
 1962      00
 1963              	.LASF143:
 1964 0324 68616C5F 		.ascii	"hal_lld_backup_domain_init\000"
 1964      6C6C645F 
 1964      6261636B 
 1964      75705F64 
 1964      6F6D6169 
 1965              	.LASF73:
 1966 033f 63685F73 		.ascii	"ch_system_t\000"
 1966      79737465 
 1966      6D5F7400 
 1967              	.LASF19:
 1968 034b 746D6F64 		.ascii	"tmode_t\000"
 1968      655F7400 
 1969              	.LASF107:
 1970 0353 41504232 		.ascii	"APB2LPENR\000"
ARM GAS  /tmp/ccAvdaKp.s 			page 38


 1970      4C50454E 
 1970      5200
 1971              	.LASF52:
 1972 035d 63685F72 		.ascii	"ch_ready_list\000"
 1972      65616479 
 1972      5F6C6973 
 1972      7400
 1973              	.LASF24:
 1974 036b 6576656E 		.ascii	"eventmask_t\000"
 1974      746D6173 
 1974      6B5F7400 
 1975              	.LASF7:
 1976 0377 5F5F696E 		.ascii	"__int32_t\000"
 1976      7433325F 
 1976      7400
 1977              	.LASF115:
 1978 0381 73746B61 		.ascii	"stkalign_t\000"
 1978      6C69676E 
 1978      5F7400
 1979              	.LASF46:
 1980 038c 74687265 		.ascii	"threads_list_t\000"
 1980      6164735F 
 1980      6C697374 
 1980      5F7400
 1981              	.LASF60:
 1982 039b 76697274 		.ascii	"virtual_timer_t\000"
 1982      75616C5F 
 1982      74696D65 
 1982      725F7400 
 1983              	.LASF38:
 1984 03ab 705F7761 		.ascii	"p_waiting\000"
 1984      6974696E 
 1984      6700
 1985              	.LASF79:
 1986 03b5 73697A65 		.ascii	"sizetype\000"
 1986      74797065 
 1986      00
 1987              	.LASF45:
 1988 03be 74687265 		.ascii	"thread_reference_t\000"
 1988      61645F72 
 1988      65666572 
 1988      656E6365 
 1988      5F7400
 1989              	.LASF68:
 1990 03d1 63685F76 		.ascii	"ch_virtual_timers_list\000"
 1990      69727475 
 1990      616C5F74 
 1990      696D6572 
 1990      735F6C69 
 1991              	.LASF28:
 1992 03e8 705F6E65 		.ascii	"p_next\000"
 1992      787400
 1993              	.LASF97:
 1994 03ef 41484233 		.ascii	"AHB3ENR\000"
 1994      454E5200 
 1995              	.LASF69:
 1996 03f7 76745F6C 		.ascii	"vt_lasttime\000"
ARM GAS  /tmp/ccAvdaKp.s 			page 39


 1996      61737474 
 1996      696D6500 
 1997              	.LASF33:
 1998 0403 705F6F6C 		.ascii	"p_older\000"
 1998      64657200 
 1999              	.LASF55:
 2000 040b 725F6374 		.ascii	"r_ctx\000"
 2000      7800
 2001              	.LASF103:
 2002 0411 41484232 		.ascii	"AHB2LPENR\000"
 2002      4C50454E 
 2002      5200
 2003              	.LASF119:
 2004 041b 746D5F63 		.ascii	"tm_calibration_t\000"
 2004      616C6962 
 2004      72617469 
 2004      6F6E5F74 
 2004      00
 2005              	.LASF58:
 2006 042c 725F6375 		.ascii	"r_current\000"
 2006      7272656E 
 2006      7400
 2007              	.LASF92:
 2008 0436 41504231 		.ascii	"APB1RSTR\000"
 2008      52535452 
 2008      00
 2009              	.LASF12:
 2010 043f 5F5F7569 		.ascii	"__uint64_t\000"
 2010      6E743634 
 2010      5F7400
 2011              	.LASF21:
 2012 044a 74726566 		.ascii	"trefs_t\000"
 2012      735F7400 
 2013              	.LASF91:
 2014 0452 52455345 		.ascii	"RESERVED0\000"
 2014      52564544 
 2014      3000
 2015              	.LASF94:
 2016 045c 52455345 		.ascii	"RESERVED1\000"
 2016      52564544 
 2016      3100
 2017              	.LASF98:
 2018 0466 52455345 		.ascii	"RESERVED2\000"
 2018      52564544 
 2018      3200
 2019              	.LASF101:
 2020 0470 52455345 		.ascii	"RESERVED3\000"
 2020      52564544 
 2020      3300
 2021              	.LASF105:
 2022 047a 52455345 		.ascii	"RESERVED4\000"
 2022      52564544 
 2022      3400
 2023              	.LASF29:
 2024 0484 705F7072 		.ascii	"p_prev\000"
 2024      657600
 2025              	.LASF110:
ARM GAS  /tmp/ccAvdaKp.s 			page 40


 2026 048b 52455345 		.ascii	"RESERVED6\000"
 2026      52564544 
 2026      3600
 2027              	.LASF22:
 2028 0495 74707269 		.ascii	"tprio_t\000"
 2028      6F5F7400 
 2029              	.LASF71:
 2030 049d 63685F73 		.ascii	"ch_system_debug\000"
 2030      79737465 
 2030      6D5F6465 
 2030      62756700 
 2031              	.LASF136:
 2032 04ad 5F426F6F 		.ascii	"_Bool\000"
 2032      6C00
 2033              	.LASF15:
 2034 04b3 696E7433 		.ascii	"int32_t\000"
 2034      325F7400 
 2035              	.LASF4:
 2036 04bb 756E7369 		.ascii	"unsigned char\000"
 2036      676E6564 
 2036      20636861 
 2036      7200
 2037              	.LASF42:
 2038 04c9 705F6D74 		.ascii	"p_mtxlist\000"
 2038      786C6973 
 2038      7400
 2039              	.LASF5:
 2040 04d3 73686F72 		.ascii	"short int\000"
 2040      7420696E 
 2040      7400
 2041              	.LASF35:
 2042 04dd 705F7374 		.ascii	"p_state\000"
 2042      61746500 
 2043              	.LASF104:
 2044 04e5 41484233 		.ascii	"AHB3LPENR\000"
 2044      4C50454E 
 2044      5200
 2045              	.LASF54:
 2046 04ef 725F7072 		.ascii	"r_prio\000"
 2046      696F00
 2047              	.LASF126:
 2048 04f6 65776D61 		.ascii	"ewmask\000"
 2048      736B00
 2049              	.LASF36:
 2050 04fd 705F666C 		.ascii	"p_flags\000"
 2050      61677300 
 2051              	.LASF100:
 2052 0505 41504232 		.ascii	"APB2ENR\000"
 2052      454E5200 
 2053              	.LASF61:
 2054 050d 63685F76 		.ascii	"ch_virtual_timer\000"
 2054      69727475 
 2054      616C5F74 
 2054      696D6572 
 2054      00
 2055              	.LASF127:
 2056 051e 63685F73 		.ascii	"ch_semaphore\000"
ARM GAS  /tmp/ccAvdaKp.s 			page 41


 2056      656D6170 
 2056      686F7265 
 2056      00
 2057              	.LASF41:
 2058 052b 705F6570 		.ascii	"p_epending\000"
 2058      656E6469 
 2058      6E6700
 2059              	.LASF108:
 2060 0536 52455345 		.ascii	"RESERVED5\000"
 2060      52564544 
 2060      3500
 2061              	.LASF16:
 2062 0540 75696E74 		.ascii	"uint32_t\000"
 2062      33325F74 
 2062      00
 2063              	.LASF125:
 2064 0549 77746D74 		.ascii	"wtmtxp\000"
 2064      787000
 2065              	.LASF53:
 2066 0550 725F7175 		.ascii	"r_queue\000"
 2066      65756500 
 2067              	.LASF64:
 2068 0558 76745F64 		.ascii	"vt_delta\000"
 2068      656C7461 
 2068      00
 2069              	.LASF48:
 2070 0561 63685F74 		.ascii	"ch_threads_list\000"
 2070      68726561 
 2070      64735F6C 
 2070      69737400 
 2071              	.LASF10:
 2072 0571 6C6F6E67 		.ascii	"long unsigned int\000"
 2072      20756E73 
 2072      69676E65 
 2072      6420696E 
 2072      7400
 2073              	.LASF134:
 2074 0583 63686172 		.ascii	"char\000"
 2074      00
 2075              	.LASF89:
 2076 0588 41484232 		.ascii	"AHB2RSTR\000"
 2076      52535452 
 2076      00
 2077              	.LASF27:
 2078 0591 74687265 		.ascii	"thread_t\000"
 2078      61645F74 
 2078      00
 2079              	.LASF133:
 2080 059a 6D5F6E65 		.ascii	"m_next\000"
 2080      787400
 2081              	.LASF26:
 2082 05a1 73797374 		.ascii	"systime_t\000"
 2082      696D655F 
 2082      7400
 2083              	.LASF43:
 2084 05ab 705F7265 		.ascii	"p_realprio\000"
 2084      616C7072 
ARM GAS  /tmp/ccAvdaKp.s 			page 42


 2084      696F00
 2085              	.LASF59:
 2086 05b6 76746675 		.ascii	"vtfunc_t\000"
 2086      6E635F74 
 2086      00
 2087              	.LASF9:
 2088 05bf 5F5F7569 		.ascii	"__uint32_t\000"
 2088      6E743332 
 2088      5F7400
 2089              	.LASF72:
 2090 05ca 70616E69 		.ascii	"panic_msg\000"
 2090      635F6D73 
 2090      6700
 2091              	.LASF118:
 2092 05d4 6F666673 		.ascii	"offset\000"
 2092      657400
 2093              	.LASF99:
 2094 05db 41504231 		.ascii	"APB1ENR\000"
 2094      454E5200 
 2095              	.LASF96:
 2096 05e3 41484232 		.ascii	"AHB2ENR\000"
 2096      454E5200 
 2097              	.LASF116:
 2098 05eb 636F6E74 		.ascii	"context\000"
 2098      65787400 
 2099              	.LASF57:
 2100 05f3 725F6F6C 		.ascii	"r_older\000"
 2100      64657200 
 2101              	.LASF137:
 2102 05fb 68616C5F 		.ascii	"hal_lld_init\000"
 2102      6C6C645F 
 2102      696E6974 
 2102      00
 2103              	.LASF18:
 2104 0608 7274636E 		.ascii	"rtcnt_t\000"
 2104      745F7400 
 2105              	.LASF66:
 2106 0610 76745F70 		.ascii	"vt_par\000"
 2106      617200
 2107              	.LASF111:
 2108 0617 53534347 		.ascii	"SSCGR\000"
 2108      5200
 2109              	.LASF49:
 2110 061d 74687265 		.ascii	"threads_queue_t\000"
 2110      6164735F 
 2110      71756575 
 2110      655F7400 
 2111              	.LASF130:
 2112 062d 63685F6D 		.ascii	"ch_mutex\000"
 2112      75746578 
 2112      00
 2113              	.LASF37:
 2114 0636 705F7265 		.ascii	"p_refs\000"
 2114      667300
 2115              	.LASF109:
 2116 063d 42444352 		.ascii	"BDCR\000"
 2116      00
ARM GAS  /tmp/ccAvdaKp.s 			page 43


 2117              	.LASF75:
 2118 0642 726C6973 		.ascii	"rlist\000"
 2118      7400
 2119              	.LASF14:
 2120 0648 75696E74 		.ascii	"uint8_t\000"
 2120      385F7400 
 2121              	.LASF122:
 2122 0650 77746F62 		.ascii	"wtobjp\000"
 2122      6A7000
 2123              	.LASF34:
 2124 0657 705F6E61 		.ascii	"p_name\000"
 2124      6D6500
 2125              	.LASF95:
 2126 065e 41484231 		.ascii	"AHB1ENR\000"
 2126      454E5200 
 2127              	.LASF87:
 2128 0666 43464752 		.ascii	"CFGR\000"
 2128      00
 2129              	.LASF40:
 2130 066b 705F6D73 		.ascii	"p_msg\000"
 2130      6700
 2131              	.LASF132:
 2132 0671 6D5F6F77 		.ascii	"m_owner\000"
 2132      6E657200 
 2133              	.LASF31:
 2134 0679 705F6374 		.ascii	"p_ctx\000"
 2134      7800
 2135              	.LASF65:
 2136 067f 76745F66 		.ascii	"vt_func\000"
 2136      756E6300 
 2137              		.ident	"GCC: (4.8.4-1+11-1) 4.8.4 20141219 (release)"
ARM GAS  /tmp/ccAvdaKp.s 			page 44


DEFINED SYMBOLS
                            *ABS*:0000000000000000 hal_lld.c
     /tmp/ccAvdaKp.s:23     .data.SystemCoreClock:0000000000000000 SystemCoreClock
     /tmp/ccAvdaKp.s:20     .data.SystemCoreClock:0000000000000000 $d
     /tmp/ccAvdaKp.s:26     .text.hal_lld_backup_domain_init:0000000000000000 $t
     /tmp/ccAvdaKp.s:31     .text.hal_lld_backup_domain_init:0000000000000000 hal_lld_backup_domain_init
     /tmp/ccAvdaKp.s:71     .text.hal_lld_backup_domain_init:0000000000000038 $d
     /tmp/ccAvdaKp.s:77     .text.hal_lld_init:0000000000000000 $t
     /tmp/ccAvdaKp.s:83     .text.hal_lld_init:0000000000000000 hal_lld_init
     /tmp/ccAvdaKp.s:142    .text.hal_lld_init:000000000000005c $d
     /tmp/ccAvdaKp.s:147    .text.stm32_clock_init:0000000000000000 $t
     /tmp/ccAvdaKp.s:153    .text.stm32_clock_init:0000000000000000 stm32_clock_init
     /tmp/ccAvdaKp.s:310    .text.stm32_clock_init:0000000000000104 $d
                     .debug_frame:0000000000000010 $d
     /tmp/ccAvdaKp.s:318    .text.stm32_clock_init:0000000000000118 $t

NO UNDEFINED SYMBOLS
