ARM GAS  /tmp/cc6tjkN8.s 			page 1


   1              		.cpu cortex-m0
   2              		.fpu softvfp
   3              		.eabi_attribute 20, 1
   4              		.eabi_attribute 21, 1
   5              		.eabi_attribute 23, 3
   6              		.eabi_attribute 24, 1
   7              		.eabi_attribute 25, 1
   8              		.eabi_attribute 26, 1
   9              		.eabi_attribute 30, 6
  10              		.eabi_attribute 34, 0
  11              		.eabi_attribute 18, 4
  12              		.code	16
  13              		.file	"hal_lld.c"
  14              		.text
  15              	.Ltext0:
  16              		.section	.gnu.lto_.inline.ff1475afaec3d3b3,"",%progbits
  17 0000 789C6362 		.ascii	"x\234cb`b\300\006\034\24043\003\203\230(\003\003\223"
  17      6062C006 
  17      1CA03433 
  17      03839828 
  17      030393
  18 0013 C684134C 		.ascii	"\306\204\023L\014,\020\305\214\014\202\222@!\231\015"
  18      0C2C10C5 
  18      8C0C8292 
  18      4021990D 
  19 0023 AF18E142 		.ascii	"\257\030\341B\\@\202\211\301\312\022H\026\\\370\305"
  19      5C408289 
  19      C1CA1248 
  19      165CF8C5 
  20 0033 06136700 		.ascii	"\006\023g\000\000\333[\006\257"
  20      00DB5B06 
  20      AF
  21              		.text
  22              		.section	.gnu.lto_hal_lld_backup_domain_init.ff1475afaec3d3b3,"",%progbits
  23 0000 789CD594 		.ascii	"x\234\325\224?h\023q\024\307\337\273\277I\2324i\032"
  23      3F681371 
  23      14C7DFBB 
  23      BF499A34 
  23      691A
  24 0012 0771B0E8 		.ascii	"\007q\260\350(x\376Y\024\005\007Ap\020\205&\240.\322"
  24      2878FE59 
  24      14050741 
  24      70108526 
  24      A02ED2
  25 0025 D6D80453 		.ascii	"\326\330\004S\"\326\241[~\327f\010\242\030\\\024\035"
  25      22D6A15B 
  25      7ED76608 
  25      A2185C14 
  25      1D
  26 0036 4C0741BA 		.ascii	"L\007A\272\010\202\020u\011\"!K\006\207J]B\004E\321"
  26      08821075 
  26      0922214B 
  26      06874A5D 
  26      420445D1 
  27 004a 0E5D840E 		.ascii	"\016]\204\016\332\363\367\356\362\313\245\371\243i%"
  27      DAF3F7EE 
  27      F2CBA5F9 
ARM GAS  /tmp/cc6tjkN8.s 			page 2


  27      A36925
  28 0059 A03FC8BB 		.ascii	"\240?\310\273\274{\357}\357\363{\357w'\201\004\355\353"
  28      BC7BEF7D 
  28      EFF37BEF 
  28      77278104 
  28      EDEB
  29 006b 38FF7DF7 		.ascii	"8\377}\367\000\034#G\007\344\031(I2\000\223\024n\024"
  29      001C2347 
  29      07E41928 
  29      49320093 
  29      146E14
  30 007e 19F90515 		.ascii	"\031\371\005\025I\245;\032\335Q\221_PC\344\005\010\031"
  30      49A53B1A 
  30      DD51915F 
  30      5043E405 
  30      0819
  31 0090 4956540D 		.ascii	"IVT\0153\027\310\205\310\036Xd\354n\375q\355\366\316"
  31      3317C885 
  31      C81E5864 
  31      EC6EFD71 
  31      EDF6CE
  32 00a3 9B85F93C 		.ascii	"\233\205\371<\333\260,LRh\012\341<\377\207c\366\205"
  32      DBB02C4C 
  32      52680AE1 
  32      3CFF8763 
  32      F685
  33 00b5 B45B9753 		.ascii	"\264[\227S\306\236=a\336\002\373aY\362\366j\344\301"
  33      C69E3D61 
  33      DE02FB61 
  33      59F2F66A 
  33      E4C1
  34 00c7 D594D63F 		.ascii	"\325\224\326?\235\253\260l\311\262N$\251%\003c[\376"
  34      9DABB06C 
  34      C9B24E24 
  34      A9250363 
  34      5BFE
  35 00d9 E83EA75F 		.ascii	"\350>\247_\266\237\037*\213\310k\3155\313\012\366\215"
  35      B69F1F2A 
  35      8BC86BCD 
  35      35CB0AF6 
  35      8D
  36 00ea 57DAD8FA 		.ascii	"W\332\330\372\226J\313\345M\223\375\327:\361\276|\347"
  36      964ACBE5 
  36      4D93FDD7 
  36      3AF1BE7C 
  36      E7
  37 00fb 6FF106B9 		.ascii	"o\361\006\271\245\355\034\274Z\371\226/o\346\230ee\376"
  37      A5ED1CBC 
  37      5AF9962F 
  37      6FE69865 
  37      65FE
  38 010d F30D3D95 		.ascii	"\363\015=\225Ju\313Z\255\336{\267\013w \360w\\\"#s#"
  38      4A75CB5A 
  38      ADDE7BB7 
  38      0B7720F0 
  38      775C2223 
  39 0123 2B64546E 		.ascii	"+dTn\024\215\376\351d<\344z\311\370\310\014\321=?\231"
ARM GAS  /tmp/cc6tjkN8.s 			page 3


  39      148DFEE9 
  39      643CE47A 
  39      C9F8C80C 
  39      D13D3F99 
  40 0137 00B9C364 		.ascii	"\000\271\303d\202\344\206\310\214\220\033&3Jn\004l "
  40      82E486C8 
  40      8C901B26 
  40      334A6E04 
  40      6C20
  41 0149 5021CB58 		.ascii	"P!\313X~\314F\343+j\333\030}\346\344*\314\027\213\265"
  41      7ECC46E3 
  41      2B6ADB18 
  41      7DE6E42A 
  41      CC178BB5 
  42 015d C0043E47 		.ascii	"\300\004>G\025\246\021\011\031X\335d\204\315\203GDD"
  42      15A61109 
  42      1958DD64 
  42      84CD8347 
  42      4444
  43 016f 6A8BBCBE 		.ascii	"j\213\274\276(\"\362>XbY3\224D\365!<\340Y\232\310\266"
  43      2822F23E 
  43      58625933 
  43      9444F521 
  43      3CE0599A 
  44 0185 D7248AAD 		.ascii	"\327$\212\255Wa\341\205,\252\024^HI2\223\034\275\323"
  44      5761E185 
  44      2CAA145E 
  44      48493293 
  44      1CBDD3
  45 0198 4EA48B18 		.ascii	"N\244\213\030v\212M\323@\211=\267[\010\252\224\245\260"
  45      768A4DD3 
  45      40893DB7 
  45      5B08AA94 
  45      A5B0
  46 01aa 42AE0350 		.ascii	"B\256\003P\2635\261)\251\213\344\206$\272|\257\026\226"
  46      B335B129 
  46      A98BE486 
  46      24BA7CAF 
  46      1696
  47 01bc 5094F134 		.ascii	"P\224\3614\315!\344\337z\250@v\325l\366Iw\002\255\263"
  47      CD21E4DF 
  47      7AA84076 
  47      D56CF649 
  47      7702ADB3 
  48 01d0 8D51ABED 		.ascii	"\215Q\253\355~\256<\362\213<O;TqMo\335';\330J\345\351"
  48      7EAE3CF2 
  48      8B3C4F3B 
  48      54714D6F 
  48      DD273BD8 
  49 01e7 A4729E23 		.ascii	"\244r\236#\246Q\374\322\334\256wK\312\336\356\312\252"
  49      A651FCD2 
  49      DCAE774B 
  49      CADEEECA 
  49      AA
  50 01f8 0BAF08F8 		.ascii	"\013\257\010\370\257+\315\016\370z\266t\250\263\245"
  50      AF2BCD0E 
  50      F87AB674 
ARM GAS  /tmp/cc6tjkN8.s 			page 4


  50      A8B3A5
  51 0207 BE3E5AEA 		.ascii	"\276>Z\352\347\225\215\035IvO\337|v{\352\267#\255\357"
  51      E7958D1D 
  51      49764FDF 
  51      7C767BEA 
  51      B723ADEF 
  52 021b 4A8C006D 		.ascii	"J\214\000m\252\373\337\326\233\"\2016*\367\214\016\367"
  52      AAFBDFD6 
  52      9B228136 
  52      2AF78C0E 
  52      F7
  53 022c E40DB61F 		.ascii	"\344\015\266\037+]dw\002\273g4\304\013\335A\367>\243"
  53      2B5D6477 
  53      02BB6734 
  53      C40BDD41 
  53      F73EA3
  54 023f BA80DA24 		.ascii	"\272\200\332$\306\353\033C\273*\004Gz\242\207{\242\217"
  54      C6EB1B43 
  54      BB2A0447 
  54      7AA2877B 
  54      A28F
  55 0251 76795AF8 		.ascii	"vyZ\370\217\350\021^\330\322\351\337\262\217tc\217\210"
  55      8FE8115E 
  55      D8D2E9DF 
  55      B28F7463 
  55      8F88
  56 0263 11F0C32F 		.ascii	"\021\360\303/\277\005\263\376r\257# V\224RI\373\250"
  56      BF05B3FE 
  56      72AF2320 
  56      56945249 
  56      FBA8
  57 0275 9148CFC4 		.ascii	"\221H\317\304\215\370\225\270q2\221\234L\236\0357\322"
  57      8DF895B8 
  57      7132919C 
  57      4C9E1D37 
  57      D2
  58 0286 B3466222 		.ascii	"\263Fb\"e\\K_\2771k\214G\317\034>\344\330S\007\346\346"
  58      655C4B5F 
  58      BF316B8C 
  58      47CF1C3E 
  58      E4D85307 
  59 029c 28722995 		.ascii	"(r)\225\272\274\177\012~\001\233:\374;"
  59      BABC7F0A 
  59      7E019B3A 
  59      FC3B
  60              		.text
  61              		.section	.gnu.lto_hal_lld_init.ff1475afaec3d3b3,"",%progbits
  62 0000 789CDD54 		.ascii	"x\234\335T=hSQ\024>\347\336\367\362\327&/Q\021\272\225"
  62      3D685351 
  62      143EE7DE 
  62      F7F2D726 
  62      2F5111BA 
  63 0015 2E0E425F 		.ascii	".\016B_\325E\301IAq\020\207FP\027Ic4\017\"\221V\244"
  63      D545C149 
  63      41711087 
  63      46501749 
  63      63340F22 
ARM GAS  /tmp/cc6tjkN8.s 			page 5


  64 002c E0909BB6 		.ascii	"\340\220\233\266C\220\016\301I\353\022]Z\\\024q\250"
  64      43900EC1 
  64      49EB125D 
  64      5A5C1471 
  64      A8
  65 003d 5BE95E8A 		.ascii	"[\351^\212\263K\004\035\273T\020\025\365y\316{yi\222"
  65      B34B041D 
  65      BB541015 
  65      F579CE7B 
  65      796992
  66 0050 F79E3E23 		.ascii	"\367\236>#\210x _\336\275\367|\337=\337\227\037\001"
  66      8878205F 
  66      DEBDF77C 
  66      DF3DDF97 
  66      1F01
  67 0062 0206EB00 		.ascii	"\002\006\353\000\275\016&\000\316\362B\002R\007\012"
  67      BD0E2600 
  67      CEF24202 
  67      52070A
  68 0071 445A20D4 		.ascii	"DZ \324\004\326.\363#\344&\340\261R\367\333\357w\037"
  68      04D62EF3 
  68      23E426E0 
  68      B152F7DB 
  68      EF771F
  69 0084 8EDD6B2D 		.ascii	"\216\335k-4\325w\333F\213\217\212\010\227\350\011\307"
  69      34D577DB 
  69      468B8F8A 
  69      0897E809 
  69      C7
  70 0095 9D37A1F5 		.ascii	"\2357\241\365\253\2734\365bM%[\352\253mK\013\245\200"
  70      ABBB34F5 
  70      624D255B 
  70      EAAB6D4B 
  70      0BA580
  71 00a8 93F8FBB4 		.ascii	"\223\370\373\264a\256\212\310\331x\260\275\234j\326"
  71      61AE8AC8 
  71      D978B0BD 
  71      9C6AD6
  72 00b7 1BCAB66B 		.ascii	"\033\312\266kC{:\365\217yZ\371SOC\345\360\2278QCx\376"
  72      437B3AF5 
  72      8F795AF9 
  72      534F43E5 
  72      F0973851 
  73 00ce DF84F04C 		.ascii	"\337\204\360Ll\264m{\371\363\273\267;\270\177\037\002"
  73      6CB46D7B 
  73      F9F3BBB7 
  73      3BB87F1F 
  73      02
  74 00df 8D26A080 		.ascii	"\215&\240\200Op\202~\264\264\320\030t\206\030m\257\322"
  74      4F70827E 
  74      B4B4D018 
  74      7486186D 
  74      AFD2
  75 00f1 769C1709 		.ascii	"v\234\027\011\206$C\212a\204@\2162\244y\231a0\030\262"
  75      8624438A 
  75      6184408E 
  75      32A47999 
ARM GAS  /tmp/cc6tjkN8.s 			page 6


  75      613018B2 
  76 0105 BC970367 		.ascii	"\274\227\003g\020\222YR\2529\356\214D\225w\360\"\377"
  76      10925952 
  76      AA39EE8C 
  76      449577F0 
  76      22FF
  77 0117 33C82D58 		.ascii	"3\310-XX\377\264;V\300\227\250\303\015D\036\025T\253"
  77      58FFB43B 
  77      56C097A8 
  77      C30D441E 
  77      1554AB
  78 012a A178DC2D 		.ascii	"\241x\334-\330\274\342\235\210\303\360T-\325\263\026"
  78      D8BCE29D 
  78      88C3F054 
  78      2DD5B316 
  79 013a 6A8F6085 		.ascii	"j\217`\205\272t\257\333\251\031\364\214\221\342q\217"
  79      BA74AFDB 
  79      A919F48C 
  79      91E2718F 
  80 014a 2407E53A 		.ascii	"$\007\345:'\001Z\322\257\305;\322\2462\006d\265\237"
  80      27015AD2 
  80      AFC53BD2 
  80      A6320664 
  80      B59F
  81 015c C962AFAA 		.ascii	"\311b\257\252\026\254\252u\006]o|@OT\017\265\036\013"
  81      16ACAA75 
  81      065D6F7C 
  81      404F540F 
  81      B51E0B
  82 016f 1857EF15 		.ascii	"\030W\357\025\306\000\353\361\350\326\343~\255P\353"
  82      C600EBF1 
  82      E8D6E37E 
  82      AD50EB
  83 017e 89C8D613 		.ascii	"\211\310\326\023\301\252]\353k{\326\223\003\242{\327"
  83      C1AA5DEB 
  83      6B7BD693 
  83      03A27BD7 
  84 018e A5424319 		.ascii	"\245BC\031\0110\222\352\275RtCY|%=\326(\021=o\337\\"
  84      093092EA 
  84      BD527443 
  84      597C253D 
  84      D628113D 
  85 01a5 6F9BE742 		.ascii	"o\233\347B\203I\372\365H\242\177\302t\344@\322~\265"
  85      8349FAF5 
  85      48A27FC2 
  85      74E440D2 
  85      7EB5
  86 01b7 FEEFC2C7 		.ascii	"\376\357\302\307n \231\320@\214\320@\262\001\006\214"
  86      6E2099D0 
  86      408CD040 
  86      B201068C 
  87 01c7 DE2B6550 		.ascii	"\336+eP 9\":\201(*\374U \031\277\036I\000l\303b\373"
  87      2039223A 
  87      81282AFC 
  87      552019BF 
  87      1E49006C 
  88 01de CDAAE1F2 		.ascii	"\315\252\341\362\000\356\302\027\325P\304\214\025;\237"
ARM GAS  /tmp/cc6tjkN8.s 			page 7


  88      00EEC217 
  88      D550C48C 
  88      153B9F
  89 01ed BC857180 		.ascii	"\274\205q\200\327Po\357\034\362\232\334\312s\003\207"
  89      D7506FEF 
  89      1CF29ADC 
  89      CA730387 
  90 01fd 71C22C57 		.ascii	"q\302,Wo\226\314\322\365\222y\272l\315X\027\246\315"
  90      6F96CCD2 
  90      F59279BA 
  90      6CCD5817 
  90      A6CD
  91 020f EA9C592E 		.ascii	"\352\234Y.T\314[\325\331\333s\346t\376\374\261\243."
  91      54CC5BD5 
  91      D9DB73E6 
  91      74FEFCB1 
  91      A32E
  92 0221 9E999A9F 		.ascii	"\236\231\232\237\347\223\253\225\312\265\311\"\350w"
  92      E793AB95 
  92      CAB5C922 
  92      E877
  93 022f AA95C929 		.ascii	"\252\225\311)\007\217\374\000~\375\314P"
  93      078FFC00 
  93      7EFDCC50 
  94              		.text
  95              		.section	.gnu.lto_stm32_clock_init.ff1475afaec3d3b3,"",%progbits
  96 0000 789CDD57 		.ascii	"x\234\335W]h\034U\024\276wfgg\3777?\315\177\363\323"
  96      5D681C55 
  96      14BE7766 
  96      6767FF37 
  96      3FCD7FF3 
  97 0015 34BF4D9A 		.ascii	"4\277M\232M\262i\376\372\340\203 \370 \012M@}\221\266"
  97      4DB269FE 
  97      FAE08320 
  97      F8200A4D 
  97      407D91B6 
  98 0029 C6241089 		.ascii	"\306$\020\211Z\037\372\226\273\315>\004\211\032\022"
  98      5A1FFA96 
  98      BBCD3E04 
  98      891A12
  99 0038 5B5B7D30 		.ascii	"[[}0U\250\022(J\300\262m\300.\245\017\025)\330\004\342"
  99      55A81228 
  99      4AC0B26D 
  99      C02EA50F 
  99      1529D804 
 100 004d 4F116254 		.ascii	"O\021bT\"\245\017E|\250\"\216\347\314\356\235\0313s"
 100      22A50F45 
 100      7CA8228E 
 100      E7CCEE9D 
 100      193373
 101 0060 93CD4A65 		.ascii	"\223\315Je\331\201~\275\347\3349g\277\371\3169w2\022"
 101      D9817EBD 
 101      E7DC3967 
 101      BFF9CE39 
 101      773212
 102 0073 91C8F66B 		.ascii	"\221\310\366k\026\376\275ZA\310Q4\302\204\302\035T\242"
 102      16FEBD5A 
ARM GAS  /tmp/cc6tjkN8.s 			page 8


 102      41C85134 
 102      C284C21D 
 102      54A2
 103 0085 32A02C01 		.ascii	"2\240,\0012\311\005\340rQ\005<\212\244\240\307\215\036"
 103      32C905E0 
 103      7251053C 
 103      8AA4A0C7 
 103      8D1E
 104 0097 3755C1A3 		.ascii	"7U\301\243J*z<\350\361P/x\274\222\027=>\364\370\250"
 104      4A2A7A3C 
 104      E8F1502F 
 104      78BC9217 
 104      3D3EF4F8 
 105 00ac 1F3C7EC9 		.ascii	"\037<~\311\217\236\000z\0024\010\236\240\024DO\010="
 105      8F9E007A 
 105      0234089E 
 105      A014444F 
 105      083D
 106 00be 214AE187 		.ascii	"!J\341\207)\231\222d\227\342V=^\237?\020\014\321\251"
 106      29999264 
 106      97E2563D 
 106      5E9F3F10 
 106      0CD1A9
 107 00d1 E7D04D06 		.ascii	"\347\320M\006\353\311E\306\3467~\371\360{z\341\235d"
 107      EBC945C6 
 107      E6377EF9 
 107      F07B7AE1 
 107      9D64
 108 00e3 7C91FDA5 		.ascii	"|\221\375\245i\224\216\343\346IJ\236\205\025\255\323"
 108      69948EE3 
 108      E6494A9E 
 108      8515ADD3 
 109 00f3 FF439ED6 		.ascii	"\377C\236\326+\025\310\226?a^=H\316.F~t1\311\013\253"
 109      2B15C896 
 109      3F615E3D 
 109      48CE2E46 
 109      7E7431C9 
 110 0109 6F57BCB1 		.ascii	"oW\274\261xf\216\375\015\317\364h\351}\367\3633\267"
 110      78668EFD 
 110      0DCFF468 
 110      E97DF7F3 
 110      33B7
 111 011b 583CA969 		.ascii	"X<\251i\217eN\357\363\325\267\376+\275\\S\374\312\352"
 111      8F654EEF 
 111      F3D5B7FE 
 111      2BBD5C53 
 111      FCCAEA
 112 012e AC6F2E36 		.ascii	"\254o.6\3034m*\347\036(yu\376\177k\207\273Y\264\303"
 112      C3346D2A 
 112      E71E2879 
 112      75FE7F6B 
 112      87BB59B4 
 113 0143 9DD537F3 		.ascii	"\235\3257\363\255\035\326\346\277\272H!6\366@\323\302"
 113      AD1DD6E6 
 113      BFBA4821 
 113      36F640D3 
 113      C2
ARM GAS  /tmp/cc6tjkN8.s 			page 9


 114 0154 19D34B9E 		.ascii	"\031\323K\236]\310\273\301xw-\267{/\377\024_[\310\351"
 114      5DC8BBC1 
 114      78772DB7 
 114      7B2FFF14 
 114      5F5BC8E9 
 115 0168 C3FF8785 		.ascii	"\303\377\207\205\254F\343\301\332\336\017\330\344\303"
 115      AC46E3C1 
 115      DADE0FD8 
 115      E4C3
 116 0176 6C8216D6 		.ascii	"l\202\026\326\363\256%\316\256\347tK|pn\326J\317\225"
 116      F3AE25CE 
 116      AEE7744B 
 116      7C706ED6 
 116      4ACF95
 117 0189 E96B2DFF 		.ascii	"\351k-\377\012\265r.\247O\313o\326\277\314bvsS\361O"
 117      0AB5722E 
 117      A74FCB6F 
 117      D6BFCC62 
 117      767353F1 
 118 019e A5E486A6 		.ascii	"\245\344\206\246\335\327~\377\3612-9J\011P\223\020d"
 118      DDD77EFF 
 118      F1322D39 
 118      4A095093 
 118      1064
 119 01b0 00D985A0 		.ascii	"\000\331\205\240\240\351\306\225\212\340A\323\213\340"
 119      A0E9C695 
 119      8AE041D3 
 119      8BE0
 120 01be 43D38F10 		.ascii	"C\323\217\020@3\210\020B3\214\253\002\\\025\"\024\241"
 120      40338810 
 120      42338CAB 
 120      025C1522 
 120      14A1
 121 01d0 598CB00F 		.ascii	"Y\214\260\017\315\022\204R4\313\020\312\021*\320W\211"
 121      CD128452 
 121      34CB10CA 
 121      112AD057 
 121      89
 122 01e1 5085E67E 		.ascii	"P\205\346~\\U#\324\240Y\213P\207\346\001\204z4\017\342"
 122      5C5523D4 
 122      A0598B50 
 122      87E60184 
 122      7A340FE2 
 123 01f5 AA01A111 		.ascii	"\252\001\241\021\315&\204f\204\026\204V\204C\270\333"
 123      CD268466 
 123      84168456 
 123      8443B8DB 
 124 0205 86D08EE6 		.ascii	"\206\320\216\346a\\u D\000\\\235\350\353B\350F_\024"
 124      615C7520 
 124      44005C9D 
 124      E8EB42E8 
 124      465F14
 125 0218 A107CD23 		.ascii	"\241\007\315#\270\352E\350C\263\037a\000\315A\242\353"
 125      B8EA45E8 
 125      43B31F61 
 125      00CD41A2 
 125      EB
ARM GAS  /tmp/cc6tjkN8.s 			page 10


 126 0229 49141267 		.ascii	"I\024\022gl\256NW\026\256!\035\207\361\303N\276M\316"
 126      6CAE4E57 
 126      16AE211D 
 126      87F1C34E 
 126      BE4DCE
 127 023c 241EC2A7 		.ascii	"$\036\302\247\324qz\027>\350F)E\311\011[\234a(;\354"
 127      D4717A17 
 127      3EE84629 
 127      45C9095B 
 127      9C61283B 
 128 0251 F6F31D69 		.ascii	"\366\363\035i\333\316\215\347\371\016P^b\361X\3018U"
 128      DBCE8DE7 
 128      F90E505E 
 128      62F158C1 
 128      3855
 129 0263 DE27EFC1 		.ascii	"\336'\357\301]n~\267~\235\240\274t\267\311\364U\231"
 129      5D6E7EB7 
 129      7E9DA0BC 
 129      74B7C9F4 
 129      5599
 130 0275 47B92010 		.ascii	"G\271 \020o\222i*\335\223\251\015\207\\\324\236k\224"
 130      6F92692A 
 130      DD93A90D 
 130      875CD49E 
 130      6B94
 131 0287 A6BB6218 		.ascii	"\246\273b\030\037P\177\212\363\037\375i<\205\"\344\352"
 131      1F507F8A 
 131      F31FFD69 
 131      3C8522E4 
 131      EA
 132 0298 D6F3536B 		.ascii	"\326\363SkzE@uez\331H\250B\244N\026?\227o\221\233[\261"
 132      7A454075 
 132      657AD948 
 132      A842A44E 
 132      163F976F 
 133 02b0 A8B1A5FB 		.ascii	"\250\261\245\373\255\035:\214\344tN\337^\272g\244\360"
 133      AD1D3A8C 
 133      E4744EDF 
 133      5EBA67A4 
 133      F0
 134 02c1 0895F50A 		.ascii	"\010\225\365\012\331\372\034\324\360Z\351R\013]CY?\004"
 134      D9FA1CD4 
 134      F05AE952 
 134      0B5D4359 
 134      3F04
 135 02d3 EAA460A2 		.ascii	"\352\244`\242\264\360n\352z\354\371F\361+\035\371\377"
 135      B4F06EEA 
 135      7AECF946 
 135      F12B1DF9 
 135      FF
 136 02e4 7A49E249 		.ascii	"zI\342I\003B\372A!\375\220\303\317\005\235\351\357@"
 136      0342FA41 
 136      21FD90C3 
 136      CF059DE9 
 136      EF40
 137 02f6 30E04430 		.ascii	"0\340D0\304\245Vx\371?\376\315\220:,dT`/\177X\244\347"
 137      C4A55678 
ARM GAS  /tmp/cc6tjkN8.s 			page 11


 137      F93FFECD 
 137      903A2C64 
 137      54602F7F 
 138 030d F4152361 		.ascii	"\364\025#a!D\352\212\006\364\362\307\357\233\345/t("
 138      2144EA8A 
 138      06F4F2C7 
 138      EF9BE52F 
 138      7428
 139 031f BF9B735A 		.ascii	"\277\233sZ2\007\253H\250_\261\220\355>\0075\212E\335"
 139      3207AB48 
 139      A85FB190 
 139      ED3E0735 
 139      8A45DD
 140 0332 6A94BF04 		.ascii	"j\224\277\004\002uR\177\354:YEN\223U\222\252}b\251\233"
 140      0275527F 
 140      EC3A5945 
 140      4E935592 
 140      AA7D62A9 
 141 0347 672CDDCE 		.ascii	"g,\335\3160\361\231j\315\311\202\326\244\245vA\321\243"
 141      30F1996A 
 141      CDC982D6 
 141      A4A57641 
 141      D1A3
 142 0359 A488C250 		.ascii	"\244\210\302P,o\032\252\224\011U)\027\252R\341\360 "
 142      2C6F1AAA 
 142      94095529 
 142      17AA52E1 
 142      F020
 143 036b E5D6DF94 		.ascii	"\345\326\337\224LU\314\343\246\022\0023;n\312\354\271"
 143      4C55CCE3 
 143      A6120233 
 143      3B6ECAEC 
 143      B9
 144 037c 209CD756 		.ascii	" \234\327V\345\207\346\262y\334T\011\271\356\267\367"
 144      E587E6B2 
 144      79DC5409 
 144      B9EEB7F7 
 145 038c 5B9580AA 		.ascii	"[\225\200\252\265\337\252!Rp\334T;\364\233\207\367\333"
 145      B5DFAA21 
 145      5270DC54 
 145      3BF49B87 
 145      F7DB
 146 039e 3553D91A 		.ascii	"5S\331\032\241\262\265B\266u\016j\324Z\351\312&]S\331"
 146      A1B2B542 
 146      B6750E6A 
 146      D45AE9CA 
 146      265D53D9 
 147 03b2 03109899 		.ascii	"\003\020\230\231\2625\366\\\020\316\237\302\233~\212"
 147      B235F65C 
 147      10CE9FC2 
 147      9B7E8A
 148 03c1 C4357392 		.ascii	"\3045s\222\353\205\\\017\332\225\255\027P\265\036\344"
 148      EB855C0F 
 148      DA95AD17 
 148      50B51EE4 
 149 03d1 0D102950 		.ascii	"\015\020)P\266\301AY\037?\310W\214ah\264\015\303\327"
 149      B6C14159 
ARM GAS  /tmp/cc6tjkN8.s 			page 12


 149      1F3FC857 
 149      8C6168B4 
 149      0DC3D7
 150 03e4 3B0C43A3 		.ascii	";\014C\243`\030\030[\244\351y\230\371\3028d\233\366"
 150      6018185B 
 150      A4E97998 
 150      F9C23864 
 150      9BF6
 151 03f6 94BBC99A 		.ascii	"\224\273\311\232\333e\037\264\231\353F\342\346=%n\266"
 151      DB651FB4 
 151      99EB46E2 
 151      E63D256E 
 151      B6
 152 0407 2656EC89 		.ascii	"&V\354\211\023\233\346k\255E\330g\255\302\332\035r\350"
 152      139BE66B 
 152      AD45D867 
 152      ADC2DA1D 
 152      72E8
 153 0419 8DD65DFF 		.ascii	"\215\326]\377`h\203@\275D\2141\317n\255\326\342t\262"
 153      60688340 
 153      BD448C31 
 153      CF6EADD6 
 153      E274B2
 154 042c B5F1B2FA 		.ascii	"\265\361\262\372yY7\315!n\027\322=lo\265\366\014\376"
 154      795937CD 
 154      216E17D2 
 154      3D6C6FB5 
 154      F60CFE
 155 043f 66E88048 		.ascii	"f\350\200H\316\267\300\326m\035\016\335\026\340g\313"
 155      CEB7C0D6 
 155      6D1D0EDD 
 155      16E067CB 
 156 044f 4F378C2C 		.ascii	"O7\214,\021\274\317\305\222\302\312u\031\274T~w\232"
 156      11BCCFC5 
 156      92C2CA75 
 156      19BC547E 
 156      779A
 157 0461 97DBAC5C 		.ascii	"\227\333\254\\a\272r\347\267\314\312u\012+\327%\224"
 157      61BA72E7 
 157      B7CCCA75 
 157      0A2BD725 
 157      94
 158 0472 A2DB41EA 		.ascii	"\242\333A\352.\301\013\324\254\\\024\002\215\241\333"
 158      2EC10BD4 
 158      AC5C1402 
 158      8DA1DB
 159 0481 B16C9D4E 		.ascii	"\261l\235N\357\372(\327'\310O\210-\363\204\350\021r"
 159      EFFA28D7 
 159      27C84F88 
 159      2DF384E8 
 159      1172
 160 0493 3D622F5B 		.ascii	"=b/[O\006\357\372^\210\024\274\353{u\277\347_5\013\361"
 160      4F06EFFA 
 160      5E8814BC 
 160      EB7B75BF 
 160      E75F350B 
 161 04a8 9ADDABE4 		.ascii	"\232\335\253\344\267\365\011\205\355\027\222\035p\020"
ARM GAS  /tmp/cc6tjkN8.s 			page 13


 161      B7F50985 
 161      ED17921D 
 161      7010
 162 04b6 A3DFCA56 		.ascii	"\243\337\312Vu\022v\020\0023;z\373\354\271 \234\220"
 162      75127610 
 162      02333B7A 
 162      FBECB920 
 162      9C90
 163 04c8 3B24B671 		.ascii	";$\266q\271-\025\306\257!\224\006K5\020\031\233|y$2"
 163      B92D15C6 
 163      AF219406 
 163      4B351019 
 163      9B7C7924 
 164 04dd F2D248E4 		.ascii	"\362\322H\344\361\261\361\023\343O\037\213L\236\212"
 164      F1B1F113 
 164      E34F1F8B 
 164      4C9E8A
 165 04ec 8C1D9F88 		.ascii	"\214\035\237\210\2742\371\332\353\247\"\307\206\236"
 165      BC32F9DA 
 165      EBA722C7 
 165      869E
 166 04fa 8A76A7F0 		.ascii	"\212v\247\360\211\316\323\247q\347\205\211\211\027;"
 166      89CED3A7 
 166      71E78589 
 166      89173B
 167 0509 4E927F00 		.ascii	"N\222\177\000M\227\231\025"
 167      4D979915 
 168              		.text
 169              		.section	.gnu.lto_.symbol_nodes.ff1475afaec3d3b3,"",%progbits
 170 0000 789C6362 		.ascii	"x\234cb`b\260c\200\002\246i\214\365\014\014\023\316"
 170      6062B063 
 170      8002A669 
 170      8CF50C0C 
 170      13CE
 171 0012 3130D4D7 		.ascii	"10\324\327_\351Hd\232\316X\317\010\345^\353`d\232\301"
 171      5FE94864 
 171      9ACE58CF 
 171      08E55EEB 
 171      60649AC1 
 172 0026 58CF84E0 		.ascii	"X\317\204\340\262Ned`\257g`fd`h\352{#\317\000\000a\216"
 172      B24E6564 
 172      60AF6760 
 172      66646068 
 172      EA7B23CF 
 173 003e 1260     		.ascii	"\022`"
 174              		.text
 175              		.section	.gnu.lto_.refs.ff1475afaec3d3b3,"",%progbits
 176 0000 789C6362 		.ascii	"x\234cb`b`d\200\002\000\000F\000\006"
 176      60626064 
 176      80020000 
 176      460006
 177              		.text
 178              		.section	.gnu.lto_.decls.ff1475afaec3d3b3,"",%progbits
 179 0000 789C9D96 		.ascii	"x\234\235\226\177l\023e\030\307\337\367ZY\353*#$\022"
 179      7F6C1365 
 179      18C7DFF7 
 179      5A59EB2A 
ARM GAS  /tmp/cc6tjkN8.s 			page 14


 179      232412
 180 0013 35311403 		.ascii	"51\024\003\306`\344\306\226\030M\014\331v\333\030Q\330"
 180      C660E4C6 
 180      96184D0C 
 180      D976DB18 
 180      51D8
 181 0025 721D82FF 		.ascii	"r\035\202\377\330\334\272[\326\254k\227\265\213\343"
 181      D8DCBA5B 
 181      D6AC6B97 
 181      B58BE3
 182 0034 BF633362 		.ascii	"\277c3b4\221\015\021\225\010t\023\247%`\026\035\206"
 182      34910D11 
 182      95087413 
 182      A7256016 
 182      1D86
 183 0046 31703760 		.ascii	"1p7`d\001\322MF6\311\230\0143\0275\006\235\370\233\305"
 183      6401D24D 
 183      4636C998 
 183      0C331735 
 183      069DF89B 
 184 005b FADCDBBB 		.ascii	"\372\334\333\273\365\275z\327]y\223\347\271\267w\357"
 184      F5BD7AD7 
 184      5D7993E7 
 184      B9B777EF 
 185 006b FB79BFCF 		.ascii	"\373y\277\317\373\274\357\2631\210A\317a\204\022\320"
 185      FBBCEFB3 
 185      318841CF 
 185      618412D0 
 186 007b AA962334 		.ascii	"\252\226#4\004};Bh\023J5\033X\027X\017X\014\014\206"
 186      047D3B42 
 186      68134A35 
 186      1B581758 
 186      0F580C0C 
 187 0090 A0E348DF 		.ascii	"\240\343H\337\224\357\016\260>0\300 \027X\016\330 \330"
 187      94EF0EB0 
 187      3E30C020 
 187      17580ED8 
 187      20D8
 188 00a2 00D84930 		.ascii	"\000\330I0\031\214\001;\015vM\345t\241\377\267\036\225"
 188      198C013B 
 188      0D764DE5 
 188      74A1FFB7 
 188      1E95
 189 00b4 3598C61A 		.ascii	"5\230\306\032P\0317\301\272QR\347$\330\025\260K`WU~"
 189      501937C1 
 189      BA5152E7 
 189      24D815B0 
 189      4B605755 
 190 00c9 8F093766 		.ascii	"\217\0117f\302\235\241\330\267\3241\303`\027\301\246"
 190      C29DA1D8 
 190      B7D431C3 
 190      6017C1A6 
 191 00d9 C126C0AE 		.ascii	"\301&\300\256\203M\201\315\201\215\251\332c\006k\254"
 191      834D81CD 
 191      818DA9DA 
 191      63066BAC 
 192 00e9 46872579 		.ascii	"F\207%ylfx\352\255\207\245h\233\234H\014\026\241U\350"
ARM GAS  /tmp/cc6tjkN8.s 			page 15


 192      6C6678EA 
 192      AD87A568 
 192      9B9C480C 
 192      16A155E8 
 193 00fd 1D095AF4 		.ascii	"\035\011Z\3645I\302\021\001oz\020\355\304\002^\356D"
 193      3549C211 
 193      016F7A10 
 193      EDC4025E 
 193      EE44
 194 010f 6ED27139 		.ascii	"n\322q9I$\010\011\270\033\257R{\333mI\036\311\316z\024"
 194      49240809 
 194      B81BAF52 
 194      7BDB6D49 
 194      1EC9CE7A 
 195 0124 83F91D92 		.ascii	"\203\371\035\222\364\355\223\330`M\204\036G\037)+H\237"
 195      F4ED93D8 
 195      604D841E 
 195      471F292B 
 195      489F
 196 0136 4836C257 		.ascii	"H6\302W\010]x5=D\300\037b&]iT\226;\367^\306\322>i!\221"
 196      085D7835 
 196      3D44C01F 
 196      62265D69 
 196      54963BF7 
 197 0151 68B7AB0A 		.ascii	"h\267\253\012\030\3642\206\356Q\274>\343\002=\351\013"
 197      18F43286 
 197      EE51BC3E 
 197      E3023DE9 
 197      0B
 198 0162 7C6CB8C0 		.ascii	"|l\270\300\302\250\253c\367L\"q\304\255\321\033\254"
 198      C2A8AB63 
 198      F74C2271 
 198      C4ADD11B 
 198      AC
 199 0173 D063E9F4 		.ascii	"\320c\351\364cz\372c\250K\212\236\223\217\3740\242\310"
 199      637AFA63 
 199      A84B8A9E 
 199      938FFC30 
 199      A2C8
 200 0185 977E4924 		.ascii	"\227~I$\362\234\350uIjS\366\271b\004\362k\264\311\353"
 200      F29CE875 
 200      496A53F6 
 200      B96204F2 
 200      6BB4C9EB 
 201 0199 D051D8C8 		.ascii	"\320Q\330\310\231\277\367\014\017\3416H\207\200O`'H"
 201      99BFF70C 
 201      0FE13648 
 201      87804F60 
 201      2748
 202 01ab 3A88F59A 		.ascii	":\210\365\232\254\243\336\275|\241\023\267\023T/A}\225"
 202      ACA3DEBD 
 202      7CA113B7 
 202      13542F41 
 202      7D95
 203 01bd 8612708E 		.ascii	"\206\022p\216S\037\011\374\326\006(<\362Y\355(\3270"
 203      531F09FC 
 203      D606283C 
ARM GAS  /tmp/cc6tjkN8.s 			page 16


 203      F259ED28 
 203      D730
 204 01cf 0F653B9C 		.ascii	"\017e;\234A7\026\0275;Z\237\253\333\267S\215Y\372z\036"
 204      41371617 
 204      353B5A9F 
 204      ABDBB753 
 204      8D59FA7A 
 205 01e4 CE5A2E7A 		.ascii	"\316Z.z#\025\347J\324I\316i\021\025r\221\306q\244B\356"
 205      2315E74A 
 205      D449CE69 
 205      11157291 
 205      C671A442 
 206 01f9 1FFD73AD 		.ascii	"\037\375s\255$9\004|\022\257\204\265\0171\372\200\227"
 206      2439047C 
 206      12AF84B5 
 206      0F31FA80 
 206      97
 207 020a C428724E 		.ascii	"\304(rN\301\324\344$\002\225\344\311q\227dO\276Gi\307"
 207      C1D4E424 
 207      0295E4C9 
 207      7197644F 
 207      BE4769C7 
 208 021e 836A6B50 		.ascii	"\203jkPTz\265]\236\032\337\017\327\353\034&ij\317\230"
 208      547AB55D 
 208      9E1ADF0F 
 208      D7EB1C26 
 208      696ACF98 
 209 0232 26017F8A 		.ascii	"&\001\177\212\327Y\334\305\030\211D\221`DR\273hq\033"
 209      D759DCC5 
 209      18894491 
 209      604452BB 
 209      68711B
 210 0245 973BD364 		.ascii	"\227;\323d\335\030wu\010\002\036 \347\340x\3260\267"
 210      DD187775 
 210      08021E20 
 210      E7E078D6 
 210      30B7
 211 0257 51C4DA29 		.ascii	"Q\304\332)Hm\230\200\373ID\247\361\032\360g\301/6\263"
 211      486D9880 
 211      FB4944A7 
 211      F11AF067 
 211      C12F36B3 
 212 026b E4F7E15C 		.ascii	"\344\367\341\\m\210Q\306\335\324\346\3116m\3623\213"
 212      6D8851C6 
 212      DDD4E6C9 
 212      366DF233 
 212      8B
 213 027c 1997070E 		.ascii	"\031\227\007\016`\270\2752Iw\257q\272\315\031\212\200"
 213      60B8BD32 
 213      4977AF71 
 213      BACD198A 
 213      80
 214 028d F3E9E9BE 		.ascii	"\363\351\351\276\233L\367yK\351N\250\351Nn\255\200\317"
 214      9B4CF779 
 214      4BE94EA8 
 214      E94E6EAD 
 214      80CF
ARM GAS  /tmp/cc6tjkN8.s 			page 17


 215 029f C0594ECE 		.ascii	"\300YN\316\275\267<uLPy:C\342\311\006\346\326\301\366"
 215      BDB73C75 
 215      4C50793A 
 215      43E2C906 
 215      E6D6C1F6 
 216 02b3 D1B0212B 		.ascii	"\321\260!+0\207\271\262\3754l8k\230^\331\001\032\026"
 216      3087B9B2 
 216      FD346C38 
 216      6B985ED9 
 216      011A16
 217 02c6 B7025B61 		.ascii	"\267\002[a\256\354=\0326\2315L\257\354 \015\373\306"
 217      AEEC3D1A 
 217      3699354C 
 217      AFEC200D 
 217      FBC6
 218 02d8 0AEC2173 		.ascii	"\012\354!se\037\320\260\271\254aze\207i\330m+0\267\271"
 218      651FD0B0 
 218      B9AC617A 
 218      658769D8 
 218      6D2B30B7 
 219 02ed B2DE144C 		.ascii	"\262\336\024L\300_Z9\264nse\237\321\312\356XQ\366\204"
 219      C05F5A39 
 219      B46E7365 
 219      9FD1CAEE 
 219      5851F684 
 220 0301 B9B23E1A 		.ascii	"\271\262>\032v7k\230^\331\0274l\267\315\002,\337\\\331"
 220      76376B98 
 220      5ED91734 
 220      6CB7CD02 
 220      2CDF5CD9 
 221 0315 291AB627 		.ascii	")\032\266'k\230\033\2316\272\012\011\370\002\251\241"
 221      6B981B99 
 221      36BA0A09 
 221      F802A9A1 
 222 0325 C3A4865E 		.ascii	"\303\244\206^$~\204\370K\304_!>N\374\030\361W\211\277"
 222      247E84F8 
 222      4BC45F21 
 222      3E4EFC18 
 222      F15789BF 
 223 0339 46FC04F1 		.ascii	"F\374\004\361\223\304_'~\212\370i+\265x\320\244\026"
 223      93C45F27 
 223      7E8AF869 
 223      2BB578D0 
 223      A416
 224 034b 27FF3B32 		.ascii	"'\377;2\233u\323z\005\2172\332\344\265h\261\202\277"
 224      9B75D37A 
 224      058F32DA 
 224      E4B568B1 
 224      82BF
 225 035d BD57A9E0 		.ascii	"\275W\251\340\267H\005\177\323\266d\005\3273\024\001"
 225      B748057F 
 225      D3B66405 
 225      D7331401 
 226 036d B3E9157C 		.ascii	"\263\351\025|:N*\370\254\245\012>\037\247+8\203\336"
 226      3A4E2AF8 
 226      ACA50A3E 
 226      1FA72B38 
ARM GAS  /tmp/cc6tjkN8.s 			page 18


 226      83DE
 227 037f 271266EF 		.ascii	"'\022f\357\271\202\377\032\247N\311\241\254a\372\363"
 227      B982FF1A 
 227      A74EC9A1 
 227      AC61FAF3 
 228 038f FB1B0DEB 		.ascii	"\373\033\015\353\266\002\313P\301\377\240a\307\262\206"
 228      B602CB50 
 228      C1FFA061 
 228      C7B286
 229 039e E995FD15 		.ascii	"\351\225\375\025\247\012H\362\257\336\022\260\014\025"
 229      A70A48F2 
 229      AFDE12B0 
 229      0C15
 230 03ac FC1F5AD9 		.ascii	"\374\037Z\331\011+\3122T\360\005\032\326k\005\226\241"
 230      092BCA32 
 230      54F0051A 
 230      D66B0596 
 230      A1
 231 03bd 82FF4BC3 		.ascii	"\202\377K\303\372\263\206\351\225u\214R\260\263V`n\003"
 231      FAB386E9 
 231      95758C52 
 231      B0B35660 
 231      6E03
 232 03cf 65468DBE 		.ascii	"eF\215\276\004\002\376\216\024\2209r\361\277'\376G\342"
 232      0402FE8E 
 232      14903972 
 232      F1BF27FE 
 232      47E2
 233 03e1 7F22FE36 		.ascii	"\177\"\3766\361?\023?O\374\035\342\177\267R\"fR\227"
 233      F13F133F 
 233      4FFC1DE2 
 233      7FB75222 
 233      665297
 234 03f4 1D3DCBD6 		.ascii	"\035=\313\326\207\032EV\254\023Y\256\336_\343\257\364"
 234      871A4556 
 234      AC1359AE 
 234      DE5FE3AF 
 234      F4
 235 0405 B0A1305B 		.ascii	"\260\2410[/\004\330\246Ps$\314z\252\267\026\026$}y~"
 235      2F04D8A6 
 235      507324CC 
 235      7AAAB716 
 235      16247D79 
 236 041a 6BABF2C5 		.ascii	"k\253\362\305\033\010\324n\360\241G\324\256\267F\360"
 236      1B08D46E 
 236      F0A147D4 
 236      AEB746F0 
 237 042a 35B43479 		.ascii	"5\2644ykC\215\202?\350\365\007\375\221e\233\267mws\310"
 237      6B438D82 
 237      3FE8F507 
 237      FD91659B 
 237      B76D7773 
 238 043f A58D50DE 		.ascii	"\245\215P\336\255\010G\032\013\013\274\276@\310\327"
 238      AD08471A 
 238      0B0BBCBE 
 238      40C8D7
 239 044e 405E3CCA 		.ascii	"@^<\312\266\204\233Y\177\320\027h\251\025\331\240\370"
ARM GAS  /tmp/cc6tjkN8.s 			page 19


 239      B6849B59 
 239      7FD01768 
 239      A915D9A0 
 239      F8
 240 045f 4AC05FC3 		.ascii	"J\300_\303\206#\265\376`dC=r\264\300\023\306G\2362\032"
 240      8623B5FE 
 240      6064433D 
 240      72B4C013 
 240      C6479E32 
 241 0474 D628F8EA 		.ascii	"\326(\370\352\375A\221\365\326\212uBK \342\215\354j"
 241      FD4191F5 
 241      D68A7542 
 241      4B20E28D 
 241      EC6A
 242 0486 12C330ED 		.ascii	"\022\3030\355~\257W\233\230\347\331\025\216\210\215"
 242      7EAF579B 
 242      98E7D915 
 242      8E888D
 243 0495 5CA859E4 		.ascii	"\\\250Y\344\224E\363\015#\025[#,\267\325\263\305\003"
 243      9445F30D 
 243      23155B23 
 243      2CB7D5B3 
 243      C503
 244 04a7 31B24462 		.ascii	"1\262Db]~a~\353\323\300\312\255\332\301{\253\001\\*"
 244      5D7E617E 
 244      EBD3C0CA 
 244      ADDAC17B 
 244      AB015C2A 
 245 04bb D6311C6F 		.ascii	"\3261\034o\343<|.\317q\332+;W\276\031^n\341\035\305"
 245      E33C7C2E 
 245      CF71DA2B 
 245      3B57BE19 
 245      5E6EE11D 
 246 04d0 552505BC 		.ascii	"U%\005\274\247\232t6*\235e\305\025%e\333\370\034\345"
 246      A79A7436 
 246      2A9D65C5 
 246      152565DB 
 246      F81CE5
 247 04e3 83FADC08 		.ascii	"\203\372\334\010O{I)\007?*J\2241\367)\323\013\210/\264"
 247      4F7B4929 
 247      073F2A4A 
 247      9431F729 
 247      D30B882F 
 248 04f8 717CC103 		.ascii	"q|\301\003\345/\024{*4\270\255\230\343\355\317\227\275"
 248      E52F147B 
 248      2A34B8AD 
 248      98E3EDCF 
 248      97BD
 249 050a C4E75456 		.ascii	"\304\347TVU+O\306\3033\305\274\203/\363\224\361/\226"
 249      552B4FC6 
 249      C333C5BC 
 249      832FF394 
 249      F12F96
 250 051d 95DA2A4B 		.ascii	"\225\332*Kx\373\016\276\212\377\017h\3466["
 250      78FB0EBE 
 250      8AFF0F68 
 250      E6365B
ARM GAS  /tmp/cc6tjkN8.s 			page 20


 251              		.text
 252              		.section	.gnu.lto_.symtab.ff1475afaec3d3b3,"",%progbits
 253 0000 68616C5F 		.ascii	"hal_lld_init\000\000\000\000\000\000\000\000\000\000"
 253      6C6C645F 
 253      696E6974 
 253      00000000 
 253      00000000 
 254 0016 0000A600 		.ascii	"\000\000\246\000\000\000stm32_clock_init\000\000\000"
 254      00007374 
 254      6D33325F 
 254      636C6F63 
 254      6B5F696E 
 255 002f 00000000 		.ascii	"\000\000\000\000\000\000\000\000\000\251\000\000\000"
 255      00000000 
 255      00A90000 
 255      00
 256 003c 53797374 		.ascii	"SystemCoreClock\000\000\000\000\000\000\000\000\000"
 256      656D436F 
 256      7265436C 
 256      6F636B00 
 256      00000000 
 257 0054 000000AC 		.ascii	"\000\000\000\254\000\000\000"
 257      000000
 258              		.text
 259              		.section	.gnu.lto_.opts,"",%progbits
 260 0000 272D6D63 		.ascii	"'-mcpu=cortex-m0' '-mno-thumb-interwork' '-mthumb' "
 260      70753D63 
 260      6F727465 
 260      782D6D30 
 260      2720272D 
 261 0033 272D6767 		.ascii	"'-ggdb' '-O0' '-fomit-frame-pointer' '-falign-funct"
 261      64622720 
 261      272D4F30 
 261      2720272D 
 261      666F6D69 
 262 0066 696F6E73 		.ascii	"ions=16' '-ffunction-sections' '-fdata-sections' '-"
 262      3D313627 
 262      20272D66 
 262      66756E63 
 262      74696F6E 
 263 0099 666E6F2D 		.ascii	"fno-common' '-flto'\000"
 263      636F6D6D 
 263      6F6E2720 
 263      272D666C 
 263      746F2700 
 264              		.text
 265              		.cfi_sections	.debug_frame
 266              		.global	SystemCoreClock
 267              		.section	.data.SystemCoreClock,"aw",%progbits
 268              		.align	2
 269              		.type	SystemCoreClock, %object
 270              		.size	SystemCoreClock, 4
 271              	SystemCoreClock:
 272 0000 006CDC02 		.word	48000000
 273              		.section	.text.hal_lld_backup_domain_init,"ax",%progbits
 274              		.align	2
 275              		.p2align 4,,15
ARM GAS  /tmp/cc6tjkN8.s 			page 21


 276              		.code	16
 277              		.thumb_func
 278              		.type	hal_lld_backup_domain_init, %function
 279              	hal_lld_backup_domain_init:
 280              	.LFB149:
 281              		.file 1 "/home/efe/ChibiOS/os/hal/ports/STM32/STM32F0xx/hal_lld.c"
 282              		.loc 1 54 0
 283              		.cfi_startproc
 284              		.loc 1 57 0
 285 0000 154B     		ldr	r3, .L4
 286 0002 154A     		ldr	r2, .L4
 287 0004 1268     		ldr	r2, [r2]
 288 0006 8021     		mov	r1, #128
 289 0008 4900     		lsl	r1, r1, #1
 290 000a 0A43     		orr	r2, r1
 291 000c 1A60     		str	r2, [r3]
 292              		.loc 1 60 0
 293 000e 134B     		ldr	r3, .L4+4
 294 0010 1A6A     		ldr	r2, [r3, #32]
 295 0012 C023     		mov	r3, #192
 296 0014 9B00     		lsl	r3, r3, #2
 297 0016 1A40     		and	r2, r3
 298 0018 8023     		mov	r3, #128
 299 001a 9B00     		lsl	r3, r3, #2
 300 001c 9A42     		cmp	r2, r3
 301 001e 06D0     		beq	.L2
 302              		.loc 1 62 0
 303 0020 0E4B     		ldr	r3, .L4+4
 304 0022 8022     		mov	r2, #128
 305 0024 5202     		lsl	r2, r2, #9
 306 0026 1A62     		str	r2, [r3, #32]
 307              		.loc 1 63 0
 308 0028 0C4B     		ldr	r3, .L4+4
 309 002a 0022     		mov	r2, #0
 310 002c 1A62     		str	r2, [r3, #32]
 311              	.L2:
 312              		.loc 1 82 0
 313 002e 0B4B     		ldr	r3, .L4+4
 314 0030 1A6A     		ldr	r2, [r3, #32]
 315 0032 8023     		mov	r3, #128
 316 0034 1B02     		lsl	r3, r3, #8
 317 0036 1340     		and	r3, r2
 318 0038 0DD1     		bne	.L1
 319              		.loc 1 84 0
 320 003a 084B     		ldr	r3, .L4+4
 321 003c 074A     		ldr	r2, .L4+4
 322 003e 126A     		ldr	r2, [r2, #32]
 323 0040 8021     		mov	r1, #128
 324 0042 8900     		lsl	r1, r1, #2
 325 0044 0A43     		orr	r2, r1
 326 0046 1A62     		str	r2, [r3, #32]
 327              		.loc 1 87 0
 328 0048 044B     		ldr	r3, .L4+4
 329 004a 044A     		ldr	r2, .L4+4
 330 004c 126A     		ldr	r2, [r2, #32]
 331 004e 8021     		mov	r1, #128
 332 0050 0902     		lsl	r1, r1, #8
ARM GAS  /tmp/cc6tjkN8.s 			page 22


 333 0052 0A43     		orr	r2, r1
 334 0054 1A62     		str	r2, [r3, #32]
 335              	.L1:
 336              		.loc 1 90 0
 337              		@ sp needed
 338 0056 7047     		bx	lr
 339              	.L5:
 340              		.align	2
 341              	.L4:
 342 0058 00700040 		.word	1073770496
 343 005c 00100240 		.word	1073876992
 344              		.cfi_endproc
 345              	.LFE149:
 346              		.size	hal_lld_backup_domain_init, .-hal_lld_backup_domain_init
 347              		.section	.text.hal_lld_init,"ax",%progbits
 348              		.align	2
 349              		.p2align 4,,15
 350              		.global	hal_lld_init
 351              		.code	16
 352              		.thumb_func
 353              		.type	hal_lld_init, %function
 354              	hal_lld_init:
 355              	.LFB150:
 356              		.loc 1 224 0
 357              		.cfi_startproc
 358 0000 08B5     		push	{r3, lr}
 359              		.cfi_def_cfa_offset 8
 360              		.cfi_offset 3, -8
 361              		.cfi_offset 14, -4
 362              		.loc 1 227 0
 363 0002 124B     		ldr	r3, .L7
 364 0004 9B6A     		ldr	r3, [r3, #40]
 365 0006 114B     		ldr	r3, .L7
 366 0008 0122     		mov	r2, #1
 367 000a 5242     		neg	r2, r2
 368 000c 9A62     		str	r2, [r3, #40]
 369 000e 0F4B     		ldr	r3, .L7
 370 0010 0022     		mov	r2, #0
 371 0012 9A62     		str	r2, [r3, #40]
 372              		.loc 1 228 0
 373 0014 0D4B     		ldr	r3, .L7
 374 0016 1B69     		ldr	r3, [r3, #16]
 375 0018 0C4B     		ldr	r3, .L7
 376 001a 0122     		mov	r2, #1
 377 001c 5242     		neg	r2, r2
 378 001e 1A61     		str	r2, [r3, #16]
 379 0020 0A4B     		ldr	r3, .L7
 380 0022 0022     		mov	r2, #0
 381 0024 1A61     		str	r2, [r3, #16]
 382              		.loc 1 229 0
 383 0026 094B     		ldr	r3, .L7
 384 0028 084A     		ldr	r2, .L7
 385 002a D268     		ldr	r2, [r2, #12]
 386 002c 0849     		ldr	r1, .L7+4
 387 002e 0A43     		orr	r2, r1
 388 0030 DA60     		str	r2, [r3, #12]
 389 0032 064B     		ldr	r3, .L7
ARM GAS  /tmp/cc6tjkN8.s 			page 23


 390 0034 0022     		mov	r2, #0
 391 0036 DA60     		str	r2, [r3, #12]
 392              		.loc 1 232 0
 393 0038 044B     		ldr	r3, .L7
 394 003a 044A     		ldr	r2, .L7
 395 003c D269     		ldr	r2, [r2, #28]
 396 003e 8021     		mov	r1, #128
 397 0040 4905     		lsl	r1, r1, #21
 398 0042 0A43     		orr	r2, r1
 399 0044 DA61     		str	r2, [r3, #28]
 400              		.loc 1 235 0
 401 0046 FFF7FEFF 		bl	hal_lld_backup_domain_init
 402              		.loc 1 245 0
 403              		@ sp needed
 404 004a 08BD     		pop	{r3, pc}
 405              	.L8:
 406              		.align	2
 407              	.L7:
 408 004c 00100240 		.word	1073876992
 409 0050 FFFFBFFF 		.word	-4194305
 410              		.cfi_endproc
 411              	.LFE150:
 412              		.size	hal_lld_init, .-hal_lld_init
 413 0054 C046C046 		.section	.text.stm32_clock_init,"ax",%progbits
 413      C046C046 
 413      C046C046 
 414              		.align	2
 415              		.p2align 4,,15
 416              		.global	stm32_clock_init
 417              		.code	16
 418              		.thumb_func
 419              		.type	stm32_clock_init, %function
 420              	stm32_clock_init:
 421              	.LFB151:
 422              		.loc 1 254 0
 423              		.cfi_startproc
 424              		.loc 1 259 0
 425 0000 354B     		ldr	r3, .L16
 426 0002 354A     		ldr	r2, .L16
 427 0004 1268     		ldr	r2, [r2]
 428 0006 0121     		mov	r1, #1
 429 0008 0A43     		orr	r2, r1
 430 000a 1A60     		str	r2, [r3]
 431              		.loc 1 260 0
 432 000c C046     		mov	r8, r8
 433              	.L10:
 434              		.loc 1 260 0 is_stmt 0 discriminator 1
 435 000e 324B     		ldr	r3, .L16
 436 0010 1A68     		ldr	r2, [r3]
 437 0012 0223     		mov	r3, #2
 438 0014 1340     		and	r3, r2
 439 0016 FAD0     		beq	.L10
 440              		.loc 1 266 0 is_stmt 1
 441 0018 2F4B     		ldr	r3, .L16
 442 001a 2F4A     		ldr	r2, .L16
 443 001c 5268     		ldr	r2, [r2, #4]
 444 001e 0321     		mov	r1, #3
ARM GAS  /tmp/cc6tjkN8.s 			page 24


 445 0020 8A43     		bic	r2, r1
 446 0022 5A60     		str	r2, [r3, #4]
 447              		.loc 1 267 0
 448 0024 2C4B     		ldr	r3, .L16
 449 0026 2C4A     		ldr	r2, .L16
 450 0028 5268     		ldr	r2, [r2, #4]
 451 002a 5A60     		str	r2, [r3, #4]
 452              		.loc 1 268 0
 453 002c C046     		mov	r8, r8
 454              	.L11:
 455              		.loc 1 268 0 is_stmt 0 discriminator 1
 456 002e 2A4B     		ldr	r3, .L16
 457 0030 5A68     		ldr	r2, [r3, #4]
 458 0032 0C23     		mov	r3, #12
 459 0034 1340     		and	r3, r2
 460 0036 FAD1     		bne	.L11
 461              		.loc 1 272 0 is_stmt 1
 462 0038 274B     		ldr	r3, .L16
 463 003a 274A     		ldr	r2, .L16
 464 003c 1168     		ldr	r1, [r2]
 465 003e F922     		mov	r2, #249
 466 0040 0A40     		and	r2, r1
 467 0042 1A60     		str	r2, [r3]
 468              		.loc 1 273 0
 469 0044 244B     		ldr	r3, .L16
 470 0046 0022     		mov	r2, #0
 471 0048 5A60     		str	r2, [r3, #4]
 472              		.loc 1 290 0
 473 004a 234B     		ldr	r3, .L16
 474 004c 224A     		ldr	r2, .L16
 475 004e 526B     		ldr	r2, [r2, #52]
 476 0050 0121     		mov	r1, #1
 477 0052 0A43     		orr	r2, r1
 478 0054 5A63     		str	r2, [r3, #52]
 479              		.loc 1 291 0
 480 0056 C046     		mov	r8, r8
 481              	.L12:
 482              		.loc 1 291 0 is_stmt 0 discriminator 1
 483 0058 1F4B     		ldr	r3, .L16
 484 005a 5A6B     		ldr	r2, [r3, #52]
 485 005c 0223     		mov	r3, #2
 486 005e 1340     		and	r3, r2
 487 0060 FAD0     		beq	.L12
 488              		.loc 1 304 0 is_stmt 1
 489 0062 1D4B     		ldr	r3, .L16
 490 0064 1C4A     		ldr	r2, .L16
 491 0066 526A     		ldr	r2, [r2, #36]
 492 0068 0121     		mov	r1, #1
 493 006a 0A43     		orr	r2, r1
 494 006c 5A62     		str	r2, [r3, #36]
 495              		.loc 1 305 0
 496 006e C046     		mov	r8, r8
 497              	.L13:
 498              		.loc 1 305 0 is_stmt 0 discriminator 1
 499 0070 194B     		ldr	r3, .L16
 500 0072 5A6A     		ldr	r2, [r3, #36]
 501 0074 0223     		mov	r3, #2
ARM GAS  /tmp/cc6tjkN8.s 			page 25


 502 0076 1340     		and	r3, r2
 503 0078 FAD0     		beq	.L13
 504              		.loc 1 310 0 is_stmt 1
 505 007a 174B     		ldr	r3, .L16
 506 007c A022     		mov	r2, #160
 507 007e 9203     		lsl	r2, r2, #14
 508 0080 5A60     		str	r2, [r3, #4]
 509              		.loc 1 312 0
 510 0082 154B     		ldr	r3, .L16
 511 0084 0022     		mov	r2, #0
 512 0086 DA62     		str	r2, [r3, #44]
 513              		.loc 1 316 0
 514 0088 134B     		ldr	r3, .L16
 515 008a 0022     		mov	r2, #0
 516 008c 1A63     		str	r2, [r3, #48]
 517              		.loc 1 321 0
 518 008e 124B     		ldr	r3, .L16
 519 0090 114A     		ldr	r2, .L16
 520 0092 1268     		ldr	r2, [r2]
 521 0094 8021     		mov	r1, #128
 522 0096 4904     		lsl	r1, r1, #17
 523 0098 0A43     		orr	r2, r1
 524 009a 1A60     		str	r2, [r3]
 525              		.loc 1 322 0
 526 009c C046     		mov	r8, r8
 527              	.L14:
 528              		.loc 1 322 0 is_stmt 0 discriminator 1
 529 009e 0E4B     		ldr	r3, .L16
 530 00a0 1A68     		ldr	r2, [r3]
 531 00a2 8023     		mov	r3, #128
 532 00a4 9B04     		lsl	r3, r3, #18
 533 00a6 1340     		and	r3, r2
 534 00a8 F9D0     		beq	.L14
 535              		.loc 1 327 0 is_stmt 1
 536 00aa 0C4B     		ldr	r3, .L16+4
 537 00ac 1122     		mov	r2, #17
 538 00ae 1A60     		str	r2, [r3]
 539              		.loc 1 332 0
 540 00b0 094B     		ldr	r3, .L16
 541 00b2 094A     		ldr	r2, .L16
 542 00b4 5268     		ldr	r2, [r2, #4]
 543 00b6 0221     		mov	r1, #2
 544 00b8 0A43     		orr	r2, r1
 545 00ba 5A60     		str	r2, [r3, #4]
 546              		.loc 1 333 0
 547 00bc C046     		mov	r8, r8
 548              	.L15:
 549              		.loc 1 333 0 is_stmt 0 discriminator 1
 550 00be 064B     		ldr	r3, .L16
 551 00c0 5A68     		ldr	r2, [r3, #4]
 552 00c2 0C23     		mov	r3, #12
 553 00c4 1340     		and	r3, r2
 554 00c6 082B     		cmp	r3, #8
 555 00c8 F9D1     		bne	.L15
 556              		.loc 1 339 0 is_stmt 1
 557 00ca 034B     		ldr	r3, .L16
 558 00cc 024A     		ldr	r2, .L16
ARM GAS  /tmp/cc6tjkN8.s 			page 26


 559 00ce 9269     		ldr	r2, [r2, #24]
 560 00d0 0121     		mov	r1, #1
 561 00d2 0A43     		orr	r2, r1
 562 00d4 9A61     		str	r2, [r3, #24]
 563              		.loc 1 341 0
 564              		@ sp needed
 565 00d6 7047     		bx	lr
 566              	.L17:
 567              		.align	2
 568              	.L16:
 569 00d8 00100240 		.word	1073876992
 570 00dc 00200240 		.word	1073881088
 571              		.cfi_endproc
 572              	.LFE151:
 573              		.size	stm32_clock_init, .-stm32_clock_init
 574              		.text
 575              	.Letext0:
 576              		.file 2 "/usr/lib/gcc/arm-none-eabi/4.8/include/stddef.h"
 577              		.file 3 "/usr/include/newlib/machine/_default_types.h"
 578              		.file 4 "/usr/include/newlib/stdint.h"
 579              		.file 5 "/home/efe/ChibiOS/os/rt/ports/ARMCMx/compilers/GCC/chtypes.h"
 580              		.file 6 "/home/efe/ChibiOS/os/rt/include/chsystypes.h"
 581              		.file 7 "/home/efe/ChibiOS/os/rt/include/chschd.h"
 582              		.file 8 "/home/efe/ChibiOS/os/ext/CMSIS/ST/stm32f030x6.h"
 583              		.file 9 "/home/efe/ChibiOS/os/rt/ports/ARMCMx/chcore.h"
 584              		.file 10 "/home/efe/ChibiOS/os/rt/ports/ARMCMx/chcore_v6m.h"
 585              		.file 11 "/home/efe/ChibiOS/os/rt/include/chsem.h"
 586              		.file 12 "/home/efe/ChibiOS/os/rt/include/chmtx.h"
 587              		.section	.debug_info,"",%progbits
 588              	.Ldebug_info0:
 589 0000 60070000 		.4byte	0x760
 590 0004 0400     		.2byte	0x4
 591 0006 00000000 		.4byte	.Ldebug_abbrev0
 592 000a 04       		.byte	0x4
 593 000b 01       		.uleb128 0x1
 594 000c 0E030000 		.4byte	.LASF114
 595 0010 01       		.byte	0x1
 596 0011 00010000 		.4byte	.LASF115
 597 0015 00000000 		.4byte	.Ldebug_ranges0+0
 598 0019 00000000 		.4byte	0
 599 001d 00000000 		.4byte	.Ldebug_line0
 600 0021 02       		.uleb128 0x2
 601 0022 04       		.byte	0x4
 602 0023 05       		.byte	0x5
 603 0024 696E7400 		.ascii	"int\000"
 604 0028 03       		.uleb128 0x3
 605 0029 0B020000 		.4byte	.LASF2
 606 002d 02       		.byte	0x2
 607 002e D4       		.byte	0xd4
 608 002f 33000000 		.4byte	0x33
 609 0033 04       		.uleb128 0x4
 610 0034 04       		.byte	0x4
 611 0035 07       		.byte	0x7
 612 0036 8A000000 		.4byte	.LASF0
 613 003a 04       		.uleb128 0x4
 614 003b 01       		.byte	0x1
 615 003c 06       		.byte	0x6
ARM GAS  /tmp/cc6tjkN8.s 			page 27


 616 003d 2C050000 		.4byte	.LASF1
 617 0041 03       		.uleb128 0x3
 618 0042 77040000 		.4byte	.LASF3
 619 0046 03       		.byte	0x3
 620 0047 1D       		.byte	0x1d
 621 0048 4C000000 		.4byte	0x4c
 622 004c 04       		.uleb128 0x4
 623 004d 01       		.byte	0x1
 624 004e 08       		.byte	0x8
 625 004f D4040000 		.4byte	.LASF4
 626 0053 04       		.uleb128 0x4
 627 0054 02       		.byte	0x2
 628 0055 05       		.byte	0x5
 629 0056 17040000 		.4byte	.LASF5
 630 005a 03       		.uleb128 0x3
 631 005b C8010000 		.4byte	.LASF6
 632 005f 03       		.byte	0x3
 633 0060 2B       		.byte	0x2b
 634 0061 65000000 		.4byte	0x65
 635 0065 04       		.uleb128 0x4
 636 0066 02       		.byte	0x2
 637 0067 07       		.byte	0x7
 638 0068 38050000 		.4byte	.LASF7
 639 006c 03       		.uleb128 0x3
 640 006d AB000000 		.4byte	.LASF8
 641 0071 03       		.byte	0x3
 642 0072 3F       		.byte	0x3f
 643 0073 77000000 		.4byte	0x77
 644 0077 04       		.uleb128 0x4
 645 0078 04       		.byte	0x4
 646 0079 05       		.byte	0x5
 647 007a 37040000 		.4byte	.LASF9
 648 007e 03       		.uleb128 0x3
 649 007f E2040000 		.4byte	.LASF10
 650 0083 03       		.byte	0x3
 651 0084 41       		.byte	0x41
 652 0085 89000000 		.4byte	0x89
 653 0089 04       		.uleb128 0x4
 654 008a 04       		.byte	0x4
 655 008b 07       		.byte	0x7
 656 008c 91040000 		.4byte	.LASF11
 657 0090 04       		.uleb128 0x4
 658 0091 08       		.byte	0x8
 659 0092 05       		.byte	0x5
 660 0093 CA020000 		.4byte	.LASF12
 661 0097 03       		.uleb128 0x3
 662 0098 3C020000 		.4byte	.LASF13
 663 009c 03       		.byte	0x3
 664 009d 5B       		.byte	0x5b
 665 009e A2000000 		.4byte	0xa2
 666 00a2 04       		.uleb128 0x4
 667 00a3 08       		.byte	0x8
 668 00a4 07       		.byte	0x7
 669 00a5 A9010000 		.4byte	.LASF14
 670 00a9 03       		.uleb128 0x3
 671 00aa 9F020000 		.4byte	.LASF15
 672 00ae 04       		.byte	0x4
ARM GAS  /tmp/cc6tjkN8.s 			page 28


 673 00af 2A       		.byte	0x2a
 674 00b0 41000000 		.4byte	0x41
 675 00b4 03       		.uleb128 0x3
 676 00b5 03040000 		.4byte	.LASF16
 677 00b9 04       		.byte	0x4
 678 00ba 36       		.byte	0x36
 679 00bb 5A000000 		.4byte	0x5a
 680 00bf 03       		.uleb128 0x3
 681 00c0 BD040000 		.4byte	.LASF17
 682 00c4 04       		.byte	0x4
 683 00c5 41       		.byte	0x41
 684 00c6 6C000000 		.4byte	0x6c
 685 00ca 03       		.uleb128 0x3
 686 00cb 6C010000 		.4byte	.LASF18
 687 00cf 04       		.byte	0x4
 688 00d0 42       		.byte	0x42
 689 00d1 7E000000 		.4byte	0x7e
 690 00d5 03       		.uleb128 0x3
 691 00d6 5D040000 		.4byte	.LASF19
 692 00da 04       		.byte	0x4
 693 00db 4E       		.byte	0x4e
 694 00dc 97000000 		.4byte	0x97
 695 00e0 03       		.uleb128 0x3
 696 00e1 F0030000 		.4byte	.LASF20
 697 00e5 05       		.byte	0x5
 698 00e6 3C       		.byte	0x3c
 699 00e7 A9000000 		.4byte	0xa9
 700 00eb 03       		.uleb128 0x3
 701 00ec 7F020000 		.4byte	.LASF21
 702 00f0 05       		.byte	0x5
 703 00f1 3D       		.byte	0x3d
 704 00f2 A9000000 		.4byte	0xa9
 705 00f6 03       		.uleb128 0x3
 706 00f7 90010000 		.4byte	.LASF22
 707 00fb 05       		.byte	0x5
 708 00fc 40       		.byte	0x40
 709 00fd CA000000 		.4byte	0xca
 710 0101 03       		.uleb128 0x3
 711 0102 E8020000 		.4byte	.LASF23
 712 0106 05       		.byte	0x5
 713 0107 41       		.byte	0x41
 714 0108 BF000000 		.4byte	0xbf
 715 010c 03       		.uleb128 0x3
 716 010d D3010000 		.4byte	.LASF24
 717 0111 05       		.byte	0x5
 718 0112 45       		.byte	0x45
 719 0113 BF000000 		.4byte	0xbf
 720 0117 03       		.uleb128 0x3
 721 0118 70000000 		.4byte	.LASF25
 722 011c 06       		.byte	0x6
 723 011d 35       		.byte	0x35
 724 011e B4000000 		.4byte	0xb4
 725 0122 03       		.uleb128 0x3
 726 0123 FD010000 		.4byte	.LASF26
 727 0127 06       		.byte	0x6
 728 0128 3F       		.byte	0x3f
 729 0129 2D010000 		.4byte	0x12d
ARM GAS  /tmp/cc6tjkN8.s 			page 29


 730 012d 05       		.uleb128 0x5
 731 012e B1020000 		.4byte	.LASF41
 732 0132 30       		.byte	0x30
 733 0133 07       		.byte	0x7
 734 0134 C2       		.byte	0xc2
 735 0135 DA010000 		.4byte	0x1da
 736 0139 06       		.uleb128 0x6
 737 013a 56040000 		.4byte	.LASF27
 738 013e 07       		.byte	0x7
 739 013f C3       		.byte	0xc3
 740 0140 E5010000 		.4byte	0x1e5
 741 0144 00       		.byte	0
 742 0145 06       		.uleb128 0x6
 743 0146 81040000 		.4byte	.LASF28
 744 014a 07       		.byte	0x7
 745 014b C5       		.byte	0xc5
 746 014c E5010000 		.4byte	0x1e5
 747 0150 04       		.byte	0x4
 748 0151 06       		.uleb128 0x6
 749 0152 60000000 		.4byte	.LASF29
 750 0156 07       		.byte	0x7
 751 0157 C7       		.byte	0xc7
 752 0158 F6000000 		.4byte	0xf6
 753 015c 08       		.byte	0x8
 754 015d 06       		.uleb128 0x6
 755 015e 66040000 		.4byte	.LASF30
 756 0162 07       		.byte	0x7
 757 0163 C8       		.byte	0xc8
 758 0164 85050000 		.4byte	0x585
 759 0168 0C       		.byte	0xc
 760 0169 06       		.uleb128 0x6
 761 016a DE010000 		.4byte	.LASF31
 762 016e 07       		.byte	0x7
 763 016f CA       		.byte	0xca
 764 0170 E5010000 		.4byte	0x1e5
 765 0174 10       		.byte	0x10
 766 0175 06       		.uleb128 0x6
 767 0176 8F020000 		.4byte	.LASF32
 768 017a 07       		.byte	0x7
 769 017b CB       		.byte	0xcb
 770 017c E5010000 		.4byte	0x1e5
 771 0180 14       		.byte	0x14
 772 0181 06       		.uleb128 0x6
 773 0182 47020000 		.4byte	.LASF33
 774 0186 07       		.byte	0x7
 775 0187 D2       		.byte	0xd2
 776 0188 CF060000 		.4byte	0x6cf
 777 018c 18       		.byte	0x18
 778 018d 06       		.uleb128 0x6
 779 018e 97020000 		.4byte	.LASF34
 780 0192 07       		.byte	0x7
 781 0193 DD       		.byte	0xdd
 782 0194 EB000000 		.4byte	0xeb
 783 0198 1C       		.byte	0x1c
 784 0199 06       		.uleb128 0x6
 785 019a F6020000 		.4byte	.LASF35
 786 019e 07       		.byte	0x7
ARM GAS  /tmp/cc6tjkN8.s 			page 30


 787 019f E1       		.byte	0xe1
 788 01a0 E0000000 		.4byte	0xe0
 789 01a4 1D       		.byte	0x1d
 790 01a5 07       		.uleb128 0x7
 791 01a6 705F7500 		.ascii	"p_u\000"
 792 01aa 07       		.byte	0x7
 793 01ab 3101     		.2byte	0x131
 794 01ad 16060000 		.4byte	0x616
 795 01b1 20       		.byte	0x20
 796 01b2 08       		.uleb128 0x8
 797 01b3 29000000 		.4byte	.LASF36
 798 01b7 07       		.byte	0x7
 799 01b8 3601     		.2byte	0x136
 800 01ba EB010000 		.4byte	0x1eb
 801 01be 24       		.byte	0x24
 802 01bf 08       		.uleb128 0x8
 803 01c0 A7020000 		.4byte	.LASF37
 804 01c4 07       		.byte	0x7
 805 01c5 4D01     		.2byte	0x14d
 806 01c7 C9060000 		.4byte	0x6c9
 807 01cb 28       		.byte	0x28
 808 01cc 08       		.uleb128 0x8
 809 01cd 0C040000 		.4byte	.LASF38
 810 01d1 07       		.byte	0x7
 811 01d2 5101     		.2byte	0x151
 812 01d4 F6000000 		.4byte	0xf6
 813 01d8 2C       		.byte	0x2c
 814 01d9 00       		.byte	0
 815 01da 03       		.uleb128 0x3
 816 01db 60020000 		.4byte	.LASF39
 817 01df 06       		.byte	0x6
 818 01e0 44       		.byte	0x44
 819 01e1 E5010000 		.4byte	0x1e5
 820 01e5 09       		.uleb128 0x9
 821 01e6 04       		.byte	0x4
 822 01e7 22010000 		.4byte	0x122
 823 01eb 03       		.uleb128 0x3
 824 01ec 97000000 		.4byte	.LASF40
 825 01f0 06       		.byte	0x6
 826 01f1 49       		.byte	0x49
 827 01f2 F6010000 		.4byte	0x1f6
 828 01f6 05       		.uleb128 0x5
 829 01f7 00000000 		.4byte	.LASF42
 830 01fb 04       		.byte	0x4
 831 01fc 07       		.byte	0x7
 832 01fd B0       		.byte	0xb0
 833 01fe 0F020000 		.4byte	0x20f
 834 0202 06       		.uleb128 0x6
 835 0203 56040000 		.4byte	.LASF27
 836 0207 07       		.byte	0x7
 837 0208 B1       		.byte	0xb1
 838 0209 E5010000 		.4byte	0x1e5
 839 020d 00       		.byte	0
 840 020e 00       		.byte	0
 841 020f 03       		.uleb128 0x3
 842 0210 10000000 		.4byte	.LASF43
 843 0214 06       		.byte	0x6
ARM GAS  /tmp/cc6tjkN8.s 			page 31


 844 0215 50       		.byte	0x50
 845 0216 1A020000 		.4byte	0x21a
 846 021a 05       		.uleb128 0x5
 847 021b E0000000 		.4byte	.LASF44
 848 021f 08       		.byte	0x8
 849 0220 07       		.byte	0x7
 850 0221 B7       		.byte	0xb7
 851 0222 3F020000 		.4byte	0x23f
 852 0226 06       		.uleb128 0x6
 853 0227 56040000 		.4byte	.LASF27
 854 022b 07       		.byte	0x7
 855 022c B8       		.byte	0xb8
 856 022d E5010000 		.4byte	0x1e5
 857 0231 00       		.byte	0
 858 0232 06       		.uleb128 0x6
 859 0233 81040000 		.4byte	.LASF28
 860 0237 07       		.byte	0x7
 861 0238 B9       		.byte	0xb9
 862 0239 E5010000 		.4byte	0x1e5
 863 023d 04       		.byte	0x4
 864 023e 00       		.byte	0
 865 023f 03       		.uleb128 0x3
 866 0240 B0040000 		.4byte	.LASF45
 867 0244 06       		.byte	0x6
 868 0245 57       		.byte	0x57
 869 0246 4A020000 		.4byte	0x24a
 870 024a 0A       		.uleb128 0xa
 871 024b C3000000 		.4byte	.LASF46
 872 024f 1C       		.byte	0x1c
 873 0250 07       		.byte	0x7
 874 0251 9001     		.2byte	0x190
 875 0253 A6020000 		.4byte	0x2a6
 876 0257 08       		.uleb128 0x8
 877 0258 D8020000 		.4byte	.LASF47
 878 025c 07       		.byte	0x7
 879 025d 9101     		.2byte	0x191
 880 025f 0F020000 		.4byte	0x20f
 881 0263 00       		.byte	0
 882 0264 08       		.uleb128 0x8
 883 0265 75010000 		.4byte	.LASF48
 884 0269 07       		.byte	0x7
 885 026a 9201     		.2byte	0x192
 886 026c F6000000 		.4byte	0xf6
 887 0270 08       		.byte	0x8
 888 0271 08       		.uleb128 0x8
 889 0272 4B050000 		.4byte	.LASF49
 890 0276 07       		.byte	0x7
 891 0277 9401     		.2byte	0x194
 892 0279 85050000 		.4byte	0x585
 893 027d 0C       		.byte	0xc
 894 027e 08       		.uleb128 0x8
 895 027f E0020000 		.4byte	.LASF50
 896 0283 07       		.byte	0x7
 897 0284 9701     		.2byte	0x197
 898 0286 E5010000 		.4byte	0x1e5
 899 028a 10       		.byte	0x10
 900 028b 08       		.uleb128 0x8
ARM GAS  /tmp/cc6tjkN8.s 			page 32


 901 028c C4030000 		.4byte	.LASF51
 902 0290 07       		.byte	0x7
 903 0291 9801     		.2byte	0x198
 904 0293 E5010000 		.4byte	0x1e5
 905 0297 14       		.byte	0x14
 906 0298 08       		.uleb128 0x8
 907 0299 21040000 		.4byte	.LASF52
 908 029d 07       		.byte	0x7
 909 029e 9B01     		.2byte	0x19b
 910 02a0 E5010000 		.4byte	0x1e5
 911 02a4 18       		.byte	0x18
 912 02a5 00       		.byte	0
 913 02a6 03       		.uleb128 0x3
 914 02a7 F1000000 		.4byte	.LASF53
 915 02ab 06       		.byte	0x6
 916 02ac 5C       		.byte	0x5c
 917 02ad B1020000 		.4byte	0x2b1
 918 02b1 09       		.uleb128 0x9
 919 02b2 04       		.byte	0x4
 920 02b3 B7020000 		.4byte	0x2b7
 921 02b7 0B       		.uleb128 0xb
 922 02b8 C2020000 		.4byte	0x2c2
 923 02bc 0C       		.uleb128 0xc
 924 02bd C2020000 		.4byte	0x2c2
 925 02c1 00       		.byte	0
 926 02c2 0D       		.uleb128 0xd
 927 02c3 04       		.byte	0x4
 928 02c4 03       		.uleb128 0x3
 929 02c5 FE020000 		.4byte	.LASF54
 930 02c9 06       		.byte	0x6
 931 02ca 61       		.byte	0x61
 932 02cb CF020000 		.4byte	0x2cf
 933 02cf 0A       		.uleb128 0xa
 934 02d0 98010000 		.4byte	.LASF55
 935 02d4 14       		.byte	0x14
 936 02d5 07       		.byte	0x7
 937 02d6 6B01     		.2byte	0x16b
 938 02d8 1E030000 		.4byte	0x31e
 939 02dc 08       		.uleb128 0x8
 940 02dd 0B050000 		.4byte	.LASF56
 941 02e1 07       		.byte	0x7
 942 02e2 6C01     		.2byte	0x16c
 943 02e4 E1060000 		.4byte	0x6e1
 944 02e8 00       		.byte	0
 945 02e9 08       		.uleb128 0x8
 946 02ea 64050000 		.4byte	.LASF57
 947 02ee 07       		.byte	0x7
 948 02ef 6D01     		.2byte	0x16d
 949 02f1 E1060000 		.4byte	0x6e1
 950 02f5 04       		.byte	0x4
 951 02f6 08       		.uleb128 0x8
 952 02f7 57020000 		.4byte	.LASF58
 953 02fb 07       		.byte	0x7
 954 02fc 6E01     		.2byte	0x16e
 955 02fe 17010000 		.4byte	0x117
 956 0302 08       		.byte	0x8
 957 0303 08       		.uleb128 0x8
ARM GAS  /tmp/cc6tjkN8.s 			page 33


 958 0304 5C050000 		.4byte	.LASF59
 959 0308 07       		.byte	0x7
 960 0309 6F01     		.2byte	0x16f
 961 030b A6020000 		.4byte	0x2a6
 962 030f 0C       		.byte	0xc
 963 0310 08       		.uleb128 0x8
 964 0311 7C010000 		.4byte	.LASF60
 965 0315 07       		.byte	0x7
 966 0316 7101     		.2byte	0x171
 967 0318 C2020000 		.4byte	0x2c2
 968 031c 10       		.byte	0x10
 969 031d 00       		.byte	0
 970 031e 03       		.uleb128 0x3
 971 031f ED040000 		.4byte	.LASF61
 972 0323 06       		.byte	0x6
 973 0324 66       		.byte	0x66
 974 0325 29030000 		.4byte	0x329
 975 0329 0A       		.uleb128 0xa
 976 032a E6010000 		.4byte	.LASF62
 977 032e 0C       		.byte	0xc
 978 032f 07       		.byte	0x7
 979 0330 7B01     		.2byte	0x17b
 980 0332 6B030000 		.4byte	0x36b
 981 0336 08       		.uleb128 0x8
 982 0337 0B050000 		.4byte	.LASF56
 983 033b 07       		.byte	0x7
 984 033c 7C01     		.2byte	0x17c
 985 033e E1060000 		.4byte	0x6e1
 986 0342 00       		.byte	0
 987 0343 08       		.uleb128 0x8
 988 0344 64050000 		.4byte	.LASF57
 989 0348 07       		.byte	0x7
 990 0349 7E01     		.2byte	0x17e
 991 034b E1060000 		.4byte	0x6e1
 992 034f 04       		.byte	0x4
 993 0350 08       		.uleb128 0x8
 994 0351 57020000 		.4byte	.LASF58
 995 0355 07       		.byte	0x7
 996 0356 8001     		.2byte	0x180
 997 0358 17010000 		.4byte	0x117
 998 035c 08       		.byte	0x8
 999 035d 08       		.uleb128 0x8
 1000 035e 73020000 		.4byte	.LASF63
 1001 0362 07       		.byte	0x7
 1002 0363 8801     		.2byte	0x188
 1003 0365 17010000 		.4byte	0x117
 1004 0369 0A       		.byte	0xa
 1005 036a 00       		.byte	0
 1006 036b 03       		.uleb128 0x3
 1007 036c BB020000 		.4byte	.LASF64
 1008 0370 06       		.byte	0x6
 1009 0371 6B       		.byte	0x6b
 1010 0372 76030000 		.4byte	0x376
 1011 0376 0A       		.uleb128 0xa
 1012 0377 39010000 		.4byte	.LASF65
 1013 037b 04       		.byte	0x4
 1014 037c 07       		.byte	0x7
ARM GAS  /tmp/cc6tjkN8.s 			page 34


 1015 037d A201     		.2byte	0x1a2
 1016 037f 91030000 		.4byte	0x391
 1017 0383 08       		.uleb128 0x8
 1018 0384 E0030000 		.4byte	.LASF66
 1019 0388 07       		.byte	0x7
 1020 0389 AA01     		.2byte	0x1aa
 1021 038b E7060000 		.4byte	0x6e7
 1022 038f 00       		.byte	0
 1023 0390 00       		.byte	0
 1024 0391 03       		.uleb128 0x3
 1025 0392 13050000 		.4byte	.LASF67
 1026 0396 06       		.byte	0x6
 1027 0397 70       		.byte	0x70
 1028 0398 9C030000 		.4byte	0x39c
 1029 039c 0E       		.uleb128 0xe
 1030 039d 4C040000 		.4byte	.LASF68
 1031 03a1 2801     		.2byte	0x128
 1032 03a3 07       		.byte	0x7
 1033 03a4 C201     		.2byte	0x1c2
 1034 03a6 EC030000 		.4byte	0x3ec
 1035 03aa 08       		.uleb128 0x8
 1036 03ab 71040000 		.4byte	.LASF69
 1037 03af 07       		.byte	0x7
 1038 03b0 C601     		.2byte	0x1c6
 1039 03b2 3F020000 		.4byte	0x23f
 1040 03b6 00       		.byte	0
 1041 03b7 08       		.uleb128 0x8
 1042 03b8 BC000000 		.4byte	.LASF70
 1043 03bc 07       		.byte	0x7
 1044 03bd CA01     		.2byte	0x1ca
 1045 03bf 1E030000 		.4byte	0x31e
 1046 03c3 1C       		.byte	0x1c
 1047 03c4 07       		.uleb128 0x7
 1048 03c5 64626700 		.ascii	"dbg\000"
 1049 03c9 07       		.byte	0x7
 1050 03ca CE01     		.2byte	0x1ce
 1051 03cc 6B030000 		.4byte	0x36b
 1052 03d0 28       		.byte	0x28
 1053 03d1 08       		.uleb128 0x8
 1054 03d2 F8030000 		.4byte	.LASF71
 1055 03d6 07       		.byte	0x7
 1056 03d7 D201     		.2byte	0x1d2
 1057 03d9 22010000 		.4byte	0x122
 1058 03dd 2C       		.byte	0x2c
 1059 03de 08       		.uleb128 0x8
 1060 03df D1000000 		.4byte	.LASF72
 1061 03e3 07       		.byte	0x7
 1062 03e4 E301     		.2byte	0x1e3
 1063 03e6 EC060000 		.4byte	0x6ec
 1064 03ea 60       		.byte	0x60
 1065 03eb 00       		.byte	0
 1066 03ec 04       		.uleb128 0x4
 1067 03ed 04       		.byte	0x4
 1068 03ee 07       		.byte	0x7
 1069 03ef 88040000 		.4byte	.LASF73
 1070 03f3 0F       		.uleb128 0xf
 1071 03f4 CA000000 		.4byte	0xca
ARM GAS  /tmp/cc6tjkN8.s 			page 35


 1072 03f8 10       		.uleb128 0x10
 1073 03f9 24       		.byte	0x24
 1074 03fa 08       		.byte	0x8
 1075 03fb D6       		.byte	0xd6
 1076 03fc 6A040000 		.4byte	0x46a
 1077 0400 11       		.uleb128 0x11
 1078 0401 41435200 		.ascii	"ACR\000"
 1079 0405 08       		.byte	0x8
 1080 0406 D8       		.byte	0xd8
 1081 0407 F3030000 		.4byte	0x3f3
 1082 040b 00       		.byte	0
 1083 040c 06       		.uleb128 0x6
 1084 040d D9010000 		.4byte	.LASF74
 1085 0411 08       		.byte	0x8
 1086 0412 D9       		.byte	0xd9
 1087 0413 F3030000 		.4byte	0x3f3
 1088 0417 04       		.byte	0x4
 1089 0418 06       		.uleb128 0x6
 1090 0419 C0010000 		.4byte	.LASF75
 1091 041d 08       		.byte	0x8
 1092 041e DA       		.byte	0xda
 1093 041f F3030000 		.4byte	0x3f3
 1094 0423 08       		.byte	0x8
 1095 0424 11       		.uleb128 0x11
 1096 0425 535200   		.ascii	"SR\000"
 1097 0428 08       		.byte	0x8
 1098 0429 DB       		.byte	0xdb
 1099 042a F3030000 		.4byte	0x3f3
 1100 042e 0C       		.byte	0xc
 1101 042f 11       		.uleb128 0x11
 1102 0430 435200   		.ascii	"CR\000"
 1103 0433 08       		.byte	0x8
 1104 0434 DC       		.byte	0xdc
 1105 0435 F3030000 		.4byte	0x3f3
 1106 0439 10       		.byte	0x10
 1107 043a 11       		.uleb128 0x11
 1108 043b 415200   		.ascii	"AR\000"
 1109 043e 08       		.byte	0x8
 1110 043f DD       		.byte	0xdd
 1111 0440 F3030000 		.4byte	0x3f3
 1112 0444 14       		.byte	0x14
 1113 0445 06       		.uleb128 0x6
 1114 0446 20000000 		.4byte	.LASF76
 1115 044a 08       		.byte	0x8
 1116 044b DE       		.byte	0xde
 1117 044c F3030000 		.4byte	0x3f3
 1118 0450 18       		.byte	0x18
 1119 0451 11       		.uleb128 0x11
 1120 0452 4F425200 		.ascii	"OBR\000"
 1121 0456 08       		.byte	0x8
 1122 0457 DF       		.byte	0xdf
 1123 0458 F3030000 		.4byte	0x3f3
 1124 045c 1C       		.byte	0x1c
 1125 045d 06       		.uleb128 0x6
 1126 045e 06020000 		.4byte	.LASF77
 1127 0462 08       		.byte	0x8
 1128 0463 E0       		.byte	0xe0
ARM GAS  /tmp/cc6tjkN8.s 			page 36


 1129 0464 F3030000 		.4byte	0x3f3
 1130 0468 20       		.byte	0x20
 1131 0469 00       		.byte	0
 1132 046a 03       		.uleb128 0x3
 1133 046b 19020000 		.4byte	.LASF78
 1134 046f 08       		.byte	0x8
 1135 0470 E1       		.byte	0xe1
 1136 0471 F8030000 		.4byte	0x3f8
 1137 0475 12       		.uleb128 0x12
 1138 0476 08       		.byte	0x8
 1139 0477 08       		.byte	0x8
 1140 0478 3301     		.2byte	0x133
 1141 047a 98040000 		.4byte	0x498
 1142 047e 07       		.uleb128 0x7
 1143 047f 435200   		.ascii	"CR\000"
 1144 0482 08       		.byte	0x8
 1145 0483 3501     		.2byte	0x135
 1146 0485 F3030000 		.4byte	0x3f3
 1147 0489 00       		.byte	0
 1148 048a 07       		.uleb128 0x7
 1149 048b 43535200 		.ascii	"CSR\000"
 1150 048f 08       		.byte	0x8
 1151 0490 3601     		.2byte	0x136
 1152 0492 F3030000 		.4byte	0x3f3
 1153 0496 04       		.byte	0x4
 1154 0497 00       		.byte	0
 1155 0498 13       		.uleb128 0x13
 1156 0499 2B040000 		.4byte	.LASF79
 1157 049d 08       		.byte	0x8
 1158 049e 3701     		.2byte	0x137
 1159 04a0 75040000 		.4byte	0x475
 1160 04a4 12       		.uleb128 0x12
 1161 04a5 38       		.byte	0x38
 1162 04a6 08       		.byte	0x8
 1163 04a7 3D01     		.2byte	0x13d
 1164 04a9 63050000 		.4byte	0x563
 1165 04ad 07       		.uleb128 0x7
 1166 04ae 435200   		.ascii	"CR\000"
 1167 04b1 08       		.byte	0x8
 1168 04b2 3F01     		.2byte	0x13f
 1169 04b4 F3030000 		.4byte	0x3f3
 1170 04b8 00       		.byte	0
 1171 04b9 08       		.uleb128 0x8
 1172 04ba 6C040000 		.4byte	.LASF80
 1173 04be 08       		.byte	0x8
 1174 04bf 4001     		.2byte	0x140
 1175 04c1 F3030000 		.4byte	0x3f3
 1176 04c5 04       		.byte	0x4
 1177 04c6 07       		.uleb128 0x7
 1178 04c7 43495200 		.ascii	"CIR\000"
 1179 04cb 08       		.byte	0x8
 1180 04cc 4101     		.2byte	0x141
 1181 04ce F3030000 		.4byte	0x3f3
 1182 04d2 08       		.byte	0x8
 1183 04d3 08       		.uleb128 0x8
 1184 04d4 67000000 		.4byte	.LASF81
 1185 04d8 08       		.byte	0x8
ARM GAS  /tmp/cc6tjkN8.s 			page 37


 1186 04d9 4201     		.2byte	0x142
 1187 04db F3030000 		.4byte	0x3f3
 1188 04df 0C       		.byte	0xc
 1189 04e0 08       		.uleb128 0x8
 1190 04e1 4E020000 		.4byte	.LASF82
 1191 04e5 08       		.byte	0x8
 1192 04e6 4301     		.2byte	0x143
 1193 04e8 F3030000 		.4byte	0x3f3
 1194 04ec 10       		.byte	0x10
 1195 04ed 08       		.uleb128 0x8
 1196 04ee 88020000 		.4byte	.LASF83
 1197 04f2 08       		.byte	0x8
 1198 04f3 4401     		.2byte	0x144
 1199 04f5 F3030000 		.4byte	0x3f3
 1200 04f9 14       		.byte	0x14
 1201 04fa 08       		.uleb128 0x8
 1202 04fb D8030000 		.4byte	.LASF84
 1203 04ff 08       		.byte	0x8
 1204 0500 4501     		.2byte	0x145
 1205 0502 F3030000 		.4byte	0x3f3
 1206 0506 18       		.byte	0x18
 1207 0507 08       		.uleb128 0x8
 1208 0508 33000000 		.4byte	.LASF85
 1209 050c 08       		.byte	0x8
 1210 050d 4601     		.2byte	0x146
 1211 050f F3030000 		.4byte	0x3f3
 1212 0513 1C       		.byte	0x1c
 1213 0514 08       		.uleb128 0x8
 1214 0515 A6000000 		.4byte	.LASF86
 1215 0519 08       		.byte	0x8
 1216 051a 4701     		.2byte	0x147
 1217 051c F3030000 		.4byte	0x3f3
 1218 0520 20       		.byte	0x20
 1219 0521 07       		.uleb128 0x7
 1220 0522 43535200 		.ascii	"CSR\000"
 1221 0526 08       		.byte	0x8
 1222 0527 4801     		.2byte	0x148
 1223 0529 F3030000 		.4byte	0x3f3
 1224 052d 24       		.byte	0x24
 1225 052e 08       		.uleb128 0x8
 1226 052f 03050000 		.4byte	.LASF87
 1227 0533 08       		.byte	0x8
 1228 0534 4901     		.2byte	0x149
 1229 0536 F3030000 		.4byte	0x3f3
 1230 053a 28       		.byte	0x28
 1231 053b 08       		.uleb128 0x8
 1232 053c CC030000 		.4byte	.LASF88
 1233 0540 08       		.byte	0x8
 1234 0541 4A01     		.2byte	0x14a
 1235 0543 F3030000 		.4byte	0x3f3
 1236 0547 2C       		.byte	0x2c
 1237 0548 08       		.uleb128 0x8
 1238 0549 D2030000 		.4byte	.LASF89
 1239 054d 08       		.byte	0x8
 1240 054e 4B01     		.2byte	0x14b
 1241 0550 F3030000 		.4byte	0x3f3
 1242 0554 30       		.byte	0x30
ARM GAS  /tmp/cc6tjkN8.s 			page 38


 1243 0555 07       		.uleb128 0x7
 1244 0556 43523200 		.ascii	"CR2\000"
 1245 055a 08       		.byte	0x8
 1246 055b 4C01     		.2byte	0x14c
 1247 055d F3030000 		.4byte	0x3f3
 1248 0561 34       		.byte	0x34
 1249 0562 00       		.byte	0
 1250 0563 13       		.uleb128 0x13
 1251 0564 27020000 		.4byte	.LASF90
 1252 0568 08       		.byte	0x8
 1253 0569 4D01     		.2byte	0x14d
 1254 056b A4040000 		.4byte	0x4a4
 1255 056f 03       		.uleb128 0x3
 1256 0570 57000000 		.4byte	.LASF91
 1257 0574 09       		.byte	0x9
 1258 0575 65       		.byte	0x65
 1259 0576 C2020000 		.4byte	0x2c2
 1260 057a 03       		.uleb128 0x3
 1261 057b 51050000 		.4byte	.LASF92
 1262 057f 09       		.byte	0x9
 1263 0580 6D       		.byte	0x6d
 1264 0581 D5000000 		.4byte	0xd5
 1265 0585 05       		.uleb128 0x5
 1266 0586 EE020000 		.4byte	.LASF93
 1267 058a 04       		.byte	0x4
 1268 058b 09       		.byte	0x9
 1269 058c 89       		.byte	0x89
 1270 058d 9E050000 		.4byte	0x59e
 1271 0591 11       		.uleb128 0x11
 1272 0592 72313300 		.ascii	"r13\000"
 1273 0596 09       		.byte	0x9
 1274 0597 8A       		.byte	0x8a
 1275 0598 10060000 		.4byte	0x610
 1276 059c 00       		.byte	0
 1277 059d 00       		.byte	0
 1278 059e 05       		.uleb128 0x5
 1279 059f 40040000 		.4byte	.LASF94
 1280 05a3 24       		.byte	0x24
 1281 05a4 0A       		.byte	0xa
 1282 05a5 A4       		.byte	0xa4
 1283 05a6 10060000 		.4byte	0x610
 1284 05aa 11       		.uleb128 0x11
 1285 05ab 723800   		.ascii	"r8\000"
 1286 05ae 0A       		.byte	0xa
 1287 05af A5       		.byte	0xa5
 1288 05b0 6F050000 		.4byte	0x56f
 1289 05b4 00       		.byte	0
 1290 05b5 11       		.uleb128 0x11
 1291 05b6 723900   		.ascii	"r9\000"
 1292 05b9 0A       		.byte	0xa
 1293 05ba A6       		.byte	0xa6
 1294 05bb 6F050000 		.4byte	0x56f
 1295 05bf 04       		.byte	0x4
 1296 05c0 11       		.uleb128 0x11
 1297 05c1 72313000 		.ascii	"r10\000"
 1298 05c5 0A       		.byte	0xa
 1299 05c6 A7       		.byte	0xa7
ARM GAS  /tmp/cc6tjkN8.s 			page 39


 1300 05c7 6F050000 		.4byte	0x56f
 1301 05cb 08       		.byte	0x8
 1302 05cc 11       		.uleb128 0x11
 1303 05cd 72313100 		.ascii	"r11\000"
 1304 05d1 0A       		.byte	0xa
 1305 05d2 A8       		.byte	0xa8
 1306 05d3 6F050000 		.4byte	0x56f
 1307 05d7 0C       		.byte	0xc
 1308 05d8 11       		.uleb128 0x11
 1309 05d9 723400   		.ascii	"r4\000"
 1310 05dc 0A       		.byte	0xa
 1311 05dd A9       		.byte	0xa9
 1312 05de 6F050000 		.4byte	0x56f
 1313 05e2 10       		.byte	0x10
 1314 05e3 11       		.uleb128 0x11
 1315 05e4 723500   		.ascii	"r5\000"
 1316 05e7 0A       		.byte	0xa
 1317 05e8 AA       		.byte	0xaa
 1318 05e9 6F050000 		.4byte	0x56f
 1319 05ed 14       		.byte	0x14
 1320 05ee 11       		.uleb128 0x11
 1321 05ef 723600   		.ascii	"r6\000"
 1322 05f2 0A       		.byte	0xa
 1323 05f3 AB       		.byte	0xab
 1324 05f4 6F050000 		.4byte	0x56f
 1325 05f8 18       		.byte	0x18
 1326 05f9 11       		.uleb128 0x11
 1327 05fa 723700   		.ascii	"r7\000"
 1328 05fd 0A       		.byte	0xa
 1329 05fe AC       		.byte	0xac
 1330 05ff 6F050000 		.4byte	0x56f
 1331 0603 1C       		.byte	0x1c
 1332 0604 11       		.uleb128 0x11
 1333 0605 6C7200   		.ascii	"lr\000"
 1334 0608 0A       		.byte	0xa
 1335 0609 AD       		.byte	0xad
 1336 060a 6F050000 		.4byte	0x56f
 1337 060e 20       		.byte	0x20
 1338 060f 00       		.byte	0
 1339 0610 09       		.uleb128 0x9
 1340 0611 04       		.byte	0x4
 1341 0612 9E050000 		.4byte	0x59e
 1342 0616 14       		.uleb128 0x14
 1343 0617 04       		.byte	0x4
 1344 0618 07       		.byte	0x7
 1345 0619 FA       		.byte	0xfa
 1346 061a 67060000 		.4byte	0x667
 1347 061e 15       		.uleb128 0x15
 1348 061f 12020000 		.4byte	.LASF95
 1349 0623 07       		.byte	0x7
 1350 0624 0101     		.2byte	0x101
 1351 0626 01010000 		.4byte	0x101
 1352 062a 15       		.uleb128 0x15
 1353 062b 7D050000 		.4byte	.LASF96
 1354 062f 07       		.byte	0x7
 1355 0630 0801     		.2byte	0x108
 1356 0632 01010000 		.4byte	0x101
ARM GAS  /tmp/cc6tjkN8.s 			page 40


 1357 0636 15       		.uleb128 0x15
 1358 0637 B5000000 		.4byte	.LASF97
 1359 063b 07       		.byte	0x7
 1360 063c 0F01     		.2byte	0x10f
 1361 063e C2020000 		.4byte	0x2c2
 1362 0642 15       		.uleb128 0x15
 1363 0643 1F050000 		.4byte	.LASF98
 1364 0647 07       		.byte	0x7
 1365 0648 1601     		.2byte	0x116
 1366 064a 67060000 		.4byte	0x667
 1367 064e 15       		.uleb128 0x15
 1368 064f C5040000 		.4byte	.LASF99
 1369 0653 07       		.byte	0x7
 1370 0654 1E01     		.2byte	0x11e
 1371 0656 92060000 		.4byte	0x692
 1372 065a 15       		.uleb128 0x15
 1373 065b 4B000000 		.4byte	.LASF100
 1374 065f 07       		.byte	0x7
 1375 0660 2701     		.2byte	0x127
 1376 0662 C9060000 		.4byte	0x6c9
 1377 0666 00       		.byte	0
 1378 0667 09       		.uleb128 0x9
 1379 0668 04       		.byte	0x4
 1380 0669 DA010000 		.4byte	0x1da
 1381 066d 05       		.uleb128 0x5
 1382 066e 83010000 		.4byte	.LASF101
 1383 0672 0C       		.byte	0xc
 1384 0673 0B       		.byte	0xb
 1385 0674 34       		.byte	0x34
 1386 0675 92060000 		.4byte	0x692
 1387 0679 06       		.uleb128 0x6
 1388 067a 82000000 		.4byte	.LASF102
 1389 067e 0B       		.byte	0xb
 1390 067f 35       		.byte	0x35
 1391 0680 0F020000 		.4byte	0x20f
 1392 0684 00       		.byte	0
 1393 0685 06       		.uleb128 0x6
 1394 0686 FA000000 		.4byte	.LASF103
 1395 068a 0B       		.byte	0xb
 1396 068b 37       		.byte	0x37
 1397 068c 0C010000 		.4byte	0x10c
 1398 0690 08       		.byte	0x8
 1399 0691 00       		.byte	0
 1400 0692 09       		.uleb128 0x9
 1401 0693 04       		.byte	0x4
 1402 0694 6D060000 		.4byte	0x66d
 1403 0698 05       		.uleb128 0x5
 1404 0699 33020000 		.4byte	.LASF104
 1405 069d 10       		.byte	0x10
 1406 069e 0C       		.byte	0xc
 1407 069f 39       		.byte	0x39
 1408 06a0 C9060000 		.4byte	0x6c9
 1409 06a4 06       		.uleb128 0x6
 1410 06a5 49010000 		.4byte	.LASF105
 1411 06a9 0C       		.byte	0xc
 1412 06aa 3A       		.byte	0x3a
 1413 06ab 0F020000 		.4byte	0x20f
ARM GAS  /tmp/cc6tjkN8.s 			page 41


 1414 06af 00       		.byte	0
 1415 06b0 06       		.uleb128 0x6
 1416 06b1 7A000000 		.4byte	.LASF106
 1417 06b5 0C       		.byte	0xc
 1418 06b6 3C       		.byte	0x3c
 1419 06b7 E5010000 		.4byte	0x1e5
 1420 06bb 08       		.byte	0x8
 1421 06bc 06       		.uleb128 0x6
 1422 06bd 25050000 		.4byte	.LASF107
 1423 06c1 0C       		.byte	0xc
 1424 06c2 3E       		.byte	0x3e
 1425 06c3 07070000 		.4byte	0x707
 1426 06c7 0C       		.byte	0xc
 1427 06c8 00       		.byte	0
 1428 06c9 09       		.uleb128 0x9
 1429 06ca 04       		.byte	0x4
 1430 06cb 98060000 		.4byte	0x698
 1431 06cf 09       		.uleb128 0x9
 1432 06d0 04       		.byte	0x4
 1433 06d1 D5060000 		.4byte	0x6d5
 1434 06d5 16       		.uleb128 0x16
 1435 06d6 DA060000 		.4byte	0x6da
 1436 06da 04       		.uleb128 0x4
 1437 06db 01       		.byte	0x1
 1438 06dc 08       		.byte	0x8
 1439 06dd 52000000 		.4byte	.LASF108
 1440 06e1 09       		.uleb128 0x9
 1441 06e2 04       		.byte	0x4
 1442 06e3 C4020000 		.4byte	0x2c4
 1443 06e7 0F       		.uleb128 0xf
 1444 06e8 CF060000 		.4byte	0x6cf
 1445 06ec 17       		.uleb128 0x17
 1446 06ed 7A050000 		.4byte	0x57a
 1447 06f1 FC060000 		.4byte	0x6fc
 1448 06f5 18       		.uleb128 0x18
 1449 06f6 EC030000 		.4byte	0x3ec
 1450 06fa 18       		.byte	0x18
 1451 06fb 00       		.byte	0
 1452 06fc 03       		.uleb128 0x3
 1453 06fd CC040000 		.4byte	.LASF109
 1454 0701 0C       		.byte	0xc
 1455 0702 34       		.byte	0x34
 1456 0703 98060000 		.4byte	0x698
 1457 0707 09       		.uleb128 0x9
 1458 0708 04       		.byte	0x4
 1459 0709 FC060000 		.4byte	0x6fc
 1460 070d 04       		.uleb128 0x4
 1461 070e 01       		.byte	0x1
 1462 070f 02       		.byte	0x2
 1463 0710 EA030000 		.4byte	.LASF110
 1464 0714 19       		.uleb128 0x19
 1465 0715 51010000 		.4byte	.LASF116
 1466 0719 01       		.byte	0x1
 1467 071a 36       		.byte	0x36
 1468 071b 00000000 		.4byte	.LFB149
 1469 071f 60000000 		.4byte	.LFE149-.LFB149
 1470 0723 01       		.uleb128 0x1
ARM GAS  /tmp/cc6tjkN8.s 			page 42


 1471 0724 9C       		.byte	0x9c
 1472 0725 1A       		.uleb128 0x1a
 1473 0726 A3040000 		.4byte	.LASF111
 1474 072a 01       		.byte	0x1
 1475 072b E0       		.byte	0xe0
 1476 072c 00000000 		.4byte	.LFB150
 1477 0730 54000000 		.4byte	.LFE150-.LFB150
 1478 0734 01       		.uleb128 0x1
 1479 0735 9C       		.byte	0x9c
 1480 0736 1B       		.uleb128 0x1b
 1481 0737 6C050000 		.4byte	.LASF112
 1482 073b 01       		.byte	0x1
 1483 073c FE       		.byte	0xfe
 1484 073d 00000000 		.4byte	.LFB151
 1485 0741 E0000000 		.4byte	.LFE151-.LFB151
 1486 0745 01       		.uleb128 0x1
 1487 0746 9C       		.byte	0x9c
 1488 0747 1C       		.uleb128 0x1c
 1489 0748 3B000000 		.4byte	.LASF113
 1490 074c 01       		.byte	0x1
 1491 074d 27       		.byte	0x27
 1492 074e CA000000 		.4byte	0xca
 1493 0752 05       		.uleb128 0x5
 1494 0753 03       		.byte	0x3
 1495 0754 00000000 		.4byte	SystemCoreClock
 1496 0758 1D       		.uleb128 0x1d
 1497 0759 636800   		.ascii	"ch\000"
 1498 075c 07       		.byte	0x7
 1499 075d 0902     		.2byte	0x209
 1500 075f 91030000 		.4byte	0x391
 1501 0763 00       		.byte	0
 1502              		.section	.debug_abbrev,"",%progbits
 1503              	.Ldebug_abbrev0:
 1504 0000 01       		.uleb128 0x1
 1505 0001 11       		.uleb128 0x11
 1506 0002 01       		.byte	0x1
 1507 0003 25       		.uleb128 0x25
 1508 0004 0E       		.uleb128 0xe
 1509 0005 13       		.uleb128 0x13
 1510 0006 0B       		.uleb128 0xb
 1511 0007 03       		.uleb128 0x3
 1512 0008 0E       		.uleb128 0xe
 1513 0009 55       		.uleb128 0x55
 1514 000a 17       		.uleb128 0x17
 1515 000b 11       		.uleb128 0x11
 1516 000c 01       		.uleb128 0x1
 1517 000d 10       		.uleb128 0x10
 1518 000e 17       		.uleb128 0x17
 1519 000f 00       		.byte	0
 1520 0010 00       		.byte	0
 1521 0011 02       		.uleb128 0x2
 1522 0012 24       		.uleb128 0x24
 1523 0013 00       		.byte	0
 1524 0014 0B       		.uleb128 0xb
 1525 0015 0B       		.uleb128 0xb
 1526 0016 3E       		.uleb128 0x3e
 1527 0017 0B       		.uleb128 0xb
ARM GAS  /tmp/cc6tjkN8.s 			page 43


 1528 0018 03       		.uleb128 0x3
 1529 0019 08       		.uleb128 0x8
 1530 001a 00       		.byte	0
 1531 001b 00       		.byte	0
 1532 001c 03       		.uleb128 0x3
 1533 001d 16       		.uleb128 0x16
 1534 001e 00       		.byte	0
 1535 001f 03       		.uleb128 0x3
 1536 0020 0E       		.uleb128 0xe
 1537 0021 3A       		.uleb128 0x3a
 1538 0022 0B       		.uleb128 0xb
 1539 0023 3B       		.uleb128 0x3b
 1540 0024 0B       		.uleb128 0xb
 1541 0025 49       		.uleb128 0x49
 1542 0026 13       		.uleb128 0x13
 1543 0027 00       		.byte	0
 1544 0028 00       		.byte	0
 1545 0029 04       		.uleb128 0x4
 1546 002a 24       		.uleb128 0x24
 1547 002b 00       		.byte	0
 1548 002c 0B       		.uleb128 0xb
 1549 002d 0B       		.uleb128 0xb
 1550 002e 3E       		.uleb128 0x3e
 1551 002f 0B       		.uleb128 0xb
 1552 0030 03       		.uleb128 0x3
 1553 0031 0E       		.uleb128 0xe
 1554 0032 00       		.byte	0
 1555 0033 00       		.byte	0
 1556 0034 05       		.uleb128 0x5
 1557 0035 13       		.uleb128 0x13
 1558 0036 01       		.byte	0x1
 1559 0037 03       		.uleb128 0x3
 1560 0038 0E       		.uleb128 0xe
 1561 0039 0B       		.uleb128 0xb
 1562 003a 0B       		.uleb128 0xb
 1563 003b 3A       		.uleb128 0x3a
 1564 003c 0B       		.uleb128 0xb
 1565 003d 3B       		.uleb128 0x3b
 1566 003e 0B       		.uleb128 0xb
 1567 003f 01       		.uleb128 0x1
 1568 0040 13       		.uleb128 0x13
 1569 0041 00       		.byte	0
 1570 0042 00       		.byte	0
 1571 0043 06       		.uleb128 0x6
 1572 0044 0D       		.uleb128 0xd
 1573 0045 00       		.byte	0
 1574 0046 03       		.uleb128 0x3
 1575 0047 0E       		.uleb128 0xe
 1576 0048 3A       		.uleb128 0x3a
 1577 0049 0B       		.uleb128 0xb
 1578 004a 3B       		.uleb128 0x3b
 1579 004b 0B       		.uleb128 0xb
 1580 004c 49       		.uleb128 0x49
 1581 004d 13       		.uleb128 0x13
 1582 004e 38       		.uleb128 0x38
 1583 004f 0B       		.uleb128 0xb
 1584 0050 00       		.byte	0
ARM GAS  /tmp/cc6tjkN8.s 			page 44


 1585 0051 00       		.byte	0
 1586 0052 07       		.uleb128 0x7
 1587 0053 0D       		.uleb128 0xd
 1588 0054 00       		.byte	0
 1589 0055 03       		.uleb128 0x3
 1590 0056 08       		.uleb128 0x8
 1591 0057 3A       		.uleb128 0x3a
 1592 0058 0B       		.uleb128 0xb
 1593 0059 3B       		.uleb128 0x3b
 1594 005a 05       		.uleb128 0x5
 1595 005b 49       		.uleb128 0x49
 1596 005c 13       		.uleb128 0x13
 1597 005d 38       		.uleb128 0x38
 1598 005e 0B       		.uleb128 0xb
 1599 005f 00       		.byte	0
 1600 0060 00       		.byte	0
 1601 0061 08       		.uleb128 0x8
 1602 0062 0D       		.uleb128 0xd
 1603 0063 00       		.byte	0
 1604 0064 03       		.uleb128 0x3
 1605 0065 0E       		.uleb128 0xe
 1606 0066 3A       		.uleb128 0x3a
 1607 0067 0B       		.uleb128 0xb
 1608 0068 3B       		.uleb128 0x3b
 1609 0069 05       		.uleb128 0x5
 1610 006a 49       		.uleb128 0x49
 1611 006b 13       		.uleb128 0x13
 1612 006c 38       		.uleb128 0x38
 1613 006d 0B       		.uleb128 0xb
 1614 006e 00       		.byte	0
 1615 006f 00       		.byte	0
 1616 0070 09       		.uleb128 0x9
 1617 0071 0F       		.uleb128 0xf
 1618 0072 00       		.byte	0
 1619 0073 0B       		.uleb128 0xb
 1620 0074 0B       		.uleb128 0xb
 1621 0075 49       		.uleb128 0x49
 1622 0076 13       		.uleb128 0x13
 1623 0077 00       		.byte	0
 1624 0078 00       		.byte	0
 1625 0079 0A       		.uleb128 0xa
 1626 007a 13       		.uleb128 0x13
 1627 007b 01       		.byte	0x1
 1628 007c 03       		.uleb128 0x3
 1629 007d 0E       		.uleb128 0xe
 1630 007e 0B       		.uleb128 0xb
 1631 007f 0B       		.uleb128 0xb
 1632 0080 3A       		.uleb128 0x3a
 1633 0081 0B       		.uleb128 0xb
 1634 0082 3B       		.uleb128 0x3b
 1635 0083 05       		.uleb128 0x5
 1636 0084 01       		.uleb128 0x1
 1637 0085 13       		.uleb128 0x13
 1638 0086 00       		.byte	0
 1639 0087 00       		.byte	0
 1640 0088 0B       		.uleb128 0xb
 1641 0089 15       		.uleb128 0x15
ARM GAS  /tmp/cc6tjkN8.s 			page 45


 1642 008a 01       		.byte	0x1
 1643 008b 27       		.uleb128 0x27
 1644 008c 19       		.uleb128 0x19
 1645 008d 01       		.uleb128 0x1
 1646 008e 13       		.uleb128 0x13
 1647 008f 00       		.byte	0
 1648 0090 00       		.byte	0
 1649 0091 0C       		.uleb128 0xc
 1650 0092 05       		.uleb128 0x5
 1651 0093 00       		.byte	0
 1652 0094 49       		.uleb128 0x49
 1653 0095 13       		.uleb128 0x13
 1654 0096 00       		.byte	0
 1655 0097 00       		.byte	0
 1656 0098 0D       		.uleb128 0xd
 1657 0099 0F       		.uleb128 0xf
 1658 009a 00       		.byte	0
 1659 009b 0B       		.uleb128 0xb
 1660 009c 0B       		.uleb128 0xb
 1661 009d 00       		.byte	0
 1662 009e 00       		.byte	0
 1663 009f 0E       		.uleb128 0xe
 1664 00a0 13       		.uleb128 0x13
 1665 00a1 01       		.byte	0x1
 1666 00a2 03       		.uleb128 0x3
 1667 00a3 0E       		.uleb128 0xe
 1668 00a4 0B       		.uleb128 0xb
 1669 00a5 05       		.uleb128 0x5
 1670 00a6 3A       		.uleb128 0x3a
 1671 00a7 0B       		.uleb128 0xb
 1672 00a8 3B       		.uleb128 0x3b
 1673 00a9 05       		.uleb128 0x5
 1674 00aa 01       		.uleb128 0x1
 1675 00ab 13       		.uleb128 0x13
 1676 00ac 00       		.byte	0
 1677 00ad 00       		.byte	0
 1678 00ae 0F       		.uleb128 0xf
 1679 00af 35       		.uleb128 0x35
 1680 00b0 00       		.byte	0
 1681 00b1 49       		.uleb128 0x49
 1682 00b2 13       		.uleb128 0x13
 1683 00b3 00       		.byte	0
 1684 00b4 00       		.byte	0
 1685 00b5 10       		.uleb128 0x10
 1686 00b6 13       		.uleb128 0x13
 1687 00b7 01       		.byte	0x1
 1688 00b8 0B       		.uleb128 0xb
 1689 00b9 0B       		.uleb128 0xb
 1690 00ba 3A       		.uleb128 0x3a
 1691 00bb 0B       		.uleb128 0xb
 1692 00bc 3B       		.uleb128 0x3b
 1693 00bd 0B       		.uleb128 0xb
 1694 00be 01       		.uleb128 0x1
 1695 00bf 13       		.uleb128 0x13
 1696 00c0 00       		.byte	0
 1697 00c1 00       		.byte	0
 1698 00c2 11       		.uleb128 0x11
ARM GAS  /tmp/cc6tjkN8.s 			page 46


 1699 00c3 0D       		.uleb128 0xd
 1700 00c4 00       		.byte	0
 1701 00c5 03       		.uleb128 0x3
 1702 00c6 08       		.uleb128 0x8
 1703 00c7 3A       		.uleb128 0x3a
 1704 00c8 0B       		.uleb128 0xb
 1705 00c9 3B       		.uleb128 0x3b
 1706 00ca 0B       		.uleb128 0xb
 1707 00cb 49       		.uleb128 0x49
 1708 00cc 13       		.uleb128 0x13
 1709 00cd 38       		.uleb128 0x38
 1710 00ce 0B       		.uleb128 0xb
 1711 00cf 00       		.byte	0
 1712 00d0 00       		.byte	0
 1713 00d1 12       		.uleb128 0x12
 1714 00d2 13       		.uleb128 0x13
 1715 00d3 01       		.byte	0x1
 1716 00d4 0B       		.uleb128 0xb
 1717 00d5 0B       		.uleb128 0xb
 1718 00d6 3A       		.uleb128 0x3a
 1719 00d7 0B       		.uleb128 0xb
 1720 00d8 3B       		.uleb128 0x3b
 1721 00d9 05       		.uleb128 0x5
 1722 00da 01       		.uleb128 0x1
 1723 00db 13       		.uleb128 0x13
 1724 00dc 00       		.byte	0
 1725 00dd 00       		.byte	0
 1726 00de 13       		.uleb128 0x13
 1727 00df 16       		.uleb128 0x16
 1728 00e0 00       		.byte	0
 1729 00e1 03       		.uleb128 0x3
 1730 00e2 0E       		.uleb128 0xe
 1731 00e3 3A       		.uleb128 0x3a
 1732 00e4 0B       		.uleb128 0xb
 1733 00e5 3B       		.uleb128 0x3b
 1734 00e6 05       		.uleb128 0x5
 1735 00e7 49       		.uleb128 0x49
 1736 00e8 13       		.uleb128 0x13
 1737 00e9 00       		.byte	0
 1738 00ea 00       		.byte	0
 1739 00eb 14       		.uleb128 0x14
 1740 00ec 17       		.uleb128 0x17
 1741 00ed 01       		.byte	0x1
 1742 00ee 0B       		.uleb128 0xb
 1743 00ef 0B       		.uleb128 0xb
 1744 00f0 3A       		.uleb128 0x3a
 1745 00f1 0B       		.uleb128 0xb
 1746 00f2 3B       		.uleb128 0x3b
 1747 00f3 0B       		.uleb128 0xb
 1748 00f4 01       		.uleb128 0x1
 1749 00f5 13       		.uleb128 0x13
 1750 00f6 00       		.byte	0
 1751 00f7 00       		.byte	0
 1752 00f8 15       		.uleb128 0x15
 1753 00f9 0D       		.uleb128 0xd
 1754 00fa 00       		.byte	0
 1755 00fb 03       		.uleb128 0x3
ARM GAS  /tmp/cc6tjkN8.s 			page 47


 1756 00fc 0E       		.uleb128 0xe
 1757 00fd 3A       		.uleb128 0x3a
 1758 00fe 0B       		.uleb128 0xb
 1759 00ff 3B       		.uleb128 0x3b
 1760 0100 05       		.uleb128 0x5
 1761 0101 49       		.uleb128 0x49
 1762 0102 13       		.uleb128 0x13
 1763 0103 00       		.byte	0
 1764 0104 00       		.byte	0
 1765 0105 16       		.uleb128 0x16
 1766 0106 26       		.uleb128 0x26
 1767 0107 00       		.byte	0
 1768 0108 49       		.uleb128 0x49
 1769 0109 13       		.uleb128 0x13
 1770 010a 00       		.byte	0
 1771 010b 00       		.byte	0
 1772 010c 17       		.uleb128 0x17
 1773 010d 01       		.uleb128 0x1
 1774 010e 01       		.byte	0x1
 1775 010f 49       		.uleb128 0x49
 1776 0110 13       		.uleb128 0x13
 1777 0111 01       		.uleb128 0x1
 1778 0112 13       		.uleb128 0x13
 1779 0113 00       		.byte	0
 1780 0114 00       		.byte	0
 1781 0115 18       		.uleb128 0x18
 1782 0116 21       		.uleb128 0x21
 1783 0117 00       		.byte	0
 1784 0118 49       		.uleb128 0x49
 1785 0119 13       		.uleb128 0x13
 1786 011a 2F       		.uleb128 0x2f
 1787 011b 0B       		.uleb128 0xb
 1788 011c 00       		.byte	0
 1789 011d 00       		.byte	0
 1790 011e 19       		.uleb128 0x19
 1791 011f 2E       		.uleb128 0x2e
 1792 0120 00       		.byte	0
 1793 0121 03       		.uleb128 0x3
 1794 0122 0E       		.uleb128 0xe
 1795 0123 3A       		.uleb128 0x3a
 1796 0124 0B       		.uleb128 0xb
 1797 0125 3B       		.uleb128 0x3b
 1798 0126 0B       		.uleb128 0xb
 1799 0127 27       		.uleb128 0x27
 1800 0128 19       		.uleb128 0x19
 1801 0129 11       		.uleb128 0x11
 1802 012a 01       		.uleb128 0x1
 1803 012b 12       		.uleb128 0x12
 1804 012c 06       		.uleb128 0x6
 1805 012d 40       		.uleb128 0x40
 1806 012e 18       		.uleb128 0x18
 1807 012f 9742     		.uleb128 0x2117
 1808 0131 19       		.uleb128 0x19
 1809 0132 00       		.byte	0
 1810 0133 00       		.byte	0
 1811 0134 1A       		.uleb128 0x1a
 1812 0135 2E       		.uleb128 0x2e
ARM GAS  /tmp/cc6tjkN8.s 			page 48


 1813 0136 00       		.byte	0
 1814 0137 3F       		.uleb128 0x3f
 1815 0138 19       		.uleb128 0x19
 1816 0139 03       		.uleb128 0x3
 1817 013a 0E       		.uleb128 0xe
 1818 013b 3A       		.uleb128 0x3a
 1819 013c 0B       		.uleb128 0xb
 1820 013d 3B       		.uleb128 0x3b
 1821 013e 0B       		.uleb128 0xb
 1822 013f 27       		.uleb128 0x27
 1823 0140 19       		.uleb128 0x19
 1824 0141 11       		.uleb128 0x11
 1825 0142 01       		.uleb128 0x1
 1826 0143 12       		.uleb128 0x12
 1827 0144 06       		.uleb128 0x6
 1828 0145 40       		.uleb128 0x40
 1829 0146 18       		.uleb128 0x18
 1830 0147 9642     		.uleb128 0x2116
 1831 0149 19       		.uleb128 0x19
 1832 014a 00       		.byte	0
 1833 014b 00       		.byte	0
 1834 014c 1B       		.uleb128 0x1b
 1835 014d 2E       		.uleb128 0x2e
 1836 014e 00       		.byte	0
 1837 014f 3F       		.uleb128 0x3f
 1838 0150 19       		.uleb128 0x19
 1839 0151 03       		.uleb128 0x3
 1840 0152 0E       		.uleb128 0xe
 1841 0153 3A       		.uleb128 0x3a
 1842 0154 0B       		.uleb128 0xb
 1843 0155 3B       		.uleb128 0x3b
 1844 0156 0B       		.uleb128 0xb
 1845 0157 27       		.uleb128 0x27
 1846 0158 19       		.uleb128 0x19
 1847 0159 11       		.uleb128 0x11
 1848 015a 01       		.uleb128 0x1
 1849 015b 12       		.uleb128 0x12
 1850 015c 06       		.uleb128 0x6
 1851 015d 40       		.uleb128 0x40
 1852 015e 18       		.uleb128 0x18
 1853 015f 9742     		.uleb128 0x2117
 1854 0161 19       		.uleb128 0x19
 1855 0162 00       		.byte	0
 1856 0163 00       		.byte	0
 1857 0164 1C       		.uleb128 0x1c
 1858 0165 34       		.uleb128 0x34
 1859 0166 00       		.byte	0
 1860 0167 03       		.uleb128 0x3
 1861 0168 0E       		.uleb128 0xe
 1862 0169 3A       		.uleb128 0x3a
 1863 016a 0B       		.uleb128 0xb
 1864 016b 3B       		.uleb128 0x3b
 1865 016c 0B       		.uleb128 0xb
 1866 016d 49       		.uleb128 0x49
 1867 016e 13       		.uleb128 0x13
 1868 016f 3F       		.uleb128 0x3f
 1869 0170 19       		.uleb128 0x19
ARM GAS  /tmp/cc6tjkN8.s 			page 49


 1870 0171 02       		.uleb128 0x2
 1871 0172 18       		.uleb128 0x18
 1872 0173 00       		.byte	0
 1873 0174 00       		.byte	0
 1874 0175 1D       		.uleb128 0x1d
 1875 0176 34       		.uleb128 0x34
 1876 0177 00       		.byte	0
 1877 0178 03       		.uleb128 0x3
 1878 0179 08       		.uleb128 0x8
 1879 017a 3A       		.uleb128 0x3a
 1880 017b 0B       		.uleb128 0xb
 1881 017c 3B       		.uleb128 0x3b
 1882 017d 05       		.uleb128 0x5
 1883 017e 49       		.uleb128 0x49
 1884 017f 13       		.uleb128 0x13
 1885 0180 3F       		.uleb128 0x3f
 1886 0181 19       		.uleb128 0x19
 1887 0182 3C       		.uleb128 0x3c
 1888 0183 19       		.uleb128 0x19
 1889 0184 00       		.byte	0
 1890 0185 00       		.byte	0
 1891 0186 00       		.byte	0
 1892              		.section	.debug_aranges,"",%progbits
 1893 0000 2C000000 		.4byte	0x2c
 1894 0004 0200     		.2byte	0x2
 1895 0006 00000000 		.4byte	.Ldebug_info0
 1896 000a 04       		.byte	0x4
 1897 000b 00       		.byte	0
 1898 000c 0000     		.2byte	0
 1899 000e 0000     		.2byte	0
 1900 0010 00000000 		.4byte	.LFB149
 1901 0014 60000000 		.4byte	.LFE149-.LFB149
 1902 0018 00000000 		.4byte	.LFB150
 1903 001c 54000000 		.4byte	.LFE150-.LFB150
 1904 0020 00000000 		.4byte	.LFB151
 1905 0024 E0000000 		.4byte	.LFE151-.LFB151
 1906 0028 00000000 		.4byte	0
 1907 002c 00000000 		.4byte	0
 1908              		.section	.debug_ranges,"",%progbits
 1909              	.Ldebug_ranges0:
 1910 0000 00000000 		.4byte	.LFB149
 1911 0004 60000000 		.4byte	.LFE149
 1912 0008 00000000 		.4byte	.LFB150
 1913 000c 54000000 		.4byte	.LFE150
 1914 0010 00000000 		.4byte	.LFB151
 1915 0014 E0000000 		.4byte	.LFE151
 1916 0018 00000000 		.4byte	0
 1917 001c 00000000 		.4byte	0
 1918              		.section	.debug_line,"",%progbits
 1919              	.Ldebug_line0:
 1920 0000 62020000 		.section	.debug_str,"MS",%progbits,1
 1920      0200D801 
 1920      00000201 
 1920      FB0E0D00 
 1920      01010101 
 1921              	.LASF42:
 1922 0000 63685F74 		.ascii	"ch_threads_list\000"
ARM GAS  /tmp/cc6tjkN8.s 			page 50


 1922      68726561 
 1922      64735F6C 
 1922      69737400 
 1923              	.LASF43:
 1924 0010 74687265 		.ascii	"threads_queue_t\000"
 1924      6164735F 
 1924      71756575 
 1924      655F7400 
 1925              	.LASF76:
 1926 0020 52455345 		.ascii	"RESERVED\000"
 1926      52564544 
 1926      00
 1927              	.LASF36:
 1928 0029 705F7761 		.ascii	"p_waiting\000"
 1928      6974696E 
 1928      6700
 1929              	.LASF85:
 1930 0033 41504231 		.ascii	"APB1ENR\000"
 1930      454E5200 
 1931              	.LASF113:
 1932 003b 53797374 		.ascii	"SystemCoreClock\000"
 1932      656D436F 
 1932      7265436C 
 1932      6F636B00 
 1933              	.LASF100:
 1934 004b 77746D74 		.ascii	"wtmtxp\000"
 1934      787000
 1935              	.LASF108:
 1936 0052 63686172 		.ascii	"char\000"
 1936      00
 1937              	.LASF91:
 1938 0057 72656761 		.ascii	"regarm_t\000"
 1938      726D5F74 
 1938      00
 1939              	.LASF29:
 1940 0060 705F7072 		.ascii	"p_prio\000"
 1940      696F00
 1941              	.LASF81:
 1942 0067 41504232 		.ascii	"APB2RSTR\000"
 1942      52535452 
 1942      00
 1943              	.LASF25:
 1944 0070 73797374 		.ascii	"systime_t\000"
 1944      696D655F 
 1944      7400
 1945              	.LASF106:
 1946 007a 6D5F6F77 		.ascii	"m_owner\000"
 1946      6E657200 
 1947              	.LASF102:
 1948 0082 735F7175 		.ascii	"s_queue\000"
 1948      65756500 
 1949              	.LASF0:
 1950 008a 756E7369 		.ascii	"unsigned int\000"
 1950      676E6564 
 1950      20696E74 
 1950      00
 1951              	.LASF40:
ARM GAS  /tmp/cc6tjkN8.s 			page 51


 1952 0097 74687265 		.ascii	"threads_list_t\000"
 1952      6164735F 
 1952      6C697374 
 1952      5F7400
 1953              	.LASF86:
 1954 00a6 42444352 		.ascii	"BDCR\000"
 1954      00
 1955              	.LASF8:
 1956 00ab 5F5F696E 		.ascii	"__int32_t\000"
 1956      7433325F 
 1956      7400
 1957              	.LASF97:
 1958 00b5 77746F62 		.ascii	"wtobjp\000"
 1958      6A7000
 1959              	.LASF70:
 1960 00bc 76746C69 		.ascii	"vtlist\000"
 1960      737400
 1961              	.LASF46:
 1962 00c3 63685F72 		.ascii	"ch_ready_list\000"
 1962      65616479 
 1962      5F6C6973 
 1962      7400
 1963              	.LASF72:
 1964 00d1 69646C65 		.ascii	"idle_thread_wa\000"
 1964      5F746872 
 1964      6561645F 
 1964      776100
 1965              	.LASF44:
 1966 00e0 63685F74 		.ascii	"ch_threads_queue\000"
 1966      68726561 
 1966      64735F71 
 1966      75657565 
 1966      00
 1967              	.LASF53:
 1968 00f1 76746675 		.ascii	"vtfunc_t\000"
 1968      6E635F74 
 1968      00
 1969              	.LASF103:
 1970 00fa 735F636E 		.ascii	"s_cnt\000"
 1970      7400
 1971              	.LASF115:
 1972 0100 2F686F6D 		.ascii	"/home/efe/ChibiOS/os/hal/ports/STM32/STM32F0xx/hal_"
 1972      652F6566 
 1972      652F4368 
 1972      6962694F 
 1972      532F6F73 
 1973 0133 6C6C642E 		.ascii	"lld.c\000"
 1973      6300
 1974              	.LASF65:
 1975 0139 63685F73 		.ascii	"ch_system_debug\000"
 1975      79737465 
 1975      6D5F6465 
 1975      62756700 
 1976              	.LASF105:
 1977 0149 6D5F7175 		.ascii	"m_queue\000"
 1977      65756500 
 1978              	.LASF116:
ARM GAS  /tmp/cc6tjkN8.s 			page 52


 1979 0151 68616C5F 		.ascii	"hal_lld_backup_domain_init\000"
 1979      6C6C645F 
 1979      6261636B 
 1979      75705F64 
 1979      6F6D6169 
 1980              	.LASF18:
 1981 016c 75696E74 		.ascii	"uint32_t\000"
 1981      33325F74 
 1981      00
 1982              	.LASF48:
 1983 0175 725F7072 		.ascii	"r_prio\000"
 1983      696F00
 1984              	.LASF60:
 1985 017c 76745F70 		.ascii	"vt_par\000"
 1985      617200
 1986              	.LASF101:
 1987 0183 63685F73 		.ascii	"ch_semaphore\000"
 1987      656D6170 
 1987      686F7265 
 1987      00
 1988              	.LASF22:
 1989 0190 74707269 		.ascii	"tprio_t\000"
 1989      6F5F7400 
 1990              	.LASF55:
 1991 0198 63685F76 		.ascii	"ch_virtual_timer\000"
 1991      69727475 
 1991      616C5F74 
 1991      696D6572 
 1991      00
 1992              	.LASF14:
 1993 01a9 6C6F6E67 		.ascii	"long long unsigned int\000"
 1993      206C6F6E 
 1993      6720756E 
 1993      7369676E 
 1993      65642069 
 1994              	.LASF75:
 1995 01c0 4F50544B 		.ascii	"OPTKEYR\000"
 1995      45595200 
 1996              	.LASF6:
 1997 01c8 5F5F7569 		.ascii	"__uint16_t\000"
 1997      6E743136 
 1997      5F7400
 1998              	.LASF24:
 1999 01d3 636E745F 		.ascii	"cnt_t\000"
 1999      7400
 2000              	.LASF74:
 2001 01d9 4B455952 		.ascii	"KEYR\000"
 2001      00
 2002              	.LASF31:
 2003 01de 705F6E65 		.ascii	"p_newer\000"
 2003      77657200 
 2004              	.LASF62:
 2005 01e6 63685F76 		.ascii	"ch_virtual_timers_list\000"
 2005      69727475 
 2005      616C5F74 
 2005      696D6572 
 2005      735F6C69 
ARM GAS  /tmp/cc6tjkN8.s 			page 53


 2006              	.LASF26:
 2007 01fd 74687265 		.ascii	"thread_t\000"
 2007      61645F74 
 2007      00
 2008              	.LASF77:
 2009 0206 57525052 		.ascii	"WRPR\000"
 2009      00
 2010              	.LASF2:
 2011 020b 73697A65 		.ascii	"size_t\000"
 2011      5F7400
 2012              	.LASF95:
 2013 0212 7264796D 		.ascii	"rdymsg\000"
 2013      736700
 2014              	.LASF78:
 2015 0219 464C4153 		.ascii	"FLASH_TypeDef\000"
 2015      485F5479 
 2015      70654465 
 2015      6600
 2016              	.LASF90:
 2017 0227 5243435F 		.ascii	"RCC_TypeDef\000"
 2017      54797065 
 2017      44656600 
 2018              	.LASF104:
 2019 0233 63685F6D 		.ascii	"ch_mutex\000"
 2019      75746578 
 2019      00
 2020              	.LASF13:
 2021 023c 5F5F7569 		.ascii	"__uint64_t\000"
 2021      6E743634 
 2021      5F7400
 2022              	.LASF33:
 2023 0247 705F6E61 		.ascii	"p_name\000"
 2023      6D6500
 2024              	.LASF82:
 2025 024e 41504231 		.ascii	"APB1RSTR\000"
 2025      52535452 
 2025      00
 2026              	.LASF58:
 2027 0257 76745F64 		.ascii	"vt_delta\000"
 2027      656C7461 
 2027      00
 2028              	.LASF39:
 2029 0260 74687265 		.ascii	"thread_reference_t\000"
 2029      61645F72 
 2029      65666572 
 2029      656E6365 
 2029      5F7400
 2030              	.LASF63:
 2031 0273 76745F6C 		.ascii	"vt_lasttime\000"
 2031      61737474 
 2031      696D6500 
 2032              	.LASF21:
 2033 027f 74737461 		.ascii	"tstate_t\000"
 2033      74655F74 
 2033      00
 2034              	.LASF83:
 2035 0288 41484245 		.ascii	"AHBENR\000"
ARM GAS  /tmp/cc6tjkN8.s 			page 54


 2035      4E5200
 2036              	.LASF32:
 2037 028f 705F6F6C 		.ascii	"p_older\000"
 2037      64657200 
 2038              	.LASF34:
 2039 0297 705F7374 		.ascii	"p_state\000"
 2039      61746500 
 2040              	.LASF15:
 2041 029f 75696E74 		.ascii	"uint8_t\000"
 2041      385F7400 
 2042              	.LASF37:
 2043 02a7 705F6D74 		.ascii	"p_mtxlist\000"
 2043      786C6973 
 2043      7400
 2044              	.LASF41:
 2045 02b1 63685F74 		.ascii	"ch_thread\000"
 2045      68726561 
 2045      6400
 2046              	.LASF64:
 2047 02bb 73797374 		.ascii	"system_debug_t\000"
 2047      656D5F64 
 2047      65627567 
 2047      5F7400
 2048              	.LASF12:
 2049 02ca 6C6F6E67 		.ascii	"long long int\000"
 2049      206C6F6E 
 2049      6720696E 
 2049      7400
 2050              	.LASF47:
 2051 02d8 725F7175 		.ascii	"r_queue\000"
 2051      65756500 
 2052              	.LASF50:
 2053 02e0 725F6E65 		.ascii	"r_newer\000"
 2053      77657200 
 2054              	.LASF23:
 2055 02e8 6D73675F 		.ascii	"msg_t\000"
 2055      7400
 2056              	.LASF93:
 2057 02ee 636F6E74 		.ascii	"context\000"
 2057      65787400 
 2058              	.LASF35:
 2059 02f6 705F666C 		.ascii	"p_flags\000"
 2059      61677300 
 2060              	.LASF54:
 2061 02fe 76697274 		.ascii	"virtual_timer_t\000"
 2061      75616C5F 
 2061      74696D65 
 2061      725F7400 
 2062              	.LASF114:
 2063 030e 474E5520 		.ascii	"GNU C 4.8.4 20141219 (release) -mcpu=cortex-m0 -mno"
 2063      4320342E 
 2063      382E3420 
 2063      32303134 
 2063      31323139 
 2064 0341 2D746875 		.ascii	"-thumb-interwork -mthumb -ggdb -O0 -fomit-frame-poi"
 2064      6D622D69 
 2064      6E746572 
ARM GAS  /tmp/cc6tjkN8.s 			page 55


 2064      776F726B 
 2064      202D6D74 
 2065 0374 6E746572 		.ascii	"nter -falign-functions=16 -ffunction-sections -fdat"
 2065      202D6661 
 2065      6C69676E 
 2065      2D66756E 
 2065      6374696F 
 2066 03a7 612D7365 		.ascii	"a-sections -fno-common -flto\000"
 2066      6374696F 
 2066      6E73202D 
 2066      666E6F2D 
 2066      636F6D6D 
 2067              	.LASF51:
 2068 03c4 725F6F6C 		.ascii	"r_older\000"
 2068      64657200 
 2069              	.LASF88:
 2070 03cc 43464752 		.ascii	"CFGR2\000"
 2070      3200
 2071              	.LASF89:
 2072 03d2 43464752 		.ascii	"CFGR3\000"
 2072      3300
 2073              	.LASF84:
 2074 03d8 41504232 		.ascii	"APB2ENR\000"
 2074      454E5200 
 2075              	.LASF66:
 2076 03e0 70616E69 		.ascii	"panic_msg\000"
 2076      635F6D73 
 2076      6700
 2077              	.LASF110:
 2078 03ea 5F426F6F 		.ascii	"_Bool\000"
 2078      6C00
 2079              	.LASF20:
 2080 03f0 746D6F64 		.ascii	"tmode_t\000"
 2080      655F7400 
 2081              	.LASF71:
 2082 03f8 6D61696E 		.ascii	"mainthread\000"
 2082      74687265 
 2082      616400
 2083              	.LASF16:
 2084 0403 75696E74 		.ascii	"uint16_t\000"
 2084      31365F74 
 2084      00
 2085              	.LASF38:
 2086 040c 705F7265 		.ascii	"p_realprio\000"
 2086      616C7072 
 2086      696F00
 2087              	.LASF5:
 2088 0417 73686F72 		.ascii	"short int\000"
 2088      7420696E 
 2088      7400
 2089              	.LASF52:
 2090 0421 725F6375 		.ascii	"r_current\000"
 2090      7272656E 
 2090      7400
 2091              	.LASF79:
 2092 042b 5057525F 		.ascii	"PWR_TypeDef\000"
 2092      54797065 
ARM GAS  /tmp/cc6tjkN8.s 			page 56


 2092      44656600 
 2093              	.LASF9:
 2094 0437 6C6F6E67 		.ascii	"long int\000"
 2094      20696E74 
 2094      00
 2095              	.LASF94:
 2096 0440 706F7274 		.ascii	"port_intctx\000"
 2096      5F696E74 
 2096      63747800 
 2097              	.LASF68:
 2098 044c 63685F73 		.ascii	"ch_system\000"
 2098      79737465 
 2098      6D00
 2099              	.LASF27:
 2100 0456 705F6E65 		.ascii	"p_next\000"
 2100      787400
 2101              	.LASF19:
 2102 045d 75696E74 		.ascii	"uint64_t\000"
 2102      36345F74 
 2102      00
 2103              	.LASF30:
 2104 0466 705F6374 		.ascii	"p_ctx\000"
 2104      7800
 2105              	.LASF80:
 2106 046c 43464752 		.ascii	"CFGR\000"
 2106      00
 2107              	.LASF69:
 2108 0471 726C6973 		.ascii	"rlist\000"
 2108      7400
 2109              	.LASF3:
 2110 0477 5F5F7569 		.ascii	"__uint8_t\000"
 2110      6E74385F 
 2110      7400
 2111              	.LASF28:
 2112 0481 705F7072 		.ascii	"p_prev\000"
 2112      657600
 2113              	.LASF73:
 2114 0488 73697A65 		.ascii	"sizetype\000"
 2114      74797065 
 2114      00
 2115              	.LASF11:
 2116 0491 6C6F6E67 		.ascii	"long unsigned int\000"
 2116      20756E73 
 2116      69676E65 
 2116      6420696E 
 2116      7400
 2117              	.LASF111:
 2118 04a3 68616C5F 		.ascii	"hal_lld_init\000"
 2118      6C6C645F 
 2118      696E6974 
 2118      00
 2119              	.LASF45:
 2120 04b0 72656164 		.ascii	"ready_list_t\000"
 2120      795F6C69 
 2120      73745F74 
 2120      00
 2121              	.LASF17:
ARM GAS  /tmp/cc6tjkN8.s 			page 57


 2122 04bd 696E7433 		.ascii	"int32_t\000"
 2122      325F7400 
 2123              	.LASF99:
 2124 04c5 77747365 		.ascii	"wtsemp\000"
 2124      6D7000
 2125              	.LASF109:
 2126 04cc 6D757465 		.ascii	"mutex_t\000"
 2126      785F7400 
 2127              	.LASF4:
 2128 04d4 756E7369 		.ascii	"unsigned char\000"
 2128      676E6564 
 2128      20636861 
 2128      7200
 2129              	.LASF10:
 2130 04e2 5F5F7569 		.ascii	"__uint32_t\000"
 2130      6E743332 
 2130      5F7400
 2131              	.LASF61:
 2132 04ed 76697274 		.ascii	"virtual_timers_list_t\000"
 2132      75616C5F 
 2132      74696D65 
 2132      72735F6C 
 2132      6973745F 
 2133              	.LASF87:
 2134 0503 41484252 		.ascii	"AHBRSTR\000"
 2134      53545200 
 2135              	.LASF56:
 2136 050b 76745F6E 		.ascii	"vt_next\000"
 2136      65787400 
 2137              	.LASF67:
 2138 0513 63685F73 		.ascii	"ch_system_t\000"
 2138      79737465 
 2138      6D5F7400 
 2139              	.LASF98:
 2140 051f 77747472 		.ascii	"wttrp\000"
 2140      7000
 2141              	.LASF107:
 2142 0525 6D5F6E65 		.ascii	"m_next\000"
 2142      787400
 2143              	.LASF1:
 2144 052c 7369676E 		.ascii	"signed char\000"
 2144      65642063 
 2144      68617200 
 2145              	.LASF7:
 2146 0538 73686F72 		.ascii	"short unsigned int\000"
 2146      7420756E 
 2146      7369676E 
 2146      65642069 
 2146      6E7400
 2147              	.LASF49:
 2148 054b 725F6374 		.ascii	"r_ctx\000"
 2148      7800
 2149              	.LASF92:
 2150 0551 73746B61 		.ascii	"stkalign_t\000"
 2150      6C69676E 
 2150      5F7400
 2151              	.LASF59:
ARM GAS  /tmp/cc6tjkN8.s 			page 58


 2152 055c 76745F66 		.ascii	"vt_func\000"
 2152      756E6300 
 2153              	.LASF57:
 2154 0564 76745F70 		.ascii	"vt_prev\000"
 2154      72657600 
 2155              	.LASF112:
 2156 056c 73746D33 		.ascii	"stm32_clock_init\000"
 2156      325F636C 
 2156      6F636B5F 
 2156      696E6974 
 2156      00
 2157              	.LASF96:
 2158 057d 65786974 		.ascii	"exitcode\000"
 2158      636F6465 
 2158      00
 2159              		.comm	__gnu_lto_v1,1,1
 2160              		.ident	"GCC: (4.8.4-1+11-1) 4.8.4 20141219 (release)"
ARM GAS  /tmp/cc6tjkN8.s 			page 59


DEFINED SYMBOLS
                            *ABS*:0000000000000000 hal_lld.c
     /tmp/cc6tjkN8.s:271    .data.SystemCoreClock:0000000000000000 SystemCoreClock
     /tmp/cc6tjkN8.s:268    .data.SystemCoreClock:0000000000000000 $d
     /tmp/cc6tjkN8.s:274    .text.hal_lld_backup_domain_init:0000000000000000 $t
     /tmp/cc6tjkN8.s:279    .text.hal_lld_backup_domain_init:0000000000000000 hal_lld_backup_domain_init
     /tmp/cc6tjkN8.s:342    .text.hal_lld_backup_domain_init:0000000000000058 $d
     /tmp/cc6tjkN8.s:348    .text.hal_lld_init:0000000000000000 $t
     /tmp/cc6tjkN8.s:354    .text.hal_lld_init:0000000000000000 hal_lld_init
     /tmp/cc6tjkN8.s:408    .text.hal_lld_init:000000000000004c $d
     /tmp/cc6tjkN8.s:414    .text.stm32_clock_init:0000000000000000 $t
     /tmp/cc6tjkN8.s:420    .text.stm32_clock_init:0000000000000000 stm32_clock_init
     /tmp/cc6tjkN8.s:569    .text.stm32_clock_init:00000000000000d8 $d
                            *COM*:0000000000000001 __gnu_lto_v1
                     .debug_frame:0000000000000010 $d
     /tmp/cc6tjkN8.s:413    .text.hal_lld_init:0000000000000054 $t

NO UNDEFINED SYMBOLS
