ARM GAS  /tmp/ccI5eHJN.s 			page 1


   1              		.cpu cortex-m0
   2              		.fpu softvfp
   3              		.eabi_attribute 20, 1
   4              		.eabi_attribute 21, 1
   5              		.eabi_attribute 23, 3
   6              		.eabi_attribute 24, 1
   7              		.eabi_attribute 25, 1
   8              		.eabi_attribute 26, 1
   9              		.eabi_attribute 30, 6
  10              		.eabi_attribute 34, 0
  11              		.eabi_attribute 18, 4
  12              		.code	16
  13              		.file	"hal_queues.c"
  14              		.text
  15              	.Ltext0:
  16              		.section	.gnu.lto_.inline.7b24dcd268b6a645,"",%progbits
  17 0000 789C9590 		.ascii	"x\234\225\220\261\021\202@\020E?{\007(p\200 D\316\230"
  17      B1118240 
  17      10453F7B 
  17      07287080 
  17      2044CE98 
  18 0014 1019181B 		.ascii	"\020\031\030\033Y\205m\330\203%X\200\001%X\202\211\025"
  18      59856DD8 
  18      83255880 
  18      01255882 
  18      8915
  19 0026 D8811598 		.ascii	"\330\201\025\230\231\272\2022s\260\004\\\360g\347\335"
  19      99BA8232 
  19      73B0045C 
  19      F067E7DD 
  20 0036 DF3FFF8E 		.ascii	"\337?\377\216@\220\316\341\207K@+\200\364k\013\335z"
  20      4090CEE1 
  20      874B402B 
  20      80F46B0B 
  20      DD7A
  21 0048 9D0121B8 		.ascii	"\235\001!\270\232\325\273\355\377DAGL\250^w[\001\213"
  21      9AD5BBED 
  21      FF444147 
  21      4CA85E77 
  21      5B018B
  22 005b 96B10BD7 		.ascii	"\226\261\013\327\330\230B\026Ov\3732\236\311!sx\261"
  22      D8984216 
  22      4F76FB32 
  22      9EC92173 
  22      78B1
  23 006d 8D156F23 		.ascii	"\215\025o#\220q\010?\261\261\346PD0\005\343\254\276"
  23      9071083F 
  23      B1B1E650 
  23      443005E3 
  23      ACBE
  24 007f 3856B841 		.ascii	"8V\270A\230\363\030]\217VJ\214U\305x{z\223\305\023T"
  24      98F3185D 
  24      8F564A8C 
  24      55C5787B 
  24      7A93C513 
  25 0094 0FF42E9A 		.ascii	"\017\364.\232\356\355\347\230nJYRl\236_\363\356|WC\263"
  25      EEEDE798 
ARM GAS  /tmp/ccI5eHJN.s 			page 2


  25      6E4A5952 
  25      6C9E5FF3 
  25      EE7C5743 
  26 00a9 B4B11869 		.ascii	"\264\261\030i\231!.{\274\251\223O\251\263\034yS1\271"
  26      99212E7B 
  26      BCA9934F 
  26      A9B31C79 
  26      5331B9
  27 00bc 263EB29A 		.ascii	"&>\262\232\"\251"
  27      22A9
  28              		.text
  29              		.section	.gnu.lto_port_lock.7b24dcd268b6a645,"",%progbits
  30 0000 789C6362 		.ascii	"x\234cb`b@\007\"@<\035\210\253A\034f\006F\240\012F&"
  30      60624007 
  30      22403C1D 
  30      88AB411C 
  30      660646A0 
  31 0017 46462087 		.ascii	"FF \207\221\241\236\211\261>\222\021\254l=\323\201\007"
  31      91A19E89 
  31      B13E9211 
  31      AC6C3DD3 
  31      8107
  32 0029 FFFFAFDB 		.ascii	"\377\377\257\3332m\331\035\306\233L 1V\206\226\206\206"
  32      326DD91D 
  32      C69B4C20 
  32      31568696 
  32      8686
  33 003b 090A0C0C 		.ascii	"\011\012\014\014\311`\025!`2\024\244\237\371\034C\343"
  33      C9601521 
  33      603214A4 
  33      9FF91C43 
  33      E3
  34 004c C7B71FAE 		.ascii	"\307\267\037\2561\302\225\200\031\015\007\272\317\265"
  34      31C29580 
  34      190D07BA 
  34      CFB5
  35 005a B2323024 		.ascii	"\26220$2.\004\312$3B\014\006Z\223\315\014q\227\034C"
  35      322E04CA 
  35      2433420C 
  35      065A93CD 
  35      0C71971C 
  36 006f C9DC8619 		.ascii	"\311\334\206\031\016\231P\011\206\213\014\215\017\346"
  36      0E995009 
  36      868B0C8D 
  36      0FE6
  37 007d 6A4394C3 		.ascii	"jC\224\303@\010H\033H\265\221~F~n\252~jZ\252\276sFf"
  37      4008481B 
  37      48B5917E 
  37      467E6EAA 
  37      7E6A5AAA 
  38 0095 52A67FB0 		.ascii	"R\246\177\260~~\261~Q\211~A~QI\261\276c\220\257\263"
  38      7E7EB17E 
  38      51897E41 
  38      7E5149B1 
  38      BE6390AF 
  39 00aa 6F857E72 		.ascii	"o\205~rFr~Qj|\231Y\256^\006\203)V-\251\025%\372\316"
  39      46727E51 
ARM GAS  /tmp/ccI5eHJN.s 			page 3


  39      6A7C9959 
  39      AE5E0683 
  39      29562DA9 
  40 00c2 BEC19EC1 		.ascii	"\276\301\236\301\372\231y\3119\245)\251\372`-\311\271"
  40      FA9979C9 
  40      39A529A9 
  40      FA602DC9 
  40      B9
  41 00d3 6EA579C9 		.ascii	"n\245y\311@]\034\311\005\305\231)\012\231\014\354\271"
  41      405D1CC9 
  41      05C59929 
  41      0A990CEC 
  41      B9
  42 00e4 A9B9F945 		.ascii	"\251\271\371E\225\014\000?\304L\322"
  42      950C003F 
  42      C44CD2
  43              		.text
  44              		.section	.gnu.lto_port_unlock.7b24dcd268b6a645,"",%progbits
  45 0000 789C6362 		.ascii	"x\234cb`b@\007\"@<\035\210\253A\034f\006F\240\012F&"
  45      60624007 
  45      22403C1D 
  45      88AB411C 
  45      660646A0 
  46 0017 46462087 		.ascii	"FF \207\221\241\236\211\261>\222\021\254l=\323\201\007"
  46      91A19E89 
  46      B13E9211 
  46      AC6C3DD3 
  46      8107
  47 0029 FFFFAFBB 		.ascii	"\377\377\257\2736m\371\033\306[L 1V\206\226\206\206"
  47      366DF91B 
  47      C65B4C20 
  47      31568696 
  47      8686
  48 003b 090A0C0C 		.ascii	"\011\012\014\014\311`\025!`2\024\244\237\371\034C\343"
  48      C9601521 
  48      603214A4 
  48      9FF91C43 
  48      E3
  49 004c C7B7BBAE 		.ascii	"\307\267\273\2561\302\225\200\031\015\007N_\373\312"
  49      31C29580 
  49      190D074E 
  49      5FFBCA
  50 005b CCC090C8 		.ascii	"\314\300\220\310\270\020(\223\314\0101\030hM63\304]"
  50      B8102893 
  50      CC083118 
  50      684D3633 
  50      C45D
  51 006d 720C2573 		.ascii	"r\014%s\033f8dB%\030.24>X\247\015Q\016\003! m \325F"
  51      1B663864 
  51      4225182E 
  51      32343E58 
  51      A70D510E 
  52 0088 FA19F9B9 		.ascii	"\372\031\371\271\251\372\251i\251\372\316\031\231I\231"
  52      A9FAA969 
  52      A9FACE19 
  52      994999
  53 0097 FEC1FAF9 		.ascii	"\376\301\372\371\305\372E%\372\005\371E%\305\372\216"
ARM GAS  /tmp/ccI5eHJN.s 			page 4


  53      C5FA4525 
  53      FA05F945 
  53      25C5FA8E 
  54 00a7 41BECEBE 		.ascii	"A\276\316\276\025\372\311\031\311\371E\251\361ef\271"
  54      15FAC919 
  54      C9F945A9 
  54      F16566B9 
  55 00b7 7A190CA6 		.ascii	"z\031\014\246X\265\244V\224\350;\373\006{\006\353g\346"
  55      58B5A456 
  55      94E83BFB 
  55      067B06EB 
  55      67E6
  56 00c9 25E794A6 		.ascii	"%\347\224\246\244\352\203\265$\347\272\225\346%\003"
  56      A4EA83B5 
  56      24E7BA95 
  56      E62503
  57 00d8 75712417 		.ascii	"uq$\027\024g\246*d2\260\347\246\346\346\027U2\000\000"
  57      1467A62A 
  57      6432B0E7 
  57      A6E6E617 
  57      55320000 
  58 00ec DC484D98 		.ascii	"\334HM\230"
  59              		.text
  60              		.section	.gnu.lto_queue_init.7b24dcd268b6a645,"",%progbits
  61 0000 789C6362 		.ascii	"x\234cb`b@\007\"@|\032\210\265A\034f\006F\240\012F&"
  61      60624007 
  61      22407C1A 
  61      88B5411C 
  61      660646A0 
  62 0017 46462087 		.ascii	"FF \207\221\241\236\211\261>\222\021\254l=\323\201\007"
  62      91A19E89 
  62      B13E9211 
  62      AC6C3DD3 
  62      8107
  63 0029 FFFFAFFB 		.ascii	"\377\377\257\373\362\354\3051\306}\233Y\200*r\301\022"
  63      F2ECC531 
  63      C67D9B59 
  63      802A72C1 
  63      12
  64 003a AC0C2D0D 		.ascii	"\254\014-\015\015\023\024\030\030\222\301\334\0200\031"
  64      0D131418 
  64      1892C1DC 
  64      103019
  65 0049 0A3285F9 		.ascii	"\0122\205\371,C\323\351\031\357{\344\023\031\0272\262"
  65      2C43D3E9 
  65      19EF7BE4 
  65      13191732 
  65      B2
  66 005a 02CD5FD5 		.ascii	"\002\315_\325\000\004\274\231\214\014\263\031f1f22\246"
  66      0004BC99 
  66      8C0CB319 
  66      66316632 
  66      32A6
  67 006c 33324600 		.ascii	"32F\000i\210\223\222 \3260\244\203\254\006\351\334A"
  67      69889392 
  67      20D630A4 
  67      83AC06E9 
ARM GAS  /tmp/ccI5eHJN.s 			page 5


  67      DC41
  68 007e BC4E4684 		.ascii	"\274NF\204\316\213\014\215\017\200\316\203h\204\201"
  68      CE8B0C8D 
  68      0F80CE83 
  68      688481
  69 008d 10900C48 		.ascii	"\020\220\014H\261\246~F~n\252~jZ\252\276sFfR\246\177"
  69      B1A67E46 
  69      7E6EAA7E 
  69      6A5AAABE 
  69      73466652 
  70 00a3 B07E7EB1 		.ascii	"\260~~\261~Q\211~f^rNiJ\252~rFqrF\212^\006\003\000\310"
  70      7E51897E 
  70      665E724E 
  70      694AAA7E 
  70      72467172 
  71 00be 703C4C   		.ascii	"p<L"
  72              		.text
  73              		.section	.gnu.lto_chSysLock.7b24dcd268b6a645,"",%progbits
  74 0000 789C6362 		.ascii	"x\234cb`b@\007\"@\\\006\304Z \0163\003#P\005#\023##"
  74      60624007 
  74      22405C06 
  74      C45A200E 
  74      33032350 
  75 0019 90C3C850 		.ascii	"\220\303\310P\317\304X\037\311\010V\266\236\351\300"
  75      CFC4581F 
  75      C90856B6 
  75      9EE9C0
  76 0028 83FFFFD7 		.ascii	"\203\377\377\327}\271\266\354\017\343m&\220\030+CKC"
  76      7DB9B6EC 
  76      0FE36D26 
  76      90182B43 
  76      4B43
  77 003a C3040506 		.ascii	"\303\004\005\006\206d\260\212\0200\031\012\322\317|"
  77      8664B08A 
  77      1030190A 
  77      D2CF7C
  78 0049 9EA1F9C1 		.ascii	"\236\241\371\301\236n\366D\306\205\214\254@\301j\206"
  78      9E6EF644 
  78      C6858CAC 
  78      40C16A86 
  79 0059 5F0D1D0D 		.ascii	"_\015\035\015\002\231\214@\245\020\3232A\364E\206\306"
  79      02998C40 
  79      A510D332 
  79      41F44586 
  79      C6
  80 006a 07FBB561 		.ascii	"\007\373\265a\212  \004$\001r\244\206~F~n\252~jZ\252"
  80      8A202004 
  80      240172A4 
  80      867E467E 
  80      6EAA7E6A 
  81 0080 BE734666 		.ascii	"\276sFfR\246\177\260~~\261~Q\211~f^rNiJ\252~rFqe\261"
  81      52A67FB0 
  81      7E7EB17E 
  81      51897E66 
  81      5E724E69 
  82 009c 5E060300 		.ascii	"^\006\003\000\376\375*9"
  82      FEFD2A39 
ARM GAS  /tmp/ccI5eHJN.s 			page 6


  83              		.text
  84              		.section	.gnu.lto_chSysUnlock.7b24dcd268b6a645,"",%progbits
  85 0000 789C6362 		.ascii	"x\234cb`b@\007\322@\334\301\310\300\240\005\342\260"
  85      60624007 
  85      D240DCC1 
  85      C8C0A005 
  85      E2B0
  86 0012 30300255 		.ascii	"00\002U0212\003IfF\2400\003#C=\0233c}$\210\315\300\246"
  86      30323132 
  86      03496646 
  86      A0300323 
  86      433D1333 
  87 002d C4B0B0A1 		.ascii	"\304\260\260\241a\322\203\247\337gIv-h\232\320\360\357"
  87      61D283A7 
  87      DF674976 
  87      2D689AD0 
  87      F0EF
  88 003f FF7FC64C 		.ascii	"\377\177\306L\220T2#C\004\220\305\250\000\246\230XP"
  88      90543223 
  88      430490C5 
  88      A800A698 
  88      5850
  89 0051 2D81686B 		.ascii	"-\201hk\330\264\242\201sA\303\237\377\377\231\311\323"
  89      D8B4A281 
  89      7341C39F 
  89      FFFF99C9 
  89      D3
  90 0062 C33C58EC 		.ascii	"\303<X\354\311edX\317t\340\301\377\377ov\356|\364\206"
  90      C9656458 
  90      CF74E0C1 
  90      FFFF6F76 
  90      EE7CF486 
  91 0076 5114640B 		.ascii	"Q\024d\013+CKC\303\004\205\\\250\215@\020\002%\201A"
  91      2B434B43 
  91      C304855C 
  91      A88D4010 
  91      02258141 
  92 008a CA1C0A32 		.ascii	"\312\034\0122\224\371<C\363\203\327\247\331\023\031"
  92      94F93C43 
  92      F383D7A7 
  92      D91319
  93 0099 9731B202 		.ascii	"\2271\262\002\245\252\031~5t4\010d2\262$\203\303\232"
  93      A5AA197E 
  93      35743408 
  93      6432B224 
  93      83C39A
  94 00ac 81211324 		.ascii	"\201!\023$~\221\241\361\301\033m\230\"\010\010\001)"
  94      7E91A1F1 
  94      C11B6D98 
  94      22080801 
  94      29
  95 00bd 00C59E86 		.ascii	"\000\305\236\206~F~n\252~jZ\252\276sFfR\246\177\260"
  95      7E467E6E 
  95      AA7E6A5A 
  95      AABE7346 
  95      6652A67F 
  96 00d2 7E7EB17E 		.ascii	"~~\261~Q\211~f^rNiJ\252~rFqe\261^\006\003\000\303\313"
ARM GAS  /tmp/ccI5eHJN.s 			page 7


  96      51897E66 
  96      5E724E69 
  96      4AAA7E72 
  96      467165B1 
  97 00ec 66D2     		.ascii	"f\322"
  98              		.text
  99              		.section	.gnu.lto_chThdQueueObjectInit.7b24dcd268b6a645,"",%progbits
 100 0000 789C6362 		.ascii	"x\234cb`b@\007\"@\\\007\304z \0163\003#P\005#\023##"
 100      60624007 
 100      22405C07 
 100      C47A200E 
 100      33032350 
 101 0019 90C3C850 		.ascii	"\220\303\310P\317\304X\037\311\010V\266\236\351\300"
 101      CFC4581F 
 101      C90856B6 
 101      9EE9C0
 102 0028 83FFFFD7 		.ascii	"\203\377\377\327\335\271\264\177\016\343i&\240\202\\"
 102      DDB9B47F 
 102      0EE36926 
 102      A0825C
 103 0037 B0382B43 		.ascii	"\2608+CKC\303\004\005\006\206d07\004L\206\202\014a>"
 103      4B43C304 
 103      05068664 
 103      3037044C 
 103      86820C61 
 104 004c CFD0F260 		.ascii	"\317\320\362`\307J\366D\306\205\214\254@\301j\206_\015"
 104      C74AF644 
 104      C6858CAC 
 104      40C16A86 
 104      5F0D
 105 005e 1D0D0299 		.ascii	"\035\015\002\231\214@\245\020#\323\031\0313A\314\213"
 105      8C40A510 
 105      23D31919 
 105      3341CC8B 
 106 006e 0C8D0F76 		.ascii	"\014\215\017vj\302\324A@\010H\002\344X\035\375\214\374"
 106      6AC2D441 
 106      40084802 
 106      E4581DFD 
 106      8CFC
 107 0080 DC54FDD4 		.ascii	"\334T\375\324\264T}\347\214\314\244L\377`\375\374b\375"
 107      B4547DE7 
 107      8CCCA44C 
 107      FF60FDFC 
 107      62FD
 108 0092 A212FDCC 		.ascii	"\242\022\375\314\274\344\234\322\224T\375\344\214\222"
 108      BCE49CD2 
 108      9454FDE4 
 108      8C92
 109 00a0 8CA2D4C4 		.ascii	"\214\242\324\304\224b\275\014\006\000\\\336,O"
 109      9462BD0C 
 109      06005CDE 
 109      2C4F
 110              		.text
 111              		.section	.gnu.lto_osalSysLock.7b24dcd268b6a645,"",%progbits
 112 0000 789C6362 		.ascii	"x\234cb`b@\007\"@\\\006\304Z \0163\003#P\005#\023##"
 112      60624007 
 112      22405C06 
ARM GAS  /tmp/ccI5eHJN.s 			page 8


 112      C45A200E 
 112      33032350 
 113 0019 90C3C850 		.ascii	"\220\303\310P\317\304X\037\311\010V\266\236\351\300"
 113      CFC4581F 
 113      C90856B6 
 113      9EE9C0
 114 0028 83FFFFD7 		.ascii	"\203\377\377\327m\233\277\374\015\343_&\220\030+CKC"
 114      6D9BBFFC 
 114      0DE35F26 
 114      90182B43 
 114      4B43
 115 003a C3040506 		.ascii	"\303\004\005\006\206d\260\212\0200\031\012\322\317|"
 115      8664B08A 
 115      1030190A 
 115      D2CF7C
 116 0049 9EA1F9C1 		.ascii	"\236\241\371\301\335~\366D\306\205\214\254@\301j\206"
 116      DD7EF644 
 116      C6858CAC 
 116      40C16A86 
 117 0059 5F0D1D0D 		.ascii	"_\015\035\015\002\231\214@\245\020\3232A\364E\206\306"
 117      02998C40 
 117      A510D332 
 117      41F44586 
 117      C6
 118 006a 07F7F461 		.ascii	"\007\367\364a\212  \004$\001r\244\206~F~n\252~jZ\252"
 118      8A202004 
 118      240172A4 
 118      867E467E 
 118      6EAA7E6A 
 119 0080 BE734666 		.ascii	"\276sFfR\246\177\260~~\261~Fb\016\220\002\022E%`Z/\203"
 119      52A67FB0 
 119      7E7EB17E 
 119      46620E90 
 119      02124525 
 120 0098 0100DBCC 		.ascii	"\001\000\333\314)\323"
 120      29D3
 121              		.text
 122              		.section	.gnu.lto_osalSysUnlock.7b24dcd268b6a645,"",%progbits
 123 0000 789C6362 		.ascii	"x\234cb`b@\007\"@\\\006\304Z \0163\003#P\005#\023##"
 123      60624007 
 123      22405C06 
 123      C45A200E 
 123      33032350 
 124 0019 90C3C850 		.ascii	"\220\303\310P\317\304X\037\311\010V\266\236\351\300"
 124      CFC4581F 
 124      C90856B6 
 124      9EE9C0
 125 0028 83FFFFD7 		.ascii	"\203\377\377\327\335\231\277f\016\343\177&\220\030+"
 125      DD99BF66 
 125      0EE37F26 
 125      90182B
 126 0037 434B43C3 		.ascii	"CKC\303\004\005\006\206d\260\212\0200\031\012\322\317"
 126      04050686 
 126      64B08A10 
 126      30190AD2 
 126      CF
 127 0048 7C9EA1F9 		.ascii	"|\236\241\371\301\217\363\354\211\214\013\031Y\201\202"
ARM GAS  /tmp/ccI5eHJN.s 			page 9


 127      C18FF3EC 
 127      898C0B19 
 127      598182
 128 0057 D50CBF1A 		.ascii	"\325\014\277\032:\032\0042\031\201J!\246e\202\350\213"
 128      3A1A0432 
 128      19814A21 
 128      A66582E8 
 128      8B
 129 0068 0C8D0F7E 		.ascii	"\014\215\017~\352\303\024A@\010H\002\344H\015\375\214"
 129      EAC31441 
 129      40084802 
 129      E4480DFD 
 129      8C
 130 0079 FCDC54FD 		.ascii	"\374\334T\375\324\264T}\347\214\314\244L\377`\375\374"
 130      D4B4547D 
 130      E78CCCA4 
 130      4CFF60FD 
 130      FC
 131 008a 62FD8CC4 		.ascii	"b\375\214\304\034 \005$\212J\300\264^\006\003\000\364"
 131      1C200524 
 131      8A4AC0B4 
 131      5E060300 
 131      F4
 132 009b 602A26   		.ascii	"`*&"
 133              		.text
 134              		.section	.gnu.lto_osalThreadQueueObjectInit.7b24dcd268b6a645,"",%progbits
 135 0000 789C6362 		.ascii	"x\234cb`b@\007\"@\334\000\304Z \0163\003#P\005#\023"
 135      60624007 
 135      2240DC00 
 135      C45A200E 
 135      33032350 
 136 0017 232390C3 		.ascii	"##\220\303\310P\317\304X\037\311\010V\266\236\351\300"
 136      C850CFC4 
 136      581FC908 
 136      56B69EE9 
 136      C0
 137 0028 83FFFFD7 		.ascii	"\203\377\377\327]z\377@\342\314_7\240\202\\\2608+CK"
 137      5D7AFF40 
 137      E2CC5F37 
 137      A0825CB0 
 137      382B434B 
 138 003c 43C30405 		.ascii	"C\303\004\005\006\206d07\004L\206\202\014a>\317\320"
 138      06866430 
 138      37044C86 
 138      820C613E 
 138      CFD0
 139 004e F2E0F5F6 		.ascii	"\362\340\365\366=\214\211\214\013\031Y\201\242\325\014"
 139      3D8C898C 
 139      0B195981 
 139      A2D50C
 140 005d BF1A3A1A 		.ascii	"\277\032:\032\0042\031\201j!f\24632f\202\230\027\031"
 140      04321981 
 140      6A2166A6 
 140      33326682 
 140      981719
 141 0070 1A1FBCD9 		.ascii	"\032\037\274\331\316\002S\010\001! \031\220s5\3643\362"
 141      CE025308 
ARM GAS  /tmp/ccI5eHJN.s 			page 10


 141      01212019 
 141      907335F4 
 141      33F2
 142 0082 7353F553 		.ascii	"sS\365S\323R\365\23532\2232\375\203\365\363\213\365"
 142      D352F59D 
 142      33329332 
 142      FD83F5F3 
 142      8BF5
 143 0094 33127380 		.ascii	"3\022s\200\024\220(*\001\323z\031\014\000\375?-\036"
 143      1490282A 
 143      01D37A19 
 143      0C00FD3F 
 143      2D1E
 144              		.text
 145              		.section	.gnu.lto_osalThreadDequeueAllI.7b24dcd268b6a645,"",%progbits
 146 0000 789C6362 		.ascii	"x\234cb`b@\007\"@\334\001\304Z \0163\003#P\005#\023"
 146      60624007 
 146      2240DC01 
 146      C45A200E 
 146      33032350 
 147 0017 232390C3 		.ascii	"##\220\303\310P\317\304X\037\311\010V\266\236\351\300"
 147      C850CFC4 
 147      581FC908 
 147      56B69EE9 
 147      C0
 148 0028 83FFFFD7 		.ascii	"\203\377\377\327m\370|Cr\317lwfF\306\\F\006& \001\222"
 148      6DF87C43 
 148      72CF6C77 
 148      6646C65C 
 148      46062620 
 149 003e 65656869 		.ascii	"eehih\230\240\300\300\220\014V\033\002&CA&1\237gh}p"
 149      6898A0C0 
 149      C0900C56 
 149      1B022643 
 149      4126319F 
 150 0056 6BE71AC6 		.ascii	"k\347\032\306D\306\205\214\254@\321j\206_\015\035\015"
 150      44C6858C 
 150      AC40D16A 
 150      865F0D1D 
 150      0D
 151 0067 02998C40 		.ascii	"\002\231\214@\265\020\203\323\031\031\323\031\2312A"
 151      B51083D3 
 151      1919D319 
 151      993241
 152 0076 BC8B0C8D 		.ascii	"\274\213\014\215\017n\357d\201\251\205\200\020\220\014"
 152      0F6EEF64 
 152      81A98580 
 152      10900C
 153 0085 C8D91AFA 		.ascii	"\310\331\032\372\031\371\271\251\372\251i\251\372\316"
 153      19F9B9A9 
 153      FAA969A9 
 153      FACE
 154 0093 19994999 		.ascii	"\031\231I\231\376\301\372\371\305\372\031\2119@\012"
 154      FEC1FAF9 
 154      C5FA1989 
 154      39400A
 155 00a2 48149580 		.ascii	"H\024\225\200i\275\014\006\000\203\035-@"
ARM GAS  /tmp/ccI5eHJN.s 			page 11


 155      69BD0C06 
 155      00831D2D 
 155      40
 156              		.text
 157              		.section	.gnu.lto_osalThreadDequeueNextI.7b24dcd268b6a645,"",%progbits
 158 0000 789C6362 		.ascii	"x\234cb`b@\007\"@\334\001\304Z \0163\003#P\005#\023"
 158      60624007 
 158      2240DC01 
 158      C45A200E 
 158      33032350 
 159 0017 232390C3 		.ascii	"##\220\303\310P\317\304X\037\311\010V\266\236\351\300"
 159      C850CFC4 
 159      581FC908 
 159      56B69EE9 
 159      C0
 160 0028 83FFFFD7 		.ascii	"\203\377\377\327}\373\364@\362\315twfF\306\\F\006& "
 160      7DFBF440 
 160      F2CD7477 
 160      6646C65C 
 160      46062620 
 161 003c 01926565 		.ascii	"\001\222eehih\230\240\300\300\220\014V\033\002&CA&1"
 161      68696898 
 161      A0C0C090 
 161      0C561B02 
 161      26434126 
 162 0051 9F67687D 		.ascii	"\237gh}\260w\347\006\306D\306\205\214\254@\321j\206"
 162      B077E706 
 162      C644C685 
 162      8CAC40D1 
 162      6A86
 163 0063 5F0D1D0D 		.ascii	"_\015\035\015\002\231\214@\265\020\203\323\031\031\323"
 163      02998C40 
 163      B51083D3 
 163      1919D3
 164 0072 19993241 		.ascii	"\031\2312A\274\213\014\215\017\366\355d\201\251\205"
 164      BC8B0C8D 
 164      0FF6ED64 
 164      81A985
 165 0081 8010900C 		.ascii	"\200\020\220\014\310\331\032\372\031\371\271\251\372"
 165      C8D91AFA 
 165      19F9B9A9 
 165      FA
 166 008e A969A9FA 		.ascii	"\251i\251\372\316\031\231I\231\376\301\372\371\305\372"
 166      CE199949 
 166      99FEC1FA 
 166      F9C5FA
 167 009d 19893940 		.ascii	"\031\2119@\012H\024\225\200i\275\014\006\000\275W-\203"
 167      0A481495 
 167      8069BD0C 
 167      0600BD57 
 167      2D83
 168              		.text
 169              		.section	.gnu.lto_osalThreadEnqueueTimeoutS.7b24dcd268b6a645,"",%progbits
 170 0000 789C6362 		.ascii	"x\234cb`b@\007\322@|\003\210\265@\034\026\006F\240\012"
 170      60624007 
 170      D2407C03 
 170      88B5401C 
ARM GAS  /tmp/ccI5eHJN.s 			page 12


 170      160646A0 
 171 0015 46264666 		.ascii	"F&Ff \311\314\310\010\024bd\250gbf\254\217\004\261\031"
 171      20C9CCC8 
 171      08146264 
 171      A8676266 
 171      AC8F04B1 
 172 002a 18951816 		.ascii	"\030\225\030\02664\314x\320\272\252\217y\346\224\003"
 172      3634CC78 
 172      D0BAAA8F 
 172      79E69403 
 173 003a 2D0B1AFE 		.ascii	"-\013\032\376\374\377\317\310\230\011\222Lfd\210\000"
 173      FCFFCFC8 
 173      9809924C 
 173      66648800 
 174 004a B21815C0 		.ascii	"\262\030\025\300\024\023\013\2525\353\231\016<\370\377"
 174      14130BAA 
 174      35EB990E 
 174      3CF8FF
 175 0059 FFCDE4E3 		.ascii	"\377\315\344\343\373\3470\236Rfad\314ed`\002\022@\233"
 175      FBE7309E 
 175      52666164 
 175      CC656460 
 175      0212409B 
 176 006d C0BA1958 		.ascii	"\300\272\031X\031Z\032\032&(\200\315\001\202\0200\031"
 176      195A1A1A 
 176      262880CD 
 176      01821030 
 176      19
 177 007e 0A720EF3 		.ascii	"\012r\016\363y\206\326\007+v\362$2.bdeHgd\256f\370\325"
 177      7986D607 
 177      2B76F224 
 177      322E6264 
 177      65486764 
 178 0096 D0D12090 		.ascii	"\320\321 \220\311\310\234\014v\"\003P\2201\235\221)"
 178      C9C89C0C 
 178      76220350 
 178      90319D91 
 178      29
 179 00a7 93116A69 		.ascii	"\223\021ji(\310\375\314\247\031\0329\030\030R@F\\d`"
 179      28C8FDCC 
 179      A7191A39 
 179      18185240 
 179      465C6460 
 180 00bb 84EB8628 		.ascii	"\204\353\206(\011\001\351\004\205\206\206~F~n\252~j"
 180      0901E904 
 180      8586867E 
 180      467E6EAA 
 180      7E6A
 181 00cd 5AAABE73 		.ascii	"Z\252\276sFfR\246\177\260~~\261~Fb\016\220\002\022E"
 181      466652A6 
 181      7FB07E7E 
 181      B17E4662 
 181      0E900212 
 182 00e2 25605A2F 		.ascii	"%`Z/\203\001\000I\321:\356"
 182      83010049 
 182      D13AEE
 183              		.text
ARM GAS  /tmp/ccI5eHJN.s 			page 13


 184              		.section	.gnu.lto_iqObjectInit.7b24dcd268b6a645,"",%progbits
 185 0000 789C8D91 		.ascii	"x\234\215\221;K\003A\020\307gv\357\362\022\301BA\273"
 185      3B4B0341 
 185      10C76776 
 185      EFF212C1 
 185      4241BB
 186 0013 A09D8AF7 		.ascii	"\240\235\212\367\005\354\374\000\026F\320J\222p&\007"
 186      05ECFC00 
 186      1646D04A 
 186      92702607 
 187 0023 86A0218D 		.ascii	"\206\240!\215)\262y\024\342\003\202\"\021\005\243\210"
 187      29B27914 
 187      E2038222 
 187      1105A388 
 188 0033 8D16B629 		.ascii	"\215\026\266),\202\205 \022\214\235e0\275\226j\012\317"
 188      2C828520 
 188      128C9D65 
 188      30BD966A 
 188      0ACF
 189 0045 D9DC052E 		.ascii	"\331\334\005.z`\006ngfo~\377\231\335e\300\340\267\015"
 189      7A60066E 
 189      67666F7E 
 189      FF99DD65 
 189      C0E0B70D 
 190 0059 D3F745DB 		.ascii	"\323\367E\333\3232\341\200\024\"C\244\004!\3130\273"
 190      D332E180 
 190      142243A4 
 190      0421CB30 
 190      BB
 191 006a 2C4360E3 		.ascii	",C`\343p.\304~\363\262r:\266}\226/\211o\323DC\376\212"
 191      702EC47E 
 191      F3B2723A 
 191      B67D962F 
 191      896FD344 
 192 0081 222C5184 		.ascii	"\",Q\204\301\216cJ\257\272\205\325\016\357\313N\214"
 192      C18E634A 
 192      AFBA85D5 
 192      0EEFCB4E 
 192      8C
 193 0092 FF87DDB0 		.ascii	"\377\207\335\260Z\3234o\337\313o\243\350CL \015N\335"
 193      5AD3346F 
 193      DFCB6FA3 
 193      E8434C20 
 193      0D4EDD
 194 00a5 3845A8D0 		.ascii	"8E\250\320\302TJ\271\207\"\356\245E\322*\024\205(\005"
 194      C2544AB9 
 194      8722EEA5 
 194      45D22A14 
 194      852805
 195 00b8 3BCA64A1 		.ascii	";\312d\241\316\272(\217\303\353\220o\027>Z<\214\027"
 195      CEBA288F 
 195      C3EB906F 
 195      173E5A3C 
 195      8C17
 196 00ca A8420C59 		.ascii	"\250B\014Y\0066Im\012\256\004\331\001\365WN\340\230"
 196      0636496D 
 196      0AAE04D9 
ARM GAS  /tmp/ccI5eHJN.s 			page 14


 196      01F5574E 
 196      E098
 197 00dc 9C1A4394 		.ascii	"\234\032C\224\343x:CD\3201\321\023\024k\263\226\000"
 197      E3783A43 
 197      44D031D1 
 197      13146BB3 
 197      9600
 198 00ee 4006DA62 		.ascii	"@\006\332bK\014\031\350\215\242UD\242\006\372\000\352"
 198      4B0C19E8 
 198      8DA25544 
 198      A206FA00 
 198      EA
 199 00ff 70577DA9 		.ascii	"pW}\251\214X\205\262A1'\006\015\364\273\353[\254\334"
 199      8C5885B2 
 199      41312706 
 199      0DF4BBEB 
 199      5BACDC
 200 0112 F1CB80E6 		.ascii	"\361\313\200\346|\374t\302d\004sw\230\331\215\271\005"
 200      7CFC74C2 
 200      64047377 
 200      98D98DB9 
 200      05
 201 0123 1EBD3658 		.ascii	"\036\2756X\237$\357%\253\375\223\212\223,\354\024\256"
 201      9F24EF25 
 201      ABFD938A 
 201      932CEC14 
 201      AE
 202 0134 77B5EEA5 		.ascii	"w\265\356\245R)\217\311\002\222|h\004\372\024TmA\325"
 202      52298FC9 
 202      02927C68 
 202      04FA1454 
 202      6D41D5
 203 0147 3EBDCB28 		.ascii	">\275\313(\001w\322c\223\036\373\370\255\277\344\200"
 203      0177D263 
 203      931EFBF8 
 203      ADBFE480 
 204 0157 3BE9B549 		.ascii	";\351\265I\362\317\220k\356Mt\237\325\262\220|\026y"
 204      F2CF906B 
 204      EE4D749F 
 204      D5B2907C 
 204      1679
 205 0169 B9935A3C 		.ascii	"\271\223Z<\231\3205}U\327\346\342F\304\230_\320\222"
 205      99D0357D 
 205      55D7E6E2 
 205      46C4985F 
 205      D092
 206 017b 292D1E5E 		.ascii	")-\036^\323R\033Q\351W\326\323zZO\315D\341\007\221\010"
 206      D3521B51 
 206      E957D6D3 
 206      7A5A4FCD 
 206      44E10791 
 207 0190 B09E     		.ascii	"\260\236"
 208              		.text
 209              		.section	.gnu.lto_iqResetI.7b24dcd268b6a645,"",%progbits
 210 0000 789C6362 		.ascii	"x\234cb`b@\007\"@<\013(\254\003\342030\002\231\214L"
 210      60624007 
 210      22403C0B 
ARM GAS  /tmp/ccI5eHJN.s 			page 15


 210      28AC03E2 
 210      30333002 
 211 0017 8C8C400E 		.ascii	"\214\214@\016#C=\023c}$#XB\211aaC\303\244\007G_\277"
 211      23433D13 
 211      637D2423 
 211      58428961 
 211      6143C3A4 
 212 002f 609A39E5 		.ascii	"`\2329\345@\313\202\206?\377\37732f\202$\223\031\031"
 212      40CB8286 
 212      3FFFFF33 
 212      32668224 
 212      931919
 213 0042 22802C46 		.ascii	"\"\200,F\0050\305\304\202j>D\343\201{\307z\270&4v4\374"
 213      0530C5C4 
 213      826A3E44 
 213      E3817BC7 
 213      7AB82634 
 214 0059 FF5F4FBC 		.ascii	"\377_O\274\246\317ms$\273\0264Mh\370\007\264,\223\221"
 214      A6CF6D73 
 214      24BB1634 
 214      4D68F807 
 214      B42C9391 
 215 006d 9990B6F5 		.ascii	"\231\220\266\365L\007\036\374\377\277f\353\232G\273"
 215      4C071EFC 
 215      FFBF66EB 
 215      9A47BB
 216 007c 18055919 		.ascii	"\030\005Y\031\031s\031\201\036\006Z\307\014\"X\030\300"
 216      19731981 
 216      1E065AC7 
 216      0C225818 
 216      C0
 217 008d 2630B032 		.ascii	"&0\2602\26444LP\000\233\005\004!`2\024\344o\346\263"
 217      B434344C 
 217      50009B05 
 217      04216032 
 217      14E46FE6 
 218 00a2 0C4DB76E 		.ascii	"\014M\267n\000}\230\310\270\204\221\225!\235\221I\233"
 218      007D98C8 
 218      B8849195 
 218      219D9149 
 218      9B
 219 00b3 410BA873 		.ascii	"A\013\250s6\303,\240e,\351\214\214 KY\301V%1\302,\005"
 219      36C32CA0 
 219      652CE98C 
 219      8C204B59 
 219      C1562531 
 220 00ca 6A3A3981 		.ascii	"j:9\201\013\242E\233aU\003\020\360\342\324\004\321\225"
 220      0BA2459B 
 220      61550310 
 220      F0E2D404 
 220      D195
 221 00dc 0EB20D64 		.ascii	"\016\262\015d\331\017$\313\230\251n\031\023\3242f\220"
 221      D90F24CB 
 221      98A96E19 
 221      13D43266 
 221      90
 222 00ed BE433B66 		.ascii	"\276C;f\274\273\300\204\320\331\322\010\322\311\206"
ARM GAS  /tmp/ccI5eHJN.s 			page 16


 222      BCBBC084 
 222      D0D9D208 
 222      D2C986
 223 00fc 5D273398 		.ascii	"]'3\230\006\211\260Am\375\325\374\274\327\002\346T\226"
 223      0689B041 
 223      6DFDD5FC 
 223      BCD702E6 
 223      5496
 224 010e 6A86AA4C 		.ascii	"j\206\252L\220\203\301\016\250\316dd\307n\014R\364\234"
 224      9083C10E 
 224      A8CE6464 
 224      C76E0C52 
 224      F49C
 225 0120 67683D00 		.ascii	"gh=\000\325\317\300P\315\360\253\241\243A \223\221#"
 225      D5CFC050 
 225      CDF0ABA1 
 225      A3412093 
 225      9123
 226 0132 191E222C 		.ascii	"\031\036\", \215\234\300\210\206\000F`2\341b`\270\310"
 226      208D9CC0 
 226      88860046 
 226      6032E162 
 226      60B8C8
 227 0145 D0F86097 		.ascii	"\320\370`\2272L\037\004\204\200\364\200\374\246\245"
 227      324C1F04 
 227      8480F480 
 227      FCA6A5
 228 0154 9F919F9B 		.ascii	"\237\221\237\233\252\237\232\226\252\357\234\221\231"
 228      AA9F9A96 
 228      AAEF9C91 
 228      99
 229 0161 94E91FAC 		.ascii	"\224\351\037\254\237_\254\237\221\230\243_\\\224\014"
 229      9F5FAC9F 
 229      9198A35F 
 229      5C940C
 230 0170 A2E30B4B 		.ascii	"\242\343\013KSKS\213\365\222\031\000$<\243$"
 230      534B538B 
 230      F5921900 
 230      243CA324 
 231              		.text
 232              		.section	.gnu.lto_iqPutI.7b24dcd268b6a645,"",%progbits
 233 0000 789CBD56 		.ascii	"x\234\275VOH\024a\024\177o\376\354\314\316\356\272n"
 233      4F481461 
 233      147F6FFE 
 233      ECCCCEEE 
 233      BA6E
 234 0012 5AD44D3A 		.ascii	"Z\324M:\205\221k\320\241N\035:u*(\241\272\204\331\272"
 234      85916BD0 
 234      A14E1D3A 
 234      752A28A1 
 234      BA84D9BA 
 235 0026 0E255616 		.ascii	"\016%V\026D\022\316\346\206QD\322\245(\017z(\244CQ\247"
 235      4412CEE6 
 235      865144D2 
 235      A5280F7A 
 235      28A44351 
 236 003b 85088708 		.ascii	"\205\010\207\010\324DR\"J/E\004]$<\024\312\026N\357"
ARM GAS  /tmp/ccI5eHJN.s 			page 17


 236      D4445222 
 236      4A2F4504 
 236      5D243C14 
 236      CA164EEF 
 237 004f 7DF36747 		.ascii	"}\363gG\021w\012\352\203}\337\314{\357\367{\177\346"
 237      11770AEA 
 237      837DDFCC 
 237      7BEFF77B 
 237      7FE6
 238 0061 7D1F2B81 		.ascii	"}\037+\201\004\253\327)\372\235\326\001v\361K\022\220"
 238      04ABD729 
 238      FA9DD601 
 238      76F14B12 
 238      90
 239 0072 3C509264 		.ascii	"<P\222d\000KRI(\262\244\004\317\012\306\310\252\012"
 239      004B5249 
 239      28B2A404 
 239      CF0AC6C8 
 239      AA0A
 240 0084 199334D6 		.ascii	"\031\2234\326\353\254\3270A\032]\212\263\306`M\034i"
 240      EBACD730 
 240      411A5D8A 
 240      B3C6604D 
 240      1C69
 241 0096 4343E813 		.ascii	"CC\350\023\210D\215\320+\311\212\032\323\364\270\221"
 241      88448DD0 
 241      2BC98A1A 
 241      D3F4B891 
 242 00a6 C0DEA3AC 		.ascii	"\300\336\243\254\203\364V\030\266\254\201O\017\026K"
 242      83F45618 
 242      B6AC814F 
 242      0F164B
 243 00b5 5BAE0F5D 		.ascii	"[\256\017]\031\260\226\035\007M\2444w \264!\034\241"
 243      19B0961D 
 243      074DA434 
 243      7720B421 
 243      1CA1
 244 00c7 176C101B 		.ascii	"\027l\020\033\247\021^\002y\333z6b\305\207\254_\216"
 244      A7115E02 
 244      79DB7A36 
 244      62C587AC 
 244      5F8E
 245 00d9 239B4849 		.ascii	"#\233HI\377\027\214\022\021\363x\304\222}\214Z\301\350"
 245      FF178C12 
 245      11F378C4 
 245      927D8C5A 
 245      C1E8
 246 00eb 2E06D7C0 		.ascii	".\006\327\300\334\265_\214\275\036F\302\026\026\034"
 246      DCB55F8C 
 246      BD1E46C2 
 246      16161C
 247 00fa 276D72A7 		.ascii	"'mr\247\243\204\262\337\366O\206aQ3|\373\345\340\270"
 247      A384B2DF 
 247      F64F8661 
 247      51337CFB 
 247      E5E0B8
 248 010d 55B41D67 		.ascii	"U\264\035god\214\375nlE\250\250\015\234\011\205\372"
ARM GAS  /tmp/ccI5eHJN.s 			page 18


 248      6F648CFD 
 248      6E6C45A8 
 248      A80D9C09 
 248      85FA
 249 011f 871FCA7E 		.ascii	"\207\037\312~\337\1773<JQC\375\370\363\364\354\331\261"
 249      DF7F333C 
 249      4A5143FD 
 249      F8F3F4EC 
 249      D9B1
 250 0131 3B7F11CA 		.ascii	";\177\021\312\37686\030\206i\325`O$\373\223\343\014"
 250      FE383618 
 250      8669D560 
 250      4F24FB93 
 250      E30C
 251 0143 3EFFFEB9 		.ascii	">\377\376\271\214\231M\010\2558\214[\351\210\320t\310"
 251      8C994D08 
 251      AD388C5B 
 251      E988D074 
 251      C8
 252 0154 D889A0D0 		.ascii	"\330\211\240\320\223\254\262\210\221P4\317A\367\366"
 252      93ACB288 
 252      915034CF 
 252      41F7F6
 253 0163 38295583 		.ascii	"8)U\203\275\023lN\262H\261w\015\2134\213Z\242\301\014"
 253      BD136C4E 
 253      B248B177 
 253      0D8B348B 
 253      5AA2C10C 
 254 0177 3F6D6051 		.ascii	"?m`Q\307\242\236\204\266\021\304\010\202\012E:\246\015"
 254      C7A29E84 
 254      B611C408 
 254      820A453A 
 254      A60D
 255 0189 22535A87 		.ascii	"\"SZ\207\205l\341\273B\236\202+s\245\305\335\255\370"
 255      856CE1BB 
 255      429E822B 
 255      73A5C5DD 
 255      ADF8
 256 019b 94663C8F 		.ascii	"\224f<\217\312vh$\364}\270G\225\350y\224\271\242\270"
 256      CA766824 
 256      F47DB847 
 256      95E87994 
 256      B9A2B8
 257 01ae A8E34430 		.ascii	"\250\343D0\361\2049\346\003\324\365\000>b\034^}\305"
 257      F18439E6 
 257      03D4F500 
 257      3E621C5E 
 257      7DC5
 258 01c0 20449E4F 		.ascii	" D\236O\223\277Z\270\357\224\305\313\2001\266\035\036"
 258      93BF5AB8 
 258      EF94C5CB 
 258      8031B61D 
 258      1E
 259 01d1 59456231 		.ascii	"YEb1\326&\225\002\322\342|@\032c\217\025\215o\341W."
 259      D6269502 
 259      D2E27C40 
 259      1A638F15 
ARM GAS  /tmp/ccI5eHJN.s 			page 19


 259      8D6FE157 
 260 01e6 2FA84D63 		.ascii	"/\250Mc\037\300\300\256\256\262\353\302^\301\307\\\373"
 260      1FC0C0AE 
 260      AEB2EBC2 
 260      5EC1C75C 
 260      FB
 261 01f7 37D97788 		.ascii	"7\331w\210\347\271\"\216[H\005:\006\205\352\231\005"
 261      E7B9228E 
 261      5B48053A 
 261      0685EA99 
 261      05
 262 0208 A448CA45 		.ascii	"\244H\312E\242S\005\213\346\262\224>,n\3631\006cbt."
 262      A253058B 
 262      E6B2943E 
 262      2C6EF331 
 262      06636274 
 263 021d DC85BD7E 		.ascii	"\334\205\275~D\335m\305\\\251\334\354\373&\"vc\012\372"
 263      44DD6DC5 
 263      5CA9DCEC 
 263      FB262276 
 263      630AFA
 264 0230 AEF53D0C 		.ascii	"\256\365=\014\372\221$$\273\031(l/\367\273\006AV\260"
 264      FA912424 
 264      BB19286C 
 264      2FF7BB06 
 264      4156B0
 265 0243 5255E808 		.ascii	"RU\350\010/\276\362\334\207r\320\235T\304\311\230\030"
 265      2FBEF2DC 
 265      8772D09D 
 265      54C4C998 
 265      18
 266 0254 307C480D 		.ascii	"0|H\015\241Df7\202\026\246I\033\\\237\344\035\312\213"
 266      A1446637 
 266      8216A649 
 266      1B5C9FE4 
 266      1DCA8B
 267 0267 56BA4A00 		.ascii	"V\272J\000\302\013\324\344\202\027\203\234\013\204\323"
 267      C20BD4E4 
 267      8217839C 
 267      0B84D3
 268 0276 4C4C78C4 		.ascii	"LLx\304\262\347X\353\026\260T\236\016z\222\211X\301"
 268      B2E758EB 
 268      16B0549E 
 268      0E7A9289 
 268      58C1
 269 0288 DC748D0F 		.ascii	"\334t\215\017\331\260\036D\256\014\342\327\312@d\010"
 269      D9B01E44 
 269      AE0CE2D7 
 269      CA406408 
 270 0298 159EC2B8 		.ascii	"\025\236\302\270w\310\356\376\\\222|\237\272\365h\225"
 270      77C8EEFE 
 270      5C927C9F 
 270      BAF56895 
 271 02a8 4A2613D3 		.ascii	"J&\023\323\306\212\376\354\254\332\237:?\254\341\206"
 271      C68AFEEC 
 271      ACDA9F3A 
 271      3FACE186 
ARM GAS  /tmp/ccI5eHJN.s 			page 20


 272 02b8 2DF78DDE 		.ascii	"-\367\215\336\332\343\207\255\357\201Kt+xd\227ML\256"
 272      DAE387AD 
 272      EF814B74 
 272      2B786497 
 272      4D4CAE
 273 02cb 4D161AE7 		.ascii	"M\026\032\3477p\325\366\360\000=P\266\256Y\265&\246"
 273      3770D5F6 
 273      F0003D50 
 273      B6AE59B5 
 273      26A6
 274 02dd DABCA34D 		.ascii	"\332\274\243M\234\014\254\001\272h\334OS*-o\366\343"
 274      9C0CAC01 
 274      BA68DC4F 
 274      532A2D6F 
 274      F6E3
 275 02ef 6D14735E 		.ascii	"m\024s^i\005\375\233\220'\241@S~\222\007mF<\346\335"
 275      6905FD9B 
 275      9027A140 
 275      537E9207 
 275      6D463CE6 
 276 0304 999B0589 		.ascii	"\231\233\005\211\016\2066\377\274\236p\306\340h\222"
 276      0E8636FF 
 276      BC9E70C6 
 276      E06892
 277 0313 AF290AC2 		.ascii	"\257)\012\302\306\306lGWg.\233k\317e\367u\230'\314\003"
 277      C6C66C47 
 277      57672E9B 
 277      6BCF65F7 
 277      759827CC 
 278 0328 87B25DDD 		.ascii	"\207\262]\335\331\216\326\323\331\356sm\274\037?{!w"
 278      D98ED6D3 
 278      D9EE736D 
 278      BC1F3F7B 
 278      2177
 279 033a 21D7DDD4 		.ascii	"!\327\335\324\006\232\331~\276\363LS\363o\272\220\314"
 279      069AD97E 
 279      BEF34C53 
 279      F36FBA90 
 279      CC
 280 034b 29       		.ascii	")"
 281              		.text
 282              		.section	.gnu.lto_iqGetTimeout.7b24dcd268b6a645,"",%progbits
 283 0000 789C9D55 		.ascii	"x\234\235UMh\023A\024\236\267\233\354&\233\244ISQD\017"
 283      4D681341 
 283      149EB79B 
 283      EC269BA4 
 283      49535144 
 284 0015 E2B1A241 		.ascii	"\342\261\242A=\210'\017\236<)h\241z\2216\306\355\242"
 284      3D88270F 
 284      9E3C2968 
 284      A17A9136 
 284      C6EDA2
 285 0028 4534F4A2 		.ascii	"E4\364\242\207N\232\004J\252P\253\265U/\366\"b\261\225"
 285      874E9A04 
 285      4AAA50AB 
 285      B5552FF6 
 285      2262B195 
ARM GAS  /tmp/ccI5eHJN.s 			page 21


 286 003c 9C440FAE 		.ascii	"\234D\017\256b\241?\226Z\212h\353\245\240\322K\021\177"
 286      62A13F96 
 286      5A8A68EB 
 286      A5A0D24B 
 286      117F
 287 004e 285811D7 		.ascii	"(X\021\327\367f\273\233\215\004\273:\2207\223\231\357"
 287      F766BB9B 
 287      8D04BB3A 
 287      90379399 
 287      EF
 288 005f FBDE9B37 		.ascii	"\373\336\2337of%&\261?\333\031\374\215\205\030\333C"
 288      6F662526 
 288      B13FDB19 
 288      FC8D8518 
 288      DB43
 289 0071 7FA20C10 		.ascii	"\177\242\014\020\001\222$3\306\245\000\232\200\014\330"
 289      01922433 
 289      C6A5009A 
 289      800CD8
 290 0080 410054B4 		.ascii	"A\000T\264AI\241y\225\346\025\210\340\214*\005i&D3!"
 290      4149A179 
 290      95E61588 
 290      E08C2A05 
 290      69264433 
 291 0095 294C638D 		.ascii	")Lc\215\306a\300\0164\201\211\000\2404\260NI\016\004"
 291      C661C00E 
 291      34818900 
 291      A034B04E 
 291      490E04
 292 00a8 153514D6 		.ascii	"\0255\024\326\"\320y\234\346X|;\033\342\274o\2618<\013"
 292      22D0799C 
 292      E6587C3B 
 292      1BE2BC6F 
 292      B1383C0B 
 293 00bc 37AF9B85 		.ascii	"7\257\233\205;\374\247e\001\030\264\230\006\326\214"
 293      3BFCA765 
 293      0118B498 
 293      06D68C
 294 00cb 23D8263A 		.ascii	"#\330&:\012\306\333l\242\371\256tys\351NW/\377\205<"
 294      0AC6DB6C 
 294      A2F9AE74 
 294      7973E94E 
 294      572FFF85 
 295 00e0 FFB46FA5 		.ascii	"\377\264o\245\007^\232\354\2136h\256NN\015\001\357\343"
 295      075E9AEC 
 295      8B3668AE 
 295      4E4E0D01 
 295      EFE3
 296 00f2 B9CF9615 		.ascii	"\271\317\226\0257(1\276\274})]\361z\013\372\244]\355"
 296      372831BE 
 296      BC7D295D 
 296      F17A0BFA 
 296      A45DED
 297 0105 A9F2E693 		.ascii	"\251\362\346\223\306\347>\034\031\347\005\323\262\016"
 297      C6E73E1C 
 297      19E705D3 
 297      B20E
ARM GAS  /tmp/ccI5eHJN.s 			page 22


 298 0113 F877756D 		.ascii	"\370wum\252*B\305\247\253y\217+\277\234\362=\036\026"
 298      AA2A42C5 
 298      A7AB798F 
 298      2BBF9CF2 
 298      3D1E16
 299 0126 C72CFBE6 		.ascii	"\307,\373\346\230\375=\377\025\336\312\277\207g\016"
 299      98FD3DFF 
 299      15DECABF 
 299      87670E
 300 0135 4C0DFC87 		.ascii	"L\015\374\207+sn\362\312&\276\310\035\232*\261\235\340"
 300      2B736EF2 
 300      CA26BEC8 
 300      1D9A2AB1 
 300      9DE0
 301 0147 32433613 		.ascii	"2C6\023j0{\315\257\223\321\336\\7\267\254N,(\211\245"
 301      6A307BCD 
 301      AF93D1DE 
 301      5C37B7AC 
 301      4E2C2889 
 302 015c 601D87A3 		.ascii	"`\035\207\243\222\271hY\227_/\277\177\013\311\015\300"
 302      92B96859 
 302      975F2FBF 
 302      7F0BC90D 
 302      C0
 303 016d 8805EDC0 		.ascii	"\210\005\355\300d\034\261\000\231 \232\240\202FVq\001"
 303      641CB100 
 303      99209AA0 
 303      82465671 
 303      01
 304 017e BDB7C043 		.ascii	"\275\267\300C\330\316\302\004\325h-B&\212F\211\221\251"
 304      D8CEC204 
 304      D5682D42 
 304      268A4689 
 304      91A9
 305 0190 231347D4 		.ascii	"#\023G\324\010\242\022\364\247\236L\222L\003\023e\216"
 305      08A212F4 
 305      A79E4C92 
 305      4C031365 
 305      8E
 306 01a1 9A050C76 		.ascii	"\232\005\014v\233\215\0219\301vL\330&z2\344\031\226"
 306      9B8D1139 
 306      C1764CD8 
 306      267A32E4 
 306      1996
 307 01b3 5F1C1E53 		.ascii	"_\034\036S[\240LE\307.\261\037\274\233'\014\010\245"
 307      5BA04C45 
 307      C72EB11F 
 307      BC9B270C 
 307      08A5
 308 01c5 C1DEB701 		.ascii	"\301\336\267\001\370:L\263\256\205A\274\3536L\007y\007"
 308      F83A4CB3 
 308      AE8541BC 
 308      EB364C07 
 308      7907
 309 01d7 6B3440BB 		.ascii	"k4@\273\315n\341N#:H\264\343\250\300\267\272\351\032"
 309      CD6EE14E 
 309      233A48B4 
ARM GAS  /tmp/ccI5eHJN.s 			page 23


 309      E3A8C0B7 
 309      BAE91A
 310 01ea 6785E55C 		.ascii	"g\205\345\\\314\245\020D\363f\244\211\356\257L\322\217"
 310      CCA51044 
 310      F366A489 
 310      EEAF4CD2 
 310      8F
 311 01fb 869FB9D2 		.ascii	"\206\237\271\322\001?\3223\254`6:1\353\264S\004\032"
 311      013FD233 
 311      AC60363A 
 311      31EBB453 
 311      041A
 312 020d 10B3578F 		.ascii	"\020\263W\217\321\204\334D\213$\377#\277\324\177\302"
 312      D184DC44 
 312      8B24FF23 
 312      BFD47FC2 
 313 021d 4DC44391 		.ascii	"M\304C\221\010\207\213<\345\022\273h\320\216\356slO"
 313      08878B3C 
 313      E512BB68 
 313      D08EEE73 
 313      6C4F
 314 022f D15B5D6D 		.ascii	"\321[]m\347\236:\230aEsK\013<\022\021\207\334\244\305"
 314      E79E3A98 
 314      6145734B 
 314      0B3C1211 
 314      87DCA4C5 
 315 0243 D3603FD4 		.ascii	"\323`?\324\250\252\203j@\202\262\360\342\343\263\225"
 315      A8AA836A 
 315      4082B2F0 
 315      E2E3B395 
 316 0253 52D44593 		.ascii	"R\324E\223d}u\036\224\265\203xR\214\330\260\352\203"
 316      647D751E 
 316      94B58378 
 316      528CD8B0 
 316      EA83
 317 0265 90AB0E62 		.ascii	"\220\253\016bbpt\277#\026F=GD\025\273}\27608R9\247 "
 317      627074BF 
 317      2316463D 
 317      474415BB 
 317      7DBE3038 
 318 027d EDAA800E 		.ascii	"\355\252\200\016\223\265\267\344|V0\310\245\334^\227"
 318      93B5B7E4 
 318      7C5630C8 
 318      A5DC5E97 
 319 028d D56CBF76 		.ascii	"\325l\277v\336\020C\216zy\267\003\323|\212O\263|w\376"
 319      DE10438E 
 319      7A79B703 
 319      D37C8A4F 
 319      B37C77FE 
 320 02a1 AE1B13C2 		.ascii	"\256\033\023\3024\202%-lq\261\376\374\220\275(\004s"
 320      3482252D 
 320      6C71B1FE 
 320      FC90BD28 
 320      0473
 321 02b3 3CB68EA4 		.ascii	"<\266\216\244N\237'Q7\345yW6*\352F\251\315\223\335P"
 321      4E9F2751 
 321      37E57957 
ARM GAS  /tmp/ccI5eHJN.s 			page 24


 321      362AEA46 
 321      A9CD93DD 
 322 02c8 BA267A23 		.ascii	"\272&z#\016%\246\023\000\303\353\221\235\251:\234u/"
 322      0E25A613 
 322      00C3EB91 
 322      9DA93A9C 
 322      752F
 323 02da 3DA23D81 		.ascii	"=\242=\201a\333\267\216\003\344\013\326\343\342FG0\216"
 323      61DBB78E 
 323      03E40BD6 
 323      E3E24647 
 323      308E
 324 02ec F81C52F1 		.ascii	"\370\034R\361C\240\256i+\225`\026\336\226+\207\225\360"
 324      43A0AE69 
 324      2B956016 
 324      DE962B87 
 324      95F0
 325 02fe B9838557 		.ascii	"\271\203\205Wu\016\245\376o\024\347\001\302{\270T\271"
 325      750EA5FE 
 325      6F14E701 
 325      C27BB854 
 325      B9
 326 030f 8709DD5B 		.ascii	"\207\011\335[}MTT\342\016~/\257J\016&\3717\331`%\222"
 326      7D4D5454 
 326      E20E7E2F 
 326      AF4A0E26 
 326      F937D960 
 327 0325 89575A55 		.ascii	"\211WZU~v\257\233\237\244\343V[+\371\351\242V\353\355"
 327      7E76AF9B 
 327      9FA4E356 
 327      5B2BF9E9 
 327      A256EBED 
 328 0339 A92EF94F 		.ascii	"\251.\371O\371\2477\334#j\300\244:*X\007\362\024\313"
 328      F9A737DC 
 328      236AC0A4 
 328      3A2A5807 
 328      F214CB
 329 034c 61719EA2 		.ascii	"aq\236\242\332\230\025C\335\276\251\363\014\360\202"
 329      DA981543 
 329      DDBEA9F3 
 329      0CF082
 330 035b 282FDF6C 		.ascii	"(/\337lE\216\366s>J\017\003\256P\0155\246\332\316\265"
 330      458EF673 
 330      3E4A0F03 
 330      AE500D35 
 330      A6DACEB5 
 331 036f 675299D3 		.ascii	"gR\231\323\231\324\3016\243\3258|4u.\233jk9\233\312"
 331      99D4C136 
 331      A3D5387C 
 331      34752E9B 
 331      6A6B399B 
 332 0384 5E48537F 		.ascii	"^HS\177\362|G\246#\223\335\225f\320*\267g\365\337\011"
 332      F27C47A6 
 332      2393DD95 
 332      66D02AB7 
 332      67F5DF09 
 333 0398 34EAB2   		.ascii	"4\352\262"
ARM GAS  /tmp/ccI5eHJN.s 			page 25


 334              		.text
 335              		.section	.gnu.lto_iqReadTimeout.7b24dcd268b6a645,"",%progbits
 336 0000 789C9D55 		.ascii	"x\234\235U_h\034e\020\237\331oo\357\317\336\355\335"
 336      5F681C65 
 336      109FD96F 
 336      6FEFCFDE 
 336      EDDD
 337 0012 256D9A4B 		.ascii	"%m\232K\"\224>\266\330#B-\202\340\203O\202`\241=\210"
 337      22943EB6 
 337      D823422D 
 337      82E0834F 
 337      8260A13D 
 338 0027 0F22C9F5 		.ascii	"\017\"\311\365\2729\360\2546D\321>t/\271`\321\366\010"
 338      BA39F0AC 
 338      3644D13E 
 338      742FB960 
 338      D1F608
 339 003a C587A46D 		.ascii	"\305\207\244m\240\342\203\177(Z\252`\260\202\327\"$"
 339      A0E2837F 
 339      285AAA60 
 339      B082D722 
 339      24
 340 004b 676D6A11 		.ascii	"gmj\021\261\011\021SR\210\266R\015ZRk\361\234\331\177"
 340      B1091153 
 340      5288B652 
 340      0D5A526B 
 340      F19CD97F 
 341 005f B7578FDE 		.ascii	"\267W\217\336\232\205\233\375n\346\373\315of\276of%"
 341      9A859BFD 
 341      6EE6FBCD 
 341      6F66BE6F 
 341      6625
 342 0071 90E0FEE7 		.ascii	"\220\340\376\347(\375\036\217\000\354\344?\011@\332"
 342      28FD1E8F 
 342      00ECE43F 
 342      0940DA
 343 0080 81120A92 		.ascii	"\201\022\012\222\002e\222\262\024\0000$\205\204\034"
 343      026592B2 
 343      14003024 
 343      85841C
 344 008f 407AA182 		.ascii	"@z\241\202a\222A)\304\3720\353C\030'MX\012\262&\302"
 344      61924129 
 344      C4FA30EB 
 344      4318274D 
 344      580AB226 
 345 00a4 9A88A4F2 		.ascii	"\232\210\244\362:\312k\025\351\205Q)\306\032\21551s"
 345      3ACA6B15 
 345      E9855129 
 345      C61A8D35 
 345      3173
 346 00b6 BF66FA8F 		.ascii	"\277f\372\217#\0221\302!I\310\001%\030\012G\324hL\213"
 346      231231C2 
 346      2149C801 
 346      25180A47 
 346      D4684C8B 
 347 00ca E3A16759 		.ascii	"\343\241gY\017\311-\360\216a\034[\032\273qM\236|\273"
 347      0FC92DF0 
ARM GAS  /tmp/ccI5eHJN.s 			page 26


 347      8E611C5B 
 347      1ABB714D 
 347      9E7CBB
 348 00dd 523A65DC 		.ascii	"R:e\334\253\325\020\363l\314\"\364\321\0127\233/InL"
 348      ABD510F3 
 348      6CCC22F4 
 348      D10A379B 
 348      2F496E4C 
 349 00f1 CC048E1B 		.ascii	"\314\004\216\033g\3377\302&H\3449+\037\230\343\225\357"
 349      67DF37C2 
 349      2648E439 
 349      2B1F98E3 
 349      95EF
 350 0103 E78EA4DE 		.ascii	"\347\216\244\336<52n\374C\\y\016\323\007\354X\345\313"
 350      3C35326E 
 350      FC435C79 
 350      0ED307EC 
 350      58E5CB
 351 0116 72D90B0B 		.ascii	"r\331\013\013\370\204\375X>\262\016\230\361\303\365"
 351      F884FD58 
 351      3EB20E98 
 351      F1C3F5
 352 0125 5DB346A9 		.ascii	"]\263F\251R\253=\341\237\352\247F*E\202\207\321\037"
 352      52AB3DE1 
 352      9FEAA746 
 352      2A458287 
 352      D11F
 353 0137 DB771E36 		.ascii	"\333w\0366\305g\204\267\327\201\361\036\227_\314\271"
 353      C56784B7 
 353      D781F11E 
 353      975FCCB9 
 354 0147 C55D130E 		.ascii	"\305]\023\016O\260\216\011Y\030lZ\211\325\306\263\362"
 354      4FB08E09 
 354      59186C5A 
 354      89D5C6B3 
 354      F2
 355 0158 4BF5D7FF 		.ascii	"K\365\327\377O\251\362\307\334\311uPU&\347\312)\243"
 355      4FA9F2C7 
 355      DCC97550 
 355      5526E7CA 
 355      29A3
 356 016a 0E0B49F0 		.ascii	"\016\013I\360\210\277\263\252\234(\037\365\"e\011\036"
 356      88BFB3AA 
 356      9C281FF5 
 356      2265091E 
 357 017a 6D852C20 		.ascii	"m\205, |,U\226j\265/VO/\177\203\355\017!\251h\026\024"
 357      7C2C5596 
 357      6AB52F56 
 357      4F2F7F83 
 357      ED0F21A9 
 358 0191 5012D08F 		.ascii	"P\022\320\217gq\013\310@\256\002X@\241\220\346\014i"
 358      67710BC8 
 358      40AE0258 
 358      40A190E6 
 358      0C69
 359 01a3 82B62544 		.ascii	"\202\266%DJ\014\223\240\336\247\273\250\222\200(\375"
 359      4A0C93A0 
ARM GAS  /tmp/ccI5eHJN.s 			page 27


 359      DEA7BBA8 
 359      928028FD 
 360 01b3 9563B412 		.ascii	"\225c\264\022\032\343\342lH\260H\022\350=\002\2651A"
 360      1AE3E26C 
 360      48B04812 
 360      E83D02B5 
 360      3141
 361 01c5 3B69940D 		.ascii	";i\224\015,6\262\350 \021\334\304\253N\026)\026]6I7"
 361      2C36B2E8 
 361      2011DCC4 
 361      AB4E1629 
 361      165D3649 
 362 01da C7D20366 		.ascii	"\307\322\003f7B\000J\324\333\233\2550,{\301\236\010"
 362      3742004A 
 362      D4DB9BAD 
 362      302C7BC1 
 362      9E08
 363 01ec F4EC3165 		.ascii	"\364\3541e\206G\231\270\004#\013\023\313\277`?~J]\242"
 363      864799B8 
 363      04230B13 
 363      CBBF603F 
 363      7E4A5DA2 
 364 0200 A3B20D3E 		.ascii	"\243\262\015>4\350y\216*z\002\216S)\302:\006\270$\021"
 364      34E8798E 
 364      2A7A028E 
 364      5329C23A 
 364      06B82411 
 365 0214 B31003EE 		.ascii	"\263\020\003\356u!\344\364\364\362\025\027\031\354\263"
 365      7521E4F4 
 365      F4F21517 
 365      19ECB3
 366 0223 4681F564 		.ascii	"F\201\365dx\230\210\3130\27249\023\264\266\000\034\204"
 366      789888CB 
 366      30BA3439 
 366      13B4B600 
 366      1C84
 367 0235 BBC66123 		.ascii	"\273\306a#\221G5\213\226\237<\317>k?A\305,\224~=\377"
 367      9147358B 
 367      969F3CCF 
 367      3E6B3F41 
 367      C52C947E 
 368 024b 5939EA46 		.ascii	"Y9\352F\303>C\365c\230\007\3241$H\264i\177\016\317\203"
 368      C33E43F5 
 368      639807D4 
 368      312448B4 
 368      697F0ECF 
 369 0260 A46398FF 		.ascii	"\244c\230\377uk\327_\235\007AA\210\305\325A\035\273"
 369      756BD75F 
 369      9D074141 
 369      88C5D541 
 369      1DBB
 370 0272 B4C5B54E 		.ascii	"\264\305\265Nv\0320\203(-\235\234Q\234 t\276a\224S\036"
 370      761A3083 
 370      282D9D9C 
 370      519C2074 
 370      BE619453 
 371 0287 6396D33D 		.ascii	"c\226\323=\254\020\031n\015.\307\335\321w\247\236v\002"
ARM GAS  /tmp/ccI5eHJN.s 			page 28


 371      AC10196E 
 371      0D2EC7DD 
 371      D177A79E 
 371      7602
 372 0299 500FC2EB 		.ascii	"P\017\302\353tZvQ>\241h\264\346U\361t\321e\030\253\270"
 372      745A7651 
 372      3EA168B4 
 372      E655F174 
 372      D16518AB 
 373 02ae 0E626ECE 		.ascii	"\016bn\316\361,Z_\027\362\252c4\217\011\000\316\267"
 373      F12C5A5F 
 373      17F2AA63 
 373      348F0900 
 373      CEB7
 374 02c0 B8C3DDCB 		.ascii	"\270\303\335\313\016\205\367\332e8y\263\212\037\314"
 374      0E85F7DA 
 374      653879B3 
 374      8A1FCC
 375 02cf A8CDAA28 		.ascii	"\250\315\252(\352U\244\320\253WoT\335\363\320t\307W"
 375      EA55A4D0 
 375      AB576F54 
 375      DDF3D074 
 375      C757
 376 02e1 863F4894 		.ascii	"\206?H\224\332\205\205;+\327\\{\204\223*\021c\262yF"
 376      DA85853B 
 376      2BD75C7B 
 376      84932A11 
 376      63B27946 
 377 02f5 CEA77016 		.ascii	"\316\247p\026\276Z)\356tQ}\326\010\366\306\030\261\275"
 377      BE5A29EE 
 377      74517DD6 
 377      08F6C618 
 377      B1BD
 378 0307 5FBD79DE 		.ascii	"_\275y\336\365\036\367\351\375\022\214\036\036\375\310"
 378      F51EF7E9 
 378      FD128C1E 
 378      1EFDC8
 379 0316 852508C9 		.ascii	"\205%\010\311\333\2225z\342\246\375\302S\226\321tX4"
 379      DB92357A 
 379      E2A6FDC2 
 379      5396D174 
 379      5834
 380 0328 7A5BB8D4 		.ascii	"z[\270\324\271\256T\213\213?\337t\275&u>\037\242zK8"
 380      B9AE548B 
 380      8B3FDF74 
 380      BD26753E 
 380      1FA27A4B 
 381 033d AA36D2BA 		.ascii	"\2526\322\272\343\217\233\340L\3041\265o\203\255\324"
 381      E38F9BE0 
 381      4CC431B5 
 381      6F83ADD4 
 382 034d 58CD4984 		.ascii	"X\315I\204\033\367H\365[\315\201l \324}\004\033I\353"
 382      1BF748F5 
 382      5BCD816C 
 382      20D47D04 
 382      1B49EB
 383 0360 25F06441 		.ascii	"%\360dA\317\356\026\004\2047Q\237\217\275\3428\354\260"
ARM GAS  /tmp/ccI5eHJN.s 			page 29


 383      CFEE1604 
 383      8437519F 
 383      8FBDE238 
 383      ECB0
 384 0372 F6B7D97E 		.ascii	"\366\267\331~\025O \277\333\227\233v\024\311\271\232"
 384      154F20BF 
 384      DB979B76 
 384      14C9B99A 
 385 0382 77D3536C 		.ascii	"w\323Slo\035V\222\023\267\352\347\277\311g\232\013\343"
 385      6F1D5692 
 385      13B7EAE7 
 385      BFC9679A 
 385      0BE3
 386 0394 7107D2F9 		.ascii	"q\007\322\371 \210\323\372t\247W\212\275.\013\241\274"
 386      2088D3FA 
 386      74A7578A 
 386      BD2E0BA1 
 386      BC
 387 03a5 7745B567 		.ascii	"wE\265g\316\364\255\252[\252\324\203\334\006\352\221"
 387      CEF4ADAA 
 387      5BAAD483 
 387      DC06EA91 
 388 03b5 54C7D586 		.ascii	"T\307\325\206\"\356hY\304\224C\033\265\333\350\334L"
 388      22EE6859 
 388      C494431B 
 388      B5DBE8DC 
 388      4C
 389 03c6 A4651BD1 		.ascii	"\244e\033\321\205\\\233R\234\340\272\250\215\314\311"
 389      855C9B52 
 389      9CE0BAA8 
 389      8DCCC9
 390 03d5 86CE6DFD 		.ascii	"\206\316m\375{\252\3231v\353(\231F\347\272r\263\270"
 390      7BAAD331 
 390      76EB2899 
 390      46E7BA72 
 390      B3B8
 391 03e7 15EE6E98 		.ascii	"\025\356n\230\210V 1+\377\352\235\337\036s\266\365\020"
 391      88562031 
 391      2BFFEA9D 
 391      DF1E73B6 
 391      F510
 392 03f9 8963D6EC 		.ascii	"\211c\326\3548\277~\243i\234\377\031\232\304).B\221"
 392      38BF7EA3 
 392      699CFF19 
 392      9AC4292E 
 392      4291
 393 040b A6C45EDE 		.ascii	"\246\304^\336|\305\\\352\026\351<\3104\005B\247o\357"
 393      7CC55CEA 
 393      16E93CC8 
 393      340542A7 
 393      6FEF
 394 041d 258ED8BD 		.ascii	"%\216\330\275\265\036\036u\344\201\373dkzp\177!\227"
 394      B51E1E75 
 394      E481FB64 
 394      6B7A707F 
 394      2197
 395 042f CEEDCBA5 		.ascii	"\316\355\313\245\237\034\314\017\344\237\331\235\336"
ARM GAS  /tmp/ccI5eHJN.s 			page 30


 395      9F1CCC0F 
 395      E49FD99D 
 395      DE
 396 043c 3F941EEC 		.ascii	"?\224\036\354\177!=t \313\357\347_\036\316\015\347\206"
 396      7F213D74 
 396      20CBEFE7 
 396      5F1ECE0D 
 396      E786
 397 044e B667411E 		.ascii	"\266gA\036xi{\257xq\337kx\340_B\001A\363"
 397      78697BAF 
 397      7871DF6B 
 397      78E05F42 
 397      0141F3
 398              		.text
 399              		.section	.gnu.lto_oqObjectInit.7b24dcd268b6a645,"",%progbits
 400 0000 789C8D91 		.ascii	"x\234\215\221;K\003A\020\307gv\357\222\030\021,l\354"
 400      3B4B0341 
 400      10C76776 
 400      EF921811 
 400      2C6CEC
 401 0013 829D0FBC 		.ascii	"\202\235\017\274/`\347\007\2600\202V\222\034gr`\010"
 401      2F60E707 
 401      B0308256 
 401      921C6772 
 401      6008
 402 0025 1AD29822 		.ascii	"\032\322\230\"\233\207\020\264\011*\370*\022\261\263"
 402      9B8710B4 
 402      092AF82A 
 402      12B1B3
 403 0034 B1B53CEC 		.ascii	"\261\265<\354$\204\230\3162jk\257\304\230s\366\356\002"
 403      248498CE 
 403      326A6BAF 
 403      C49873F6 
 403      EE02
 404 0046 891C9881 		.ascii	"\211\034\230\201\333\231\275\235\337\177fv\0310\370"
 404      DB99BD9D 
 404      DF7F6676 
 404      1930F8
 405 0055 6B33F475 		.ascii	"k3\364u\351\367\222\334p@\012\221!\322\006!\3170\277"
 405      E9F792DC 
 405      70400A91 
 405      21D20621 
 405      CF30BF
 406 0068 25436073 		.ascii	"%C`sp#\304I\347\260\377\312/\317\254r]\364l\033\321"
 406      7023C449 
 406      E7B0FFCA 
 406      2FCFAC72 
 406      5DF46C1B 
 407 007d 94873AC2 		.ascii	"\224\207:\302&E\030q\034SF\365]\320\372n\235\317\036"
 407      26451871 
 407      1C5346F5 
 407      5DD0FA6E 
 407      9DCF1E
 408 0090 D58B55D1 		.ascii	"\325\213U\321'\316D\376\037v\317\254\216m\177\374\364"
 408      27CE44FE 
 408      1F76CFAC 
 408      8E6D7FFC 
ARM GAS  /tmp/ccI5eHJN.s 			page 31


 408      F4
 409 00a1 DE2A3813 		.ascii	"\336*8\023BL!\365N\3458E\250\320\302T\332\362\000E<"
 409      424C21F5 
 409      4EE53845 
 409      A8D0C254 
 409      DAF20045 
 410 00b6 488BC455 		.ascii	"H\213\304U(\013Q\2158\322dQg\335\220\023\361&\024\273"
 410      280B518D 
 410      38D26451 
 410      67DD9013 
 410      F12614BB 
 411 00ca A5F7DA4A 		.ascii	"\245\367\332J\014oQ\205\004\262\034\034\220\332\"\334"
 411      0C6F5185 
 411      04B21C1C 
 411      90DA22DC 
 412 00da 09B2536A 		.ascii	"\011\262Sj@\271\206+rj\002Q\366\023p\272\210\343PK-"
 412      40B9862B 
 412      726A0251 
 412      F61370BA 
 412      88E3504B 
 413 00ef 285B9E00 		.ascii	"([\236\000@\016\272\242\"\246M\014\352\350&\221\250"
 413      400EBAA2 
 413      22A64D0C 
 413      EAE82691 
 413      A8
 414 0100 89218026 		.ascii	"\211!\200&<6\036\372m\346f\312\012\345\202\2302q\302"
 414      3C361EFA 
 414      6DE666CA 
 414      0AE58298 
 414      3271C2
 415 0113 BFC000E6 		.ascii	"\277\300\000\346\222,6^FH2\"\271?\311<Rq\311\257\361"
 415      922C365E 
 415      46483222 
 415      B93FC93C 
 415      5271C9AF 
 416 0128 493E4A5E 		.ascii	"I>J^\330c\223\3120Y:.}\326\264\301\225R\2522\030\343"
 416      D86393CA 
 416      30593A2E 
 416      7DD6B4C1 
 416      9552AA32 
 417 013e E9393CA6 		.ascii	"\3519<\246\240\352\011\252\336\370>\255\204\375\311"
 417      A0EA09AA 
 417      DEF83EAD 
 417      84FDC9
 418 014d 804706BC 		.ascii	"\200G\006\274\361}\310I\1772\350\221\344\333P\350T\346"
 418      F17DC849 
 418      7F32E891 
 418      E4DB50E8 
 418      54E6
 419 015f 078FEA5A 		.ascii	"\007\217\352ZT\276\211\274\334\005-\231N\031\232\261"
 419      54BE89BC 
 419      DC052D99 
 419      4E199AB1 
 420 016f 6368AB49 		.ascii	"ch\253I3n\256\255k\351\214\226\214\355j\231}]\372\355"
 420      336EAEAD 
 420      6BE98C96 
 420      8CED6A99 
ARM GAS  /tmp/ccI5eHJN.s 			page 32


 420      7D5DFAED 
 421 0183 BDAC9135 		.ascii	"\275\254\22152\313:\374\002Yv\266O"
 421      32CB3AFC 
 421      025976B6 
 421      4F
 422              		.text
 423              		.section	.gnu.lto_oqResetI.7b24dcd268b6a645,"",%progbits
 424 0000 789C6362 		.ascii	"x\234cb`b@\007\"@\274\210\205\201A\007\304af`\004\252"
 424      60624007 
 424      2240BC88 
 424      85814107 
 424      C4616660 
 425 0016 60646264 		.ascii	"`dbd\004r\030\031\352\231\030\353#AL\006N%\206\205\015"
 425      04721819 
 425      EA9918EB 
 425      23414C06 
 425      4E258685 
 426 002b 0D931E2C 		.ascii	"\015\223\036,]\365\212i\346\224\003-\013\032\376\374"
 426      5DF58A69 
 426      E694032D 
 426      0B1AFEFC 
 427 003b FFCFC898 		.ascii	"\377\317\310\230\011\222Lfd\210\000\262\030\025\300"
 427      09924C66 
 427      648800B2 
 427      1815C0
 428 004a 14130BAA 		.ascii	"\024\023\013\252\371\020\215\007\256\\\352\341\232\320"
 428      F9108D07 
 428      AE5CEAE1 
 428      9AD0
 429 0058 D8D1F0FF 		.ascii	"\330\321\360\377\177=\361\232\256O\232&\331\265\240"
 429      7F3DF19A 
 429      AE4F9A26 
 429      D9B5A0
 430 0067 6942C33F 		.ascii	"iB\303?\240e\304j\233\320\260iE\003'\330\201\314\231"
 430      A065C46A 
 430      9BD0B069 
 430      450327D8 
 430      81CC99
 431 007a 8CCCC459 		.ascii	"\214\314\304Y\205\242\207v\366P\3566\026\"\203\356\346"
 431      85A28776 
 431      F650EE36 
 431      162283EE 
 431      E6
 432 008b A439C841 		.ascii	"\2449\310A\307JH\333z\246\003\017\376\377\2773y\343"
 432      C74A48DB 
 432      7AA6030F 
 432      FEFFBF33 
 432      79E3
 433 009d A3B58C22 		.ascii	"\243\265\214\"\334\214\214\271\214\300\264\002\014\012"
 433      DC8C8CB9 
 433      8CC0B402 
 433      0C0A
 434 00ab 6610C102 		.ascii	"f\020\301\002\"X\201\0043\033\210\305\016bq\200\010"
 434      22588104 
 434      331B88C5 
 434      0E627180 
 434      08
ARM GAS  /tmp/ccI5eHJN.s 			page 33


 435 00bc 4E20C1C2 		.ascii	"N \301\302\305\0006\037\250\240\005\350C\005\260M@\020"
 435      C500361F 
 435      A8A005E8 
 435      4305B04D 
 435      4010
 436 00ce 02264341 		.ascii	"\002&CA\011\212\371,C\323\255\035\300\244\223\310\270"
 436      098AF92C 
 436      43D3AD1D 
 436      C0A493C8 
 436      B8
 437 00df 0AA8349D 		.ascii	"\012\2504\235\221I\233A\013h\320l\206Y@\247\260\245"
 437      91499B41 
 437      0B68D06C 
 437      865940A7 
 437      B0A5
 438 00f1 3332829C 		.ascii	"32\202\234\304\016vH\022#\314I@M''pA\264h3\254j\000"
 438      C40E7648 
 438      1223CC49 
 438      404D2727 
 438      7041B468 
 439 0109 025E9C9A 		.ascii	"\002^\234\232 \272\322A\266\201,\273\201d\0313\325-"
 439      20BAD241 
 439      B6812CBB 
 439      81641933 
 439      D52D
 440 011b 63825AC6 		.ascii	"c\202Z\306\014\261\354\307\252Gp\313X\360Y\306\214\260"
 440      0CB1ECC7 
 440      AA4770CB 
 440      58F059C6 
 440      8CB0
 441 012d EC35334C 		.ascii	"\35453L\007k:(R\201BQ0\0216\"\035\2140\203\035\250\011"
 441      076B3A28 
 441      52814251 
 441      30113622 
 441      1D8C3083 
 442 0144 24D4DC09 		.ascii	"$\324\334\011\027\342\000\233\314\016V\370\016.\312"
 442      17E2009B 
 442      CC0E56F8 
 442      0E2ECA
 443 0153 09940009 		.ascii	"\011\224\000\011\035:y\001\311\263-\215 \317r`\267\220"
 443      1D3A7901 
 443      C9B32D8D 
 443      20CF7260 
 443      B790
 444 0165 05EA594E 		.ascii	"\005\352YN\260Q\277\2327/\265\200\231\306U\315P\005"
 444      B051BF9A 
 444      372FB580 
 444      99C655CD 
 444      5005
 445 0177 8C7B6878 		.ascii	"\214{hxUg2rb7\202\025\221\316\3163\264\036\200\352g"
 445      55673272 
 445      62378215 
 445      91CECE33 
 445      B41E80EA 
 446 018c 60A866F8 		.ascii	"`\250f\370\325\320\321 \220\311\310\225\014\217@.\220"
 446      D5D0D120 
 446      90C9C895 
ARM GAS  /tmp/ccI5eHJN.s 			page 34


 446      0C8F402E 
 446      90
 447 019d 466E60AA 		.ascii	"Fn`\252\205\000F`q\301\303\300p\221\241\361\301ZM\230"
 447      85004660 
 447      71C1C3C0 
 447      7091A1F1 
 447      C15A4D98 
 448 01b1 3E080801 		.ascii	">\010\010\001\351\001E\205\226~F~n\252~jZ\252\276sF"
 448      E9014585 
 448      967E467E 
 448      6EAA7E6A 
 448      5AAABE73 
 449 01c6 6652A67F 		.ascii	"fR\246\177\260~~\261~Fb\216~qQ2\210\216/,M-M-\326Kf"
 449      B07E7EB1 
 449      7E46628E 
 449      7E715132 
 449      888E2F2C 
 450 01e1 00003862 		.ascii	"\000\0008b\013e"
 450      0B65
 451              		.text
 452              		.section	.gnu.lto_oqPutTimeout.7b24dcd268b6a645,"",%progbits
 453 0000 789C9D54 		.ascii	"x\234\235TKh\024A\020\255\352\231\331\331\235\375G/"
 453      4B681441 
 453      10ADEA99 
 453      D9D99DFD 
 453      472F
 454 0012 2A82788C 		.ascii	"*\202x\214\350\372\271y\361\340\311\223\202\006\242"
 454      E8FAB979 
 454      F1E0C993 
 454      8206A2
 455 0021 1749D675 		.ascii	"\027I\326u2h\010\032\274\230\203\263\311\012j\"\204"
 455      3268081A 
 455      BC9883B3 
 455      C90A6A22 
 455      84
 456 0032 44302A82 		.ascii	"D0*\2029h\304\203\277\223\370I\306\340\301\020%\237"
 456      3968C483 
 456      BF93F849 
 456      C6E0C110 
 456      259F
 457 0044 45488260 		.ascii	"EH\202`\020\305\203\036\"\"JP\307\252\236\235\375H0"
 457      10C5831E 
 457      22224A50 
 457      C7AA9E9D 
 457      FD4830
 458 0057 A30D5BDD 		.ascii	"\243\015[\335\333]\357\275\252\352\251\026 \340\317"
 458      DB5DEFBD 
 458      AAEAA916 
 458      20E0CF
 459 0066 71847E3D 		.ascii	"q\204~=a\200\315\374'\006H\036(P#\253\010\025\300\026"
 459      6180CDFC 
 459      2706481E 
 459      285023AB 
 459      0815C016 
 460 007a B4B45515 		.ascii	"\264\264U\025\243\264\243\011\205wB\274\023\022:\257"
 460      A3B4A309 
 460      857742BC 
ARM GAS  /tmp/ccI5eHJN.s 			page 35


 460      13123AAF 
 461 008a C3BCD691 		.ascii	"\303\274\326\221&\014\213\010\357\030\274\023A\232\320"
 461      260C8B08 
 461      EF18BC13 
 461      419AD0
 462 0099 90A82822 		.ascii	"\220\250(\"Q#\234\022\212\252\205\364p\304\210\342\251"
 462      51239C12 
 462      8AAA85F4 
 462      70C488E2 
 462      A9
 463 00aa FDBC0789 		.ascii	"\375\274\007\211\3650h\333}\363\327\037Nk\227.8\205"
 463      F53068DB 
 463      7DF3D71F 
 463      4E6B972E 
 463      3885
 464 00bc 6BF60FD7 		.ascii	"k\366\017\327E\264\3700\213\320H+\\''\216\245zH\340"
 464      45B4F830 
 464      8BD0482B 
 464      5C27278E 
 464      A57A48E0 
 465 00d0 80335B1C 		.ascii	"\2003[\034\037D\273\317\316/\270n\322B%\020\254\317"
 465      1F44BBCF 
 465      CE2FB86E 
 465      D2422510 
 465      ACCF
 466 00e2 99EA3FBF 		.ascii	"\231\352?\277\352\334\265\316^\373\027\311Y\250\006"
 466      EADCB5CE 
 466      5EFB17C9 
 466      59A806
 467 00f1 847DEEAF 		.ascii	"\204}\356\257Q\013\010\263\213\357\366<\267\013\216"
 467      510B08B3 
 467      8BEFF63C 
 467      B70B8E
 468 0100 EBEE082E 		.ascii	"\353\356\010.\365\24561-\240\324T\225TP\314\375\233"
 468      F5A53631 
 468      2DA0D454 
 468      955450CC 
 468      FD9B
 469 0112 7644165E 		.ascii	"vD\026^\011\214q\276\326\0260\250\324\327\177\017\317"
 469      098C71BE 
 469      D61630A8 
 469      D4D77F0F 
 469      CF
 470 0123 F956BCF8 		.ascii	"\371V\274\370\037R\316\317\332\010C\001an\177\317\277"
 470      1F52CECF 
 470      DA084301 
 470      616E7FCF 
 470      BF
 471 0134 C37A9D62 		.ascii	"\303z\235b\361\374*\273\002S\004l\304e\220w\2043\357"
 471      F1FC2ABB 
 471      0253046C 
 471      C4659077 
 471      8433EF
 472 0147 BAAFAF3C 		.ascii	"\272\257\257<\351y\2013b%\002\303\260\025A\241\225\252"
 472      E9798133 
 472      622502C3 
 472      B01541A1 
ARM GAS  /tmp/ccI5eHJN.s 			page 36


 472      95AA
 473 0159 92018DFE 		.ascii	"\222\001\215\376R\010Mx\033\327\203\316\016a>\213\260"
 473      52084D78 
 473      1BD783CE 
 473      0E613E8B 
 473      B0
 474 016a 31C86851 		.ascii	"1\310hQ616qr\025\011^%\331\244\330\244\311\204\352\330"
 474      36313671 
 474      7215095E 
 474      25D9A4D8 
 474      A4C984EA 
 475 017f AC00D91B 		.ascii	"\254\000\331\033\240A\201\242]'\223\242\261O\332\006"
 475      A04181A2 
 475      5D2793A2 
 475      B14FDA06 
 476 018f EE796502 		.ascii	"\356ye\002\272\346\337\214\351Mx\227K\014\035\260h\237"
 476      BAE6DF8C 
 476      E94D7897 
 476      4B0C1DB0 
 476      689F
 477 01a1 B15316EA 		.ascii	"\261S\026\352Y\331\276@\014a/\360\006\246R^B\347b\327"
 477      59D9BE40 
 477      0C612FF0 
 477      06A6525E 
 477      42E762D7 
 478 01b5 D0D08112 		.ascii	"\320\320\201\022\245\027#\200\217\007\023\325\0168I"
 478      A5172380 
 478      8F0713D5 
 478      0E3849
 479 01c4 496C805B 		.ascii	"Il\200[6\215\021*A\344\012\\\246\3110QpE\242\222\256"
 479      368D112A 
 479      41E40A5C 
 479      A6C93051 
 479      7045A292 
 480 01d9 19AB8A32 		.ascii	"\031\253\2122\001\247\2355Mx\2378L\014\225\203\210e"
 480      01A79D35 
 480      4D789F38 
 480      4C0C9583 
 480      8865
 481 01eb D17BB988 		.ascii	"\321{\271\210\325D\315\3028\300sx\366\376\351\253\376"
 481      D544CDC2 
 481      38C07378 
 481      F6FEE9AB 
 481      FE
 482 01fc 58D99B29 		.ascii	"X\331\233)\023\325\025n\340n\223\211}<\033\365\334j"
 482      13D5156E 
 482      E06E9389 
 482      7D3C1BF5 
 482      DC6A
 483 020e 13532A89 		.ascii	"\023S*\211Q:c\003\217\266\373d\272\311W\357\221h2\333"
 483      513A6303 
 483      8FB6FB64 
 483      BAC957EF 
 483      916832DB 
 484 0222 D1B98187 		.ascii	"\321\271\201\207\323\350\245g\242\302Y\025H0\271tJ~"
 484      D3E8A567 
 484      A2C25915 
ARM GAS  /tmp/ccI5eHJN.s 			page 37


 484      4830B974 
 484      4A7E
 485 0234 4E14E487 		.ascii	"N\024\344\207\374\2662\252\321{l\252C\014\371\354\303"
 485      FCB632AA 
 485      D17B6CAA 
 485      430CF9EC 
 485      C3
 486 0245 5B7DB770 		.ascii	"[}\267p@\362\227\320u\246\353F9\246\010!\331-\351\322"
 486      40F297D0 
 486      75A6EB46 
 486      39A60821 
 486      D92DE9D2 
 487 0259 48CAF3D1 		.ascii	"H\312\363\321]\336\241$\314\333\361e(\211CVb\356\301"
 487      5DDEA124 
 487      CCDBF165 
 487      28894356 
 487      62EEC1
 488 026c F0769FD5 		.ascii	"\360v\237\325\330\000\365\364--\015\023\345H:\307z\015"
 488      D800F5F4 
 488      2D2D0D13 
 488      E5483AC7 
 488      7A0D
 489 027e 1F1235F9 		.ascii	"\037\0225\371\365\247\350\272\025\177+F\273\262\011"
 489      F5A7E8BA 
 489      157F2B46 
 489      BBB209
 490 028d D0F3AE8A 		.ascii	"\320\363\256\212\213Fr\031\001\302K\324\370BI\203\234"
 490      8B467219 
 490      01C24BD4 
 490      F8424983 
 490      9C
 491 029e F384D32D 		.ascii	"\363\204\323-L\225\210\265\222c\334K`f\270rW\211\200"
 491      4C9588B5 
 491      9263DC4B 
 491      6066B872 
 491      578980
 492 02b1 19CC4D26 		.ascii	"\031\314M&|H\362o\020\245|\267\205\017\371xY\205P\325"
 492      7C48F26F 
 492      10A57CB7 
 492      850FF978 
 492      598550D5 
 493 02c5 F7AA7B3D 		.ascii	"\367\252{=2\367}xQ\370>\251\277\321\252\225H\306&\215"
 493      32F77D78 
 493      51F83EA9 
 493      BFD1AA95 
 493      48C6268D 
 494 02d9 9AFA6C59 		.ascii	"\232\372lY\266>)_6\\\222\235\031\251\024 -e\323K3h\225"
 494      B63E295F 
 494      365C929D 
 494      19A91420 
 494      2D65D34B 
 495 02f0 6C3E55B2 		.ascii	"l>U\262I\263K\272\366K\215\370\031\215\214\226\251\353"
 495      49B34BBA 
 495      F64B8DF8 
 495      198D8C96 
 495      A9EB
 496 0302 82504F40 		.ascii	"\202PO@\301\251\367\037\006\302\260\021\026\317\036"
ARM GAS  /tmp/ccI5eHJN.s 			page 38


 496      C1A9F71F 
 496      06C2B011 
 496      16CF1E
 497 0311 B151EAD2 		.ascii	"\261Q\352\322\263\335\306R\317Om\227>\370\376v\265\257"
 497      B3DDC652 
 497      CF4F6D97 
 497      3EF8FE76 
 497      B5AF
 498 0323 BE82D594 		.ascii	"\276\202\325\224J\204$\254\214C\236\034\017\361\366"
 498      4A8424AC 
 498      8C439E1C 
 498      0FF1F6
 499 0332 945C9ADE 		.ascii	"\224\\\232\336\307=\013Hm\255\276\270\272\226p\306\343"
 499      C73D0B48 
 499      6DADBEB8 
 499      BA9670C6 
 499      E3
 500 0343 7B717EFE 		.ascii	"{q~\376\350\204+X\237iik\315er\207s\231\235-V\263\265"
 500      E8842B58 
 500      9F69696B 
 500      CD657287 
 500      73999D2D 
 501 035a 7B6FA6AD 		.ascii	"{o\246\255=\323\322t4\323~<\313\363\301c'r'r\355\233"
 501      3DD3D274 
 501      34D37E3C 
 501      CBF3C163 
 501      27722772 
 502 0370 B2A0B4B6 		.ascii	"\262\240\264\266\233\277\001\355N\335\253"
 502      9BBF01ED 
 502      4EDDAB
 503              		.text
 504              		.section	.gnu.lto_oqGetI.7b24dcd268b6a645,"",%progbits
 505 0000 789CBD56 		.ascii	"x\234\275VOH\024a\024\177o\376\354\314\316\272\376\311"
 505      4F481461 
 505      147F6FFE 
 505      ECCCCEBA 
 505      FEC9
 506 0012 3FD14D3C 		.ascii	"?\321M<*\265\024\364\367\322\241S\247\202\022\252K\250"
 506      2AB514F4 
 506      F7D2A153 
 506      A78212AA 
 506      4BA8
 507 0024 6DBA9458 		.ascii	"m\272\224XY\020E8\233\012R\011\322\301\244<\350\241"
 507      59104538 
 507      9B0A5209 
 507      D2C1A43C 
 507      E8A1
 508 0036 9240A342 		.ascii	"\222@\243B0O\203t0E\262\204E\027\002\211\300\203\262"
 508      304F8374 
 508      3045B284 
 508      45170289 
 508      C083B2
 509 0049 05119554 		.ascii	"\005\021\225T\323{3\373\315\216\":\011\365\301\276\231"
 509      D37B33FB 
 509      CD8E223A 
 509      09F5C1BE 
 509      99
ARM GAS  /tmp/ccI5eHJN.s 			page 39


 510 005a 79EFFD7E 		.ascii	"y\357\375~\357\275\357\275\357c%\220`\365:G\277A\035"
 510      EFBDEFBD 
 510      EF632590 
 510      60F53A47 
 510      BF411D
 511 006d 600F7FE4 		.ascii	"`\017\177\344\001\222\007J\222\014`J*\011E\226\024\357"
 511      0192074A 
 511      920C604A 
 511      2A094596 
 511      14EF
 512 007f 5DC11059 		.ascii	"]\301\020YUG\206$\215\365:\3535\214\220F\227\302\254"
 512      55478624 
 512      8DF53AEB 
 512      358C9046 
 512      97C2AC
 513 0092 31581346 		.ascii	"1X\023Fz\240\341\350#\210D\215\320\"\311\212\032\322"
 513      7AA0E1E8 
 513      2388448D 
 513      D022C98A 
 513      1AD2
 514 00a4 F4B011C1 		.ascii	"\364\260\021\301\226\223\254\203\302\012\3507\315\256"
 514      9693AC83 
 514      C20AE837 
 514      CDAE
 515 00b2 F9878BA3 		.ascii	"\371\207\213\243\333n\365\335\3542\177\3336&\220\322"
 515      DB6EF5DD 
 515      EC327FDB 
 515      362690D2 
 516 00c2 DC8E5087 		.ascii	"\334\216P\207p\202>\260\334yp\032\376\345 \357\232\317"
 516      70823EB0 
 516      DC79701A 
 516      FEE520EF 
 516      9ACF
 517 00d4 07CC709F 		.ascii	"\007\314p\237\371\323\266\345\004R\322\377\005\243\004"
 517      F9D3B6E5 
 517      0452D2FF 
 517      05A304
 518 00e3 C40C0D98 		.ascii	"\304\014\015\230\262\300\2509\214\356bp\015L\217\365"
 518      B2C0A839 
 518      8CEE6270 
 518      0D4C8FF5 
 519 00f3 3E35D18F 		.ascii	">5\321\217\204M~\266\355\202\004\357t\220P\326\227\356"
 519      844D7EB6 
 519      ED8204EF 
 519      749050D6 
 519      97EE
 520 0105 493F2C68 		.ascii	"I?,h\2063\037\217\216\233m\226m\037\014\214\261\276"
 520      86331F8F 
 520      8E9B6D96 
 520      6D1F0C8C 
 520      B1BE
 521 0117 A63AFDBD 		.ascii	"\246:\375\275\012\272\201s\276P\377\260Q\326\267\356"
 521      0ABA8173 
 521      BE50FFB0 
 521      51D6B7EE 
 522 0127 4DA5F7F5 		.ascii	"M\245\367\365\357\323\263~\244\356m\"\224e\247z\375"
 522      EFD3B37E 
ARM GAS  /tmp/ccI5eHJN.s 			page 40


 522      A4EE6D22 
 522      9465A77A 
 522      FD
 523 0138 302D206C 		.ascii	"0- l&\325\271\325\2347\005L\227`7n0SO%k\336\266\357"
 523      26D5B9D5 
 523      9C37054C 
 523      9760376E 
 523      30534F25 
 524 0150 0C0F7E98 		.ascii	"\014\017~\230\300\3222\204\032\354\307\012:\\4W26\""
 524      C0D23284 
 524      1AECC70A 
 524      3A5C3457 
 524      323622
 525 0163 28F426AB 		.ascii	"(\364&\253,B$\024-\353\240g\237aR\252\006{G\330\234"
 525      2C422414 
 525      2DEBA067 
 525      9F6152AA 
 525      067B47D8 
 526 0178 C722CADE 		.ascii	"\307\"\312\336\371,\012X\024\222\3533r-\342\217-,\212"
 526      F92C0A58 
 526      1492EB33 
 526      722DE28F 
 526      2D2C8A
 527 018b 599490D0 		.ascii	"Y\224\220\320J\301\231_P\241\215\316x\271\353\350\024"
 527      4AC1995F 
 527      50A18DCE 
 527      78B9EBE8 
 527      14
 528 019c 4BEBB823 		.ascii	"K\353\270#\253\371\272\221\247\340fzd\361@\015\276\240"
 528      ABF9BA91 
 528      A7E0667A 
 528      64F1400D 
 528      BEA0
 529 01ae 63528F4A 		.ascii	"cR\217J\025T\022\307\003\270O%\205\353Q\346\322\014"
 529      155412C7 
 529      03B84F25 
 529      85EB51E6 
 529      D20C
 530 01c0 A7A05AAF 		.ascii	"\247\240Z\257@\302\234\022\000u=\200@\214\303\253\005"
 530      40C29C12 
 530      00753D80 
 530      408CC3AB 
 530      05
 531 01d1 F442D4F3 		.ascii	"\364B\324\363\201\024\253\232[GY\214y\214\241*xb\266"
 531      8114AB9A 
 531      5B47598C 
 531      798CA12A 
 531      7862B6
 532 01e4 114B646D 		.ascii	"\021KdmR\311#m[\362HC\354\261\242w\325\374\311\345\355"
 532      52C9236D 
 532      5BF24843 
 532      ECB1A277 
 532      D5FCC9E5 
 533 01f9 133E1AFB 		.ascii	"\023>\032\373\000zvu\225]w\3549|\310\265gd\341@\231"
 533      007A7675 
 533      955D77EC 
 533      397CC8B5 
ARM GAS  /tmp/ccI5eHJN.s 			page 41


 533      6764E140 
 534 020e A01B3719 		.ascii	"\240\0337\031\365t\014\362\3253\007H\221\224\253D\247"
 534      F5740CF2 
 534      D5330748 
 534      9194AB44 
 534      A7
 535 021f 3A2C9ACB 		.ascii	":,\232\31322\273X)0\006cB\277\354\354\302\026\021Qw"
 535      3232BB58 
 535      29300663 
 535      42BFECEC 
 535      C2161151 
 536 0234 B7223D92 		.ascii	"\267\"=\222\331%|#\001wc\012Z;Z\037y\373\221GHv\213"
 536      D9257C23 
 536      0177630A 
 536      5A3B5A1F 
 536      79FB9147 
 537 024b A0631B3B 		.ascii	"\240c\033;\354\032\034\262\244\031\335\200\216\360N"
 537      EC1A1CB2 
 537      A419DD80 
 537      8EF04E
 538 025a 97D3B399 		.ascii	"\227\323\263\231\264G\031\015\322i\002\275\356\212\010"
 538      B447190D 
 538      D26902BD 
 538      EE8A08
 539 0269 483EA19C 		.ascii	"H>\241\234\324n{{X@Z\357\270\220\267/1Z{7\010@x\007"
 539      D46E7B7B 
 539      58405AEF 
 539      B890B72F 
 539      315A7B37 
 540 0281 35DA5E26 		.ascii	"5\332^&\010\013\311?IP\272y\365,\267\234K&\375=\363"
 540      080BC93F 
 540      4950BA79 
 540      F52CB79C 
 540      4B26FD3D 
 541 0296 CEABA028 		.ascii	"\316\253\240(`\005\351\351|\001\331\262\036D\304\241"
 541      6005E9E9 
 541      7C01D9B2 
 541      1E44C4A1 
 542 02a6 8958C84D 		.ascii	"\211X\310MD\021\241\374c\030\316\236\262\236O\313\222"
 542      4411A1FC 
 542      6318CE9E 
 542      B29E4FCB 
 542      92
 543 02b7 F0295E8F 		.ascii	"\360)^\217V\311e\362z\332X\261?;7\334\237b\021\326p"
 543      56C965F2 
 543      7ADA58B1 
 543      3F3B37DC 
 543      9F6211D6 
 544 02cc C32EB7DA 		.ascii	"\303.\267\332\203\373E\330\222\353p\215.\207,\331\215"
 544      83FB45D8 
 544      92EB708D 
 544      2E872CD9 
 544      8D
 545 02dd 04E6AD4D 		.ascii	"\004\346\255M\346\233\3477\320ne\361\000\327a\331\354"
 545      E69BE737 
 545      D06E65F1 
 545      00D761D9 
ARM GAS  /tmp/ccI5eHJN.s 			page 42


 545      EC
 546 02ee 300B1318 		.ascii	"0\013\023\030\255\363\002\22600\037\350\276q[\223i}"
 546      ADF30296 
 546      30301FE8 
 546      BE715B93 
 546      697D
 547 0300 3CE475BB 		.ascii	"<\344u\273\224\372#\022\242\277#\362$$i\306\3170\370"
 547      94FA2312 
 547      A2BF23F2 
 547      242469C6 
 547      CF30F8
 548 0313 ADF35AEF 		.ascii	"\255\363Z\357N\334\034Ht,\264\245a\002\224\032\275/"
 548      4EDC1C48 
 548      742CB4A5 
 548      6102941A 
 548      BD2F
 549 0325 A37C4991 		.ascii	"\243|I\221\023\033+c\015M\215\361X\374l<v\250!Q\233"
 549      131B2B63 
 549      0D4D8DF1 
 549      58FC6C3C 
 549      76A82151 
 550 033a 38722CD6 		.ascii	"8r,\326\324\034k\2509\037k\276T\307\317\323\027\257"
 550      D41C6BA8 
 550      391F6BBE 
 550      54C7CFD3 
 550      17AF
 551 034c C4AFC49B 		.ascii	"\304\257\304\233w\324\201\2268{\271\361\302\216]X\373"
 551      77D48196 
 551      387BB9F1 
 551      C28E5D58 
 551      FB
 552 035d 07387BDD 		.ascii	"\0078{\335\353"
 552      EB
 553              		.text
 554              		.section	.gnu.lto_oqWriteTimeout.7b24dcd268b6a645,"",%progbits
 555 0000 789C9D56 		.ascii	"x\234\235V_h\034e\020\237\331\335\333\373\263w{wi\222"
 555      5F681C65 
 555      109FD9DD 
 555      DBFBB377 
 555      7B776992 
 556 0014 E692164A 		.ascii	"\346\222\026J\037[\354QK\355\203\017>\210\017\202`A"
 556      1F5BEC51 
 556      4BED830F 
 556      3E880F82 
 556      6041
 557 0026 03F14124 		.ascii	"\003\361A$9\257\233\205\236UC\021\355C\367\222+\024"
 557      39AF9B85 
 557      9E554311 
 557      ED43F792 
 557      2B14
 558 0038 9BD45004 		.ascii	"\233\324P\004\343\325\207J\241\221 \265\255-FC\315\265"
 558      E3D5874A 
 558      A19120B5 
 558      AD2D4643 
 558      CDB5
 559 004a 2A24C4A3 		.ascii	"*$\304\243\255!\304\034\005\003\021\212\322W\241\226"
 559      AD21C41C 
ARM GAS  /tmp/ccI5eHJN.s 			page 43


 559      0503118A 
 559      D257A196 
 560 005a E839B3BB 		.ascii	"\3509\263\273\337\336\236\036\275\265\037d\366\333\371"
 560      DFDE9E1E 
 560      BDB51F64 
 560      F6DBF9
 561 0069 BEDFFC66 		.ascii	"\276\337\374f\346ff#\201\004\377^\023\364\367\\\014"
 561      E6666623 
 561      8104FF5E 
 561      13F4F75C 
 561      0C
 562 007a E000BFA4 		.ascii	"\340\000\277\244\000\351\006J(\223\224Q!\251`\230dH"
 562      00E9064A 
 562      28939451 
 562      21A96098 
 562      6448
 563 008c 52012C89 		.ascii	"R\001,\211\266\226\242b\2224a)\304\232\010k\"R\224\367"
 563      B696A262 
 563      92346129 
 563      C49A086B 
 563      225294F7 
 564 00a0 31DE4791 		.ascii	"1\336G\221\036\030\2234\326\304Y\243!=0.%X\243\263&"
 564      1E189334 
 564      D6C459A3 
 564      213D302E 
 564      2558A3B3 
 565 00b5 615BD06D 		.ascii	"a[\320m\373ID\"F8.\311JH\015G\2421-\236\320\223x\374"
 565      FB494422 
 565      46382EC9 
 565      4A480D47 
 565      A2312D9E 
 566 00cd 15D6437A 		.ascii	"\025\326Cz'|jYg\326\1778\277\241|\374a\245t\316\332"
 566      277C6A59 
 566      67D67F38 
 566      BFA17CFC 
 566      61A574CE 
 567 00e2 ACD7114D 		.ascii	"\254\327\021M>\314!\014\320\016w\330\017Ii\016\314\006"
 567      3ECC210C 
 567      D00E77D8 
 567      0F49690E 
 567      CC06
 568 00f4 4E5A573E 		.ascii	"NZW>\263\2426H69\252\000\230r\345rm<\363\376\271\321"
 568      B3A23648 
 568      3639AA00 
 568      9872E572 
 568      6D3CF3FE 
 569 010a 49EB6FE2 		.ascii	"I\353o\3422\331\315\000\2603\225\263\345\323~X( \354"
 569      32D9CD00 
 569      B03395B3 
 569      E5D37E58 
 569      2820EC
 570 011d ABF2F863 		.ascii	"\253\362\370c\300\254\325_\017.X\245J\275\376Lp\252"
 570      C0ACD55F 
 570      0F2E58A5 
 570      4ABDFE4C 
 570      70AA
 571 012f AF9B0353 		.ascii	"\257\233\003S\003R\255\370\250\202b\374y\017\212\371"
ARM GAS  /tmp/ccI5eHJN.s 			page 44


 571      0352ADF8 
 571      A88262FC 
 571      790F8AF9 
 572 013f C3C71396 		.ascii	"\303\307\023\226\340\011\014\006\373\345\356\301)\001"
 572      E0090C06 
 572      FBE5EEC1 
 572      2901
 573 014d 8B34A822 		.ascii	"\2134\250\"\016\006[fb\256\371\267\012\352\341\237\377"
 573      0E065B66 
 573      62AEF9B7 
 573      0AEAE19F 
 573      FF
 574 015e 3F1395EB 		.ascii	"?\023\225\353\265O\036\203\252\362\327\352\351\214\325"
 574      B54F1E83 
 574      AAF2D7EA 
 574      E98CD5
 575 016d 80452578 		.ascii	"\200E%x2X>*\365\217&\374HE\202\247\332!\013\010_H\225"
 575      32583E2A 
 575      F58F26FC 
 575      484582A7 
 575      DA210B08 
 576 0184 F57AFDEE 		.ascii	"\365z\375\356\374\345\215\353\330\275\035IE\263\240"
 576      FCE58DEB 
 576      D8BD1D49 
 576      45B3A0
 577 0193 80920C83 		.ascii	"\200\222\014\203x\005w\202\002d*\204\005\224U\322\\"
 577      78057782 
 577      02642A84 
 577      059455D2 
 577      5C
 578 01a4 224DD83D 		.ascii	"\"M\330=\211\220\022\243$h\002P-j$ N\257J\202v\262\316"
 578      899012A3 
 578      24680250 
 578      2D6A2420 
 578      4EAF4A82 
 579 01bb B8241FA4 		.ascii	"\270$\037\244X\244I\250\035,\266\260\350$\0333d\243"
 579      58A449A8 
 579      1D2CB6B0 
 579      E8241B33 
 579      64A3
 580 01cd 8BF9BA49 		.ascii	"\213\371\272I\023\331\312\352\036\026\031\026\275.I"
 580      13D9CAEA 
 580      1E161916 
 580      BD2E49
 581 01dc 1FFBB20D 		.ascii	"\037\373\262\015\354n\204\020\224\250\267w8n8\347\005"
 581      EC6E8410 
 581      94A8B777 
 581      386E38E7 
 581      05
 582 01ed 7722D07A 		.ascii	"w\"\320z\331\226\375<\312\344*\214\326~\256\377\216"
 582      D996FD3C 
 582      CAE42A8C 
 582      D67EAEFF 
 582      8E
 583 01fe 837895BA 		.ascii	"\203x\225\272\304@u7\314X\264^\245\214\236\2052\245"
 583      C4407537 
 583      CC58B45E 
ARM GAS  /tmp/ccI5eHJN.s 			page 45


 583      A58C9E85 
 583      32A5
 584 0210 22666088 		.ascii	"\"f`\210S\242\331\211\030\362\312\205\220\263\017\352"
 584      53A2D989 
 584      18F2CA85 
 584      90B30FEA 
 585 0220 3F79C8F0 		.ascii	"?y\310\360\2003\012\234\325\317\303D\276\005c\353\247"
 585      80330A9C 
 585      D5CFC344 
 585      BE0563EB 
 585      A7
 586 0231 AA61E70A 		.ascii	"\252a\347\012\3001xh\235\264R&\306s\350\33011!\356\023"
 586      C0317868 
 586      9DB45226 
 586      C673E8D8 
 586      313121EE 
 587 0246 94206B80 		.ascii	"\224 k\200\006Fd\022]\372\217\313\277\341\032H\006F"
 587      06466412 
 587      5DFA8FCB 
 587      BFE11A48 
 587      0646
 588 0258 F9BD4FDF 		.ascii	"\371\275O\337\\\031\\\003\231\230\344\315y\323\300^"
 588      5C195C03 
 588      9998E4CD 
 588      79D3C05E 
 589 0268 FDFE4A86 		.ascii	"\375\376J\206\221!'\216\207csW_\020\336h\307\340=J\263"
 589      9121278E 
 589      87637357 
 589      5F10DE68 
 589      C7E03D4A 
 590 027d 1BCD97E4 		.ascii	"\033\315\227\344\232\336:\034_\371\337\202\023\025\317"
 590      9ADE3A1C 
 590      5FF9DF82 
 590      1315CF
 591 028c 40C27336 		.ascii	"@\302s6\231C\347\263@V\015\214\233\230\002X\200\322"
 591      9943E7B3 
 591      40560D8C 
 591      9B980258 
 591      80D2
 592 029e FDE27EEF 		.ascii	"\375\342~\357.\033\224\375\365\322\317el\207\377AUk"
 592      2E1B94FD 
 592      F5D2CF65 
 592      6C87FF41 
 592      556B
 593 02b0 15BEDC08 		.ascii	"\025\276\334\010\237\\_\234\272\260\344%R7\204\255~"
 593      9F5C5F9C 
 593      BAB0E425 
 593      523784AD 
 593      7E
 594 02c1 FEB65068 		.ascii	"\376\266Ph7k\263\3477\274\363\030\007U\"\306t\353\210"
 594      376BB3E7 
 594      37BCF318 
 594      075522C6 
 594      74EB88
 595 02d4 C4376C01 		.ascii	"\3047l\001\276\277W<\340\241\006\234\331\351\3671\342"
 595      BEBF573C 
 595      E0A1069C 
ARM GAS  /tmp/ccI5eHJN.s 			page 46


 595      D9E9F731 
 595      E2
 596 02e5 5A7F70E1 		.ascii	"Z\177p\341;\317z2\240\365*\214\235\034\273\350\301R"
 596      3BCF7A32 
 596      A0F52A8C 
 596      9D1CBBE8 
 596      C152
 597 02f7 84E46BE9 		.ascii	"\204\344k\351:\255\244}~\363y\347\3206X\264\366\266"
 597      3AADA47D 
 597      7EF379E7 
 597      D03658B4 
 597      F6B6
 598 0309 3169705E 		.ascii	"1ip^\271\034\247\246\033\271H\357\206]T\344\255q\262"
 598      B91CA7A6 
 598      1BB948EF 
 598      865D54E4 
 598      AD71B2
 599 031c E7CAE8E2 		.ascii	"\347\312\350\342\355\230\200t\020\312v\357\224,T[H\353"
 599      ED988074 
 599      10CA76EF 
 599      942C545B 
 599      48EB
 600 032e CD3ABAED 		.ascii	"\315:\272\355s\214\326\2766\004\204\267QK\267ua\260"
 600      738CD6BE 
 600      360484B7 
 600      514BB775 
 600      61B0
 601 0340 D3E0BA69 		.ascii	"\323\340\272i\342\350\"\255\237\343\233\023\337zQt;"
 601      E2E822AD 
 601      9FE39B13 
 601      DF7A5174 
 601      3B
 602 0351 E63BDC2B 		.ascii	"\346;\334+a\237\337\227\334\352\240\033E\362E3=gU\227"
 602      619FDF97 
 602      DCEAA01B 
 602      45F24533 
 602      3D675597 
 603 0365 BCDBC9CA 		.ascii	"\274\333\311\312\354t\243\002\266\006\314Jm2) =\217"
 603      EC74A302 
 603      B606CC4A 
 603      6D322920 
 603      3D8F
 604 0377 8288AEA5 		.ascii	"\202\210\256\245\252\276W\334\353\261\020\312_-Q1.\246"
 604      AABE57DC 
 604      EBB110CA 
 604      5F2D5131 
 604      2EA6
 605 0389 97BCA833 		.ascii	"\227\274\2503\2172\033jx\2628\2515\345|\177\333\234"
 605      8F321B6A 
 605      78B238A9 
 605      35E57C7F 
 605      DB9C
 606 039b 67042DFD 		.ascii	"g\004-\375\273$s\273\335X.\307\275)\305\210hs1kv\303"
 606      BB2473BB 
 606      DD582EC7 
 606      BD29C588 
 606      6873316B 
ARM GAS  /tmp/ccI5eHJN.s 			page 47


 607 03b1 95D667AA 		.ascii	"\225\326g\252\252h8\203\223H\366M\354\024\267\342n["
 607      AA683883 
 607      9348F64D 
 607      EC14B7E2 
 607      6E5B
 608 03c3 7E5E8DB5 		.ascii	"~^\215\265mK*\360\271k\252\340\354\245\266\264G\034"
 608      6D4B2AF0 
 608      B96BAAE0 
 608      ECA5B6B4 
 608      471C
 609 03d5 8AEA9FBF 		.ascii	"\212\352\237\277\326#\016\373\014\224\354CQ\376\334"
 609      D6230EFB 
 609      0C94EC43 
 609      51FEDC
 610 03e4 7CDEEFD5 		.ascii	"|\336\357\325\3274\032\035G\022N6\027\247.>-\256m#\022"
 610      D7341A1D 
 610      47124E36 
 610      17A72E3E 
 610      2DAE6D23 
 611 03f9 71ACBB7E 		.ascii	"q\254\273~\316M\264\364\363?\323\2238\345%(RG\277\316"
 611      CE4DB4F4 
 611      F33FD393 
 611      38E52528 
 611      5247BFCE 
 612 040d 97EFD85B 		.ascii	"\227\357\330[\303!]\003\205\246\212:\276\234'\216\304"
 612      C3215D03 
 612      85A68A3A 
 612      BE9C278E 
 612      C4
 613 041e F8EA76FE 		.ascii	"\370\352v\376\004\220\005\356\273]\331\341#\205|6\177"
 613      049005EE 
 613      BB5DD9E1 
 613      23857C36 
 613      7F
 614 042f 289F7D76 		.ascii	"(\237}v\330\0342_|){d$;<x8;\362v\216\237\257\275u4\177"
 614      D81C325F 
 614      7C297B64 
 614      243B3C78 
 614      383BF276 
 615 044a 343FB227 		.ascii	"4?\262'\007\312\320\233{\366\311o\034z\027\337\371\007"
 615      07CAD09B 
 615      7BF6C96F 
 615      1C7A17DF 
 615      F907
 616 045c B0644288 		.ascii	"\260dB\210"
 617              		.text
 618              		.section	.gnu.lto_.symbol_nodes.7b24dcd268b6a645,"",%progbits
 619 0000 789C4D8E 		.ascii	"x\234M\216\315N\302@\024\205\317\235\226\226R\240\205"
 619      CD4EC240 
 619      1485CF9D 
 619      969652A0 
 619      85
 620 0011 32C0CE9D 		.ascii	"2\300\316\235\276\204/\343\223\\R\023%Q\321H\020\377"
 620      BE842FE3 
 620      935C5213 
 620      2551D148 
 620      10FF
ARM GAS  /tmp/ccI5eHJN.s 			page 48


 621 0023 7F781416 		.ascii	"\177x\024\026\272s\311Z\\\273s\2511v\274\023\271\263"
 621      BA73C95A 
 621      5CBB73A9 
 621      3176BC13 
 621      B9B3
 622 0035 F9F2DD7B 		.ascii	"\371\362\335{f\316\030\030\314\015\344\230m\006\316"
 622      66CE1818 
 622      CC0DE498 
 622      6D06CE
 623 0044 5E01E6D9 		.ascii	"^\001\346\331x\317\3540)\333e\243\354\031\034(}\001"
 623      78CFEC30 
 623      29DB65A3 
 623      EC191C28 
 623      7D01
 624 0056 874ADFC1 		.ascii	"\207J\337\3015\245_\340H\35178VzD\\W:!N\224\236\020"
 624      35A55FE0 
 624      48E93738 
 624      567A445C 
 624      573A214E 
 625 006d 37941E13 		.ascii	"7\224\036\023\247Jg\304M\257\2531\231\013\342\226\322"
 625      A74A67C4 
 625      4DAFAB31 
 625      990BE296 
 625      D2
 626 007e 39715BE9 		.ascii	"9q[\351%q\246\364\2128WzM\334QzC\334UzK\\(\275#\356"
 626      2571A6F4 
 626      8A38577A 
 626      4DDC517A 
 626      43DC557A 
 627 0098 29BD27B6 		.ascii	")\275'\266\033\245\007\342\276\350hD\364H<\330\330\023"
 627      1BA507E2 
 627      BEE86844 
 627      F4483CD8 
 627      D813
 628 00aa F1F0DF82 		.ascii	"\361\360\337\202\000(\337~(\010IX3\302(\020\306\241"
 628      0028DF7E 
 628      28084958 
 628      33C22810 
 628      C6A1
 629 00bc B05E1326 		.ascii	"\260^\023&}\354;6\006\302t(l\326\261pl%X\256+\266\033"
 629      7DEC3B36 
 629      06C27428 
 629      6CD6B170 
 629      6C2558AE 
 630 00d3 28271F5B 		.ascii	"('\037[A\026\311\275,\225y\026\243<p\363\030\213j\037"
 630      4116C9BD 
 630      2C957916 
 630      A33C70F3 
 630      188B6A1F 
 631 00e7 6698BA71 		.ascii	"f\230\272q\036a\351b\271\217\345>\346x\352\030aq^\305"
 631      1E61E962 
 631      B98FE53E 
 631      E678EA18 
 631      61715EC5 
 632 00fb 7389777C 		.ascii	"s\211w|[7AyX\255\013\337R\244\362LQ][\013\377Z\012L"
 632      5B374179 
 632      58AD0BDF 
ARM GAS  /tmp/ccI5eHJN.s 			page 49


 632      52A4F24C 
 632      515D5B0B 
 633 0113 DD677AFE 		.ascii	"\335gz\376S\326\267\331Tb6\226V\353\333\254o\263\370"
 633      53D6B7D9 
 633      54623696 
 633      56EBDBAC 
 633      6FB3F8
 634 0126 ACE2F805 		.ascii	"\254\342\370\005L\362\324\324"
 634      4CF2D4D4 
 635              		.text
 636              		.section	.gnu.lto_.refs.7b24dcd268b6a645,"",%progbits
 637 0000 789C6362 		.ascii	"x\234cb`b`d\200\002\000\000F\000\006"
 637      60626064 
 637      80020000 
 637      460006
 638              		.text
 639              		.section	.gnu.lto_.decls.7b24dcd268b6a645,"",%progbits
 640 0000 789CBD5B 		.ascii	"x\234\275[\013p\024\307\231\356\236]\255$\020\002\343"
 640      0B7014C7 
 640      99EE9E5D 
 640      AD241002 
 640      E3
 641 0011 D886BA4A 		.ascii	"\330\206\272J!\247\234+Bb\0046\306\344\252\014N\270"
 641      21A79C2B 
 641      42620436 
 641      C6E4AA0C 
 641      4EB8
 642 0023 C4903A12 		.ascii	"\304\220:\022_\260\313)\256\250\315h\265\240u\244\335"
 642      5FB0CB29 
 642      AEA8CD68 
 642      B5A075A4 
 642      DD
 643 0034 D5EE28C0 		.ascii	"\325\356(\300U\345<z \033?@ \214 <$\300\306\200\301"
 643      55E53C7A 
 643      201B3F40 
 643      208C203C 
 643      24C0C680 
 644 0049 3C049888 		.ascii	"<\004\230\210\263\031\363\020\0100\010\0048\274\214"
 644      B319F310 
 644      08300804 
 644      38BC8C
 645 0058 C0C6B171 		.ascii	"\300\306\261qb\0362\006\001\266\356\357\236\236\335"
 645      621E3206 
 645      01B6EEEF 
 645      9E9EDD
 646 0067 9EDE99DD 		.ascii	"\236\336\231\335Yqd\252zfv\246\377\357\177}\375\232"
 646      597164AA 
 646      7A6676A6 
 646      FFEF7F7D 
 646      FD9A
 647 0079 99959084 		.ascii	"\231\225\220\204ve!\324\005\333\317G!T\230\211\320\003"
 647      766521D4 
 647      05DBCF47 
 647      21549889 
 647      D003
 648 008b 08A19128 		.ascii	"\010\241\221(\276\365\207\262\024\312\012(\253\240\214"
 648      BEF587B2 
ARM GAS  /tmp/ccI5eHJN.s 			page 50


 648      14CA0A28 
 648      ABA08C
 649 009a C3083D0D 		.ascii	"\303\010=\015e<\224\347\240L\2002\021\212\014\345y("
 649      653C94E7 
 649      A04C8032 
 649      118A0CE5 
 649      7928
 650 00ac 2128E550 		.ascii	"!(\345P\232\240hPZ\240\034\201r\026J\007\224N(.\011"
 650      9AA06850 
 650      5AA01C81 
 650      72164A07 
 650      944E282E 
 651 00c1 A16C280F 		.ascii	"\241l(\017@\351\017\345_$\224\260\021\235P\025}\237"
 651      40E90FE5 
 651      5F2494B0 
 651      119D5015 
 651      7D9F
 652 00d3 DD93D8B5 		.ascii	"\335\223\330\265\001\026uWX\324%\327\036\262\250K|p"
 652      01167557 
 652      58D425D7 
 652      1EB2A84B 
 652      7C70
 653 00e5 41D90465 		.ascii	"A\331\004e-\2245\254~#\2241X\307Y\305\360~\205\315\262"
 653      2D9435AC 
 653      7E239431 
 653      58C759C5 
 653      F07E85CD 
 654 00fa C4775277 		.ascii	"\304wRw \354\226\241\270.r}i\242*\032'\017\323\225\013"
 654      20EC96A1 
 654      B82E727D 
 654      69A22A1A 
 654      270FD395 
 655 010f 25074AA6 		.ascii	"%\007J\246\205<\251g\370\360#\301\346\361Lg>\354Vs2"
 655      853CA967 
 655      F8F023C1 
 655      E6F14C67 
 655      3EEC5673 
 656 0124 E4BA61E7 		.ascii	"\344\272a\347\263\202\235\317\331\330I\256\217\023\352"
 656      B3829DCF 
 656      D9D849AE 
 656      8F13EA
 657 0133 926D824D 		.ascii	"\222m\202M\375\011,\327\3426\321\306\246\211\214\027"
 657      FD092CD7 
 657      E236D1C6 
 657      A6898C17 
 658 0143 44C42BC8 		.ascii	"D\304+\310\311Lf\010\354\012p\\\206\\'< \347\223\340"
 658      C94C6608 
 658      EC0A705C 
 658      865C273C 
 658      20E793E0 
 659 0157 7CB220F7 		.ascii	"|\262 \367\274\215\034\271\336\237\311\025\303y\211"
 659      BC8D1CB9 
 659      DE9FC915 
 659      C37989
 660 0166 20477898 		.ascii	" Gx\230\001\307l\034\217\375P\250\034\3460H\035\302"
 660      01C76C1C 
 660      8FFD50A8 
ARM GAS  /tmp/ccI5eHJN.s 			page 51


 660      1CE63048 
 660      1DC2
 661 0178 3DC2873F 		.ascii	"=\302\207?\301\371\377@yD\210?\3412\221%<1p\352\260"
 661      C1F9FF40 
 661      7944883F 
 661      E1329125 
 661      3C3170EA 
 662 018d CE9DE970 		.ascii	"\316\235\351p\254\302\3618\314\206\363\006(\320\224"
 662      ACC2F138 
 662      CC86F306 
 662      28D094
 663 019c 10342B34 		.ascii	"\0204+4\023\316k\240\314\203\262\030\312B(\013\240\324"
 663      13CE6BA0 
 663      CC83B218 
 663      CA42280B 
 663      A0D4
 664 01ae 4359C9FC 		.ascii	"CY\311\374*g\355\207\330\272\016\216\033\2404B\331\014"
 664      2A67ED87 
 664      D8BA0E8E 
 664      1BA03442 
 664      D90C
 665 01c0 E55DC127 		.ascii	"\345]\301'\322\246z2\375\206-k8;f3\273H\254\010\357"
 665      D2A67A32 
 665      FD862D6B 
 665      383B6633 
 665      BB48AC08 
 666 01d5 0A182EAF 		.ascii	"\012\030.\257\237\3303\223\351nb\355\226\250y_\320E"
 666      9FD83393 
 666      E96E62ED 
 666      96A8795F 
 666      D045
 667 01e7 DA6E1F38 		.ascii	"\332n\0378\272\005\277\011\336\243\222\036WQw'J\324"
 667      BA05BF09 
 667      DEA3921E 
 667      57517727 
 667      4AD4
 668 01f9 4F8E0B99 		.ascii	"O\216\013\231\376\032\346\377<\316\006\215\365\033$"
 668      FE1AE6FF 
 668      3CCE068D 
 668      F51B24
 669 0208 07BBE1D8 		.ascii	"\007\273\341\330\014e\270\220\003\322\207\334\013\307"
 669      0C65B890 
 669      03D287DC 
 669      0BC7
 670 0216 1582DFD9 		.ascii	"\025\202\337\331\314\236:\246\333\340/\311\201a\327"
 670      CC9E3AA6 
 670      DBE02FC9 
 670      8161D7
 671 0225 52161323 		.ascii	"R\026\023#\367\036\226'r\254\307\361\034-\346ls3\235"
 671      F71E9627 
 671      72ACC7F1 
 671      1C2DE66C 
 671      73339D
 672 0238 CFB1FE6C 		.ascii	"\317\261\376l\002\263\357 \034\017Ay\\\260\357\010\263"
 672      02B3EF20 
 672      1C0F4179 
 672      5CB0EF08 
ARM GAS  /tmp/ccI5eHJN.s 			page 52


 672      B3
 673 0249 8FE708C1 		.ascii	"\217\347\010\301\257\345\354\303\202]\206\255\242}F"
 673      AFE5ECC3 
 673      825D86AD 
 673      A27D46
 674 0258 1C53D977 		.ascii	"\034S\331wD\260\217\324\037\001\030'\341\374\024\224"
 674      44B08FD4 
 674      1F011827 
 674      E1FC1494 
 675 0268 1350CE40 		.ascii	"\023P\316@yB\260\365l\022>\177\002\307\363w\310\347"
 675      7942B0F5 
 675      6C123E7F 
 675      02C7F377 
 675      C8E7
 676 027a B31C9FBF 		.ascii	"\263\034\237\277\204\343WP\376\001\345\022\224+\002"
 676      84E35750 
 676      FE01E512 
 676      942B02
 677 0289 C7C878D0 		.ascii	"\307\310x\320K\3403\361-\203\331g\330c\305k\017J\264"
 677      4BE033F1 
 677      2D83D967 
 677      D863C56B 
 677      0F4AB4
 678 029c 83E77607 		.ascii	"\203\347v\007\307\355\353\202\336N\213|\361\\Z\301\345"
 678      C7EDEB82 
 678      DE4E8B7C 
 678      F15C5AC1 
 678      E5
 679 02ad 878F8BC8 		.ascii	"\207\217\213\310\241N\226\323\245\354\232\021\037\303"
 679      A14E96D3 
 679      A5EC9A11 
 679      1FC3
 680 02bb 9E792C36 		.ascii	"\236y,6n\246\223\317\027\271\326E\354#\306B\031)\344"
 680      6EA693CF 
 680      17B9D645 
 680      EC23C642 
 680      1929E4
 681 02ce 898C914E 		.ascii	"\211\214\221N\332_\247\2038%k\177D\217\321\307f\302"
 681      DA5FA783 
 681      38256B7F 
 681      448FD1C7 
 681      66C2
 682 02e0 6E946007 		.ascii	"n\224`\007\031\247\357K\301\355^R\234\337\206-|\374"
 682      19A7EF4B 
 682      C1ED5E52 
 682      9CDF862D 
 682      7CFC
 683 02f2 786EE74A 		.ascii	"xn\347J\272\315F\314x\216\363qs3\335\"\307\237\204k"
 683      BACD46CC 
 683      788EF371 
 683      7333DD22 
 683      C79F846B 
 684 0306 F742F91E 		.ascii	"\367B\371\036\224\276\3046(\277\020l\036\200\226\250"
 684      94BEC436 
 684      28BF106C 
 684      1E8096A8 
 685 0316 5A6BFBEE 		.ascii	"Zk\373\356\317\316K\013T\255J\205\351\215\212\363\356"
ARM GAS  /tmp/ccI5eHJN.s 			page 53


 685      CFCE4B0B 
 685      54AD4A85 
 685      E98D8AF3 
 685      EE
 686 0327 47AFABB0 		.ascii	"G\257\253\2605T\253*Vd<\362>\364;,\343\334l\224GOr\262"
 686      3554AB2A 
 686      56643CF2 
 686      3EF43B2C 
 686      E3DC6C94 
 687 033f A94EC29A 		.ascii	"\251N\302\232e\370~v\366\254KG\224\320c\030\015B\253"
 687      65F87E76 
 687      F6AC4B47 
 687      94D06318 
 687      0D42AB
 688 0352 40BE4655 		.ascii	"@\276FU\317\017@V\333\277\2427\211\002u\245\352\242"
 688      CF0F4056 
 688      DBBFA237 
 688      890275A5 
 688      EAA2
 689 0364 F0046029 		.ascii	"\360\004`)6\325\225\361rl2V7U;~<\247\246\274\275\253"
 689      36D595F1 
 689      726C3256 
 689      37553B7E 
 689      3CA7A6BC 
 690 037a ABBEA18F 		.ascii	"\253\276\241\217\256^B\277\304P\373\015<()\374\012\021"
 690      AE5E42BF 
 690      C450FB0D 
 690      3C2829FC 
 690      0A11
 691 038c FE2D2BF8 		.ascii	"\376-+\370\366\243\325g\372w+\022\253Y$\\\224\0370\370"
 691      F6A3D567 
 691      FA772B12 
 691      AB59245C 
 691      941F30F8 
 692 03a0 BCACAA15 		.ascii	"\274\254\252\025Dp\314\336\334\276h6A\311\333\013\264"
 692      4470CCDE 
 692      DCBE6836 
 692      41C9DB0B 
 692      B4
 693 03b1 60F24F1A 		.ascii	"`\362O\032\362\244\267\370!z\003\242\325\336\371\342"
 693      F2A4B7F8 
 693      217A03A2 
 693      D5DEF9E2 
 694 03c1 D1D9B80A 		.ascii	"\321\331\270\0124\311x-\356\0138\253\261\3313\206\323"
 694      34C9782D 
 694      EE0B38AB 
 694      B1D93386 
 694      D3
 695 03d2 F0A41D90 		.ascii	"\360\244\035\220\004\003\025\021Y\017\342\272 \205V"
 695      04031511 
 695      590FE2BA 
 695      208556
 696 03e1 DB8F355F 		.ascii	"\333\2175_\257\300\345\024\232\334CB\300\270\355A\324"
 696      AFC0E514 
 696      9ADC4342 
 696      C0B8ED41 
 696      D4
ARM GAS  /tmp/ccI5eHJN.s 			page 54


 697 03f2 00866B57 		.ascii	"\000\206kW^Y\334_m\330\201S\371\241\272\014\375C\342"
 697      5E59DC5F 
 697      6DD88153 
 697      F9A1BA0C 
 697      FD43E2
 698 0405 8EDCD833 		.ascii	"\216\334\3303Ju\313x3ub\277\265\023\366 \022:JE\266"
 698      4A75CB78 
 698      337562BF 
 698      B513F620 
 698      123A4A45 
 699 041a 263851BD 		.ascii	"&8Q\275\273\2229\261\325\221\023u3u'd\274\011\034\221"
 699      BB9239B1 
 699      D5911375 
 699      33752764 
 699      BC091C91 
 700 042e D0C7315C 		.ascii	"\320\3071\\\253,\262S}c\025\314x\177>\230S#\033`\027"
 700      AB2CB253 
 700      7D6315CC 
 700      787F3E98 
 700      53231B60 
 701 0443 D206CB33 		.ascii	"\322\006\3133\201\325\037\\D\215\313F/\305#\214,\301"
 701      81D51F5C 
 701      448DCB46 
 701      2FC5238C 
 701      2CC1
 702 0455 5858FF32 		.ascii	"XX\3772k\327a\\I\375\327@\014\370!\231C\353\034\352"
 702      6BD7615C 
 702      49FDD740 
 702      0CF82199 
 702      43EB1CEA 
 703 0469 58EDEE0F 		.ascii	"X\355\356\017p\005\205\332I\241Z\273\015\325q|\327l"
 703      700585DA 
 703      49A15ABB 
 703      0DD5717C 
 703      D76C
 704 047b 66553385 		.ascii	"fU3\205z\321e\206\222qf,\220\261\337F\005\202Go\263"
 704      7AD16586 
 704      9271662C 
 704      90B1DF46 
 704      0582476F 
 705 0490 13B2C0EA 		.ascii	"\023\262\300\352\215\356ru\011\315q9H^\226\035\023T"
 705      8DEE7275 
 705      09CD7139 
 705      485E961D 
 705      1354
 706 04a2 E8260EB8 		.ascii	"\350&\016\270H7\3412\232\244\307.J\022Z@u\355\027\331"
 706      4837E132 
 706      9AA4C72E 
 706      4A125A40 
 706      75ED17D9 
 707 04b6 5C7BEA80 		.ascii	"\\{\352\200\321$\367;b\363\346}u\216\232d\203d\350\177"
 707      D124F73B 
 707      62F3E67D 
 707      758E9A64 
 707      8364E87F 
 708 04ca 88EA6FA5 		.ascii	"\210\352o\245\372[E\375\323\033?\300\252\232\245\337"
 708      FA5B45FD 
ARM GAS  /tmp/ccI5eHJN.s 			page 55


 708      D31B3FC0 
 708      AA9AA5DF 
 709 04da 49AD7DE1 		.ascii	"I\255}\341\376\271\211\332m{D\306\215\332S\237]a>\036"
 709      FEB989DA 
 709      6D7B44C6 
 709      8DDA539F 
 709      5D613E1E 
 710 04ee A58DE674 		.ascii	"\245\215\346t\0027F\3654g\017~s\025\240\231\305\254"
 710      023746F5 
 710      34670F7E 
 710      7315A099 
 710      C5AC
 711 0500 EF569B6D 		.ascii	"\357V\233m\337\335\330B\2076\227a\302\347i\003\346\231"
 711      DFDDD842 
 711      87369761 
 711      C2E76903 
 711      E699
 712 0512 02B1643F 		.ascii	"\002\261d?\355\004t\260/\235\200\331\362\250B[\317\203"
 712      ED0474B0 
 712      2F9D80D9 
 712      F2A8425B 
 712      CF83
 713 0524 5D4A1BCC 		.ascii	"]J\033\314l\331F\036\254\303\011X\037{\3136\361`\337"
 713      6CD9461E 
 713      ACC30958 
 713      1F7BCB36 
 713      F160DF
 714 0537 A40D66B6 		.ascii	"\244\015f\266l\013\017\326\351\004\254\237\275e[y\260"
 714      6C0B0FD6 
 714      E904AC9F 
 714      BD655B79 
 714      B0
 715 0548 DB698399 		.ascii	"\333i\203\231-k\342\301\272\234\200\345YX\026\333\354"
 715      2D6BE2C1 
 715      BA9C80E5 
 715      595816DB 
 715      EC
 716 0559 66078770 		.ascii	"f\007\207p\214\346\022\252p\033\035B\232\224Fq\214j"
 716      8CE612AA 
 716      701B1D42 
 716      9A944671 
 716      8C6A
 717 056b 77BA1D98 		.ascii	"w\272\035\230\311o\030K?\\\216k+\325\275C\214\361\354"
 717      C96F184B 
 717      3F5C8E6B 
 717      2BD5BD43 
 717      8CF1EC
 718 057e 55278849 		.ascii	"U'\210I\010\263\205\037\034\347\246\015fN\313Q\002f"
 718      08B3851F 
 718      1CE7A60D 
 718      664ECB51 
 718      0266
 719 0590 EA6AD880 		.ascii	"\352j\330\200\324\376\246\326o~\274\257\3132\260\310"
 719      D4FEA6D6 
 719      6F7EBCAF 
 719      CB32B0C8 
 720 05a0 A45AEFD8 		.ascii	"\244Z\357\330`\326)\305*\253\375\372Y\327\225\361\025"
ARM GAS  /tmp/ccI5eHJN.s 			page 56


 720      60D629C5 
 720      2AABFDFA 
 720      59D795F1 
 720      15
 721 05b1 FC43D85F 		.ascii	"\374C\330_\305\3311+\364s\343\254\213N\365\027\271\205"
 721      C5D9312B 
 721      F473E3AC 
 721      8B4EF517 
 721      B985
 722 05c3 1591B1A5 		.ascii	"\025\221\261\245\022\265c\302%\236\011K\235\204)IS\270"
 722      12B563C2 
 722      259E094B 
 722      9D842949 
 722      53B8
 723 05d5 7570D103 		.ascii	"up\321\003j\273\2069\177\223\006\007\346\020\207\336"
 723      6ABB8639 
 723      7F930607 
 723      E61087DE 
 724 05e5 7F82F6FA 		.ascii	"\177\202\366\372\337\320\261z\245\333r\330w\000t\254"
 724      DFD0B17A 
 724      A5DB72D8 
 724      770074AC 
 725 05f5 76ED8F29 		.ascii	"v\355\217)P'\005\332\320m\240\216\343KFP\240\333\024"
 725      502705DA 
 725      D06DA08E 
 725      E34B4650 
 725      A0DB14
 726 0608 E82F6E71 		.ascii	"\350/nq\204\300\302\354\001\233\307\367X\344Y\340\357"
 726      84C0C2EC 
 726      019BC7F7 
 726      58E459E0 
 726      EF
 727 0619 565D09ED 		.ascii	"V]\011\355\024\263er'e_\003\223\360OkqG\205:\177H\032"
 727      14B36572 
 727      27655F03 
 727      93F04F6B 
 727      7147853A 
 728 0630 F99AC5F2 		.ascii	"\371\232\305\362U.\221\350\354O\210Ng\232\341\221P["
 728      552E91E8 
 728      EC4F884E 
 728      679AE191 
 728      505B
 729 0642 DA6E0CE4 		.ascii	"\332n\014\344\334 k\211\257\347\352]\307\275hN\362\311"
 729      DC206B89 
 729      AFE7EA5D 
 729      C7BD684E 
 729      F2C9
 730 0654 0FB1A75A 		.ascii	"\017\261\247Z\272\3274\361\320\256\035\302y\372\345"
 730      BAD734F1 
 730      D0AE1DC2 
 730      79FAE5
 731 0663 54B30E55 		.ascii	"T\263\016U\253=\302M\222UG\223\344C\261I\362\014\032"
 731      AB3DC24D 
 731      92554793 
 731      E443B149 
 731      F20C1A
 732 0676 B25356CC 		.ascii	"\262SV\314t\002\325p\254\355>\262\214y\225\302\234\353"
ARM GAS  /tmp/ccI5eHJN.s 			page 57


 732      7402D570 
 732      ACED3EB2 
 732      8C7995C2 
 732      9CEB
 733 0688 2E0C107C 		.ascii	".\014\020|\273N\360Y\024\350\213\204\024z\204\014z\314"
 733      BB4EF059 
 733      14E88B84 
 733      147A840C 
 733      7ACC
 734 069a 19849F44 		.ascii	"\031\204\237D\323\0152y\305/\260+\344G&\372\247\313"
 734      D30D3279 
 734      C52FB02B 
 734      E44726FA 
 734      A7CB
 735 06ac C1BC829A 		.ascii	"\301\274\202\232O\262\327\235\371\030Y\304\035\230k"
 735      4FB2D79D 
 735      F91859C4 
 735      1D986B
 736 06bb 0C3C7A82 		.ascii	"\014<z\202n\336\021b\205\266}\216\261\312\033E\206\236"
 736      6EDE1162 
 736      85B67D8E 
 736      B1CA1B45 
 736      869E
 737 06cd CA8C3B83 		.ascii	"\312\214;\203;}D\034z\204)\357f\233\356:\266\212o6\226"
 737      3B7D441C 
 737      7A8429EF 
 737      669BEE3A 
 737      B68A6F36 
 738 06e2 560B2462 		.ascii	"V\013$b\320\313\031b\3027aa\322K.pU\354\232\322|\211"
 738      D0CB1962 
 738      C2376161 
 738      D24B2E70 
 738      55EC9AD2 
 739 06f8 1B3B16DF 		.ascii	"\033;\026\337\231\237\220\210\263o\350\211H\265\240"
 739      999F9088 
 739      B36FE889 
 739      48B5A0
 740 0707 F8BD8196 		.ascii	"\370\275\201\226C\025/\247\212\353%a=q\370\313\366j"
 740      43152FA7 
 740      8AEB2561 
 740      3D71F8CB 
 740      F66A
 741 0719 E637B997 		.ascii	"\3467\271\227\272m\237\272\220\255\316\3111\236u\234"
 741      BA6D9FBA 
 741      90ADCEC9 
 741      319E759C 
 742 0729 88A132AD 		.ascii	"\210\2412\255\246\007\033)y\245}\354\337;$\235^\242"
 742      A6071B29 
 742      79A57DEC 
 742      DF3B249D 
 742      5EA2
 743 073b D9E825DE 		.ascii	"\331\350%\336\324\233wB\222H\263\357~3\371\233\350\216"
 743      D49B7742 
 743      9248B3EF 
 743      7E33F99B 
 743      E88E
 744 074d D385416C 		.ascii	"\323\205Al\263#\301\022\236\004\377\270S\0224\377\315"
ARM GAS  /tmp/ccI5eHJN.s 			page 58


 744      B323C112 
 744      9E04FFB8 
 744      531234FF 
 744      CD
 745 075e 210954CC 		.ascii	"!\011T\314O\333$\3645\325\274Fd\301\255K{_d+\2765\216"
 745      4FDB24F4 
 745      35D5BC46 
 745      64C1AD4B 
 745      7B5F642B 
 746 0775 5870CDC4 		.ascii	"Xp\315\304\202\025\036\003\265;,\250\320:\277h\301\024"
 746      82151E03 
 746      B53B2CA8 
 746      D03ABF68 
 746      C114
 747 0787 4E9F86BE 		.ascii	"N\237\206\276#\302\245\271<\273\355O70:\277\264\023"
 747      23C2A5B9 
 747      3CBBED4F 
 747      37303ABF 
 747      B413
 748 0799 17C818B7 		.ascii	"\027\310\030\267Y\">m\361\210\324\322#\303Q+\036F\031"
 748      59223E6D 
 748      F188D4D2 
 748      23C3512B 
 748      1E4619
 749 07ac BF239179 		.ascii	"\277#\221y\351:\351A\330o\240\373F\330\247\244\305&"
 749      E93AE941 
 749      D86FA0FB 
 749      46D8A7A4 
 749      C526
 750 07be 9E16EFA7 		.ascii	"\236\026\357\247\355w\236C\366\275\315\253\331\355\351"
 750      ED779E43 
 750      F6BDCDAB 
 750      D9EDE9
 751 07cd 26FB50   		.ascii	"&\373P"
 752 07d0 1CE380C7 		.ascii	"\034\343\200\307\301\0248\317.E\344I\314u\267\263'1"
 752      C11438CF 
 752      2E45E449 
 752      CC75B7B3 
 752      2731
 753 07e2 46FFBCE7 		.ascii	"F\377\274\347@9{\312\372\2774?\255B~\034<\3229KE\266"
 753      40397BCA 
 753      FABF343F 
 753      AD427E1C 
 753      3CD2394B 
 754 07f8 8BE43F56 		.ascii	"\213\344?V\375\265\361Hg\273\003\362Whm\257\360\017"
 754      FDB5F148 
 754      67BB03F2 
 754      57686DAF 
 754      F00F
 755 080a 28C1202C 		.ascii	"(\301 ,1\334\356\006\224\333x\003e\374\001\245\325\016"
 755      31DCEE06 
 755      94DB7803 
 755      65FC01A5 
 755      D50E
 756 081c 9E4A12BA 		.ascii	"\236J\022\272\224v\360\363L\3667\035\247k\276\267\351"
 756      9476F0F3 
 756      4CF6371D 
ARM GAS  /tmp/ccI5eHJN.s 			page 59


 756      A76BBEB7 
 756      E9
 757 082d 38D7E904 		.ascii	"8\327\351\004l\240]&!\030\307\027\261`\350O7+3\323\305"
 757      6CA05D26 
 757      2118C717 
 757      B160E84F 
 757      372B33D3 
 758 0842 CB4B168C 		.ascii	"\313K\026\214\370\343d\0317\321\265\3376LZ\327{t\277"
 758      F8E36419 
 758      37D1B5DF 
 758      364C5AD7 
 758      7B74BF
 759 0855 9DEEF7D1 		.ascii	"\235\356\367\321\375E\272\377;\335\177E\367\327\350"
 759      FD45BAFF 
 759      3BDD7F45 
 759      F7D7E8
 760 0864 5EA5AD71 		.ascii	"^\245\255q:\335o\243\373]t\337\354\250}\232\207x#\327"
 760      3ADD6FA3 
 760      FB5D74DF 
 760      ECA87D9A 
 760      877823D7 
 761 0878 EBBBFD30 		.ascii	"\353\273\3750\272C\340\316\373i\343%\015\327z.\\\033"
 761      BA43E0CE 
 761      FB69E325 
 761      0DD77A2E 
 761      5C1B
 762 088a 69B81A69 		.ascii	"i\270\032i\020\366:qvM|\202\023\1773\204\010\343ff\232"
 762      10F63A71 
 762      764D7C82 
 762      137F3384 
 762      08E36666 
 763 089f 1BDB4368 		.ascii	"\033\333Ch\271\252\316\321\256}\246y\240\025\273uQ\011"
 763      B9AACED1 
 763      AE7DA679 
 763      A015BB75 
 763      5109
 764 08b1 2DA0D556 		.ascii	"-\240\325V\341\001\226*b\012\330\213\236\023\352\323"
 764      E101962A 
 764      620AD88B 
 764      9E13EAD3 
 765 08c1 FD622F7A 		.ascii	"\375b/zV\211/zZ$\253\027=7o\266\376\027\367\242\307"
 765      56892F7A 
 765      5A24AB17 
 765      3D376FB6 
 765      FE17F7A2 
 766 08d6 7897D42C 		.ascii	"x\227\324,\330g\3752\351CI\320q\320J\207\266\350\243"
 766      D867FD32 
 766      E94349D0 
 766      71D04A87 
 766      B6E8A3
 767 08e9 847755AD 		.ascii	"\204wU\255\216\360[E\374\303\226>\334\370\356\362\257"
 767      8EF05B45 
 767      FCC3963E 
 767      DCF8EEF2 
 767      AF
 768 08fa 4C3EACA6 		.ascii	"L>\254\246:fdY\305X\275\346\037\243\007N\306\373%\302"
 768      3A666459 
ARM GAS  /tmp/ccI5eHJN.s 			page 60


 768      C558BDE6 
 768      1FA3074E 
 768      C6FB25C2 
 769 090e 9536A91B 		.ascii	"\2256\251\033\341m\023M;ji\332\355e'\376d\021\336=Y"
 769      E16D134D 
 769      3B6A69DA 
 769      ED6527FE 
 769      6411DE3D 
 770 0923 4EDCFF48 		.ascii	"N\334\377H\324\361W\313\360\236>\233\020\3366G\370'"
 770      D4F157CB 
 770      F09E3E9B 
 770      10DE3647 
 770      F827
 771 0935 45FC5396 		.ascii	"E\374S\226\370G.\355\205\311\204z\273\253\253\262\212"
 771      F8472EED 
 771      85C9847A 
 771      BBABABB2 
 771      8A
 772 0946 C44B8FEE 		.ascii	"\304K\217\3569\353\350v\211\321=\323\235\350\236\021"
 772      39EBE876 
 772      89D13DD3 
 772      9DE89E11 
 773 0956 2DFBD8D2 		.ascii	"-\373\330\322\262\365\035\274e\316_R\236\227L/)uSb?"
 773      B2F51DBC 
 773      65CE5F52 
 773      9E974C2F 
 773      29755362 
 774 096b 66E8335E 		.ascii	"f\3503^\241\305\336\262\366\367\272\350\357\271\344"
 774      A1C5DEB2 
 774      F6F7BAE8 
 774      EFB9E4
 775 097a FE52B11A 		.ascii	"\376R\261\032uqsN\0156V~\263\263qRAf\220U\240\316\211"
 775      7571734E 
 775      0D36567E 
 775      B3B37152 
 775      41669055 
 776 0991 81BA6019 		.ascii	"\201\272`\031\250o\256\232SH\002 \241\327\263-]\352"
 776      A86FAE9A 
 776      53480220 
 776      A1D7B32D 
 776      5DEA
 777 09a3 145DBAE8 		.ascii	"\024]\272\350\310\245\372\270K2\376<\205`\022\227.\212"
 777      C8A5FAB8 
 777      4B32FE3C 
 777      85601297 
 777      2E8A
 778 09b5 2E7D69E9 		.ascii	".}i\351\322\266\253\237'yWO\360\355\262\1779I\366\331"
 778      D2B6AB9F 
 778      2779574F 
 778      F0EDB27F 
 778      3949F6D9 
 779 09c9 1329B55A 		.ascii	"\023)\265Z\035\2702>\355\351c@\220:\261\371\323\226"
 779      1DB8323E 
 779      EDE96340 
 779      903AB1F9 
 779      D396
 780 09db 41F47146 		.ascii	"A\364qF\007\315\341\032!\226\316\201\216\325\276\373"
ARM GAS  /tmp/ccI5eHJN.s 			page 61


 780      07CDE11A 
 780      2196CE81 
 780      8ED5BEFB 
 781 09eb 13FD5124 		.ascii	"\023\375Q$\005\332\322m\240\216\343k\177\252?\212\244"
 781      05DAD26D 
 781      A08EE36B 
 781      7FAA3F8A 
 781      A4
 782 09fc 40DB0520 		.ascii	"@\333\005 \031\273\204\225\234\313\274\222se\307O\272"
 782      19BB8495 
 782      9CCBBC92 
 782      7365C74F 
 782      BA
 783 0a0d BA5CE8EE 		.ascii	"\272\\\350\356V\026\232\327>K.\266\177\273\014V2\345"
 783      56169AD7 
 783      3E4B2EB6 
 783      7FBB0C56 
 783      32E5
 784 0a1f 1B3E55D5 		.ascii	"\033>U\325\276fN^r\300\3119\332{W\367f\316W5\311\310"
 784      BE664E5E 
 784      72C0C939 
 784      DA7B57F7 
 784      66CE5735 
 785 0a35 D2A7540B 		.ascii	"\322\247T\013'k\212\243^+FK\235bs\311h\254\323\325^"
 785      276B8AA3 
 785      5E2B464B 
 785      9D6273C9 
 785      68ACD3D5 
 786 0a4a 2BF3E876 		.ascii	"+\363\350v\"S\033\264\366\306u\207'\307\231\232F7U\341"
 786      22531BB4 
 786      F6C67587 
 786      27C7999A 
 786      463755E1 
 787 0a5e 4AEB5B0A 		.ascii	"J\353[\012\363\013OF\212\023\033;\007\254QU\030\031"
 787      F30B4F46 
 787      8A131B3B 
 787      07AC5155 
 787      1819
 788 0a70 A6BBC82C 		.ascii	"\246\273\310,\177g\217\224\237!X\341h\333\351J\356%"
 788      7F678F94 
 788      9F2158E1 
 788      68DBE94A 
 788      EE25
 789 0a82 8A71385D 		.ascii	"\212q8]\014\011\235\246\"\257\270\314+\005mvu\016y\264"
 789      0C099DA6 
 789      22AFB8CC 
 789      2B056D76 
 789      750E79B4 
 790 0a96 48AE3B78 		.ascii	"H\256;x\010\332\274\010\3533=}\221|!\206\331\215ErU"
 790      08DABC08 
 790      EB333D7D 
 790      917C2186 
 790      D98D4572 
 791 0aab A536173A 		.ascii	"\2456\027:,\2316\257J'\317J\266\277{\356\337\326A$\035"
 791      2C9936AF 
 791      4A27CF4A 
 791      B6BF7BEE 
ARM GAS  /tmp/ccI5eHJN.s 			page 62


 791      DFD64124 
 792 0ac0 7C1220E3 		.ascii	"|\022 \3439.2U\31407\203\214\354\370I\354\025|CO\261"
 792      392E3255 
 792      CC303783 
 792      8CECF849 
 792      EC157C43 
 793 0ad6 996608CD 		.ascii	"\231f\010\315\324\011\312[=\205X\244\267\302\007\232"
 793      D409CA5B 
 793      3D8558A4 
 793      B7C2079A 
 794 0ae6 9CE8D7B4 		.ascii	"\234\350\327\264QUgx\204\247|\344\271\272\035?\353\\"
 794      51556778 
 794      84A77CE4 
 794      B9BA1D3F 
 794      EB5C
 795 0af8 DC227843 		.ascii	"\334\"xC\332\026\344\361\026h\363\233\351\032\212`J"
 795      DA16E4F1 
 795      1668F39B 
 795      E91A8A60 
 795      4A
 796 0b09 A8C90958 		.ascii	"\250\311\011X\222\227p\213x0-m0\263eKx\260\275N\300"
 796      9297708B 
 796      78302D6D 
 796      30B3654B 
 796      78B0BD4E 
 797 0b1e 92BCAADA 		.ascii	"\222\274\252\332\320\274(\361\373\001\347]\302\322$"
 797      D0BC28F1 
 797      FB01E75D 
 797      C2D224
 798 0b2d 5D82DE3C 		.ascii	"]\202\336<\355$\227\273\254\327\"\366\214\327\316,%"
 798      ED2497BB 
 798      ACD722F6 
 798      8CD7CE2C 
 798      25
 799 0b3e 6DBE81FA 		.ascii	"m\276\201\372\335*\320T\320L\354\262\323\274\302\325"
 799      DD2AD054 
 799      D04CECB2 
 799      D3BCC2D5 
 800 0b4e D3A66D27 		.ascii	"\323\246m'\334\223\320\311\264\343kNVc\265\351)\370"
 800      DC93D0C9 
 800      B4E36B4E 
 800      5663B5E9 
 800      29F8
 801 0b60 274EE0F2 		.ascii	"'N\340\362,\322e\265\361\035\230\214_\243M|\246\213"
 801      2CD265B5 
 801      F11D988C 
 801      5FA34D7C 
 801      A68B
 802 0b72 AC066BE8 		.ascii	"\254\006k\350~\036\335/\240\373\205t\277\230\356\353"
 802      7E1EDD2F 
 802      A0FB8574 
 802      BF98EEEB 
 803 0b82 E97EA5EB 		.ascii	"\351~\245\353\301\273\215j\227\201\252x\356c\223\036"
 803      C1BB8D6A 
 803      9781AA78 
 803      EE63931E 
 804 0b92 D67863BF 		.ascii	"\326xc\277k\365\331A\354w\203p_\377@E\030\265/\366\264"
ARM GAS  /tmp/ccI5eHJN.s 			page 63


 804      6BF5D941 
 804      EC778370 
 804      5FFF4045 
 804      18B52FF6 
 805 0ba7 1CB561C4 		.ascii	"\034\265a\304{\013\317\255T\307\350\252%t\235\326+w"
 805      7B0BCFAD 
 805      54C7E8AA 
 805      25749DD6 
 805      2B77
 806 0bb9 D98DD9D4 		.ascii	"\331\215\331\324@6\375<L\246\237zc\273\225B\254\216"
 806      4036FD3C 
 806      4CA69F7A 
 806      63BB9542 
 806      AC8E
 807 0bcb 13A31371 		.ascii	"\023\243\023q\342\204\204\276K!F]e3\204\353\327Z0\231"
 807      E28484BE 
 807      4B21465D 
 807      653384EB 
 807      D75A3099 
 808 0bdf 5BE82CAF 		.ascii	"[\350,\257\314I.\331\300)l$\012)\311^J!5\212[\347h\327"
 808      CC492ED9 
 808      C0296C24 
 808      0A29C95E 
 808      4A21358A 
 809 0bf7 16A83D86 		.ascii	"\026\250=\206\304&\273D\310\304\205w\\\026S\010\355"
 809      C426BB44 
 809      C8C48577 
 809      5C165308 
 809      ED
 810 0c08 68335BE2 		.ascii	"h3[\342\245\361%\3466\2270\315\255\242m\315\224\277"
 810      A5F125E6 
 810      369730CD 
 810      ADA26DCD 
 810      94BF
 811 0c1a D7722C57 		.ascii	"\327r,W\000\337\026\2161\252\257w\221\331VS\362\314"
 811      00DF168E 
 811      31AAAF77 
 811      91D95653 
 811      F2CC
 812 0c2c C526F2AF 		.ascii	"\305&\362\257\251\323\373\340\230sM\242s\357Y:\327\270"
 812      A9D3FBE0 
 812      98734DA2 
 812      73EF593A 
 812      D7B8
 813 0c3e 67BFB138 		.ascii	"g\277\2618q\213\263\243d\363\370\017\254\034\214\375"
 813      718BB3A3 
 813      64F3F80F 
 813      AC1C8CFD 
 814 0c4e 602F8405 		.ascii	"`/\204\005\207\347Y;|KtXsD\325\315\023\373\031/\376"
 814      87E7593B 
 814      7C4B7458 
 814      7344D5CD 
 814      13FB192F 
 815 0c63 1753604E 		.ascii	"\027S`NL\370\314\202\231\303\342\264\256zz\037nZi\247"
 815      4CF8CC82 
 815      99C3E2B4 
 815      AE7A7A1F 
ARM GAS  /tmp/ccI5eHJN.s 			page 64


 815      6E5A69A7 
 816 0c77 8D39BACB 		.ascii	"\2159\272\3132l\255\373l8\221,f\373\222\306\254\303"
 816      326CADFB 
 816      6C38912C 
 816      66FB92C6 
 816      ACC3
 817 0c89 72E55B6F 		.ascii	"r\345[o\035\263:\277\020\263\026G1;&\017\214\255\231"
 817      1DB33ABF 
 817      10B31647 
 817      313B260F 
 817      8CAD99
 818 0c9c 28302796 		.ascii	"(0'\226l6.\306\314N\033s\364C\313\230\275>\363U\030"
 818      6C362EC6 
 818      CC4E1B73 
 818      F443CB98 
 818      BD3EF355 
 819 0cb1 1D2AB4AE 		.ascii	"\035*\264\256\256\355O\212T#\275\202]\330\332\222\206"
 819      AEED4F8A 
 819      5423BD82 
 819      5DD8DA92 
 819      86
 820 0cc2 2D55576A 		.ascii	"-UWj\035\326M\326a](\206\365\210\243\260~d\364\2322"
 820      1DD64DD6 
 820      615D2886 
 820      F588A3B0 
 820      7E64F49A 
 821 0cd7 DE98428C 		.ascii	"\336\230B\214\3535\265\272\203K  \222\321s\356\2406"
 821      EB35B5BA 
 821      834B2020 
 821      92D173EE 
 821      A036
 822 0ce9 D98B723D 		.ascii	"\331\213r=\247\272\331H\244\214[E\215I\022YA\223\360"
 822      A7BAD948 
 822      A48C5B45 
 822      8D491259 
 822      4193F0
 823 0cfc B2A11325 		.ascii	"\262\241\023%\321\307\202\377W\313T\236\232e\337k$\351"
 823      D1C782FF 
 823      57CB549E 
 823      9A65DF6B 
 823      24E9
 824 0d0e 15DBFF5F 		.ascii	"\025\333\377_\326T-#\3655\325't=\264K\310\244>\021\343"
 824      D6542D23 
 824      F535D527 
 824      743DB44B 
 824      C8A43E11 
 825 0d23 B67FC210 		.ascii	"\266\177\302\020\177\376n\015\361m\2264\205!\376\213"
 825      7FFE6E0D 
 825      F16D9634 
 825      8521FE8B 
 826 0d33 91FB61C1 		.ascii	"\221\373a\301\220\255\253\226P;\255w\326\226:\3479\262"
 826      90ADAB96 
 826      503BAD77 
 826      D6963AE7 
 826      39B2
 827 0d45 B68964B5 		.ascii	"\266\211d\265\027\343\207\370Nc\210\227\361\246\024"
 827      17E387F8 
ARM GAS  /tmp/ccI5eHJN.s 			page 65


 827      4E638897 
 827      F1A614
 828 0d54 62FC107F 		.ascii	"b\374\020\177\346\020\343\270>\306\177\232\302P\253"
 828      E610E3B8 
 828      3EC67F9A 
 828      C250AB
 829 0d63 315EC65B 		.ascii	"1^\306[S(4\215\361\247fU6`\325\023\033\010\317\212\003"
 829      5328348D 
 829      F1A76655 
 829      3660D513 
 829      1B08CF8A 
 830 0d78 E1454B4A 		.ascii	"\341EKJ7\035I\177\224\377Z\354\231\316'\216\362_X\367"
 830      371D497F 
 830      94FF5AEC 
 830      99CE278E 
 830      F25F58F7 
 831 0d8c 345D64D0 		.ascii	"4]d\320\323\253\377\235z\327\221<y6\243|\207\350\334"
 831      D3ABFF9D 
 831      7AD7913C 
 831      7936A37C 
 831      87E8DC
 832 0d9f 3796CE6D 		.ascii	"7\226\316mk\353\336(\177\323\312Aq\224O\321\325^\265"
 832      6BEBDE28 
 832      7FD3CA41 
 832      71944FD1 
 832      D55EB5
 833 0db2 0EC002BF 		.ascii	"\016\300\002\277\020\200Ng\3545F}\031\357\021\305\254"
 833      10804E67 
 833      EC35467D 
 833      19EF11C5 
 833      AC
 834 0dc3 467D6352 		.ascii	"F}cR%\366\227\235\335\033\370\354\214d\361\372\316z"
 834      25F6979D 
 834      DD1BF8EC 
 834      8C64F1FA 
 834      CE7A
 835 0dd5 B270BC1B 		.ascii	"\262p\274\033\223\205*wjnu%\231A\362\241\255t;\343\226"
 835      93852A77 
 835      6A6E7525 
 835      9941F2A1 
 835      AD743BE3 
 836 0dea E0AC9D18 		.ascii	"\340\254\235\030\263\260\332m\345lg]\367F\371\227\255"
 836      B3B0DA6D 
 836      E56C675D 
 836      F746F997 
 836      AD
 837 0dfb FCB51A28 		.ascii	"\374\265\032(\034|\204\013\304\245o\013S|\206hg\312"
 837      1C7C840B 
 837      C4A56F0B 
 837      537C8668 
 837      67CA
 838 0e0d 6B6EFED3 		.ascii	"kn\376\323\2504g\026\325\275,sR/\322}F\362\234\360\013"
 838      A8346716 
 838      D5BD2C73 
 838      522FD27D 
 838      46F29CF0 
 839 0e22 2B628FD1 		.ascii	"+b\217\321Y\333\213Q\253Y\257{\253\256>>\263\220\361"
ARM GAS  /tmp/ccI5eHJN.s 			page 66


 839      59DB8B51 
 839      AB59AF7B 
 839      ABAE3E3E 
 839      B390F1
 840 0e35 E914A2FC 		.ascii	"\351\024\242\374\314\342]\261\245pbIg\026$\361\246\231"
 840      CCE25DB1 
 840      A5706249 
 840      671624F1 
 840      A699
 841 0e47 859D3E16 		.ascii	"\205\235>\026\345\331\211\364i\257i\277\361]\373\240"
 841      E5D989F4 
 841      69AF69BF 
 841      F15DFBA0 
 842 0e57 05EA0EF2 		.ascii	"\005\352\016\362\274\366\005\024{W\"\304\324\200\230"
 842      BCF60514 
 842      7B5722C4 
 842      D48098
 843 0e66 6F05A11D 		.ascii	"o\005\241\035\337\367\252\212i\203\033`\000\254\260"
 843      DFF7AA8A 
 843      69831B60 
 843      00ACB0
 844 0e75 01F8B325 		.ascii	"\001\370\263%\300\261}@\341\245\204\302\243\220\376"
 844      C0B17D40 
 844      E1A584C2 
 844      A390FE
 845 0e84 C642425B 		.ascii	"\306BB[m\020\026\231\021\356A5t\0263?W\377\012\233\371"
 845      6D101699 
 845      11EE4135 
 845      7416333F 
 845      57FF0A9B 
 846 0e99 3FC2F03F 		.ascii	"?\302\360?\223\211-v\337C\317L_\213\321\032v\244\\\342"
 846      93892D76 
 846      DF43CF4C 
 846      5F8BD11A 
 846      76A45CE2 
 847 0ead 8E7FE99D 		.ascii	"\216\177\351\235\223\035?\361p\266k\255\355\333\276"
 847      931D3FF1 
 847      70B66BAD 
 847      EDDBBE
 848 0ebc BA32A193 		.ascii	"\2722\241\223<KT\277\353z\241\274\352A\343\245de.o?"
 848      3C4B54BF 
 848      EB7AA1BC 
 848      EA41E3A5 
 848      64652E6F 
 849 0ed1 E5B08466 		.ascii	"\345\260\204f\347\306\276?\266zEY\357\026\006\227\206"
 849      E7C6BE3F 
 849      B67A4559 
 849      EF160697 
 849      86
 850 0ee2 C47069AD 		.ascii	"\304pi\255\332\026\243{\323j\334\206\272\372Dup+.n\245"
 850      DA16A37B 
 850      D36ADC86 
 850      BAFA4475 
 850      702B2E6E 
 851 0ef7 EE0D51DD 		.ascii	"\356\015Q\335\233fu\302S/\242\310.X+\343-\370\007h\251"
 851      9B6675C2 
 851      532FA2C8 
ARM GAS  /tmp/ccI5eHJN.s 			page 67


 851      2E582BE3 
 851      2DF80768 
 852 0f0c DADADA7E 		.ascii	"\332\332\332~\353\346\215\211\265j\305|\265\012\322"
 852      EBE68D89 
 852      B56AC57C 
 852      B50AD2
 853 0f1b 8A07F079 		.ascii	"\212\007\360y\272\034\317\323\357\015\240\234d\331\024"
 853      BA1CCFD3 
 853      EF0DA09C 
 853      64D914
 854 0f2a 6AC9F8ED 		.ascii	"j\311\370\355\264\263\271\306&\233|\307\023\257E\226"
 854      B4B3B9C6 
 854      269B7CC7 
 854      13AF4596 
 855 0f3a 6B34A0AD 		.ascii	"k4\240\255\361W \202\021\022\332\314\222)\343\0368!"
 855      F1572082 
 855      1112DACC 
 855      9229E31E 
 855      3821
 856 0f4c 58AB9304 		.ascii	"X\253\223\004k]<X\202\024i<vR\353m\245.'\221\332\020"
 856      6B5D3C58 
 856      8214693C 
 856      7652EB6D 
 856      A52E2791 
 857 0f62 97CA43F5 		.ascii	"\227\312C\365\344{\245o\227\265\354\303\263\325\227"
 857      E47BA56F 
 857      97B5ECC3 
 857      B3D597
 858 0f71 FAC47870 		.ascii	"\372\304xp\211\177\007\231\205^\244\275\375t\265\034"
 858      897F0799 
 858      855EA4BD 
 858      FD74B51C 
 859 0f81 975AF7F6 		.ascii	"\227Z\367\366\361\277\\\310\270\321\235E\336\263\304"
 859      F1BF5CC8 
 859      B8D19D45 
 859      DEB3C4
 860 0f90 796DDEF4 		.ascii	"ym\336\364\012F\340\365s\343\014\307L\332\270\356"
 860      0A46E0F5 
 860      73E30CC7 
 860      4CDAB8EE 
 861 0fa0 F000B52A 		.ascii	"\360\000\265*+f\220\306O\262\364:\332\372WTI\212\325"
 861      2B6690C6 
 861      4FB2F43A 
 861      DAFA5754 
 861      498AD5
 862 0fb3 68E16BE8 		.ascii	"h\341k\350\214\323\352\017\316P\261Z\255\226_\356\352"
 862      8CD3EA0F 
 862      CE50B15A 
 862      AD965FEE 
 862      EA
 863 0fc4 EA6DC3B7 		.ascii	"\352m\303\267\260\341Gn2\276\011\265d\334\2246\337\266"
 863      B0E1476E 
 863      32BE09B5 
 863      64DC9436 
 863      DFB6
 864 0fd6 D9F0AD97 		.ascii	"\331\360\255\227)8F-8]\353\026V\225\202\021\022j1\361"
 864      2938462D 
ARM GAS  /tmp/ccI5eHJN.s 			page 68


 864      385DEB16 
 864      56958211 
 864      126A31F1 
 865 0fea 8D8565C1 		.ascii	"\215\205e\301!5//\026\226#\026\201\233?\217\017\\\247"
 865      21352F2F 
 865      16962316 
 865      819B3F8F 
 865      0F5CA7
 866 0ffd 458DB9   		.ascii	"E\215\271"
 867 1000 757C8D4A 		.ascii	"u|\215JwbhkO\246\016\355T\303\336\336\311B+\324\222"
 867      7762686B 
 867      4FA60EED 
 867      54C3DEDE 
 867      C9422BD4 
 868 1015 F18EB443 		.ascii	"\361\216\264C\273\323&\264\271\246\320\356\024C\313"
 868      BBD326B4 
 868      B9A6D0EE 
 868      1443CB
 869 1024 8D8E8211 		.ascii	"\215\216\202\021\022\372\310*\264\267N\362\241\235a"
 869      12FAC82A 
 869      B4B74EF2 
 869      A19D61
 870 1033 EA2C1FC9 		.ascii	"\352,\037\311/\012\225\370\363\375\223\374\371\243\213"
 870      2F0A95F8 
 870      F3FD93FC 
 870      F9A38B
 871 1042 020581DF 		.ascii	"\002\005\201\337\214\317\017E\363#J~8\024Q\242\371?"
 871      8CCF0F45 
 871      F3234A7E 
 871      381451A2 
 871      F93F
 872 1054 FBEDB8D1 		.ascii	"\373\355\270\321\343\246\346\373\212|\241\210\337\373"
 872      E3A6E6FB 
 872      8A7CA188 
 872      DFFB
 873 1062 C7E12583 		.ascii	"\307\341%\203\213P6\271\345-\016\371\376\340y\352\327"
 873      8B5036B9 
 873      E52D0EF9 
 873      FEE079EA 
 873      D7
 874 1073 CFE68D46 		.ascii	"\317\346\215F=\351\205\262 \271\364#;\274@\320W\\V\350"
 874      3DE985B2 
 874      20B9F423 
 874      3BBC40D0 
 874      575C56E8 
 875 1087 07A8A8AF 		.ascii	"\007\250\250\257\250\020`\036vPsZT\231\026\366G\241"
 875      A810601E 
 875      7650735A 
 875      549916F6 
 875      47A1
 876 1099 766FA528 		.ascii	"vo\245(\342\227\013\243\336\3222\177\231\337\253\364"
 876      E2970BA3 
 876      DED2327F 
 876      99DFABF4 
 877 10a9 F115794D 		.ascii	"\361\025yM\227\262\364_^%;v\307\023\366\006\375S\025"
 877      97B2F45F 
 877      5E253B76 
ARM GAS  /tmp/ccI5eHJN.s 			page 69


 877      C713F606 
 877      FD5315
 878 10bc 388423FE 		.ascii	"8\204#\376?>\341\314\323PI8P\354\217D\363\237\032=\032"
 878      3F3EE1CC 
 878      D3504938 
 878      50EC8F44 
 878      F39F1A3D 
 879 10d1 4C30F467 		.ascii	"L0\364g*\341H \344U\276\237_\026\215\304L\014\372\247"
 879      2AE14820 
 879      E455BE9F 
 879      5F168DC4 
 879      4C0CFAA7 
 880 10e5 14070AF2 		.ascii	"\024\007\012\362\243Ja \250@\255\25428>\372\210Wy\330"
 880      A34A6120 
 880      A840ADAC 
 880      32383EFA 
 880      885779D8 
 881 10f9 AA5A89EC 		.ascii	"\252Z\211\354+\012\004\375\371\336B\377$\271\254X\361"
 881      2B0A04FD 
 881      F9DE42FF 
 881      24B9AC58 
 881      F1
 882 110a 1AE03DBC 		.ascii	"\032\340=\274^C\220\032\033\010e\372BA\005l\037\234"
 882      5E43901A 
 882      1B0865FA 
 882      4241056C 
 882      1F9C
 883 111c 467A0048 		.ascii	"Fz\000H\317\004@\371\224\251Y\021\377d9R\342U\244\310"
 883      CF0440F9 
 883      94A95911 
 883      FF643952 
 883      E255A4C8 
 884 1130 0829F253 		.ascii	"\010)\362SWd\350\020(C\245\3100)\362\230\024\031.E\036"
 884      5764E810 
 884      2843A5C8 
 884      3029F298 
 884      14192E45 
 885 1145 978A2370 		.ascii	"\227\212#p\351\321\214\260\027\352g\222hM\361G\340\030"
 885      E9D18CB0 
 885      17EA6792 
 885      684DF147 
 885      E018
 886 1157 2A2EF447 		.ascii	"*.\364G\334\276\"9BB(\227@p\243\212\254@\3303\211\235"
 886      DCBE2239 
 886      42422897 
 886      4070A38A 
 886      AC40D833 
 887 116d 2320C8BA 		.ascii	"# \310\272\305p\006\325\351\275L\245$T\350\247\277'"
 887      C57006D5 
 887      E9BD4CA5 
 887      2454E8A7 
 887      BF27
 888 117f 15CB93A3 		.ascii	"\025\313\223\243\031%\321\311\360\213\271\005\365\015"
 888      1925D1C9 
 888      F08BB905 
 888      F50D
 889 118d 072385D3 		.ascii	"\007#\205\323\340V\226\177j@\361\201\204g\212\022*x"
ARM GAS  /tmp/ccI5eHJN.s 			page 70


 889      E056967F 
 889      6A40F181 
 889      84678A12 
 889      2A78
 890 119f 3EDC97A5 		.ascii	">\334\227\245/\002\256F\374A\037 eLQ\224H8\007\322\031"
 890      2F02AE46 
 890      FC411F20 
 890      654C5194 
 890      483807D2 
 891 11b4 F597C8E1 		.ascii	"\365\227\310\341\"pq\240\003\316\370\011G3\031+2|A\010"
 891      227071A0 
 891      03CEF809 
 891      4733192B 
 891      327C4108 
 892 11c8 7346D40B 		.ascii	"sF\324\013G\320\0047\303Y\000XR\006\301u\000V\242L%"
 892      47D00437 
 892      C3590058 
 892      5206C175 
 892      0056A24C 
 893 11dd 60253A18 		.ascii	"`%:\030\034CS\202\020!*\016\256\224\350\374\232\242"
 893      1C435382 
 893      10212A0E 
 893      AE94E8FC 
 893      9AA2
 894 11ef 40BDB02B 		.ascii	"@\275\260+\354-\3135(Y\034\210\202\336\336\034I\311"
 894      EC2DCB35 
 894      28591C88 
 894      82DEDE1C 
 894      49C9
 895 1201 95ECB077 		.ascii	"\225\354\260w\212\034P\002\301\311p\0062\344Z\2170\370"
 895      8A1C5002 
 895      C1C97006 
 895      32E45A8F 
 895      30F8
 896 1213 2C1793A4 		.ascii	",\027\223\244\367\320\271\035\010\006\024\227R\032v"
 896      F7D0B91D 
 896      08061497 
 896      521A76
 897 1222 E2EC3442 		.ascii	"\342\3544B\037`\374\370i\321\377\200\326\327\223\236"
 897      1F60FCF8 
 897      69D1FF80 
 897      D6D7939E 
 898 1232 3D4B5BE2 		.ascii	"=K[\342OR\2133\333\000\342{\276\242g\212\012\377\223"
 898      4F528B33 
 898      DB00E27B 
 898      BEA2678A 
 898      0AFF93
 899 1245 E8FF4DC1 		.ascii	"\350\377M\301\363~\2372\026\214\2606\240H.\206\003\354"
 899      F37E9F32 
 899      168CB036 
 899      A0482E86 
 899      03EC
 900 1257 008A1C09 		.ascii	"\000\212\034\011\355\310\221\231\320\213\235\353F\364"
 900      EDC89199 
 900      D08B9DEB 
 900      46F4
 901 1265 27BF9EA1 		.ascii	"'\277\236\241j\004\360\373\342w\376\335O\035\377Yq\361"
ARM GAS  /tmp/ccI5eHJN.s 			page 71


 901      6A04F0FB 
 901      E277FEDD 
 901      4F1DFF59 
 901      71F1
 902 1277 581750E3 		.ascii	"X\027P\343\376\204;\277\206(\217\315&\275A\240\004\210"
 902      FE843BBF 
 902      86288FCD 
 902      26BD41A0 
 902      0488
 903 1289 415BD9D0 		.ascii	"A[\331\320\341^\205\265\033r\312)\372E\220\012=\003"
 903      E15E85B5 
 903      1B72CA29 
 903      FA45900A 
 903      3D03
 904 129b 754365CA 		.ascii	"uCe\312x7\021\032d\353J4\342#G=\303\321\301>d\335\344"
 904      7837111A 
 904      64EB4A34 
 904      E223473D 
 904      C3D1C13E 
 905 12b2 48552370 		.ascii	"HU#p\\\365\"\324+\020\014\227)F\267\324\003\372\010"
 905      5CF522D4 
 905      2B100C97 
 905      2946B7D4 
 905      03FA08
 906 12c5 769A659C 		.ascii	"v\232e\234f\227\032Y\037B{\005\322\025L\366\371\362"
 906      66971A59 
 906      1F427B05 
 906      D2154CF6 
 906      F9F2
 907 12d7 A1713E1C 		.ascii	"\241q>\034\014\005\375\017\373\345\202@\376\260\301"
 907      0C05FD0F 
 907      FBE58240 
 907      FEB0C1
 908 12e6 23620AA0 		.ascii	"#b\012\240?\201.\002\300=\321\300\177\003\024 \370B"
 908      3F812E02 
 908      C03DD1C0 
 908      7F031420 
 908      F842
 909 12f8 65D02144 		.ascii	"e\320!D\262J\275\005e\223\240\211d\224z\225P8\023\240"
 909      B24ABD05 
 909      6593A089 
 909      64947A95 
 909      503813A0 
 910 130c 23612502 		.ascii	"#a%\002\307H!\034\263K\203!%0i\032h/\365\352\247\236"
 910      C748211C 
 910      B34B8321 
 910      2530691A 
 910      682FF5EA 
 911 1322 52A05EF0 		.ascii	"R\240^\360\0179\201\322x\354]\201\322\260T\020v\023"
 911      0F3981D2 
 911      78EC5D81 
 911      D2B05410 
 911      7613
 912 1334 74772038 		.ascii	"tw 8i\232\233T\311\012\224\376\326\037\365+c=\201\322"
 912      699A9B54 
 912      C90A94FE 
 912      D61FF52B 
ARM GAS  /tmp/ccI5eHJN.s 			page 72


 912      633D81D2 
 913 1348 A7CB94B1 		.ascii	"\247\313\224\261\270\000\204\236\362+,\220\231\212~"
 913      B800849E 
 913      F22B2C90 
 913      998A7E
 914 1357 EC45AAC9 		.ascii	"\354E\252\311\205\354*\016\346\302\236\213@N\210W\024"
 914      85EC2A0E 
 914      E6C29E8B 
 914      404E8857 
 914      14
 915 1368 2A0DBB43 		.ascii	"*\015\273C\240 +\304\260\3416`3aO\210\340\217\315\015"
 915      A0202BC4 
 915      B0E13660 
 915      33614F88 
 915      E08FCD0D 
 916 137c 953E1709 		.ascii	"\225>\027\011(F\306\372P.r\244\270\207\277@\271\240"
 916      2846C6FA 
 916      502E72A4 
 916      B887BF40 
 916      B9A0
 917 138e D35548F4 		.ascii	"\323UH\364c\226\211\203\352\371\243\307\215\037;>\316"
 917      63968983 
 917      EAF9A3C7 
 917      8D1F3B3E 
 917      CE
 918 139f 7B3294F9 		.ascii	"{2\224\371J~Y\026\364\221\374y\275\205\201\250\\P\014"
 918      4A7E5916 
 918      F491FC79 
 918      BD8581A8 
 918      5C500C
 919 13b2 0D2F52DA 		.ascii	"\015/R\332K.\236\"O\213B\033\204\210\370s\274^\177\320"
 919      4B2E9E22 
 919      4F8B421B 
 919      8488F873 
 919      BC5E7FD0 
 920 13c6 B895E5F5 		.ascii	"\270\225\345\365N\002\021\257\267\227q2x\330\210\341"
 920      4E0211AF 
 920      B7977132 
 920      78D888E1 
 921 13d6 C332BC3F 		.ascii	"\3032\274?\017\205\212\343\327\036{\374\361a\334\257"
 921      0F858AE3 
 921      D71E7BFC 
 921      F161DCAF 
 922 13e6 114387FC 		.ascii	"\021C\207\374\037yX\034\030"
 922      1F79581C 
 922      18
 923              		.text
 924              		.section	.gnu.lto_.symtab.7b24dcd268b6a645,"",%progbits
 925 0000 69714F62 		.ascii	"iqObjectInit\000\000\000\000\000\000\000\000\000\000"
 925      6A656374 
 925      496E6974 
 925      00000000 
 925      00000000 
 926 0016 00008101 		.ascii	"\000\000\201\001\000\000iqResetI\000\000\000\000\000"
 926      00006971 
 926      52657365 
 926      74490000 
ARM GAS  /tmp/ccI5eHJN.s 			page 73


 926      000000
 927 0029 00000000 		.ascii	"\000\000\000\000\000\000\000\272\001\000\000iqPutI\000"
 927      000000BA 
 927      01000069 
 927      71507574 
 927      4900
 928 003b 00000000 		.ascii	"\000\000\000\000\000\000\000\000\000\000\000\300\001"
 928      00000000 
 928      000000C0 
 928      01
 929 0048 00006971 		.ascii	"\000\000iqGetTimeout\000\000\000\000\000\000\000\000"
 929      47657454 
 929      696D656F 
 929      75740000 
 929      00000000 
 930 005e 00000000 		.ascii	"\000\000\000\000\311\001\000\000iqReadTimeout\000\000"
 930      C9010000 
 930      69715265 
 930      61645469 
 930      6D656F75 
 931 0075 00000000 		.ascii	"\000\000\000\000\000\000\000\000\000\000\322\001\000"
 931      00000000 
 931      0000D201 
 931      00
 932 0082 006F714F 		.ascii	"\000oqObjectInit\000\000\000\000\000\000\000\000\000"
 932      626A6563 
 932      74496E69 
 932      74000000 
 932      00000000 
 933 0098 000000DF 		.ascii	"\000\000\000\337\001\000\000oqResetI\000\000\000\000"
 933      0100006F 
 933      71526573 
 933      65744900 
 933      000000
 934 00ab 00000000 		.ascii	"\000\000\000\000\000\000\000\000\363\001\000\000oqP"
 934      00000000 
 934      F3010000 
 934      6F7150
 935 00ba 75745469 		.ascii	"utTimeout\000\000\000\000\000\000\000\000\000\000\000"
 935      6D656F75 
 935      74000000 
 935      00000000 
 935      00000000 
 936 00ce 00F90100 		.ascii	"\000\371\001\000\000oqGetI\000\000\000\000\000\000\000"
 936      006F7147 
 936      65744900 
 936      00000000 
 936      0000
 937 00e0 00000000 		.ascii	"\000\000\000\000\000\003\002\000\000oqWriteTimeout\000"
 937      00030200 
 937      006F7157 
 937      72697465 
 937      54696D65 
 938 00f8 00000000 		.ascii	"\000\000\000\000\000\000\000\000\000\000\000\011\002"
 938      00000000 
 938      00000009 
 938      02
ARM GAS  /tmp/ccI5eHJN.s 			page 74


 939 0105 00006368 		.ascii	"\000\000chThdDequeueAllI\000\000\002\000\000\000\000"
 939      54686444 
 939      65717565 
 939      7565416C 
 939      6C490000 
 940 011e 00000000 		.ascii	"\000\000\000\000\000\027\002\000\000chThdDequeueNex"
 940      00170200 
 940      00636854 
 940      68644465 
 940      71756575 
 941 0136 74490000 		.ascii	"tI\000\000\002\000\000\000\000\000\000\000\000\000\031"
 941      02000000 
 941      00000000 
 941      000019
 942 0145 02000063 		.ascii	"\002\000\000chThdEnqueueTimeoutS\000\000\002\000\000"
 942      68546864 
 942      456E7175 
 942      65756554 
 942      696D656F 
 943 0161 00000000 		.ascii	"\000\000\000\000\000\000\000\033\002\000\000"
 943      0000001B 
 943      020000
 944              		.text
 945              		.section	.gnu.lto_.opts,"",%progbits
 946 0000 272D6D63 		.ascii	"'-mcpu=cortex-m0' '-mno-thumb-interwork' '-mthumb' "
 946      70753D63 
 946      6F727465 
 946      782D6D30 
 946      2720272D 
 947 0033 272D6767 		.ascii	"'-ggdb' '-O0' '-fomit-frame-pointer' '-falign-funct"
 947      64622720 
 947      272D4F30 
 947      2720272D 
 947      666F6D69 
 948 0066 696F6E73 		.ascii	"ions=16' '-ffunction-sections' '-fdata-sections' '-"
 948      3D313627 
 948      20272D66 
 948      66756E63 
 948      74696F6E 
 949 0099 666E6F2D 		.ascii	"fno-common' '-flto'\000"
 949      636F6D6D 
 949      6F6E2720 
 949      272D666C 
 949      746F2700 
 950              		.text
 951              		.cfi_sections	.debug_frame
 952              		.section	.text.port_lock,"ax",%progbits
 953              		.align	2
 954              		.p2align 4,,15
 955              		.code	16
 956              		.thumb_func
 957              		.type	port_lock, %function
 958              	port_lock:
 959              	.LFB38:
 960              		.file 1 "/home/efe/ChibiOS/os/rt/ports/ARMCMx/chcore_v6m.h"
 961              		.loc 1 330 0
 962              		.cfi_startproc
ARM GAS  /tmp/ccI5eHJN.s 			page 75


 963              	.LBB6:
 964              	.LBB7:
 965              		.file 2 "/home/efe/ChibiOS/os/ext/CMSIS/include/core_cmFunc.h"
 966              		.loc 2 344 0
 967              	@ 344 "/home/efe/ChibiOS/os/ext/CMSIS/include/core_cmFunc.h" 1
 968 0000 72B6     		cpsid i
 969              	@ 0 "" 2
 970              		.code	16
 971              	.LBE7:
 972              	.LBE6:
 973              		.loc 1 333 0
 974              		@ sp needed
 975 0002 7047     		bx	lr
 976              		.cfi_endproc
 977              	.LFE38:
 978              		.size	port_lock, .-port_lock
 979 0004 C046C046 		.section	.text.port_unlock,"ax",%progbits
 979      C046C046 
 979      C046C046 
 980              		.align	2
 981              		.p2align 4,,15
 982              		.code	16
 983              		.thumb_func
 984              		.type	port_unlock, %function
 985              	port_unlock:
 986              	.LFB39:
 987              		.loc 1 339 0
 988              		.cfi_startproc
 989              	.LBB8:
 990              	.LBB9:
 991              		.loc 2 333 0
 992              	@ 333 "/home/efe/ChibiOS/os/ext/CMSIS/include/core_cmFunc.h" 1
 993 0000 62B6     		cpsie i
 994              	@ 0 "" 2
 995              		.code	16
 996              	.LBE9:
 997              	.LBE8:
 998              		.loc 1 342 0
 999              		@ sp needed
 1000 0002 7047     		bx	lr
 1001              		.cfi_endproc
 1002              	.LFE39:
 1003              		.size	port_unlock, .-port_unlock
 1004 0004 C046C046 		.section	.text.queue_init,"ax",%progbits
 1004      C046C046 
 1004      C046C046 
 1005              		.align	2
 1006              		.p2align 4,,15
 1007              		.code	16
 1008              		.thumb_func
 1009              		.type	queue_init, %function
 1010              	queue_init:
 1011              	.LFB60:
 1012              		.file 3 "/home/efe/ChibiOS/os/rt/include/chschd.h"
 1013              		.loc 3 602 0
 1014              		.cfi_startproc
 1015 0000 82B0     		sub	sp, sp, #8
ARM GAS  /tmp/ccI5eHJN.s 			page 76


 1016              		.cfi_def_cfa_offset 8
 1017 0002 0190     		str	r0, [sp, #4]
 1018              		.loc 3 604 0
 1019 0004 019B     		ldr	r3, [sp, #4]
 1020 0006 019A     		ldr	r2, [sp, #4]
 1021 0008 1A60     		str	r2, [r3]
 1022              		.loc 3 605 0
 1023 000a 019B     		ldr	r3, [sp, #4]
 1024 000c 019A     		ldr	r2, [sp, #4]
 1025 000e 5A60     		str	r2, [r3, #4]
 1026              		.loc 3 606 0
 1027 0010 02B0     		add	sp, sp, #8
 1028              		@ sp needed
 1029 0012 7047     		bx	lr
 1030              		.cfi_endproc
 1031              	.LFE60:
 1032              		.size	queue_init, .-queue_init
 1033 0014 C046C046 		.section	.text.chSysLock,"ax",%progbits
 1033      C046C046 
 1033      C046C046 
 1034              		.align	2
 1035              		.p2align 4,,15
 1036              		.code	16
 1037              		.thumb_func
 1038              		.type	chSysLock, %function
 1039              	chSysLock:
 1040              	.LFB70:
 1041              		.file 4 "/home/efe/ChibiOS/os/rt/include/chsys.h"
 1042              		.loc 4 346 0
 1043              		.cfi_startproc
 1044 0000 08B5     		push	{r3, lr}
 1045              		.cfi_def_cfa_offset 8
 1046              		.cfi_offset 3, -8
 1047              		.cfi_offset 14, -4
 1048              		.loc 4 348 0
 1049 0002 FFF7FEFF 		bl	port_lock
 1050              		.loc 4 351 0
 1051              		@ sp needed
 1052 0006 08BD     		pop	{r3, pc}
 1053              		.cfi_endproc
 1054              	.LFE70:
 1055              		.size	chSysLock, .-chSysLock
 1056 0008 C046C046 		.section	.text.chSysUnlock,"ax",%progbits
 1056      C046C046 
 1057              		.align	2
 1058              		.p2align 4,,15
 1059              		.code	16
 1060              		.thumb_func
 1061              		.type	chSysUnlock, %function
 1062              	chSysUnlock:
 1063              	.LFB71:
 1064              		.loc 4 358 0
 1065              		.cfi_startproc
 1066 0000 08B5     		push	{r3, lr}
 1067              		.cfi_def_cfa_offset 8
 1068              		.cfi_offset 3, -8
 1069              		.cfi_offset 14, -4
ARM GAS  /tmp/ccI5eHJN.s 			page 77


 1070              		.loc 4 371 0
 1071 0002 FFF7FEFF 		bl	port_unlock
 1072              		.loc 4 372 0
 1073              		@ sp needed
 1074 0006 08BD     		pop	{r3, pc}
 1075              		.cfi_endproc
 1076              	.LFE71:
 1077              		.size	chSysUnlock, .-chSysUnlock
 1078 0008 C046C046 		.section	.text.chThdQueueObjectInit,"ax",%progbits
 1078      C046C046 
 1079              		.align	2
 1080              		.p2align 4,,15
 1081              		.code	16
 1082              		.thumb_func
 1083              		.type	chThdQueueObjectInit, %function
 1084              	chThdQueueObjectInit:
 1085              	.LFB98:
 1086              		.file 5 "/home/efe/ChibiOS/os/rt/include/chthreads.h"
 1087              		.loc 5 278 0
 1088              		.cfi_startproc
 1089 0000 00B5     		push	{lr}
 1090              		.cfi_def_cfa_offset 4
 1091              		.cfi_offset 14, -4
 1092 0002 83B0     		sub	sp, sp, #12
 1093              		.cfi_def_cfa_offset 16
 1094 0004 0190     		str	r0, [sp, #4]
 1095              		.loc 5 280 0
 1096 0006 019B     		ldr	r3, [sp, #4]
 1097 0008 181C     		mov	r0, r3
 1098 000a FFF7FEFF 		bl	queue_init
 1099              		.loc 5 281 0
 1100 000e 03B0     		add	sp, sp, #12
 1101              		@ sp needed
 1102 0010 00BD     		pop	{pc}
 1103              		.cfi_endproc
 1104              	.LFE98:
 1105              		.size	chThdQueueObjectInit, .-chThdQueueObjectInit
 1106 0012 C046C046 		.section	.text.osalSysLock,"ax",%progbits
 1106      C046C046 
 1106      C046C046 
 1106      C046
 1107              		.align	2
 1108              		.p2align 4,,15
 1109              		.code	16
 1110              		.thumb_func
 1111              		.type	osalSysLock, %function
 1112              	osalSysLock:
 1113              	.LFB123:
 1114              		.file 6 "/home/efe/ChibiOS/os/hal/osal/rt/osal.h"
 1115              		.loc 6 491 0
 1116              		.cfi_startproc
 1117 0000 08B5     		push	{r3, lr}
 1118              		.cfi_def_cfa_offset 8
 1119              		.cfi_offset 3, -8
 1120              		.cfi_offset 14, -4
 1121              		.loc 6 493 0
 1122 0002 FFF7FEFF 		bl	chSysLock
ARM GAS  /tmp/ccI5eHJN.s 			page 78


 1123              		.loc 6 494 0
 1124              		@ sp needed
 1125 0006 08BD     		pop	{r3, pc}
 1126              		.cfi_endproc
 1127              	.LFE123:
 1128              		.size	osalSysLock, .-osalSysLock
 1129 0008 C046C046 		.section	.text.osalSysUnlock,"ax",%progbits
 1129      C046C046 
 1130              		.align	2
 1131              		.p2align 4,,15
 1132              		.code	16
 1133              		.thumb_func
 1134              		.type	osalSysUnlock, %function
 1135              	osalSysUnlock:
 1136              	.LFB124:
 1137              		.loc 6 502 0
 1138              		.cfi_startproc
 1139 0000 08B5     		push	{r3, lr}
 1140              		.cfi_def_cfa_offset 8
 1141              		.cfi_offset 3, -8
 1142              		.cfi_offset 14, -4
 1143              		.loc 6 504 0
 1144 0002 FFF7FEFF 		bl	chSysUnlock
 1145              		.loc 6 505 0
 1146              		@ sp needed
 1147 0006 08BD     		pop	{r3, pc}
 1148              		.cfi_endproc
 1149              	.LFE124:
 1150              		.size	osalSysUnlock, .-osalSysUnlock
 1151 0008 C046C046 		.section	.text.osalThreadQueueObjectInit,"ax",%progbits
 1151      C046C046 
 1152              		.align	2
 1153              		.p2align 4,,15
 1154              		.code	16
 1155              		.thumb_func
 1156              		.type	osalThreadQueueObjectInit, %function
 1157              	osalThreadQueueObjectInit:
 1158              	.LFB139:
 1159              		.loc 6 753 0
 1160              		.cfi_startproc
 1161 0000 00B5     		push	{lr}
 1162              		.cfi_def_cfa_offset 4
 1163              		.cfi_offset 14, -4
 1164 0002 83B0     		sub	sp, sp, #12
 1165              		.cfi_def_cfa_offset 16
 1166 0004 0190     		str	r0, [sp, #4]
 1167              		.loc 6 755 0
 1168 0006 019B     		ldr	r3, [sp, #4]
 1169 0008 181C     		mov	r0, r3
 1170 000a FFF7FEFF 		bl	chThdQueueObjectInit
 1171              		.loc 6 756 0
 1172 000e 03B0     		add	sp, sp, #12
 1173              		@ sp needed
 1174 0010 00BD     		pop	{pc}
 1175              		.cfi_endproc
 1176              	.LFE139:
 1177              		.size	osalThreadQueueObjectInit, .-osalThreadQueueObjectInit
ARM GAS  /tmp/ccI5eHJN.s 			page 79


 1178 0012 C046C046 		.section	.text.osalThreadEnqueueTimeoutS,"ax",%progbits
 1178      C046C046 
 1178      C046C046 
 1178      C046
 1179              		.align	2
 1180              		.p2align 4,,15
 1181              		.code	16
 1182              		.thumb_func
 1183              		.type	osalThreadEnqueueTimeoutS, %function
 1184              	osalThreadEnqueueTimeoutS:
 1185              	.LFB140:
 1186              		.loc 6 782 0
 1187              		.cfi_startproc
 1188 0000 00B5     		push	{lr}
 1189              		.cfi_def_cfa_offset 4
 1190              		.cfi_offset 14, -4
 1191 0002 83B0     		sub	sp, sp, #12
 1192              		.cfi_def_cfa_offset 16
 1193 0004 0190     		str	r0, [sp, #4]
 1194 0006 0A1C     		mov	r2, r1
 1195 0008 6B46     		mov	r3, sp
 1196 000a 0233     		add	r3, r3, #2
 1197 000c 1A80     		strh	r2, [r3]
 1198              		.loc 6 784 0
 1199 000e 019A     		ldr	r2, [sp, #4]
 1200 0010 6B46     		mov	r3, sp
 1201 0012 0233     		add	r3, r3, #2
 1202 0014 1B88     		ldrh	r3, [r3]
 1203 0016 101C     		mov	r0, r2
 1204 0018 191C     		mov	r1, r3
 1205 001a FFF7FEFF 		bl	chThdEnqueueTimeoutS
 1206 001e 031C     		mov	r3, r0
 1207              		.loc 6 785 0
 1208 0020 181C     		mov	r0, r3
 1209 0022 03B0     		add	sp, sp, #12
 1210              		@ sp needed
 1211 0024 00BD     		pop	{pc}
 1212              		.cfi_endproc
 1213              	.LFE140:
 1214              		.size	osalThreadEnqueueTimeoutS, .-osalThreadEnqueueTimeoutS
 1215 0026 C046C046 		.section	.text.osalThreadDequeueNextI,"ax",%progbits
 1215      C046C046 
 1215      C046
 1216              		.align	2
 1217              		.p2align 4,,15
 1218              		.code	16
 1219              		.thumb_func
 1220              		.type	osalThreadDequeueNextI, %function
 1221              	osalThreadDequeueNextI:
 1222              	.LFB141:
 1223              		.loc 6 795 0
 1224              		.cfi_startproc
 1225 0000 00B5     		push	{lr}
 1226              		.cfi_def_cfa_offset 4
 1227              		.cfi_offset 14, -4
 1228 0002 83B0     		sub	sp, sp, #12
 1229              		.cfi_def_cfa_offset 16
ARM GAS  /tmp/ccI5eHJN.s 			page 80


 1230 0004 0190     		str	r0, [sp, #4]
 1231 0006 0091     		str	r1, [sp]
 1232              		.loc 6 797 0
 1233 0008 019A     		ldr	r2, [sp, #4]
 1234 000a 009B     		ldr	r3, [sp]
 1235 000c 101C     		mov	r0, r2
 1236 000e 191C     		mov	r1, r3
 1237 0010 FFF7FEFF 		bl	chThdDequeueNextI
 1238              		.loc 6 798 0
 1239 0014 03B0     		add	sp, sp, #12
 1240              		@ sp needed
 1241 0016 00BD     		pop	{pc}
 1242              		.cfi_endproc
 1243              	.LFE141:
 1244              		.size	osalThreadDequeueNextI, .-osalThreadDequeueNextI
 1245 0018 C046C046 		.section	.text.osalThreadDequeueAllI,"ax",%progbits
 1245      C046C046 
 1246              		.align	2
 1247              		.p2align 4,,15
 1248              		.code	16
 1249              		.thumb_func
 1250              		.type	osalThreadDequeueAllI, %function
 1251              	osalThreadDequeueAllI:
 1252              	.LFB142:
 1253              		.loc 6 808 0
 1254              		.cfi_startproc
 1255 0000 00B5     		push	{lr}
 1256              		.cfi_def_cfa_offset 4
 1257              		.cfi_offset 14, -4
 1258 0002 83B0     		sub	sp, sp, #12
 1259              		.cfi_def_cfa_offset 16
 1260 0004 0190     		str	r0, [sp, #4]
 1261 0006 0091     		str	r1, [sp]
 1262              		.loc 6 810 0
 1263 0008 019A     		ldr	r2, [sp, #4]
 1264 000a 009B     		ldr	r3, [sp]
 1265 000c 101C     		mov	r0, r2
 1266 000e 191C     		mov	r1, r3
 1267 0010 FFF7FEFF 		bl	chThdDequeueAllI
 1268              		.loc 6 811 0
 1269 0014 03B0     		add	sp, sp, #12
 1270              		@ sp needed
 1271 0016 00BD     		pop	{pc}
 1272              		.cfi_endproc
 1273              	.LFE142:
 1274              		.size	osalThreadDequeueAllI, .-osalThreadDequeueAllI
 1275 0018 C046C046 		.section	.text.iqObjectInit,"ax",%progbits
 1275      C046C046 
 1276              		.align	2
 1277              		.p2align 4,,15
 1278              		.global	iqObjectInit
 1279              		.code	16
 1280              		.thumb_func
 1281              		.type	iqObjectInit, %function
 1282              	iqObjectInit:
 1283              	.LFB149:
 1284              		.file 7 "/home/efe/ChibiOS/os/hal/src/hal_queues.c"
ARM GAS  /tmp/ccI5eHJN.s 			page 81


 1285              		.loc 7 59 0
 1286              		.cfi_startproc
 1287 0000 00B5     		push	{lr}
 1288              		.cfi_def_cfa_offset 4
 1289              		.cfi_offset 14, -4
 1290 0002 85B0     		sub	sp, sp, #20
 1291              		.cfi_def_cfa_offset 24
 1292 0004 0390     		str	r0, [sp, #12]
 1293 0006 0291     		str	r1, [sp, #8]
 1294 0008 0192     		str	r2, [sp, #4]
 1295 000a 0093     		str	r3, [sp]
 1296              		.loc 7 61 0
 1297 000c 039B     		ldr	r3, [sp, #12]
 1298 000e 181C     		mov	r0, r3
 1299 0010 FFF7FEFF 		bl	osalThreadQueueObjectInit
 1300              		.loc 7 62 0
 1301 0014 039B     		ldr	r3, [sp, #12]
 1302 0016 0022     		mov	r2, #0
 1303 0018 9A60     		str	r2, [r3, #8]
 1304              		.loc 7 63 0
 1305 001a 039B     		ldr	r3, [sp, #12]
 1306 001c 029A     		ldr	r2, [sp, #8]
 1307 001e DA60     		str	r2, [r3, #12]
 1308              		.loc 7 64 0
 1309 0020 039B     		ldr	r3, [sp, #12]
 1310 0022 029A     		ldr	r2, [sp, #8]
 1311 0024 9A61     		str	r2, [r3, #24]
 1312              		.loc 7 65 0
 1313 0026 039B     		ldr	r3, [sp, #12]
 1314 0028 029A     		ldr	r2, [sp, #8]
 1315 002a 5A61     		str	r2, [r3, #20]
 1316              		.loc 7 66 0
 1317 002c 029A     		ldr	r2, [sp, #8]
 1318 002e 019B     		ldr	r3, [sp, #4]
 1319 0030 D218     		add	r2, r2, r3
 1320 0032 039B     		ldr	r3, [sp, #12]
 1321 0034 1A61     		str	r2, [r3, #16]
 1322              		.loc 7 67 0
 1323 0036 039B     		ldr	r3, [sp, #12]
 1324 0038 009A     		ldr	r2, [sp]
 1325 003a DA61     		str	r2, [r3, #28]
 1326              		.loc 7 68 0
 1327 003c 039B     		ldr	r3, [sp, #12]
 1328 003e 069A     		ldr	r2, [sp, #24]
 1329 0040 1A62     		str	r2, [r3, #32]
 1330              		.loc 7 69 0
 1331 0042 05B0     		add	sp, sp, #20
 1332              		@ sp needed
 1333 0044 00BD     		pop	{pc}
 1334              		.cfi_endproc
 1335              	.LFE149:
 1336              		.size	iqObjectInit, .-iqObjectInit
 1337 0046 C046C046 		.section	.text.iqResetI,"ax",%progbits
 1337      C046C046 
 1337      C046
 1338              		.align	2
 1339              		.p2align 4,,15
ARM GAS  /tmp/ccI5eHJN.s 			page 82


 1340              		.global	iqResetI
 1341              		.code	16
 1342              		.thumb_func
 1343              		.type	iqResetI, %function
 1344              	iqResetI:
 1345              	.LFB150:
 1346              		.loc 7 82 0
 1347              		.cfi_startproc
 1348 0000 00B5     		push	{lr}
 1349              		.cfi_def_cfa_offset 4
 1350              		.cfi_offset 14, -4
 1351 0002 83B0     		sub	sp, sp, #12
 1352              		.cfi_def_cfa_offset 16
 1353 0004 0190     		str	r0, [sp, #4]
 1354              		.loc 7 86 0
 1355 0006 019B     		ldr	r3, [sp, #4]
 1356 0008 DA68     		ldr	r2, [r3, #12]
 1357 000a 019B     		ldr	r3, [sp, #4]
 1358 000c 9A61     		str	r2, [r3, #24]
 1359              		.loc 7 87 0
 1360 000e 019B     		ldr	r3, [sp, #4]
 1361 0010 DA68     		ldr	r2, [r3, #12]
 1362 0012 019B     		ldr	r3, [sp, #4]
 1363 0014 5A61     		str	r2, [r3, #20]
 1364              		.loc 7 88 0
 1365 0016 019B     		ldr	r3, [sp, #4]
 1366 0018 0022     		mov	r2, #0
 1367 001a 9A60     		str	r2, [r3, #8]
 1368              		.loc 7 89 0
 1369 001c 019A     		ldr	r2, [sp, #4]
 1370 001e 0223     		mov	r3, #2
 1371 0020 5B42     		neg	r3, r3
 1372 0022 101C     		mov	r0, r2
 1373 0024 191C     		mov	r1, r3
 1374 0026 FFF7FEFF 		bl	osalThreadDequeueAllI
 1375              		.loc 7 90 0
 1376 002a 03B0     		add	sp, sp, #12
 1377              		@ sp needed
 1378 002c 00BD     		pop	{pc}
 1379              		.cfi_endproc
 1380              	.LFE150:
 1381              		.size	iqResetI, .-iqResetI
 1382 002e C046     		.section	.text.iqPutI,"ax",%progbits
 1383              		.align	2
 1384              		.p2align 4,,15
 1385              		.global	iqPutI
 1386              		.code	16
 1387              		.thumb_func
 1388              		.type	iqPutI, %function
 1389              	iqPutI:
 1390              	.LFB151:
 1391              		.loc 7 105 0
 1392              		.cfi_startproc
 1393 0000 00B5     		push	{lr}
 1394              		.cfi_def_cfa_offset 4
 1395              		.cfi_offset 14, -4
 1396 0002 83B0     		sub	sp, sp, #12
ARM GAS  /tmp/ccI5eHJN.s 			page 83


 1397              		.cfi_def_cfa_offset 16
 1398 0004 0190     		str	r0, [sp, #4]
 1399 0006 0A1C     		mov	r2, r1
 1400 0008 6B46     		mov	r3, sp
 1401 000a 0333     		add	r3, r3, #3
 1402 000c 1A70     		strb	r2, [r3]
 1403              		.loc 7 109 0
 1404 000e 019B     		ldr	r3, [sp, #4]
 1405 0010 5A69     		ldr	r2, [r3, #20]
 1406 0012 019B     		ldr	r3, [sp, #4]
 1407 0014 9B69     		ldr	r3, [r3, #24]
 1408 0016 9A42     		cmp	r2, r3
 1409 0018 05D1     		bne	.L17
 1410              		.loc 7 109 0 is_stmt 0 discriminator 1
 1411 001a 019B     		ldr	r3, [sp, #4]
 1412 001c 9B68     		ldr	r3, [r3, #8]
 1413 001e 002B     		cmp	r3, #0
 1414 0020 01D0     		beq	.L17
 1415              		.loc 7 109 0 discriminator 3
 1416 0022 0123     		mov	r3, #1
 1417 0024 00E0     		b	.L18
 1418              	.L17:
 1419              		.loc 7 109 0 discriminator 2
 1420 0026 0023     		mov	r3, #0
 1421              	.L18:
 1422              		.loc 7 109 0 discriminator 4
 1423 0028 1A1C     		add	r2, r3, #0
 1424 002a 0123     		mov	r3, #1
 1425 002c 1340     		and	r3, r2
 1426 002e DBB2     		uxtb	r3, r3
 1427 0030 002B     		cmp	r3, #0
 1428 0032 02D0     		beq	.L19
 1429              		.loc 7 110 0 is_stmt 1
 1430 0034 0423     		mov	r3, #4
 1431 0036 5B42     		neg	r3, r3
 1432 0038 1DE0     		b	.L20
 1433              	.L19:
 1434              		.loc 7 113 0
 1435 003a 019B     		ldr	r3, [sp, #4]
 1436 003c 9B68     		ldr	r3, [r3, #8]
 1437 003e 5A1C     		add	r2, r3, #1
 1438 0040 019B     		ldr	r3, [sp, #4]
 1439 0042 9A60     		str	r2, [r3, #8]
 1440              		.loc 7 114 0
 1441 0044 019B     		ldr	r3, [sp, #4]
 1442 0046 5B69     		ldr	r3, [r3, #20]
 1443 0048 591C     		add	r1, r3, #1
 1444 004a 019A     		ldr	r2, [sp, #4]
 1445 004c 5161     		str	r1, [r2, #20]
 1446 004e 6A46     		mov	r2, sp
 1447 0050 0332     		add	r2, r2, #3
 1448 0052 1278     		ldrb	r2, [r2]
 1449 0054 1A70     		strb	r2, [r3]
 1450              		.loc 7 115 0
 1451 0056 019B     		ldr	r3, [sp, #4]
 1452 0058 5A69     		ldr	r2, [r3, #20]
 1453 005a 019B     		ldr	r3, [sp, #4]
ARM GAS  /tmp/ccI5eHJN.s 			page 84


 1454 005c 1B69     		ldr	r3, [r3, #16]
 1455 005e 9A42     		cmp	r2, r3
 1456 0060 03D3     		bcc	.L21
 1457              		.loc 7 116 0
 1458 0062 019B     		ldr	r3, [sp, #4]
 1459 0064 DA68     		ldr	r2, [r3, #12]
 1460 0066 019B     		ldr	r3, [sp, #4]
 1461 0068 5A61     		str	r2, [r3, #20]
 1462              	.L21:
 1463              		.loc 7 119 0
 1464 006a 019B     		ldr	r3, [sp, #4]
 1465 006c 181C     		mov	r0, r3
 1466 006e 0021     		mov	r1, #0
 1467 0070 FFF7FEFF 		bl	osalThreadDequeueNextI
 1468              		.loc 7 121 0
 1469 0074 0023     		mov	r3, #0
 1470              	.L20:
 1471              		.loc 7 122 0
 1472 0076 181C     		mov	r0, r3
 1473 0078 03B0     		add	sp, sp, #12
 1474              		@ sp needed
 1475 007a 00BD     		pop	{pc}
 1476              		.cfi_endproc
 1477              	.LFE151:
 1478              		.size	iqPutI, .-iqPutI
 1479 007c C046C046 		.section	.text.iqGetTimeout,"ax",%progbits
 1480              		.align	2
 1481              		.p2align 4,,15
 1482              		.global	iqGetTimeout
 1483              		.code	16
 1484              		.thumb_func
 1485              		.type	iqGetTimeout, %function
 1486              	iqGetTimeout:
 1487              	.LFB152:
 1488              		.loc 7 144 0
 1489              		.cfi_startproc
 1490 0000 00B5     		push	{lr}
 1491              		.cfi_def_cfa_offset 4
 1492              		.cfi_offset 14, -4
 1493 0002 85B0     		sub	sp, sp, #20
 1494              		.cfi_def_cfa_offset 24
 1495 0004 0190     		str	r0, [sp, #4]
 1496 0006 0A1C     		mov	r2, r1
 1497 0008 6B46     		mov	r3, sp
 1498 000a 0233     		add	r3, r3, #2
 1499 000c 1A80     		strh	r2, [r3]
 1500              		.loc 7 147 0
 1501 000e FFF7FEFF 		bl	osalSysLock
 1502              		.loc 7 148 0
 1503 0012 019B     		ldr	r3, [sp, #4]
 1504 0014 DB69     		ldr	r3, [r3, #28]
 1505 0016 002B     		cmp	r3, #0
 1506 0018 05D0     		beq	.L23
 1507              		.loc 7 149 0
 1508 001a 019B     		ldr	r3, [sp, #4]
 1509 001c DB69     		ldr	r3, [r3, #28]
 1510 001e 019A     		ldr	r2, [sp, #4]
ARM GAS  /tmp/ccI5eHJN.s 			page 85


 1511 0020 101C     		mov	r0, r2
 1512 0022 9847     		blx	r3
 1513              		.loc 7 152 0
 1514 0024 11E0     		b	.L24
 1515              	.L23:
 1516 0026 10E0     		b	.L24
 1517              	.L26:
 1518              	.LBB10:
 1519              		.loc 7 153 0
 1520 0028 019A     		ldr	r2, [sp, #4]
 1521 002a 6B46     		mov	r3, sp
 1522 002c 0233     		add	r3, r3, #2
 1523 002e 1B88     		ldrh	r3, [r3]
 1524 0030 101C     		mov	r0, r2
 1525 0032 191C     		mov	r1, r3
 1526 0034 FFF7FEFF 		bl	osalThreadEnqueueTimeoutS
 1527 0038 031C     		mov	r3, r0
 1528 003a 0393     		str	r3, [sp, #12]
 1529              		.loc 7 154 0
 1530 003c 039B     		ldr	r3, [sp, #12]
 1531 003e 002B     		cmp	r3, #0
 1532 0040 03DA     		bge	.L24
 1533              		.loc 7 155 0
 1534 0042 FFF7FEFF 		bl	osalSysUnlock
 1535              		.loc 7 156 0
 1536 0046 039B     		ldr	r3, [sp, #12]
 1537 0048 20E0     		b	.L25
 1538              	.L24:
 1539              	.LBE10:
 1540              		.loc 7 152 0 discriminator 1
 1541 004a 019B     		ldr	r3, [sp, #4]
 1542 004c 9B68     		ldr	r3, [r3, #8]
 1543 004e 002B     		cmp	r3, #0
 1544 0050 EAD0     		beq	.L26
 1545              		.loc 7 160 0
 1546 0052 019B     		ldr	r3, [sp, #4]
 1547 0054 9B68     		ldr	r3, [r3, #8]
 1548 0056 5A1E     		sub	r2, r3, #1
 1549 0058 019B     		ldr	r3, [sp, #4]
 1550 005a 9A60     		str	r2, [r3, #8]
 1551              		.loc 7 161 0
 1552 005c 019B     		ldr	r3, [sp, #4]
 1553 005e 9B69     		ldr	r3, [r3, #24]
 1554 0060 591C     		add	r1, r3, #1
 1555 0062 019A     		ldr	r2, [sp, #4]
 1556 0064 9161     		str	r1, [r2, #24]
 1557 0066 6A46     		mov	r2, sp
 1558 0068 0B32     		add	r2, r2, #11
 1559 006a 1B78     		ldrb	r3, [r3]
 1560 006c 1370     		strb	r3, [r2]
 1561              		.loc 7 162 0
 1562 006e 019B     		ldr	r3, [sp, #4]
 1563 0070 9A69     		ldr	r2, [r3, #24]
 1564 0072 019B     		ldr	r3, [sp, #4]
 1565 0074 1B69     		ldr	r3, [r3, #16]
 1566 0076 9A42     		cmp	r2, r3
 1567 0078 03D3     		bcc	.L27
ARM GAS  /tmp/ccI5eHJN.s 			page 86


 1568              		.loc 7 163 0
 1569 007a 019B     		ldr	r3, [sp, #4]
 1570 007c DA68     		ldr	r2, [r3, #12]
 1571 007e 019B     		ldr	r3, [sp, #4]
 1572 0080 9A61     		str	r2, [r3, #24]
 1573              	.L27:
 1574              		.loc 7 165 0
 1575 0082 FFF7FEFF 		bl	osalSysUnlock
 1576              		.loc 7 167 0
 1577 0086 6B46     		mov	r3, sp
 1578 0088 0B33     		add	r3, r3, #11
 1579 008a 1B78     		ldrb	r3, [r3]
 1580              	.L25:
 1581              		.loc 7 168 0
 1582 008c 181C     		mov	r0, r3
 1583 008e 05B0     		add	sp, sp, #20
 1584              		@ sp needed
 1585 0090 00BD     		pop	{pc}
 1586              		.cfi_endproc
 1587              	.LFE152:
 1588              		.size	iqGetTimeout, .-iqGetTimeout
 1589 0092 C046C046 		.section	.text.iqReadTimeout,"ax",%progbits
 1589      C046C046 
 1589      C046C046 
 1589      C046
 1590              		.align	2
 1591              		.p2align 4,,15
 1592              		.global	iqReadTimeout
 1593              		.code	16
 1594              		.thumb_func
 1595              		.type	iqReadTimeout, %function
 1596              	iqReadTimeout:
 1597              	.LFB153:
 1598              		.loc 7 195 0
 1599              		.cfi_startproc
 1600 0000 00B5     		push	{lr}
 1601              		.cfi_def_cfa_offset 4
 1602              		.cfi_offset 14, -4
 1603 0002 87B0     		sub	sp, sp, #28
 1604              		.cfi_def_cfa_offset 32
 1605 0004 0390     		str	r0, [sp, #12]
 1606 0006 0291     		str	r1, [sp, #8]
 1607 0008 0192     		str	r2, [sp, #4]
 1608 000a 1A1C     		mov	r2, r3
 1609 000c 6B46     		mov	r3, sp
 1610 000e 0233     		add	r3, r3, #2
 1611 0010 1A80     		strh	r2, [r3]
 1612              		.loc 7 196 0
 1613 0012 039B     		ldr	r3, [sp, #12]
 1614 0014 DB69     		ldr	r3, [r3, #28]
 1615 0016 0493     		str	r3, [sp, #16]
 1616              		.loc 7 197 0
 1617 0018 0023     		mov	r3, #0
 1618 001a 0593     		str	r3, [sp, #20]
 1619              		.loc 7 201 0
 1620 001c FFF7FEFF 		bl	osalSysLock
 1621              	.L35:
ARM GAS  /tmp/ccI5eHJN.s 			page 87


 1622              		.loc 7 203 0
 1623 0020 049B     		ldr	r3, [sp, #16]
 1624 0022 002B     		cmp	r3, #0
 1625 0024 04D0     		beq	.L29
 1626              		.loc 7 204 0
 1627 0026 039A     		ldr	r2, [sp, #12]
 1628 0028 049B     		ldr	r3, [sp, #16]
 1629 002a 101C     		mov	r0, r2
 1630 002c 9847     		blx	r3
 1631              		.loc 7 207 0
 1632 002e 0FE0     		b	.L30
 1633              	.L29:
 1634 0030 0EE0     		b	.L30
 1635              	.L32:
 1636              		.loc 7 208 0
 1637 0032 039A     		ldr	r2, [sp, #12]
 1638 0034 6B46     		mov	r3, sp
 1639 0036 0233     		add	r3, r3, #2
 1640 0038 1B88     		ldrh	r3, [r3]
 1641 003a 101C     		mov	r0, r2
 1642 003c 191C     		mov	r1, r3
 1643 003e FFF7FEFF 		bl	osalThreadEnqueueTimeoutS
 1644 0042 031C     		mov	r3, r0
 1645 0044 002B     		cmp	r3, #0
 1646 0046 03D0     		beq	.L30
 1647              		.loc 7 209 0
 1648 0048 FFF7FEFF 		bl	osalSysUnlock
 1649              		.loc 7 210 0
 1650 004c 059B     		ldr	r3, [sp, #20]
 1651 004e 2CE0     		b	.L31
 1652              	.L30:
 1653              		.loc 7 207 0 discriminator 1
 1654 0050 039B     		ldr	r3, [sp, #12]
 1655 0052 9B68     		ldr	r3, [r3, #8]
 1656 0054 002B     		cmp	r3, #0
 1657 0056 ECD0     		beq	.L32
 1658              		.loc 7 214 0
 1659 0058 039B     		ldr	r3, [sp, #12]
 1660 005a 9B68     		ldr	r3, [r3, #8]
 1661 005c 5A1E     		sub	r2, r3, #1
 1662 005e 039B     		ldr	r3, [sp, #12]
 1663 0060 9A60     		str	r2, [r3, #8]
 1664              		.loc 7 215 0
 1665 0062 029B     		ldr	r3, [sp, #8]
 1666 0064 5A1C     		add	r2, r3, #1
 1667 0066 0292     		str	r2, [sp, #8]
 1668 0068 039A     		ldr	r2, [sp, #12]
 1669 006a 9269     		ldr	r2, [r2, #24]
 1670 006c 501C     		add	r0, r2, #1
 1671 006e 0399     		ldr	r1, [sp, #12]
 1672 0070 8861     		str	r0, [r1, #24]
 1673 0072 1278     		ldrb	r2, [r2]
 1674 0074 1A70     		strb	r2, [r3]
 1675              		.loc 7 216 0
 1676 0076 039B     		ldr	r3, [sp, #12]
 1677 0078 9A69     		ldr	r2, [r3, #24]
 1678 007a 039B     		ldr	r3, [sp, #12]
ARM GAS  /tmp/ccI5eHJN.s 			page 88


 1679 007c 1B69     		ldr	r3, [r3, #16]
 1680 007e 9A42     		cmp	r2, r3
 1681 0080 03D3     		bcc	.L33
 1682              		.loc 7 217 0
 1683 0082 039B     		ldr	r3, [sp, #12]
 1684 0084 DA68     		ldr	r2, [r3, #12]
 1685 0086 039B     		ldr	r3, [sp, #12]
 1686 0088 9A61     		str	r2, [r3, #24]
 1687              	.L33:
 1688              		.loc 7 219 0
 1689 008a FFF7FEFF 		bl	osalSysUnlock
 1690              		.loc 7 221 0
 1691 008e 059B     		ldr	r3, [sp, #20]
 1692 0090 0133     		add	r3, r3, #1
 1693 0092 0593     		str	r3, [sp, #20]
 1694              		.loc 7 222 0
 1695 0094 019B     		ldr	r3, [sp, #4]
 1696 0096 013B     		sub	r3, r3, #1
 1697 0098 0193     		str	r3, [sp, #4]
 1698 009a 019B     		ldr	r3, [sp, #4]
 1699 009c 002B     		cmp	r3, #0
 1700 009e 01D1     		bne	.L34
 1701              		.loc 7 223 0
 1702 00a0 059B     		ldr	r3, [sp, #20]
 1703 00a2 02E0     		b	.L31
 1704              	.L34:
 1705              		.loc 7 226 0
 1706 00a4 FFF7FEFF 		bl	osalSysLock
 1707              		.loc 7 227 0
 1708 00a8 BAE7     		b	.L35
 1709              	.L31:
 1710              		.loc 7 228 0
 1711 00aa 181C     		mov	r0, r3
 1712 00ac 07B0     		add	sp, sp, #28
 1713              		@ sp needed
 1714 00ae 00BD     		pop	{pc}
 1715              		.cfi_endproc
 1716              	.LFE153:
 1717              		.size	iqReadTimeout, .-iqReadTimeout
 1718              		.section	.text.oqObjectInit,"ax",%progbits
 1719              		.align	2
 1720              		.p2align 4,,15
 1721              		.global	oqObjectInit
 1722              		.code	16
 1723              		.thumb_func
 1724              		.type	oqObjectInit, %function
 1725              	oqObjectInit:
 1726              	.LFB154:
 1727              		.loc 7 246 0
 1728              		.cfi_startproc
 1729 0000 00B5     		push	{lr}
 1730              		.cfi_def_cfa_offset 4
 1731              		.cfi_offset 14, -4
 1732 0002 85B0     		sub	sp, sp, #20
 1733              		.cfi_def_cfa_offset 24
 1734 0004 0390     		str	r0, [sp, #12]
 1735 0006 0291     		str	r1, [sp, #8]
ARM GAS  /tmp/ccI5eHJN.s 			page 89


 1736 0008 0192     		str	r2, [sp, #4]
 1737 000a 0093     		str	r3, [sp]
 1738              		.loc 7 248 0
 1739 000c 039B     		ldr	r3, [sp, #12]
 1740 000e 181C     		mov	r0, r3
 1741 0010 FFF7FEFF 		bl	osalThreadQueueObjectInit
 1742              		.loc 7 249 0
 1743 0014 039B     		ldr	r3, [sp, #12]
 1744 0016 019A     		ldr	r2, [sp, #4]
 1745 0018 9A60     		str	r2, [r3, #8]
 1746              		.loc 7 250 0
 1747 001a 039B     		ldr	r3, [sp, #12]
 1748 001c 029A     		ldr	r2, [sp, #8]
 1749 001e DA60     		str	r2, [r3, #12]
 1750              		.loc 7 251 0
 1751 0020 039B     		ldr	r3, [sp, #12]
 1752 0022 029A     		ldr	r2, [sp, #8]
 1753 0024 9A61     		str	r2, [r3, #24]
 1754              		.loc 7 252 0
 1755 0026 039B     		ldr	r3, [sp, #12]
 1756 0028 029A     		ldr	r2, [sp, #8]
 1757 002a 5A61     		str	r2, [r3, #20]
 1758              		.loc 7 253 0
 1759 002c 029A     		ldr	r2, [sp, #8]
 1760 002e 019B     		ldr	r3, [sp, #4]
 1761 0030 D218     		add	r2, r2, r3
 1762 0032 039B     		ldr	r3, [sp, #12]
 1763 0034 1A61     		str	r2, [r3, #16]
 1764              		.loc 7 254 0
 1765 0036 039B     		ldr	r3, [sp, #12]
 1766 0038 009A     		ldr	r2, [sp]
 1767 003a DA61     		str	r2, [r3, #28]
 1768              		.loc 7 255 0
 1769 003c 039B     		ldr	r3, [sp, #12]
 1770 003e 069A     		ldr	r2, [sp, #24]
 1771 0040 1A62     		str	r2, [r3, #32]
 1772              		.loc 7 256 0
 1773 0042 05B0     		add	sp, sp, #20
 1774              		@ sp needed
 1775 0044 00BD     		pop	{pc}
 1776              		.cfi_endproc
 1777              	.LFE154:
 1778              		.size	oqObjectInit, .-oqObjectInit
 1779 0046 C046C046 		.section	.text.oqResetI,"ax",%progbits
 1779      C046C046 
 1779      C046
 1780              		.align	2
 1781              		.p2align 4,,15
 1782              		.global	oqResetI
 1783              		.code	16
 1784              		.thumb_func
 1785              		.type	oqResetI, %function
 1786              	oqResetI:
 1787              	.LFB155:
 1788              		.loc 7 269 0
 1789              		.cfi_startproc
 1790 0000 00B5     		push	{lr}
ARM GAS  /tmp/ccI5eHJN.s 			page 90


 1791              		.cfi_def_cfa_offset 4
 1792              		.cfi_offset 14, -4
 1793 0002 83B0     		sub	sp, sp, #12
 1794              		.cfi_def_cfa_offset 16
 1795 0004 0190     		str	r0, [sp, #4]
 1796              		.loc 7 273 0
 1797 0006 019B     		ldr	r3, [sp, #4]
 1798 0008 DA68     		ldr	r2, [r3, #12]
 1799 000a 019B     		ldr	r3, [sp, #4]
 1800 000c 9A61     		str	r2, [r3, #24]
 1801              		.loc 7 274 0
 1802 000e 019B     		ldr	r3, [sp, #4]
 1803 0010 DA68     		ldr	r2, [r3, #12]
 1804 0012 019B     		ldr	r3, [sp, #4]
 1805 0014 5A61     		str	r2, [r3, #20]
 1806              		.loc 7 275 0
 1807 0016 019B     		ldr	r3, [sp, #4]
 1808 0018 1B69     		ldr	r3, [r3, #16]
 1809 001a 1A1C     		mov	r2, r3
 1810 001c 019B     		ldr	r3, [sp, #4]
 1811 001e DB68     		ldr	r3, [r3, #12]
 1812 0020 D31A     		sub	r3, r2, r3
 1813 0022 1A1C     		mov	r2, r3
 1814 0024 019B     		ldr	r3, [sp, #4]
 1815 0026 9A60     		str	r2, [r3, #8]
 1816              		.loc 7 276 0
 1817 0028 019A     		ldr	r2, [sp, #4]
 1818 002a 0223     		mov	r3, #2
 1819 002c 5B42     		neg	r3, r3
 1820 002e 101C     		mov	r0, r2
 1821 0030 191C     		mov	r1, r3
 1822 0032 FFF7FEFF 		bl	osalThreadDequeueAllI
 1823              		.loc 7 277 0
 1824 0036 03B0     		add	sp, sp, #12
 1825              		@ sp needed
 1826 0038 00BD     		pop	{pc}
 1827              		.cfi_endproc
 1828              	.LFE155:
 1829              		.size	oqResetI, .-oqResetI
 1830 003a C046C046 		.section	.text.oqPutTimeout,"ax",%progbits
 1830      C046
 1831              		.align	2
 1832              		.p2align 4,,15
 1833              		.global	oqPutTimeout
 1834              		.code	16
 1835              		.thumb_func
 1836              		.type	oqPutTimeout, %function
 1837              	oqPutTimeout:
 1838              	.LFB156:
 1839              		.loc 7 301 0
 1840              		.cfi_startproc
 1841 0000 00B5     		push	{lr}
 1842              		.cfi_def_cfa_offset 4
 1843              		.cfi_offset 14, -4
 1844 0002 85B0     		sub	sp, sp, #20
 1845              		.cfi_def_cfa_offset 24
 1846 0004 0190     		str	r0, [sp, #4]
ARM GAS  /tmp/ccI5eHJN.s 			page 91


 1847 0006 6B46     		mov	r3, sp
 1848 0008 0333     		add	r3, r3, #3
 1849 000a 1970     		strb	r1, [r3]
 1850 000c 6B46     		mov	r3, sp
 1851 000e 1A80     		strh	r2, [r3]
 1852              		.loc 7 303 0
 1853 0010 FFF7FEFF 		bl	osalSysLock
 1854              		.loc 7 304 0
 1855 0014 0FE0     		b	.L39
 1856              	.L41:
 1857              	.LBB11:
 1858              		.loc 7 305 0
 1859 0016 019A     		ldr	r2, [sp, #4]
 1860 0018 6B46     		mov	r3, sp
 1861 001a 1B88     		ldrh	r3, [r3]
 1862 001c 101C     		mov	r0, r2
 1863 001e 191C     		mov	r1, r3
 1864 0020 FFF7FEFF 		bl	osalThreadEnqueueTimeoutS
 1865 0024 031C     		mov	r3, r0
 1866 0026 0393     		str	r3, [sp, #12]
 1867              		.loc 7 306 0
 1868 0028 039B     		ldr	r3, [sp, #12]
 1869 002a 002B     		cmp	r3, #0
 1870 002c 03DA     		bge	.L39
 1871              		.loc 7 307 0
 1872 002e FFF7FEFF 		bl	osalSysUnlock
 1873              		.loc 7 308 0
 1874 0032 039B     		ldr	r3, [sp, #12]
 1875 0034 27E0     		b	.L40
 1876              	.L39:
 1877              	.LBE11:
 1878              		.loc 7 304 0 discriminator 1
 1879 0036 019B     		ldr	r3, [sp, #4]
 1880 0038 9B68     		ldr	r3, [r3, #8]
 1881 003a 002B     		cmp	r3, #0
 1882 003c EBD0     		beq	.L41
 1883              		.loc 7 312 0
 1884 003e 019B     		ldr	r3, [sp, #4]
 1885 0040 9B68     		ldr	r3, [r3, #8]
 1886 0042 5A1E     		sub	r2, r3, #1
 1887 0044 019B     		ldr	r3, [sp, #4]
 1888 0046 9A60     		str	r2, [r3, #8]
 1889              		.loc 7 313 0
 1890 0048 019B     		ldr	r3, [sp, #4]
 1891 004a 5B69     		ldr	r3, [r3, #20]
 1892 004c 591C     		add	r1, r3, #1
 1893 004e 019A     		ldr	r2, [sp, #4]
 1894 0050 5161     		str	r1, [r2, #20]
 1895 0052 6A46     		mov	r2, sp
 1896 0054 0332     		add	r2, r2, #3
 1897 0056 1278     		ldrb	r2, [r2]
 1898 0058 1A70     		strb	r2, [r3]
 1899              		.loc 7 314 0
 1900 005a 019B     		ldr	r3, [sp, #4]
 1901 005c 5A69     		ldr	r2, [r3, #20]
 1902 005e 019B     		ldr	r3, [sp, #4]
 1903 0060 1B69     		ldr	r3, [r3, #16]
ARM GAS  /tmp/ccI5eHJN.s 			page 92


 1904 0062 9A42     		cmp	r2, r3
 1905 0064 03D3     		bcc	.L42
 1906              		.loc 7 315 0
 1907 0066 019B     		ldr	r3, [sp, #4]
 1908 0068 DA68     		ldr	r2, [r3, #12]
 1909 006a 019B     		ldr	r3, [sp, #4]
 1910 006c 5A61     		str	r2, [r3, #20]
 1911              	.L42:
 1912              		.loc 7 318 0
 1913 006e 019B     		ldr	r3, [sp, #4]
 1914 0070 DB69     		ldr	r3, [r3, #28]
 1915 0072 002B     		cmp	r3, #0
 1916 0074 04D0     		beq	.L43
 1917              		.loc 7 319 0
 1918 0076 019B     		ldr	r3, [sp, #4]
 1919 0078 DB69     		ldr	r3, [r3, #28]
 1920 007a 019A     		ldr	r2, [sp, #4]
 1921 007c 101C     		mov	r0, r2
 1922 007e 9847     		blx	r3
 1923              	.L43:
 1924              		.loc 7 321 0
 1925 0080 FFF7FEFF 		bl	osalSysUnlock
 1926              		.loc 7 323 0
 1927 0084 0023     		mov	r3, #0
 1928              	.L40:
 1929              		.loc 7 324 0
 1930 0086 181C     		mov	r0, r3
 1931 0088 05B0     		add	sp, sp, #20
 1932              		@ sp needed
 1933 008a 00BD     		pop	{pc}
 1934              		.cfi_endproc
 1935              	.LFE156:
 1936              		.size	oqPutTimeout, .-oqPutTimeout
 1937 008c C046C046 		.section	.text.oqGetI,"ax",%progbits
 1938              		.align	2
 1939              		.p2align 4,,15
 1940              		.global	oqGetI
 1941              		.code	16
 1942              		.thumb_func
 1943              		.type	oqGetI, %function
 1944              	oqGetI:
 1945              	.LFB157:
 1946              		.loc 7 336 0
 1947              		.cfi_startproc
 1948 0000 00B5     		push	{lr}
 1949              		.cfi_def_cfa_offset 4
 1950              		.cfi_offset 14, -4
 1951 0002 85B0     		sub	sp, sp, #20
 1952              		.cfi_def_cfa_offset 24
 1953 0004 0190     		str	r0, [sp, #4]
 1954              		.loc 7 341 0
 1955 0006 019B     		ldr	r3, [sp, #4]
 1956 0008 5A69     		ldr	r2, [r3, #20]
 1957 000a 019B     		ldr	r3, [sp, #4]
 1958 000c 9B69     		ldr	r3, [r3, #24]
 1959 000e 9A42     		cmp	r2, r3
 1960 0010 05D1     		bne	.L45
ARM GAS  /tmp/ccI5eHJN.s 			page 93


 1961              		.loc 7 341 0 is_stmt 0 discriminator 1
 1962 0012 019B     		ldr	r3, [sp, #4]
 1963 0014 9B68     		ldr	r3, [r3, #8]
 1964 0016 002B     		cmp	r3, #0
 1965 0018 01D0     		beq	.L45
 1966              		.loc 7 341 0 discriminator 3
 1967 001a 0123     		mov	r3, #1
 1968 001c 00E0     		b	.L46
 1969              	.L45:
 1970              		.loc 7 341 0 discriminator 2
 1971 001e 0023     		mov	r3, #0
 1972              	.L46:
 1973              		.loc 7 341 0 discriminator 4
 1974 0020 1A1C     		add	r2, r3, #0
 1975 0022 0123     		mov	r3, #1
 1976 0024 1340     		and	r3, r2
 1977 0026 DBB2     		uxtb	r3, r3
 1978 0028 002B     		cmp	r3, #0
 1979 002a 02D0     		beq	.L47
 1980              		.loc 7 342 0 is_stmt 1
 1981 002c 0323     		mov	r3, #3
 1982 002e 5B42     		neg	r3, r3
 1983 0030 1FE0     		b	.L48
 1984              	.L47:
 1985              		.loc 7 345 0
 1986 0032 019B     		ldr	r3, [sp, #4]
 1987 0034 9B68     		ldr	r3, [r3, #8]
 1988 0036 5A1C     		add	r2, r3, #1
 1989 0038 019B     		ldr	r3, [sp, #4]
 1990 003a 9A60     		str	r2, [r3, #8]
 1991              		.loc 7 346 0
 1992 003c 019B     		ldr	r3, [sp, #4]
 1993 003e 9B69     		ldr	r3, [r3, #24]
 1994 0040 591C     		add	r1, r3, #1
 1995 0042 019A     		ldr	r2, [sp, #4]
 1996 0044 9161     		str	r1, [r2, #24]
 1997 0046 6A46     		mov	r2, sp
 1998 0048 0F32     		add	r2, r2, #15
 1999 004a 1B78     		ldrb	r3, [r3]
 2000 004c 1370     		strb	r3, [r2]
 2001              		.loc 7 347 0
 2002 004e 019B     		ldr	r3, [sp, #4]
 2003 0050 9A69     		ldr	r2, [r3, #24]
 2004 0052 019B     		ldr	r3, [sp, #4]
 2005 0054 1B69     		ldr	r3, [r3, #16]
 2006 0056 9A42     		cmp	r2, r3
 2007 0058 03D3     		bcc	.L49
 2008              		.loc 7 348 0
 2009 005a 019B     		ldr	r3, [sp, #4]
 2010 005c DA68     		ldr	r2, [r3, #12]
 2011 005e 019B     		ldr	r3, [sp, #4]
 2012 0060 9A61     		str	r2, [r3, #24]
 2013              	.L49:
 2014              		.loc 7 351 0
 2015 0062 019B     		ldr	r3, [sp, #4]
 2016 0064 181C     		mov	r0, r3
 2017 0066 0021     		mov	r1, #0
ARM GAS  /tmp/ccI5eHJN.s 			page 94


 2018 0068 FFF7FEFF 		bl	osalThreadDequeueNextI
 2019              		.loc 7 353 0
 2020 006c 6B46     		mov	r3, sp
 2021 006e 0F33     		add	r3, r3, #15
 2022 0070 1B78     		ldrb	r3, [r3]
 2023              	.L48:
 2024              		.loc 7 354 0
 2025 0072 181C     		mov	r0, r3
 2026 0074 05B0     		add	sp, sp, #20
 2027              		@ sp needed
 2028 0076 00BD     		pop	{pc}
 2029              		.cfi_endproc
 2030              	.LFE157:
 2031              		.size	oqGetI, .-oqGetI
 2032 0078 C046C046 		.section	.text.oqWriteTimeout,"ax",%progbits
 2032      C046C046 
 2033              		.align	2
 2034              		.p2align 4,,15
 2035              		.global	oqWriteTimeout
 2036              		.code	16
 2037              		.thumb_func
 2038              		.type	oqWriteTimeout, %function
 2039              	oqWriteTimeout:
 2040              	.LFB158:
 2041              		.loc 7 381 0
 2042              		.cfi_startproc
 2043 0000 00B5     		push	{lr}
 2044              		.cfi_def_cfa_offset 4
 2045              		.cfi_offset 14, -4
 2046 0002 87B0     		sub	sp, sp, #28
 2047              		.cfi_def_cfa_offset 32
 2048 0004 0390     		str	r0, [sp, #12]
 2049 0006 0291     		str	r1, [sp, #8]
 2050 0008 0192     		str	r2, [sp, #4]
 2051 000a 1A1C     		mov	r2, r3
 2052 000c 6B46     		mov	r3, sp
 2053 000e 0233     		add	r3, r3, #2
 2054 0010 1A80     		strh	r2, [r3]
 2055              		.loc 7 382 0
 2056 0012 039B     		ldr	r3, [sp, #12]
 2057 0014 DB69     		ldr	r3, [r3, #28]
 2058 0016 0493     		str	r3, [sp, #16]
 2059              		.loc 7 383 0
 2060 0018 0023     		mov	r3, #0
 2061 001a 0593     		str	r3, [sp, #20]
 2062              		.loc 7 387 0
 2063 001c FFF7FEFF 		bl	osalSysLock
 2064              		.loc 7 389 0
 2065 0020 0EE0     		b	.L51
 2066              	.L53:
 2067              		.loc 7 390 0
 2068 0022 039A     		ldr	r2, [sp, #12]
 2069 0024 6B46     		mov	r3, sp
 2070 0026 0233     		add	r3, r3, #2
 2071 0028 1B88     		ldrh	r3, [r3]
 2072 002a 101C     		mov	r0, r2
 2073 002c 191C     		mov	r1, r3
ARM GAS  /tmp/ccI5eHJN.s 			page 95


 2074 002e FFF7FEFF 		bl	osalThreadEnqueueTimeoutS
 2075 0032 031C     		mov	r3, r0
 2076 0034 002B     		cmp	r3, #0
 2077 0036 03D0     		beq	.L51
 2078              		.loc 7 391 0
 2079 0038 FFF7FEFF 		bl	osalSysUnlock
 2080              		.loc 7 392 0
 2081 003c 059B     		ldr	r3, [sp, #20]
 2082 003e 34E0     		b	.L52
 2083              	.L51:
 2084              		.loc 7 389 0 discriminator 1
 2085 0040 039B     		ldr	r3, [sp, #12]
 2086 0042 9B68     		ldr	r3, [r3, #8]
 2087 0044 002B     		cmp	r3, #0
 2088 0046 ECD0     		beq	.L53
 2089              		.loc 7 395 0
 2090 0048 039B     		ldr	r3, [sp, #12]
 2091 004a 9B68     		ldr	r3, [r3, #8]
 2092 004c 5A1E     		sub	r2, r3, #1
 2093 004e 039B     		ldr	r3, [sp, #12]
 2094 0050 9A60     		str	r2, [r3, #8]
 2095              		.loc 7 396 0
 2096 0052 039B     		ldr	r3, [sp, #12]
 2097 0054 5B69     		ldr	r3, [r3, #20]
 2098 0056 591C     		add	r1, r3, #1
 2099 0058 039A     		ldr	r2, [sp, #12]
 2100 005a 5161     		str	r1, [r2, #20]
 2101 005c 029A     		ldr	r2, [sp, #8]
 2102 005e 511C     		add	r1, r2, #1
 2103 0060 0291     		str	r1, [sp, #8]
 2104 0062 1278     		ldrb	r2, [r2]
 2105 0064 1A70     		strb	r2, [r3]
 2106              		.loc 7 397 0
 2107 0066 039B     		ldr	r3, [sp, #12]
 2108 0068 5A69     		ldr	r2, [r3, #20]
 2109 006a 039B     		ldr	r3, [sp, #12]
 2110 006c 1B69     		ldr	r3, [r3, #16]
 2111 006e 9A42     		cmp	r2, r3
 2112 0070 03D3     		bcc	.L54
 2113              		.loc 7 398 0
 2114 0072 039B     		ldr	r3, [sp, #12]
 2115 0074 DA68     		ldr	r2, [r3, #12]
 2116 0076 039B     		ldr	r3, [sp, #12]
 2117 0078 5A61     		str	r2, [r3, #20]
 2118              	.L54:
 2119              		.loc 7 401 0
 2120 007a 049B     		ldr	r3, [sp, #16]
 2121 007c 002B     		cmp	r3, #0
 2122 007e 03D0     		beq	.L55
 2123              		.loc 7 402 0
 2124 0080 039A     		ldr	r2, [sp, #12]
 2125 0082 049B     		ldr	r3, [sp, #16]
 2126 0084 101C     		mov	r0, r2
 2127 0086 9847     		blx	r3
 2128              	.L55:
 2129              		.loc 7 404 0
 2130 0088 FFF7FEFF 		bl	osalSysUnlock
ARM GAS  /tmp/ccI5eHJN.s 			page 96


 2131              		.loc 7 406 0
 2132 008c 059B     		ldr	r3, [sp, #20]
 2133 008e 0133     		add	r3, r3, #1
 2134 0090 0593     		str	r3, [sp, #20]
 2135              		.loc 7 407 0
 2136 0092 019B     		ldr	r3, [sp, #4]
 2137 0094 013B     		sub	r3, r3, #1
 2138 0096 0193     		str	r3, [sp, #4]
 2139 0098 019B     		ldr	r3, [sp, #4]
 2140 009a 002B     		cmp	r3, #0
 2141 009c 01D1     		bne	.L56
 2142              		.loc 7 408 0
 2143 009e 059B     		ldr	r3, [sp, #20]
 2144 00a0 03E0     		b	.L52
 2145              	.L56:
 2146              		.loc 7 411 0
 2147 00a2 FFF7FEFF 		bl	osalSysLock
 2148              		.loc 7 412 0
 2149 00a6 C046     		mov	r8, r8
 2150              		.loc 7 389 0
 2151 00a8 CAE7     		b	.L51
 2152              	.L52:
 2153              		.loc 7 413 0
 2154 00aa 181C     		mov	r0, r3
 2155 00ac 07B0     		add	sp, sp, #28
 2156              		@ sp needed
 2157 00ae 00BD     		pop	{pc}
 2158              		.cfi_endproc
 2159              	.LFE158:
 2160              		.size	oqWriteTimeout, .-oqWriteTimeout
 2161              		.text
 2162              	.Letext0:
 2163              		.file 8 "/usr/lib/gcc/arm-none-eabi/4.8/include/stddef.h"
 2164              		.file 9 "/usr/include/newlib/machine/_default_types.h"
 2165              		.file 10 "/usr/include/newlib/stdint.h"
 2166              		.file 11 "/home/efe/ChibiOS/os/rt/ports/ARMCMx/compilers/GCC/chtypes.h"
 2167              		.file 12 "/home/efe/ChibiOS/os/rt/include/chsystypes.h"
 2168              		.file 13 "/home/efe/ChibiOS/os/rt/ports/ARMCMx/chcore.h"
 2169              		.file 14 "/home/efe/ChibiOS/os/rt/include/chsem.h"
 2170              		.file 15 "/home/efe/ChibiOS/os/rt/include/chmtx.h"
 2171              		.file 16 "/home/efe/ChibiOS/os/hal/include/hal_queues.h"
 2172              		.section	.debug_info,"",%progbits
 2173              	.Ldebug_info0:
 2174 0000 910B0000 		.4byte	0xb91
 2175 0004 0400     		.2byte	0x4
 2176 0006 00000000 		.4byte	.Ldebug_abbrev0
 2177 000a 04       		.byte	0x4
 2178 000b 01       		.uleb128 0x1
 2179 000c BB030000 		.4byte	.LASF139
 2180 0010 01       		.byte	0x1
 2181 0011 F5010000 		.4byte	.LASF140
 2182 0015 00000000 		.4byte	.Ldebug_ranges0+0
 2183 0019 00000000 		.4byte	0
 2184 001d 00000000 		.4byte	.Ldebug_line0
 2185 0021 02       		.uleb128 0x2
 2186 0022 04       		.byte	0x4
 2187 0023 05       		.byte	0x5
ARM GAS  /tmp/ccI5eHJN.s 			page 97


 2188 0024 696E7400 		.ascii	"int\000"
 2189 0028 03       		.uleb128 0x3
 2190 0029 4D020000 		.4byte	.LASF2
 2191 002d 08       		.byte	0x8
 2192 002e D4       		.byte	0xd4
 2193 002f 33000000 		.4byte	0x33
 2194 0033 04       		.uleb128 0x4
 2195 0034 04       		.byte	0x4
 2196 0035 07       		.byte	0x7
 2197 0036 70000000 		.4byte	.LASF0
 2198 003a 04       		.uleb128 0x4
 2199 003b 01       		.byte	0x1
 2200 003c 06       		.byte	0x6
 2201 003d 37060000 		.4byte	.LASF1
 2202 0041 03       		.uleb128 0x3
 2203 0042 42050000 		.4byte	.LASF3
 2204 0046 09       		.byte	0x9
 2205 0047 1D       		.byte	0x1d
 2206 0048 4C000000 		.4byte	0x4c
 2207 004c 04       		.uleb128 0x4
 2208 004d 01       		.byte	0x1
 2209 004e 08       		.byte	0x8
 2210 004f D5050000 		.4byte	.LASF4
 2211 0053 04       		.uleb128 0x4
 2212 0054 02       		.byte	0x2
 2213 0055 05       		.byte	0x5
 2214 0056 D1040000 		.4byte	.LASF5
 2215 005a 03       		.uleb128 0x3
 2216 005b CA010000 		.4byte	.LASF6
 2217 005f 09       		.byte	0x9
 2218 0060 2B       		.byte	0x2b
 2219 0061 65000000 		.4byte	0x65
 2220 0065 04       		.uleb128 0x4
 2221 0066 02       		.byte	0x2
 2222 0067 07       		.byte	0x7
 2223 0068 53060000 		.4byte	.LASF7
 2224 006c 03       		.uleb128 0x3
 2225 006d 94000000 		.4byte	.LASF8
 2226 0071 09       		.byte	0x9
 2227 0072 3F       		.byte	0x3f
 2228 0073 77000000 		.4byte	0x77
 2229 0077 04       		.uleb128 0x4
 2230 0078 04       		.byte	0x4
 2231 0079 05       		.byte	0x5
 2232 007a ED040000 		.4byte	.LASF9
 2233 007e 03       		.uleb128 0x3
 2234 007f E3050000 		.4byte	.LASF10
 2235 0083 09       		.byte	0x9
 2236 0084 41       		.byte	0x41
 2237 0085 89000000 		.4byte	0x89
 2238 0089 04       		.uleb128 0x4
 2239 008a 04       		.byte	0x4
 2240 008b 07       		.byte	0x7
 2241 008c 6C050000 		.4byte	.LASF11
 2242 0090 04       		.uleb128 0x4
 2243 0091 08       		.byte	0x8
 2244 0092 05       		.byte	0x5
ARM GAS  /tmp/ccI5eHJN.s 			page 98


 2245 0093 51030000 		.4byte	.LASF12
 2246 0097 03       		.uleb128 0x3
 2247 0098 81020000 		.4byte	.LASF13
 2248 009c 09       		.byte	0x9
 2249 009d 5B       		.byte	0x5b
 2250 009e A2000000 		.4byte	0xa2
 2251 00a2 04       		.uleb128 0x4
 2252 00a3 08       		.byte	0x8
 2253 00a4 07       		.byte	0x7
 2254 00a5 B3010000 		.4byte	.LASF14
 2255 00a9 03       		.uleb128 0x3
 2256 00aa 0B030000 		.4byte	.LASF15
 2257 00ae 0A       		.byte	0xa
 2258 00af 2A       		.byte	0x2a
 2259 00b0 41000000 		.4byte	0x41
 2260 00b4 03       		.uleb128 0x3
 2261 00b5 B5040000 		.4byte	.LASF16
 2262 00b9 0A       		.byte	0xa
 2263 00ba 36       		.byte	0x36
 2264 00bb 5A000000 		.4byte	0x5a
 2265 00bf 03       		.uleb128 0x3
 2266 00c0 97050000 		.4byte	.LASF17
 2267 00c4 0A       		.byte	0xa
 2268 00c5 41       		.byte	0x41
 2269 00c6 6C000000 		.4byte	0x6c
 2270 00ca 03       		.uleb128 0x3
 2271 00cb 62010000 		.4byte	.LASF18
 2272 00cf 0A       		.byte	0xa
 2273 00d0 42       		.byte	0x42
 2274 00d1 7E000000 		.4byte	0x7e
 2275 00d5 03       		.uleb128 0x3
 2276 00d6 2D050000 		.4byte	.LASF19
 2277 00da 0A       		.byte	0xa
 2278 00db 4E       		.byte	0x4e
 2279 00dc 97000000 		.4byte	0x97
 2280 00e0 03       		.uleb128 0x3
 2281 00e1 88040000 		.4byte	.LASF20
 2282 00e5 0B       		.byte	0xb
 2283 00e6 3C       		.byte	0x3c
 2284 00e7 A9000000 		.4byte	0xa9
 2285 00eb 03       		.uleb128 0x3
 2286 00ec F2020000 		.4byte	.LASF21
 2287 00f0 0B       		.byte	0xb
 2288 00f1 3D       		.byte	0x3d
 2289 00f2 A9000000 		.4byte	0xa9
 2290 00f6 03       		.uleb128 0x3
 2291 00f7 95010000 		.4byte	.LASF22
 2292 00fb 0B       		.byte	0xb
 2293 00fc 40       		.byte	0x40
 2294 00fd CA000000 		.4byte	0xca
 2295 0101 03       		.uleb128 0x3
 2296 0102 78030000 		.4byte	.LASF23
 2297 0106 0B       		.byte	0xb
 2298 0107 41       		.byte	0x41
 2299 0108 BF000000 		.4byte	0xbf
 2300 010c 03       		.uleb128 0x3
 2301 010d D5010000 		.4byte	.LASF24
ARM GAS  /tmp/ccI5eHJN.s 			page 99


 2302 0111 0B       		.byte	0xb
 2303 0112 45       		.byte	0x45
 2304 0113 BF000000 		.4byte	0xbf
 2305 0117 03       		.uleb128 0x3
 2306 0118 4B000000 		.4byte	.LASF25
 2307 011c 0C       		.byte	0xc
 2308 011d 35       		.byte	0x35
 2309 011e B4000000 		.4byte	0xb4
 2310 0122 03       		.uleb128 0x3
 2311 0123 36020000 		.4byte	.LASF26
 2312 0127 0C       		.byte	0xc
 2313 0128 3F       		.byte	0x3f
 2314 0129 2D010000 		.4byte	0x12d
 2315 012d 05       		.uleb128 0x5
 2316 012e 38030000 		.4byte	.LASF41
 2317 0132 30       		.byte	0x30
 2318 0133 03       		.byte	0x3
 2319 0134 C2       		.byte	0xc2
 2320 0135 DA010000 		.4byte	0x1da
 2321 0139 06       		.uleb128 0x6
 2322 013a 19050000 		.4byte	.LASF27
 2323 013e 03       		.byte	0x3
 2324 013f C3       		.byte	0xc3
 2325 0140 E5010000 		.4byte	0x1e5
 2326 0144 00       		.byte	0
 2327 0145 06       		.uleb128 0x6
 2328 0146 5C050000 		.4byte	.LASF28
 2329 014a 03       		.byte	0x3
 2330 014b C5       		.byte	0xc5
 2331 014c E5010000 		.4byte	0x1e5
 2332 0150 04       		.byte	0x4
 2333 0151 06       		.uleb128 0x6
 2334 0152 3F000000 		.4byte	.LASF29
 2335 0156 03       		.byte	0x3
 2336 0157 C7       		.byte	0xc7
 2337 0158 F6000000 		.4byte	0xf6
 2338 015c 08       		.byte	0x8
 2339 015d 06       		.uleb128 0x6
 2340 015e 36050000 		.4byte	.LASF30
 2341 0162 03       		.byte	0x3
 2342 0163 C8       		.byte	0xc8
 2343 0164 09040000 		.4byte	0x409
 2344 0168 0C       		.byte	0xc
 2345 0169 06       		.uleb128 0x6
 2346 016a B3060000 		.4byte	.LASF31
 2347 016e 03       		.byte	0x3
 2348 016f CA       		.byte	0xca
 2349 0170 E5010000 		.4byte	0x1e5
 2350 0174 10       		.byte	0x10
 2351 0175 06       		.uleb128 0x6
 2352 0176 FB020000 		.4byte	.LASF32
 2353 017a 03       		.byte	0x3
 2354 017b CB       		.byte	0xcb
 2355 017c E5010000 		.4byte	0x1e5
 2356 0180 14       		.byte	0x14
 2357 0181 06       		.uleb128 0x6
 2358 0182 AC020000 		.4byte	.LASF33
ARM GAS  /tmp/ccI5eHJN.s 			page 100


 2359 0186 03       		.byte	0x3
 2360 0187 D2       		.byte	0xd2
 2361 0188 53050000 		.4byte	0x553
 2362 018c 18       		.byte	0x18
 2363 018d 06       		.uleb128 0x6
 2364 018e 03030000 		.4byte	.LASF34
 2365 0192 03       		.byte	0x3
 2366 0193 DD       		.byte	0xdd
 2367 0194 EB000000 		.4byte	0xeb
 2368 0198 1C       		.byte	0x1c
 2369 0199 06       		.uleb128 0x6
 2370 019a 86030000 		.4byte	.LASF35
 2371 019e 03       		.byte	0x3
 2372 019f E1       		.byte	0xe1
 2373 01a0 E0000000 		.4byte	0xe0
 2374 01a4 1D       		.byte	0x1d
 2375 01a5 07       		.uleb128 0x7
 2376 01a6 705F7500 		.ascii	"p_u\000"
 2377 01aa 03       		.byte	0x3
 2378 01ab 3101     		.2byte	0x131
 2379 01ad 9A040000 		.4byte	0x49a
 2380 01b1 20       		.byte	0x20
 2381 01b2 08       		.uleb128 0x8
 2382 01b3 20000000 		.4byte	.LASF36
 2383 01b7 03       		.byte	0x3
 2384 01b8 3601     		.2byte	0x136
 2385 01ba EB010000 		.4byte	0x1eb
 2386 01be 24       		.byte	0x24
 2387 01bf 08       		.uleb128 0x8
 2388 01c0 2E030000 		.4byte	.LASF37
 2389 01c4 03       		.byte	0x3
 2390 01c5 4D01     		.2byte	0x14d
 2391 01c7 4D050000 		.4byte	0x54d
 2392 01cb 28       		.byte	0x28
 2393 01cc 08       		.uleb128 0x8
 2394 01cd C6040000 		.4byte	.LASF38
 2395 01d1 03       		.byte	0x3
 2396 01d2 5101     		.2byte	0x151
 2397 01d4 F6000000 		.4byte	0xf6
 2398 01d8 2C       		.byte	0x2c
 2399 01d9 00       		.byte	0
 2400 01da 03       		.uleb128 0x3
 2401 01db CB020000 		.4byte	.LASF39
 2402 01df 0C       		.byte	0xc
 2403 01e0 44       		.byte	0x44
 2404 01e1 E5010000 		.4byte	0x1e5
 2405 01e5 09       		.uleb128 0x9
 2406 01e6 04       		.byte	0x4
 2407 01e7 22010000 		.4byte	0x122
 2408 01eb 03       		.uleb128 0x3
 2409 01ec 7D000000 		.4byte	.LASF40
 2410 01f0 0C       		.byte	0xc
 2411 01f1 49       		.byte	0x49
 2412 01f2 F6010000 		.4byte	0x1f6
 2413 01f6 05       		.uleb128 0x5
 2414 01f7 00000000 		.4byte	.LASF42
 2415 01fb 04       		.byte	0x4
ARM GAS  /tmp/ccI5eHJN.s 			page 101


 2416 01fc 03       		.byte	0x3
 2417 01fd B0       		.byte	0xb0
 2418 01fe 0F020000 		.4byte	0x20f
 2419 0202 06       		.uleb128 0x6
 2420 0203 19050000 		.4byte	.LASF27
 2421 0207 03       		.byte	0x3
 2422 0208 B1       		.byte	0xb1
 2423 0209 E5010000 		.4byte	0x1e5
 2424 020d 00       		.byte	0
 2425 020e 00       		.byte	0
 2426 020f 03       		.uleb128 0x3
 2427 0210 10000000 		.4byte	.LASF43
 2428 0214 0C       		.byte	0xc
 2429 0215 50       		.byte	0x50
 2430 0216 1A020000 		.4byte	0x21a
 2431 021a 05       		.uleb128 0x5
 2432 021b 1C010000 		.4byte	.LASF44
 2433 021f 08       		.byte	0x8
 2434 0220 03       		.byte	0x3
 2435 0221 B7       		.byte	0xb7
 2436 0222 3F020000 		.4byte	0x23f
 2437 0226 06       		.uleb128 0x6
 2438 0227 19050000 		.4byte	.LASF27
 2439 022b 03       		.byte	0x3
 2440 022c B8       		.byte	0xb8
 2441 022d E5010000 		.4byte	0x1e5
 2442 0231 00       		.byte	0
 2443 0232 06       		.uleb128 0x6
 2444 0233 5C050000 		.4byte	.LASF28
 2445 0237 03       		.byte	0x3
 2446 0238 B9       		.byte	0xb9
 2447 0239 E5010000 		.4byte	0x1e5
 2448 023d 04       		.byte	0x4
 2449 023e 00       		.byte	0
 2450 023f 03       		.uleb128 0x3
 2451 0240 7E050000 		.4byte	.LASF45
 2452 0244 0C       		.byte	0xc
 2453 0245 57       		.byte	0x57
 2454 0246 4A020000 		.4byte	0x24a
 2455 024a 0A       		.uleb128 0xa
 2456 024b EA000000 		.4byte	.LASF46
 2457 024f 1C       		.byte	0x1c
 2458 0250 03       		.byte	0x3
 2459 0251 9001     		.2byte	0x190
 2460 0253 A6020000 		.4byte	0x2a6
 2461 0257 08       		.uleb128 0x8
 2462 0258 68030000 		.4byte	.LASF47
 2463 025c 03       		.byte	0x3
 2464 025d 9101     		.2byte	0x191
 2465 025f 0F020000 		.4byte	0x20f
 2466 0263 00       		.byte	0
 2467 0264 08       		.uleb128 0x8
 2468 0265 7A010000 		.4byte	.LASF48
 2469 0269 03       		.byte	0x3
 2470 026a 9201     		.2byte	0x192
 2471 026c F6000000 		.4byte	0xf6
 2472 0270 08       		.byte	0x8
ARM GAS  /tmp/ccI5eHJN.s 			page 102


 2473 0271 08       		.uleb128 0x8
 2474 0272 66060000 		.4byte	.LASF49
 2475 0276 03       		.byte	0x3
 2476 0277 9401     		.2byte	0x194
 2477 0279 09040000 		.4byte	0x409
 2478 027d 0C       		.byte	0xc
 2479 027e 08       		.uleb128 0x8
 2480 027f 70030000 		.4byte	.LASF50
 2481 0283 03       		.byte	0x3
 2482 0284 9701     		.2byte	0x197
 2483 0286 E5010000 		.4byte	0x1e5
 2484 028a 10       		.byte	0x10
 2485 028b 08       		.uleb128 0x8
 2486 028c 71040000 		.4byte	.LASF51
 2487 0290 03       		.byte	0x3
 2488 0291 9801     		.2byte	0x198
 2489 0293 E5010000 		.4byte	0x1e5
 2490 0297 14       		.byte	0x14
 2491 0298 08       		.uleb128 0x8
 2492 0299 DB040000 		.4byte	.LASF52
 2493 029d 03       		.byte	0x3
 2494 029e 9B01     		.2byte	0x19b
 2495 02a0 E5010000 		.4byte	0x1e5
 2496 02a4 18       		.byte	0x18
 2497 02a5 00       		.byte	0
 2498 02a6 03       		.uleb128 0x3
 2499 02a7 43010000 		.4byte	.LASF53
 2500 02ab 0C       		.byte	0xc
 2501 02ac 5C       		.byte	0x5c
 2502 02ad B1020000 		.4byte	0x2b1
 2503 02b1 09       		.uleb128 0x9
 2504 02b2 04       		.byte	0x4
 2505 02b3 B7020000 		.4byte	0x2b7
 2506 02b7 0B       		.uleb128 0xb
 2507 02b8 C2020000 		.4byte	0x2c2
 2508 02bc 0C       		.uleb128 0xc
 2509 02bd C2020000 		.4byte	0x2c2
 2510 02c1 00       		.byte	0
 2511 02c2 0D       		.uleb128 0xd
 2512 02c3 04       		.byte	0x4
 2513 02c4 03       		.uleb128 0x3
 2514 02c5 8E030000 		.4byte	.LASF54
 2515 02c9 0C       		.byte	0xc
 2516 02ca 61       		.byte	0x61
 2517 02cb CF020000 		.4byte	0x2cf
 2518 02cf 0A       		.uleb128 0xa
 2519 02d0 9D010000 		.4byte	.LASF55
 2520 02d4 14       		.byte	0x14
 2521 02d5 03       		.byte	0x3
 2522 02d6 6B01     		.2byte	0x16b
 2523 02d8 1E030000 		.4byte	0x31e
 2524 02dc 08       		.uleb128 0x8
 2525 02dd 16060000 		.4byte	.LASF56
 2526 02e1 03       		.byte	0x3
 2527 02e2 6C01     		.2byte	0x16c
 2528 02e4 65050000 		.4byte	0x565
 2529 02e8 00       		.byte	0
ARM GAS  /tmp/ccI5eHJN.s 			page 103


 2530 02e9 08       		.uleb128 0x8
 2531 02ea 8B060000 		.4byte	.LASF57
 2532 02ee 03       		.byte	0x3
 2533 02ef 6D01     		.2byte	0x16d
 2534 02f1 65050000 		.4byte	0x565
 2535 02f5 04       		.byte	0x4
 2536 02f6 08       		.uleb128 0x8
 2537 02f7 C2020000 		.4byte	.LASF58
 2538 02fb 03       		.byte	0x3
 2539 02fc 6E01     		.2byte	0x16e
 2540 02fe 17010000 		.4byte	0x117
 2541 0302 08       		.byte	0x8
 2542 0303 08       		.uleb128 0x8
 2543 0304 77060000 		.4byte	.LASF59
 2544 0308 03       		.byte	0x3
 2545 0309 6F01     		.2byte	0x16f
 2546 030b A6020000 		.4byte	0x2a6
 2547 030f 0C       		.byte	0xc
 2548 0310 08       		.uleb128 0x8
 2549 0311 81010000 		.4byte	.LASF60
 2550 0315 03       		.byte	0x3
 2551 0316 7101     		.2byte	0x171
 2552 0318 C2020000 		.4byte	0x2c2
 2553 031c 10       		.byte	0x10
 2554 031d 00       		.byte	0
 2555 031e 03       		.uleb128 0x3
 2556 031f EE050000 		.4byte	.LASF61
 2557 0323 0C       		.byte	0xc
 2558 0324 66       		.byte	0x66
 2559 0325 29030000 		.4byte	0x329
 2560 0329 0A       		.uleb128 0xa
 2561 032a 1F020000 		.4byte	.LASF62
 2562 032e 0C       		.byte	0xc
 2563 032f 03       		.byte	0x3
 2564 0330 7B01     		.2byte	0x17b
 2565 0332 6B030000 		.4byte	0x36b
 2566 0336 08       		.uleb128 0x8
 2567 0337 16060000 		.4byte	.LASF56
 2568 033b 03       		.byte	0x3
 2569 033c 7C01     		.2byte	0x17c
 2570 033e 65050000 		.4byte	0x565
 2571 0342 00       		.byte	0
 2572 0343 08       		.uleb128 0x8
 2573 0344 8B060000 		.4byte	.LASF57
 2574 0348 03       		.byte	0x3
 2575 0349 7E01     		.2byte	0x17e
 2576 034b 65050000 		.4byte	0x565
 2577 034f 04       		.byte	0x4
 2578 0350 08       		.uleb128 0x8
 2579 0351 C2020000 		.4byte	.LASF58
 2580 0355 03       		.byte	0x3
 2581 0356 8001     		.2byte	0x180
 2582 0358 17010000 		.4byte	0x117
 2583 035c 08       		.byte	0x8
 2584 035d 08       		.uleb128 0x8
 2585 035e DE020000 		.4byte	.LASF63
 2586 0362 03       		.byte	0x3
ARM GAS  /tmp/ccI5eHJN.s 			page 104


 2587 0363 8801     		.2byte	0x188
 2588 0365 17010000 		.4byte	0x117
 2589 0369 0A       		.byte	0xa
 2590 036a 00       		.byte	0
 2591 036b 03       		.uleb128 0x3
 2592 036c 42030000 		.4byte	.LASF64
 2593 0370 0C       		.byte	0xc
 2594 0371 6B       		.byte	0x6b
 2595 0372 76030000 		.4byte	0x376
 2596 0376 0A       		.uleb128 0xa
 2597 0377 52010000 		.4byte	.LASF65
 2598 037b 04       		.byte	0x4
 2599 037c 03       		.byte	0x3
 2600 037d A201     		.2byte	0x1a2
 2601 037f 91030000 		.4byte	0x391
 2602 0383 08       		.uleb128 0x8
 2603 0384 7E040000 		.4byte	.LASF66
 2604 0388 03       		.byte	0x3
 2605 0389 AA01     		.2byte	0x1aa
 2606 038b 6B050000 		.4byte	0x56b
 2607 038f 00       		.byte	0
 2608 0390 00       		.byte	0
 2609 0391 03       		.uleb128 0x3
 2610 0392 1E060000 		.4byte	.LASF67
 2611 0396 0C       		.byte	0xc
 2612 0397 70       		.byte	0x70
 2613 0398 9C030000 		.4byte	0x39c
 2614 039c 0E       		.uleb128 0xe
 2615 039d 0F050000 		.4byte	.LASF68
 2616 03a1 2801     		.2byte	0x128
 2617 03a3 03       		.byte	0x3
 2618 03a4 C201     		.2byte	0x1c2
 2619 03a6 EC030000 		.4byte	0x3ec
 2620 03aa 08       		.uleb128 0x8
 2621 03ab 3C050000 		.4byte	.LASF69
 2622 03af 03       		.byte	0x3
 2623 03b0 C601     		.2byte	0x1c6
 2624 03b2 3F020000 		.4byte	0x23f
 2625 03b6 00       		.byte	0
 2626 03b7 08       		.uleb128 0x8
 2627 03b8 C2000000 		.4byte	.LASF70
 2628 03bc 03       		.byte	0x3
 2629 03bd CA01     		.2byte	0x1ca
 2630 03bf 1E030000 		.4byte	0x31e
 2631 03c3 1C       		.byte	0x1c
 2632 03c4 07       		.uleb128 0x7
 2633 03c5 64626700 		.ascii	"dbg\000"
 2634 03c9 03       		.byte	0x3
 2635 03ca CE01     		.2byte	0x1ce
 2636 03cc 6B030000 		.4byte	0x36b
 2637 03d0 28       		.byte	0x28
 2638 03d1 08       		.uleb128 0x8
 2639 03d2 AA040000 		.4byte	.LASF71
 2640 03d6 03       		.byte	0x3
 2641 03d7 D201     		.2byte	0x1d2
 2642 03d9 22010000 		.4byte	0x122
 2643 03dd 2C       		.byte	0x2c
ARM GAS  /tmp/ccI5eHJN.s 			page 105


 2644 03de 08       		.uleb128 0x8
 2645 03df F8000000 		.4byte	.LASF72
 2646 03e3 03       		.byte	0x3
 2647 03e4 E301     		.2byte	0x1e3
 2648 03e6 70050000 		.4byte	0x570
 2649 03ea 60       		.byte	0x60
 2650 03eb 00       		.byte	0
 2651 03ec 04       		.uleb128 0x4
 2652 03ed 04       		.byte	0x4
 2653 03ee 07       		.byte	0x7
 2654 03ef 63050000 		.4byte	.LASF73
 2655 03f3 03       		.uleb128 0x3
 2656 03f4 36000000 		.4byte	.LASF74
 2657 03f8 0D       		.byte	0xd
 2658 03f9 65       		.byte	0x65
 2659 03fa C2020000 		.4byte	0x2c2
 2660 03fe 03       		.uleb128 0x3
 2661 03ff 6C060000 		.4byte	.LASF75
 2662 0403 0D       		.byte	0xd
 2663 0404 6D       		.byte	0x6d
 2664 0405 D5000000 		.4byte	0xd5
 2665 0409 05       		.uleb128 0x5
 2666 040a 7E030000 		.4byte	.LASF76
 2667 040e 04       		.byte	0x4
 2668 040f 0D       		.byte	0xd
 2669 0410 89       		.byte	0x89
 2670 0411 22040000 		.4byte	0x422
 2671 0415 0F       		.uleb128 0xf
 2672 0416 72313300 		.ascii	"r13\000"
 2673 041a 0D       		.byte	0xd
 2674 041b 8A       		.byte	0x8a
 2675 041c 94040000 		.4byte	0x494
 2676 0420 00       		.byte	0
 2677 0421 00       		.byte	0
 2678 0422 05       		.uleb128 0x5
 2679 0423 F6040000 		.4byte	.LASF77
 2680 0427 24       		.byte	0x24
 2681 0428 01       		.byte	0x1
 2682 0429 A4       		.byte	0xa4
 2683 042a 94040000 		.4byte	0x494
 2684 042e 0F       		.uleb128 0xf
 2685 042f 723800   		.ascii	"r8\000"
 2686 0432 01       		.byte	0x1
 2687 0433 A5       		.byte	0xa5
 2688 0434 F3030000 		.4byte	0x3f3
 2689 0438 00       		.byte	0
 2690 0439 0F       		.uleb128 0xf
 2691 043a 723900   		.ascii	"r9\000"
 2692 043d 01       		.byte	0x1
 2693 043e A6       		.byte	0xa6
 2694 043f F3030000 		.4byte	0x3f3
 2695 0443 04       		.byte	0x4
 2696 0444 0F       		.uleb128 0xf
 2697 0445 72313000 		.ascii	"r10\000"
 2698 0449 01       		.byte	0x1
 2699 044a A7       		.byte	0xa7
 2700 044b F3030000 		.4byte	0x3f3
ARM GAS  /tmp/ccI5eHJN.s 			page 106


 2701 044f 08       		.byte	0x8
 2702 0450 0F       		.uleb128 0xf
 2703 0451 72313100 		.ascii	"r11\000"
 2704 0455 01       		.byte	0x1
 2705 0456 A8       		.byte	0xa8
 2706 0457 F3030000 		.4byte	0x3f3
 2707 045b 0C       		.byte	0xc
 2708 045c 0F       		.uleb128 0xf
 2709 045d 723400   		.ascii	"r4\000"
 2710 0460 01       		.byte	0x1
 2711 0461 A9       		.byte	0xa9
 2712 0462 F3030000 		.4byte	0x3f3
 2713 0466 10       		.byte	0x10
 2714 0467 0F       		.uleb128 0xf
 2715 0468 723500   		.ascii	"r5\000"
 2716 046b 01       		.byte	0x1
 2717 046c AA       		.byte	0xaa
 2718 046d F3030000 		.4byte	0x3f3
 2719 0471 14       		.byte	0x14
 2720 0472 0F       		.uleb128 0xf
 2721 0473 723600   		.ascii	"r6\000"
 2722 0476 01       		.byte	0x1
 2723 0477 AB       		.byte	0xab
 2724 0478 F3030000 		.4byte	0x3f3
 2725 047c 18       		.byte	0x18
 2726 047d 0F       		.uleb128 0xf
 2727 047e 723700   		.ascii	"r7\000"
 2728 0481 01       		.byte	0x1
 2729 0482 AC       		.byte	0xac
 2730 0483 F3030000 		.4byte	0x3f3
 2731 0487 1C       		.byte	0x1c
 2732 0488 0F       		.uleb128 0xf
 2733 0489 6C7200   		.ascii	"lr\000"
 2734 048c 01       		.byte	0x1
 2735 048d AD       		.byte	0xad
 2736 048e F3030000 		.4byte	0x3f3
 2737 0492 20       		.byte	0x20
 2738 0493 00       		.byte	0
 2739 0494 09       		.uleb128 0x9
 2740 0495 04       		.byte	0x4
 2741 0496 22040000 		.4byte	0x422
 2742 049a 10       		.uleb128 0x10
 2743 049b 04       		.byte	0x4
 2744 049c 03       		.byte	0x3
 2745 049d FA       		.byte	0xfa
 2746 049e EB040000 		.4byte	0x4eb
 2747 04a2 11       		.uleb128 0x11
 2748 04a3 54020000 		.4byte	.LASF78
 2749 04a7 03       		.byte	0x3
 2750 04a8 0101     		.2byte	0x101
 2751 04aa 01010000 		.4byte	0x101
 2752 04ae 11       		.uleb128 0x11
 2753 04af AA060000 		.4byte	.LASF79
 2754 04b3 03       		.byte	0x3
 2755 04b4 0801     		.2byte	0x108
 2756 04b6 01010000 		.4byte	0x101
 2757 04ba 11       		.uleb128 0x11
ARM GAS  /tmp/ccI5eHJN.s 			page 107


 2758 04bb B1000000 		.4byte	.LASF80
 2759 04bf 03       		.byte	0x3
 2760 04c0 0F01     		.2byte	0x10f
 2761 04c2 C2020000 		.4byte	0x2c2
 2762 04c6 11       		.uleb128 0x11
 2763 04c7 2A060000 		.4byte	.LASF81
 2764 04cb 03       		.byte	0x3
 2765 04cc 1601     		.2byte	0x116
 2766 04ce EB040000 		.4byte	0x4eb
 2767 04d2 11       		.uleb128 0x11
 2768 04d3 BB050000 		.4byte	.LASF82
 2769 04d7 03       		.byte	0x3
 2770 04d8 1E01     		.2byte	0x11e
 2771 04da 16050000 		.4byte	0x516
 2772 04de 11       		.uleb128 0x11
 2773 04df 2A000000 		.4byte	.LASF83
 2774 04e3 03       		.byte	0x3
 2775 04e4 2701     		.2byte	0x127
 2776 04e6 4D050000 		.4byte	0x54d
 2777 04ea 00       		.byte	0
 2778 04eb 09       		.uleb128 0x9
 2779 04ec 04       		.byte	0x4
 2780 04ed DA010000 		.4byte	0x1da
 2781 04f1 05       		.uleb128 0x5
 2782 04f2 88010000 		.4byte	.LASF84
 2783 04f6 0C       		.byte	0xc
 2784 04f7 0E       		.byte	0xe
 2785 04f8 34       		.byte	0x34
 2786 04f9 16050000 		.4byte	0x516
 2787 04fd 06       		.uleb128 0x6
 2788 04fe 5D000000 		.4byte	.LASF85
 2789 0502 0E       		.byte	0xe
 2790 0503 35       		.byte	0x35
 2791 0504 0F020000 		.4byte	0x20f
 2792 0508 00       		.byte	0
 2793 0509 06       		.uleb128 0x6
 2794 050a 4C010000 		.4byte	.LASF86
 2795 050e 0E       		.byte	0xe
 2796 050f 37       		.byte	0x37
 2797 0510 0C010000 		.4byte	0x10c
 2798 0514 08       		.byte	0x8
 2799 0515 00       		.byte	0
 2800 0516 09       		.uleb128 0x9
 2801 0517 04       		.byte	0x4
 2802 0518 F1040000 		.4byte	0x4f1
 2803 051c 05       		.uleb128 0x5
 2804 051d 78020000 		.4byte	.LASF87
 2805 0521 10       		.byte	0x10
 2806 0522 0F       		.byte	0xf
 2807 0523 39       		.byte	0x39
 2808 0524 4D050000 		.4byte	0x54d
 2809 0528 06       		.uleb128 0x6
 2810 0529 E5040000 		.4byte	.LASF88
 2811 052d 0F       		.byte	0xf
 2812 052e 3A       		.byte	0x3a
 2813 052f 0F020000 		.4byte	0x20f
 2814 0533 00       		.byte	0
ARM GAS  /tmp/ccI5eHJN.s 			page 108


 2815 0534 06       		.uleb128 0x6
 2816 0535 55000000 		.4byte	.LASF89
 2817 0539 0F       		.byte	0xf
 2818 053a 3C       		.byte	0x3c
 2819 053b E5010000 		.4byte	0x1e5
 2820 053f 08       		.byte	0x8
 2821 0540 06       		.uleb128 0x6
 2822 0541 30060000 		.4byte	.LASF90
 2823 0545 0F       		.byte	0xf
 2824 0546 3E       		.byte	0x3e
 2825 0547 8B050000 		.4byte	0x58b
 2826 054b 0C       		.byte	0xc
 2827 054c 00       		.byte	0
 2828 054d 09       		.uleb128 0x9
 2829 054e 04       		.byte	0x4
 2830 054f 1C050000 		.4byte	0x51c
 2831 0553 09       		.uleb128 0x9
 2832 0554 04       		.byte	0x4
 2833 0555 59050000 		.4byte	0x559
 2834 0559 12       		.uleb128 0x12
 2835 055a 5E050000 		.4byte	0x55e
 2836 055e 04       		.uleb128 0x4
 2837 055f 01       		.byte	0x1
 2838 0560 08       		.byte	0x8
 2839 0561 31000000 		.4byte	.LASF91
 2840 0565 09       		.uleb128 0x9
 2841 0566 04       		.byte	0x4
 2842 0567 C4020000 		.4byte	0x2c4
 2843 056b 13       		.uleb128 0x13
 2844 056c 53050000 		.4byte	0x553
 2845 0570 14       		.uleb128 0x14
 2846 0571 FE030000 		.4byte	0x3fe
 2847 0575 80050000 		.4byte	0x580
 2848 0579 15       		.uleb128 0x15
 2849 057a EC030000 		.4byte	0x3ec
 2850 057e 18       		.byte	0x18
 2851 057f 00       		.byte	0
 2852 0580 03       		.uleb128 0x3
 2853 0581 C2050000 		.4byte	.LASF92
 2854 0585 0F       		.byte	0xf
 2855 0586 34       		.byte	0x34
 2856 0587 1C050000 		.4byte	0x51c
 2857 058b 09       		.uleb128 0x9
 2858 058c 04       		.byte	0x4
 2859 058d 80050000 		.4byte	0x580
 2860 0591 09       		.uleb128 0x9
 2861 0592 04       		.byte	0x4
 2862 0593 97050000 		.4byte	0x597
 2863 0597 12       		.uleb128 0x12
 2864 0598 A9000000 		.4byte	0xa9
 2865 059c 09       		.uleb128 0x9
 2866 059d 04       		.byte	0x4
 2867 059e A9000000 		.4byte	0xa9
 2868 05a2 04       		.uleb128 0x4
 2869 05a3 01       		.byte	0x1
 2870 05a4 02       		.byte	0x2
 2871 05a5 69020000 		.4byte	.LASF93
ARM GAS  /tmp/ccI5eHJN.s 			page 109


 2872 05a9 03       		.uleb128 0x3
 2873 05aa 65000000 		.4byte	.LASF94
 2874 05ae 10       		.byte	0x10
 2875 05af 2F       		.byte	0x2f
 2876 05b0 B4050000 		.4byte	0x5b4
 2877 05b4 05       		.uleb128 0x5
 2878 05b5 43060000 		.4byte	.LASF95
 2879 05b9 24       		.byte	0x24
 2880 05ba 10       		.byte	0x10
 2881 05bb 40       		.byte	0x40
 2882 05bc 21060000 		.4byte	0x621
 2883 05c0 06       		.uleb128 0x6
 2884 05c1 6B010000 		.4byte	.LASF96
 2885 05c5 10       		.byte	0x10
 2886 05c6 41       		.byte	0x41
 2887 05c7 0F020000 		.4byte	0x20f
 2888 05cb 00       		.byte	0
 2889 05cc 06       		.uleb128 0x6
 2890 05cd 4C050000 		.4byte	.LASF97
 2891 05d1 10       		.byte	0x10
 2892 05d2 42       		.byte	0x42
 2893 05d3 43060000 		.4byte	0x643
 2894 05d7 08       		.byte	0x8
 2895 05d8 06       		.uleb128 0x6
 2896 05d9 5F030000 		.4byte	.LASF98
 2897 05dd 10       		.byte	0x10
 2898 05de 43       		.byte	0x43
 2899 05df 9C050000 		.4byte	0x59c
 2900 05e3 0C       		.byte	0xc
 2901 05e4 06       		.uleb128 0x6
 2902 05e5 56050000 		.4byte	.LASF99
 2903 05e9 10       		.byte	0x10
 2904 05ea 44       		.byte	0x44
 2905 05eb 9C050000 		.4byte	0x59c
 2906 05ef 10       		.byte	0x10
 2907 05f0 06       		.uleb128 0x6
 2908 05f1 EA020000 		.4byte	.LASF100
 2909 05f5 10       		.byte	0x10
 2910 05f6 46       		.byte	0x46
 2911 05f7 9C050000 		.4byte	0x59c
 2912 05fb 14       		.byte	0x14
 2913 05fc 06       		.uleb128 0x6
 2914 05fd 8C000000 		.4byte	.LASF101
 2915 0601 10       		.byte	0x10
 2916 0602 47       		.byte	0x47
 2917 0603 9C050000 		.4byte	0x59c
 2918 0607 18       		.byte	0x18
 2919 0608 06       		.uleb128 0x6
 2920 0609 99020000 		.4byte	.LASF102
 2921 060d 10       		.byte	0x10
 2922 060e 48       		.byte	0x48
 2923 060f 21060000 		.4byte	0x621
 2924 0613 1C       		.byte	0x1c
 2925 0614 06       		.uleb128 0x6
 2926 0615 C9000000 		.4byte	.LASF103
 2927 0619 10       		.byte	0x10
 2928 061a 49       		.byte	0x49
ARM GAS  /tmp/ccI5eHJN.s 			page 110


 2929 061b C2020000 		.4byte	0x2c2
 2930 061f 20       		.byte	0x20
 2931 0620 00       		.byte	0
 2932 0621 03       		.uleb128 0x3
 2933 0622 9E000000 		.4byte	.LASF104
 2934 0626 10       		.byte	0x10
 2935 0627 36       		.byte	0x36
 2936 0628 2C060000 		.4byte	0x62c
 2937 062c 09       		.uleb128 0x9
 2938 062d 04       		.byte	0x4
 2939 062e 32060000 		.4byte	0x632
 2940 0632 0B       		.uleb128 0xb
 2941 0633 3D060000 		.4byte	0x63d
 2942 0637 0C       		.uleb128 0xc
 2943 0638 3D060000 		.4byte	0x63d
 2944 063c 00       		.byte	0
 2945 063d 09       		.uleb128 0x9
 2946 063e 04       		.byte	0x4
 2947 063f A9050000 		.4byte	0x5a9
 2948 0643 13       		.uleb128 0x13
 2949 0644 28000000 		.4byte	0x28
 2950 0648 03       		.uleb128 0x3
 2951 0649 20030000 		.4byte	.LASF105
 2952 064d 10       		.byte	0x10
 2953 064e 7F       		.byte	0x7f
 2954 064f A9050000 		.4byte	0x5a9
 2955 0653 03       		.uleb128 0x3
 2956 0654 9E030000 		.4byte	.LASF106
 2957 0658 10       		.byte	0x10
 2958 0659 F1       		.byte	0xf1
 2959 065a A9050000 		.4byte	0x5a9
 2960 065e 16       		.uleb128 0x16
 2961 065f 5B020000 		.4byte	.LASF107
 2962 0663 02       		.byte	0x2
 2963 0664 5601     		.2byte	0x156
 2964 0666 03       		.byte	0x3
 2965 0667 16       		.uleb128 0x16
 2966 0668 02050000 		.4byte	.LASF108
 2967 066c 02       		.byte	0x2
 2968 066d 4B01     		.2byte	0x14b
 2969 066f 03       		.byte	0x3
 2970 0670 17       		.uleb128 0x17
 2971 0671 B8000000 		.4byte	.LASF109
 2972 0675 01       		.byte	0x1
 2973 0676 4A01     		.2byte	0x14a
 2974 0678 00000000 		.4byte	.LFB38
 2975 067c 04000000 		.4byte	.LFE38-.LFB38
 2976 0680 01       		.uleb128 0x1
 2977 0681 9C       		.byte	0x9c
 2978 0682 97060000 		.4byte	0x697
 2979 0686 18       		.uleb128 0x18
 2980 0687 5E060000 		.4byte	0x65e
 2981 068b 00000000 		.4byte	.LBB6
 2982 068f 02000000 		.4byte	.LBE6-.LBB6
 2983 0693 01       		.byte	0x1
 2984 0694 4C01     		.2byte	0x14c
 2985 0696 00       		.byte	0
ARM GAS  /tmp/ccI5eHJN.s 			page 111


 2986 0697 17       		.uleb128 0x17
 2987 0698 7F060000 		.4byte	.LASF110
 2988 069c 01       		.byte	0x1
 2989 069d 5301     		.2byte	0x153
 2990 069f 00000000 		.4byte	.LFB39
 2991 06a3 04000000 		.4byte	.LFE39-.LFB39
 2992 06a7 01       		.uleb128 0x1
 2993 06a8 9C       		.byte	0x9c
 2994 06a9 BE060000 		.4byte	0x6be
 2995 06ad 18       		.uleb128 0x18
 2996 06ae 67060000 		.4byte	0x667
 2997 06b2 00000000 		.4byte	.LBB8
 2998 06b6 02000000 		.4byte	.LBE8-.LBB8
 2999 06ba 01       		.byte	0x1
 3000 06bb 5501     		.2byte	0x155
 3001 06bd 00       		.byte	0
 3002 06be 17       		.uleb128 0x17
 3003 06bf CA050000 		.4byte	.LASF111
 3004 06c3 03       		.byte	0x3
 3005 06c4 5A02     		.2byte	0x25a
 3006 06c6 00000000 		.4byte	.LFB60
 3007 06ca 14000000 		.4byte	.LFE60-.LFB60
 3008 06ce 01       		.uleb128 0x1
 3009 06cf 9C       		.byte	0x9c
 3010 06d0 E4060000 		.4byte	0x6e4
 3011 06d4 19       		.uleb128 0x19
 3012 06d5 74717000 		.ascii	"tqp\000"
 3013 06d9 03       		.byte	0x3
 3014 06da 5A02     		.2byte	0x25a
 3015 06dc E4060000 		.4byte	0x6e4
 3016 06e0 02       		.uleb128 0x2
 3017 06e1 91       		.byte	0x91
 3018 06e2 7C       		.sleb128 -4
 3019 06e3 00       		.byte	0
 3020 06e4 09       		.uleb128 0x9
 3021 06e5 04       		.byte	0x4
 3022 06e6 0F020000 		.4byte	0x20f
 3023 06ea 1A       		.uleb128 0x1a
 3024 06eb A2020000 		.4byte	.LASF114
 3025 06ef 04       		.byte	0x4
 3026 06f0 5A01     		.2byte	0x15a
 3027 06f2 00000000 		.4byte	.LFB70
 3028 06f6 08000000 		.4byte	.LFE70-.LFB70
 3029 06fa 01       		.uleb128 0x1
 3030 06fb 9C       		.byte	0x9c
 3031 06fc 1B       		.uleb128 0x1b
 3032 06fd DB010000 		.4byte	.LASF112
 3033 0701 04       		.byte	0x4
 3034 0702 6601     		.2byte	0x166
 3035 0704 00000000 		.4byte	.LFB71
 3036 0708 08000000 		.4byte	.LFE71-.LFB71
 3037 070c 01       		.uleb128 0x1
 3038 070d 9C       		.byte	0x9c
 3039 070e 1C070000 		.4byte	0x71c
 3040 0712 1C       		.uleb128 0x1c
 3041 0713 AD030000 		.4byte	.LASF130
 3042 0717 2C070000 		.4byte	0x72c
ARM GAS  /tmp/ccI5eHJN.s 			page 112


 3043 071b 00       		.byte	0
 3044 071c 14       		.uleb128 0x14
 3045 071d 5E050000 		.4byte	0x55e
 3046 0721 2C070000 		.4byte	0x72c
 3047 0725 15       		.uleb128 0x15
 3048 0726 EC030000 		.4byte	0x3ec
 3049 072a 0B       		.byte	0xb
 3050 072b 00       		.byte	0
 3051 072c 12       		.uleb128 0x12
 3052 072d 1C070000 		.4byte	0x71c
 3053 0731 1B       		.uleb128 0x1b
 3054 0732 07010000 		.4byte	.LASF113
 3055 0736 05       		.byte	0x5
 3056 0737 1601     		.2byte	0x116
 3057 0739 00000000 		.4byte	.LFB98
 3058 073d 12000000 		.4byte	.LFE98-.LFB98
 3059 0741 01       		.uleb128 0x1
 3060 0742 9C       		.byte	0x9c
 3061 0743 57070000 		.4byte	0x757
 3062 0747 19       		.uleb128 0x19
 3063 0748 74717000 		.ascii	"tqp\000"
 3064 074c 05       		.byte	0x5
 3065 074d 1601     		.2byte	0x116
 3066 074f E4060000 		.4byte	0x6e4
 3067 0753 02       		.uleb128 0x2
 3068 0754 91       		.byte	0x91
 3069 0755 74       		.sleb128 -12
 3070 0756 00       		.byte	0
 3071 0757 1A       		.uleb128 0x1a
 3072 0758 8B050000 		.4byte	.LASF115
 3073 075c 06       		.byte	0x6
 3074 075d EB01     		.2byte	0x1eb
 3075 075f 00000000 		.4byte	.LFB123
 3076 0763 08000000 		.4byte	.LFE123-.LFB123
 3077 0767 01       		.uleb128 0x1
 3078 0768 9C       		.byte	0x9c
 3079 0769 1A       		.uleb128 0x1a
 3080 076a E7010000 		.4byte	.LASF116
 3081 076e 06       		.byte	0x6
 3082 076f F601     		.2byte	0x1f6
 3083 0771 00000000 		.4byte	.LFB124
 3084 0775 08000000 		.4byte	.LFE124-.LFB124
 3085 0779 01       		.uleb128 0x1
 3086 077a 9C       		.byte	0x9c
 3087 077b 1B       		.uleb128 0x1b
 3088 077c D0000000 		.4byte	.LASF117
 3089 0780 06       		.byte	0x6
 3090 0781 F102     		.2byte	0x2f1
 3091 0783 00000000 		.4byte	.LFB139
 3092 0787 12000000 		.4byte	.LFE139-.LFB139
 3093 078b 01       		.uleb128 0x1
 3094 078c 9C       		.byte	0x9c
 3095 078d A1070000 		.4byte	0x7a1
 3096 0791 19       		.uleb128 0x19
 3097 0792 74717000 		.ascii	"tqp\000"
 3098 0796 06       		.byte	0x6
 3099 0797 F102     		.2byte	0x2f1
ARM GAS  /tmp/ccI5eHJN.s 			page 113


 3100 0799 E4060000 		.4byte	0x6e4
 3101 079d 02       		.uleb128 0x2
 3102 079e 91       		.byte	0x91
 3103 079f 74       		.sleb128 -12
 3104 07a0 00       		.byte	0
 3105 07a1 1D       		.uleb128 0x1d
 3106 07a2 90040000 		.4byte	.LASF141
 3107 07a6 06       		.byte	0x6
 3108 07a7 0D03     		.2byte	0x30d
 3109 07a9 01010000 		.4byte	0x101
 3110 07ad 00000000 		.4byte	.LFB140
 3111 07b1 26000000 		.4byte	.LFE140-.LFB140
 3112 07b5 01       		.uleb128 0x1
 3113 07b6 9C       		.byte	0x9c
 3114 07b7 DA070000 		.4byte	0x7da
 3115 07bb 19       		.uleb128 0x19
 3116 07bc 74717000 		.ascii	"tqp\000"
 3117 07c0 06       		.byte	0x6
 3118 07c1 0D03     		.2byte	0x30d
 3119 07c3 E4060000 		.4byte	0x6e4
 3120 07c7 02       		.uleb128 0x2
 3121 07c8 91       		.byte	0x91
 3122 07c9 74       		.sleb128 -12
 3123 07ca 1E       		.uleb128 0x1e
 3124 07cb AE010000 		.4byte	.LASF118
 3125 07cf 06       		.byte	0x6
 3126 07d0 0E03     		.2byte	0x30e
 3127 07d2 17010000 		.4byte	0x117
 3128 07d6 02       		.uleb128 0x2
 3129 07d7 91       		.byte	0x91
 3130 07d8 72       		.sleb128 -14
 3131 07d9 00       		.byte	0
 3132 07da 1B       		.uleb128 0x1b
 3133 07db 93060000 		.4byte	.LASF119
 3134 07df 06       		.byte	0x6
 3135 07e0 1B03     		.2byte	0x31b
 3136 07e2 00000000 		.4byte	.LFB141
 3137 07e6 18000000 		.4byte	.LFE141-.LFB141
 3138 07ea 01       		.uleb128 0x1
 3139 07eb 9C       		.byte	0x9c
 3140 07ec 0F080000 		.4byte	0x80f
 3141 07f0 19       		.uleb128 0x19
 3142 07f1 74717000 		.ascii	"tqp\000"
 3143 07f5 06       		.byte	0x6
 3144 07f6 1B03     		.2byte	0x31b
 3145 07f8 E4060000 		.4byte	0x6e4
 3146 07fc 02       		.uleb128 0x2
 3147 07fd 91       		.byte	0x91
 3148 07fe 74       		.sleb128 -12
 3149 07ff 19       		.uleb128 0x19
 3150 0800 6D736700 		.ascii	"msg\000"
 3151 0804 06       		.byte	0x6
 3152 0805 1B03     		.2byte	0x31b
 3153 0807 01010000 		.4byte	0x101
 3154 080b 02       		.uleb128 0x2
 3155 080c 91       		.byte	0x91
 3156 080d 70       		.sleb128 -16
ARM GAS  /tmp/ccI5eHJN.s 			page 114


 3157 080e 00       		.byte	0
 3158 080f 1B       		.uleb128 0x1b
 3159 0810 2D010000 		.4byte	.LASF120
 3160 0814 06       		.byte	0x6
 3161 0815 2803     		.2byte	0x328
 3162 0817 00000000 		.4byte	.LFB142
 3163 081b 18000000 		.4byte	.LFE142-.LFB142
 3164 081f 01       		.uleb128 0x1
 3165 0820 9C       		.byte	0x9c
 3166 0821 44080000 		.4byte	0x844
 3167 0825 19       		.uleb128 0x19
 3168 0826 74717000 		.ascii	"tqp\000"
 3169 082a 06       		.byte	0x6
 3170 082b 2803     		.2byte	0x328
 3171 082d E4060000 		.4byte	0x6e4
 3172 0831 02       		.uleb128 0x2
 3173 0832 91       		.byte	0x91
 3174 0833 74       		.sleb128 -12
 3175 0834 19       		.uleb128 0x19
 3176 0835 6D736700 		.ascii	"msg\000"
 3177 0839 06       		.byte	0x6
 3178 083a 2803     		.2byte	0x328
 3179 083c 01010000 		.4byte	0x101
 3180 0840 02       		.uleb128 0x2
 3181 0841 91       		.byte	0x91
 3182 0842 70       		.sleb128 -16
 3183 0843 00       		.byte	0
 3184 0844 1F       		.uleb128 0x1f
 3185 0845 8C020000 		.4byte	.LASF124
 3186 0849 07       		.byte	0x7
 3187 084a 3A       		.byte	0x3a
 3188 084b 00000000 		.4byte	.LFB149
 3189 084f 46000000 		.4byte	.LFE149-.LFB149
 3190 0853 01       		.uleb128 0x1
 3191 0854 9C       		.byte	0x9c
 3192 0855 9F080000 		.4byte	0x89f
 3193 0859 20       		.uleb128 0x20
 3194 085a 69717000 		.ascii	"iqp\000"
 3195 085e 07       		.byte	0x7
 3196 085f 3A       		.byte	0x3a
 3197 0860 9F080000 		.4byte	0x89f
 3198 0864 02       		.uleb128 0x2
 3199 0865 91       		.byte	0x91
 3200 0866 74       		.sleb128 -12
 3201 0867 20       		.uleb128 0x20
 3202 0868 627000   		.ascii	"bp\000"
 3203 086b 07       		.byte	0x7
 3204 086c 3A       		.byte	0x3a
 3205 086d 9C050000 		.4byte	0x59c
 3206 0871 02       		.uleb128 0x2
 3207 0872 91       		.byte	0x91
 3208 0873 70       		.sleb128 -16
 3209 0874 21       		.uleb128 0x21
 3210 0875 75010000 		.4byte	.LASF121
 3211 0879 07       		.byte	0x7
 3212 087a 3A       		.byte	0x3a
 3213 087b 28000000 		.4byte	0x28
ARM GAS  /tmp/ccI5eHJN.s 			page 115


 3214 087f 02       		.uleb128 0x2
 3215 0880 91       		.byte	0x91
 3216 0881 6C       		.sleb128 -20
 3217 0882 21       		.uleb128 0x21
 3218 0883 79040000 		.4byte	.LASF122
 3219 0887 07       		.byte	0x7
 3220 0888 3B       		.byte	0x3b
 3221 0889 21060000 		.4byte	0x621
 3222 088d 02       		.uleb128 0x2
 3223 088e 91       		.byte	0x91
 3224 088f 68       		.sleb128 -24
 3225 0890 21       		.uleb128 0x21
 3226 0891 04060000 		.4byte	.LASF123
 3227 0895 07       		.byte	0x7
 3228 0896 3B       		.byte	0x3b
 3229 0897 C2020000 		.4byte	0x2c2
 3230 089b 02       		.uleb128 0x2
 3231 089c 91       		.byte	0x91
 3232 089d 00       		.sleb128 0
 3233 089e 00       		.byte	0
 3234 089f 09       		.uleb128 0x9
 3235 08a0 04       		.byte	0x4
 3236 08a1 48060000 		.4byte	0x648
 3237 08a5 1F       		.uleb128 0x1f
 3238 08a6 A8000000 		.4byte	.LASF125
 3239 08aa 07       		.byte	0x7
 3240 08ab 52       		.byte	0x52
 3241 08ac 00000000 		.4byte	.LFB150
 3242 08b0 2E000000 		.4byte	.LFE150-.LFB150
 3243 08b4 01       		.uleb128 0x1
 3244 08b5 9C       		.byte	0x9c
 3245 08b6 C9080000 		.4byte	0x8c9
 3246 08ba 20       		.uleb128 0x20
 3247 08bb 69717000 		.ascii	"iqp\000"
 3248 08bf 07       		.byte	0x7
 3249 08c0 52       		.byte	0x52
 3250 08c1 9F080000 		.4byte	0x89f
 3251 08c5 02       		.uleb128 0x2
 3252 08c6 91       		.byte	0x91
 3253 08c7 74       		.sleb128 -12
 3254 08c8 00       		.byte	0
 3255 08c9 22       		.uleb128 0x22
 3256 08ca 4C060000 		.4byte	.LASF126
 3257 08ce 07       		.byte	0x7
 3258 08cf 69       		.byte	0x69
 3259 08d0 01010000 		.4byte	0x101
 3260 08d4 00000000 		.4byte	.LFB151
 3261 08d8 7C000000 		.4byte	.LFE151-.LFB151
 3262 08dc 01       		.uleb128 0x1
 3263 08dd 9C       		.byte	0x9c
 3264 08de FD080000 		.4byte	0x8fd
 3265 08e2 20       		.uleb128 0x20
 3266 08e3 69717000 		.ascii	"iqp\000"
 3267 08e7 07       		.byte	0x7
 3268 08e8 69       		.byte	0x69
 3269 08e9 9F080000 		.4byte	0x89f
 3270 08ed 02       		.uleb128 0x2
ARM GAS  /tmp/ccI5eHJN.s 			page 116


 3271 08ee 91       		.byte	0x91
 3272 08ef 74       		.sleb128 -12
 3273 08f0 20       		.uleb128 0x20
 3274 08f1 6200     		.ascii	"b\000"
 3275 08f3 07       		.byte	0x7
 3276 08f4 69       		.byte	0x69
 3277 08f5 A9000000 		.4byte	0xa9
 3278 08f9 02       		.uleb128 0x2
 3279 08fa 91       		.byte	0x91
 3280 08fb 73       		.sleb128 -13
 3281 08fc 00       		.byte	0
 3282 08fd 22       		.uleb128 0x22
 3283 08fe 09060000 		.4byte	.LASF127
 3284 0902 07       		.byte	0x7
 3285 0903 90       		.byte	0x90
 3286 0904 01010000 		.4byte	0x101
 3287 0908 00000000 		.4byte	.LFB152
 3288 090c 92000000 		.4byte	.LFE152-.LFB152
 3289 0910 01       		.uleb128 0x1
 3290 0911 9C       		.byte	0x9c
 3291 0912 57090000 		.4byte	0x957
 3292 0916 20       		.uleb128 0x20
 3293 0917 69717000 		.ascii	"iqp\000"
 3294 091b 07       		.byte	0x7
 3295 091c 90       		.byte	0x90
 3296 091d 9F080000 		.4byte	0x89f
 3297 0921 02       		.uleb128 0x2
 3298 0922 91       		.byte	0x91
 3299 0923 6C       		.sleb128 -20
 3300 0924 21       		.uleb128 0x21
 3301 0925 BE040000 		.4byte	.LASF128
 3302 0929 07       		.byte	0x7
 3303 092a 90       		.byte	0x90
 3304 092b 17010000 		.4byte	0x117
 3305 092f 02       		.uleb128 0x2
 3306 0930 91       		.byte	0x91
 3307 0931 6A       		.sleb128 -22
 3308 0932 23       		.uleb128 0x23
 3309 0933 6200     		.ascii	"b\000"
 3310 0935 07       		.byte	0x7
 3311 0936 91       		.byte	0x91
 3312 0937 A9000000 		.4byte	0xa9
 3313 093b 02       		.uleb128 0x2
 3314 093c 91       		.byte	0x91
 3315 093d 73       		.sleb128 -13
 3316 093e 24       		.uleb128 0x24
 3317 093f 28000000 		.4byte	.LBB10
 3318 0943 22000000 		.4byte	.LBE10-.LBB10
 3319 0947 23       		.uleb128 0x23
 3320 0948 6D736700 		.ascii	"msg\000"
 3321 094c 07       		.byte	0x7
 3322 094d 99       		.byte	0x99
 3323 094e 01010000 		.4byte	0x101
 3324 0952 02       		.uleb128 0x2
 3325 0953 91       		.byte	0x91
 3326 0954 74       		.sleb128 -12
 3327 0955 00       		.byte	0
ARM GAS  /tmp/ccI5eHJN.s 			page 117


 3328 0956 00       		.byte	0
 3329 0957 22       		.uleb128 0x22
 3330 0958 3F020000 		.4byte	.LASF129
 3331 095c 07       		.byte	0x7
 3332 095d C2       		.byte	0xc2
 3333 095e 28000000 		.4byte	0x28
 3334 0962 00000000 		.4byte	.LFB153
 3335 0966 B0000000 		.4byte	.LFE153-.LFB153
 3336 096a 01       		.uleb128 0x1
 3337 096b 9C       		.byte	0x9c
 3338 096c C9090000 		.4byte	0x9c9
 3339 0970 20       		.uleb128 0x20
 3340 0971 69717000 		.ascii	"iqp\000"
 3341 0975 07       		.byte	0x7
 3342 0976 C2       		.byte	0xc2
 3343 0977 9F080000 		.4byte	0x89f
 3344 097b 02       		.uleb128 0x2
 3345 097c 91       		.byte	0x91
 3346 097d 6C       		.sleb128 -20
 3347 097e 20       		.uleb128 0x20
 3348 097f 627000   		.ascii	"bp\000"
 3349 0982 07       		.byte	0x7
 3350 0983 C2       		.byte	0xc2
 3351 0984 9C050000 		.4byte	0x59c
 3352 0988 02       		.uleb128 0x2
 3353 0989 91       		.byte	0x91
 3354 098a 68       		.sleb128 -24
 3355 098b 20       		.uleb128 0x20
 3356 098c 6E00     		.ascii	"n\000"
 3357 098e 07       		.byte	0x7
 3358 098f C3       		.byte	0xc3
 3359 0990 28000000 		.4byte	0x28
 3360 0994 02       		.uleb128 0x2
 3361 0995 91       		.byte	0x91
 3362 0996 64       		.sleb128 -28
 3363 0997 21       		.uleb128 0x21
 3364 0998 BE040000 		.4byte	.LASF128
 3365 099c 07       		.byte	0x7
 3366 099d C3       		.byte	0xc3
 3367 099e 17010000 		.4byte	0x117
 3368 09a2 02       		.uleb128 0x2
 3369 09a3 91       		.byte	0x91
 3370 09a4 62       		.sleb128 -30
 3371 09a5 23       		.uleb128 0x23
 3372 09a6 6E667900 		.ascii	"nfy\000"
 3373 09aa 07       		.byte	0x7
 3374 09ab C4       		.byte	0xc4
 3375 09ac 21060000 		.4byte	0x621
 3376 09b0 02       		.uleb128 0x2
 3377 09b1 91       		.byte	0x91
 3378 09b2 70       		.sleb128 -16
 3379 09b3 23       		.uleb128 0x23
 3380 09b4 7200     		.ascii	"r\000"
 3381 09b6 07       		.byte	0x7
 3382 09b7 C5       		.byte	0xc5
 3383 09b8 28000000 		.4byte	0x28
 3384 09bc 02       		.uleb128 0x2
ARM GAS  /tmp/ccI5eHJN.s 			page 118


 3385 09bd 91       		.byte	0x91
 3386 09be 74       		.sleb128 -12
 3387 09bf 1C       		.uleb128 0x1c
 3388 09c0 AD050000 		.4byte	.LASF131
 3389 09c4 D9090000 		.4byte	0x9d9
 3390 09c8 00       		.byte	0
 3391 09c9 14       		.uleb128 0x14
 3392 09ca 5E050000 		.4byte	0x55e
 3393 09ce D9090000 		.4byte	0x9d9
 3394 09d2 15       		.uleb128 0x15
 3395 09d3 EC030000 		.4byte	0x3ec
 3396 09d7 0D       		.byte	0xd
 3397 09d8 00       		.byte	0
 3398 09d9 12       		.uleb128 0x12
 3399 09da C9090000 		.4byte	0x9c9
 3400 09de 1F       		.uleb128 0x1f
 3401 09df 13030000 		.4byte	.LASF132
 3402 09e3 07       		.byte	0x7
 3403 09e4 F5       		.byte	0xf5
 3404 09e5 00000000 		.4byte	.LFB154
 3405 09e9 46000000 		.4byte	.LFE154-.LFB154
 3406 09ed 01       		.uleb128 0x1
 3407 09ee 9C       		.byte	0x9c
 3408 09ef 390A0000 		.4byte	0xa39
 3409 09f3 20       		.uleb128 0x20
 3410 09f4 6F717000 		.ascii	"oqp\000"
 3411 09f8 07       		.byte	0x7
 3412 09f9 F5       		.byte	0xf5
 3413 09fa 390A0000 		.4byte	0xa39
 3414 09fe 02       		.uleb128 0x2
 3415 09ff 91       		.byte	0x91
 3416 0a00 74       		.sleb128 -12
 3417 0a01 20       		.uleb128 0x20
 3418 0a02 627000   		.ascii	"bp\000"
 3419 0a05 07       		.byte	0x7
 3420 0a06 F5       		.byte	0xf5
 3421 0a07 9C050000 		.4byte	0x59c
 3422 0a0b 02       		.uleb128 0x2
 3423 0a0c 91       		.byte	0x91
 3424 0a0d 70       		.sleb128 -16
 3425 0a0e 21       		.uleb128 0x21
 3426 0a0f 75010000 		.4byte	.LASF121
 3427 0a13 07       		.byte	0x7
 3428 0a14 F5       		.byte	0xf5
 3429 0a15 28000000 		.4byte	0x28
 3430 0a19 02       		.uleb128 0x2
 3431 0a1a 91       		.byte	0x91
 3432 0a1b 6C       		.sleb128 -20
 3433 0a1c 21       		.uleb128 0x21
 3434 0a1d 46000000 		.4byte	.LASF133
 3435 0a21 07       		.byte	0x7
 3436 0a22 F6       		.byte	0xf6
 3437 0a23 21060000 		.4byte	0x621
 3438 0a27 02       		.uleb128 0x2
 3439 0a28 91       		.byte	0x91
 3440 0a29 68       		.sleb128 -24
 3441 0a2a 21       		.uleb128 0x21
ARM GAS  /tmp/ccI5eHJN.s 			page 119


 3442 0a2b 04060000 		.4byte	.LASF123
 3443 0a2f 07       		.byte	0x7
 3444 0a30 F6       		.byte	0xf6
 3445 0a31 C2020000 		.4byte	0x2c2
 3446 0a35 02       		.uleb128 0x2
 3447 0a36 91       		.byte	0x91
 3448 0a37 00       		.sleb128 0
 3449 0a38 00       		.byte	0
 3450 0a39 09       		.uleb128 0x9
 3451 0a3a 04       		.byte	0x4
 3452 0a3b 53060000 		.4byte	0x653
 3453 0a3f 25       		.uleb128 0x25
 3454 0a40 6F020000 		.4byte	.LASF134
 3455 0a44 07       		.byte	0x7
 3456 0a45 0D01     		.2byte	0x10d
 3457 0a47 00000000 		.4byte	.LFB155
 3458 0a4b 3A000000 		.4byte	.LFE155-.LFB155
 3459 0a4f 01       		.uleb128 0x1
 3460 0a50 9C       		.byte	0x9c
 3461 0a51 650A0000 		.4byte	0xa65
 3462 0a55 19       		.uleb128 0x19
 3463 0a56 6F717000 		.ascii	"oqp\000"
 3464 0a5a 07       		.byte	0x7
 3465 0a5b 0D01     		.2byte	0x10d
 3466 0a5d 390A0000 		.4byte	0xa39
 3467 0a61 02       		.uleb128 0x2
 3468 0a62 91       		.byte	0x91
 3469 0a63 74       		.sleb128 -12
 3470 0a64 00       		.byte	0
 3471 0a65 26       		.uleb128 0x26
 3472 0a66 20050000 		.4byte	.LASF135
 3473 0a6a 07       		.byte	0x7
 3474 0a6b 2D01     		.2byte	0x12d
 3475 0a6d 01010000 		.4byte	0x101
 3476 0a71 00000000 		.4byte	.LFB156
 3477 0a75 8C000000 		.4byte	.LFE156-.LFB156
 3478 0a79 01       		.uleb128 0x1
 3479 0a7a 9C       		.byte	0x9c
 3480 0a7b C40A0000 		.4byte	0xac4
 3481 0a7f 19       		.uleb128 0x19
 3482 0a80 6F717000 		.ascii	"oqp\000"
 3483 0a84 07       		.byte	0x7
 3484 0a85 2D01     		.2byte	0x12d
 3485 0a87 390A0000 		.4byte	0xa39
 3486 0a8b 02       		.uleb128 0x2
 3487 0a8c 91       		.byte	0x91
 3488 0a8d 6C       		.sleb128 -20
 3489 0a8e 19       		.uleb128 0x19
 3490 0a8f 6200     		.ascii	"b\000"
 3491 0a91 07       		.byte	0x7
 3492 0a92 2D01     		.2byte	0x12d
 3493 0a94 A9000000 		.4byte	0xa9
 3494 0a98 02       		.uleb128 0x2
 3495 0a99 91       		.byte	0x91
 3496 0a9a 6B       		.sleb128 -21
 3497 0a9b 1E       		.uleb128 0x1e
 3498 0a9c BE040000 		.4byte	.LASF128
ARM GAS  /tmp/ccI5eHJN.s 			page 120


 3499 0aa0 07       		.byte	0x7
 3500 0aa1 2D01     		.2byte	0x12d
 3501 0aa3 17010000 		.4byte	0x117
 3502 0aa7 02       		.uleb128 0x2
 3503 0aa8 91       		.byte	0x91
 3504 0aa9 68       		.sleb128 -24
 3505 0aaa 24       		.uleb128 0x24
 3506 0aab 16000000 		.4byte	.LBB11
 3507 0aaf 20000000 		.4byte	.LBE11-.LBB11
 3508 0ab3 27       		.uleb128 0x27
 3509 0ab4 6D736700 		.ascii	"msg\000"
 3510 0ab8 07       		.byte	0x7
 3511 0ab9 3101     		.2byte	0x131
 3512 0abb 01010000 		.4byte	0x101
 3513 0abf 02       		.uleb128 0x2
 3514 0ac0 91       		.byte	0x91
 3515 0ac1 74       		.sleb128 -12
 3516 0ac2 00       		.byte	0
 3517 0ac3 00       		.byte	0
 3518 0ac4 26       		.uleb128 0x26
 3519 0ac5 BB060000 		.4byte	.LASF136
 3520 0ac9 07       		.byte	0x7
 3521 0aca 5001     		.2byte	0x150
 3522 0acc 01010000 		.4byte	0x101
 3523 0ad0 00000000 		.4byte	.LFB157
 3524 0ad4 78000000 		.4byte	.LFE157-.LFB157
 3525 0ad8 01       		.uleb128 0x1
 3526 0ad9 9C       		.byte	0x9c
 3527 0ada FB0A0000 		.4byte	0xafb
 3528 0ade 19       		.uleb128 0x19
 3529 0adf 6F717000 		.ascii	"oqp\000"
 3530 0ae3 07       		.byte	0x7
 3531 0ae4 5001     		.2byte	0x150
 3532 0ae6 390A0000 		.4byte	0xa39
 3533 0aea 02       		.uleb128 0x2
 3534 0aeb 91       		.byte	0x91
 3535 0aec 6C       		.sleb128 -20
 3536 0aed 27       		.uleb128 0x27
 3537 0aee 6200     		.ascii	"b\000"
 3538 0af0 07       		.byte	0x7
 3539 0af1 5101     		.2byte	0x151
 3540 0af3 A9000000 		.4byte	0xa9
 3541 0af7 02       		.uleb128 0x2
 3542 0af8 91       		.byte	0x91
 3543 0af9 77       		.sleb128 -9
 3544 0afa 00       		.byte	0
 3545 0afb 26       		.uleb128 0x26
 3546 0afc B3020000 		.4byte	.LASF137
 3547 0b00 07       		.byte	0x7
 3548 0b01 7C01     		.2byte	0x17c
 3549 0b03 28000000 		.4byte	0x28
 3550 0b07 00000000 		.4byte	.LFB158
 3551 0b0b B0000000 		.4byte	.LFE158-.LFB158
 3552 0b0f 01       		.uleb128 0x1
 3553 0b10 9C       		.byte	0x9c
 3554 0b11 740B0000 		.4byte	0xb74
 3555 0b15 19       		.uleb128 0x19
ARM GAS  /tmp/ccI5eHJN.s 			page 121


 3556 0b16 6F717000 		.ascii	"oqp\000"
 3557 0b1a 07       		.byte	0x7
 3558 0b1b 7C01     		.2byte	0x17c
 3559 0b1d 390A0000 		.4byte	0xa39
 3560 0b21 02       		.uleb128 0x2
 3561 0b22 91       		.byte	0x91
 3562 0b23 6C       		.sleb128 -20
 3563 0b24 19       		.uleb128 0x19
 3564 0b25 627000   		.ascii	"bp\000"
 3565 0b28 07       		.byte	0x7
 3566 0b29 7C01     		.2byte	0x17c
 3567 0b2b 91050000 		.4byte	0x591
 3568 0b2f 02       		.uleb128 0x2
 3569 0b30 91       		.byte	0x91
 3570 0b31 68       		.sleb128 -24
 3571 0b32 19       		.uleb128 0x19
 3572 0b33 6E00     		.ascii	"n\000"
 3573 0b35 07       		.byte	0x7
 3574 0b36 7D01     		.2byte	0x17d
 3575 0b38 28000000 		.4byte	0x28
 3576 0b3c 02       		.uleb128 0x2
 3577 0b3d 91       		.byte	0x91
 3578 0b3e 64       		.sleb128 -28
 3579 0b3f 1E       		.uleb128 0x1e
 3580 0b40 BE040000 		.4byte	.LASF128
 3581 0b44 07       		.byte	0x7
 3582 0b45 7D01     		.2byte	0x17d
 3583 0b47 17010000 		.4byte	0x117
 3584 0b4b 02       		.uleb128 0x2
 3585 0b4c 91       		.byte	0x91
 3586 0b4d 62       		.sleb128 -30
 3587 0b4e 27       		.uleb128 0x27
 3588 0b4f 6E667900 		.ascii	"nfy\000"
 3589 0b53 07       		.byte	0x7
 3590 0b54 7E01     		.2byte	0x17e
 3591 0b56 21060000 		.4byte	0x621
 3592 0b5a 02       		.uleb128 0x2
 3593 0b5b 91       		.byte	0x91
 3594 0b5c 70       		.sleb128 -16
 3595 0b5d 27       		.uleb128 0x27
 3596 0b5e 7700     		.ascii	"w\000"
 3597 0b60 07       		.byte	0x7
 3598 0b61 7F01     		.2byte	0x17f
 3599 0b63 28000000 		.4byte	0x28
 3600 0b67 02       		.uleb128 0x2
 3601 0b68 91       		.byte	0x91
 3602 0b69 74       		.sleb128 -12
 3603 0b6a 1C       		.uleb128 0x1c
 3604 0b6b 9F050000 		.4byte	.LASF138
 3605 0b6f 840B0000 		.4byte	0xb84
 3606 0b73 00       		.byte	0
 3607 0b74 14       		.uleb128 0x14
 3608 0b75 5E050000 		.4byte	0x55e
 3609 0b79 840B0000 		.4byte	0xb84
 3610 0b7d 15       		.uleb128 0x15
 3611 0b7e EC030000 		.4byte	0x3ec
 3612 0b82 0E       		.byte	0xe
ARM GAS  /tmp/ccI5eHJN.s 			page 122


 3613 0b83 00       		.byte	0
 3614 0b84 12       		.uleb128 0x12
 3615 0b85 740B0000 		.4byte	0xb74
 3616 0b89 28       		.uleb128 0x28
 3617 0b8a 636800   		.ascii	"ch\000"
 3618 0b8d 03       		.byte	0x3
 3619 0b8e 0902     		.2byte	0x209
 3620 0b90 91030000 		.4byte	0x391
 3621 0b94 00       		.byte	0
 3622              		.section	.debug_abbrev,"",%progbits
 3623              	.Ldebug_abbrev0:
 3624 0000 01       		.uleb128 0x1
 3625 0001 11       		.uleb128 0x11
 3626 0002 01       		.byte	0x1
 3627 0003 25       		.uleb128 0x25
 3628 0004 0E       		.uleb128 0xe
 3629 0005 13       		.uleb128 0x13
 3630 0006 0B       		.uleb128 0xb
 3631 0007 03       		.uleb128 0x3
 3632 0008 0E       		.uleb128 0xe
 3633 0009 55       		.uleb128 0x55
 3634 000a 17       		.uleb128 0x17
 3635 000b 11       		.uleb128 0x11
 3636 000c 01       		.uleb128 0x1
 3637 000d 10       		.uleb128 0x10
 3638 000e 17       		.uleb128 0x17
 3639 000f 00       		.byte	0
 3640 0010 00       		.byte	0
 3641 0011 02       		.uleb128 0x2
 3642 0012 24       		.uleb128 0x24
 3643 0013 00       		.byte	0
 3644 0014 0B       		.uleb128 0xb
 3645 0015 0B       		.uleb128 0xb
 3646 0016 3E       		.uleb128 0x3e
 3647 0017 0B       		.uleb128 0xb
 3648 0018 03       		.uleb128 0x3
 3649 0019 08       		.uleb128 0x8
 3650 001a 00       		.byte	0
 3651 001b 00       		.byte	0
 3652 001c 03       		.uleb128 0x3
 3653 001d 16       		.uleb128 0x16
 3654 001e 00       		.byte	0
 3655 001f 03       		.uleb128 0x3
 3656 0020 0E       		.uleb128 0xe
 3657 0021 3A       		.uleb128 0x3a
 3658 0022 0B       		.uleb128 0xb
 3659 0023 3B       		.uleb128 0x3b
 3660 0024 0B       		.uleb128 0xb
 3661 0025 49       		.uleb128 0x49
 3662 0026 13       		.uleb128 0x13
 3663 0027 00       		.byte	0
 3664 0028 00       		.byte	0
 3665 0029 04       		.uleb128 0x4
 3666 002a 24       		.uleb128 0x24
 3667 002b 00       		.byte	0
 3668 002c 0B       		.uleb128 0xb
 3669 002d 0B       		.uleb128 0xb
ARM GAS  /tmp/ccI5eHJN.s 			page 123


 3670 002e 3E       		.uleb128 0x3e
 3671 002f 0B       		.uleb128 0xb
 3672 0030 03       		.uleb128 0x3
 3673 0031 0E       		.uleb128 0xe
 3674 0032 00       		.byte	0
 3675 0033 00       		.byte	0
 3676 0034 05       		.uleb128 0x5
 3677 0035 13       		.uleb128 0x13
 3678 0036 01       		.byte	0x1
 3679 0037 03       		.uleb128 0x3
 3680 0038 0E       		.uleb128 0xe
 3681 0039 0B       		.uleb128 0xb
 3682 003a 0B       		.uleb128 0xb
 3683 003b 3A       		.uleb128 0x3a
 3684 003c 0B       		.uleb128 0xb
 3685 003d 3B       		.uleb128 0x3b
 3686 003e 0B       		.uleb128 0xb
 3687 003f 01       		.uleb128 0x1
 3688 0040 13       		.uleb128 0x13
 3689 0041 00       		.byte	0
 3690 0042 00       		.byte	0
 3691 0043 06       		.uleb128 0x6
 3692 0044 0D       		.uleb128 0xd
 3693 0045 00       		.byte	0
 3694 0046 03       		.uleb128 0x3
 3695 0047 0E       		.uleb128 0xe
 3696 0048 3A       		.uleb128 0x3a
 3697 0049 0B       		.uleb128 0xb
 3698 004a 3B       		.uleb128 0x3b
 3699 004b 0B       		.uleb128 0xb
 3700 004c 49       		.uleb128 0x49
 3701 004d 13       		.uleb128 0x13
 3702 004e 38       		.uleb128 0x38
 3703 004f 0B       		.uleb128 0xb
 3704 0050 00       		.byte	0
 3705 0051 00       		.byte	0
 3706 0052 07       		.uleb128 0x7
 3707 0053 0D       		.uleb128 0xd
 3708 0054 00       		.byte	0
 3709 0055 03       		.uleb128 0x3
 3710 0056 08       		.uleb128 0x8
 3711 0057 3A       		.uleb128 0x3a
 3712 0058 0B       		.uleb128 0xb
 3713 0059 3B       		.uleb128 0x3b
 3714 005a 05       		.uleb128 0x5
 3715 005b 49       		.uleb128 0x49
 3716 005c 13       		.uleb128 0x13
 3717 005d 38       		.uleb128 0x38
 3718 005e 0B       		.uleb128 0xb
 3719 005f 00       		.byte	0
 3720 0060 00       		.byte	0
 3721 0061 08       		.uleb128 0x8
 3722 0062 0D       		.uleb128 0xd
 3723 0063 00       		.byte	0
 3724 0064 03       		.uleb128 0x3
 3725 0065 0E       		.uleb128 0xe
 3726 0066 3A       		.uleb128 0x3a
ARM GAS  /tmp/ccI5eHJN.s 			page 124


 3727 0067 0B       		.uleb128 0xb
 3728 0068 3B       		.uleb128 0x3b
 3729 0069 05       		.uleb128 0x5
 3730 006a 49       		.uleb128 0x49
 3731 006b 13       		.uleb128 0x13
 3732 006c 38       		.uleb128 0x38
 3733 006d 0B       		.uleb128 0xb
 3734 006e 00       		.byte	0
 3735 006f 00       		.byte	0
 3736 0070 09       		.uleb128 0x9
 3737 0071 0F       		.uleb128 0xf
 3738 0072 00       		.byte	0
 3739 0073 0B       		.uleb128 0xb
 3740 0074 0B       		.uleb128 0xb
 3741 0075 49       		.uleb128 0x49
 3742 0076 13       		.uleb128 0x13
 3743 0077 00       		.byte	0
 3744 0078 00       		.byte	0
 3745 0079 0A       		.uleb128 0xa
 3746 007a 13       		.uleb128 0x13
 3747 007b 01       		.byte	0x1
 3748 007c 03       		.uleb128 0x3
 3749 007d 0E       		.uleb128 0xe
 3750 007e 0B       		.uleb128 0xb
 3751 007f 0B       		.uleb128 0xb
 3752 0080 3A       		.uleb128 0x3a
 3753 0081 0B       		.uleb128 0xb
 3754 0082 3B       		.uleb128 0x3b
 3755 0083 05       		.uleb128 0x5
 3756 0084 01       		.uleb128 0x1
 3757 0085 13       		.uleb128 0x13
 3758 0086 00       		.byte	0
 3759 0087 00       		.byte	0
 3760 0088 0B       		.uleb128 0xb
 3761 0089 15       		.uleb128 0x15
 3762 008a 01       		.byte	0x1
 3763 008b 27       		.uleb128 0x27
 3764 008c 19       		.uleb128 0x19
 3765 008d 01       		.uleb128 0x1
 3766 008e 13       		.uleb128 0x13
 3767 008f 00       		.byte	0
 3768 0090 00       		.byte	0
 3769 0091 0C       		.uleb128 0xc
 3770 0092 05       		.uleb128 0x5
 3771 0093 00       		.byte	0
 3772 0094 49       		.uleb128 0x49
 3773 0095 13       		.uleb128 0x13
 3774 0096 00       		.byte	0
 3775 0097 00       		.byte	0
 3776 0098 0D       		.uleb128 0xd
 3777 0099 0F       		.uleb128 0xf
 3778 009a 00       		.byte	0
 3779 009b 0B       		.uleb128 0xb
 3780 009c 0B       		.uleb128 0xb
 3781 009d 00       		.byte	0
 3782 009e 00       		.byte	0
 3783 009f 0E       		.uleb128 0xe
ARM GAS  /tmp/ccI5eHJN.s 			page 125


 3784 00a0 13       		.uleb128 0x13
 3785 00a1 01       		.byte	0x1
 3786 00a2 03       		.uleb128 0x3
 3787 00a3 0E       		.uleb128 0xe
 3788 00a4 0B       		.uleb128 0xb
 3789 00a5 05       		.uleb128 0x5
 3790 00a6 3A       		.uleb128 0x3a
 3791 00a7 0B       		.uleb128 0xb
 3792 00a8 3B       		.uleb128 0x3b
 3793 00a9 05       		.uleb128 0x5
 3794 00aa 01       		.uleb128 0x1
 3795 00ab 13       		.uleb128 0x13
 3796 00ac 00       		.byte	0
 3797 00ad 00       		.byte	0
 3798 00ae 0F       		.uleb128 0xf
 3799 00af 0D       		.uleb128 0xd
 3800 00b0 00       		.byte	0
 3801 00b1 03       		.uleb128 0x3
 3802 00b2 08       		.uleb128 0x8
 3803 00b3 3A       		.uleb128 0x3a
 3804 00b4 0B       		.uleb128 0xb
 3805 00b5 3B       		.uleb128 0x3b
 3806 00b6 0B       		.uleb128 0xb
 3807 00b7 49       		.uleb128 0x49
 3808 00b8 13       		.uleb128 0x13
 3809 00b9 38       		.uleb128 0x38
 3810 00ba 0B       		.uleb128 0xb
 3811 00bb 00       		.byte	0
 3812 00bc 00       		.byte	0
 3813 00bd 10       		.uleb128 0x10
 3814 00be 17       		.uleb128 0x17
 3815 00bf 01       		.byte	0x1
 3816 00c0 0B       		.uleb128 0xb
 3817 00c1 0B       		.uleb128 0xb
 3818 00c2 3A       		.uleb128 0x3a
 3819 00c3 0B       		.uleb128 0xb
 3820 00c4 3B       		.uleb128 0x3b
 3821 00c5 0B       		.uleb128 0xb
 3822 00c6 01       		.uleb128 0x1
 3823 00c7 13       		.uleb128 0x13
 3824 00c8 00       		.byte	0
 3825 00c9 00       		.byte	0
 3826 00ca 11       		.uleb128 0x11
 3827 00cb 0D       		.uleb128 0xd
 3828 00cc 00       		.byte	0
 3829 00cd 03       		.uleb128 0x3
 3830 00ce 0E       		.uleb128 0xe
 3831 00cf 3A       		.uleb128 0x3a
 3832 00d0 0B       		.uleb128 0xb
 3833 00d1 3B       		.uleb128 0x3b
 3834 00d2 05       		.uleb128 0x5
 3835 00d3 49       		.uleb128 0x49
 3836 00d4 13       		.uleb128 0x13
 3837 00d5 00       		.byte	0
 3838 00d6 00       		.byte	0
 3839 00d7 12       		.uleb128 0x12
 3840 00d8 26       		.uleb128 0x26
ARM GAS  /tmp/ccI5eHJN.s 			page 126


 3841 00d9 00       		.byte	0
 3842 00da 49       		.uleb128 0x49
 3843 00db 13       		.uleb128 0x13
 3844 00dc 00       		.byte	0
 3845 00dd 00       		.byte	0
 3846 00de 13       		.uleb128 0x13
 3847 00df 35       		.uleb128 0x35
 3848 00e0 00       		.byte	0
 3849 00e1 49       		.uleb128 0x49
 3850 00e2 13       		.uleb128 0x13
 3851 00e3 00       		.byte	0
 3852 00e4 00       		.byte	0
 3853 00e5 14       		.uleb128 0x14
 3854 00e6 01       		.uleb128 0x1
 3855 00e7 01       		.byte	0x1
 3856 00e8 49       		.uleb128 0x49
 3857 00e9 13       		.uleb128 0x13
 3858 00ea 01       		.uleb128 0x1
 3859 00eb 13       		.uleb128 0x13
 3860 00ec 00       		.byte	0
 3861 00ed 00       		.byte	0
 3862 00ee 15       		.uleb128 0x15
 3863 00ef 21       		.uleb128 0x21
 3864 00f0 00       		.byte	0
 3865 00f1 49       		.uleb128 0x49
 3866 00f2 13       		.uleb128 0x13
 3867 00f3 2F       		.uleb128 0x2f
 3868 00f4 0B       		.uleb128 0xb
 3869 00f5 00       		.byte	0
 3870 00f6 00       		.byte	0
 3871 00f7 16       		.uleb128 0x16
 3872 00f8 2E       		.uleb128 0x2e
 3873 00f9 00       		.byte	0
 3874 00fa 03       		.uleb128 0x3
 3875 00fb 0E       		.uleb128 0xe
 3876 00fc 3A       		.uleb128 0x3a
 3877 00fd 0B       		.uleb128 0xb
 3878 00fe 3B       		.uleb128 0x3b
 3879 00ff 05       		.uleb128 0x5
 3880 0100 27       		.uleb128 0x27
 3881 0101 19       		.uleb128 0x19
 3882 0102 20       		.uleb128 0x20
 3883 0103 0B       		.uleb128 0xb
 3884 0104 00       		.byte	0
 3885 0105 00       		.byte	0
 3886 0106 17       		.uleb128 0x17
 3887 0107 2E       		.uleb128 0x2e
 3888 0108 01       		.byte	0x1
 3889 0109 03       		.uleb128 0x3
 3890 010a 0E       		.uleb128 0xe
 3891 010b 3A       		.uleb128 0x3a
 3892 010c 0B       		.uleb128 0xb
 3893 010d 3B       		.uleb128 0x3b
 3894 010e 05       		.uleb128 0x5
 3895 010f 27       		.uleb128 0x27
 3896 0110 19       		.uleb128 0x19
 3897 0111 11       		.uleb128 0x11
ARM GAS  /tmp/ccI5eHJN.s 			page 127


 3898 0112 01       		.uleb128 0x1
 3899 0113 12       		.uleb128 0x12
 3900 0114 06       		.uleb128 0x6
 3901 0115 40       		.uleb128 0x40
 3902 0116 18       		.uleb128 0x18
 3903 0117 9742     		.uleb128 0x2117
 3904 0119 19       		.uleb128 0x19
 3905 011a 01       		.uleb128 0x1
 3906 011b 13       		.uleb128 0x13
 3907 011c 00       		.byte	0
 3908 011d 00       		.byte	0
 3909 011e 18       		.uleb128 0x18
 3910 011f 1D       		.uleb128 0x1d
 3911 0120 00       		.byte	0
 3912 0121 31       		.uleb128 0x31
 3913 0122 13       		.uleb128 0x13
 3914 0123 11       		.uleb128 0x11
 3915 0124 01       		.uleb128 0x1
 3916 0125 12       		.uleb128 0x12
 3917 0126 06       		.uleb128 0x6
 3918 0127 58       		.uleb128 0x58
 3919 0128 0B       		.uleb128 0xb
 3920 0129 59       		.uleb128 0x59
 3921 012a 05       		.uleb128 0x5
 3922 012b 00       		.byte	0
 3923 012c 00       		.byte	0
 3924 012d 19       		.uleb128 0x19
 3925 012e 05       		.uleb128 0x5
 3926 012f 00       		.byte	0
 3927 0130 03       		.uleb128 0x3
 3928 0131 08       		.uleb128 0x8
 3929 0132 3A       		.uleb128 0x3a
 3930 0133 0B       		.uleb128 0xb
 3931 0134 3B       		.uleb128 0x3b
 3932 0135 05       		.uleb128 0x5
 3933 0136 49       		.uleb128 0x49
 3934 0137 13       		.uleb128 0x13
 3935 0138 02       		.uleb128 0x2
 3936 0139 18       		.uleb128 0x18
 3937 013a 00       		.byte	0
 3938 013b 00       		.byte	0
 3939 013c 1A       		.uleb128 0x1a
 3940 013d 2E       		.uleb128 0x2e
 3941 013e 00       		.byte	0
 3942 013f 03       		.uleb128 0x3
 3943 0140 0E       		.uleb128 0xe
 3944 0141 3A       		.uleb128 0x3a
 3945 0142 0B       		.uleb128 0xb
 3946 0143 3B       		.uleb128 0x3b
 3947 0144 05       		.uleb128 0x5
 3948 0145 27       		.uleb128 0x27
 3949 0146 19       		.uleb128 0x19
 3950 0147 11       		.uleb128 0x11
 3951 0148 01       		.uleb128 0x1
 3952 0149 12       		.uleb128 0x12
 3953 014a 06       		.uleb128 0x6
 3954 014b 40       		.uleb128 0x40
ARM GAS  /tmp/ccI5eHJN.s 			page 128


 3955 014c 18       		.uleb128 0x18
 3956 014d 9642     		.uleb128 0x2116
 3957 014f 19       		.uleb128 0x19
 3958 0150 00       		.byte	0
 3959 0151 00       		.byte	0
 3960 0152 1B       		.uleb128 0x1b
 3961 0153 2E       		.uleb128 0x2e
 3962 0154 01       		.byte	0x1
 3963 0155 03       		.uleb128 0x3
 3964 0156 0E       		.uleb128 0xe
 3965 0157 3A       		.uleb128 0x3a
 3966 0158 0B       		.uleb128 0xb
 3967 0159 3B       		.uleb128 0x3b
 3968 015a 05       		.uleb128 0x5
 3969 015b 27       		.uleb128 0x27
 3970 015c 19       		.uleb128 0x19
 3971 015d 11       		.uleb128 0x11
 3972 015e 01       		.uleb128 0x1
 3973 015f 12       		.uleb128 0x12
 3974 0160 06       		.uleb128 0x6
 3975 0161 40       		.uleb128 0x40
 3976 0162 18       		.uleb128 0x18
 3977 0163 9642     		.uleb128 0x2116
 3978 0165 19       		.uleb128 0x19
 3979 0166 01       		.uleb128 0x1
 3980 0167 13       		.uleb128 0x13
 3981 0168 00       		.byte	0
 3982 0169 00       		.byte	0
 3983 016a 1C       		.uleb128 0x1c
 3984 016b 34       		.uleb128 0x34
 3985 016c 00       		.byte	0
 3986 016d 03       		.uleb128 0x3
 3987 016e 0E       		.uleb128 0xe
 3988 016f 49       		.uleb128 0x49
 3989 0170 13       		.uleb128 0x13
 3990 0171 34       		.uleb128 0x34
 3991 0172 19       		.uleb128 0x19
 3992 0173 00       		.byte	0
 3993 0174 00       		.byte	0
 3994 0175 1D       		.uleb128 0x1d
 3995 0176 2E       		.uleb128 0x2e
 3996 0177 01       		.byte	0x1
 3997 0178 03       		.uleb128 0x3
 3998 0179 0E       		.uleb128 0xe
 3999 017a 3A       		.uleb128 0x3a
 4000 017b 0B       		.uleb128 0xb
 4001 017c 3B       		.uleb128 0x3b
 4002 017d 05       		.uleb128 0x5
 4003 017e 27       		.uleb128 0x27
 4004 017f 19       		.uleb128 0x19
 4005 0180 49       		.uleb128 0x49
 4006 0181 13       		.uleb128 0x13
 4007 0182 11       		.uleb128 0x11
 4008 0183 01       		.uleb128 0x1
 4009 0184 12       		.uleb128 0x12
 4010 0185 06       		.uleb128 0x6
 4011 0186 40       		.uleb128 0x40
ARM GAS  /tmp/ccI5eHJN.s 			page 129


 4012 0187 18       		.uleb128 0x18
 4013 0188 9642     		.uleb128 0x2116
 4014 018a 19       		.uleb128 0x19
 4015 018b 01       		.uleb128 0x1
 4016 018c 13       		.uleb128 0x13
 4017 018d 00       		.byte	0
 4018 018e 00       		.byte	0
 4019 018f 1E       		.uleb128 0x1e
 4020 0190 05       		.uleb128 0x5
 4021 0191 00       		.byte	0
 4022 0192 03       		.uleb128 0x3
 4023 0193 0E       		.uleb128 0xe
 4024 0194 3A       		.uleb128 0x3a
 4025 0195 0B       		.uleb128 0xb
 4026 0196 3B       		.uleb128 0x3b
 4027 0197 05       		.uleb128 0x5
 4028 0198 49       		.uleb128 0x49
 4029 0199 13       		.uleb128 0x13
 4030 019a 02       		.uleb128 0x2
 4031 019b 18       		.uleb128 0x18
 4032 019c 00       		.byte	0
 4033 019d 00       		.byte	0
 4034 019e 1F       		.uleb128 0x1f
 4035 019f 2E       		.uleb128 0x2e
 4036 01a0 01       		.byte	0x1
 4037 01a1 3F       		.uleb128 0x3f
 4038 01a2 19       		.uleb128 0x19
 4039 01a3 03       		.uleb128 0x3
 4040 01a4 0E       		.uleb128 0xe
 4041 01a5 3A       		.uleb128 0x3a
 4042 01a6 0B       		.uleb128 0xb
 4043 01a7 3B       		.uleb128 0x3b
 4044 01a8 0B       		.uleb128 0xb
 4045 01a9 27       		.uleb128 0x27
 4046 01aa 19       		.uleb128 0x19
 4047 01ab 11       		.uleb128 0x11
 4048 01ac 01       		.uleb128 0x1
 4049 01ad 12       		.uleb128 0x12
 4050 01ae 06       		.uleb128 0x6
 4051 01af 40       		.uleb128 0x40
 4052 01b0 18       		.uleb128 0x18
 4053 01b1 9642     		.uleb128 0x2116
 4054 01b3 19       		.uleb128 0x19
 4055 01b4 01       		.uleb128 0x1
 4056 01b5 13       		.uleb128 0x13
 4057 01b6 00       		.byte	0
 4058 01b7 00       		.byte	0
 4059 01b8 20       		.uleb128 0x20
 4060 01b9 05       		.uleb128 0x5
 4061 01ba 00       		.byte	0
 4062 01bb 03       		.uleb128 0x3
 4063 01bc 08       		.uleb128 0x8
 4064 01bd 3A       		.uleb128 0x3a
 4065 01be 0B       		.uleb128 0xb
 4066 01bf 3B       		.uleb128 0x3b
 4067 01c0 0B       		.uleb128 0xb
 4068 01c1 49       		.uleb128 0x49
ARM GAS  /tmp/ccI5eHJN.s 			page 130


 4069 01c2 13       		.uleb128 0x13
 4070 01c3 02       		.uleb128 0x2
 4071 01c4 18       		.uleb128 0x18
 4072 01c5 00       		.byte	0
 4073 01c6 00       		.byte	0
 4074 01c7 21       		.uleb128 0x21
 4075 01c8 05       		.uleb128 0x5
 4076 01c9 00       		.byte	0
 4077 01ca 03       		.uleb128 0x3
 4078 01cb 0E       		.uleb128 0xe
 4079 01cc 3A       		.uleb128 0x3a
 4080 01cd 0B       		.uleb128 0xb
 4081 01ce 3B       		.uleb128 0x3b
 4082 01cf 0B       		.uleb128 0xb
 4083 01d0 49       		.uleb128 0x49
 4084 01d1 13       		.uleb128 0x13
 4085 01d2 02       		.uleb128 0x2
 4086 01d3 18       		.uleb128 0x18
 4087 01d4 00       		.byte	0
 4088 01d5 00       		.byte	0
 4089 01d6 22       		.uleb128 0x22
 4090 01d7 2E       		.uleb128 0x2e
 4091 01d8 01       		.byte	0x1
 4092 01d9 3F       		.uleb128 0x3f
 4093 01da 19       		.uleb128 0x19
 4094 01db 03       		.uleb128 0x3
 4095 01dc 0E       		.uleb128 0xe
 4096 01dd 3A       		.uleb128 0x3a
 4097 01de 0B       		.uleb128 0xb
 4098 01df 3B       		.uleb128 0x3b
 4099 01e0 0B       		.uleb128 0xb
 4100 01e1 27       		.uleb128 0x27
 4101 01e2 19       		.uleb128 0x19
 4102 01e3 49       		.uleb128 0x49
 4103 01e4 13       		.uleb128 0x13
 4104 01e5 11       		.uleb128 0x11
 4105 01e6 01       		.uleb128 0x1
 4106 01e7 12       		.uleb128 0x12
 4107 01e8 06       		.uleb128 0x6
 4108 01e9 40       		.uleb128 0x40
 4109 01ea 18       		.uleb128 0x18
 4110 01eb 9642     		.uleb128 0x2116
 4111 01ed 19       		.uleb128 0x19
 4112 01ee 01       		.uleb128 0x1
 4113 01ef 13       		.uleb128 0x13
 4114 01f0 00       		.byte	0
 4115 01f1 00       		.byte	0
 4116 01f2 23       		.uleb128 0x23
 4117 01f3 34       		.uleb128 0x34
 4118 01f4 00       		.byte	0
 4119 01f5 03       		.uleb128 0x3
 4120 01f6 08       		.uleb128 0x8
 4121 01f7 3A       		.uleb128 0x3a
 4122 01f8 0B       		.uleb128 0xb
 4123 01f9 3B       		.uleb128 0x3b
 4124 01fa 0B       		.uleb128 0xb
 4125 01fb 49       		.uleb128 0x49
ARM GAS  /tmp/ccI5eHJN.s 			page 131


 4126 01fc 13       		.uleb128 0x13
 4127 01fd 02       		.uleb128 0x2
 4128 01fe 18       		.uleb128 0x18
 4129 01ff 00       		.byte	0
 4130 0200 00       		.byte	0
 4131 0201 24       		.uleb128 0x24
 4132 0202 0B       		.uleb128 0xb
 4133 0203 01       		.byte	0x1
 4134 0204 11       		.uleb128 0x11
 4135 0205 01       		.uleb128 0x1
 4136 0206 12       		.uleb128 0x12
 4137 0207 06       		.uleb128 0x6
 4138 0208 00       		.byte	0
 4139 0209 00       		.byte	0
 4140 020a 25       		.uleb128 0x25
 4141 020b 2E       		.uleb128 0x2e
 4142 020c 01       		.byte	0x1
 4143 020d 3F       		.uleb128 0x3f
 4144 020e 19       		.uleb128 0x19
 4145 020f 03       		.uleb128 0x3
 4146 0210 0E       		.uleb128 0xe
 4147 0211 3A       		.uleb128 0x3a
 4148 0212 0B       		.uleb128 0xb
 4149 0213 3B       		.uleb128 0x3b
 4150 0214 05       		.uleb128 0x5
 4151 0215 27       		.uleb128 0x27
 4152 0216 19       		.uleb128 0x19
 4153 0217 11       		.uleb128 0x11
 4154 0218 01       		.uleb128 0x1
 4155 0219 12       		.uleb128 0x12
 4156 021a 06       		.uleb128 0x6
 4157 021b 40       		.uleb128 0x40
 4158 021c 18       		.uleb128 0x18
 4159 021d 9642     		.uleb128 0x2116
 4160 021f 19       		.uleb128 0x19
 4161 0220 01       		.uleb128 0x1
 4162 0221 13       		.uleb128 0x13
 4163 0222 00       		.byte	0
 4164 0223 00       		.byte	0
 4165 0224 26       		.uleb128 0x26
 4166 0225 2E       		.uleb128 0x2e
 4167 0226 01       		.byte	0x1
 4168 0227 3F       		.uleb128 0x3f
 4169 0228 19       		.uleb128 0x19
 4170 0229 03       		.uleb128 0x3
 4171 022a 0E       		.uleb128 0xe
 4172 022b 3A       		.uleb128 0x3a
 4173 022c 0B       		.uleb128 0xb
 4174 022d 3B       		.uleb128 0x3b
 4175 022e 05       		.uleb128 0x5
 4176 022f 27       		.uleb128 0x27
 4177 0230 19       		.uleb128 0x19
 4178 0231 49       		.uleb128 0x49
 4179 0232 13       		.uleb128 0x13
 4180 0233 11       		.uleb128 0x11
 4181 0234 01       		.uleb128 0x1
 4182 0235 12       		.uleb128 0x12
ARM GAS  /tmp/ccI5eHJN.s 			page 132


 4183 0236 06       		.uleb128 0x6
 4184 0237 40       		.uleb128 0x40
 4185 0238 18       		.uleb128 0x18
 4186 0239 9642     		.uleb128 0x2116
 4187 023b 19       		.uleb128 0x19
 4188 023c 01       		.uleb128 0x1
 4189 023d 13       		.uleb128 0x13
 4190 023e 00       		.byte	0
 4191 023f 00       		.byte	0
 4192 0240 27       		.uleb128 0x27
 4193 0241 34       		.uleb128 0x34
 4194 0242 00       		.byte	0
 4195 0243 03       		.uleb128 0x3
 4196 0244 08       		.uleb128 0x8
 4197 0245 3A       		.uleb128 0x3a
 4198 0246 0B       		.uleb128 0xb
 4199 0247 3B       		.uleb128 0x3b
 4200 0248 05       		.uleb128 0x5
 4201 0249 49       		.uleb128 0x49
 4202 024a 13       		.uleb128 0x13
 4203 024b 02       		.uleb128 0x2
 4204 024c 18       		.uleb128 0x18
 4205 024d 00       		.byte	0
 4206 024e 00       		.byte	0
 4207 024f 28       		.uleb128 0x28
 4208 0250 34       		.uleb128 0x34
 4209 0251 00       		.byte	0
 4210 0252 03       		.uleb128 0x3
 4211 0253 08       		.uleb128 0x8
 4212 0254 3A       		.uleb128 0x3a
 4213 0255 0B       		.uleb128 0xb
 4214 0256 3B       		.uleb128 0x3b
 4215 0257 05       		.uleb128 0x5
 4216 0258 49       		.uleb128 0x49
 4217 0259 13       		.uleb128 0x13
 4218 025a 3F       		.uleb128 0x3f
 4219 025b 19       		.uleb128 0x19
 4220 025c 3C       		.uleb128 0x3c
 4221 025d 19       		.uleb128 0x19
 4222 025e 00       		.byte	0
 4223 025f 00       		.byte	0
 4224 0260 00       		.byte	0
 4225              		.section	.debug_aranges,"",%progbits
 4226 0000 C4000000 		.4byte	0xc4
 4227 0004 0200     		.2byte	0x2
 4228 0006 00000000 		.4byte	.Ldebug_info0
 4229 000a 04       		.byte	0x4
 4230 000b 00       		.byte	0
 4231 000c 0000     		.2byte	0
 4232 000e 0000     		.2byte	0
 4233 0010 00000000 		.4byte	.LFB38
 4234 0014 04000000 		.4byte	.LFE38-.LFB38
 4235 0018 00000000 		.4byte	.LFB39
 4236 001c 04000000 		.4byte	.LFE39-.LFB39
 4237 0020 00000000 		.4byte	.LFB60
 4238 0024 14000000 		.4byte	.LFE60-.LFB60
 4239 0028 00000000 		.4byte	.LFB70
ARM GAS  /tmp/ccI5eHJN.s 			page 133


 4240 002c 08000000 		.4byte	.LFE70-.LFB70
 4241 0030 00000000 		.4byte	.LFB71
 4242 0034 08000000 		.4byte	.LFE71-.LFB71
 4243 0038 00000000 		.4byte	.LFB98
 4244 003c 12000000 		.4byte	.LFE98-.LFB98
 4245 0040 00000000 		.4byte	.LFB123
 4246 0044 08000000 		.4byte	.LFE123-.LFB123
 4247 0048 00000000 		.4byte	.LFB124
 4248 004c 08000000 		.4byte	.LFE124-.LFB124
 4249 0050 00000000 		.4byte	.LFB139
 4250 0054 12000000 		.4byte	.LFE139-.LFB139
 4251 0058 00000000 		.4byte	.LFB140
 4252 005c 26000000 		.4byte	.LFE140-.LFB140
 4253 0060 00000000 		.4byte	.LFB141
 4254 0064 18000000 		.4byte	.LFE141-.LFB141
 4255 0068 00000000 		.4byte	.LFB142
 4256 006c 18000000 		.4byte	.LFE142-.LFB142
 4257 0070 00000000 		.4byte	.LFB149
 4258 0074 46000000 		.4byte	.LFE149-.LFB149
 4259 0078 00000000 		.4byte	.LFB150
 4260 007c 2E000000 		.4byte	.LFE150-.LFB150
 4261 0080 00000000 		.4byte	.LFB151
 4262 0084 7C000000 		.4byte	.LFE151-.LFB151
 4263 0088 00000000 		.4byte	.LFB152
 4264 008c 92000000 		.4byte	.LFE152-.LFB152
 4265 0090 00000000 		.4byte	.LFB153
 4266 0094 B0000000 		.4byte	.LFE153-.LFB153
 4267 0098 00000000 		.4byte	.LFB154
 4268 009c 46000000 		.4byte	.LFE154-.LFB154
 4269 00a0 00000000 		.4byte	.LFB155
 4270 00a4 3A000000 		.4byte	.LFE155-.LFB155
 4271 00a8 00000000 		.4byte	.LFB156
 4272 00ac 8C000000 		.4byte	.LFE156-.LFB156
 4273 00b0 00000000 		.4byte	.LFB157
 4274 00b4 78000000 		.4byte	.LFE157-.LFB157
 4275 00b8 00000000 		.4byte	.LFB158
 4276 00bc B0000000 		.4byte	.LFE158-.LFB158
 4277 00c0 00000000 		.4byte	0
 4278 00c4 00000000 		.4byte	0
 4279              		.section	.debug_ranges,"",%progbits
 4280              	.Ldebug_ranges0:
 4281 0000 00000000 		.4byte	.LFB38
 4282 0004 04000000 		.4byte	.LFE38
 4283 0008 00000000 		.4byte	.LFB39
 4284 000c 04000000 		.4byte	.LFE39
 4285 0010 00000000 		.4byte	.LFB60
 4286 0014 14000000 		.4byte	.LFE60
 4287 0018 00000000 		.4byte	.LFB70
 4288 001c 08000000 		.4byte	.LFE70
 4289 0020 00000000 		.4byte	.LFB71
 4290 0024 08000000 		.4byte	.LFE71
 4291 0028 00000000 		.4byte	.LFB98
 4292 002c 12000000 		.4byte	.LFE98
 4293 0030 00000000 		.4byte	.LFB123
 4294 0034 08000000 		.4byte	.LFE123
 4295 0038 00000000 		.4byte	.LFB124
 4296 003c 08000000 		.4byte	.LFE124
ARM GAS  /tmp/ccI5eHJN.s 			page 134


 4297 0040 00000000 		.4byte	.LFB139
 4298 0044 12000000 		.4byte	.LFE139
 4299 0048 00000000 		.4byte	.LFB140
 4300 004c 26000000 		.4byte	.LFE140
 4301 0050 00000000 		.4byte	.LFB141
 4302 0054 18000000 		.4byte	.LFE141
 4303 0058 00000000 		.4byte	.LFB142
 4304 005c 18000000 		.4byte	.LFE142
 4305 0060 00000000 		.4byte	.LFB149
 4306 0064 46000000 		.4byte	.LFE149
 4307 0068 00000000 		.4byte	.LFB150
 4308 006c 2E000000 		.4byte	.LFE150
 4309 0070 00000000 		.4byte	.LFB151
 4310 0074 7C000000 		.4byte	.LFE151
 4311 0078 00000000 		.4byte	.LFB152
 4312 007c 92000000 		.4byte	.LFE152
 4313 0080 00000000 		.4byte	.LFB153
 4314 0084 B0000000 		.4byte	.LFE153
 4315 0088 00000000 		.4byte	.LFB154
 4316 008c 46000000 		.4byte	.LFE154
 4317 0090 00000000 		.4byte	.LFB155
 4318 0094 3A000000 		.4byte	.LFE155
 4319 0098 00000000 		.4byte	.LFB156
 4320 009c 8C000000 		.4byte	.LFE156
 4321 00a0 00000000 		.4byte	.LFB157
 4322 00a4 78000000 		.4byte	.LFE157
 4323 00a8 00000000 		.4byte	.LFB158
 4324 00ac B0000000 		.4byte	.LFE158
 4325 00b0 00000000 		.4byte	0
 4326 00b4 00000000 		.4byte	0
 4327              		.section	.debug_line,"",%progbits
 4328              	.Ldebug_line0:
 4329 0000 B5040000 		.section	.debug_str,"MS",%progbits,1
 4329      02004402 
 4329      00000201 
 4329      FB0E0D00 
 4329      01010101 
 4330              	.LASF42:
 4331 0000 63685F74 		.ascii	"ch_threads_list\000"
 4331      68726561 
 4331      64735F6C 
 4331      69737400 
 4332              	.LASF43:
 4333 0010 74687265 		.ascii	"threads_queue_t\000"
 4333      6164735F 
 4333      71756575 
 4333      655F7400 
 4334              	.LASF36:
 4335 0020 705F7761 		.ascii	"p_waiting\000"
 4335      6974696E 
 4335      6700
 4336              	.LASF83:
 4337 002a 77746D74 		.ascii	"wtmtxp\000"
 4337      787000
 4338              	.LASF91:
 4339 0031 63686172 		.ascii	"char\000"
 4339      00
ARM GAS  /tmp/ccI5eHJN.s 			page 135


 4340              	.LASF74:
 4341 0036 72656761 		.ascii	"regarm_t\000"
 4341      726D5F74 
 4341      00
 4342              	.LASF29:
 4343 003f 705F7072 		.ascii	"p_prio\000"
 4343      696F00
 4344              	.LASF133:
 4345 0046 6F6E6679 		.ascii	"onfy\000"
 4345      00
 4346              	.LASF25:
 4347 004b 73797374 		.ascii	"systime_t\000"
 4347      696D655F 
 4347      7400
 4348              	.LASF89:
 4349 0055 6D5F6F77 		.ascii	"m_owner\000"
 4349      6E657200 
 4350              	.LASF85:
 4351 005d 735F7175 		.ascii	"s_queue\000"
 4351      65756500 
 4352              	.LASF94:
 4353 0065 696F5F71 		.ascii	"io_queue_t\000"
 4353      75657565 
 4353      5F7400
 4354              	.LASF0:
 4355 0070 756E7369 		.ascii	"unsigned int\000"
 4355      676E6564 
 4355      20696E74 
 4355      00
 4356              	.LASF40:
 4357 007d 74687265 		.ascii	"threads_list_t\000"
 4357      6164735F 
 4357      6C697374 
 4357      5F7400
 4358              	.LASF101:
 4359 008c 715F7264 		.ascii	"q_rdptr\000"
 4359      70747200 
 4360              	.LASF8:
 4361 0094 5F5F696E 		.ascii	"__int32_t\000"
 4361      7433325F 
 4361      7400
 4362              	.LASF104:
 4363 009e 716E6F74 		.ascii	"qnotify_t\000"
 4363      6966795F 
 4363      7400
 4364              	.LASF125:
 4365 00a8 69715265 		.ascii	"iqResetI\000"
 4365      73657449 
 4365      00
 4366              	.LASF80:
 4367 00b1 77746F62 		.ascii	"wtobjp\000"
 4367      6A7000
 4368              	.LASF109:
 4369 00b8 706F7274 		.ascii	"port_lock\000"
 4369      5F6C6F63 
 4369      6B00
 4370              	.LASF70:
ARM GAS  /tmp/ccI5eHJN.s 			page 136


 4371 00c2 76746C69 		.ascii	"vtlist\000"
 4371      737400
 4372              	.LASF103:
 4373 00c9 715F6C69 		.ascii	"q_link\000"
 4373      6E6B00
 4374              	.LASF117:
 4375 00d0 6F73616C 		.ascii	"osalThreadQueueObjectInit\000"
 4375      54687265 
 4375      61645175 
 4375      6575654F 
 4375      626A6563 
 4376              	.LASF46:
 4377 00ea 63685F72 		.ascii	"ch_ready_list\000"
 4377      65616479 
 4377      5F6C6973 
 4377      7400
 4378              	.LASF72:
 4379 00f8 69646C65 		.ascii	"idle_thread_wa\000"
 4379      5F746872 
 4379      6561645F 
 4379      776100
 4380              	.LASF113:
 4381 0107 63685468 		.ascii	"chThdQueueObjectInit\000"
 4381      64517565 
 4381      75654F62 
 4381      6A656374 
 4381      496E6974 
 4382              	.LASF44:
 4383 011c 63685F74 		.ascii	"ch_threads_queue\000"
 4383      68726561 
 4383      64735F71 
 4383      75657565 
 4383      00
 4384              	.LASF120:
 4385 012d 6F73616C 		.ascii	"osalThreadDequeueAllI\000"
 4385      54687265 
 4385      61644465 
 4385      71756575 
 4385      65416C6C 
 4386              	.LASF53:
 4387 0143 76746675 		.ascii	"vtfunc_t\000"
 4387      6E635F74 
 4387      00
 4388              	.LASF86:
 4389 014c 735F636E 		.ascii	"s_cnt\000"
 4389      7400
 4390              	.LASF65:
 4391 0152 63685F73 		.ascii	"ch_system_debug\000"
 4391      79737465 
 4391      6D5F6465 
 4391      62756700 
 4392              	.LASF18:
 4393 0162 75696E74 		.ascii	"uint32_t\000"
 4393      33325F74 
 4393      00
 4394              	.LASF96:
 4395 016b 715F7761 		.ascii	"q_waiting\000"
ARM GAS  /tmp/ccI5eHJN.s 			page 137


 4395      6974696E 
 4395      6700
 4396              	.LASF121:
 4397 0175 73697A65 		.ascii	"size\000"
 4397      00
 4398              	.LASF48:
 4399 017a 725F7072 		.ascii	"r_prio\000"
 4399      696F00
 4400              	.LASF60:
 4401 0181 76745F70 		.ascii	"vt_par\000"
 4401      617200
 4402              	.LASF84:
 4403 0188 63685F73 		.ascii	"ch_semaphore\000"
 4403      656D6170 
 4403      686F7265 
 4403      00
 4404              	.LASF22:
 4405 0195 74707269 		.ascii	"tprio_t\000"
 4405      6F5F7400 
 4406              	.LASF55:
 4407 019d 63685F76 		.ascii	"ch_virtual_timer\000"
 4407      69727475 
 4407      616C5F74 
 4407      696D6572 
 4407      00
 4408              	.LASF118:
 4409 01ae 74696D65 		.ascii	"time\000"
 4409      00
 4410              	.LASF14:
 4411 01b3 6C6F6E67 		.ascii	"long long unsigned int\000"
 4411      206C6F6E 
 4411      6720756E 
 4411      7369676E 
 4411      65642069 
 4412              	.LASF6:
 4413 01ca 5F5F7569 		.ascii	"__uint16_t\000"
 4413      6E743136 
 4413      5F7400
 4414              	.LASF24:
 4415 01d5 636E745F 		.ascii	"cnt_t\000"
 4415      7400
 4416              	.LASF112:
 4417 01db 63685379 		.ascii	"chSysUnlock\000"
 4417      73556E6C 
 4417      6F636B00 
 4418              	.LASF116:
 4419 01e7 6F73616C 		.ascii	"osalSysUnlock\000"
 4419      53797355 
 4419      6E6C6F63 
 4419      6B00
 4420              	.LASF140:
 4421 01f5 2F686F6D 		.ascii	"/home/efe/ChibiOS/os/hal/src/hal_queues.c\000"
 4421      652F6566 
 4421      652F4368 
 4421      6962694F 
 4421      532F6F73 
 4422              	.LASF62:
ARM GAS  /tmp/ccI5eHJN.s 			page 138


 4423 021f 63685F76 		.ascii	"ch_virtual_timers_list\000"
 4423      69727475 
 4423      616C5F74 
 4423      696D6572 
 4423      735F6C69 
 4424              	.LASF26:
 4425 0236 74687265 		.ascii	"thread_t\000"
 4425      61645F74 
 4425      00
 4426              	.LASF129:
 4427 023f 69715265 		.ascii	"iqReadTimeout\000"
 4427      61645469 
 4427      6D656F75 
 4427      7400
 4428              	.LASF2:
 4429 024d 73697A65 		.ascii	"size_t\000"
 4429      5F7400
 4430              	.LASF78:
 4431 0254 7264796D 		.ascii	"rdymsg\000"
 4431      736700
 4432              	.LASF107:
 4433 025b 5F5F6469 		.ascii	"__disable_irq\000"
 4433      7361626C 
 4433      655F6972 
 4433      7100
 4434              	.LASF93:
 4435 0269 5F426F6F 		.ascii	"_Bool\000"
 4435      6C00
 4436              	.LASF134:
 4437 026f 6F715265 		.ascii	"oqResetI\000"
 4437      73657449 
 4437      00
 4438              	.LASF87:
 4439 0278 63685F6D 		.ascii	"ch_mutex\000"
 4439      75746578 
 4439      00
 4440              	.LASF13:
 4441 0281 5F5F7569 		.ascii	"__uint64_t\000"
 4441      6E743634 
 4441      5F7400
 4442              	.LASF124:
 4443 028c 69714F62 		.ascii	"iqObjectInit\000"
 4443      6A656374 
 4443      496E6974 
 4443      00
 4444              	.LASF102:
 4445 0299 715F6E6F 		.ascii	"q_notify\000"
 4445      74696679 
 4445      00
 4446              	.LASF114:
 4447 02a2 63685379 		.ascii	"chSysLock\000"
 4447      734C6F63 
 4447      6B00
 4448              	.LASF33:
 4449 02ac 705F6E61 		.ascii	"p_name\000"
 4449      6D6500
 4450              	.LASF137:
ARM GAS  /tmp/ccI5eHJN.s 			page 139


 4451 02b3 6F715772 		.ascii	"oqWriteTimeout\000"
 4451      69746554 
 4451      696D656F 
 4451      757400
 4452              	.LASF58:
 4453 02c2 76745F64 		.ascii	"vt_delta\000"
 4453      656C7461 
 4453      00
 4454              	.LASF39:
 4455 02cb 74687265 		.ascii	"thread_reference_t\000"
 4455      61645F72 
 4455      65666572 
 4455      656E6365 
 4455      5F7400
 4456              	.LASF63:
 4457 02de 76745F6C 		.ascii	"vt_lasttime\000"
 4457      61737474 
 4457      696D6500 
 4458              	.LASF100:
 4459 02ea 715F7772 		.ascii	"q_wrptr\000"
 4459      70747200 
 4460              	.LASF21:
 4461 02f2 74737461 		.ascii	"tstate_t\000"
 4461      74655F74 
 4461      00
 4462              	.LASF32:
 4463 02fb 705F6F6C 		.ascii	"p_older\000"
 4463      64657200 
 4464              	.LASF34:
 4465 0303 705F7374 		.ascii	"p_state\000"
 4465      61746500 
 4466              	.LASF15:
 4467 030b 75696E74 		.ascii	"uint8_t\000"
 4467      385F7400 
 4468              	.LASF132:
 4469 0313 6F714F62 		.ascii	"oqObjectInit\000"
 4469      6A656374 
 4469      496E6974 
 4469      00
 4470              	.LASF105:
 4471 0320 696E7075 		.ascii	"input_queue_t\000"
 4471      745F7175 
 4471      6575655F 
 4471      7400
 4472              	.LASF37:
 4473 032e 705F6D74 		.ascii	"p_mtxlist\000"
 4473      786C6973 
 4473      7400
 4474              	.LASF41:
 4475 0338 63685F74 		.ascii	"ch_thread\000"
 4475      68726561 
 4475      6400
 4476              	.LASF64:
 4477 0342 73797374 		.ascii	"system_debug_t\000"
 4477      656D5F64 
 4477      65627567 
 4477      5F7400
ARM GAS  /tmp/ccI5eHJN.s 			page 140


 4478              	.LASF12:
 4479 0351 6C6F6E67 		.ascii	"long long int\000"
 4479      206C6F6E 
 4479      6720696E 
 4479      7400
 4480              	.LASF98:
 4481 035f 715F6275 		.ascii	"q_buffer\000"
 4481      66666572 
 4481      00
 4482              	.LASF47:
 4483 0368 725F7175 		.ascii	"r_queue\000"
 4483      65756500 
 4484              	.LASF50:
 4485 0370 725F6E65 		.ascii	"r_newer\000"
 4485      77657200 
 4486              	.LASF23:
 4487 0378 6D73675F 		.ascii	"msg_t\000"
 4487      7400
 4488              	.LASF76:
 4489 037e 636F6E74 		.ascii	"context\000"
 4489      65787400 
 4490              	.LASF35:
 4491 0386 705F666C 		.ascii	"p_flags\000"
 4491      61677300 
 4492              	.LASF54:
 4493 038e 76697274 		.ascii	"virtual_timer_t\000"
 4493      75616C5F 
 4493      74696D65 
 4493      725F7400 
 4494              	.LASF106:
 4495 039e 6F757470 		.ascii	"output_queue_t\000"
 4495      75745F71 
 4495      75657565 
 4495      5F7400
 4496              	.LASF130:
 4497 03ad 5F5F6675 		.ascii	"__func__.4864\000"
 4497      6E635F5F 
 4497      2E343836 
 4497      3400
 4498              	.LASF139:
 4499 03bb 474E5520 		.ascii	"GNU C 4.8.4 20141219 (release) -mcpu=cortex-m0 -mno"
 4499      4320342E 
 4499      382E3420 
 4499      32303134 
 4499      31323139 
 4500 03ee 2D746875 		.ascii	"-thumb-interwork -mthumb -ggdb -O0 -fomit-frame-poi"
 4500      6D622D69 
 4500      6E746572 
 4500      776F726B 
 4500      202D6D74 
 4501 0421 6E746572 		.ascii	"nter -falign-functions=16 -ffunction-sections -fdat"
 4501      202D6661 
 4501      6C69676E 
 4501      2D66756E 
 4501      6374696F 
 4502 0454 612D7365 		.ascii	"a-sections -fno-common -flto\000"
 4502      6374696F 
ARM GAS  /tmp/ccI5eHJN.s 			page 141


 4502      6E73202D 
 4502      666E6F2D 
 4502      636F6D6D 
 4503              	.LASF51:
 4504 0471 725F6F6C 		.ascii	"r_older\000"
 4504      64657200 
 4505              	.LASF122:
 4506 0479 696E6679 		.ascii	"infy\000"
 4506      00
 4507              	.LASF66:
 4508 047e 70616E69 		.ascii	"panic_msg\000"
 4508      635F6D73 
 4508      6700
 4509              	.LASF20:
 4510 0488 746D6F64 		.ascii	"tmode_t\000"
 4510      655F7400 
 4511              	.LASF141:
 4512 0490 6F73616C 		.ascii	"osalThreadEnqueueTimeoutS\000"
 4512      54687265 
 4512      6164456E 
 4512      71756575 
 4512      6554696D 
 4513              	.LASF71:
 4514 04aa 6D61696E 		.ascii	"mainthread\000"
 4514      74687265 
 4514      616400
 4515              	.LASF16:
 4516 04b5 75696E74 		.ascii	"uint16_t\000"
 4516      31365F74 
 4516      00
 4517              	.LASF128:
 4518 04be 74696D65 		.ascii	"timeout\000"
 4518      6F757400 
 4519              	.LASF38:
 4520 04c6 705F7265 		.ascii	"p_realprio\000"
 4520      616C7072 
 4520      696F00
 4521              	.LASF5:
 4522 04d1 73686F72 		.ascii	"short int\000"
 4522      7420696E 
 4522      7400
 4523              	.LASF52:
 4524 04db 725F6375 		.ascii	"r_current\000"
 4524      7272656E 
 4524      7400
 4525              	.LASF88:
 4526 04e5 6D5F7175 		.ascii	"m_queue\000"
 4526      65756500 
 4527              	.LASF9:
 4528 04ed 6C6F6E67 		.ascii	"long int\000"
 4528      20696E74 
 4528      00
 4529              	.LASF77:
 4530 04f6 706F7274 		.ascii	"port_intctx\000"
 4530      5F696E74 
 4530      63747800 
 4531              	.LASF108:
ARM GAS  /tmp/ccI5eHJN.s 			page 142


 4532 0502 5F5F656E 		.ascii	"__enable_irq\000"
 4532      61626C65 
 4532      5F697271 
 4532      00
 4533              	.LASF68:
 4534 050f 63685F73 		.ascii	"ch_system\000"
 4534      79737465 
 4534      6D00
 4535              	.LASF27:
 4536 0519 705F6E65 		.ascii	"p_next\000"
 4536      787400
 4537              	.LASF135:
 4538 0520 6F715075 		.ascii	"oqPutTimeout\000"
 4538      7454696D 
 4538      656F7574 
 4538      00
 4539              	.LASF19:
 4540 052d 75696E74 		.ascii	"uint64_t\000"
 4540      36345F74 
 4540      00
 4541              	.LASF30:
 4542 0536 705F6374 		.ascii	"p_ctx\000"
 4542      7800
 4543              	.LASF69:
 4544 053c 726C6973 		.ascii	"rlist\000"
 4544      7400
 4545              	.LASF3:
 4546 0542 5F5F7569 		.ascii	"__uint8_t\000"
 4546      6E74385F 
 4546      7400
 4547              	.LASF97:
 4548 054c 715F636F 		.ascii	"q_counter\000"
 4548      756E7465 
 4548      7200
 4549              	.LASF99:
 4550 0556 715F746F 		.ascii	"q_top\000"
 4550      7000
 4551              	.LASF28:
 4552 055c 705F7072 		.ascii	"p_prev\000"
 4552      657600
 4553              	.LASF73:
 4554 0563 73697A65 		.ascii	"sizetype\000"
 4554      74797065 
 4554      00
 4555              	.LASF11:
 4556 056c 6C6F6E67 		.ascii	"long unsigned int\000"
 4556      20756E73 
 4556      69676E65 
 4556      6420696E 
 4556      7400
 4557              	.LASF45:
 4558 057e 72656164 		.ascii	"ready_list_t\000"
 4558      795F6C69 
 4558      73745F74 
 4558      00
 4559              	.LASF115:
 4560 058b 6F73616C 		.ascii	"osalSysLock\000"
ARM GAS  /tmp/ccI5eHJN.s 			page 143


 4560      5379734C 
 4560      6F636B00 
 4561              	.LASF17:
 4562 0597 696E7433 		.ascii	"int32_t\000"
 4562      325F7400 
 4563              	.LASF138:
 4564 059f 5F5F6675 		.ascii	"__func__.5810\000"
 4564      6E635F5F 
 4564      2E353831 
 4564      3000
 4565              	.LASF131:
 4566 05ad 5F5F6675 		.ascii	"__func__.5774\000"
 4566      6E635F5F 
 4566      2E353737 
 4566      3400
 4567              	.LASF82:
 4568 05bb 77747365 		.ascii	"wtsemp\000"
 4568      6D7000
 4569              	.LASF92:
 4570 05c2 6D757465 		.ascii	"mutex_t\000"
 4570      785F7400 
 4571              	.LASF111:
 4572 05ca 71756575 		.ascii	"queue_init\000"
 4572      655F696E 
 4572      697400
 4573              	.LASF4:
 4574 05d5 756E7369 		.ascii	"unsigned char\000"
 4574      676E6564 
 4574      20636861 
 4574      7200
 4575              	.LASF10:
 4576 05e3 5F5F7569 		.ascii	"__uint32_t\000"
 4576      6E743332 
 4576      5F7400
 4577              	.LASF61:
 4578 05ee 76697274 		.ascii	"virtual_timers_list_t\000"
 4578      75616C5F 
 4578      74696D65 
 4578      72735F6C 
 4578      6973745F 
 4579              	.LASF123:
 4580 0604 6C696E6B 		.ascii	"link\000"
 4580      00
 4581              	.LASF127:
 4582 0609 69714765 		.ascii	"iqGetTimeout\000"
 4582      7454696D 
 4582      656F7574 
 4582      00
 4583              	.LASF56:
 4584 0616 76745F6E 		.ascii	"vt_next\000"
 4584      65787400 
 4585              	.LASF67:
 4586 061e 63685F73 		.ascii	"ch_system_t\000"
 4586      79737465 
 4586      6D5F7400 
 4587              	.LASF81:
 4588 062a 77747472 		.ascii	"wttrp\000"
ARM GAS  /tmp/ccI5eHJN.s 			page 144


 4588      7000
 4589              	.LASF90:
 4590 0630 6D5F6E65 		.ascii	"m_next\000"
 4590      787400
 4591              	.LASF1:
 4592 0637 7369676E 		.ascii	"signed char\000"
 4592      65642063 
 4592      68617200 
 4593              	.LASF95:
 4594 0643 696F5F71 		.ascii	"io_queue\000"
 4594      75657565 
 4594      00
 4595              	.LASF126:
 4596 064c 69715075 		.ascii	"iqPutI\000"
 4596      744900
 4597              	.LASF7:
 4598 0653 73686F72 		.ascii	"short unsigned int\000"
 4598      7420756E 
 4598      7369676E 
 4598      65642069 
 4598      6E7400
 4599              	.LASF49:
 4600 0666 725F6374 		.ascii	"r_ctx\000"
 4600      7800
 4601              	.LASF75:
 4602 066c 73746B61 		.ascii	"stkalign_t\000"
 4602      6C69676E 
 4602      5F7400
 4603              	.LASF59:
 4604 0677 76745F66 		.ascii	"vt_func\000"
 4604      756E6300 
 4605              	.LASF110:
 4606 067f 706F7274 		.ascii	"port_unlock\000"
 4606      5F756E6C 
 4606      6F636B00 
 4607              	.LASF57:
 4608 068b 76745F70 		.ascii	"vt_prev\000"
 4608      72657600 
 4609              	.LASF119:
 4610 0693 6F73616C 		.ascii	"osalThreadDequeueNextI\000"
 4610      54687265 
 4610      61644465 
 4610      71756575 
 4610      654E6578 
 4611              	.LASF79:
 4612 06aa 65786974 		.ascii	"exitcode\000"
 4612      636F6465 
 4612      00
 4613              	.LASF31:
 4614 06b3 705F6E65 		.ascii	"p_newer\000"
 4614      77657200 
 4615              	.LASF136:
 4616 06bb 6F714765 		.ascii	"oqGetI\000"
 4616      744900
 4617              		.comm	__gnu_lto_v1,1,1
 4618              		.ident	"GCC: (4.8.4-1+11-1) 4.8.4 20141219 (release)"
ARM GAS  /tmp/ccI5eHJN.s 			page 145


DEFINED SYMBOLS
                            *ABS*:0000000000000000 hal_queues.c
     /tmp/ccI5eHJN.s:953    .text.port_lock:0000000000000000 $t
     /tmp/ccI5eHJN.s:958    .text.port_lock:0000000000000000 port_lock
     /tmp/ccI5eHJN.s:980    .text.port_unlock:0000000000000000 $t
     /tmp/ccI5eHJN.s:985    .text.port_unlock:0000000000000000 port_unlock
     /tmp/ccI5eHJN.s:1005   .text.queue_init:0000000000000000 $t
     /tmp/ccI5eHJN.s:1010   .text.queue_init:0000000000000000 queue_init
     /tmp/ccI5eHJN.s:1034   .text.chSysLock:0000000000000000 $t
     /tmp/ccI5eHJN.s:1039   .text.chSysLock:0000000000000000 chSysLock
     /tmp/ccI5eHJN.s:1057   .text.chSysUnlock:0000000000000000 $t
     /tmp/ccI5eHJN.s:1062   .text.chSysUnlock:0000000000000000 chSysUnlock
     /tmp/ccI5eHJN.s:1079   .text.chThdQueueObjectInit:0000000000000000 $t
     /tmp/ccI5eHJN.s:1084   .text.chThdQueueObjectInit:0000000000000000 chThdQueueObjectInit
     /tmp/ccI5eHJN.s:1107   .text.osalSysLock:0000000000000000 $t
     /tmp/ccI5eHJN.s:1112   .text.osalSysLock:0000000000000000 osalSysLock
     /tmp/ccI5eHJN.s:1130   .text.osalSysUnlock:0000000000000000 $t
     /tmp/ccI5eHJN.s:1135   .text.osalSysUnlock:0000000000000000 osalSysUnlock
     /tmp/ccI5eHJN.s:1152   .text.osalThreadQueueObjectInit:0000000000000000 $t
     /tmp/ccI5eHJN.s:1157   .text.osalThreadQueueObjectInit:0000000000000000 osalThreadQueueObjectInit
     /tmp/ccI5eHJN.s:1179   .text.osalThreadEnqueueTimeoutS:0000000000000000 $t
     /tmp/ccI5eHJN.s:1184   .text.osalThreadEnqueueTimeoutS:0000000000000000 osalThreadEnqueueTimeoutS
     /tmp/ccI5eHJN.s:1216   .text.osalThreadDequeueNextI:0000000000000000 $t
     /tmp/ccI5eHJN.s:1221   .text.osalThreadDequeueNextI:0000000000000000 osalThreadDequeueNextI
     /tmp/ccI5eHJN.s:1246   .text.osalThreadDequeueAllI:0000000000000000 $t
     /tmp/ccI5eHJN.s:1251   .text.osalThreadDequeueAllI:0000000000000000 osalThreadDequeueAllI
     /tmp/ccI5eHJN.s:1276   .text.iqObjectInit:0000000000000000 $t
     /tmp/ccI5eHJN.s:1282   .text.iqObjectInit:0000000000000000 iqObjectInit
     /tmp/ccI5eHJN.s:1338   .text.iqResetI:0000000000000000 $t
     /tmp/ccI5eHJN.s:1344   .text.iqResetI:0000000000000000 iqResetI
     /tmp/ccI5eHJN.s:1383   .text.iqPutI:0000000000000000 $t
     /tmp/ccI5eHJN.s:1389   .text.iqPutI:0000000000000000 iqPutI
     /tmp/ccI5eHJN.s:1480   .text.iqGetTimeout:0000000000000000 $t
     /tmp/ccI5eHJN.s:1486   .text.iqGetTimeout:0000000000000000 iqGetTimeout
     /tmp/ccI5eHJN.s:1590   .text.iqReadTimeout:0000000000000000 $t
     /tmp/ccI5eHJN.s:1596   .text.iqReadTimeout:0000000000000000 iqReadTimeout
     /tmp/ccI5eHJN.s:1719   .text.oqObjectInit:0000000000000000 $t
     /tmp/ccI5eHJN.s:1725   .text.oqObjectInit:0000000000000000 oqObjectInit
     /tmp/ccI5eHJN.s:1780   .text.oqResetI:0000000000000000 $t
     /tmp/ccI5eHJN.s:1786   .text.oqResetI:0000000000000000 oqResetI
     /tmp/ccI5eHJN.s:1831   .text.oqPutTimeout:0000000000000000 $t
     /tmp/ccI5eHJN.s:1837   .text.oqPutTimeout:0000000000000000 oqPutTimeout
     /tmp/ccI5eHJN.s:1938   .text.oqGetI:0000000000000000 $t
     /tmp/ccI5eHJN.s:1944   .text.oqGetI:0000000000000000 oqGetI
     /tmp/ccI5eHJN.s:2033   .text.oqWriteTimeout:0000000000000000 $t
     /tmp/ccI5eHJN.s:2039   .text.oqWriteTimeout:0000000000000000 oqWriteTimeout
                            *COM*:0000000000000001 __gnu_lto_v1
                     .debug_frame:0000000000000010 $d

UNDEFINED SYMBOLS
chThdEnqueueTimeoutS
chThdDequeueNextI
chThdDequeueAllI
