ARM GAS  /tmp/ccoNENpV.s 			page 1


   1              		.syntax unified
   2              		.cpu cortex-m4
   3              		.fpu softvfp
   4              		.eabi_attribute 20, 1
   5              		.eabi_attribute 21, 1
   6              		.eabi_attribute 23, 3
   7              		.eabi_attribute 24, 1
   8              		.eabi_attribute 25, 1
   9              		.eabi_attribute 26, 1
  10              		.eabi_attribute 30, 6
  11              		.eabi_attribute 34, 1
  12              		.eabi_attribute 18, 4
  13              		.thumb
  14              		.file	"main.c"
  15              		.text
  16              	.Ltext0:
  17              		.cfi_sections	.debug_frame
  18              		.section	.text.prepareForSend,"ax",%progbits
  19              		.align	2
  20              		.p2align 4,,15
  21              		.global	prepareForSend
  22              		.thumb
  23              		.thumb_func
  24              		.type	prepareForSend, %function
  25              	prepareForSend:
  26              	.LFB271:
  27              		.file 1 "main.c"
  28              		.loc 1 13 0
  29              		.cfi_startproc
  30              		@ args = 0, pretend = 0, frame = 16
  31              		@ frame_needed = 0, uses_anonymous_args = 0
  32 0000 00B5     		push	{lr}
  33              		.cfi_def_cfa_offset 4
  34              		.cfi_offset 14, -4
  35 0002 85B0     		sub	sp, sp, #20
  36              		.cfi_def_cfa_offset 24
  37 0004 0190     		str	r0, [sp, #4]
  38 0006 0B46     		mov	r3, r1
  39 0008 8DF80330 		strb	r3, [sp, #3]
  40              		.loc 1 14 0
  41 000c 0198     		ldr	r0, [sp, #4]
  42 000e 0421     		movs	r1, #4
  43 0010 FFF7FEFF 		bl	crcFast
  44 0014 0346     		mov	r3, r0
  45 0016 ADF80E30 		strh	r3, [sp, #14]	@ movhi
  46              		.loc 1 15 0
  47 001a 019B     		ldr	r3, [sp, #4]
  48 001c 0122     		movs	r2, #1
  49 001e 1A70     		strb	r2, [r3]
  50              		.loc 1 16 0
  51 0020 019B     		ldr	r3, [sp, #4]
  52 0022 0133     		adds	r3, r3, #1
  53 0024 F022     		movs	r2, #240
  54 0026 1A70     		strb	r2, [r3]
  55              		.loc 1 17 0
  56 0028 019B     		ldr	r3, [sp, #4]
  57 002a 0233     		adds	r3, r3, #2
ARM GAS  /tmp/ccoNENpV.s 			page 2


  58 002c 1022     		movs	r2, #16
  59 002e 1A70     		strb	r2, [r3]
  60              		.loc 1 18 0
  61 0030 019B     		ldr	r3, [sp, #4]
  62 0032 0333     		adds	r3, r3, #3
  63 0034 9DF80320 		ldrb	r2, [sp, #3]
  64 0038 1A70     		strb	r2, [r3]
  65              		.loc 1 19 0
  66 003a 019B     		ldr	r3, [sp, #4]
  67 003c 0433     		adds	r3, r3, #4
  68 003e BDF80E20 		ldrh	r2, [sp, #14]
  69 0042 120A     		lsrs	r2, r2, #8
  70 0044 92B2     		uxth	r2, r2
  71 0046 D2B2     		uxtb	r2, r2
  72 0048 1A70     		strb	r2, [r3]
  73              		.loc 1 20 0
  74 004a 019B     		ldr	r3, [sp, #4]
  75 004c 0533     		adds	r3, r3, #5
  76 004e BDF80E20 		ldrh	r2, [sp, #14]	@ movhi
  77 0052 D2B2     		uxtb	r2, r2
  78 0054 1A70     		strb	r2, [r3]
  79              		.loc 1 21 0
  80 0056 019B     		ldr	r3, [sp, #4]
  81 0058 0633     		adds	r3, r3, #6
  82 005a 0422     		movs	r2, #4
  83 005c 1A70     		strb	r2, [r3]
  84              		.loc 1 22 0
  85 005e 00BF     		nop
  86              		.loc 1 23 0
  87 0060 05B0     		add	sp, sp, #20
  88              		@ sp needed
  89 0062 5DF804FB 		ldr	pc, [sp], #4
  90              		.cfi_endproc
  91              	.LFE271:
  92              		.size	prepareForSend, .-prepareForSend
  93 0066 00BFAFF3 		.section	.text.main,"ax",%progbits
  93      0080AFF3 
  93      0080
  94              		.align	2
  95              		.p2align 4,,15
  96              		.global	main
  97              		.thumb
  98              		.thumb_func
  99              		.type	main, %function
 100              	main:
 101              	.LFB272:
 102              		.loc 1 26 0
 103              		.cfi_startproc
 104              		@ args = 0, pretend = 0, frame = 8
 105              		@ frame_needed = 0, uses_anonymous_args = 0
 106 0000 00B5     		push	{lr}
 107              		.cfi_def_cfa_offset 4
 108              		.cfi_offset 14, -4
 109 0002 83B0     		sub	sp, sp, #12
 110              		.cfi_def_cfa_offset 16
 111              		.loc 1 27 0
 112 0004 FFF7FEFF 		bl	halInit
ARM GAS  /tmp/ccoNENpV.s 			page 3


 113              		.loc 1 28 0
 114 0008 FFF7FEFF 		bl	chSysInit
 115              		.loc 1 29 0
 116 000c FFF7FEFF 		bl	crcInit
 117              		.loc 1 35 0
 118 0010 2048     		ldr	r0, .L6
 119 0012 FF21     		movs	r1, #255
 120 0014 2022     		movs	r2, #32
 121 0016 FFF7FEFF 		bl	_pal_lld_setgroupmode
 122              		.loc 1 37 0
 123 001a 1F48     		ldr	r0, .L6+4
 124 001c 4FF48061 		mov	r1, #1024
 125 0020 40F28232 		movw	r2, #898
 126 0024 FFF7FEFF 		bl	_pal_lld_setgroupmode
 127              		.loc 1 38 0
 128 0028 1B48     		ldr	r0, .L6+4
 129 002a 4FF40061 		mov	r1, #2048
 130 002e 40F28232 		movw	r2, #898
 131 0032 FFF7FEFF 		bl	_pal_lld_setgroupmode
 132              		.loc 1 41 0
 133 0036 1948     		ldr	r0, .L6+8
 134 0038 0021     		movs	r1, #0
 135 003a FFF7FEFF 		bl	sdStart
 136              	.L5:
 137              		.loc 1 46 0
 138 003e 154B     		ldr	r3, .L6
 139 0040 1B69     		ldr	r3, [r3, #16]
 140 0042 8DF80730 		strb	r3, [sp, #7]
 141              		.loc 1 47 0
 142 0046 9DF80730 		ldrb	r3, [sp, #7]	@ zero_extendqisi2
 143 004a FF2B     		cmp	r3, #255
 144 004c 1DD0     		beq	.L4
 145              		.loc 1 50 0
 146 004e 9DF80730 		ldrb	r3, [sp, #7]
 147 0052 8DF80030 		strb	r3, [sp]
 148              		.loc 1 51 0
 149 0056 0023     		movs	r3, #0
 150 0058 8DF80130 		strb	r3, [sp, #1]
 151              		.loc 1 52 0
 152 005c 0023     		movs	r3, #0
 153 005e 8DF80230 		strb	r3, [sp, #2]
 154              		.loc 1 53 0
 155 0062 0023     		movs	r3, #0
 156 0064 8DF80330 		strb	r3, [sp, #3]
 157              		.loc 1 54 0
 158 0068 0023     		movs	r3, #0
 159 006a 8DF80430 		strb	r3, [sp, #4]
 160              		.loc 1 55 0
 161 006e 0023     		movs	r3, #0
 162 0070 8DF80530 		strb	r3, [sp, #5]
 163              		.loc 1 56 0
 164 0074 0023     		movs	r3, #0
 165 0076 8DF80630 		strb	r3, [sp, #6]
 166              		.loc 1 57 0
 167 007a 6B46     		mov	r3, sp
 168 007c 0848     		ldr	r0, .L6+12
 169 007e 1946     		mov	r1, r3
ARM GAS  /tmp/ccoNENpV.s 			page 4


 170 0080 0722     		movs	r2, #7
 171 0082 4FF0FF33 		mov	r3, #-1
 172 0086 FFF7FEFF 		bl	chOQWriteTimeout
 173              	.L4:
 174              		.loc 1 59 0
 175 008a 3220     		movs	r0, #50
 176 008c FFF7FEFF 		bl	chThdSleep
 177              		.loc 1 60 0
 178 0090 D5E7     		b	.L5
 179              	.L7:
 180 0092 00BF     		.align	2
 181              	.L6:
 182 0094 00000240 		.word	1073872896
 183 0098 00040240 		.word	1073873920
 184 009c 00000000 		.word	SD3
 185 00a0 30000000 		.word	SD3+48
 186              		.cfi_endproc
 187              	.LFE272:
 188              		.size	main, .-main
 189 00a4 AFF30080 		.text
 189      AFF30080 
 189      AFF30080 
 190              	.Letext0:
 191              		.file 2 "/usr/lib/gcc/arm-none-eabi/4.8/include/stddef.h"
 192              		.file 3 "/usr/include/newlib/machine/_default_types.h"
 193              		.file 4 "/usr/include/newlib/stdint.h"
 194              		.file 5 "/home/efe/ChibiOS/os/rt/ports/ARMCMx/compilers/GCC/chtypes.h"
 195              		.file 6 "/home/efe/ChibiOS/os/rt/include/chsystypes.h"
 196              		.file 7 "/home/efe/ChibiOS/os/rt/include/chschd.h"
 197              		.file 8 "/home/efe/ChibiOS/os/ext/CMSIS/ST/stm32f407xx.h"
 198              		.file 9 "/home/efe/ChibiOS/os/rt/ports/ARMCMx/chcore.h"
 199              		.file 10 "/home/efe/ChibiOS/os/rt/ports/ARMCMx/chcore_v7m.h"
 200              		.file 11 "/home/efe/ChibiOS/os/rt/include/chtm.h"
 201              		.file 12 "/home/efe/ChibiOS/os/rt/include/chsem.h"
 202              		.file 13 "/home/efe/ChibiOS/os/rt/include/chmtx.h"
 203              		.file 14 "/home/efe/ChibiOS/os/rt/include/chevents.h"
 204              		.file 15 "/home/efe/ChibiOS/os/rt/include/chqueues.h"
 205              		.file 16 "/home/efe/ChibiOS/os/hal/ports/STM32/LLD/GPIOv2/pal_lld.h"
 206              		.file 17 "/home/efe/ChibiOS/os/hal/include/serial.h"
 207              		.file 18 "/home/efe/ChibiOS/os/hal/ports/STM32/LLD/USARTv1/serial_lld.h"
 208              		.file 19 "/home/efe/ChibiOS/os/ext/CMSIS/include/core_cm4.h"
 209              		.section	.debug_info,"",%progbits
 210              	.Ldebug_info0:
 211 0000 A90B0000 		.4byte	0xba9
 212 0004 0400     		.2byte	0x4
 213 0006 00000000 		.4byte	.Ldebug_abbrev0
 214 000a 04       		.byte	0x4
 215 000b 01       		.uleb128 0x1
 216 000c 64010000 		.4byte	.LASF163
 217 0010 01       		.byte	0x1
 218 0011 42040000 		.4byte	.LASF164
 219 0015 51040000 		.4byte	.LASF165
 220 0019 00000000 		.4byte	.Ldebug_ranges0+0
 221 001d 00000000 		.4byte	0
 222 0021 00000000 		.4byte	.Ldebug_line0
 223 0025 02       		.uleb128 0x2
 224 0026 04       		.byte	0x4
ARM GAS  /tmp/ccoNENpV.s 			page 5


 225 0027 05       		.byte	0x5
 226 0028 696E7400 		.ascii	"int\000"
 227 002c 03       		.uleb128 0x3
 228 002d 0D000000 		.4byte	.LASF2
 229 0031 02       		.byte	0x2
 230 0032 D4       		.byte	0xd4
 231 0033 37000000 		.4byte	0x37
 232 0037 04       		.uleb128 0x4
 233 0038 04       		.byte	0x4
 234 0039 07       		.byte	0x7
 235 003a 8D020000 		.4byte	.LASF0
 236 003e 04       		.uleb128 0x4
 237 003f 01       		.byte	0x1
 238 0040 06       		.byte	0x6
 239 0041 EB000000 		.4byte	.LASF1
 240 0045 03       		.uleb128 0x3
 241 0046 24000000 		.4byte	.LASF3
 242 004a 03       		.byte	0x3
 243 004b 1D       		.byte	0x1d
 244 004c 50000000 		.4byte	0x50
 245 0050 04       		.uleb128 0x4
 246 0051 01       		.byte	0x1
 247 0052 08       		.byte	0x8
 248 0053 DA040000 		.4byte	.LASF4
 249 0057 04       		.uleb128 0x4
 250 0058 02       		.byte	0x2
 251 0059 05       		.byte	0x5
 252 005a 07050000 		.4byte	.LASF5
 253 005e 03       		.uleb128 0x3
 254 005f E1050000 		.4byte	.LASF6
 255 0063 03       		.byte	0x3
 256 0064 2B       		.byte	0x2b
 257 0065 69000000 		.4byte	0x69
 258 0069 04       		.uleb128 0x4
 259 006a 02       		.byte	0x2
 260 006b 07       		.byte	0x7
 261 006c F4020000 		.4byte	.LASF7
 262 0070 03       		.uleb128 0x3
 263 0071 73030000 		.4byte	.LASF8
 264 0075 03       		.byte	0x3
 265 0076 3F       		.byte	0x3f
 266 0077 7B000000 		.4byte	0x7b
 267 007b 04       		.uleb128 0x4
 268 007c 04       		.byte	0x4
 269 007d 05       		.byte	0x5
 270 007e 33010000 		.4byte	.LASF9
 271 0082 03       		.uleb128 0x3
 272 0083 1A060000 		.4byte	.LASF10
 273 0087 03       		.byte	0x3
 274 0088 41       		.byte	0x41
 275 0089 8D000000 		.4byte	0x8d
 276 008d 04       		.uleb128 0x4
 277 008e 04       		.byte	0x4
 278 008f 07       		.byte	0x7
 279 0090 BB050000 		.4byte	.LASF11
 280 0094 04       		.uleb128 0x4
 281 0095 08       		.byte	0x8
ARM GAS  /tmp/ccoNENpV.s 			page 6


 282 0096 05       		.byte	0x5
 283 0097 DD000000 		.4byte	.LASF12
 284 009b 03       		.uleb128 0x3
 285 009c 78040000 		.4byte	.LASF13
 286 00a0 03       		.byte	0x3
 287 00a1 5B       		.byte	0x5b
 288 00a2 A6000000 		.4byte	0xa6
 289 00a6 04       		.uleb128 0x4
 290 00a7 08       		.byte	0x8
 291 00a8 07       		.byte	0x7
 292 00a9 56000000 		.4byte	.LASF14
 293 00ad 03       		.uleb128 0x3
 294 00ae CB060000 		.4byte	.LASF15
 295 00b2 04       		.byte	0x4
 296 00b3 2A       		.byte	0x2a
 297 00b4 45000000 		.4byte	0x45
 298 00b8 03       		.uleb128 0x3
 299 00b9 A2020000 		.4byte	.LASF16
 300 00bd 04       		.byte	0x4
 301 00be 36       		.byte	0x36
 302 00bf 5E000000 		.4byte	0x5e
 303 00c3 03       		.uleb128 0x3
 304 00c4 D2040000 		.4byte	.LASF17
 305 00c8 04       		.byte	0x4
 306 00c9 41       		.byte	0x41
 307 00ca 70000000 		.4byte	0x70
 308 00ce 03       		.uleb128 0x3
 309 00cf 85060000 		.4byte	.LASF18
 310 00d3 04       		.byte	0x4
 311 00d4 42       		.byte	0x42
 312 00d5 82000000 		.4byte	0x82
 313 00d9 03       		.uleb128 0x3
 314 00da 1B000000 		.4byte	.LASF19
 315 00de 04       		.byte	0x4
 316 00df 4E       		.byte	0x4e
 317 00e0 9B000000 		.4byte	0x9b
 318 00e4 05       		.uleb128 0x5
 319 00e5 C3000000 		.4byte	0xc3
 320 00e9 05       		.uleb128 0x5
 321 00ea CE000000 		.4byte	0xce
 322 00ee 03       		.uleb128 0x3
 323 00ef 60060000 		.4byte	.LASF20
 324 00f3 05       		.byte	0x5
 325 00f4 45       		.byte	0x45
 326 00f5 CE000000 		.4byte	0xce
 327 00f9 03       		.uleb128 0x3
 328 00fa 51030000 		.4byte	.LASF21
 329 00fe 05       		.byte	0x5
 330 00ff 48       		.byte	0x48
 331 0100 AD000000 		.4byte	0xad
 332 0104 03       		.uleb128 0x3
 333 0105 3C010000 		.4byte	.LASF22
 334 0109 05       		.byte	0x5
 335 010a 49       		.byte	0x49
 336 010b AD000000 		.4byte	0xad
 337 010f 03       		.uleb128 0x3
 338 0110 8D040000 		.4byte	.LASF23
ARM GAS  /tmp/ccoNENpV.s 			page 7


 339 0114 05       		.byte	0x5
 340 0115 4A       		.byte	0x4a
 341 0116 AD000000 		.4byte	0xad
 342 011a 03       		.uleb128 0x3
 343 011b AC040000 		.4byte	.LASF24
 344 011f 05       		.byte	0x5
 345 0120 4C       		.byte	0x4c
 346 0121 CE000000 		.4byte	0xce
 347 0125 03       		.uleb128 0x3
 348 0126 1B030000 		.4byte	.LASF25
 349 012a 05       		.byte	0x5
 350 012b 4D       		.byte	0x4d
 351 012c C3000000 		.4byte	0xc3
 352 0130 03       		.uleb128 0x3
 353 0131 67030000 		.4byte	.LASF26
 354 0135 05       		.byte	0x5
 355 0136 4F       		.byte	0x4f
 356 0137 CE000000 		.4byte	0xce
 357 013b 03       		.uleb128 0x3
 358 013c 78060000 		.4byte	.LASF27
 359 0140 05       		.byte	0x5
 360 0141 50       		.byte	0x50
 361 0142 CE000000 		.4byte	0xce
 362 0146 03       		.uleb128 0x3
 363 0147 81020000 		.4byte	.LASF28
 364 014b 05       		.byte	0x5
 365 014c 51       		.byte	0x51
 366 014d C3000000 		.4byte	0xc3
 367 0151 03       		.uleb128 0x3
 368 0152 FC050000 		.4byte	.LASF29
 369 0156 06       		.byte	0x6
 370 0157 33       		.byte	0x33
 371 0158 CE000000 		.4byte	0xce
 372 015c 03       		.uleb128 0x3
 373 015d EC050000 		.4byte	.LASF30
 374 0161 06       		.byte	0x6
 375 0162 3F       		.byte	0x3f
 376 0163 67010000 		.4byte	0x167
 377 0167 06       		.uleb128 0x6
 378 0168 07030000 		.4byte	.LASF50
 379 016c 44       		.byte	0x44
 380 016d 07       		.byte	0x7
 381 016e C2       		.byte	0xc2
 382 016f 54020000 		.4byte	0x254
 383 0173 07       		.uleb128 0x7
 384 0174 27050000 		.4byte	.LASF31
 385 0178 07       		.byte	0x7
 386 0179 C3       		.byte	0xc3
 387 017a 5F020000 		.4byte	0x25f
 388 017e 00       		.byte	0
 389 017f 07       		.uleb128 0x7
 390 0180 A5040000 		.4byte	.LASF32
 391 0184 07       		.byte	0x7
 392 0185 C5       		.byte	0xc5
 393 0186 5F020000 		.4byte	0x25f
 394 018a 04       		.byte	0x4
 395 018b 07       		.uleb128 0x7
ARM GAS  /tmp/ccoNENpV.s 			page 8


 396 018c C6000000 		.4byte	.LASF33
 397 0190 07       		.byte	0x7
 398 0191 C7       		.byte	0xc7
 399 0192 1A010000 		.4byte	0x11a
 400 0196 08       		.byte	0x8
 401 0197 07       		.uleb128 0x7
 402 0198 03070000 		.4byte	.LASF34
 403 019c 07       		.byte	0x7
 404 019d C8       		.byte	0xc8
 405 019e FE040000 		.4byte	0x4fe
 406 01a2 0C       		.byte	0xc
 407 01a3 07       		.uleb128 0x7
 408 01a4 14020000 		.4byte	.LASF35
 409 01a8 07       		.byte	0x7
 410 01a9 CA       		.byte	0xca
 411 01aa 5F020000 		.4byte	0x25f
 412 01ae 10       		.byte	0x10
 413 01af 07       		.uleb128 0x7
 414 01b0 1C040000 		.4byte	.LASF36
 415 01b4 07       		.byte	0x7
 416 01b5 CB       		.byte	0xcb
 417 01b6 5F020000 		.4byte	0x25f
 418 01ba 14       		.byte	0x14
 419 01bb 07       		.uleb128 0x7
 420 01bc 36050000 		.4byte	.LASF37
 421 01c0 07       		.byte	0x7
 422 01c1 D2       		.byte	0xd2
 423 01c2 7D060000 		.4byte	0x67d
 424 01c6 18       		.byte	0x18
 425 01c7 07       		.uleb128 0x7
 426 01c8 11050000 		.4byte	.LASF38
 427 01cc 07       		.byte	0x7
 428 01cd DD       		.byte	0xdd
 429 01ce 04010000 		.4byte	0x104
 430 01d2 1C       		.byte	0x1c
 431 01d3 07       		.uleb128 0x7
 432 01d4 2E050000 		.4byte	.LASF39
 433 01d8 07       		.byte	0x7
 434 01d9 E1       		.byte	0xe1
 435 01da F9000000 		.4byte	0xf9
 436 01de 1D       		.byte	0x1d
 437 01df 07       		.uleb128 0x7
 438 01e0 45010000 		.4byte	.LASF40
 439 01e4 07       		.byte	0x7
 440 01e5 E6       		.byte	0xe6
 441 01e6 0F010000 		.4byte	0x10f
 442 01ea 1E       		.byte	0x1e
 443 01eb 08       		.uleb128 0x8
 444 01ec 705F7500 		.ascii	"p_u\000"
 445 01f0 07       		.byte	0x7
 446 01f1 3101     		.2byte	0x131
 447 01f3 B8050000 		.4byte	0x5b8
 448 01f7 20       		.byte	0x20
 449 01f8 09       		.uleb128 0x9
 450 01f9 BA030000 		.4byte	.LASF41
 451 01fd 07       		.byte	0x7
 452 01fe 3601     		.2byte	0x136
ARM GAS  /tmp/ccoNENpV.s 			page 9


 453 0200 65020000 		.4byte	0x265
 454 0204 24       		.byte	0x24
 455 0205 09       		.uleb128 0x9
 456 0206 C9020000 		.4byte	.LASF42
 457 020a 07       		.byte	0x7
 458 020b 3C01     		.2byte	0x13c
 459 020d 89020000 		.4byte	0x289
 460 0211 28       		.byte	0x28
 461 0212 09       		.uleb128 0x9
 462 0213 E9060000 		.4byte	.LASF43
 463 0217 07       		.byte	0x7
 464 0218 4001     		.2byte	0x140
 465 021a 25010000 		.4byte	0x125
 466 021e 30       		.byte	0x30
 467 021f 09       		.uleb128 0x9
 468 0220 67050000 		.4byte	.LASF44
 469 0224 07       		.byte	0x7
 470 0225 4601     		.2byte	0x146
 471 0227 30010000 		.4byte	0x130
 472 022b 34       		.byte	0x34
 473 022c 09       		.uleb128 0x9
 474 022d FD040000 		.4byte	.LASF45
 475 0231 07       		.byte	0x7
 476 0232 4D01     		.2byte	0x14d
 477 0234 77060000 		.4byte	0x677
 478 0238 38       		.byte	0x38
 479 0239 09       		.uleb128 0x9
 480 023a 06060000 		.4byte	.LASF46
 481 023e 07       		.byte	0x7
 482 023f 5101     		.2byte	0x151
 483 0241 1A010000 		.4byte	0x11a
 484 0245 3C       		.byte	0x3c
 485 0246 09       		.uleb128 0x9
 486 0247 01010000 		.4byte	.LASF47
 487 024b 07       		.byte	0x7
 488 024c 5801     		.2byte	0x158
 489 024e 3C030000 		.4byte	0x33c
 490 0252 40       		.byte	0x40
 491 0253 00       		.byte	0
 492 0254 03       		.uleb128 0x3
 493 0255 CD030000 		.4byte	.LASF48
 494 0259 06       		.byte	0x6
 495 025a 44       		.byte	0x44
 496 025b 5F020000 		.4byte	0x25f
 497 025f 0A       		.uleb128 0xa
 498 0260 04       		.byte	0x4
 499 0261 5C010000 		.4byte	0x15c
 500 0265 03       		.uleb128 0x3
 501 0266 DA060000 		.4byte	.LASF49
 502 026a 06       		.byte	0x6
 503 026b 49       		.byte	0x49
 504 026c 70020000 		.4byte	0x270
 505 0270 06       		.uleb128 0x6
 506 0271 9E050000 		.4byte	.LASF51
 507 0275 04       		.byte	0x4
 508 0276 07       		.byte	0x7
 509 0277 B0       		.byte	0xb0
ARM GAS  /tmp/ccoNENpV.s 			page 10


 510 0278 89020000 		.4byte	0x289
 511 027c 07       		.uleb128 0x7
 512 027d 27050000 		.4byte	.LASF31
 513 0281 07       		.byte	0x7
 514 0282 B1       		.byte	0xb1
 515 0283 5F020000 		.4byte	0x25f
 516 0287 00       		.byte	0
 517 0288 00       		.byte	0
 518 0289 03       		.uleb128 0x3
 519 028a 45050000 		.4byte	.LASF52
 520 028e 06       		.byte	0x6
 521 028f 50       		.byte	0x50
 522 0290 94020000 		.4byte	0x294
 523 0294 06       		.uleb128 0x6
 524 0295 B5000000 		.4byte	.LASF53
 525 0299 08       		.byte	0x8
 526 029a 07       		.byte	0x7
 527 029b B7       		.byte	0xb7
 528 029c B9020000 		.4byte	0x2b9
 529 02a0 07       		.uleb128 0x7
 530 02a1 27050000 		.4byte	.LASF31
 531 02a5 07       		.byte	0x7
 532 02a6 B8       		.byte	0xb8
 533 02a7 5F020000 		.4byte	0x25f
 534 02ab 00       		.byte	0
 535 02ac 07       		.uleb128 0x7
 536 02ad A5040000 		.4byte	.LASF32
 537 02b1 07       		.byte	0x7
 538 02b2 B9       		.byte	0xb9
 539 02b3 5F020000 		.4byte	0x25f
 540 02b7 04       		.byte	0x4
 541 02b8 00       		.byte	0
 542 02b9 03       		.uleb128 0x3
 543 02ba 00000000 		.4byte	.LASF54
 544 02be 06       		.byte	0x6
 545 02bf 57       		.byte	0x57
 546 02c0 C4020000 		.4byte	0x2c4
 547 02c4 0B       		.uleb128 0xb
 548 02c5 59030000 		.4byte	.LASF55
 549 02c9 1C       		.byte	0x1c
 550 02ca 07       		.byte	0x7
 551 02cb 9001     		.2byte	0x190
 552 02cd 20030000 		.4byte	0x320
 553 02d1 09       		.uleb128 0x9
 554 02d2 8D050000 		.4byte	.LASF56
 555 02d6 07       		.byte	0x7
 556 02d7 9101     		.2byte	0x191
 557 02d9 89020000 		.4byte	0x289
 558 02dd 00       		.byte	0
 559 02de 09       		.uleb128 0x9
 560 02df 19050000 		.4byte	.LASF57
 561 02e3 07       		.byte	0x7
 562 02e4 9201     		.2byte	0x192
 563 02e6 1A010000 		.4byte	0x11a
 564 02ea 08       		.byte	0x8
 565 02eb 09       		.uleb128 0x9
 566 02ec 24040000 		.4byte	.LASF58
ARM GAS  /tmp/ccoNENpV.s 			page 11


 567 02f0 07       		.byte	0x7
 568 02f1 9401     		.2byte	0x194
 569 02f3 FE040000 		.4byte	0x4fe
 570 02f7 0C       		.byte	0xc
 571 02f8 09       		.uleb128 0x9
 572 02f9 2C020000 		.4byte	.LASF59
 573 02fd 07       		.byte	0x7
 574 02fe 9701     		.2byte	0x197
 575 0300 5F020000 		.4byte	0x25f
 576 0304 10       		.byte	0x10
 577 0305 09       		.uleb128 0x9
 578 0306 49040000 		.4byte	.LASF60
 579 030a 07       		.byte	0x7
 580 030b 9801     		.2byte	0x198
 581 030d 5F020000 		.4byte	0x25f
 582 0311 14       		.byte	0x14
 583 0312 09       		.uleb128 0x9
 584 0313 CD050000 		.4byte	.LASF61
 585 0317 07       		.byte	0x7
 586 0318 9B01     		.2byte	0x19b
 587 031a 5F020000 		.4byte	0x25f
 588 031e 18       		.byte	0x18
 589 031f 00       		.byte	0
 590 0320 03       		.uleb128 0x3
 591 0321 11060000 		.4byte	.LASF62
 592 0325 06       		.byte	0x6
 593 0326 5C       		.byte	0x5c
 594 0327 2B030000 		.4byte	0x32b
 595 032b 0A       		.uleb128 0xa
 596 032c 04       		.byte	0x4
 597 032d 31030000 		.4byte	0x331
 598 0331 0C       		.uleb128 0xc
 599 0332 3C030000 		.4byte	0x33c
 600 0336 0D       		.uleb128 0xd
 601 0337 3C030000 		.4byte	0x33c
 602 033b 00       		.byte	0
 603 033c 0E       		.uleb128 0xe
 604 033d 04       		.byte	0x4
 605 033e 03       		.uleb128 0x3
 606 033f 95040000 		.4byte	.LASF63
 607 0343 06       		.byte	0x6
 608 0344 61       		.byte	0x61
 609 0345 49030000 		.4byte	0x349
 610 0349 0B       		.uleb128 0xb
 611 034a 4F060000 		.4byte	.LASF64
 612 034e 14       		.byte	0x14
 613 034f 07       		.byte	0x7
 614 0350 6B01     		.2byte	0x16b
 615 0352 98030000 		.4byte	0x398
 616 0356 09       		.uleb128 0x9
 617 0357 9A020000 		.4byte	.LASF65
 618 035b 07       		.byte	0x7
 619 035c 6C01     		.2byte	0x16c
 620 035e 8F060000 		.4byte	0x68f
 621 0362 00       		.byte	0
 622 0363 09       		.uleb128 0x9
 623 0364 3D020000 		.4byte	.LASF66
ARM GAS  /tmp/ccoNENpV.s 			page 12


 624 0368 07       		.byte	0x7
 625 0369 6D01     		.2byte	0x16d
 626 036b 8F060000 		.4byte	0x68f
 627 036f 04       		.byte	0x4
 628 0370 09       		.uleb128 0x9
 629 0371 95050000 		.4byte	.LASF67
 630 0375 07       		.byte	0x7
 631 0376 6E01     		.2byte	0x16e
 632 0378 51010000 		.4byte	0x151
 633 037c 08       		.byte	0x8
 634 037d 09       		.uleb128 0x9
 635 037e 09070000 		.4byte	.LASF68
 636 0382 07       		.byte	0x7
 637 0383 6F01     		.2byte	0x16f
 638 0385 20030000 		.4byte	0x320
 639 0389 0C       		.byte	0xc
 640 038a 09       		.uleb128 0x9
 641 038b 71060000 		.4byte	.LASF69
 642 038f 07       		.byte	0x7
 643 0390 7101     		.2byte	0x171
 644 0392 3C030000 		.4byte	0x33c
 645 0396 10       		.byte	0x10
 646 0397 00       		.byte	0
 647 0398 03       		.uleb128 0x3
 648 0399 87000000 		.4byte	.LASF70
 649 039d 06       		.byte	0x6
 650 039e 66       		.byte	0x66
 651 039f A3030000 		.4byte	0x3a3
 652 03a3 0B       		.uleb128 0xb
 653 03a4 E0030000 		.4byte	.LASF71
 654 03a8 10       		.byte	0x10
 655 03a9 07       		.byte	0x7
 656 03aa 7B01     		.2byte	0x17b
 657 03ac E5030000 		.4byte	0x3e5
 658 03b0 09       		.uleb128 0x9
 659 03b1 9A020000 		.4byte	.LASF65
 660 03b5 07       		.byte	0x7
 661 03b6 7C01     		.2byte	0x17c
 662 03b8 8F060000 		.4byte	0x68f
 663 03bc 00       		.byte	0
 664 03bd 09       		.uleb128 0x9
 665 03be 3D020000 		.4byte	.LASF66
 666 03c2 07       		.byte	0x7
 667 03c3 7E01     		.2byte	0x17e
 668 03c5 8F060000 		.4byte	0x68f
 669 03c9 04       		.byte	0x4
 670 03ca 09       		.uleb128 0x9
 671 03cb 95050000 		.4byte	.LASF67
 672 03cf 07       		.byte	0x7
 673 03d0 8001     		.2byte	0x180
 674 03d2 51010000 		.4byte	0x151
 675 03d6 08       		.byte	0x8
 676 03d7 09       		.uleb128 0x9
 677 03d8 10040000 		.4byte	.LASF72
 678 03dc 07       		.byte	0x7
 679 03dd 8801     		.2byte	0x188
 680 03df 51010000 		.4byte	0x151
ARM GAS  /tmp/ccoNENpV.s 			page 13


 681 03e3 0C       		.byte	0xc
 682 03e4 00       		.byte	0
 683 03e5 03       		.uleb128 0x3
 684 03e6 41000000 		.4byte	.LASF73
 685 03ea 06       		.byte	0x6
 686 03eb 6B       		.byte	0x6b
 687 03ec F0030000 		.4byte	0x3f0
 688 03f0 0B       		.uleb128 0xb
 689 03f1 BC040000 		.4byte	.LASF74
 690 03f5 04       		.byte	0x4
 691 03f6 07       		.byte	0x7
 692 03f7 A201     		.2byte	0x1a2
 693 03f9 0B040000 		.4byte	0x40b
 694 03fd 09       		.uleb128 0x9
 695 03fe 25060000 		.4byte	.LASF75
 696 0402 07       		.byte	0x7
 697 0403 AA01     		.2byte	0x1aa
 698 0405 95060000 		.4byte	0x695
 699 0409 00       		.byte	0
 700 040a 00       		.byte	0
 701 040b 03       		.uleb128 0x3
 702 040c 30030000 		.4byte	.LASF76
 703 0410 06       		.byte	0x6
 704 0411 70       		.byte	0x70
 705 0412 16040000 		.4byte	0x416
 706 0416 0F       		.uleb128 0xf
 707 0417 29010000 		.4byte	.LASF77
 708 041b 5001     		.2byte	0x150
 709 041d 07       		.byte	0x7
 710 041e C201     		.2byte	0x1c2
 711 0420 72040000 		.4byte	0x472
 712 0424 09       		.uleb128 0x9
 713 0425 B8060000 		.4byte	.LASF78
 714 0429 07       		.byte	0x7
 715 042a C601     		.2byte	0x1c6
 716 042c B9020000 		.4byte	0x2b9
 717 0430 00       		.byte	0
 718 0431 09       		.uleb128 0x9
 719 0432 11010000 		.4byte	.LASF79
 720 0436 07       		.byte	0x7
 721 0437 CA01     		.2byte	0x1ca
 722 0439 98030000 		.4byte	0x398
 723 043d 1C       		.byte	0x1c
 724 043e 08       		.uleb128 0x8
 725 043f 64626700 		.ascii	"dbg\000"
 726 0443 07       		.byte	0x7
 727 0444 CE01     		.2byte	0x1ce
 728 0446 E5030000 		.4byte	0x3e5
 729 044a 2C       		.byte	0x2c
 730 044b 09       		.uleb128 0x9
 731 044c 7C000000 		.4byte	.LASF80
 732 0450 07       		.byte	0x7
 733 0451 D201     		.2byte	0x1d2
 734 0453 5C010000 		.4byte	0x15c
 735 0457 30       		.byte	0x30
 736 0458 08       		.uleb128 0x8
 737 0459 746D00   		.ascii	"tm\000"
ARM GAS  /tmp/ccoNENpV.s 			page 14


 738 045c 07       		.byte	0x7
 739 045d D701     		.2byte	0x1d7
 740 045f AD050000 		.4byte	0x5ad
 741 0463 74       		.byte	0x74
 742 0464 09       		.uleb128 0x9
 743 0465 72020000 		.4byte	.LASF81
 744 0469 07       		.byte	0x7
 745 046a E301     		.2byte	0x1e3
 746 046c 9A060000 		.4byte	0x69a
 747 0470 78       		.byte	0x78
 748 0471 00       		.byte	0
 749 0472 04       		.uleb128 0x4
 750 0473 04       		.byte	0x4
 751 0474 07       		.byte	0x7
 752 0475 C4030000 		.4byte	.LASF82
 753 0479 10       		.uleb128 0x10
 754 047a 1C       		.byte	0x1c
 755 047b 08       		.byte	0x8
 756 047c 0903     		.2byte	0x309
 757 047e DC040000 		.4byte	0x4dc
 758 0482 08       		.uleb128 0x8
 759 0483 535200   		.ascii	"SR\000"
 760 0486 08       		.byte	0x8
 761 0487 0B03     		.2byte	0x30b
 762 0489 E9000000 		.4byte	0xe9
 763 048d 00       		.byte	0
 764 048e 08       		.uleb128 0x8
 765 048f 445200   		.ascii	"DR\000"
 766 0492 08       		.byte	0x8
 767 0493 0C03     		.2byte	0x30c
 768 0495 E9000000 		.4byte	0xe9
 769 0499 04       		.byte	0x4
 770 049a 08       		.uleb128 0x8
 771 049b 42525200 		.ascii	"BRR\000"
 772 049f 08       		.byte	0x8
 773 04a0 0D03     		.2byte	0x30d
 774 04a2 E9000000 		.4byte	0xe9
 775 04a6 08       		.byte	0x8
 776 04a7 08       		.uleb128 0x8
 777 04a8 43523100 		.ascii	"CR1\000"
 778 04ac 08       		.byte	0x8
 779 04ad 0E03     		.2byte	0x30e
 780 04af E9000000 		.4byte	0xe9
 781 04b3 0C       		.byte	0xc
 782 04b4 08       		.uleb128 0x8
 783 04b5 43523200 		.ascii	"CR2\000"
 784 04b9 08       		.byte	0x8
 785 04ba 0F03     		.2byte	0x30f
 786 04bc E9000000 		.4byte	0xe9
 787 04c0 10       		.byte	0x10
 788 04c1 08       		.uleb128 0x8
 789 04c2 43523300 		.ascii	"CR3\000"
 790 04c6 08       		.byte	0x8
 791 04c7 1003     		.2byte	0x310
 792 04c9 E9000000 		.4byte	0xe9
 793 04cd 14       		.byte	0x14
 794 04ce 09       		.uleb128 0x9
ARM GAS  /tmp/ccoNENpV.s 			page 15


 795 04cf FC000000 		.4byte	.LASF83
 796 04d3 08       		.byte	0x8
 797 04d4 1103     		.2byte	0x311
 798 04d6 E9000000 		.4byte	0xe9
 799 04da 18       		.byte	0x18
 800 04db 00       		.byte	0
 801 04dc 11       		.uleb128 0x11
 802 04dd 3C030000 		.4byte	.LASF84
 803 04e1 08       		.byte	0x8
 804 04e2 1203     		.2byte	0x312
 805 04e4 79040000 		.4byte	0x479
 806 04e8 03       		.uleb128 0x3
 807 04e9 34020000 		.4byte	.LASF85
 808 04ed 09       		.byte	0x9
 809 04ee 65       		.byte	0x65
 810 04ef 3C030000 		.4byte	0x33c
 811 04f3 03       		.uleb128 0x3
 812 04f4 87030000 		.4byte	.LASF86
 813 04f8 09       		.byte	0x9
 814 04f9 6D       		.byte	0x6d
 815 04fa D9000000 		.4byte	0xd9
 816 04fe 06       		.uleb128 0x6
 817 04ff 47060000 		.4byte	.LASF87
 818 0503 04       		.byte	0x4
 819 0504 09       		.byte	0x9
 820 0505 89       		.byte	0x89
 821 0506 17050000 		.4byte	0x517
 822 050a 12       		.uleb128 0x12
 823 050b 72313300 		.ascii	"r13\000"
 824 050f 09       		.byte	0x9
 825 0510 8A       		.byte	0x8a
 826 0511 92050000 		.4byte	0x592
 827 0515 00       		.byte	0
 828 0516 00       		.byte	0
 829 0517 06       		.uleb128 0x6
 830 0518 35000000 		.4byte	.LASF88
 831 051c 24       		.byte	0x24
 832 051d 0A       		.byte	0xa
 833 051e FD       		.byte	0xfd
 834 051f 92050000 		.4byte	0x592
 835 0523 08       		.uleb128 0x8
 836 0524 723400   		.ascii	"r4\000"
 837 0527 0A       		.byte	0xa
 838 0528 1001     		.2byte	0x110
 839 052a E8040000 		.4byte	0x4e8
 840 052e 00       		.byte	0
 841 052f 08       		.uleb128 0x8
 842 0530 723500   		.ascii	"r5\000"
 843 0533 0A       		.byte	0xa
 844 0534 1101     		.2byte	0x111
 845 0536 E8040000 		.4byte	0x4e8
 846 053a 04       		.byte	0x4
 847 053b 08       		.uleb128 0x8
 848 053c 723600   		.ascii	"r6\000"
 849 053f 0A       		.byte	0xa
 850 0540 1201     		.2byte	0x112
 851 0542 E8040000 		.4byte	0x4e8
ARM GAS  /tmp/ccoNENpV.s 			page 16


 852 0546 08       		.byte	0x8
 853 0547 08       		.uleb128 0x8
 854 0548 723700   		.ascii	"r7\000"
 855 054b 0A       		.byte	0xa
 856 054c 1301     		.2byte	0x113
 857 054e E8040000 		.4byte	0x4e8
 858 0552 0C       		.byte	0xc
 859 0553 08       		.uleb128 0x8
 860 0554 723800   		.ascii	"r8\000"
 861 0557 0A       		.byte	0xa
 862 0558 1401     		.2byte	0x114
 863 055a E8040000 		.4byte	0x4e8
 864 055e 10       		.byte	0x10
 865 055f 08       		.uleb128 0x8
 866 0560 723900   		.ascii	"r9\000"
 867 0563 0A       		.byte	0xa
 868 0564 1501     		.2byte	0x115
 869 0566 E8040000 		.4byte	0x4e8
 870 056a 14       		.byte	0x14
 871 056b 08       		.uleb128 0x8
 872 056c 72313000 		.ascii	"r10\000"
 873 0570 0A       		.byte	0xa
 874 0571 1601     		.2byte	0x116
 875 0573 E8040000 		.4byte	0x4e8
 876 0577 18       		.byte	0x18
 877 0578 08       		.uleb128 0x8
 878 0579 72313100 		.ascii	"r11\000"
 879 057d 0A       		.byte	0xa
 880 057e 1701     		.2byte	0x117
 881 0580 E8040000 		.4byte	0x4e8
 882 0584 1C       		.byte	0x1c
 883 0585 08       		.uleb128 0x8
 884 0586 6C7200   		.ascii	"lr\000"
 885 0589 0A       		.byte	0xa
 886 058a 1801     		.2byte	0x118
 887 058c E8040000 		.4byte	0x4e8
 888 0590 20       		.byte	0x20
 889 0591 00       		.byte	0
 890 0592 0A       		.uleb128 0xa
 891 0593 04       		.byte	0x4
 892 0594 17050000 		.4byte	0x517
 893 0598 13       		.uleb128 0x13
 894 0599 04       		.byte	0x4
 895 059a 0B       		.byte	0xb
 896 059b 38       		.byte	0x38
 897 059c AD050000 		.4byte	0x5ad
 898 05a0 07       		.uleb128 0x7
 899 05a1 2F060000 		.4byte	.LASF89
 900 05a5 0B       		.byte	0xb
 901 05a6 3C       		.byte	0x3c
 902 05a7 EE000000 		.4byte	0xee
 903 05ab 00       		.byte	0
 904 05ac 00       		.byte	0
 905 05ad 03       		.uleb128 0x3
 906 05ae 2A040000 		.4byte	.LASF90
 907 05b2 0B       		.byte	0xb
 908 05b3 3D       		.byte	0x3d
ARM GAS  /tmp/ccoNENpV.s 			page 17


 909 05b4 98050000 		.4byte	0x598
 910 05b8 14       		.uleb128 0x14
 911 05b9 04       		.byte	0x4
 912 05ba 07       		.byte	0x7
 913 05bb FA       		.byte	0xfa
 914 05bc 15060000 		.4byte	0x615
 915 05c0 15       		.uleb128 0x15
 916 05c1 14000000 		.4byte	.LASF91
 917 05c5 07       		.byte	0x7
 918 05c6 0101     		.2byte	0x101
 919 05c8 25010000 		.4byte	0x125
 920 05cc 15       		.uleb128 0x15
 921 05cd 73000000 		.4byte	.LASF92
 922 05d1 07       		.byte	0x7
 923 05d2 0801     		.2byte	0x108
 924 05d4 25010000 		.4byte	0x125
 925 05d8 15       		.uleb128 0x15
 926 05d9 D3060000 		.4byte	.LASF93
 927 05dd 07       		.byte	0x7
 928 05de 0F01     		.2byte	0x10f
 929 05e0 3C030000 		.4byte	0x33c
 930 05e4 15       		.uleb128 0x15
 931 05e5 FD030000 		.4byte	.LASF94
 932 05e9 07       		.byte	0x7
 933 05ea 1601     		.2byte	0x116
 934 05ec 15060000 		.4byte	0x615
 935 05f0 15       		.uleb128 0x15
 936 05f1 BB020000 		.4byte	.LASF95
 937 05f5 07       		.byte	0x7
 938 05f6 1E01     		.2byte	0x11e
 939 05f8 40060000 		.4byte	0x640
 940 05fc 15       		.uleb128 0x15
 941 05fd 86050000 		.4byte	.LASF96
 942 0601 07       		.byte	0x7
 943 0602 2701     		.2byte	0x127
 944 0604 77060000 		.4byte	0x677
 945 0608 15       		.uleb128 0x15
 946 0609 20050000 		.4byte	.LASF97
 947 060d 07       		.byte	0x7
 948 060e 2F01     		.2byte	0x12f
 949 0610 30010000 		.4byte	0x130
 950 0614 00       		.byte	0
 951 0615 0A       		.uleb128 0xa
 952 0616 04       		.byte	0x4
 953 0617 54020000 		.4byte	0x254
 954 061b 06       		.uleb128 0x6
 955 061c 5A050000 		.4byte	.LASF98
 956 0620 0C       		.byte	0xc
 957 0621 0C       		.byte	0xc
 958 0622 34       		.byte	0x34
 959 0623 40060000 		.4byte	0x640
 960 0627 07       		.uleb128 0x7
 961 0628 1C020000 		.4byte	.LASF99
 962 062c 0C       		.byte	0xc
 963 062d 35       		.byte	0x35
 964 062e 89020000 		.4byte	0x289
 965 0632 00       		.byte	0
ARM GAS  /tmp/ccoNENpV.s 			page 18


 966 0633 07       		.uleb128 0x7
 967 0634 E8020000 		.4byte	.LASF100
 968 0638 0C       		.byte	0xc
 969 0639 37       		.byte	0x37
 970 063a 46010000 		.4byte	0x146
 971 063e 08       		.byte	0x8
 972 063f 00       		.byte	0
 973 0640 0A       		.uleb128 0xa
 974 0641 04       		.byte	0x4
 975 0642 1B060000 		.4byte	0x61b
 976 0646 06       		.uleb128 0x6
 977 0647 9E060000 		.4byte	.LASF101
 978 064b 10       		.byte	0x10
 979 064c 0D       		.byte	0xd
 980 064d 39       		.byte	0x39
 981 064e 77060000 		.4byte	0x677
 982 0652 07       		.uleb128 0x7
 983 0653 09010000 		.4byte	.LASF102
 984 0657 0D       		.byte	0xd
 985 0658 3A       		.byte	0x3a
 986 0659 89020000 		.4byte	0x289
 987 065d 00       		.byte	0
 988 065e 07       		.uleb128 0x7
 989 065f FB060000 		.4byte	.LASF103
 990 0663 0D       		.byte	0xd
 991 0664 3C       		.byte	0x3c
 992 0665 5F020000 		.4byte	0x25f
 993 0669 08       		.byte	0x8
 994 066a 07       		.uleb128 0x7
 995 066b F5050000 		.4byte	.LASF104
 996 066f 0D       		.byte	0xd
 997 0670 3E       		.byte	0x3e
 998 0671 B5060000 		.4byte	0x6b5
 999 0675 0C       		.byte	0xc
 1000 0676 00       		.byte	0
 1001 0677 0A       		.uleb128 0xa
 1002 0678 04       		.byte	0x4
 1003 0679 46060000 		.4byte	0x646
 1004 067d 0A       		.uleb128 0xa
 1005 067e 04       		.byte	0x4
 1006 067f 83060000 		.4byte	0x683
 1007 0683 16       		.uleb128 0x16
 1008 0684 88060000 		.4byte	0x688
 1009 0688 04       		.uleb128 0x4
 1010 0689 01       		.byte	0x1
 1011 068a 08       		.byte	0x8
 1012 068b DC050000 		.4byte	.LASF105
 1013 068f 0A       		.uleb128 0xa
 1014 0690 04       		.byte	0x4
 1015 0691 3E030000 		.4byte	0x33e
 1016 0695 05       		.uleb128 0x5
 1017 0696 7D060000 		.4byte	0x67d
 1018 069a 17       		.uleb128 0x17
 1019 069b F3040000 		.4byte	0x4f3
 1020 069f AA060000 		.4byte	0x6aa
 1021 06a3 18       		.uleb128 0x18
 1022 06a4 72040000 		.4byte	0x472
ARM GAS  /tmp/ccoNENpV.s 			page 19


 1023 06a8 1A       		.byte	0x1a
 1024 06a9 00       		.byte	0
 1025 06aa 03       		.uleb128 0x3
 1026 06ab 52020000 		.4byte	.LASF106
 1027 06af 0D       		.byte	0xd
 1028 06b0 34       		.byte	0x34
 1029 06b1 46060000 		.4byte	0x646
 1030 06b5 0A       		.uleb128 0xa
 1031 06b6 04       		.byte	0x4
 1032 06b7 AA060000 		.4byte	0x6aa
 1033 06bb 03       		.uleb128 0x3
 1034 06bc 36060000 		.4byte	.LASF107
 1035 06c0 0E       		.byte	0xe
 1036 06c1 34       		.byte	0x34
 1037 06c2 C6060000 		.4byte	0x6c6
 1038 06c6 06       		.uleb128 0x6
 1039 06c7 11070000 		.4byte	.LASF108
 1040 06cb 14       		.byte	0x14
 1041 06cc 0E       		.byte	0xe
 1042 06cd 39       		.byte	0x39
 1043 06ce 0F070000 		.4byte	0x70f
 1044 06d2 07       		.uleb128 0x7
 1045 06d3 28030000 		.4byte	.LASF109
 1046 06d7 0E       		.byte	0xe
 1047 06d8 3A       		.byte	0x3a
 1048 06d9 0F070000 		.4byte	0x70f
 1049 06dd 00       		.byte	0
 1050 06de 07       		.uleb128 0x7
 1051 06df E8040000 		.4byte	.LASF110
 1052 06e3 0E       		.byte	0xe
 1053 06e4 3D       		.byte	0x3d
 1054 06e5 5F020000 		.4byte	0x25f
 1055 06e9 04       		.byte	0x4
 1056 06ea 07       		.uleb128 0x7
 1057 06eb 6E040000 		.4byte	.LASF111
 1058 06ef 0E       		.byte	0xe
 1059 06f0 3F       		.byte	0x3f
 1060 06f1 30010000 		.4byte	0x130
 1061 06f5 08       		.byte	0x8
 1062 06f6 07       		.uleb128 0x7
 1063 06f7 F4040000 		.4byte	.LASF112
 1064 06fb 0E       		.byte	0xe
 1065 06fc 41       		.byte	0x41
 1066 06fd 3B010000 		.4byte	0x13b
 1067 0701 0C       		.byte	0xc
 1068 0702 07       		.uleb128 0x7
 1069 0703 11030000 		.4byte	.LASF113
 1070 0707 0E       		.byte	0xe
 1071 0708 43       		.byte	0x43
 1072 0709 3B010000 		.4byte	0x13b
 1073 070d 10       		.byte	0x10
 1074 070e 00       		.byte	0
 1075 070f 0A       		.uleb128 0xa
 1076 0710 04       		.byte	0x4
 1077 0711 BB060000 		.4byte	0x6bb
 1078 0715 06       		.uleb128 0x6
 1079 0716 BE060000 		.4byte	.LASF114
ARM GAS  /tmp/ccoNENpV.s 			page 20


 1080 071a 04       		.byte	0x4
 1081 071b 0E       		.byte	0xe
 1082 071c 4A       		.byte	0x4a
 1083 071d 2E070000 		.4byte	0x72e
 1084 0721 07       		.uleb128 0x7
 1085 0722 A7060000 		.4byte	.LASF115
 1086 0726 0E       		.byte	0xe
 1087 0727 4B       		.byte	0x4b
 1088 0728 0F070000 		.4byte	0x70f
 1089 072c 00       		.byte	0
 1090 072d 00       		.byte	0
 1091 072e 03       		.uleb128 0x3
 1092 072f 63020000 		.4byte	.LASF116
 1093 0733 0E       		.byte	0xe
 1094 0734 4E       		.byte	0x4e
 1095 0735 15070000 		.4byte	0x715
 1096 0739 03       		.uleb128 0x3
 1097 073a AA000000 		.4byte	.LASF117
 1098 073e 0F       		.byte	0xf
 1099 073f 3F       		.byte	0x3f
 1100 0740 44070000 		.4byte	0x744
 1101 0744 06       		.uleb128 0x6
 1102 0745 5A020000 		.4byte	.LASF118
 1103 0749 24       		.byte	0x24
 1104 074a 0F       		.byte	0xf
 1105 074b 4D       		.byte	0x4d
 1106 074c B1070000 		.4byte	0x7b1
 1107 0750 07       		.uleb128 0x7
 1108 0751 D3000000 		.4byte	.LASF119
 1109 0755 0F       		.byte	0xf
 1110 0756 4E       		.byte	0x4e
 1111 0757 89020000 		.4byte	0x289
 1112 075b 00       		.byte	0
 1113 075c 07       		.uleb128 0x7
 1114 075d 7C050000 		.4byte	.LASF120
 1115 0761 0F       		.byte	0xf
 1116 0762 4F       		.byte	0x4f
 1117 0763 D3070000 		.4byte	0x7d3
 1118 0767 08       		.byte	0x8
 1119 0768 07       		.uleb128 0x7
 1120 0769 4C010000 		.4byte	.LASF121
 1121 076d 0F       		.byte	0xf
 1122 076e 50       		.byte	0x50
 1123 076f D8070000 		.4byte	0x7d8
 1124 0773 0C       		.byte	0xc
 1125 0774 07       		.uleb128 0x7
 1126 0775 98060000 		.4byte	.LASF122
 1127 0779 0F       		.byte	0xf
 1128 077a 51       		.byte	0x51
 1129 077b D8070000 		.4byte	0x7d8
 1130 077f 10       		.byte	0x10
 1131 0780 07       		.uleb128 0x7
 1132 0781 55010000 		.4byte	.LASF123
 1133 0785 0F       		.byte	0xf
 1134 0786 53       		.byte	0x53
 1135 0787 D8070000 		.4byte	0x7d8
 1136 078b 14       		.byte	0x14
ARM GAS  /tmp/ccoNENpV.s 			page 21


 1137 078c 07       		.uleb128 0x7
 1138 078d B4040000 		.4byte	.LASF124
 1139 0791 0F       		.byte	0xf
 1140 0792 54       		.byte	0x54
 1141 0793 D8070000 		.4byte	0x7d8
 1142 0797 18       		.byte	0x18
 1143 0798 07       		.uleb128 0x7
 1144 0799 AF060000 		.4byte	.LASF125
 1145 079d 0F       		.byte	0xf
 1146 079e 55       		.byte	0x55
 1147 079f B1070000 		.4byte	0x7b1
 1148 07a3 1C       		.byte	0x1c
 1149 07a4 07       		.uleb128 0x7
 1150 07a5 5D010000 		.4byte	.LASF126
 1151 07a9 0F       		.byte	0xf
 1152 07aa 56       		.byte	0x56
 1153 07ab 3C030000 		.4byte	0x33c
 1154 07af 20       		.byte	0x20
 1155 07b0 00       		.byte	0
 1156 07b1 03       		.uleb128 0x3
 1157 07b2 7D030000 		.4byte	.LASF127
 1158 07b6 0F       		.byte	0xf
 1159 07b7 42       		.byte	0x42
 1160 07b8 BC070000 		.4byte	0x7bc
 1161 07bc 0A       		.uleb128 0xa
 1162 07bd 04       		.byte	0x4
 1163 07be C2070000 		.4byte	0x7c2
 1164 07c2 0C       		.uleb128 0xc
 1165 07c3 CD070000 		.4byte	0x7cd
 1166 07c7 0D       		.uleb128 0xd
 1167 07c8 CD070000 		.4byte	0x7cd
 1168 07cc 00       		.byte	0
 1169 07cd 0A       		.uleb128 0xa
 1170 07ce 04       		.byte	0x4
 1171 07cf 39070000 		.4byte	0x739
 1172 07d3 05       		.uleb128 0x5
 1173 07d4 2C000000 		.4byte	0x2c
 1174 07d8 0A       		.uleb128 0xa
 1175 07d9 04       		.byte	0x4
 1176 07da AD000000 		.4byte	0xad
 1177 07de 03       		.uleb128 0x3
 1178 07df 98030000 		.4byte	.LASF128
 1179 07e3 0F       		.byte	0xf
 1180 07e4 64       		.byte	0x64
 1181 07e5 39070000 		.4byte	0x739
 1182 07e9 03       		.uleb128 0x3
 1183 07ea AB030000 		.4byte	.LASF129
 1184 07ee 0F       		.byte	0xf
 1185 07ef 71       		.byte	0x71
 1186 07f0 39070000 		.4byte	0x739
 1187 07f4 19       		.uleb128 0x19
 1188 07f5 2C000000 		.4byte	0x2c
 1189 07f9 0D080000 		.4byte	0x80d
 1190 07fd 0D       		.uleb128 0xd
 1191 07fe 3C030000 		.4byte	0x33c
 1192 0802 0D       		.uleb128 0xd
 1193 0803 0D080000 		.4byte	0x80d
ARM GAS  /tmp/ccoNENpV.s 			page 22


 1194 0807 0D       		.uleb128 0xd
 1195 0808 2C000000 		.4byte	0x2c
 1196 080c 00       		.byte	0
 1197 080d 0A       		.uleb128 0xa
 1198 080e 04       		.byte	0x4
 1199 080f 13080000 		.4byte	0x813
 1200 0813 16       		.uleb128 0x16
 1201 0814 AD000000 		.4byte	0xad
 1202 0818 0A       		.uleb128 0xa
 1203 0819 04       		.byte	0x4
 1204 081a F4070000 		.4byte	0x7f4
 1205 081e 19       		.uleb128 0x19
 1206 081f 2C000000 		.4byte	0x2c
 1207 0823 37080000 		.4byte	0x837
 1208 0827 0D       		.uleb128 0xd
 1209 0828 3C030000 		.4byte	0x33c
 1210 082c 0D       		.uleb128 0xd
 1211 082d D8070000 		.4byte	0x7d8
 1212 0831 0D       		.uleb128 0xd
 1213 0832 2C000000 		.4byte	0x2c
 1214 0836 00       		.byte	0
 1215 0837 0A       		.uleb128 0xa
 1216 0838 04       		.byte	0x4
 1217 0839 1E080000 		.4byte	0x81e
 1218 083d 19       		.uleb128 0x19
 1219 083e 25010000 		.4byte	0x125
 1220 0842 51080000 		.4byte	0x851
 1221 0846 0D       		.uleb128 0xd
 1222 0847 3C030000 		.4byte	0x33c
 1223 084b 0D       		.uleb128 0xd
 1224 084c AD000000 		.4byte	0xad
 1225 0850 00       		.byte	0
 1226 0851 0A       		.uleb128 0xa
 1227 0852 04       		.byte	0x4
 1228 0853 3D080000 		.4byte	0x83d
 1229 0857 19       		.uleb128 0x19
 1230 0858 25010000 		.4byte	0x125
 1231 085c 66080000 		.4byte	0x866
 1232 0860 0D       		.uleb128 0xd
 1233 0861 3C030000 		.4byte	0x33c
 1234 0865 00       		.byte	0
 1235 0866 0A       		.uleb128 0xa
 1236 0867 04       		.byte	0x4
 1237 0868 57080000 		.4byte	0x857
 1238 086c 19       		.uleb128 0x19
 1239 086d 25010000 		.4byte	0x125
 1240 0871 85080000 		.4byte	0x885
 1241 0875 0D       		.uleb128 0xd
 1242 0876 3C030000 		.4byte	0x33c
 1243 087a 0D       		.uleb128 0xd
 1244 087b AD000000 		.4byte	0xad
 1245 087f 0D       		.uleb128 0xd
 1246 0880 51010000 		.4byte	0x151
 1247 0884 00       		.byte	0
 1248 0885 0A       		.uleb128 0xa
 1249 0886 04       		.byte	0x4
 1250 0887 6C080000 		.4byte	0x86c
ARM GAS  /tmp/ccoNENpV.s 			page 23


 1251 088b 19       		.uleb128 0x19
 1252 088c 25010000 		.4byte	0x125
 1253 0890 9F080000 		.4byte	0x89f
 1254 0894 0D       		.uleb128 0xd
 1255 0895 3C030000 		.4byte	0x33c
 1256 0899 0D       		.uleb128 0xd
 1257 089a 51010000 		.4byte	0x151
 1258 089e 00       		.byte	0
 1259 089f 0A       		.uleb128 0xa
 1260 08a0 04       		.byte	0x4
 1261 08a1 8B080000 		.4byte	0x88b
 1262 08a5 19       		.uleb128 0x19
 1263 08a6 2C000000 		.4byte	0x2c
 1264 08aa C3080000 		.4byte	0x8c3
 1265 08ae 0D       		.uleb128 0xd
 1266 08af 3C030000 		.4byte	0x33c
 1267 08b3 0D       		.uleb128 0xd
 1268 08b4 0D080000 		.4byte	0x80d
 1269 08b8 0D       		.uleb128 0xd
 1270 08b9 2C000000 		.4byte	0x2c
 1271 08bd 0D       		.uleb128 0xd
 1272 08be 51010000 		.4byte	0x151
 1273 08c2 00       		.byte	0
 1274 08c3 0A       		.uleb128 0xa
 1275 08c4 04       		.byte	0x4
 1276 08c5 A5080000 		.4byte	0x8a5
 1277 08c9 19       		.uleb128 0x19
 1278 08ca 2C000000 		.4byte	0x2c
 1279 08ce E7080000 		.4byte	0x8e7
 1280 08d2 0D       		.uleb128 0xd
 1281 08d3 3C030000 		.4byte	0x33c
 1282 08d7 0D       		.uleb128 0xd
 1283 08d8 D8070000 		.4byte	0x7d8
 1284 08dc 0D       		.uleb128 0xd
 1285 08dd 2C000000 		.4byte	0x2c
 1286 08e1 0D       		.uleb128 0xd
 1287 08e2 51010000 		.4byte	0x151
 1288 08e6 00       		.byte	0
 1289 08e7 0A       		.uleb128 0xa
 1290 08e8 04       		.byte	0x4
 1291 08e9 C9080000 		.4byte	0x8c9
 1292 08ed 04       		.uleb128 0x4
 1293 08ee 01       		.byte	0x1
 1294 08ef 02       		.byte	0x2
 1295 08f0 CC040000 		.4byte	.LASF130
 1296 08f4 13       		.uleb128 0x13
 1297 08f5 04       		.byte	0x4
 1298 08f6 10       		.byte	0x10
 1299 08f7 B7       		.byte	0xb7
 1300 08f8 15090000 		.4byte	0x915
 1301 08fc 12       		.uleb128 0x12
 1302 08fd 73657400 		.ascii	"set\000"
 1303 0901 10       		.byte	0x10
 1304 0902 B8       		.byte	0xb8
 1305 0903 B8000000 		.4byte	0xb8
 1306 0907 00       		.byte	0
 1307 0908 07       		.uleb128 0x7
ARM GAS  /tmp/ccoNENpV.s 			page 24


 1308 0909 F7030000 		.4byte	.LASF131
 1309 090d 10       		.byte	0x10
 1310 090e B9       		.byte	0xb9
 1311 090f B8000000 		.4byte	0xb8
 1312 0913 02       		.byte	0x2
 1313 0914 00       		.byte	0
 1314 0915 14       		.uleb128 0x14
 1315 0916 04       		.byte	0x4
 1316 0917 10       		.byte	0x10
 1317 0918 B5       		.byte	0xb5
 1318 0919 30090000 		.4byte	0x930
 1319 091d 1A       		.uleb128 0x1a
 1320 091e 5700     		.ascii	"W\000"
 1321 0920 10       		.byte	0x10
 1322 0921 B6       		.byte	0xb6
 1323 0922 CE000000 		.4byte	0xce
 1324 0926 1A       		.uleb128 0x1a
 1325 0927 4800     		.ascii	"H\000"
 1326 0929 10       		.byte	0x10
 1327 092a BA       		.byte	0xba
 1328 092b F4080000 		.4byte	0x8f4
 1329 092f 00       		.byte	0
 1330 0930 13       		.uleb128 0x13
 1331 0931 2C       		.byte	0x2c
 1332 0932 10       		.byte	0x10
 1333 0933 AD       		.byte	0xad
 1334 0934 BD090000 		.4byte	0x9bd
 1335 0938 07       		.uleb128 0x7
 1336 0939 50000000 		.4byte	.LASF132
 1337 093d 10       		.byte	0x10
 1338 093e AF       		.byte	0xaf
 1339 093f E9000000 		.4byte	0xe9
 1340 0943 00       		.byte	0
 1341 0944 07       		.uleb128 0x7
 1342 0945 2E000000 		.4byte	.LASF133
 1343 0949 10       		.byte	0x10
 1344 094a B0       		.byte	0xb0
 1345 094b E9000000 		.4byte	0xe9
 1346 094f 04       		.byte	0x4
 1347 0950 07       		.uleb128 0x7
 1348 0951 24020000 		.4byte	.LASF134
 1349 0955 10       		.byte	0x10
 1350 0956 B1       		.byte	0xb1
 1351 0957 E9000000 		.4byte	0xe9
 1352 095b 08       		.byte	0x8
 1353 095c 07       		.uleb128 0x7
 1354 095d 6D000000 		.4byte	.LASF135
 1355 0961 10       		.byte	0x10
 1356 0962 B2       		.byte	0xb2
 1357 0963 E9000000 		.4byte	0xe9
 1358 0967 0C       		.byte	0xc
 1359 0968 12       		.uleb128 0x12
 1360 0969 49445200 		.ascii	"IDR\000"
 1361 096d 10       		.byte	0x10
 1362 096e B3       		.byte	0xb3
 1363 096f E9000000 		.4byte	0xe9
 1364 0973 10       		.byte	0x10
ARM GAS  /tmp/ccoNENpV.s 			page 25


 1365 0974 12       		.uleb128 0x12
 1366 0975 4F445200 		.ascii	"ODR\000"
 1367 0979 10       		.byte	0x10
 1368 097a B4       		.byte	0xb4
 1369 097b E9000000 		.4byte	0xe9
 1370 097f 14       		.byte	0x14
 1371 0980 07       		.uleb128 0x7
 1372 0981 F7000000 		.4byte	.LASF136
 1373 0985 10       		.byte	0x10
 1374 0986 BB       		.byte	0xbb
 1375 0987 BD090000 		.4byte	0x9bd
 1376 098b 18       		.byte	0x18
 1377 098c 07       		.uleb128 0x7
 1378 098d 55050000 		.4byte	.LASF137
 1379 0991 10       		.byte	0x10
 1380 0992 BC       		.byte	0xbc
 1381 0993 E9000000 		.4byte	0xe9
 1382 0997 1C       		.byte	0x1c
 1383 0998 07       		.uleb128 0x7
 1384 0999 88040000 		.4byte	.LASF138
 1385 099d 10       		.byte	0x10
 1386 099e BD       		.byte	0xbd
 1387 099f E9000000 		.4byte	0xe9
 1388 09a3 20       		.byte	0x20
 1389 09a4 07       		.uleb128 0x7
 1390 09a5 83040000 		.4byte	.LASF139
 1391 09a9 10       		.byte	0x10
 1392 09aa BE       		.byte	0xbe
 1393 09ab E9000000 		.4byte	0xe9
 1394 09af 24       		.byte	0x24
 1395 09b0 12       		.uleb128 0x12
 1396 09b1 42525200 		.ascii	"BRR\000"
 1397 09b5 10       		.byte	0x10
 1398 09b6 BF       		.byte	0xbf
 1399 09b7 E9000000 		.4byte	0xe9
 1400 09bb 28       		.byte	0x28
 1401 09bc 00       		.byte	0
 1402 09bd 05       		.uleb128 0x5
 1403 09be 15090000 		.4byte	0x915
 1404 09c2 03       		.uleb128 0x3
 1405 09c3 45020000 		.4byte	.LASF140
 1406 09c7 10       		.byte	0x10
 1407 09c8 C0       		.byte	0xc0
 1408 09c9 30090000 		.4byte	0x930
 1409 09cd 11       		.uleb128 0x11
 1410 09ce 03040000 		.4byte	.LASF141
 1411 09d2 10       		.byte	0x10
 1412 09d3 1A01     		.2byte	0x11a
 1413 09d5 CE000000 		.4byte	0xce
 1414 09d9 1B       		.uleb128 0x1b
 1415 09da 01       		.byte	0x1
 1416 09db 11       		.byte	0x11
 1417 09dc 55       		.byte	0x55
 1418 09dd F4090000 		.4byte	0x9f4
 1419 09e1 1C       		.uleb128 0x1c
 1420 09e2 72050000 		.4byte	.LASF142
 1421 09e6 00       		.sleb128 0
ARM GAS  /tmp/ccoNENpV.s 			page 26


 1422 09e7 1C       		.uleb128 0x1c
 1423 09e8 3D050000 		.4byte	.LASF143
 1424 09ec 01       		.sleb128 1
 1425 09ed 1C       		.uleb128 0x1c
 1426 09ee 68060000 		.4byte	.LASF144
 1427 09f2 02       		.sleb128 2
 1428 09f3 00       		.byte	0
 1429 09f4 03       		.uleb128 0x3
 1430 09f5 8E060000 		.4byte	.LASF145
 1431 09f9 11       		.byte	0x11
 1432 09fa 59       		.byte	0x59
 1433 09fb D9090000 		.4byte	0x9d9
 1434 09ff 03       		.uleb128 0x3
 1435 0a00 AE050000 		.4byte	.LASF146
 1436 0a04 11       		.byte	0x11
 1437 0a05 5E       		.byte	0x5e
 1438 0a06 0A0A0000 		.4byte	0xa0a
 1439 0a0a 06       		.uleb128 0x6
 1440 0a0b AE050000 		.4byte	.LASF146
 1441 0a0f D8       		.byte	0xd8
 1442 0a10 11       		.byte	0x11
 1443 0a11 78       		.byte	0x78
 1444 0a12 750A0000 		.4byte	0xa75
 1445 0a16 12       		.uleb128 0x12
 1446 0a17 766D7400 		.ascii	"vmt\000"
 1447 0a1b 11       		.byte	0x11
 1448 0a1c 7A       		.byte	0x7a
 1449 0a1d E20A0000 		.4byte	0xae2
 1450 0a21 00       		.byte	0
 1451 0a22 07       		.uleb128 0x7
 1452 0a23 EE020000 		.4byte	.LASF147
 1453 0a27 11       		.byte	0x11
 1454 0a28 7B       		.byte	0x7b
 1455 0a29 2E070000 		.4byte	0x72e
 1456 0a2d 04       		.byte	0x4
 1457 0a2e 07       		.uleb128 0x7
 1458 0a2f 23010000 		.4byte	.LASF148
 1459 0a33 11       		.byte	0x11
 1460 0a34 7B       		.byte	0x7b
 1461 0a35 F4090000 		.4byte	0x9f4
 1462 0a39 08       		.byte	0x8
 1463 0a3a 07       		.uleb128 0x7
 1464 0a3b C2020000 		.4byte	.LASF149
 1465 0a3f 11       		.byte	0x11
 1466 0a40 7B       		.byte	0x7b
 1467 0a41 DE070000 		.4byte	0x7de
 1468 0a45 0C       		.byte	0xc
 1469 0a46 07       		.uleb128 0x7
 1470 0a47 21030000 		.4byte	.LASF150
 1471 0a4b 11       		.byte	0x11
 1472 0a4c 7B       		.byte	0x7b
 1473 0a4d E9070000 		.4byte	0x7e9
 1474 0a51 30       		.byte	0x30
 1475 0a52 12       		.uleb128 0x12
 1476 0a53 696200   		.ascii	"ib\000"
 1477 0a56 11       		.byte	0x11
 1478 0a57 7B       		.byte	0x7b
ARM GAS  /tmp/ccoNENpV.s 			page 27


 1479 0a58 ED0A0000 		.4byte	0xaed
 1480 0a5c 54       		.byte	0x54
 1481 0a5d 12       		.uleb128 0x12
 1482 0a5e 6F6200   		.ascii	"ob\000"
 1483 0a61 11       		.byte	0x11
 1484 0a62 7B       		.byte	0x7b
 1485 0a63 ED0A0000 		.4byte	0xaed
 1486 0a67 94       		.byte	0x94
 1487 0a68 07       		.uleb128 0x7
 1488 0a69 87020000 		.4byte	.LASF151
 1489 0a6d 11       		.byte	0x11
 1490 0a6e 7B       		.byte	0x7b
 1491 0a6f FD0A0000 		.4byte	0xafd
 1492 0a73 D4       		.byte	0xd4
 1493 0a74 00       		.byte	0
 1494 0a75 06       		.uleb128 0x6
 1495 0a76 AB020000 		.4byte	.LASF152
 1496 0a7a 20       		.byte	0x20
 1497 0a7b 11       		.byte	0x11
 1498 0a7c 6D       		.byte	0x6d
 1499 0a7d E20A0000 		.4byte	0xae2
 1500 0a81 07       		.uleb128 0x7
 1501 0a82 92030000 		.4byte	.LASF153
 1502 0a86 11       		.byte	0x11
 1503 0a87 6E       		.byte	0x6e
 1504 0a88 18080000 		.4byte	0x818
 1505 0a8c 00       		.byte	0
 1506 0a8d 07       		.uleb128 0x7
 1507 0a8e D7050000 		.4byte	.LASF154
 1508 0a92 11       		.byte	0x11
 1509 0a93 6E       		.byte	0x6e
 1510 0a94 37080000 		.4byte	0x837
 1511 0a98 04       		.byte	0x4
 1512 0a99 12       		.uleb128 0x12
 1513 0a9a 70757400 		.ascii	"put\000"
 1514 0a9e 11       		.byte	0x11
 1515 0a9f 6E       		.byte	0x6e
 1516 0aa0 51080000 		.4byte	0x851
 1517 0aa4 08       		.byte	0x8
 1518 0aa5 12       		.uleb128 0x12
 1519 0aa6 67657400 		.ascii	"get\000"
 1520 0aaa 11       		.byte	0x11
 1521 0aab 6E       		.byte	0x6e
 1522 0aac 66080000 		.4byte	0x866
 1523 0ab0 0C       		.byte	0xc
 1524 0ab1 07       		.uleb128 0x7
 1525 0ab2 A6030000 		.4byte	.LASF155
 1526 0ab6 11       		.byte	0x11
 1527 0ab7 6E       		.byte	0x6e
 1528 0ab8 85080000 		.4byte	0x885
 1529 0abc 10       		.byte	0x10
 1530 0abd 07       		.uleb128 0x7
 1531 0abe E3020000 		.4byte	.LASF156
 1532 0ac2 11       		.byte	0x11
 1533 0ac3 6E       		.byte	0x6e
 1534 0ac4 9F080000 		.4byte	0x89f
 1535 0ac8 14       		.byte	0x14
ARM GAS  /tmp/ccoNENpV.s 			page 28


 1536 0ac9 07       		.uleb128 0x7
 1537 0aca 4A030000 		.4byte	.LASF157
 1538 0ace 11       		.byte	0x11
 1539 0acf 6E       		.byte	0x6e
 1540 0ad0 C3080000 		.4byte	0x8c3
 1541 0ad4 18       		.byte	0x18
 1542 0ad5 07       		.uleb128 0x7
 1543 0ad6 CD000000 		.4byte	.LASF158
 1544 0ada 11       		.byte	0x11
 1545 0adb 6E       		.byte	0x6e
 1546 0adc E7080000 		.4byte	0x8e7
 1547 0ae0 1C       		.byte	0x1c
 1548 0ae1 00       		.byte	0
 1549 0ae2 0A       		.uleb128 0xa
 1550 0ae3 04       		.byte	0x4
 1551 0ae4 E80A0000 		.4byte	0xae8
 1552 0ae8 16       		.uleb128 0x16
 1553 0ae9 750A0000 		.4byte	0xa75
 1554 0aed 17       		.uleb128 0x17
 1555 0aee AD000000 		.4byte	0xad
 1556 0af2 FD0A0000 		.4byte	0xafd
 1557 0af6 18       		.uleb128 0x18
 1558 0af7 72040000 		.4byte	0x472
 1559 0afb 3F       		.byte	0x3f
 1560 0afc 00       		.byte	0
 1561 0afd 0A       		.uleb128 0xa
 1562 0afe 04       		.byte	0x4
 1563 0aff DC040000 		.4byte	0x4dc
 1564 0b03 1D       		.uleb128 0x1d
 1565 0b04 D4020000 		.4byte	.LASF166
 1566 0b08 01       		.byte	0x1
 1567 0b09 0C       		.byte	0xc
 1568 0b0a 00000000 		.4byte	.LFB271
 1569 0b0e 66000000 		.4byte	.LFE271-.LFB271
 1570 0b12 01       		.uleb128 0x1
 1571 0b13 9C       		.byte	0x9c
 1572 0b14 430B0000 		.4byte	0xb43
 1573 0b18 1E       		.uleb128 0x1e
 1574 0b19 3B040000 		.4byte	.LASF159
 1575 0b1d 01       		.byte	0x1
 1576 0b1e 0C       		.byte	0xc
 1577 0b1f D8070000 		.4byte	0x7d8
 1578 0b23 02       		.uleb128 0x2
 1579 0b24 91       		.byte	0x91
 1580 0b25 6C       		.sleb128 -20
 1581 0b26 1F       		.uleb128 0x1f
 1582 0b27 6D736700 		.ascii	"msg\000"
 1583 0b2b 01       		.byte	0x1
 1584 0b2c 0C       		.byte	0xc
 1585 0b2d AD000000 		.4byte	0xad
 1586 0b31 02       		.uleb128 0x2
 1587 0b32 91       		.byte	0x91
 1588 0b33 6B       		.sleb128 -21
 1589 0b34 20       		.uleb128 0x20
 1590 0b35 F4060000 		.4byte	.LASF160
 1591 0b39 01       		.byte	0x1
 1592 0b3a 0E       		.byte	0xe
ARM GAS  /tmp/ccoNENpV.s 			page 29


 1593 0b3b B8000000 		.4byte	0xb8
 1594 0b3f 02       		.uleb128 0x2
 1595 0b40 91       		.byte	0x91
 1596 0b41 76       		.sleb128 -10
 1597 0b42 00       		.byte	0
 1598 0b43 21       		.uleb128 0x21
 1599 0b44 EF060000 		.4byte	.LASF167
 1600 0b48 01       		.byte	0x1
 1601 0b49 19       		.byte	0x19
 1602 0b4a 25000000 		.4byte	0x25
 1603 0b4e 00000000 		.4byte	.LFB272
 1604 0b52 A4000000 		.4byte	.LFE272-.LFB272
 1605 0b56 01       		.uleb128 0x1
 1606 0b57 9C       		.byte	0x9c
 1607 0b58 790B0000 		.4byte	0xb79
 1608 0b5c 20       		.uleb128 0x20
 1609 0b5d 18010000 		.4byte	.LASF161
 1610 0b61 01       		.byte	0x1
 1611 0b62 1F       		.byte	0x1f
 1612 0b63 AD000000 		.4byte	0xad
 1613 0b67 02       		.uleb128 0x2
 1614 0b68 91       		.byte	0x91
 1615 0b69 77       		.sleb128 -9
 1616 0b6a 20       		.uleb128 0x20
 1617 0b6b 3B040000 		.4byte	.LASF159
 1618 0b6f 01       		.byte	0x1
 1619 0b70 20       		.byte	0x20
 1620 0b71 790B0000 		.4byte	0xb79
 1621 0b75 02       		.uleb128 0x2
 1622 0b76 91       		.byte	0x91
 1623 0b77 70       		.sleb128 -16
 1624 0b78 00       		.byte	0
 1625 0b79 17       		.uleb128 0x17
 1626 0b7a AD000000 		.4byte	0xad
 1627 0b7e 890B0000 		.4byte	0xb89
 1628 0b82 18       		.uleb128 0x18
 1629 0b83 72040000 		.4byte	0x472
 1630 0b87 06       		.byte	0x6
 1631 0b88 00       		.byte	0
 1632 0b89 22       		.uleb128 0x22
 1633 0b8a 9D000000 		.4byte	.LASF162
 1634 0b8e 13       		.byte	0x13
 1635 0b8f FA06     		.2byte	0x6fa
 1636 0b91 E4000000 		.4byte	0xe4
 1637 0b95 23       		.uleb128 0x23
 1638 0b96 636800   		.ascii	"ch\000"
 1639 0b99 07       		.byte	0x7
 1640 0b9a 0902     		.2byte	0x209
 1641 0b9c 0B040000 		.4byte	0x40b
 1642 0ba0 23       		.uleb128 0x23
 1643 0ba1 53443300 		.ascii	"SD3\000"
 1644 0ba5 12       		.byte	0x12
 1645 0ba6 4801     		.2byte	0x148
 1646 0ba8 FF090000 		.4byte	0x9ff
 1647 0bac 00       		.byte	0
 1648              		.section	.debug_abbrev,"",%progbits
 1649              	.Ldebug_abbrev0:
ARM GAS  /tmp/ccoNENpV.s 			page 30


 1650 0000 01       		.uleb128 0x1
 1651 0001 11       		.uleb128 0x11
 1652 0002 01       		.byte	0x1
 1653 0003 25       		.uleb128 0x25
 1654 0004 0E       		.uleb128 0xe
 1655 0005 13       		.uleb128 0x13
 1656 0006 0B       		.uleb128 0xb
 1657 0007 03       		.uleb128 0x3
 1658 0008 0E       		.uleb128 0xe
 1659 0009 1B       		.uleb128 0x1b
 1660 000a 0E       		.uleb128 0xe
 1661 000b 55       		.uleb128 0x55
 1662 000c 17       		.uleb128 0x17
 1663 000d 11       		.uleb128 0x11
 1664 000e 01       		.uleb128 0x1
 1665 000f 10       		.uleb128 0x10
 1666 0010 17       		.uleb128 0x17
 1667 0011 00       		.byte	0
 1668 0012 00       		.byte	0
 1669 0013 02       		.uleb128 0x2
 1670 0014 24       		.uleb128 0x24
 1671 0015 00       		.byte	0
 1672 0016 0B       		.uleb128 0xb
 1673 0017 0B       		.uleb128 0xb
 1674 0018 3E       		.uleb128 0x3e
 1675 0019 0B       		.uleb128 0xb
 1676 001a 03       		.uleb128 0x3
 1677 001b 08       		.uleb128 0x8
 1678 001c 00       		.byte	0
 1679 001d 00       		.byte	0
 1680 001e 03       		.uleb128 0x3
 1681 001f 16       		.uleb128 0x16
 1682 0020 00       		.byte	0
 1683 0021 03       		.uleb128 0x3
 1684 0022 0E       		.uleb128 0xe
 1685 0023 3A       		.uleb128 0x3a
 1686 0024 0B       		.uleb128 0xb
 1687 0025 3B       		.uleb128 0x3b
 1688 0026 0B       		.uleb128 0xb
 1689 0027 49       		.uleb128 0x49
 1690 0028 13       		.uleb128 0x13
 1691 0029 00       		.byte	0
 1692 002a 00       		.byte	0
 1693 002b 04       		.uleb128 0x4
 1694 002c 24       		.uleb128 0x24
 1695 002d 00       		.byte	0
 1696 002e 0B       		.uleb128 0xb
 1697 002f 0B       		.uleb128 0xb
 1698 0030 3E       		.uleb128 0x3e
 1699 0031 0B       		.uleb128 0xb
 1700 0032 03       		.uleb128 0x3
 1701 0033 0E       		.uleb128 0xe
 1702 0034 00       		.byte	0
 1703 0035 00       		.byte	0
 1704 0036 05       		.uleb128 0x5
 1705 0037 35       		.uleb128 0x35
 1706 0038 00       		.byte	0
ARM GAS  /tmp/ccoNENpV.s 			page 31


 1707 0039 49       		.uleb128 0x49
 1708 003a 13       		.uleb128 0x13
 1709 003b 00       		.byte	0
 1710 003c 00       		.byte	0
 1711 003d 06       		.uleb128 0x6
 1712 003e 13       		.uleb128 0x13
 1713 003f 01       		.byte	0x1
 1714 0040 03       		.uleb128 0x3
 1715 0041 0E       		.uleb128 0xe
 1716 0042 0B       		.uleb128 0xb
 1717 0043 0B       		.uleb128 0xb
 1718 0044 3A       		.uleb128 0x3a
 1719 0045 0B       		.uleb128 0xb
 1720 0046 3B       		.uleb128 0x3b
 1721 0047 0B       		.uleb128 0xb
 1722 0048 01       		.uleb128 0x1
 1723 0049 13       		.uleb128 0x13
 1724 004a 00       		.byte	0
 1725 004b 00       		.byte	0
 1726 004c 07       		.uleb128 0x7
 1727 004d 0D       		.uleb128 0xd
 1728 004e 00       		.byte	0
 1729 004f 03       		.uleb128 0x3
 1730 0050 0E       		.uleb128 0xe
 1731 0051 3A       		.uleb128 0x3a
 1732 0052 0B       		.uleb128 0xb
 1733 0053 3B       		.uleb128 0x3b
 1734 0054 0B       		.uleb128 0xb
 1735 0055 49       		.uleb128 0x49
 1736 0056 13       		.uleb128 0x13
 1737 0057 38       		.uleb128 0x38
 1738 0058 0B       		.uleb128 0xb
 1739 0059 00       		.byte	0
 1740 005a 00       		.byte	0
 1741 005b 08       		.uleb128 0x8
 1742 005c 0D       		.uleb128 0xd
 1743 005d 00       		.byte	0
 1744 005e 03       		.uleb128 0x3
 1745 005f 08       		.uleb128 0x8
 1746 0060 3A       		.uleb128 0x3a
 1747 0061 0B       		.uleb128 0xb
 1748 0062 3B       		.uleb128 0x3b
 1749 0063 05       		.uleb128 0x5
 1750 0064 49       		.uleb128 0x49
 1751 0065 13       		.uleb128 0x13
 1752 0066 38       		.uleb128 0x38
 1753 0067 0B       		.uleb128 0xb
 1754 0068 00       		.byte	0
 1755 0069 00       		.byte	0
 1756 006a 09       		.uleb128 0x9
 1757 006b 0D       		.uleb128 0xd
 1758 006c 00       		.byte	0
 1759 006d 03       		.uleb128 0x3
 1760 006e 0E       		.uleb128 0xe
 1761 006f 3A       		.uleb128 0x3a
 1762 0070 0B       		.uleb128 0xb
 1763 0071 3B       		.uleb128 0x3b
ARM GAS  /tmp/ccoNENpV.s 			page 32


 1764 0072 05       		.uleb128 0x5
 1765 0073 49       		.uleb128 0x49
 1766 0074 13       		.uleb128 0x13
 1767 0075 38       		.uleb128 0x38
 1768 0076 0B       		.uleb128 0xb
 1769 0077 00       		.byte	0
 1770 0078 00       		.byte	0
 1771 0079 0A       		.uleb128 0xa
 1772 007a 0F       		.uleb128 0xf
 1773 007b 00       		.byte	0
 1774 007c 0B       		.uleb128 0xb
 1775 007d 0B       		.uleb128 0xb
 1776 007e 49       		.uleb128 0x49
 1777 007f 13       		.uleb128 0x13
 1778 0080 00       		.byte	0
 1779 0081 00       		.byte	0
 1780 0082 0B       		.uleb128 0xb
 1781 0083 13       		.uleb128 0x13
 1782 0084 01       		.byte	0x1
 1783 0085 03       		.uleb128 0x3
 1784 0086 0E       		.uleb128 0xe
 1785 0087 0B       		.uleb128 0xb
 1786 0088 0B       		.uleb128 0xb
 1787 0089 3A       		.uleb128 0x3a
 1788 008a 0B       		.uleb128 0xb
 1789 008b 3B       		.uleb128 0x3b
 1790 008c 05       		.uleb128 0x5
 1791 008d 01       		.uleb128 0x1
 1792 008e 13       		.uleb128 0x13
 1793 008f 00       		.byte	0
 1794 0090 00       		.byte	0
 1795 0091 0C       		.uleb128 0xc
 1796 0092 15       		.uleb128 0x15
 1797 0093 01       		.byte	0x1
 1798 0094 27       		.uleb128 0x27
 1799 0095 19       		.uleb128 0x19
 1800 0096 01       		.uleb128 0x1
 1801 0097 13       		.uleb128 0x13
 1802 0098 00       		.byte	0
 1803 0099 00       		.byte	0
 1804 009a 0D       		.uleb128 0xd
 1805 009b 05       		.uleb128 0x5
 1806 009c 00       		.byte	0
 1807 009d 49       		.uleb128 0x49
 1808 009e 13       		.uleb128 0x13
 1809 009f 00       		.byte	0
 1810 00a0 00       		.byte	0
 1811 00a1 0E       		.uleb128 0xe
 1812 00a2 0F       		.uleb128 0xf
 1813 00a3 00       		.byte	0
 1814 00a4 0B       		.uleb128 0xb
 1815 00a5 0B       		.uleb128 0xb
 1816 00a6 00       		.byte	0
 1817 00a7 00       		.byte	0
 1818 00a8 0F       		.uleb128 0xf
 1819 00a9 13       		.uleb128 0x13
 1820 00aa 01       		.byte	0x1
ARM GAS  /tmp/ccoNENpV.s 			page 33


 1821 00ab 03       		.uleb128 0x3
 1822 00ac 0E       		.uleb128 0xe
 1823 00ad 0B       		.uleb128 0xb
 1824 00ae 05       		.uleb128 0x5
 1825 00af 3A       		.uleb128 0x3a
 1826 00b0 0B       		.uleb128 0xb
 1827 00b1 3B       		.uleb128 0x3b
 1828 00b2 05       		.uleb128 0x5
 1829 00b3 01       		.uleb128 0x1
 1830 00b4 13       		.uleb128 0x13
 1831 00b5 00       		.byte	0
 1832 00b6 00       		.byte	0
 1833 00b7 10       		.uleb128 0x10
 1834 00b8 13       		.uleb128 0x13
 1835 00b9 01       		.byte	0x1
 1836 00ba 0B       		.uleb128 0xb
 1837 00bb 0B       		.uleb128 0xb
 1838 00bc 3A       		.uleb128 0x3a
 1839 00bd 0B       		.uleb128 0xb
 1840 00be 3B       		.uleb128 0x3b
 1841 00bf 05       		.uleb128 0x5
 1842 00c0 01       		.uleb128 0x1
 1843 00c1 13       		.uleb128 0x13
 1844 00c2 00       		.byte	0
 1845 00c3 00       		.byte	0
 1846 00c4 11       		.uleb128 0x11
 1847 00c5 16       		.uleb128 0x16
 1848 00c6 00       		.byte	0
 1849 00c7 03       		.uleb128 0x3
 1850 00c8 0E       		.uleb128 0xe
 1851 00c9 3A       		.uleb128 0x3a
 1852 00ca 0B       		.uleb128 0xb
 1853 00cb 3B       		.uleb128 0x3b
 1854 00cc 05       		.uleb128 0x5
 1855 00cd 49       		.uleb128 0x49
 1856 00ce 13       		.uleb128 0x13
 1857 00cf 00       		.byte	0
 1858 00d0 00       		.byte	0
 1859 00d1 12       		.uleb128 0x12
 1860 00d2 0D       		.uleb128 0xd
 1861 00d3 00       		.byte	0
 1862 00d4 03       		.uleb128 0x3
 1863 00d5 08       		.uleb128 0x8
 1864 00d6 3A       		.uleb128 0x3a
 1865 00d7 0B       		.uleb128 0xb
 1866 00d8 3B       		.uleb128 0x3b
 1867 00d9 0B       		.uleb128 0xb
 1868 00da 49       		.uleb128 0x49
 1869 00db 13       		.uleb128 0x13
 1870 00dc 38       		.uleb128 0x38
 1871 00dd 0B       		.uleb128 0xb
 1872 00de 00       		.byte	0
 1873 00df 00       		.byte	0
 1874 00e0 13       		.uleb128 0x13
 1875 00e1 13       		.uleb128 0x13
 1876 00e2 01       		.byte	0x1
 1877 00e3 0B       		.uleb128 0xb
ARM GAS  /tmp/ccoNENpV.s 			page 34


 1878 00e4 0B       		.uleb128 0xb
 1879 00e5 3A       		.uleb128 0x3a
 1880 00e6 0B       		.uleb128 0xb
 1881 00e7 3B       		.uleb128 0x3b
 1882 00e8 0B       		.uleb128 0xb
 1883 00e9 01       		.uleb128 0x1
 1884 00ea 13       		.uleb128 0x13
 1885 00eb 00       		.byte	0
 1886 00ec 00       		.byte	0
 1887 00ed 14       		.uleb128 0x14
 1888 00ee 17       		.uleb128 0x17
 1889 00ef 01       		.byte	0x1
 1890 00f0 0B       		.uleb128 0xb
 1891 00f1 0B       		.uleb128 0xb
 1892 00f2 3A       		.uleb128 0x3a
 1893 00f3 0B       		.uleb128 0xb
 1894 00f4 3B       		.uleb128 0x3b
 1895 00f5 0B       		.uleb128 0xb
 1896 00f6 01       		.uleb128 0x1
 1897 00f7 13       		.uleb128 0x13
 1898 00f8 00       		.byte	0
 1899 00f9 00       		.byte	0
 1900 00fa 15       		.uleb128 0x15
 1901 00fb 0D       		.uleb128 0xd
 1902 00fc 00       		.byte	0
 1903 00fd 03       		.uleb128 0x3
 1904 00fe 0E       		.uleb128 0xe
 1905 00ff 3A       		.uleb128 0x3a
 1906 0100 0B       		.uleb128 0xb
 1907 0101 3B       		.uleb128 0x3b
 1908 0102 05       		.uleb128 0x5
 1909 0103 49       		.uleb128 0x49
 1910 0104 13       		.uleb128 0x13
 1911 0105 00       		.byte	0
 1912 0106 00       		.byte	0
 1913 0107 16       		.uleb128 0x16
 1914 0108 26       		.uleb128 0x26
 1915 0109 00       		.byte	0
 1916 010a 49       		.uleb128 0x49
 1917 010b 13       		.uleb128 0x13
 1918 010c 00       		.byte	0
 1919 010d 00       		.byte	0
 1920 010e 17       		.uleb128 0x17
 1921 010f 01       		.uleb128 0x1
 1922 0110 01       		.byte	0x1
 1923 0111 49       		.uleb128 0x49
 1924 0112 13       		.uleb128 0x13
 1925 0113 01       		.uleb128 0x1
 1926 0114 13       		.uleb128 0x13
 1927 0115 00       		.byte	0
 1928 0116 00       		.byte	0
 1929 0117 18       		.uleb128 0x18
 1930 0118 21       		.uleb128 0x21
 1931 0119 00       		.byte	0
 1932 011a 49       		.uleb128 0x49
 1933 011b 13       		.uleb128 0x13
 1934 011c 2F       		.uleb128 0x2f
ARM GAS  /tmp/ccoNENpV.s 			page 35


 1935 011d 0B       		.uleb128 0xb
 1936 011e 00       		.byte	0
 1937 011f 00       		.byte	0
 1938 0120 19       		.uleb128 0x19
 1939 0121 15       		.uleb128 0x15
 1940 0122 01       		.byte	0x1
 1941 0123 27       		.uleb128 0x27
 1942 0124 19       		.uleb128 0x19
 1943 0125 49       		.uleb128 0x49
 1944 0126 13       		.uleb128 0x13
 1945 0127 01       		.uleb128 0x1
 1946 0128 13       		.uleb128 0x13
 1947 0129 00       		.byte	0
 1948 012a 00       		.byte	0
 1949 012b 1A       		.uleb128 0x1a
 1950 012c 0D       		.uleb128 0xd
 1951 012d 00       		.byte	0
 1952 012e 03       		.uleb128 0x3
 1953 012f 08       		.uleb128 0x8
 1954 0130 3A       		.uleb128 0x3a
 1955 0131 0B       		.uleb128 0xb
 1956 0132 3B       		.uleb128 0x3b
 1957 0133 0B       		.uleb128 0xb
 1958 0134 49       		.uleb128 0x49
 1959 0135 13       		.uleb128 0x13
 1960 0136 00       		.byte	0
 1961 0137 00       		.byte	0
 1962 0138 1B       		.uleb128 0x1b
 1963 0139 04       		.uleb128 0x4
 1964 013a 01       		.byte	0x1
 1965 013b 0B       		.uleb128 0xb
 1966 013c 0B       		.uleb128 0xb
 1967 013d 3A       		.uleb128 0x3a
 1968 013e 0B       		.uleb128 0xb
 1969 013f 3B       		.uleb128 0x3b
 1970 0140 0B       		.uleb128 0xb
 1971 0141 01       		.uleb128 0x1
 1972 0142 13       		.uleb128 0x13
 1973 0143 00       		.byte	0
 1974 0144 00       		.byte	0
 1975 0145 1C       		.uleb128 0x1c
 1976 0146 28       		.uleb128 0x28
 1977 0147 00       		.byte	0
 1978 0148 03       		.uleb128 0x3
 1979 0149 0E       		.uleb128 0xe
 1980 014a 1C       		.uleb128 0x1c
 1981 014b 0D       		.uleb128 0xd
 1982 014c 00       		.byte	0
 1983 014d 00       		.byte	0
 1984 014e 1D       		.uleb128 0x1d
 1985 014f 2E       		.uleb128 0x2e
 1986 0150 01       		.byte	0x1
 1987 0151 3F       		.uleb128 0x3f
 1988 0152 19       		.uleb128 0x19
 1989 0153 03       		.uleb128 0x3
 1990 0154 0E       		.uleb128 0xe
 1991 0155 3A       		.uleb128 0x3a
ARM GAS  /tmp/ccoNENpV.s 			page 36


 1992 0156 0B       		.uleb128 0xb
 1993 0157 3B       		.uleb128 0x3b
 1994 0158 0B       		.uleb128 0xb
 1995 0159 27       		.uleb128 0x27
 1996 015a 19       		.uleb128 0x19
 1997 015b 11       		.uleb128 0x11
 1998 015c 01       		.uleb128 0x1
 1999 015d 12       		.uleb128 0x12
 2000 015e 06       		.uleb128 0x6
 2001 015f 40       		.uleb128 0x40
 2002 0160 18       		.uleb128 0x18
 2003 0161 9642     		.uleb128 0x2116
 2004 0163 19       		.uleb128 0x19
 2005 0164 01       		.uleb128 0x1
 2006 0165 13       		.uleb128 0x13
 2007 0166 00       		.byte	0
 2008 0167 00       		.byte	0
 2009 0168 1E       		.uleb128 0x1e
 2010 0169 05       		.uleb128 0x5
 2011 016a 00       		.byte	0
 2012 016b 03       		.uleb128 0x3
 2013 016c 0E       		.uleb128 0xe
 2014 016d 3A       		.uleb128 0x3a
 2015 016e 0B       		.uleb128 0xb
 2016 016f 3B       		.uleb128 0x3b
 2017 0170 0B       		.uleb128 0xb
 2018 0171 49       		.uleb128 0x49
 2019 0172 13       		.uleb128 0x13
 2020 0173 02       		.uleb128 0x2
 2021 0174 18       		.uleb128 0x18
 2022 0175 00       		.byte	0
 2023 0176 00       		.byte	0
 2024 0177 1F       		.uleb128 0x1f
 2025 0178 05       		.uleb128 0x5
 2026 0179 00       		.byte	0
 2027 017a 03       		.uleb128 0x3
 2028 017b 08       		.uleb128 0x8
 2029 017c 3A       		.uleb128 0x3a
 2030 017d 0B       		.uleb128 0xb
 2031 017e 3B       		.uleb128 0x3b
 2032 017f 0B       		.uleb128 0xb
 2033 0180 49       		.uleb128 0x49
 2034 0181 13       		.uleb128 0x13
 2035 0182 02       		.uleb128 0x2
 2036 0183 18       		.uleb128 0x18
 2037 0184 00       		.byte	0
 2038 0185 00       		.byte	0
 2039 0186 20       		.uleb128 0x20
 2040 0187 34       		.uleb128 0x34
 2041 0188 00       		.byte	0
 2042 0189 03       		.uleb128 0x3
 2043 018a 0E       		.uleb128 0xe
 2044 018b 3A       		.uleb128 0x3a
 2045 018c 0B       		.uleb128 0xb
 2046 018d 3B       		.uleb128 0x3b
 2047 018e 0B       		.uleb128 0xb
 2048 018f 49       		.uleb128 0x49
ARM GAS  /tmp/ccoNENpV.s 			page 37


 2049 0190 13       		.uleb128 0x13
 2050 0191 02       		.uleb128 0x2
 2051 0192 18       		.uleb128 0x18
 2052 0193 00       		.byte	0
 2053 0194 00       		.byte	0
 2054 0195 21       		.uleb128 0x21
 2055 0196 2E       		.uleb128 0x2e
 2056 0197 01       		.byte	0x1
 2057 0198 3F       		.uleb128 0x3f
 2058 0199 19       		.uleb128 0x19
 2059 019a 03       		.uleb128 0x3
 2060 019b 0E       		.uleb128 0xe
 2061 019c 3A       		.uleb128 0x3a
 2062 019d 0B       		.uleb128 0xb
 2063 019e 3B       		.uleb128 0x3b
 2064 019f 0B       		.uleb128 0xb
 2065 01a0 27       		.uleb128 0x27
 2066 01a1 19       		.uleb128 0x19
 2067 01a2 49       		.uleb128 0x49
 2068 01a3 13       		.uleb128 0x13
 2069 01a4 11       		.uleb128 0x11
 2070 01a5 01       		.uleb128 0x1
 2071 01a6 12       		.uleb128 0x12
 2072 01a7 06       		.uleb128 0x6
 2073 01a8 40       		.uleb128 0x40
 2074 01a9 18       		.uleb128 0x18
 2075 01aa 9642     		.uleb128 0x2116
 2076 01ac 19       		.uleb128 0x19
 2077 01ad 01       		.uleb128 0x1
 2078 01ae 13       		.uleb128 0x13
 2079 01af 00       		.byte	0
 2080 01b0 00       		.byte	0
 2081 01b1 22       		.uleb128 0x22
 2082 01b2 34       		.uleb128 0x34
 2083 01b3 00       		.byte	0
 2084 01b4 03       		.uleb128 0x3
 2085 01b5 0E       		.uleb128 0xe
 2086 01b6 3A       		.uleb128 0x3a
 2087 01b7 0B       		.uleb128 0xb
 2088 01b8 3B       		.uleb128 0x3b
 2089 01b9 05       		.uleb128 0x5
 2090 01ba 49       		.uleb128 0x49
 2091 01bb 13       		.uleb128 0x13
 2092 01bc 3F       		.uleb128 0x3f
 2093 01bd 19       		.uleb128 0x19
 2094 01be 3C       		.uleb128 0x3c
 2095 01bf 19       		.uleb128 0x19
 2096 01c0 00       		.byte	0
 2097 01c1 00       		.byte	0
 2098 01c2 23       		.uleb128 0x23
 2099 01c3 34       		.uleb128 0x34
 2100 01c4 00       		.byte	0
 2101 01c5 03       		.uleb128 0x3
 2102 01c6 08       		.uleb128 0x8
 2103 01c7 3A       		.uleb128 0x3a
 2104 01c8 0B       		.uleb128 0xb
 2105 01c9 3B       		.uleb128 0x3b
ARM GAS  /tmp/ccoNENpV.s 			page 38


 2106 01ca 05       		.uleb128 0x5
 2107 01cb 49       		.uleb128 0x49
 2108 01cc 13       		.uleb128 0x13
 2109 01cd 3F       		.uleb128 0x3f
 2110 01ce 19       		.uleb128 0x19
 2111 01cf 3C       		.uleb128 0x3c
 2112 01d0 19       		.uleb128 0x19
 2113 01d1 00       		.byte	0
 2114 01d2 00       		.byte	0
 2115 01d3 00       		.byte	0
 2116              		.section	.debug_aranges,"",%progbits
 2117 0000 24000000 		.4byte	0x24
 2118 0004 0200     		.2byte	0x2
 2119 0006 00000000 		.4byte	.Ldebug_info0
 2120 000a 04       		.byte	0x4
 2121 000b 00       		.byte	0
 2122 000c 0000     		.2byte	0
 2123 000e 0000     		.2byte	0
 2124 0010 00000000 		.4byte	.LFB271
 2125 0014 66000000 		.4byte	.LFE271-.LFB271
 2126 0018 00000000 		.4byte	.LFB272
 2127 001c A4000000 		.4byte	.LFE272-.LFB272
 2128 0020 00000000 		.4byte	0
 2129 0024 00000000 		.4byte	0
 2130              		.section	.debug_ranges,"",%progbits
 2131              	.Ldebug_ranges0:
 2132 0000 00000000 		.4byte	.LFB271
 2133 0004 66000000 		.4byte	.LFE271
 2134 0008 00000000 		.4byte	.LFB272
 2135 000c A4000000 		.4byte	.LFE272
 2136 0010 00000000 		.4byte	0
 2137 0014 00000000 		.4byte	0
 2138              		.section	.debug_line,"",%progbits
 2139              	.Ldebug_line0:
 2140 0000 ED020000 		.section	.debug_str,"MS",%progbits,1
 2140      0200AC02 
 2140      00000201 
 2140      FB0E0D00 
 2140      01010101 
 2141              	.LASF54:
 2142 0000 72656164 		.ascii	"ready_list_t\000"
 2142      795F6C69 
 2142      73745F74 
 2142      00
 2143              	.LASF2:
 2144 000d 73697A65 		.ascii	"size_t\000"
 2144      5F7400
 2145              	.LASF91:
 2146 0014 7264796D 		.ascii	"rdymsg\000"
 2146      736700
 2147              	.LASF19:
 2148 001b 75696E74 		.ascii	"uint64_t\000"
 2148      36345F74 
 2148      00
 2149              	.LASF3:
 2150 0024 5F5F7569 		.ascii	"__uint8_t\000"
 2150      6E74385F 
ARM GAS  /tmp/ccoNENpV.s 			page 39


 2150      7400
 2151              	.LASF133:
 2152 002e 4F545950 		.ascii	"OTYPER\000"
 2152      455200
 2153              	.LASF88:
 2154 0035 706F7274 		.ascii	"port_intctx\000"
 2154      5F696E74 
 2154      63747800 
 2155              	.LASF73:
 2156 0041 73797374 		.ascii	"system_debug_t\000"
 2156      656D5F64 
 2156      65627567 
 2156      5F7400
 2157              	.LASF132:
 2158 0050 4D4F4445 		.ascii	"MODER\000"
 2158      5200
 2159              	.LASF14:
 2160 0056 6C6F6E67 		.ascii	"long long unsigned int\000"
 2160      206C6F6E 
 2160      6720756E 
 2160      7369676E 
 2160      65642069 
 2161              	.LASF135:
 2162 006d 50555044 		.ascii	"PUPDR\000"
 2162      5200
 2163              	.LASF92:
 2164 0073 65786974 		.ascii	"exitcode\000"
 2164      636F6465 
 2164      00
 2165              	.LASF80:
 2166 007c 6D61696E 		.ascii	"mainthread\000"
 2166      74687265 
 2166      616400
 2167              	.LASF70:
 2168 0087 76697274 		.ascii	"virtual_timers_list_t\000"
 2168      75616C5F 
 2168      74696D65 
 2168      72735F6C 
 2168      6973745F 
 2169              	.LASF162:
 2170 009d 49544D5F 		.ascii	"ITM_RxBuffer\000"
 2170      52784275 
 2170      66666572 
 2170      00
 2171              	.LASF117:
 2172 00aa 696F5F71 		.ascii	"io_queue_t\000"
 2172      75657565 
 2172      5F7400
 2173              	.LASF53:
 2174 00b5 63685F74 		.ascii	"ch_threads_queue\000"
 2174      68726561 
 2174      64735F71 
 2174      75657565 
 2174      00
 2175              	.LASF33:
 2176 00c6 705F7072 		.ascii	"p_prio\000"
 2176      696F00
ARM GAS  /tmp/ccoNENpV.s 			page 40


 2177              	.LASF158:
 2178 00cd 72656164 		.ascii	"readt\000"
 2178      7400
 2179              	.LASF119:
 2180 00d3 715F7761 		.ascii	"q_waiting\000"
 2180      6974696E 
 2180      6700
 2181              	.LASF12:
 2182 00dd 6C6F6E67 		.ascii	"long long int\000"
 2182      206C6F6E 
 2182      6720696E 
 2182      7400
 2183              	.LASF1:
 2184 00eb 7369676E 		.ascii	"signed char\000"
 2184      65642063 
 2184      68617200 
 2185              	.LASF136:
 2186 00f7 42535252 		.ascii	"BSRR\000"
 2186      00
 2187              	.LASF83:
 2188 00fc 47545052 		.ascii	"GTPR\000"
 2188      00
 2189              	.LASF47:
 2190 0101 705F6D70 		.ascii	"p_mpool\000"
 2190      6F6F6C00 
 2191              	.LASF102:
 2192 0109 6D5F7175 		.ascii	"m_queue\000"
 2192      65756500 
 2193              	.LASF79:
 2194 0111 76746C69 		.ascii	"vtlist\000"
 2194      737400
 2195              	.LASF161:
 2196 0118 706F7274 		.ascii	"portSample\000"
 2196      53616D70 
 2196      6C6500
 2197              	.LASF148:
 2198 0123 73746174 		.ascii	"state\000"
 2198      6500
 2199              	.LASF77:
 2200 0129 63685F73 		.ascii	"ch_system\000"
 2200      79737465 
 2200      6D00
 2201              	.LASF9:
 2202 0133 6C6F6E67 		.ascii	"long int\000"
 2202      20696E74 
 2202      00
 2203              	.LASF22:
 2204 013c 74737461 		.ascii	"tstate_t\000"
 2204      74655F74 
 2204      00
 2205              	.LASF40:
 2206 0145 705F7265 		.ascii	"p_refs\000"
 2206      667300
 2207              	.LASF121:
 2208 014c 715F6275 		.ascii	"q_buffer\000"
 2208      66666572 
 2208      00
ARM GAS  /tmp/ccoNENpV.s 			page 41


 2209              	.LASF123:
 2210 0155 715F7772 		.ascii	"q_wrptr\000"
 2210      70747200 
 2211              	.LASF126:
 2212 015d 715F6C69 		.ascii	"q_link\000"
 2212      6E6B00
 2213              	.LASF163:
 2214 0164 474E5520 		.ascii	"GNU C 4.8.4 20141219 (release) -mcpu=cortex-m4 -mno"
 2214      4320342E 
 2214      382E3420 
 2214      32303134 
 2214      31323139 
 2215 0197 2D746875 		.ascii	"-thumb-interwork -mthumb -ggdb -O0 -fomit-frame-poi"
 2215      6D622D69 
 2215      6E746572 
 2215      776F726B 
 2215      202D6D74 
 2216 01ca 6E746572 		.ascii	"nter -falign-functions=16 -ffunction-sections -fdat"
 2216      202D6661 
 2216      6C69676E 
 2216      2D66756E 
 2216      6374696F 
 2217 01fd 612D7365 		.ascii	"a-sections -fno-common\000"
 2217      6374696F 
 2217      6E73202D 
 2217      666E6F2D 
 2217      636F6D6D 
 2218              	.LASF35:
 2219 0214 705F6E65 		.ascii	"p_newer\000"
 2219      77657200 
 2220              	.LASF99:
 2221 021c 735F7175 		.ascii	"s_queue\000"
 2221      65756500 
 2222              	.LASF134:
 2223 0224 4F535045 		.ascii	"OSPEEDR\000"
 2223      45445200 
 2224              	.LASF59:
 2225 022c 725F6E65 		.ascii	"r_newer\000"
 2225      77657200 
 2226              	.LASF85:
 2227 0234 72656761 		.ascii	"regarm_t\000"
 2227      726D5F74 
 2227      00
 2228              	.LASF66:
 2229 023d 76745F70 		.ascii	"vt_prev\000"
 2229      72657600 
 2230              	.LASF140:
 2231 0245 73746D33 		.ascii	"stm32_gpio_t\000"
 2231      325F6770 
 2231      696F5F74 
 2231      00
 2232              	.LASF106:
 2233 0252 6D757465 		.ascii	"mutex_t\000"
 2233      785F7400 
 2234              	.LASF118:
 2235 025a 696F5F71 		.ascii	"io_queue\000"
 2235      75657565 
ARM GAS  /tmp/ccoNENpV.s 			page 42


 2235      00
 2236              	.LASF116:
 2237 0263 6576656E 		.ascii	"event_source_t\000"
 2237      745F736F 
 2237      75726365 
 2237      5F7400
 2238              	.LASF81:
 2239 0272 69646C65 		.ascii	"idle_thread_wa\000"
 2239      5F746872 
 2239      6561645F 
 2239      776100
 2240              	.LASF28:
 2241 0281 636E745F 		.ascii	"cnt_t\000"
 2241      7400
 2242              	.LASF151:
 2243 0287 75736172 		.ascii	"usart\000"
 2243      7400
 2244              	.LASF0:
 2245 028d 756E7369 		.ascii	"unsigned int\000"
 2245      676E6564 
 2245      20696E74 
 2245      00
 2246              	.LASF65:
 2247 029a 76745F6E 		.ascii	"vt_next\000"
 2247      65787400 
 2248              	.LASF16:
 2249 02a2 75696E74 		.ascii	"uint16_t\000"
 2249      31365F74 
 2249      00
 2250              	.LASF152:
 2251 02ab 53657269 		.ascii	"SerialDriverVMT\000"
 2251      616C4472 
 2251      69766572 
 2251      564D5400 
 2252              	.LASF95:
 2253 02bb 77747365 		.ascii	"wtsemp\000"
 2253      6D7000
 2254              	.LASF149:
 2255 02c2 69717565 		.ascii	"iqueue\000"
 2255      756500
 2256              	.LASF42:
 2257 02c9 705F6D73 		.ascii	"p_msgqueue\000"
 2257      67717565 
 2257      756500
 2258              	.LASF166:
 2259 02d4 70726570 		.ascii	"prepareForSend\000"
 2259      61726546 
 2259      6F725365 
 2259      6E6400
 2260              	.LASF156:
 2261 02e3 67657474 		.ascii	"gett\000"
 2261      00
 2262              	.LASF100:
 2263 02e8 735F636E 		.ascii	"s_cnt\000"
 2263      7400
 2264              	.LASF147:
 2265 02ee 6576656E 		.ascii	"event\000"
ARM GAS  /tmp/ccoNENpV.s 			page 43


 2265      7400
 2266              	.LASF7:
 2267 02f4 73686F72 		.ascii	"short unsigned int\000"
 2267      7420756E 
 2267      7369676E 
 2267      65642069 
 2267      6E7400
 2268              	.LASF50:
 2269 0307 63685F74 		.ascii	"ch_thread\000"
 2269      68726561 
 2269      6400
 2270              	.LASF113:
 2271 0311 656C5F77 		.ascii	"el_wflags\000"
 2271      666C6167 
 2271      7300
 2272              	.LASF25:
 2273 031b 6D73675F 		.ascii	"msg_t\000"
 2273      7400
 2274              	.LASF150:
 2275 0321 6F717565 		.ascii	"oqueue\000"
 2275      756500
 2276              	.LASF109:
 2277 0328 656C5F6E 		.ascii	"el_next\000"
 2277      65787400 
 2278              	.LASF76:
 2279 0330 63685F73 		.ascii	"ch_system_t\000"
 2279      79737465 
 2279      6D5F7400 
 2280              	.LASF84:
 2281 033c 55534152 		.ascii	"USART_TypeDef\000"
 2281      545F5479 
 2281      70654465 
 2281      6600
 2282              	.LASF157:
 2283 034a 77726974 		.ascii	"writet\000"
 2283      657400
 2284              	.LASF21:
 2285 0351 746D6F64 		.ascii	"tmode_t\000"
 2285      655F7400 
 2286              	.LASF55:
 2287 0359 63685F72 		.ascii	"ch_ready_list\000"
 2287      65616479 
 2287      5F6C6973 
 2287      7400
 2288              	.LASF26:
 2289 0367 6576656E 		.ascii	"eventmask_t\000"
 2289      746D6173 
 2289      6B5F7400 
 2290              	.LASF8:
 2291 0373 5F5F696E 		.ascii	"__int32_t\000"
 2291      7433325F 
 2291      7400
 2292              	.LASF127:
 2293 037d 716E6F74 		.ascii	"qnotify_t\000"
 2293      6966795F 
 2293      7400
 2294              	.LASF86:
ARM GAS  /tmp/ccoNENpV.s 			page 44


 2295 0387 73746B61 		.ascii	"stkalign_t\000"
 2295      6C69676E 
 2295      5F7400
 2296              	.LASF153:
 2297 0392 77726974 		.ascii	"write\000"
 2297      6500
 2298              	.LASF128:
 2299 0398 696E7075 		.ascii	"input_queue_t\000"
 2299      745F7175 
 2299      6575655F 
 2299      7400
 2300              	.LASF155:
 2301 03a6 70757474 		.ascii	"putt\000"
 2301      00
 2302              	.LASF129:
 2303 03ab 6F757470 		.ascii	"output_queue_t\000"
 2303      75745F71 
 2303      75657565 
 2303      5F7400
 2304              	.LASF41:
 2305 03ba 705F7761 		.ascii	"p_waiting\000"
 2305      6974696E 
 2305      6700
 2306              	.LASF82:
 2307 03c4 73697A65 		.ascii	"sizetype\000"
 2307      74797065 
 2307      00
 2308              	.LASF48:
 2309 03cd 74687265 		.ascii	"thread_reference_t\000"
 2309      61645F72 
 2309      65666572 
 2309      656E6365 
 2309      5F7400
 2310              	.LASF71:
 2311 03e0 63685F76 		.ascii	"ch_virtual_timers_list\000"
 2311      69727475 
 2311      616C5F74 
 2311      696D6572 
 2311      735F6C69 
 2312              	.LASF131:
 2313 03f7 636C6561 		.ascii	"clear\000"
 2313      7200
 2314              	.LASF94:
 2315 03fd 77747472 		.ascii	"wttrp\000"
 2315      7000
 2316              	.LASF141:
 2317 0403 696F706F 		.ascii	"ioportmask_t\000"
 2317      72746D61 
 2317      736B5F74 
 2317      00
 2318              	.LASF72:
 2319 0410 76745F6C 		.ascii	"vt_lasttime\000"
 2319      61737474 
 2319      696D6500 
 2320              	.LASF36:
 2321 041c 705F6F6C 		.ascii	"p_older\000"
 2321      64657200 
ARM GAS  /tmp/ccoNENpV.s 			page 45


 2322              	.LASF58:
 2323 0424 725F6374 		.ascii	"r_ctx\000"
 2323      7800
 2324              	.LASF90:
 2325 042a 746D5F63 		.ascii	"tm_calibration_t\000"
 2325      616C6962 
 2325      72617469 
 2325      6F6E5F74 
 2325      00
 2326              	.LASF159:
 2327 043b 7061636B 		.ascii	"packet\000"
 2327      657400
 2328              	.LASF164:
 2329 0442 6D61696E 		.ascii	"main.c\000"
 2329      2E6300
 2330              	.LASF60:
 2331 0449 725F6F6C 		.ascii	"r_older\000"
 2331      64657200 
 2332              	.LASF165:
 2333 0451 2F686F6D 		.ascii	"/home/efe/projeler/led-panel\000"
 2333      652F6566 
 2333      652F7072 
 2333      6F6A656C 
 2333      65722F6C 
 2334              	.LASF111:
 2335 046e 656C5F65 		.ascii	"el_events\000"
 2335      76656E74 
 2335      7300
 2336              	.LASF13:
 2337 0478 5F5F7569 		.ascii	"__uint64_t\000"
 2337      6E743634 
 2337      5F7400
 2338              	.LASF139:
 2339 0483 41465248 		.ascii	"AFRH\000"
 2339      00
 2340              	.LASF138:
 2341 0488 4146524C 		.ascii	"AFRL\000"
 2341      00
 2342              	.LASF23:
 2343 048d 74726566 		.ascii	"trefs_t\000"
 2343      735F7400 
 2344              	.LASF63:
 2345 0495 76697274 		.ascii	"virtual_timer_t\000"
 2345      75616C5F 
 2345      74696D65 
 2345      725F7400 
 2346              	.LASF32:
 2347 04a5 705F7072 		.ascii	"p_prev\000"
 2347      657600
 2348              	.LASF24:
 2349 04ac 74707269 		.ascii	"tprio_t\000"
 2349      6F5F7400 
 2350              	.LASF124:
 2351 04b4 715F7264 		.ascii	"q_rdptr\000"
 2351      70747200 
 2352              	.LASF74:
 2353 04bc 63685F73 		.ascii	"ch_system_debug\000"
ARM GAS  /tmp/ccoNENpV.s 			page 46


 2353      79737465 
 2353      6D5F6465 
 2353      62756700 
 2354              	.LASF130:
 2355 04cc 5F426F6F 		.ascii	"_Bool\000"
 2355      6C00
 2356              	.LASF17:
 2357 04d2 696E7433 		.ascii	"int32_t\000"
 2357      325F7400 
 2358              	.LASF4:
 2359 04da 756E7369 		.ascii	"unsigned char\000"
 2359      676E6564 
 2359      20636861 
 2359      7200
 2360              	.LASF110:
 2361 04e8 656C5F6C 		.ascii	"el_listener\000"
 2361      69737465 
 2361      6E657200 
 2362              	.LASF112:
 2363 04f4 656C5F66 		.ascii	"el_flags\000"
 2363      6C616773 
 2363      00
 2364              	.LASF45:
 2365 04fd 705F6D74 		.ascii	"p_mtxlist\000"
 2365      786C6973 
 2365      7400
 2366              	.LASF5:
 2367 0507 73686F72 		.ascii	"short int\000"
 2367      7420696E 
 2367      7400
 2368              	.LASF38:
 2369 0511 705F7374 		.ascii	"p_state\000"
 2369      61746500 
 2370              	.LASF57:
 2371 0519 725F7072 		.ascii	"r_prio\000"
 2371      696F00
 2372              	.LASF97:
 2373 0520 65776D61 		.ascii	"ewmask\000"
 2373      736B00
 2374              	.LASF31:
 2375 0527 705F6E65 		.ascii	"p_next\000"
 2375      787400
 2376              	.LASF39:
 2377 052e 705F666C 		.ascii	"p_flags\000"
 2377      61677300 
 2378              	.LASF37:
 2379 0536 705F6E61 		.ascii	"p_name\000"
 2379      6D6500
 2380              	.LASF143:
 2381 053d 53445F53 		.ascii	"SD_STOP\000"
 2381      544F5000 
 2382              	.LASF52:
 2383 0545 74687265 		.ascii	"threads_queue_t\000"
 2383      6164735F 
 2383      71756575 
 2383      655F7400 
 2384              	.LASF137:
ARM GAS  /tmp/ccoNENpV.s 			page 47


 2385 0555 4C434B52 		.ascii	"LCKR\000"
 2385      00
 2386              	.LASF98:
 2387 055a 63685F73 		.ascii	"ch_semaphore\000"
 2387      656D6170 
 2387      686F7265 
 2387      00
 2388              	.LASF44:
 2389 0567 705F6570 		.ascii	"p_epending\000"
 2389      656E6469 
 2389      6E6700
 2390              	.LASF142:
 2391 0572 53445F55 		.ascii	"SD_UNINIT\000"
 2391      4E494E49 
 2391      5400
 2392              	.LASF120:
 2393 057c 715F636F 		.ascii	"q_counter\000"
 2393      756E7465 
 2393      7200
 2394              	.LASF96:
 2395 0586 77746D74 		.ascii	"wtmtxp\000"
 2395      787000
 2396              	.LASF56:
 2397 058d 725F7175 		.ascii	"r_queue\000"
 2397      65756500 
 2398              	.LASF67:
 2399 0595 76745F64 		.ascii	"vt_delta\000"
 2399      656C7461 
 2399      00
 2400              	.LASF51:
 2401 059e 63685F74 		.ascii	"ch_threads_list\000"
 2401      68726561 
 2401      64735F6C 
 2401      69737400 
 2402              	.LASF146:
 2403 05ae 53657269 		.ascii	"SerialDriver\000"
 2403      616C4472 
 2403      69766572 
 2403      00
 2404              	.LASF11:
 2405 05bb 6C6F6E67 		.ascii	"long unsigned int\000"
 2405      20756E73 
 2405      69676E65 
 2405      6420696E 
 2405      7400
 2406              	.LASF61:
 2407 05cd 725F6375 		.ascii	"r_current\000"
 2407      7272656E 
 2407      7400
 2408              	.LASF154:
 2409 05d7 72656164 		.ascii	"read\000"
 2409      00
 2410              	.LASF105:
 2411 05dc 63686172 		.ascii	"char\000"
 2411      00
 2412              	.LASF6:
 2413 05e1 5F5F7569 		.ascii	"__uint16_t\000"
ARM GAS  /tmp/ccoNENpV.s 			page 48


 2413      6E743136 
 2413      5F7400
 2414              	.LASF30:
 2415 05ec 74687265 		.ascii	"thread_t\000"
 2415      61645F74 
 2415      00
 2416              	.LASF104:
 2417 05f5 6D5F6E65 		.ascii	"m_next\000"
 2417      787400
 2418              	.LASF29:
 2419 05fc 73797374 		.ascii	"systime_t\000"
 2419      696D655F 
 2419      7400
 2420              	.LASF46:
 2421 0606 705F7265 		.ascii	"p_realprio\000"
 2421      616C7072 
 2421      696F00
 2422              	.LASF62:
 2423 0611 76746675 		.ascii	"vtfunc_t\000"
 2423      6E635F74 
 2423      00
 2424              	.LASF10:
 2425 061a 5F5F7569 		.ascii	"__uint32_t\000"
 2425      6E743332 
 2425      5F7400
 2426              	.LASF75:
 2427 0625 70616E69 		.ascii	"panic_msg\000"
 2427      635F6D73 
 2427      6700
 2428              	.LASF89:
 2429 062f 6F666673 		.ascii	"offset\000"
 2429      657400
 2430              	.LASF107:
 2431 0636 6576656E 		.ascii	"event_listener_t\000"
 2431      745F6C69 
 2431      7374656E 
 2431      65725F74 
 2431      00
 2432              	.LASF87:
 2433 0647 636F6E74 		.ascii	"context\000"
 2433      65787400 
 2434              	.LASF64:
 2435 064f 63685F76 		.ascii	"ch_virtual_timer\000"
 2435      69727475 
 2435      616C5F74 
 2435      696D6572 
 2435      00
 2436              	.LASF20:
 2437 0660 7274636E 		.ascii	"rtcnt_t\000"
 2437      745F7400 
 2438              	.LASF144:
 2439 0668 53445F52 		.ascii	"SD_READY\000"
 2439      45414459 
 2439      00
 2440              	.LASF69:
 2441 0671 76745F70 		.ascii	"vt_par\000"
 2441      617200
ARM GAS  /tmp/ccoNENpV.s 			page 49


 2442              	.LASF27:
 2443 0678 6576656E 		.ascii	"eventflags_t\000"
 2443      74666C61 
 2443      67735F74 
 2443      00
 2444              	.LASF18:
 2445 0685 75696E74 		.ascii	"uint32_t\000"
 2445      33325F74 
 2445      00
 2446              	.LASF145:
 2447 068e 73647374 		.ascii	"sdstate_t\000"
 2447      6174655F 
 2447      7400
 2448              	.LASF122:
 2449 0698 715F746F 		.ascii	"q_top\000"
 2449      7000
 2450              	.LASF101:
 2451 069e 63685F6D 		.ascii	"ch_mutex\000"
 2451      75746578 
 2451      00
 2452              	.LASF115:
 2453 06a7 65735F6E 		.ascii	"es_next\000"
 2453      65787400 
 2454              	.LASF125:
 2455 06af 715F6E6F 		.ascii	"q_notify\000"
 2455      74696679 
 2455      00
 2456              	.LASF78:
 2457 06b8 726C6973 		.ascii	"rlist\000"
 2457      7400
 2458              	.LASF114:
 2459 06be 6576656E 		.ascii	"event_source\000"
 2459      745F736F 
 2459      75726365 
 2459      00
 2460              	.LASF15:
 2461 06cb 75696E74 		.ascii	"uint8_t\000"
 2461      385F7400 
 2462              	.LASF93:
 2463 06d3 77746F62 		.ascii	"wtobjp\000"
 2463      6A7000
 2464              	.LASF49:
 2465 06da 74687265 		.ascii	"threads_list_t\000"
 2465      6164735F 
 2465      6C697374 
 2465      5F7400
 2466              	.LASF43:
 2467 06e9 705F6D73 		.ascii	"p_msg\000"
 2467      6700
 2468              	.LASF167:
 2469 06ef 6D61696E 		.ascii	"main\000"
 2469      00
 2470              	.LASF160:
 2471 06f4 63726352 		.ascii	"crcRes\000"
 2471      657300
 2472              	.LASF103:
 2473 06fb 6D5F6F77 		.ascii	"m_owner\000"
ARM GAS  /tmp/ccoNENpV.s 			page 50


 2473      6E657200 
 2474              	.LASF34:
 2475 0703 705F6374 		.ascii	"p_ctx\000"
 2475      7800
 2476              	.LASF68:
 2477 0709 76745F66 		.ascii	"vt_func\000"
 2477      756E6300 
 2478              	.LASF108:
 2479 0711 6576656E 		.ascii	"event_listener\000"
 2479      745F6C69 
 2479      7374656E 
 2479      657200
 2480              		.ident	"GCC: (4.8.4-1+11-1) 4.8.4 20141219 (release)"
ARM GAS  /tmp/ccoNENpV.s 			page 51


DEFINED SYMBOLS
                            *ABS*:0000000000000000 main.c
     /tmp/ccoNENpV.s:19     .text.prepareForSend:0000000000000000 $t
     /tmp/ccoNENpV.s:25     .text.prepareForSend:0000000000000000 prepareForSend
     /tmp/ccoNENpV.s:94     .text.main:0000000000000000 $t
     /tmp/ccoNENpV.s:100    .text.main:0000000000000000 main
     /tmp/ccoNENpV.s:182    .text.main:0000000000000094 $d
                     .debug_frame:0000000000000010 $d
     /tmp/ccoNENpV.s:189    .text.main:00000000000000a4 $t

UNDEFINED SYMBOLS
crcFast
halInit
chSysInit
crcInit
_pal_lld_setgroupmode
sdStart
chOQWriteTimeout
chThdSleep
SD3
