ARM GAS  /tmp/cca4i599.s 			page 1


   1              		.cpu cortex-m0
   2              		.fpu softvfp
   3              		.eabi_attribute 20, 1
   4              		.eabi_attribute 21, 1
   5              		.eabi_attribute 23, 3
   6              		.eabi_attribute 24, 1
   7              		.eabi_attribute 25, 1
   8              		.eabi_attribute 26, 1
   9              		.eabi_attribute 30, 6
  10              		.eabi_attribute 34, 0
  11              		.eabi_attribute 18, 4
  12              		.code	16
  13              		.file	"main.c"
  14              		.text
  15              	.Ltext0:
  16              		.section	.gnu.lto_.inline.ca0ffbfe55d3c68d,"",%progbits
  17 0000 789C6362 		.ascii	"x\234cb`b\300\006\302\2404PVT\026H\3115\374bd`\201("
  17      6062C006 
  17      C2A03450 
  17      56541648 
  17      C935FC62 
  18 0018 66E10512 		.ascii	"f\341\005\022\214\014\206\337A\362:\017\2563\301$X\371"
  18      8C0C86DF 
  18      41F23A0F 
  18      AE33C124 
  18      58F9
  19 002a 8004330F 		.ascii	"\200\0043\017\214\000\253C\020\214\\0\202\001\000e\332"
  19      8C00AB43 
  19      108C5C30 
  19      82010065 
  19      DA
  20 003b 05D1     		.ascii	"\005\321"
  21              		.text
  22              		.section	.gnu.lto_prepareForSend.ca0ffbfe55d3c68d,"",%progbits
  23 0000 789C9D93 		.ascii	"x\234\235\223\277K\034A\024\307\337\233\231\375q{gr"
  23      BF4B1C41 
  23      14C7DF9B 
  23      99FD717B 
  23      6772
  24 0012 6D0804F1 		.ascii	"m\010\004\361\017\010\330\330\246Nw\004\205\244<\326"
  24      0F08D8D8 
  24      A64E7704 
  24      85A43CD6 
  25 0022 706C610A 		.ascii	"pla\012SZ8w\247 ^\212#U\210\215\026\001\011\242\355"
  25      535A3877 
  25      A7205E8A 
  25      2355888D 
  25      160109A2 
  26 0037 090ADB08 		.ascii	"\011\012\333\010\202\210\246\014\204\260\001-\202\011"
  26      8288A60C 
  26      84B0012D 
  26      8209
  27 0045 1C811008 		.ascii	"\034\201\020\010\301q\336\316\316\23696F\035\330wo\367"
  27      C171DECE 
  27      CE9E3936 
  27      461DD877 
  27      6FF7
ARM GAS  /tmp/cca4i599.s 			page 2


  28 0057 CDF7F37D 		.ascii	"\315\367\363}\373v\216\001\203\341u__\334\001\250\322"
  28      FB768E01 
  28      83E1755F 
  28      5FDC01A8 
  28      D2
  29 0068 8D00D43B 		.ascii	"\215\000\324;\220!\327\221#\352G\010\363\214\343\374"
  29      9021D791 
  29      23EA4708 
  29      F38CE3FC 
  30 0078 33CA2118 		.ascii	"3\312!\030\2035)_'{\235W\367\226W[]y\256\024FT\012\021"
  30      8335295F 
  30      277B9D57 
  30      F796575B 
  30      5D79AE14 
  31 0090 9EEA0C47 		.ascii	"\236\352\014G\323\037&\37661\262\370\363Im_.\304J=\272"
  31      D31F26FE 
  31      3631B2F8 
  31      F3496D5F 
  31      2EC44A3D 
  32 00a5 BEA67F0B 		.ascii	"\276\246\177\013\315\217\233k\344vR[\267\032>\320T\215"
  32      CD8F9B6B 
  32      E476525B 
  32      B71A3ED0 
  32      548D
  33 00b7 86156A36 		.ascii	"\206\025j6\327%_\225\177\224\342\021\212\201\3067\032"
  33      D7255F95 
  33      7F94E211 
  33      8A81C637 
  33      1A
  34 00c8 2CECED67 		.ascii	",\354\355g\262\277\206Z\333\354+u\367\006\355}\252\275"
  34      B2BF865A 
  34      DBEC2B75 
  34      F706ED7D 
  34      AABD
  35 00da B1ED5DD7 		.ascii	"\261\355]\327\352\327\255\254\342\217\337b\224\313V"
  35      EAD7ADAC 
  35      E28FDF62 
  35      94CB56
  36 00e9 E53008F0 		.ascii	"\3450\010\360?\343\330bq\242\324\316\273\343\007#\210"
  36      3FE3D862 
  36      71A2D4CE 
  36      BBE30723 
  36      88
  37 00fa 33A84F59 		.ascii	"3\250OY\035\337\343\030p\320\256\202\202C\301\3255\364"
  37      1DDFE318 
  37      70D0AE82 
  37      8243C1D5 
  37      35F4
  38 010c 28F375E0 		.ascii	"(\363u\340%\035D@\267e\312*\220\266\250\267.H\331\035"
  38      251D4440 
  38      B765CA2A 
  38      90B6A8B7 
  38      2E48D91D 
  39 0120 3584B465 		.ascii	"5\204\264e\275&\3238E\247\223\037\301b\2621Q\307\015"
  39      BD26D338 
  39      45A7931F 
  39      C162B231 
ARM GAS  /tmp/cca4i599.s 			page 3


  39      51C70D
  40 0133 74A0816C 		.ascii	"t\240\201l\016~\313%Y\215\320\015\321\314\241\201H]"
  40      0E7ECB25 
  40      598DD00D 
  40      D1CCA181 
  40      485D
  41 0145 7AE4EC03 		.ascii	"z\344\354\003\034B\253\327\353\3341\202\025x\333\224"
  41      1C42ABD7 
  41      EBDC3182 
  41      1578DB94 
  42 0155 528E4758 		.ascii	"R\216GX\312\266\231W\240\254D\371!\264;\355m\264x\236"
  42      CAB69957 
  42      A0AC44F9 
  42      21B43BED 
  42      6DB4789E 
  43 0169 ED62A6D6 		.ascii	"\355b\246\326\352u\275\002\020\037\002\365s\322nN\022"
  43      EA75BD02 
  43      101F02F5 
  43      73D26E4E 
  43      12
  44 017a 96C4AE22 		.ascii	"\226\304\256\"\211!R\325\202\276\344 \307\202\270\001"
  44      892152D5 
  44      82BEE420 
  44      C782B801 
  45 018a 1D14829C 		.ascii	"\035\024\202\234\001\250\201n\0069\315!\236\205\010"
  45      01A8816E 
  45      0639CD21 
  45      9E8508
  46 0199 63B0D99E 		.ascii	"c\260\331\236\265%_\0175\235\237o\370g\334V4\326\314"
  46      B5255F0F 
  46      359D9F6F 
  46      F867DC56 
  46      34D6CC
  47 01ac F37181A1 		.ascii	"\363q\201\241w\331\260\224\031~\315\015\003k\350d\324"
  47      77D9B094 
  47      197ECD0D 
  47      036BE864 
  47      D4
  48 01bd 8161B941 		.ascii	"\201a\271A\337\365\037\330\3402\266\234a\277\347\330"
  48      DFF51FD8 
  48      E032B69C 
  48      61BFE7D8 
  49 01cd 8AC5BA57 		.ascii	"\212\305\272WM\26524U{\360\247\350\257\316\017\240\251"
  49      4DB53234 
  49      557BF0A7 
  49      E8AFCE0F 
  49      A0A9
  50 01df 5F6B9A9A 		.ascii	"_k\232\232\370\000\315dG\030\202]\223t\254\350\243y"
  50      F800CD64 
  50      4718825D 
  50      9374ACE8 
  50      A379
  51 01f1 33F5E8C5 		.ascii	"3\365\350\305\303\020\334p6|\362\374\345\005\267\211"
  51      C310DC70 
  51      367CF2FC 
  51      E505B789 
  52 0201 1AA0     		.ascii	"\032\240"
ARM GAS  /tmp/cca4i599.s 			page 4


  53              		.text
  54              		.section	.gnu.lto_main.ca0ffbfe55d3c68d,"",%progbits
  55 0000 789CCD55 		.ascii	"x\234\315U]h\034U\024\276\347\336\231\235\331I6\273"
  55      5D681C55 
  55      14BEE7DE 
  55      999DD949 
  55      36BB
  56 0012 D924DB56 		.ascii	"\331$\333Vk,y\264\022\264\212\372\342\017\370\344\223"
  56      6B2C79B4 
  56      12B48AFA 
  56      E20FF8E4 
  56      93
  57 0023 8209FEBC 		.ascii	"\202\011\376\274m\227\022\246\032\033J\251`\037r\223"
  57      6D9712A6 
  57      1A1B4AA9 
  57      601F7293 
  58 0033 5D6B288A 		.ascii	"]k(\212\253 \015\0064\373P\214\"1\024-+A:\015\010\331"
  58      AB200D06 
  58      34FB508C 
  58      2231142D 
  58      2B413A0D 
  59 0049 875811A4 		.ascii	"\207X\021\244\365\311\365E\020[h\353\203\265\024\307"
  59      F5C9F545 
  59      105B68EB 
  59      83B514C7 
  60 0059 73EE9D3B 		.ascii	"s\356\235;\273\235,:\355\223\027\346\234\331s\316\367"
  60      BB9D2C3A 
  60      ED9317E6 
  60      9CD973CE 
  60      F7
  61 006a 9D33E79E 		.ascii	"\2353\347\236{\2273\316\222\353i||\217\261\307\351\207"
  61      7B9733CE 
  61      92EB697C 
  61      7C8FB1C7 
  61      E987
  62 007c CB002380 		.ascii	"\313\000#\200\203@)\270\305\230\344\016\012\313\202"
  62      834029B8 
  62      C598E40E 
  62      0ACB82
  63 008b 0C5A6C25 		.ascii	"\014Zl%3\334\216\355\216\212\0046\313\205eg\034\230"
  63      33DC8EED 
  63      8E8A0436 
  63      CB856567 
  63      1C98
  64 009d 7D0988A7 		.ascii	"}\011\210\2474\306\032R\276\337\376\366\302\273\273"
  64      34C61A52 
  64      BEDFFEF6 
  64      C2BBBB
  65 00ac 4E2CCFD7 		.ascii	"N,\317\327\345\337a\010>\271*\300^\3047\330\243\024"
  65      E5DF6108 
  65      3EB92AC0 
  65      5EC437D8 
  65      A314
  66 00be 65E85E1A 		.ascii	"e\350^\032&O\257\310\354\262\274\031\206\302'\376T\230"
  66      264FAFC8 
  66      ECB2BC19 
  66      86C227FE 
ARM GAS  /tmp/cca4i599.s 			page 5


  66      5498
  67 00d0 F5F6732B 		.ascii	"\365\366s+\262\026\204\341\223>X\035LAcx/Lp\366\257"
  67      B21684E1 
  67      933E581D 
  67      4C416378 
  67      2F4C70F6 
  68 00e5 6603E471 		.ascii	"f\003\344q9w%\014\363>\330\035\230\253a\3203\325\352"
  68      3977250C 
  68      F33ED81D 
  68      98AB61D0 
  68      33D5EA
  69 00f8 8A14A6BC 		.ascii	"\212\024\246\274\224\230\340\373_n\273<\271\266\"m\223"
  69      9498E0FB 
  69      5F6EBB3C 
  69      B9B6226D 
  69      93
  70 0109 272DE64E 		.ascii	"'-\346Nj\373\341\177[[=\270\372\323\333^}nA\206\341"
  70      6AFBE17F 
  70      5B5B3DB8 
  70      FAD3DB5E 
  70      7D6E4186 
  71 011e AC8F93C7 		.ascii	"\254\217\223\307<H3\016u\034\241\371x\204\0206\320\023"
  71      3C48330E 
  71      751CA1F9 
  71      78841036 
  71      D013
  72 0130 46B1B5F7 		.ascii	"F\261\265\367\202\257>m\001\226\027M\201\303Y\361\277"
  72      82AF3E6D 
  72      0196174D 
  72      81C359F1 
  72      BF
  73 0141 9224ABFC 		.ascii	"\222$\253\374\371j\253\321E\201\011\207\357\254\316"
  73      F96AABD1 
  73      45810987 
  73      EFACCE
  74 0150 9DFF5A67 		.ascii	"\235\377Zg#Q\347\356\333\256\363T\262\316\321Tu.\006"
  74      2351E7EE 
  74      DBAEF354 
  74      B2CED154 
  74      752E06
  75 0163 7FB6BAF6 		.ascii	"\177\266\272\366\301Mw&\203\017.\007 O\230lY\316\306"
  75      C14D7726 
  75      830F2E07 
  75      204F986C 
  75      59CEC6
  76 0176 20DDC13C 		.ascii	" \335\301<\371[\263\353\\z\234\335\017)\306%\250\007"
  76      F95BB3EB 
  76      5C7A9CDD 
  76      0F29C625 
  76      A807
  77 0188 8BF6A299 		.ascii	"\213\366\242\231\344>\316\036\355\240\036\323(\347V"
  77      E43ECE1E 
  77      EDA01ED3 
  77      28E756
  78 0197 5419CEC0 		.ascii	"T\031\316\300\030\3125\224_\360\240\035\2067?\251?\261"
  78      18CA3594 
  78      5FF0A01D 
ARM GAS  /tmp/cca4i599.s 			page 6


  78      86373FA9 
  78      3FB1
  79 01a9 03D0B48E 		.ascii	"\003\320\264\216&\216\372\033\324\202\341\335e\241\020"
  79      268EFA1B 
  79      D482E1DD 
  79      65A110
  80 01b8 360A2B13 		.ascii	"6\012+\023\271\035\374a\273$\262Q\240G\356>\022\375"
  80      B91DFC61 
  80      BB24B251 
  80      A047EE3E 
  80      12FD
  81 01ca 64CE45E6 		.ascii	"d\316E\346\001\262\344I\024\310<\030\231\213\250\233"
  81      01B2E449 
  81      14C83C18 
  81      998BA89B 
  82 01da A887507F 		.ascii	"\250\207P\177\216z\030\365*\352\021\324\247Q\227P\177"
  82      8E7A18F5 
  82      2AEA11D4 
  82      A7519750 
  82      7F
  83 01eb 891A97CD 		.ascii	"\211\032\227\315j\270\177{t^\215.\303Y%;_\240v\005\327"
  83      6AB87F7B 
  83      745E8D2E 
  83      C359253B 
  83      5FA07605 
  84 0200 84929374 		.ascii	"\204\222\223t\225\213\363\254\332\336\334W\206st\342"
  84      958BF3AC 
  84      DADEDC57 
  84      867374E2 
  85 0210 D8317643 		.ascii	"\3301vC.\310\202\017\375\025\320\015\364!\307\030\005"
  85      2EC8820F 
  85      FD15D00D 
  85      F421C718 
  85      05
  86 0221 B51EE915 		.ascii	"\265\036\351\025\304;A[l\276\271Y\324AS\000\324\316"
  86      C43B415B 
  86      6CBEB959 
  86      D4415300 
  86      D4CE
  87 0233 2C39CFB3 		.ascii	",9\317\263\343\355-o\033x\240BW7.\012dR\312\300R\257"
  87      E3ED2D6F 
  87      1B78A042 
  87      57372E0A 
  87      6452CAC0 
  88 0249 F93F724A 		.ascii	"\371?rJ\027\236B\332A\015\377\316J\015\027Z\025\346"
  88      179E42DA 
  88      410DFFCE 
  88      4A0D175A 
  88      15E6
  89 025b 21862F3F 		.ascii	"!\206/?\233\036\355&\321o\266/n\357N\261\002z\240\311"
  89      9B1EED26 
  89      D16FB62F 
  89      6EEF4EB1 
  89      027AA0C9 
  90 026f E2FA3034 		.ascii	"\342\37204M\023\241\202\010>L\035\031\321\0234I\211"
  90      4D13A182 
  90      083E4C1D 
ARM GAS  /tmp/cca4i599.s 			page 7


  90      19D11334 
  90      4989
  91 0281 04F5A679 		.ascii	"\004\365\246y2o\232\303)\312#79.^\210\035\242\253\036"
  91      326F9AC3 
  91      29CA2337 
  91      392E5E88 
  91      1DA2AB1E 
  92 0295 726EBC6C 		.ascii	"rn\274l<\326^\366\231\254\241\267\264\304>D\265\303"
  92      3CD65EF6 
  92      99ACA1B7 
  92      B4C43E44 
  92      B5C3
  93 02a7 04ABB53F 		.ascii	"\004\253\265?\236v$\374\275z\324\240\354)*t\213U\327"
  93      9E7624FC 
  93      BD7AD4A0 
  93      EC292A74 
  93      8B55D7
  94 02ba 853165D0 		.ascii	"\2051e\320\252\366\006\373\034\205\207\327\300x\235"
  94      AAF606FB 
  94      1C8587D7 
  94      C0789D
  95 02c9 29FA0BBF 		.ascii	")\372\013\277\005\340\242U\325+T|\365\353\330\223UN"
  95      05E0A255 
  95      D52B547C 
  95      F5EBD893 
  95      554E
  96 02db AEE3AB8D 		.ascii	"\256\343\253\215\330\356!\011!\254+\240!\253\261\253"
  96      D8EE2109 
  96      21AC2BA0 
  96      21ABB1AB 
  97 02eb 0FBDE472 		.ascii	"\017\275\344ry\224<\366\364\2433\301\237S\326l\304\177"
  97      79943CF6 
  97      F4A333C1 
  97      9F53D66C 
  97      C47F
  98 02fd 2AB60F18 		.ascii	"*\266\017\030~\331\237\344\317\243W\361\213$\177\001"
  98      7ED99FE4 
  98      CFA357F1 
  98      8B247F01 
  99 030d 9D09FE41 		.ascii	"\235\011\376Ae\3056l\262\332\245s?\216\304vb\260\273"
  99      65C5366C 
  99      B2DAA573 
  99      3F8EC476 
  99      62B0BB
 100 0320 EF81496A 		.ascii	"\357\201Ij\243\240i\2704\261m\032vV\242`\262\340z\301"
 100      A3A069B8 
 100      34B16D1A 
 100      7656A260 
 100      B2E07AC1 
 101 0334 875DE6F0 		.ascii	"\207]\346\360\251Pd\364\341.\232\246\267\332\227\335"
 101      A95064F4 
 101      E12E9AA6 
 101      B7DA97DD 
 102 0344 6DF8BB2B 		.ascii	"m\370\273+\324\363\3164\355\336\313\356\363\341\036"
 102      D4F3CE34 
 102      EDDECBEE 
 102      F3E11E
ARM GAS  /tmp/cca4i599.s 			page 8


 103 0353 9CA9FDD1 		.ascii	"\234\251\375\321!\214 \307\330\033Ij\252t\324Q\312\302"
 103      218C20C7 
 103      D81B496A 
 103      AA74D451 
 103      CAC2
 104 0365 FF089CBB 		.ascii	"\377\010\234\273{\325\3344\257/\345t\210\276\000(\300"
 104      7BD5DC34 
 104      AF2FE574 
 104      88BE0028 
 104      C0
 105 0376 E97C8DAD 		.ascii	"\351|\215\255fr\243\265\370Q\334\214!sG`\213\026b\353"
 105      6672A3B5 
 105      F851DC8C 
 105      21734760 
 105      8B1662EB 
 106 038a 303A1456 		.ascii	"0:\024V\357\344\3063\206\224b\247h\322\211\346\372\322"
 106      EFE4C633 
 106      869462A7 
 106      68D289E6 
 106      FAD2
 107 039c A8018CE8 		.ascii	"\250\001\214\350|\011\232\022:z\322\234Q4%SW&\252k\315"
 107      7C099A12 
 107      3A7AD29C 
 107      51342553 
 107      5726AA6B 
 108 03b1 33C8A2E1 		.ascii	"3\310\242\341\303=\372u.\033\233\025\333\307\357d\272"
 108      C33DFA75 
 108      2E1B9B15 
 108      DBC7EF64 
 108      BA
 109 03c2 366982BE 		.ascii	"6i\202\276PLD=c\316t\331\177m\274\302\304\301\361\007"
 109      504C443D 
 109      63CE74D9 
 109      7F6DBCC2 
 109      C4C1F107 
 110 03d6 F079100E 		.ascii	"\360y\020\016\012\177|\037>\017\201\217\362\341\354"
 110      0A7F7C1F 
 110      3E0F818F 
 110      F2E1EC
 111 03e5 E1F2EBCF 		.ascii	"\341\362\353\317\227\247g^=\340\315\034:|D\277ff\312"
 111      97A7675E 
 111      3DE0CD1C 
 111      3A7C44BF 
 111      6666CA
 112 03f8 95570E1C 		.ascii	"\225W\016\034\371\007\362\012U\217"
 112      F907F20A 
 112      558F
 113              		.text
 114              		.section	.gnu.lto_.symbol_nodes.ca0ffbfe55d3c68d,"",%progbits
 115 0000 789C45C8 		.ascii	"x\234E\310\273\015\302@\020\204\341\231]\237M\027\324"
 115      BB0DC240 
 115      1084E199 
 115      5D9F4D17 
 115      D4
 116 0011 462563E1 		.ascii	"F%c\341\304\021\"\341\015\321\225\342\234\0109\006\221"
 116      C41122E1 
 116      0DD195E2 
ARM GAS  /tmp/cca4i599.s 			page 9


 116      9C083906 
 116      91
 117 0022 5203C23A 		.ascii	"R\003\302:\237\270M\276\375\307`\030\220\317v\024\260"
 117      9FB84DBE 
 117      FDC76018 
 117      90CF7614 
 117      B0
 118 0033 BD03D2A3 		.ascii	"\275\003\322\243_\331\236b\316\261g\270r\372\300\003"
 118      5FD99E62 
 118      CEB167B8 
 118      72FAC003 
 119 0043 65F3DAB6 		.ascii	"e\363\332\266\344\215\362R\027\252*u\246B\251\023U\227"
 119      E48DF252 
 119      17AA2A75 
 119      A642A913 
 119      5597
 120 0055 3A52CDBF 		.ascii	":R\315\277\034\216\356\371\245s\221m\020\2235\336\331"
 120      1C8EEEF9 
 120      A573916D 
 120      109335DE 
 120      D9
 121 0066 EE351B93 		.ascii	"\3565\033\223\001C\022Xo>Kg\2058\211\037<\275:\024"
 121      01431258 
 121      6F3E4B67 
 121      8538891F 
 121      3CBD3A14 
 122              		.text
 123              		.section	.gnu.lto_.refs.ca0ffbfe55d3c68d,"",%progbits
 124 0000 789C6362 		.ascii	"x\234cb`b`g\200\000&F& `\000\000\000\364\000\027"
 124      60626067 
 124      80002646 
 124      26206000 
 124      0000F400 
 125              		.text
 126              		.section	.gnu.lto_.decls.ca0ffbfe55d3c68d,"",%progbits
 127 0000 789CBD5C 		.ascii	"x\234\275\\{t\024U\232\257G?\322$\006\3069\272\314\236"
 127      7B741455 
 127      9AAF473F 
 127      D22406C6 
 127      39BACC9E 
 128 0014 D9B567CF 		.ascii	"\331\265g\317\270\3138j\002\270\256\263\347\214\312"
 128      B8CB386A 
 128      02B8AEB3 
 128      E78CCA
 129 0023 10546641 		.ascii	"\020TfA\230$8\353\037s\332\242S$\255Iw\247\273\302c"
 129      982438EB 
 129      1F73DAA2 
 129      5324AD49 
 129      77A7BBC2 
 130 0038 CE9EB508 		.ascii	"\316\236\265\010\020Qy\344%\004I \020\302\001\207Qy"
 130      105179E4 
 130      25044920 
 130      10C20187 
 130      5179
 131 004a A3207470 		.ascii	"\243 tp\011\317!H\020\220\000\011\203\242\214\342\021"
 131      09CF2148 
 131      10900009 
ARM GAS  /tmp/cca4i599.s 			page 10


 131      83A28CE2 
 131      11
 132 005b C32BA264 		.ascii	"\303+\242d\277\373UUwU\245\252\273\252\321\251s\356"
 132      BFFB5555 
 132      7755A5AA 
 132      BBAAD1A9 
 132      73EE
 133 006d 578FBEF7 		.ascii	"W\217\276\367w\277\357\273\337\375\356w\037\011C1T)"
 133      77BFEFBB 
 133      DFFDEE77 
 133      1F094331 
 133      5429
 134 007f 4D51FD70 		.ascii	"MQ\375p=\364[\212\372\334MQ,EQ\217R\211+\003\322\012"
 134      3DF45B8A 
 134      FADC4D51 
 134      2C45518F 
 134      52892B03 
 135 0095 481B216D 		.ascii	"H\033!m\201\264\013\322<(\223\313PT1\244\347!\301+U"
 135      81B40BD2 
 135      3C2893CB 
 135      505431A4 
 135      E721C12B 
 136 00aa CA509A8B 		.ascii	"\312P\232\213\224\031\004i\025\244lHY\224\204M\362\316"
 136      94190469 
 136      15A46C48 
 136      5994844D 
 136      F2CE
 137 00bc 011284FC 		.ascii	"\001\022\204\374\016x\336\012\251U.\303\310\345\266"
 137      0E78DE0A 
 137      A9552EC3 
 137      C8E5B6
 138 00cb C879DF84 		.ascii	"\310y\337\204\3646\244\220\016\233\360\342\205\364\007"
 138      F436A490 
 138      0E9BF0E2 
 138      85F407
 139 00da 2681ED56 		.ascii	"&\201\355V\341\273 \205e|R\027\301\217\302{\005\244"
 139      E1BB2085 
 139      657C5217 
 139      C18FC27B 
 139      05A4
 140 00ec 12485321 		.ascii	"\022HS!\371 \371!\015\2074\015\322B\310\347\205\373"
 140      F920F921 
 140      0D87340D 
 140      D242C8E7 
 140      85FB
 141 00fe 7CB8D370 		.ascii	"|\270\323p\177\010\322tH3 \255\204\362\177\204\373\036"
 141      7F08D274 
 141      483320AD 
 141      84F27F84 
 141      FB1E
 142 0110 B8B7436A 		.ascii	"\270\267Cj\203\024\223\371\035\005\3442-\325O\370z^"
 142      831493F9 
 142      1D05E432 
 142      2DD54FF8 
 142      7A5E
 143 0122 D60BD10F 		.ascii	"\326\013\321\017\321\323\012YgF:\272\207Z&\306\216\364"
 143      D1D30A59 
ARM GAS  /tmp/cca4i599.s 			page 11


 143      67463ABA 
 143      875A26C6 
 143      8EF4
 144 0134 EC39B0E0 		.ascii	"\3549\260\340'bse\254\277\177\327\343\324\335\324k\""
 144      27627365 
 144      ACBF7FD7 
 144      E3D4DDD4 
 144      6B22
 145 0146 5CCD55A2 		.ascii	"\\\315U\242H\013\034\375\350]\324\177\323\034\235\355"
 145      480B1CFD 
 145      E85DD47F 
 145      D31C9DED 
 146 0156 0181C943 		.ascii	"\001\201\311C\226\007\245\242(\216^I\337\215O,\362A"
 146      9607A5A2 
 146      288E5E49 
 146      DF8D4F2C 
 146      F241
 147 0168 6552AF88 		.ascii	"eR\257\210b%)\370\324>\310>\227\274\364\264\212C\033"
 147      622529F8 
 147      D43EC83E 
 147      97BCF4B4 
 147      8A431B
 148 017b 40433244 		.ascii	"@C2D\206\002A\230\271\227Z%\212\325=\233?;\305\210b"
 148      86024198 
 148      B9975A25 
 148      8AD53D9B 
 148      3F3BC588 
 149 0190 0647B7D2 		.ascii	"\006G\267\322\036\000\032FS\367Qk\201\201j(\377\217"
 149      1E001A46 
 149      53F7516B 
 149      81816A28 
 149      FF8F
 150 01a2 D4C0CB3A 		.ascii	"\324\300\313:r\367\3256\026\221\327\"2O\003\317k\350"
 150      72F7D536 
 150      1691D722 
 150      324F03CF 
 150      6BE8
 151 01b4 FB641C8E 		.ascii	"\373d\034\216\206\257\252\013\337\225\014\004\014\177"
 151      86AFAA0B 
 151      DF950C04 
 151      0C7F
 152 01c2 961FFA69 		.ascii	"\226\037\372i\312V^3\225\255\2423\025\014Yk\222\334"
 152      CA565E33 
 152      95ADA233 
 152      150C596B 
 152      92DC
 153 01d4 F830898D 		.ascii	"\3700\211\215W\300P!-\267?\247ZD\261\026Zj5\264\024"
 153      57C05021 
 153      2DB73FA7 
 153      5A44B116 
 153      5A6A35B4 
 154 01e9 230131D4 		.ascii	"#\0011\324\377\222L+\350{\014\353\223k\223J\212]\177"
 154      FF924C2B 
 154      E87B0CEB 
 154      936B934A 
 154      8A5D7F
 155 01fc 18AAA878 		.ascii	"\030\252\250x\016\255+\246Q^\234\241\177\245Z\211!l"
ARM GAS  /tmp/cca4i599.s 			page 12


 155      0EAD2BA6 
 155      515E9CA1 
 155      7FA55A89 
 155      216C
 156 020e 17270E45 		.ascii	"\027'\016E3\240\344B\032=\374\231\326\230\0241\250\346"
 156      33A0E442 
 156      1A3DFC99 
 156      D6981431 
 156      A8E6
 157 0220 58ECBB63 		.ascii	"X\354\273cY\3253{\372\373\227{u\326\344\360\230\252"
 157      59D5337B 
 157      FAFB977B 
 157      75D6E4F0 
 157      98AA
 158 0232 66936C4D 		.ascii	"f\223lM\011=p\3643\214F\011q\2366\254\021=\010F2m4\221"
 158      093D70F4 
 158      338C4609 
 158      719E36AC 
 158      113D0846 
 159 024a 3F81A163 		.ascii	"?\201\241c\260\247\272g\343\201\277\224/\021w\317\026"
 159      B0A7BA67 
 159      E381BF94 
 159      2F1177CF 
 159      16
 160 025b FBFB5FD4 		.ascii	"\373\373_\324Z\274l^b\2258lM\302\274\206(\300L\334\274"
 160      5ABC6C5E 
 160      6295386C 
 160      4DC2BC86 
 160      28C04CDC 
 161 0270 62EF7C42 		.ascii	"b\357|B{9z\033\252\264\232\326\033\027\2533.Vk0\254"
 161      7B397A1B 
 161      AAB49AD6 
 161      1B17AB33 
 161      2E566B30 
 162 0285 27F1D0DF 		.ascii	"'\361\320\337\317\232[\314\326$\235\014\315\315\254"
 162      CF9A5BCC 
 162      D6249D0C 
 162      CDCDAC
 163 0294 E00E0353 		.ascii	"\340\016\003Ss\030YZ\275\216w\205\343\235\003\233\026"
 163      7318595A 
 163      BD8E7785 
 163      E39D039B 
 163      16
 164 02a5 34D777E0 		.ascii	"4\327w\340R+]3\253y\237\370U\177\377`C\335I\314\031"
 164      522B5D33 
 164      AB799FF8 
 164      557FFF60 
 164      43DD49CC 
 165 02ba 8B2477CD 		.ascii	"\213$w\315\255\013\216\367\322\240e\370\241\015\025"
 165      AD0B8EF7 
 165      D2A065F8 
 165      A10D15
 166 02c9 F8ED0005 		.ascii	"\370\355\000\005:u\012tj\025\350\364$\036\310\3601\330"
 166      3A750A74 
 166      6A15E8F4 
 166      241EC8F0 
 166      31D8
ARM GAS  /tmp/cca4i599.s 			page 13


 167 02db 5C85B124 		.ascii	"\\\205\261$*\274\223\252!\374{U\37463\012\300\317\023"
 167      2ABC93AA 
 167      21FC7B55 
 167      FC36330A 
 167      C0CF13
 168 02ee 0CF71DB8 		.ascii	"\014\367\035\270\362\276\314p;}'\000\315b\264\014[\004"
 168      F2BECC70 
 168      3B7D2700 
 168      CD62B40C 
 168      5B04
 169 0300 8AED42AB 		.ascii	"\212\355B\253\331\217\030\265v1\030\252\011\213\034"
 169      D98F18B5 
 169      763118AA 
 169      098B1C
 170 030f 82E25241 		.ascii	"\202\342RAD\025c5UY\242C\372N\0314\246|\375\214j&\231"
 170      44156335 
 170      5559A243 
 170      FA4E1934 
 170      A67CFD8C 
 171 0326 EBDA1B69 		.ascii	"\353\332\033i\261y7mP\335\343Jm\031\011\321\233\352"
 171      B179376D 
 171      50DDE34A 
 171      6D1909D1 
 171      9BEA
 172 0338 8ED5D0B3 		.ascii	"\216\325\320\263Q\364#\310\3661c\266\233\0377\003b\250"
 172      51F423C8 
 172      F63163B6 
 172      9B1F3703 
 172      62A8
 173 034a 8FB148A7 		.ascii	"\217\261H\247\216\355\236\256\023\327+\351\231\010\335"
 173      8EED9EAE 
 173      13D72BE9 
 173      9908DD
 174 0359 6981F5CA 		.ascii	"i\201\365\312\330\345W\233~BXO\325\206\"\253\324\237"
 174      D8E5579B 
 174      7E42584F 
 174      D58622AB 
 174      D49F
 175 036b 9B10A4B1 		.ascii	"\233\020\244\261\3631\242\244\223(\304r6\245\356\265"
 175      F331A2A4 
 175      9328C472 
 175      36A5EEB5 
 176 037b 200CB506 		.ascii	" \014\265\006\213t\015\020b\361\236Y\262\020]\226\204"
 176      8B740D10 
 176      62F19E59 
 176      B2105D96 
 176      84
 177 038c 58BC4012 		.ascii	"X\274@\022\202\243O\240\027\337\020\3075\262`\371Q\272"
 177      82A34FA0 
 177      17DF10C7 
 177      35B260F9 
 177      51BA
 178 039e E40C5ABC 		.ascii	"\344\014Z\274\327\017gUs\012\330;\266\301\274\032\260"
 178      D70F6755 
 178      730AD83B 
 178      B6C1BC1A 
 178      B0
ARM GAS  /tmp/cca4i599.s 			page 14


 179 03af E5871B91 		.ascii	"\345\207\033\2219\353}\271f\331\377}@\317B\371\317c"
 179      39EB7DB9 
 179      66D9FF7D 
 179      40CF42F9 
 179      CF63
 180 03c1 5FBEA553 		.ascii	"_\276\245S\255u\250\315k\346\335\217#\366\005\004\252"
 180      AD75A8CD 
 180      6BE6DD8F 
 180      23F60504 
 180      AA
 181 03d2 72A40BD4 		.ascii	"r\244\013\324\335:\357W\010t\021\201\026:\364\336\305"
 181      DD3AEF57 
 181      08741181 
 181      163AF4DE 
 181      C5
 182 03e3 ADF32E6E 		.ascii	"\255\363.n\255wq{\022\017\262w\371a\2633\324\353\016"
 182      AD77717B 
 182      120FB277 
 182      F961B333 
 182      D4EB0E
 183 03f6 0B0D9761 		.ascii	"\013\015\227af\005b\317\251\305\207\330%bl6\253tG\227"
 183      660562CF 
 183      A9C587D8 
 183      25626C36 
 183      AB744797 
 184 040a 998E186A 		.ascii	"\231\216\030j\005\326\365\245\336\2227\236\337\367\213"
 184      05D6F5A5 
 184      DE92379E 
 184      DFF78B
 185 0419 06511C22 		.ascii	"\006Q\034\"\375\224\332\2207\037Xl\2517\352\235\330"
 185      FD94DA90 
 185      371F586C 
 185      A937EA9D 
 185      D8
 186 042a 49ACBE57 		.ascii	"I\254\276W_\375\222O{\356\227\252\357\265T\375\322\203"
 186      5FFD924F 
 186      7BEE97AA 
 186      EFB554FD 
 186      D283
 187 043c F503AB37 		.ascii	"\365\003\2537\215Xe\313\330x\376\263\237.\307J\256c"
 187      8D5865CB 
 187      D878FEB3 
 187      9F2EC74A 
 187      AE63
 188 044e 7F59ECD4 		.ascii	"\177Y\354\324\233\306c\231\352\272\360]\225\201\241"
 188      9BC66399 
 188      EABAF05D 
 188      9581A1
 189 045d 9A9D0AF7 		.ascii	"\232\235\012\367iuW\020\363\253\373\327n\020\305\227"
 189      69755710 
 189      F3ABFBD7 
 189      6E10C597 
 190 046d 5D0A0F2D 		.ascii	"]\012\017-\266\021\275\032E,;\210\016@\002[m\005\314"
 190      B611BD1A 
 190      452C3B88 
 190      0E40025B 
 190      6D05CC
ARM GAS  /tmp/cca4i599.s 			page 15


 191 0480 D48E2A63 		.ascii	"\324\216*co\253\301\336\260\015\246\345l\203\032\354"
 191      6FABC1DE 
 191      B00DA6E5 
 191      6C831AEC 
 192 0490 4D2B6043 		.ascii	"M+`C\3149\333\244\006[o\033L\313\331\0265\330&+`C\315"
 192      CC39DBA4 
 192      065B6F1B 
 192      4CCBD916 
 192      35D8262B 
 193 04a7 39DBA606 		.ascii	"9\333\246\006\333j\033L\313\331\273j\260w\255\200y\015"
 193      DB6A1B4C 
 193      CBD9BB6A 
 193      B077AD80 
 193      790D
 194 04b9 388B5F66 		.ascii	"8\213_fQ\321\327\211\370\220\241\336s*\016\301\246M"
 194      51D1D789 
 194      F890A1DE 
 194      732A0EC1 
 194      A64D
 195 04cb 53098C36 		.ascii	"S\011\2146\247]\007\246\221\033\306\321\277\264\320"
 195      A75D07A6 
 195      911BC6D1 
 195      BFB4D0
 196 04da 75B3C47D 		.ascii	"u\263\304}\271\312X\266\327\012b\022\203\331\242\036"
 196      B9CA58B6 
 196      D70A6212 
 196      83D9A21E 
 197 04ea 183B6C83 		.ascii	"\030;l\203i\233\345\030\0013\236\343\306\222\317D\311"
 197      699BE518 
 197      01339EE3 
 197      C692CF44 
 197      C9
 198 04fb 5496514D 		.ascii	"T\226QM[\207\032\347\345\350z\346^\240\2571\2368\027"
 198      5B871AE7 
 198      E5E87AE6 
 198      5EA0AF31 
 198      9E3817
 199 050e D2B3F244 		.ascii	"\322\263\362Df\226\014u\302\251\235\214\306\257TE\315"
 199      66960C75 
 199      C2A99D8C 
 199      C6AF5445 
 199      CD
 200 051f 2CA19651 		.ascii	",\241\226QY\302i+jJ\322\025n\036n\374\007\261'F[\237"
 200      59C2692B 
 200      6A4AD215 
 200      6E1E6EFC 
 200      07B12746 
 201 0535 A6D79CDD 		.ascii	"\246\327\234\335\371k\034\253\2270d\254>?\300!\267\332"
 201      F96B1CAB 
 201      973064AC 
 201      3E3FC021 
 201      B7DA
 202 0547 9CA833D4 		.ascii	"\234\2503\324\027z!4\365\246\354\202\020\227~\\G\367"
 202      177A2134 
 202      F5A6EC82 
 202      10977E5C 
 202      47F7
ARM GAS  /tmp/cca4i599.s 			page 16


 203 0559 568A0DB9 		.ascii	"V\212\015\2716\304X&\213\261\014\305\270\362=\210\361"
 203      36C45826 
 203      8BB10CC5 
 203      B8F23D88 
 203      F1
 204 056a AD6D3186 		.ascii	"\255m1\206\251\304 \341\365\225z\251G\375\230\252M\036"
 204      A9C420E1 
 204      F5957AA9 
 204      47FD98AA 
 204      4D1E
 205 057c 13107E5A 		.ascii	"\023\020~Z\230\037kg\025W;\310\\\205|\2660\2518\252"
 205      981F6B67 
 205      15573BC8 
 205      5C857CB6 
 205      30A938AA 
 206 0590 8A1B454B 		.ascii	"\212\033EKq\343\331x\334\270\032U6\333e\020\356Y\201"
 206      71E3D978 
 206      DCB81A55 
 206      36DB6510 
 206      EE5981
 207 05a3 6ADEBC8E 		.ascii	"j\336\274\2160\272\026Q^I\027\245\247\373\273\367\245"
 207      30BA1651 
 207      5E4917A5 
 207      A7FBBBF7 
 207      A5
 208 05b4 F5A27508 		.ascii	"\365\242u\010T\353\322\267\240K\327\200.m\003\302+\251"
 208      54EBD2B7 
 208      A04BD780 
 208      2E6D03C2 
 208      2BA9
 209 05c6 E90609E9 		.ascii	"\351\006\011\351\350\027\345/\344\305M\375\335\3131"
 209      E817E52F 
 209      E4C54DFD 
 209      DDCB31
 210 05d5 5423B24F 		.ascii	"T#\262O\032/\2350\205Lk\016\325+\356Xj\237\226\333B"
 210      1A2F9D30 
 210      854C6B0E 
 210      D52BEE58 
 210      6A9F96DB 
 211 05ea AC8CEDAA 		.ascii	"\254\214\355\252U\346=\217\021\207\274\3566\341N\037"
 211      55E63D8F 
 211      1187BCEE 
 211      36E14E1F 
 212 05fa D53B645D 		.ascii	"\325;d] x\322\304\211\305\347\265\355m\362\224~\013"
 212      2078D2C4 
 212      89C5E7B5 
 212      ED6DF294 
 212      7E0B
 213 060c 4318DA38 		.ascii	"C\030\3328\240\301O\320\272X\220|Pe1\353I\233\325\036"
 213      A0C14FD0 
 213      BA58907C 
 213      506531EB 
 213      499BD51E 
 214 0620 B5FDF6E4 		.ascii	"\265\375\366\344\204\206\350^%5D\2528\3739\005-\013"
 214      8486E85E 
 214      253544AA 
 214      38FB3905 
ARM GAS  /tmp/cca4i599.s 			page 17


 214      2D0B
 215 0632 2B3E8415 		.ascii	"+>\204\025\357`tav\357\265\236*Yn\362[\352\256\335\365"
 215      EF607461 
 215      76EFB59E 
 215      2A596EF2 
 215      5BEAAEDD 
 216 0647 8947ACCD 		.ascii	"\211G\254\315Rf\377\225n\005U\256U3\325OiW\261\263\374"
 216      5266FF95 
 216      6E0555AE 
 216      5533D54F 
 216      6957B1B3 
 217 065c BE5C3B4E 		.ascii	"\276\\;N\242]q\022\273\245\356\355\3267\322Z&\375n\311"
 217      A25D7112 
 217      BBA5EEED 
 217      D637D25A 
 217      26FD6EC9 
 218 0670 50D57A71 		.ascii	"P\325zq\254\206\313\361\313\314\010\266\253\215`\221"
 218      AC86CBF1 
 218      CBCC08B6 
 218      AB8D6091 
 219 0680 FB368DE0 		.ascii	"\3736\215\340\304\247\026\215@\244\325\301\014C5a\315"
 219      C4A7168D 
 219      40A4D5C1 
 219      0C433561 
 219      CD
 220 0691 FBF556D0 		.ascii	"\373\365V\320ts\337K\362\252\305~KVpUc\005\035q\324"
 220      7473DF4B 
 220      F2AAC57E 
 220      4B567055 
 220      63051D71 
 221 06a6 74ACA032 		.ascii	"t\254\2402\326wq?\215pRpvB\017gs\322\362-oW1\362r\334"
 221      D677713F 
 221      8D705270 
 221      76420F67 
 221      73D2F22D 
 222 06c0 47B81C77 		.ascii	"G\270\034w\224!2u\0170-I3*\323J\250\221\243\017b\264"
 222      94213275 
 222      0F302D49 
 222      332AD34A 
 222      A891A30F 
 223 06d6 7688F919 		.ascii	"v\210\371\031\320\303H\217\000Mi\026\037\250\315\342"
 223      D0C3488F 
 223      004D6916 
 223      1FA8CDE2 
 224 06e6 53DB727B 		.ascii	"S\333r{-Z\337>u5_\246k}T\002\343\252\333B`\3505k\"\262"
 224      2D5ADF3E 
 224      75355FA6 
 224      6B7D5402 
 224      E3AADB42 
 225 0700 3E71DD61 		.ascii	">q\335am}B\361\317\235\207f\312\353\216\037a\373\364"
 225      6D7D42F1 
 225      CF9D8766 
 225      CAEB8E1F 
 225      61FBF4
 226 0713 E9DAC7C2 		.ascii	"\351\332\307\302B\307\334\014R\344\264\336\370\273\026"
 226      42C7DC0C 
 226      52E4B4DE 
ARM GAS  /tmp/cca4i599.s 			page 18


 226      F8BB16
 227 0722 5F51D61D 		.ascii	"_Q\326\035O[0\376\312X\347\253\352%;\216\356\246\031"
 227      4F5B30FE 
 227      CA58E7AB 
 227      EA253B8E 
 227      EEA619
 228 0735 19375D85 		.ascii	"\0317]\205\252.5\203\034}\026\315\252[mJ\014\325\220"
 228      AA2E3583 
 228      1C7D16CD 
 228      AA5B6D4A 
 228      0CD590
 229 0748 6157F95E 		.ascii	"aW\371^\015\377\357\036\307\231\320>\034\347VZ\001\033"
 229      0DFFEF1E 
 229      C799D03E 
 229      1CE7565A 
 229      011B
 230 075a 66D692A0 		.ascii	"f\326\222\240\214\343\215\2622\244\365\276u\266\361"
 230      8CE38DB2 
 230      32A4F5BE 
 230      75B6F1
 231 0769 BCC99491 		.ascii	"\274\311\224\221X`\345\35034Q\306Y\232\364\256\036\244"
 231      5860E5E8 
 231      333451C6 
 231      599AF4AE 
 231      1EA4
 232 077b 7F457A09 		.ascii	"\177Ez\011\351|\354u\013\221\326 m@\332\204t%\322\223"
 232      E97CEC75 
 232      0B91D620 
 232      6D40DA84 
 232      7425D293 
 233 078f 48CF213D 		.ascii	"H\317!=o\245\177\352\206x\245\255;\323^\236\355\325"
 233      6FA57FEA 
 233      8678A5AD 
 233      3BD35E9E 
 233      EDD5
 234 07a1 D9CE39DB 		.ascii	"\331\3169\333xI\325\325\251R\327\207\250\256\343\250"
 234      7849D5D5 
 234      A952D787 
 234      A8AEE3A8 
 235 07b1 9C4FB416 		.ascii	"\234O\264\026\2645C\3318H\303a\317\236\325\323\367\312"
 235      B43543D9 
 235      3848C361 
 235      CF9ED5D3 
 235      F7CA
 236 07c3 9E1A6900 		.ascii	"\236\032i\000\302\301{V\322\301\033\006k"
 236      C2C17B56 
 236      D2C11B06 
 236      6B
 237 07d0 E424F59E 		.ascii	"\344$\365\236\015C\265\351\031\263\351\372\027W)\352"
 237      0D43B5E9 
 237      19B3E9FA 
 237      175729EA 
 238 07e0 95F6440F 		.ascii	"\225\366D\017\332\306\363j\360\032\332\261\253H`\307"
 238      DAC6F36A 
 238      F01ADAB1 
 238      AB4860C7 
 239 07f0 AC802559 		.ascii	"\254\200%Y\201hT\203\235\262\015\246\345l\231\032\354"
ARM GAS  /tmp/cca4i599.s 			page 19


 239      81685483 
 239      9DB20DA6 
 239      E56C991A 
 239      EC
 240 0801 AF56C092 		.ascii	"\257V\300\222\314\323\327\2677\016\\<\265\276\367\177"
 240      CCD3D7B7 
 240      370E5C3C 
 240      B5BEF77F 
 241 0811 8549B62D 		.ascii	"\205I\266-\271\337\204-R\362Zb`\322lD\232\217\004\261"
 241      B9DF842D 
 241      52F25A62 
 241      60D26C44 
 241      9A8F04B1 
 242 0825 332BC820 		.ascii	"3+\310 \335\213\316\353o\031\332A@W3\341\313\254\346"
 242      DD8BCEEB 
 242      6F19DA41 
 242      405733E1 
 242      CBACE6
 243 0838 3E46D3B3 		.ascii	">F\323\2635\275H\367\033\314\337m\353W\333X\033\253"
 243      35BD48F7 
 243      1BCCDF6D 
 243      EB57DB58 
 243      1BAB
 244 084a 34939DEF 		.ascii	"4\223\235\357\254\300y\015\232\313\350Ro\000B\354\201"
 244      ACC0790D 
 244      9ACBE852 
 244      6F0042EC 
 244      81
 245 085b 5DAD033B 		.ascii	"]\255\003;\375\247\350\347\376\206\364\013\244_\"\375"
 245      FDA7E8E7 
 245      FE86F40B 
 245      A45F22FD 
 246 086b 0AE9D748 		.ascii	"\012\351\327Ho\252\035\303\017\203j\326\002{\006\354"
 246      6FAA1DC3 
 246      0F836AD6 
 246      027B06EC 
 247 087b 49DB5D50 		.ascii	"I\333]P\203\271(2\226\346\371\213[\214zB\027\337\027"
 247      83B92832 
 247      96E6F98B 
 247      5B8C7A42 
 247      17DF17
 248 088e 6F939666 		.ascii	"o\223\226f\344w\313G\000 D\331r\037\256\030T\262\270"
 248      E477CB47 
 248      002044D9 
 248      721FAE18 
 248      54B2B8
 249 08a1 80E131DC 		.ascii	"\200\3411\334\257\262\000\264y\333y\351\020\314\034"
 249      AFB200B4 
 249      79DB79E9 
 249      10CC1C
 250 08b0 045A9036 		.ascii	"\004Z\2206P\367\245\003\322\032\306\\\004Z\254\003\262"
 250      50F7A503 
 250      D21AC65C 
 250      045AAC03 
 250      B2
 251 08c1 7F2EE107 		.ascii	"\177.\341\007\315\254;\211\260R\307\255\202\364*kt\022"
 251      CDAC3B89 
ARM GAS  /tmp/cca4i599.s 			page 20


 251      B052C7AD 
 251      82F42A6B 
 251      7412
 252 08d3 A1F34F6D 		.ascii	"\241\363Om\277m\330 \316~Y\274\325\377\"m\335u\315g"
 252      BF6DD820 
 252      CE7E59BC 
 252      D5FF226D 
 252      DD75CD67 
 253 08e7 6D1D07E8 		.ascii	"m\035\007\350q+\000\377\023Ws\354\273\366\177&[\311"
 253      712B00FF 
 253      135773EC 
 253      BBF67F26 
 253      5BC9
 254 08f9 D52C894B 		.ascii	"\325,\211KO\353\330N\011\302\321\265,\211\001\352X\335"
 254      4FEBD84E 
 254      09C2D1B5 
 254      2C8901EA 
 254      58DD
 255 090b 36FEE597 		.ascii	"6\376\345\227p\033\237|O\035\223^\335\273\312t\367\015"
 255      701B9F7C 
 255      4F1D935E 
 255      DDBBCA74 
 255      F70D
 256 091d 32D0EAA9 		.ascii	"2\320\352\251\017\243v1\014u\02186\232!i\262A4\205\\"
 256      0FA37631 
 256      0C751138 
 256      369A2169 
 256      B2413485 
 257 0932 2ED173B9 		.ascii	".\321s\271]\342r\211%.\337\333\213\023\275d\303L[\222"
 257      5DE27289 
 257      252EDFDB 
 257      8B13BD64 
 257      C34C5B92 
 258 0946 532C4DDA 		.ascii	"S,M\332\306Bo\032\177\226{\263\276\033\247\034VH\226"
 258      C6426F1A 
 258      7F967BB3 
 258      BE1BA71C 
 258      564896
 259 0959 4656353F 		.ascii	"FV5?\352\303\026$\002\245\025\342\211\033D\321\343J"
 259      EAC31624 
 259      02A515E2 
 259      891B44D1 
 259      E34A
 260 096b 57C455C9 		.ascii	"W\304U\311D\224\017\214\245%b\213Z\304~\333\"z\355\211"
 260      44940F8C 
 260      A525628B 
 260      5AC47EDB 
 260      227AED89 
 261 097f 48D608CD 		.ascii	"H\326\010\3158\371S2\021\215\316\277\231\001\275\241"
 261      38F95332 
 261      118DCEBF 
 261      9901BDA1 
 262 098f 1669F620 		.ascii	"\026i\366 \013\"\231G\216\267'\322z\003\221,\211\360"
 262      0B229947 
 262      8EB727D2 
 262      7A03912C 
 262      89F0
ARM GAS  /tmp/cca4i599.s 			page 21


 263 09a1 B65A84B9 		.ascii	"\266Z\204\271\266E\370\036[e\213\205V\211\277W\262\326"
 263      B645F81E 
 263      5B658B85 
 263      5689BF57 
 263      B2D6
 264 09b3 5B69B35A 		.ascii	"[i\263Z\304yVD4\017\241oO\304\367\222\211hG\244\035"
 264      C4795644 
 264      340FA16F 
 264      4FC4F792 
 264      896847A4 
 265 09c8 6A916A6C 		.ascii	"j\221jl\213d\263\325\222\271\213\367\323\360\210i\211"
 265      8B64B3D5 
 265      92B98BF7 
 265      D3F08869 
 265      89
 266 09d9 BC5B2DF2 		.ascii	"\274[-\362\"+\"\233O7nO\344\203ix\310\264D>\240\026"
 266      222B229B 
 266      4F376E4F 
 266      E4836978 
 266      C8B4443E 
 267 09ef B9C9B6C8 		.ascii	"\271\311\266\310^J{)c#G/eqE\002\351Z\244o!\335\204t"
 267      5E4A7B29 
 267      6323472F 
 267      65714502 
 267      E95AA46F 
 268 0a07 3BD236A4 		.ascii	";\3226\244\373Y\013q\364\"5\237-\310g]\232\203\227\030"
 268      FB590B71 
 268      F422359F 
 268      2DC8675D 
 268      9A839718 
 269 0a1b BBB617A6 		.ascii	"\273\266\027\246\225V\027\345\226ml\313\301\370\262"
 269      955617E5 
 269      966D6CCB 
 269      C1F8B2
 270 0a2a 13439F23 		.ascii	"\023C\237#\203l.\311\021\356\217\353\003\212\256\203"
 270      836C2EC9 
 270      11EE8FEB 
 270      038AAE83 
 271 0a3a 18501C4F 		.ascii	"\030P\034O\035P\314\236\025;sP\265\321\230|\031\"\276"
 271      1D50CC9E 
 271      153B7350 
 271      B5D1987C 
 271      1922BE
 272 0a4d 332BEF21 		.ascii	"3+\357!X8?\306\321\247X2\277\260rb\253{\220>\270\276"
 272      58383FC6 
 272      D1A75832 
 272      BFB07262 
 272      AB7B903E 
 273 0a63 A0DFE2B5 		.ascii	"\240\337\342\265\002\363\005\302\034\267\337~F\227Z"
 273      02F305C2 
 273      1CB7DF7E 
 273      46975A
 274 0a72 BB1C7D02 		.ascii	"\273\034}\002e9\2516)\206\372\332\266\275xU\366R\011"
 274      6539A936 
 274      2986FADA 
 274      B6BD7855 
 274      F65209
ARM GAS  /tmp/cca4i599.s 			page 22


 275 0a85 71F747F7 		.ascii	"q\367G\367\340\336\270\233\252\302\351\332\234\312\024"
 275      E0DEB89B 
 275      AAC2E9DA 
 275      9CCA14
 276 0a94 7BE3B1AF 		.ascii	"{\343\261\257]\014G\367\260n\250\375\206Ni\026@\210"
 276      5D0C47F7 
 276      B06EA8FD 
 276      864E6916 
 276      4088
 277 0aa6 54E7A1B0 		.ascii	"T\347\241\260\326f\252\006\023\233!\337\223\330\014"
 277      D666AA06 
 277      139B21DF 
 277      93D80C
 278 0ab5 7A0186AA 		.ascii	"z\001\206\252\314\224\326\376\361\374\263\374m^\342"
 278      CC94D6FE 
 278      F1FCB3FC 
 278      6D5EE2
 279 0ac4 1BADCA5A 		.ascii	"\033\255\312Z\237\370\254L:\214&\230\032\225'\230\343"
 279      9FF8AC4C 
 279      3A8C2698 
 279      1A952798 
 279      E3
 280 0ad5 E88F51E5 		.ascii	"\350\217Q\345\237\260\254a1\360*\231:\355\033\355\351"
 280      9FB0AC61 
 280      31F02A99 
 280      3AED1BED 
 280      E9
 281 0ae6 9B1FF38B 		.ascii	"\233\037\363\213]\337K\266a\254\037[\356W\3668/a\207"
 281      5DDF4BB6 
 281      61AC1F5B 
 281      EE57F638 
 281      2F6187
 282 0af9 6DC91CB0 		.ascii	"m\311\034\260\307A\353\3668\276\267U\000\206Z\257\027"
 282      C741EBF6 
 282      38BEB755 
 282      00865AAF 
 282      17
 283 0b0a 56CB64AA 		.ascii	"V\313d\252\370FD[\253\023q\017Z:v\275\315\022b\256\251"
 283      F846445B 
 283      AB13710F 
 283      5A3A76BD 
 283      CD1262AE 
 284 0b1f FEC82C9A 		.ascii	"\376\310,\232u\375\210\252F\3655dK\201\2162\377\321"
 284      75FD88AA 
 284      46F53564 
 284      4B818E32 
 284      FFD1
 285 0b31 EC10E132 		.ascii	"\354\020\3412\027\373#|\322lXb\0163\347v\225M\034\301"
 285      17FB237C 
 285      D26C5862 
 285      0E33E776 
 285      954D1CC1 
 286 0b45 C9F2241E 		.ascii	"\311\362$\036\224#\241\014\265K/\202\266Z\371q\242\251"
 286      9423A10C 
 286      B54B2F82 
 286      B65AF971 
 286      A2A9
ARM GAS  /tmp/cca4i599.s 			page 23


 287 0b57 52241124 		.ascii	"R$\021$\336\030j\267%\264\347\314\320\214Ff\243\371"
 287      DE186AB7 
 287      25B4E7CC 
 287      D08C4666 
 287      A3F9
 288 0b69 6B5CCBF7 		.ascii	"k\\\313\367'\214k\351\316\2662\311\266n\242m]\3134\034"
 288      278C6BE9 
 288      CEB632C9 
 288      B66EA26D 
 288      5DCB341C 
 289 0b7d 0CCC7130 		.ascii	"\014\314q0b\321\017\006\275\247p0\270ei0\270~\252\336"
 289      62D10F06 
 289      BDA77030 
 289      B8656930 
 289      B87EAADE 
 290 0b91 EA600006 		.ascii	"\352`\000\006L[\365\354\263\263h\231\2654\206T`\353"
 290      4C5BF5EC 
 290      B3B36899 
 290      B5348654 
 290      60EB
 291 0ba3 C6295CA9 		.ascii	"\306)\\\251\235\211Nd\256m0\257\006\354\0335\330<+`"
 291      9D894E64 
 291      AE6D30AF 
 291      06EC1B35 
 291      D83C2B60 
 292 0bb7 66EE03C0 		.ascii	"f\356\003\300\276U\203U\333\006\323rvK\015Vo\005\314"
 292      BE558355 
 292      DB06D372 
 292      764B0D56 
 292      6F05CC
 293 0bca 2CCE07B0 		.ascii	",\316\007\260\352.\025\330\022\333`Z\316j\325`\313\254"
 293      EA2E15D8 
 293      12DB605A 
 293      CE6AD560 
 293      CBAC
 294 0bdc 8099C5AE 		.ascii	"\200\231\305\256\000V\257\006[i\033L\313\331\"5\330"
 294      0056AF06 
 294      5B691B4C 
 294      CBD92235 
 294      D8
 295 0bed 6A2B605E 		.ascii	"j+`^s\316\032\226f\035yN\266\375d\213\203\034]\205\303"
 295      73CE1A96 
 295      661D794E 
 295      B6FD648B 
 295      831C5D85 
 296 0c02 52AA2539 		.ascii	"R\252%9\206zC\317\221\006\307\210#\225xbeli\327\202"
 296      867A43CF 
 296      9106C788 
 296      23957862 
 296      656C69D7 
 297 0c17 A162731B 		.ascii	"\241bs\033\255\254d\276i\033/W#aSW\275\214W\217\032"
 297      ADAC64BE 
 297      691B2F57 
 297      23615357 
 297      BD8C578F 
 298 0c2c DB66052F 		.ascii	"\333f\005/\311\336\345r\035\177;l\343\015\241L/\265"
 298      C9DEE572 
ARM GAS  /tmp/cca4i599.s 			page 24


 298      1D7F3B6C 
 298      E30DA14C 
 298      2FB5
 299 0c3e 37E3E87E 		.ascii	"7\343\350~T\271\350 \343\342,\244s\220\276\204\364e"
 299      54B9E820 
 299      E3E22CA4 
 299      7390BE84 
 299      F465
 300 0c50 A4AF229D 		.ascii	"\244\257\"\235\217t!\322\032\244uH\027!m@\372\272\303"
 300      8F7421D2 
 300      1AA47548 
 300      17216D40 
 300      FABAC3
 301 0c63 C2BCE01B 		.ascii	"\302\274\340\033\365\274\240=\313B\234\0276mJi\354\225"
 301      F5BCA03D 
 301      CB429C17 
 301      366D4A69 
 301      EC95
 302 0c75 CE7F497F 		.ascii	"\316\177I\177\216q\310\012\340t\003\335\033\353\252"
 302      8E71C80A 
 302      E07403DD 
 302      1BEBAA
 303 0c84 4EA5AB7A 		.ascii	"N\245\253z\324\325k8\003:\212\264\033\351\027H/#\355"
 303      D4D56B38 
 303      033A8AB4 
 303      1BE91748 
 303      2F23ED
 304 0c97 457A1D69 		.ascii	"Ez\035i\037\322&+:Y\310&\335s0Y058+\322s\354\302\271"
 304      1FD2262B 
 304      3A59C826 
 304      DD733059 
 304      3035382B 
 305 0cb0 7130F749 		.ascii	"q0\367Iy\264\004&z\216{\015\327W\007\304\027\253\034"
 305      79B40426 
 305      7A8E7B0D 
 305      D75707C4 
 305      17AB1C
 306 0cc3 BAD1EFC3 		.ascii	"\272\321\357\303\2438\372\221\357\251\327V\317\034]"
 306      A338FA91 
 306      EFA9D756 
 306      CF1C5D
 307 0cd2 26EF3149 		.ascii	"&\3571I\015Ts\007-c\2461l\001\336\265\243\350\233$\260"
 307      0D547307 
 307      2D63A631 
 307      6C01DEB5 
 307      A3E89B24 
 308 0ce7 C5B6C134 		.ascii	"\305\266\3014\346\023\273\245\006[j\005,\311&\357\242"
 308      E613BBA5 
 308      065B6A05 
 308      2CC926EF 
 308      A2
 309 0cf8 4E15D872 		.ascii	"N\025\330r\333`\336\001\306'\231]\253\203\230\335j\354"
 309      DB60DE01 
 309      C627995D 
 309      AB8398DD 
 309      6AEC
 310 0d0a 606B90BE 		.ascii	"`k\220\276\201t\235\332\260 h\276C\0374K\355\243\302"
ARM GAS  /tmp/cca4i599.s 			page 25


 310      81749DDA 
 310      B02068BE 
 310      431F344B 
 310      EDA3C2
 311 0d1d 4B342495 		.ascii	"K4$\225\032\321\314T\233\035\231\032P\315\346\310\333"
 311      1AD1CC54 
 311      9B1D991A 
 311      50CDE6C8 
 311      DB
 312 0d2e 3A26944C 		.ascii	":&\224Lo9\2146G.\177~n\036=\263\245*F\376\016\367\305"
 312      6F398C36 
 312      472E7F7E 
 312      6E1E3DB3 
 312      A52A46FE 
 313 0d45 7BACEF8E 		.ascii	"{\254\357\216\254w\330\333\0351\010\014c\037\340\271"
 313      AC77D8DB 
 313      1D31080C 
 313      631FE0B9 
 314 0d55 E14D0E12 		.ascii	"\341M\016\022\024\366\352\330\266\024\024n\325w\213"
 314      14F6EAD8 
 314      B614146E 
 314      D5778B
 315 0d64 9B87B15B 		.ascii	"\233\207\261[lM\335-`\314\350?\254\234O\221FY1\233\226"
 315      6C4DDD2D 
 315      60CCE83F 
 315      AC9C4F91 
 315      4659319B 
 316 0d79 31D38BE6 		.ascii	"1\323\213\346\252;TCv\225m0\257\006\254V\0156\337\012"
 316      AA3B5443 
 316      76956D30 
 316      AF06AC56 
 316      0D36DF0A 
 317 0d8d 589268AE 		.ascii	"X\222h\256^\015\366\232m0-g\213\324`K\255\200%\211\346"
 317      5E0DF69A 
 317      6D302D67 
 317      8BD4604B 
 317      AD802589 
 318 0da2 1AD460CB 		.ascii	"\032\324`\313m\203\2519\233\031\333\332q\200\354!\341"
 318      6D83A939 
 318      9B19DBDA 
 318      7180EC21 
 318      E1
 319 0db3 21F69949 		.ascii	"!\366\231I\027\227,\235s\337\353\320\235s_\2720\233"
 319      17972C9D 
 319      73DFEBD0 
 319      9D735FBA 
 319      309B
 320 0dc5 5817F99E 		.ascii	"X\027\371\236\332\3516u4j\234n\013\012G\312\246\343"
 320      DAE93675 
 320      346A9C6E 
 320      0B0A47CA 
 320      A6E3
 321 0dd7 74C5D8E6 		.ascii	"t\305\330\346\216L\361\225\254\370\337\320\256I\302"
 321      8E4CF195 
 321      ACF8DFD0 
 321      AE49C2
 322 0de6 F8217DB7 		.ascii	"\370!}\267X\336\301x\245\317\251\371^\337\321\250\211"
ARM GAS  /tmp/cca4i599.s 			page 26


 322      58DEC178 
 322      A5CFA9F9 
 322      5EDFD1A8 
 322      89
 323 0df7 7C5A91EF 		.ascii	"|Z\221\357C\216\244\221\217)\337\225\261\015\013!\366"
 323      438EA491 
 323      8F29DF95 
 323      B10D0B21 
 323      F6
 324 0e08 54C0D6DA 		.ascii	"T\300\326\332\006\323\207Q\014\365V\272\212\214_\011"
 324      06D38751 
 324      0CF556BA 
 324      8A8C5F09 
 325 0e18 07BC1F9D 		.ascii	"\007\274\037\235\356A\255\033_o\305\014\223\314\003"
 325      EE41AD1B 
 325      5F6FC50C 
 325      93CC03
 326 0e27 B6A96D7A 		.ascii	"\266\251mz\213m0\257\006\354]5\330v+`^s\316v\250\301"
 326      8B6D30AF 
 326      06EC5D35 
 326      D8762B60 
 326      5E73CE76 
 327 0e3d 62B6C1B4 		.ascii	"b\266\301\264\234\355L\200q\364\\\007\223\032\314(\336"
 327      9CED4C80 
 327      71F45C07 
 327      931ACC28 
 327      DE
 328 0e4e 36BAD48E 		.ascii	"6\272\324\216\235\243\267\341\340\373\016\266\324v\244"
 328      9DA3B7E1 
 328      E0FB0EB6 
 328      D476A4
 329 0e5d EF21DD85 		.ascii	"\357!\335\205\264\015\351\373H\367 =\206\3648\322\223"
 329      B40DE9FB 
 329      48F7203D 
 329      86F438D2 
 329      93
 330 0e6e 484FA51A 		.ascii	"HO\245\032T\345\361\250s\321OI\377\336\350 'q\366dk"
 330      54E5F1A8 
 330      73D14F49 
 330      FFDEE820 
 330      2771F664 
 331 0e83 0724DD01 		.ascii	"\007$\335\001\242M&\242\022\356\3178\314\017\020\351"
 331      A24D26A2 
 331      12EECF38 
 331      CC0F10E9 
 332 0e93 7ED31E25 		.ascii	"~\323\036%I\275H\035\353\257\273\213\360\330\215Mx$"
 332      49BD481D 
 332      EBAFBB8B 
 332      F0D88D4D 
 332      7824
 333 0ea5 5B1F70A4 		.ascii	"[\037p\244\261\262\234\016\027\015w3\034}\036y8\363"
 333      B1B29C0E 
 333      170D7733 
 333      1C7D1E79 
 333      38F3
 334 0eb7 3DF1A00B 		.ascii	"=\361\240\013c.d\033\2071\027\014\303\230\276\353\027"
 334      632E641B 
ARM GAS  /tmp/cca4i599.s 			page 27


 334      8731170C 
 334      C398BEEB 
 334      17
 335 0ec8 D33AE3F1 		.ascii	"\323:\343\361\231C\377\317D\300\341\0156\256\371\242"
 335      9943FFCF 
 335      44C0E10D 
 335      36AEF9A2 
 336 0ed8 61CD3B6F 		.ascii	"a\315;o\356\377e\374?\204H\200\014u\302\004\342s-\304"
 336      EEFF65FC 
 336      3F844880 
 336      0C75C204 
 336      E2732DC4 
 337 0eec BF502B08 		.ascii	"\277P+\010\304\207\027\316=\373\347J\302\274x\243\037"
 337      C48717CE 
 337      3DFBE74A 
 337      C2BC78A3 
 337      1F
 338 0efd A683CA79 		.ascii	"\246\203\312y\221\3568\212\022\000iN\207\020\300K\011"
 338      91EE388A 
 338      1200694E 
 338      8710C04B 
 338      09
 339 0f0e 409D7D92 		.ascii	"@\235}\222\377\007b&\365\227\211\370\321K-'\353\247"
 339      FF076226 
 339      F59789F8 
 339      D14B2D27 
 339      EBA7
 340 0f20 AD1DA2D7 		.ascii	"\255\035\242\327k\374\337[\320(f\2466\012\374\353E\374"
 340      6BFCDF5B 
 340      D02866A6 
 340      360AFCEB 
 340      45FC
 341 0f32 9B09863A 		.ascii	"\233\011\206:?X\273\364\255R\201\215?\2720Y}}D\251\332"
 341      3F58BBF4 
 341      AD52818D 
 341      3FBA3059 
 341      7D7D44A9 
 342 0f47 2D43F63A 		.ascii	"-C\366:\354.\276^q\030/\276\272\214uI\032\325\014\352"
 342      EC2EBE5E 
 342      71182FBE 
 342      BA8C7549 
 342      1AD50CEA 
 343 0f5b 6A4297BA 		.ascii	"jB\227\272R\353\223\224\272fZ\212\234:2+u\335\264\324"
 343      52EB9394 
 343      BA665A8A 
 343      9C3A322B 
 343      75DDB4D4 
 344 0f6f CA24AD7D 		.ascii	"\312$\255}\303\264\024Q\234Y\251>\323R\261$u}\243\232"
 344      C3B41451 
 344      9C59A93E 
 344      D352B124 
 344      757DA39A 
 345 0f83 99B8CBB8 		.ascii	"\231\270\313\270@\360A?\365O9\025\321HN \350/\255(\342"
 345      40F0413F 
 345      F54F3915 
 345      D1484E20 
 345      E82FAD28 
ARM GAS  /tmp/cca4i599.s 			page 28


 346 0f98 7382FCB4 		.ascii	"s\202\374\264\322\300\344\234"
 346      D2C0E49C 
 347 0fa0 A8501408 		.ascii	"\250P\024\010\012\017\226P\356\012\270?\342\023\\O>"
 347      0A0F9650 
 347      EE0AB83F 
 347      E2135C4F 
 347      3E
 348 0fb1 3DC93B9A 		.ascii	"=\311;\232z\300(s\031\347/\011\004\371\034_\021?\205"
 348      7AC02873 
 348      19E72F09 
 348      04F91C5F 
 348      113F85
 349 0fc4 AB28157C 		.ascii	"\253(\025|\302\2140\037\205\302\036\237O.\236\035\216"
 349      C28C301F 
 349      85C21E9F 
 349      4F2E9E1D 
 349      8E
 350 0fd5 F0612EC2 		.ascii	"\360a.\302?\021\212\024\360\301\"W\230\363\277\300\013"
 350      3F118A14 
 350      F0C12257 
 350      98F3BFC0 
 350      0B
 351 0fe6 6C59B4D8 		.ascii	"lY\264\330\345\217\370!+\01377\244'\270\250\360`NI\250"
 351      E58FF821 
 351      2B0B3737 
 351      A427B8A8 
 351      F0604E49 
 352 0ffb 8CCFE1A7 		.ascii	"\214\317\341\247\360"
 352      F0
 353 1000 39A34B02 		.ascii	"9\243K\002\223\003\023\012rB\321\234\022\2564^1<\373"
 353      9303130A 
 353      7242D19C 
 353      12AE345E 
 353      313CFB
 354 1013 CA2BF80A 		.ascii	"\312+\370\012\254%\027y\"\214\024\373\3759\\\244\354"
 354      AC251779 
 354      228C14FB 
 354      FD395CA4 
 354      EC
 355 1024 816028C8 		.ascii	"\201`(\310?\300s\223\0039\017=\370H\274\020\310\004"
 355      3FC07393 
 355      03390F3D 
 355      F848BC10 
 355      C804
 356 1036 0C420157 		.ascii	"\014B\001W4\360G\036x\012U\010\341\012A\002\362\011"
 356      34F0471E 
 356      780A5508 
 356      E10A4102 
 356      F209
 357 1048 830221E5 		.ascii	"\203\002!\3451Cy|\300\220\223\210\020\307\364\227Dg"
 357      3143797C 
 357      C0909388 
 357      10C7F497 
 357      4467
 358 105a 44157107 		.ascii	"D\025q\007\013%\021\236+\212*0C\374%>\315\247_X\200"
 358      0B25119E 
 358      2B8A2A30 
ARM GAS  /tmp/cca4i599.s 			page 29


 358      43FC253E 
 358      CDA75F58 
 359 106f F3971401 		.ascii	"\363\227\024\001T\206T\316'x\342\030\256\260/\310O\027"
 359      548654CE 
 359      2778E218 
 359      AEB02FC8 
 359      4F17
 360 1081 E006BA9C 		.ascii	"\340\006\272\234\372k3\250p(\"DsF\345\217\037=~z\216"
 360      FA6B33A8 
 360      70282244 
 360      7346E58F 
 360      1F3D7E7A 
 361 1096 3F54160E 		.ascii	"?T\026\016\224\362\221h\316\223\243G\003\272\302\251"
 361      94F29168 
 361      CE93A347 
 361      03BAC2A9 
 362 10a6 5B084740 		.ascii	"[\010G@F!\2034\317\310\021 \274\324R\344\021+\010\204"
 362      46218334 
 362      CFC81120 
 362      BCD452E4 
 362      112B0884 
 363 10ba DCFE5050 		.ascii	"\334\376PP\200\372\214\033c@E%\376P\204\007\344L\362"
 363      80FA8C1B 
 363      63404525 
 363      FE508407 
 363      E44CF2
 364 10cd D907507E 		.ascii	"\331\007P~a\372\010\033E}S\037.#rG\370bhA\237\300D\036"
 364      61FA081B 
 364      457D531F 
 364      2E237247 
 364      F8626841 
 365 10e5 6122BF62 		.ascii	"a\"\277b#\303s!\015g\"\0171\221\177g\"\0173\221\377"
 365      23C37321 
 365      0D67220F 
 365      31917F67 
 365      220F3391 
 366 10fa 604A23F0 		.ascii	"`J#\360i\2443\354\203*\334D)\323\370\010\334C\245E|"
 366      69A433EC 
 366      832ADC44 
 366      29D3F808 
 366      DC43A545 
 367 110f C4E12FE1 		.ascii	"\304\341/\341\"DS\\\031\237!D\005N\200v\200\037\361"
 367      2244535C 
 367      199F2144 
 367      054E8076 
 367      801FF1
 368 1122 C92D9485 		.ascii	"\311-\224\205\212\244\367)\245\\q\324\011\346\007o\262"
 368      8AA4F729 
 368      A55C71D4 
 368      09E6076F 
 368      B2
 369 1133 DC60AC8A 		.ascii	"\334`\254\212\006\"E3\340\247\014~z@\360C\011\3274!"
 369      06224533 
 369      E0A70C7E 
 369      7A40F043 
 369      09D73421 
 370 1147 34F9F9F0 		.ascii	"4\371\371\360\235r\233D@\240\010\037\364\003\222s\232"
ARM GAS  /tmp/cca4i599.s 			page 30


 370      9D729B44 
 370      40A0081F 
 370      F4039273 
 370      9A
 371 1158 2044C259 		.ascii	" D\302Y\320FQ\276\214\013\227\200 \303,\2641ODu\313"
 371      D04651BE 
 371      8C0B9780 
 371      20C32CB4 
 371      314F4475 
 372 116d 46E1F407 		.ascii	"F\341\364\007\241\3078\243>\270CM\360c8\003\000\313"
 372      A1C738A3 
 372      3EB8434D 
 372      F0633803 
 372      00CB
 373 117f 2A40FB16 		.ascii	"*@\373\026\300\312\204\351\004\254L\002\203{hZ\020\364"
 373      C0CA84E9 
 373      04AC4C02 
 373      837B685A 
 373      10F4
 374 1191 81C54194 		.ascii	"\201\305A\2242\311h\246\011\220/\314\206}\025\331\212"
 374      32C968A6 
 374      09902FCC 
 374      867D15D9 
 374      8A
 375 11a2 459606A2 		.ascii	"E\226\006\242P\357`\225\215\222/\236\260o\032\027\020"
 375      50EF6095 
 375      8D922F9E 
 375      B06F1A17 
 375      10
 376 11b3 02C16278 		.ascii	"\002\301bx\2022\344\333\2400\310\314\225\022\253\360"
 376      8232E4DB 
 376      A030C8CC 
 376      9512ABF0 
 377 11c3 94C77F2E 		.ascii	"\224\307\177.\367\371C\025`\"\221\214r\337\344\212)"
 377      F7F94315 
 377      6022918C 
 377      72DFE48A 
 377      29
 378 11d4 A01367B9 		.ascii	"\240\023g\271O\010\205\335\220%\022\026\"p\217\024\301"
 378      4F0885DD 
 378      90251216 
 378      22708F14 
 378      C1
 379 11e5 DD531E0C 		.ascii	"\335S\036\014\011\201)3\300\332\312}\322\243\253\034"
 379      09812933 
 379      C0DACA7D 
 379      D2A3AB1C 
 380 11f5 EA0ABEE0 		.ascii	"\352\012\276\340!}'P\306\313v8\374\341\270\035\222\307"
 380      217D2750 
 380      C6CB7638 
 380      FCE1B81D 
 380      92C7
 381 1207 EC50F9EF 		.ascii	"\354P\371\357#\001\201/\204\034\320S\357K\351\024\242"
 381      2301812F 
 381      841CD053 
 381      EF4BE914 
 381      A2
ARM GAS  /tmp/cca4i599.s 			page 31


 382 1218 7C24C095 		.ascii	"|$\300\225\2022\262\012\360)/\022\230\312G\006\253_"
 382      8232B20A 
 382      F0292F12 
 382      98CA4706 
 382      AB5F
 383 122a 9E195FE8 		.ascii	"\236\031_\350\234F@\035Db\026z?[\314\013\016\270\013"
 383      9C46401D 
 383      4462167A 
 383      3F5BCC0B 
 383      0EB80B
 384 123d 0E78003D 		.ascii	"\016x\000=\221\037\005'\371U`\247\226\011\306\015@j"
 384      911F0527 
 384      F95560A7 
 384      9609C60D 
 384      406A
 385 124f 0D458140 		.ascii	"\015E\201@K\220;\324\231\315O\345\241\035\243\241\212"
 385      4B903BD4 
 385      99CD4FE5 
 385      A11DA3A1 
 385      8A
 386 1260 08318C2C 		.ascii	"\0101\214,|E+\203\266\225\254\015?y\242E\262Uz\012\362"
 386      7C452B83 
 386      B695AC0D 
 386      3F79A245 
 386      B2557A0A 
 387 1275 7C939E1E 		.ascii	"|\223\236\036\373\364\330B7<\025\024N\230\230\001\367"
 387      FBF4D842 
 387      373C1514 
 387      4E989801 
 387      F7
 388 1286 FC31A3F2 		.ascii	"\3741\243\362\236ub\226;\002A\225{r\005\360\301\025"
 388      9E756296 
 388      3B024195 
 388      7B7205F0 
 388      C115
 389 1298 C21B1398 		.ascii	"\302\033\023\230\314\204&\347\032r\007\355\2353z|\301"
 389      CC8426E7 
 389      1A7207ED 
 389      9D337A7C 
 389      C1
 390 12a9 D8829C82 		.ascii	"\330\202\234\202Bpze#GL\311\035\231;\375a\340\362\216"
 390      42707A65 
 390      23474CC9 
 390      1D993BFD 
 390      61E0F28E 
 391 12bd 4905A3F2 		.ascii	"I\005\243\362\013}\205\340\006\362\370)\354\350\374"
 391      0B7D85E0 
 391      06F2F829 
 391      ECE8FC
 392 12cc E1904640 		.ascii	"\341\220F@\032\311\376&?\337\361d\341\304|G~\341\204"
 392      1AC9FE26 
 392      3FDFF164 
 392      E1C47C47 
 392      7EE184
 393 12df 7C36FF77 		.ascii	"|6\377w\371\354\330\002H\243\3419/\337\223?\246`L\376"
 393      F9ECD802 
 393      48A3E139 
ARM GAS  /tmp/cca4i599.s 			page 32


 393      2FDF933F 
 393      A6604CFE 
 394 12f3 3363F286 		.ascii	"3c\362\206\263\205\252\267\021\316\212(\027\021\234"
 394      B385AAB7 
 394      11CE8A28 
 394      17119C
 395 1302 FED290FF 		.ascii	"\376\322\220\377\205GMU%u\367\202\302\361#G\344\214"
 395      85474D55 
 395      2575F782 
 395      C2F12347 
 395      E48C
 396 1314 1B979783 		.ascii	"\033\227\227\203LL\035!7\230\257\264\224x<g4\314\363"
 396      4C4C1D21 
 396      3798AFB4 
 396      94783C67 
 396      34CCF3
 397 1327 45300C0C 		.ascii	"E0\014\014\2074\002\322H\271\031G\207\202S\002\305\356"
 397      873402D2 
 397      48B91947 
 397      87825302 
 397      C5EE
 398 1339 68518100 		.ascii	"hQ\201\000u\375\247\345Z\236\2348v\002T\022\216\327"
 398      75FDA7E5 
 398      5A9E9C38 
 398      76025412 
 398      8ED7
 399 134b 9085BAF0 		.ascii	"\220\205\272\360\025\207\211\347s\216\237\2207&\337"
 399      158789E7 
 399      738E9F90 
 399      3726DF
 400 135a 35A1F0D9 		.ascii	"5\241\360\331\211c\362\335\023\012&\216\031\223\227"
 400      8963F2DD 
 400      130A268E 
 400      199397
 401 1369 EF9C3869 		.ascii	"\357\2348ib\036\010\015iB^>\375{6\312\023\341x.B?\345"
 401      621E080D 
 401      69425E3E 
 401      FD7B36CA 
 401      13E1782E 
 402 1380 F84D0168 		.ascii	"\370M\001hh\334\350\377\312w\214z\"\177\034!O\301\220"
 402      68DCE8FF 
 402      CA778C7A 
 402      227F1C21 
 402      4FC190
 403 1393 416A0D80 		.ascii	"Aj\015\200\237\316\222\036\313\270\350\0138~H\236\346"
 403      9FCE921E 
 403      CBB8E80B 
 403      387E489E 
 403      E6
 404 13a4 2E9F5C3D 		.ascii	".\237\\=\370\007\2418\022\252\010\223\357V\\\304\014"
 404      F807A138 
 404      12AA0893 
 404      EF565CC4 
 404      0C
 405 13b5 1C3FFD25 		.ascii	"\034?\375%\0053\242c\203\001\341\337\254\014\211\304"
 405      0533A263 
 405      8301E1DF 
ARM GAS  /tmp/cca4i599.s 			page 33


 405      AC0C89C4 
 406 13c5 0FC08DE4 		.ascii	"\017\300\215\344g\013\362\206g\224\206\202\305^\350"
 406      670BF286 
 406      67948682 
 406      C55EE8
 407 13d4 4DFF0FA9 		.ascii	"M\377\017\251\370\2740"
 407      F8BC30
 408              		.text
 409              		.section	.gnu.lto_.symtab.ca0ffbfe55d3c68d,"",%progbits
 410 0000 6D61696E 		.ascii	"main\000\000\000\000\000\000\000\000\000\000\000\000"
 410      00000000 
 410      00000000 
 410      00000000 
 411 0010 B3000000 		.ascii	"\263\000\000\000SD1\000\000\002\000\000\000\000\000"
 411      53443100 
 411      00020000 
 411      000000
 412 001f 00000000 		.ascii	"\000\000\000\000l\002\000\000crcFast\000\000\002\000"
 412      6C020000 
 412      63726346 
 412      61737400 
 412      000200
 413 0032 00000000 		.ascii	"\000\000\000\000\000\000\000\000\266\000\000\000oqW"
 413      00000000 
 413      B6000000 
 413      6F7157
 414 0041 72697465 		.ascii	"riteTimeout\000\000\002\000\000\000\000\000\000\000"
 414      54696D65 
 414      6F757400 
 414      00020000 
 414      00000000 
 415 0056 0000BF00 		.ascii	"\000\000\277\000\000\000sdStart\000\000\002\000\000"
 415      00007364 
 415      53746172 
 415      74000002 
 415      0000
 416 0068 00000000 		.ascii	"\000\000\000\000\000\000\000\214\001\000\000_pal_ll"
 416      0000008C 
 416      0100005F 
 416      70616C5F 
 416      6C6C
 417 007a 645F7365 		.ascii	"d_setgroupmode\000\000\002\000\000\000\000\000\000\000"
 417      7467726F 
 417      75706D6F 
 417      64650000 
 417      02000000 
 418 0092 00003002 		.ascii	"\000\0000\002\000\000chSysInit\000\000\002\000\000\000"
 418      00006368 
 418      53797349 
 418      6E697400 
 418      00020000 
 419 00a7 00000000 		.ascii	"\000\000\000\000\000\000g\002\000\000halInit\000\000"
 419      00006702 
 419      00006861 
 419      6C496E69 
 419      740000
 420 00ba 02000000 		.ascii	"\002\000\000\000\000\000\000\000\000\000j\002\000\000"
ARM GAS  /tmp/cca4i599.s 			page 34


 420      00000000 
 420      00006A02 
 420      0000
 421              		.text
 422              		.section	.gnu.lto_.opts,"",%progbits
 423 0000 272D6D63 		.ascii	"'-mcpu=cortex-m0' '-mno-thumb-interwork' '-mthumb' "
 423      70753D63 
 423      6F727465 
 423      782D6D30 
 423      2720272D 
 424 0033 272D6767 		.ascii	"'-ggdb' '-O0' '-fomit-frame-pointer' '-falign-funct"
 424      64622720 
 424      272D4F30 
 424      2720272D 
 424      666F6D69 
 425 0066 696F6E73 		.ascii	"ions=16' '-ffunction-sections' '-fdata-sections' '-"
 425      3D313627 
 425      20272D66 
 425      66756E63 
 425      74696F6E 
 426 0099 666E6F2D 		.ascii	"fno-common' '-flto'\000"
 426      636F6D6D 
 426      6F6E2720 
 426      272D666C 
 426      746F2700 
 427              		.text
 428              		.cfi_sections	.debug_frame
 429              		.section	.text.prepareForSend,"ax",%progbits
 430              		.align	2
 431              		.p2align 4,,15
 432              		.code	16
 433              		.thumb_func
 434              		.type	prepareForSend, %function
 435              	prepareForSend:
 436              	.LFB149:
 437              		.file 1 "main.c"
 438              		.loc 1 19 0
 439              		.cfi_startproc
 440 0000 10B5     		push	{r4, lr}
 441              		.cfi_def_cfa_offset 8
 442              		.cfi_offset 4, -8
 443              		.cfi_offset 14, -4
 444 0002 84B0     		sub	sp, sp, #16
 445              		.cfi_def_cfa_offset 24
 446 0004 0190     		str	r0, [sp, #4]
 447 0006 0A1C     		mov	r2, r1
 448 0008 6B46     		mov	r3, sp
 449 000a 0333     		add	r3, r3, #3
 450 000c 1A70     		strb	r2, [r3]
 451              		.loc 1 20 0
 452 000e 6C46     		mov	r4, sp
 453 0010 0E34     		add	r4, r4, #14
 454 0012 019B     		ldr	r3, [sp, #4]
 455 0014 181C     		mov	r0, r3
 456 0016 0421     		mov	r1, #4
 457 0018 FFF7FEFF 		bl	crcFast
 458 001c 031C     		mov	r3, r0
ARM GAS  /tmp/cca4i599.s 			page 35


 459 001e 2380     		strh	r3, [r4]
 460              		.loc 1 21 0
 461 0020 019B     		ldr	r3, [sp, #4]
 462 0022 0122     		mov	r2, #1
 463 0024 1A70     		strb	r2, [r3]
 464              		.loc 1 22 0
 465 0026 019B     		ldr	r3, [sp, #4]
 466 0028 0133     		add	r3, r3, #1
 467 002a F022     		mov	r2, #240
 468 002c 1A70     		strb	r2, [r3]
 469              		.loc 1 23 0
 470 002e 019B     		ldr	r3, [sp, #4]
 471 0030 0233     		add	r3, r3, #2
 472 0032 1022     		mov	r2, #16
 473 0034 1A70     		strb	r2, [r3]
 474              		.loc 1 24 0
 475 0036 019B     		ldr	r3, [sp, #4]
 476 0038 0333     		add	r3, r3, #3
 477 003a 6A46     		mov	r2, sp
 478 003c 0332     		add	r2, r2, #3
 479 003e 1278     		ldrb	r2, [r2]
 480 0040 1A70     		strb	r2, [r3]
 481              		.loc 1 25 0
 482 0042 019B     		ldr	r3, [sp, #4]
 483 0044 0433     		add	r3, r3, #4
 484 0046 6A46     		mov	r2, sp
 485 0048 0E32     		add	r2, r2, #14
 486 004a 1288     		ldrh	r2, [r2]
 487 004c 120A     		lsr	r2, r2, #8
 488 004e 92B2     		uxth	r2, r2
 489 0050 D2B2     		uxtb	r2, r2
 490 0052 1A70     		strb	r2, [r3]
 491              		.loc 1 26 0
 492 0054 019B     		ldr	r3, [sp, #4]
 493 0056 0533     		add	r3, r3, #5
 494 0058 6A46     		mov	r2, sp
 495 005a 0E32     		add	r2, r2, #14
 496 005c 1288     		ldrh	r2, [r2]
 497 005e D2B2     		uxtb	r2, r2
 498 0060 1A70     		strb	r2, [r3]
 499              		.loc 1 27 0
 500 0062 019B     		ldr	r3, [sp, #4]
 501 0064 0633     		add	r3, r3, #6
 502 0066 0422     		mov	r2, #4
 503 0068 1A70     		strb	r2, [r3]
 504              		.loc 1 28 0
 505 006a C046     		mov	r8, r8
 506              		.loc 1 29 0
 507 006c 04B0     		add	sp, sp, #16
 508              		@ sp needed
 509 006e 10BD     		pop	{r4, pc}
 510              		.cfi_endproc
 511              	.LFE149:
 512              		.size	prepareForSend, .-prepareForSend
 513              		.section	.text.main,"ax",%progbits
 514              		.align	2
 515              		.p2align 4,,15
ARM GAS  /tmp/cca4i599.s 			page 36


 516              		.global	main
 517              		.code	16
 518              		.thumb_func
 519              		.type	main, %function
 520              	main:
 521              	.LFB150:
 522              		.loc 1 31 0
 523              		.cfi_startproc
 524 0000 00B5     		push	{lr}
 525              		.cfi_def_cfa_offset 4
 526              		.cfi_offset 14, -4
 527 0002 87B0     		sub	sp, sp, #28
 528              		.cfi_def_cfa_offset 32
 529              		.loc 1 32 0
 530 0004 FFF7FEFF 		bl	halInit
 531              		.loc 1 33 0
 532 0008 FFF7FEFF 		bl	chSysInit
 533              		.loc 1 34 0
 534 000c 6B46     		mov	r3, sp
 535 000e 1633     		add	r3, r3, #22
 536 0010 0022     		mov	r2, #0
 537 0012 1A80     		strh	r2, [r3]
 538              		.loc 1 37 0
 539 0014 9023     		mov	r3, #144
 540 0016 DA05     		lsl	r2, r3, #23
 541 0018 3B4B     		ldr	r3, .L8
 542 001a 101C     		mov	r0, r2
 543 001c 191C     		mov	r1, r3
 544 001e 4022     		mov	r2, #64
 545 0020 FFF7FEFF 		bl	_pal_lld_setgroupmode
 546              		.loc 1 38 0
 547 0024 9023     		mov	r3, #144
 548 0026 DB05     		lsl	r3, r3, #23
 549 0028 181C     		mov	r0, r3
 550 002a 0421     		mov	r1, #4
 551 002c 8222     		mov	r2, #130
 552 002e FFF7FEFF 		bl	_pal_lld_setgroupmode
 553              		.loc 1 39 0
 554 0032 9023     		mov	r3, #144
 555 0034 DB05     		lsl	r3, r3, #23
 556 0036 181C     		mov	r0, r3
 557 0038 0821     		mov	r1, #8
 558 003a 8222     		mov	r2, #130
 559 003c FFF7FEFF 		bl	_pal_lld_setgroupmode
 560              		.loc 1 40 0
 561 0040 324B     		ldr	r3, .L8+4
 562 0042 181C     		mov	r0, r3
 563 0044 0021     		mov	r1, #0
 564 0046 FFF7FEFF 		bl	sdStart
 565              	.L7:
 566              		.loc 1 45 0
 567 004a 6B46     		mov	r3, sp
 568 004c 1533     		add	r3, r3, #21
 569 004e 0022     		mov	r2, #0
 570 0050 1A70     		strb	r2, [r3]
 571              		.loc 1 46 0
 572 0052 9023     		mov	r3, #144
ARM GAS  /tmp/cca4i599.s 			page 37


 573 0054 DB05     		lsl	r3, r3, #23
 574 0056 1B69     		ldr	r3, [r3, #16]
 575 0058 99B2     		uxth	r1, r3
 576 005a 6B46     		mov	r3, sp
 577 005c 1633     		add	r3, r3, #22
 578 005e 2A4A     		ldr	r2, .L8
 579 0060 0A40     		and	r2, r1
 580 0062 1A80     		strh	r2, [r3]
 581              		.loc 1 47 0
 582 0064 6B46     		mov	r3, sp
 583 0066 1633     		add	r3, r3, #22
 584 0068 1B88     		ldrh	r3, [r3]
 585 006a DAB2     		uxtb	r2, r3
 586 006c 0323     		mov	r3, #3
 587 006e 1340     		and	r3, r2
 588 0070 D9B2     		uxtb	r1, r3
 589 0072 6B46     		mov	r3, sp
 590 0074 1533     		add	r3, r3, #21
 591 0076 6A46     		mov	r2, sp
 592 0078 1532     		add	r2, r2, #21
 593 007a 1278     		ldrb	r2, [r2]
 594 007c 0A43     		orr	r2, r1
 595 007e 1A70     		strb	r2, [r3]
 596              		.loc 1 48 0
 597 0080 6B46     		mov	r3, sp
 598 0082 1633     		add	r3, r3, #22
 599 0084 1A88     		ldrh	r2, [r3]
 600 0086 F023     		mov	r3, #240
 601 0088 1340     		and	r3, r2
 602 008a 9BB2     		uxth	r3, r3
 603 008c 9B08     		lsr	r3, r3, #2
 604 008e 9BB2     		uxth	r3, r3
 605 0090 D9B2     		uxtb	r1, r3
 606 0092 6B46     		mov	r3, sp
 607 0094 1533     		add	r3, r3, #21
 608 0096 6A46     		mov	r2, sp
 609 0098 1532     		add	r2, r2, #21
 610 009a 1278     		ldrb	r2, [r2]
 611 009c 0A43     		orr	r2, r1
 612 009e 1A70     		strb	r2, [r3]
 613              		.loc 1 49 0
 614 00a0 6B46     		mov	r3, sp
 615 00a2 1633     		add	r3, r3, #22
 616 00a4 1A88     		ldrh	r2, [r3]
 617 00a6 C023     		mov	r3, #192
 618 00a8 DB00     		lsl	r3, r3, #3
 619 00aa 1340     		and	r3, r2
 620 00ac 9BB2     		uxth	r3, r3
 621 00ae DB08     		lsr	r3, r3, #3
 622 00b0 9BB2     		uxth	r3, r3
 623 00b2 D9B2     		uxtb	r1, r3
 624 00b4 6B46     		mov	r3, sp
 625 00b6 1533     		add	r3, r3, #21
 626 00b8 6A46     		mov	r2, sp
 627 00ba 1532     		add	r2, r2, #21
 628 00bc 1278     		ldrb	r2, [r2]
 629 00be 0A43     		orr	r2, r1
ARM GAS  /tmp/cca4i599.s 			page 38


 630 00c0 1A70     		strb	r2, [r3]
 631              		.loc 1 50 0
 632 00c2 6B46     		mov	r3, sp
 633 00c4 1533     		add	r3, r3, #21
 634 00c6 1B78     		ldrb	r3, [r3]
 635 00c8 002B     		cmp	r3, #0
 636 00ca 1CD0     		beq	.L4
 637              		.loc 1 52 0
 638 00cc 03AA     		add	r2, sp, #12
 639 00ce 6B46     		mov	r3, sp
 640 00d0 1533     		add	r3, r3, #21
 641 00d2 1B78     		ldrb	r3, [r3]
 642 00d4 101C     		mov	r0, r2
 643 00d6 191C     		mov	r1, r3
 644 00d8 FFF7FEFF 		bl	prepareForSend
 645              		.loc 1 53 0
 646 00dc 0C49     		ldr	r1, .L8+8
 647 00de 03AA     		add	r2, sp, #12
 648 00e0 0C4B     		ldr	r3, .L8+12
 649 00e2 081C     		mov	r0, r1
 650 00e4 111C     		mov	r1, r2
 651 00e6 0722     		mov	r2, #7
 652 00e8 FFF7FEFF 		bl	oqWriteTimeout
 653              		.loc 1 55 0
 654 00ec 0023     		mov	r3, #0
 655 00ee 0293     		str	r3, [sp, #8]
 656 00f0 05E0     		b	.L5
 657              	.L6:
 658              		.loc 1 56 0 discriminator 2
 659 00f2 019B     		ldr	r3, [sp, #4]
 660 00f4 0133     		add	r3, r3, #1
 661 00f6 0193     		str	r3, [sp, #4]
 662              		.loc 1 55 0 discriminator 2
 663 00f8 029B     		ldr	r3, [sp, #8]
 664 00fa 0133     		add	r3, r3, #1
 665 00fc 0293     		str	r3, [sp, #8]
 666              	.L5:
 667              		.loc 1 55 0 is_stmt 0 discriminator 1
 668 00fe 029A     		ldr	r2, [sp, #8]
 669 0100 054B     		ldr	r3, .L8+16
 670 0102 9A42     		cmp	r2, r3
 671 0104 F5DD     		ble	.L6
 672              	.L4:
 673              		.loc 1 58 0 is_stmt 1
 674 0106 A0E7     		b	.L7
 675              	.L9:
 676              		.align	2
 677              	.L8:
 678 0108 F3060000 		.word	1779
 679 010c 00000000 		.word	SD1
 680 0110 30000000 		.word	SD1+48
 681 0114 FFFF0000 		.word	65535
 682 0118 9F860100 		.word	99999
 683              		.cfi_endproc
 684              	.LFE150:
 685              		.size	main, .-main
 686 011c C046C046 		.text
ARM GAS  /tmp/cca4i599.s 			page 39


 687              	.Letext0:
 688              		.file 2 "/usr/lib/gcc/arm-none-eabi/4.8/include/stddef.h"
 689              		.file 3 "/usr/include/newlib/machine/_default_types.h"
 690              		.file 4 "/usr/include/newlib/stdint.h"
 691              		.file 5 "/home/efe/ChibiOS/os/rt/ports/ARMCMx/compilers/GCC/chtypes.h"
 692              		.file 6 "/home/efe/ChibiOS/os/rt/include/chsystypes.h"
 693              		.file 7 "/home/efe/ChibiOS/os/rt/include/chschd.h"
 694              		.file 8 "/home/efe/ChibiOS/os/ext/CMSIS/ST/stm32f030x6.h"
 695              		.file 9 "/home/efe/ChibiOS/os/rt/ports/ARMCMx/chcore.h"
 696              		.file 10 "/home/efe/ChibiOS/os/rt/ports/ARMCMx/chcore_v6m.h"
 697              		.file 11 "/home/efe/ChibiOS/os/rt/include/chsem.h"
 698              		.file 12 "/home/efe/ChibiOS/os/rt/include/chmtx.h"
 699              		.file 13 "/home/efe/ChibiOS/os/hal/osal/rt/osal.h"
 700              		.file 14 "/home/efe/ChibiOS/os/hal/include/hal_queues.h"
 701              		.file 15 "/home/efe/ChibiOS/os/hal/ports/STM32/LLD/GPIOv2/pal_lld.h"
 702              		.file 16 "/home/efe/ChibiOS/os/hal/include/serial.h"
 703              		.file 17 "/home/efe/ChibiOS/os/hal/ports/STM32/LLD/USARTv2/serial_lld.h"