ARM GAS  /tmp/ccfvXp7H.s 			page 1


   1              		.cpu cortex-m0
   2              		.fpu softvfp
   3              		.eabi_attribute 20, 1
   4              		.eabi_attribute 21, 1
   5              		.eabi_attribute 23, 3
   6              		.eabi_attribute 24, 1
   7              		.eabi_attribute 25, 1
   8              		.eabi_attribute 26, 1
   9              		.eabi_attribute 30, 6
  10              		.eabi_attribute 34, 0
  11              		.eabi_attribute 18, 4
  12              		.code	16
  13              		.file	"main.c"
  14              		.text
  15              	.Ltext0:
  16              		.section	.gnu.lto_.inline.f25f7182d7a14545,"",%progbits
  17 0000 789C6362 		.ascii	"x\234cb`b\300\006T\2404#\003\203\2349\003\003\223\316"
  17      6062C006 
  17      54A03423 
  17      03839C39 
  17      030393CE 
  18 0014 83EB4C0C 		.ascii	"\203\353L\014,\020\305,\274 \011.\030\301\000\000GD"
  18      2C10C52C 
  18      BC20092E 
  18      18C10000 
  18      4744
  19 0026 0293     		.ascii	"\002\223"
  20              		.text
  21              		.section	.gnu.lto_main.f25f7182d7a14545,"",%progbits
  22 0000 789CA555 		.ascii	"x\234\245U\275k\024A\024\177of\277s\371@,,$\204\024"
  22      BD6B1441 
  22      147F6F66 
  22      BF73F940 
  22      2C2C2484 
  23 0015 160A8746 		.ascii	"\026\012\207F\243\261\262\266S\270\003-\343\025a\003"
  23      A3B1B2B6 
  23      53B8032D 
  23      E3156103 
  24 0025 FA0F5864 		.ascii	"\372\017Xd\222\034r\205\305y\205\004m\022Q9BPTBNHpI"
  24      921C7285 
  24      C5798504 
  24      6D125139 
  24      42505442 
  25 003d 73493088 		.ascii	"sI0\210\250\230B\341\020\261\266\260\020\021\3267\263"
  25      A89842E1 
  25      10B1B6B0 
  25      1011D637 
  25      B3
  26 004e 379BCDDD 		.ascii	"7\233\315\335z9\343\300\314o\366}\374\336\233\337,\273"
  26      7A39E3C0 
  26      CC6FF67D 
  26      FCDE9BDF 
  26      2CBB
  27 0060 0C18B48E 		.ascii	"\014\030\264\216\3134'm\200Q\371\340\001R\0042\344\264"
  27      CB34276D 
  27      8051F9E0 
  27      01520432 
ARM GAS  /tmp/ccfvXp7H.s 			page 2


  27      E4B4
  28 0072 72346935 		.ascii	"r4i5\324j2\003@0\213\026\303B\207,\266Z\035fK\273+\355"
  28      D46A3203 
  28      40308B16 
  28      C342872C 
  28      B65A1D66 
  29 008a AECA4298 		.ascii	"\256\312B\230b\3340-\333qq\352*J\326\376aX\020\242\322"
  29      62DC302D 
  29      DB7171EA 
  29      2A4AD6FE 
  29      615810A2 
  30 009f 7854DF5C 		.ascii	"xT\337\\@Q\021\323\337\303\260\337\227\256\002\302\025"
  30      405111D3 
  30      DFC3B0DF 
  30      97AE02C2 
  30      15
  31 00b0 F4118714 		.ascii	"\364\021\207\024\310\032\311\241\322\312\301\253\367"
  31      C81AC9A1 
  31      D2CAC1AB 
  31      F7
  32 00bd B7BDF274 		.ascii	"\267\275\362tI\204\341\224\217\234\201\207]\345\211"
  32      4984E194 
  32      8F9C8187 
  32      5DE589
  33 00cc E7D51977 		.ascii	"\347\325\031w^\374\016C\256\322\372R\323dl\361N\260"
  33      5EFC0E43 
  33      AED2FA52 
  33      D3646CF1 
  33      4EB0
  34 00de 5CDD4C74 		.ascii	"\\\335Ltf08\264_\221\326.\327~\3549\034\025<|\260>\217"
  34      663038B4 
  34      5F91D62E 
  34      D77EEC39 
  34      1C153C7C 
  35 00f5 74EC73BE 		.ascii	"t\354s\276\245\317\243\377\332\347\352\327K\033\242"
  35      A5CFA3FF 
  35      DAE7EAD7 
  35      4B1BA2
  36 0104 1884E105 		.ascii	"\030\204\341\005Um\260\253&+\301\273\327\211K\350\366"
  36      556DB0AB 
  36      262BC1BB 
  36      D7894BE8 
  36      F6
  37 0115 E63EB6DC 		.ascii	"\346>\266\334\334\360\301\0249\226\2326\216\217q\270"
  37      DCF0C114 
  37      39969A36 
  37      8E8F71B8 
  38 0125 ADE487B6 		.ascii	"\255\344\207\266k8~\260\242\331\277\024]j/*\336\356"
  38      6B387EB0 
  38      A2D9BF14 
  38      5D6A2F2A 
  38      DEEE
  39 0137 D574A4AB 		.ascii	"\325t\244\253\212s\301\347\215\204<\346~\232F\245\243"
  39      8A73C1E7 
  39      8D843CE6 
  39      7E9A46A5 
  39      A3
ARM GAS  /tmp/ccfvXp7H.s 			page 3


  40 0148 533F6541 		.ascii	"S?eA#\014?\315\254a/\002\335\007#\373\023\262s\302\007"
  40      230C3FCD 
  40      AC612F02 
  40      DD0723FB 
  40      13B273C2 
  41 015d 8406E143 		.ascii	"\204\006\341CB\223\260Jh\021.\022\3322\330\241\207\227"
  41      4293B04A 
  41      68112E12 
  41      DA32D8A1 
  41      8797
  42 016f F4E0123E 		.ascii	"\364\340\022>#\364\010_\020\366\020.\023f\010W\242S"
  42      23F4085F 
  42      10F6102E 
  42      13660857 
  42      A253
  43 0181 9A50A4F3 		.ascii	"\232P\244\363\015%K\2536i\344\324\232\227\337\013\376"
  43      0D254BAB 
  43      3669E4D4 
  43      9A97DF0B 
  43      FE
  44 0192 06661B77 		.ascii	"\006f\033w\3718\256\312S\300M\370%Jb\300G\253\200*\210"
  44      F938AECA 
  44      53C04DF8 
  44      254A62C0 
  44      47AB802A 
  45 01a7 8AD25742 		.ascii	"\212\322WB\006\255\244\006\261d\320\255\306\234\327"
  45      06ADA406 
  45      B164D0AD 
  45      C69CD7
  46 01b6 16E414E4 		.ascii	"\026\344\024\344\267\205\206\024\006\204\020\201\241"
  46      B7858614 
  46      06841081 
  46      A1
  47 01c3 B66E2495 		.ascii	"\266n$\225'E\350\211d\312\313H\276\0153\265Z\035#\242"
  47      2745E889 
  47      64CACB48 
  47      BE0D33B5 
  47      5A1D23A2 
  48 01d7 09C4441E 		.ascii	"\011\304D\036\3006\254\217E\236\023\260(\212\344\312"
  48      C036AC8F 
  48      459E13B0 
  48      288AE4CA 
  49 01e7 E84DAFDE 		.ascii	"\350M\257\336\364\335\207{\004\375:W\215k1b\023Y\334"
  49      F4DD877B 
  49      04FD3A57 
  49      8D6B3162 
  49      1359DC
  50 01fa D5C050C4 		.ascii	"\325\300P\304\\\333\251g\"\362H5\351\213o2/\267\324"
  50      5CDBA967 
  50      22F24835 
  50      E98B6F32 
  50      2FB7D4
  51 020d DCFAE6CF 		.ascii	"\334\372\346\317:\323\315q-\3546\314\226\270\266\032"
  51      3AD3CD71 
  51      2DEC36CC 
  51      96B8B61A 
  52 021d E450B918 		.ascii	"\344P\271\030\361^\324\2442vB\362H\232\235\372\240N"
ARM GAS  /tmp/ccfvXp7H.s 			page 4


  52      F15ED4A4 
  52      327642F2 
  52      489A9DFA 
  52      A04E
  53 022f 30F5BBB9 		.ascii	"0\365\273\271\207\306\"G*\315\222\242\261t_f\263\257"
  53      87C62247 
  53      2ACD92A2 
  53      B1745F66 
  53      B3AF
  54 0241 B2A73399 		.ascii	"\262\2473\231\346\333\200\342\267i;6+\266p\351K\362"
  54      E6DB80E2 
  54      B7693B36 
  54      2BB670E9 
  54      4BF2
  55 0253 F5CC4B22 		.ascii	"\365\314K\"%z5\316\267\377Cs\273\223\346\273o\302\256"
  55      257A35CE 
  55      B7FF4373 
  55      BB93E6BB 
  55      6FC2AE
  56 0266 E65B9D34 		.ascii	"\346[\2354\267\265\346[\261\346n\252\346\0369:h\356"
  56      B7B5E65B 
  56      B1E66EAA 
  56      E61E393A 
  56      68EE
  57 0278 3535DF8A 		.ascii	"55\337\2125\357I\325<C\216\016\232gt_N\233\346N\272"
  57      35EF49D5 
  57      3C438E0E 
  57      9A67745F 
  57      4E9BE64E 
  58 028d E64E9AE6 		.ascii	"\346N\232\3469\244\277.\3175e\001\373\372\270\177#["
  58      39A4BF2E 
  58      CF356501 
  58      FBFAB87F 
  58      235B
  59 029f 003E993D 		.ascii	"\000>\231=I\363\024Nr?;B\3634\372\264\236!\333(\315"
  59      49F3144E 
  59      723F3B42 
  59      F334FAB4 
  59      9E21DB28 
  60 02b4 B3B43F47 		.ascii	"\263\264?Gs\214\346\371?\325\253\240\315"
  60      738CE6F9 
  60      3FD5ABA0 
  60      CD
  61              		.text
  62              		.section	.gnu.lto_.symbol_nodes.f25f7182d7a14545,"",%progbits
  63 0000 789C45C7 		.ascii	"x\234E\307=\016@P\024\005\3419\367.\321\202\316K4J\215"
  63      3D0E4050 
  63      1405E139 
  63      F72ED182 
  63      CE4B344A 
  64 0015 9FDE52F4 		.ascii	"\237\336R\364J\265\225\210\027\204i\276L\0204\274\305"
  64      4AB59588 
  64      178469BE 
  64      4C1034BC 
  64      C5
  65 0026 2043BF81 		.ascii	" C\277\201\275w\322,\353\331R\244I\216\377F9\277K\222"
  65      BD77D22C 
ARM GAS  /tmp/ccfvXp7H.s 			page 5


  65      EBD952A4 
  65      498EFF46 
  65      39BF4B92 
  66 003a F638ABC1 		.ascii	"\3668\253\301r+\326*\027\000\254\030\247"
  66      722BD62A 
  66      1700AC18 
  66      A7
  67              		.text
  68              		.section	.gnu.lto_.refs.f25f7182d7a14545,"",%progbits
  69 0000 789C6362 		.ascii	"x\234cb`b`d\200\002\000\000F\000\006"
  69      60626064 
  69      80020000 
  69      460006
  70              		.text
  71              		.section	.gnu.lto_.decls.f25f7182d7a14545,"",%progbits
  72 0000 789CAD57 		.ascii	"x\234\255WoL[U\024\277\367\265\264tT\206[ 3\321\254"
  72      6F4C5B55 
  72      14BFF7B5 
  72      B4745486 
  72      5B2033D1 
  73 0015 FB3025CB 		.ascii	"\3730%\313\334\213,1\321\017\213\016p\020\231%e\370"
  73      DC8B2C31 
  73      D10F8B0E 
  73      70109925 
  73      65F8
  74 0027 E7D3CB5B 		.ascii	"\347\323\313[\333\321\027\373\207\320\207\013\237v\013"
  74      DBD117FB 
  74      87D0870B 
  74      9F760B
  75 0036 48962546 		.ascii	"H\226%F@%3\"+*\004\0227\231\306\300\234\272\202n#hh"
  75      40253322 
  75      2B2A0412 
  75      3799C6C0 
  75      9CBA826E 
  76 004d 644AC842 		.ascii	"dJ\310BLc\314\214\316\251\0015&\032\353\271\267\257"
  76      4C63CC8C 
  76      CEA90135 
  76      261AEBB9 
  76      B7AF
  77 005f F4BDF25E 		.ascii	"\364\275\362^\377\020orN\357{\357\236\337\371\235s\357"
  77      FF106F72 
  77      4EEF7BEF 
  77      9EDFF99D 
  77      73EF
  78 0071 3DF79643 		.ascii	"=\367\226C\034\232A\010%\241\255\334\205\320\014F\360"
  78      1C9A4108 
  78      25A1ADDC 
  78      85D00C46 
  78      F0
  79 0082 06A14328 		.ascii	"\006\241C(\323\314 \243 c ?\201\334A\233\033\375~7H"
  79      D3CC20A3 
  79      2063203F 
  79      81DC419B 
  79      1BFD7E37 
  80 0097 02A41CC4 		.ascii	"\002\244\034\304\016b\001\371U\261_\003\271\015\262"
  80      0E6201F9 
  80      55B15F03 
ARM GAS  /tmp/ccfvXp7H.s 			page 6


  80      B90DB2
  81 00a6 0E6205B9 		.ascii	"\016b\005\271\0052\016\362;\310\037 s \223 &e\374,\310"
  81      05320EF2 
  81      3BC81F20 
  81      73209320 
  81      2665FC2C 
  82 00bb 75902590 		.ascii	"u\220%\220\005\025\207;\012\2071\035\016\273\321\010"
  82      0515873B 
  82      0A87311D 
  82      0EBBD108 
  83 00cb 89C6122F 		.ascii	"\211\306\022/~c\357\217$\222\311s\216*\364\032\201\026"
  83      7E63EF8F 
  83      2492C973 
  83      8E2AF41A 
  83      8116
  84 00dd ED2304CB 		.ascii	"\355#\004\313\"6\333\320\263X\304\3456\344`\035\273"
  84      2236DBD0 
  84      B358C4E5 
  84      36E4601D 
  84      BB
  85 00ee 8DC12224 		.ascii	"\215\301\"$\342\267p\225\322k5!\245\3674\207\366\241"
  85      E2B77095 
  85      D26B3521 
  85      A5F73487 
  85      F6A1
  86 0100 49B0EF27 		.ascii	"I\260\357'd\316\242\343\017\241\373\321\030u\360\376"
  86      64CEA2E3 
  86      0FA1FBD1 
  86      1875F0FE 
  87 0110 04B13178 		.ascii	"\004\2611xj6\212w\033\270I\243fQN\364'nL]\213\340\201"
  87      6A368A77 
  87      1BB849A3 
  87      66514EF4 
  87      276E4C5D 
  88 0127 9EE83CF9 		.ascii	"\236\350<\371-\231\334\216\262x\037\2524\344=\256\360"
  88      2D99DC8E 
  88      B2781FAA 
  88      34E43DAE 
  88      F0
  89 0138 36B14943 		.ascii	"6\261ICe\350\014!\335\324\260a\276|\007\032\240(\216"
  89      65E80C21 
  89      DDD4B061 
  89      BE7C071A 
  89      A0288E
  90 014b 79980FC5 		.ascii	"y\230\017\305>\301\245\001\366\303\350\275\350\035\010"
  90      3EC1A501 
  90      F6C3E8BD 
  90      E81D08
  91 015a 2EF6551C 		.ascii	".\366U\034;D<\211w\000F\023\006\320\267\361>\205^^\010"
  91      3B443C89 
  91      77004613 
  91      06D0B7F1 
  91      3E855E5E 
  92 016f CAE15DB0 		.ascii	"\312\341]\260L\0311@\022\373{\321N\314\251\367H\003"
  92      4C193140 
  92      12FB7BD1 
  92      4ECCA9F7 
ARM GAS  /tmp/ccfvXp7H.s 			page 7


  92      4803
  93 0181 A7697B50 		.ascii	"\247i{P\224\364\366\304\222\213\303\367\220\350\034"
  93      94F4F6C4 
  93      928BC3F7 
  93      90E81C
  94 0190 B6A1D384 		.ascii	"\266\241\323\204\364(\324\221n\300)\276\211\365\276"
  94      F428D491 
  94      6EC029BE 
  94      89F5BE
  95 019f ABB3B81B 		.ascii	"\253\263\270\033R\303L\272s\232\210x\012\357\005m\265"
  95      52C34CBA 
  95      739A8878 
  95      0AEF056D 
  95      B5
  96 01b0 6D10A15F 		.ascii	"m\020\241_\255\266L\207\256\374\355t\321\237\324\306"
  96      ADB64C87 
  96      AEFCED74 
  96      D19FD4C6 
  97 01c0 5E00BA42 		.ascii	"^\000\272Bh`\341\363\001\334\003\204D\374\001\220\342"
  97      6860E1F3 
  97      01DC0384 
  97      44FC0190 
  97      E2
  98 01d1 D005AC85 		.ascii	"\320\005\254\205R\034n\264B\370\0249\234C\227\230S\232"
  98      521C6EB4 
  98      42F81439 
  98      9C439798 
  98      539A
  99 01e3 743DAA4A 		.ascii	"t=\252J7\325\224\001\232\211H,EG\330D\210\370=\026\304"
  99      37D59401 
  99      9A89482C 
  99      4547D844 
  99      88F83D16 
 100 01f8 95A2F11C 		.ascii	"\225\242\361\034\232\211\035\214\333\373\3054\330\265"
 100      9A891D8C 
 100      DBFBC534 
 100      D8B5
 101 0206 42C04A0D 		.ascii	"B\300J\015\311\305^U\203-\026\015\246e6\244\006\373"
 101      C9C55E55 
 101      832D160D 
 101      A66536A4 
 101      06FB
 102 0218 BA10B00A 		.ascii	"\272\020\260\012cfg\325`+E\203\251\231Eb\323\361\005"
 102      636667D5 
 102      602B4583 
 102      A9994562 
 102      D3F105
 103 022b 4C06ED3B 		.ascii	"L\006\355;\321 !\021\022\265\030-<\204\330\020\222s"
 103      D1202111 
 103      12B5182D 
 103      3C84D810 
 103      9273
 104 023d 88883FC3 		.ascii	"\210\210?\303;\265;\363\215\227\313\351\316\244\357"
 104      3BB53BF3 
 104      8D97CBE9 
 104      CEA4EF
 105 024c F3EC4CD2 		.ascii	"\363\354L\322\035{3>\254,\210\213,\270U\026\034\265"
ARM GAS  /tmp/ccfvXp7H.s 			page 8


 105      1D7B333E 
 105      AC2C888B 
 105      2CB85516 
 105      1CB5
 106 025e DDC20203 		.ascii	"\335\302\002\003\347\037\306\313\310\031\273RR\242\217"
 106      E71FC6CB 
 106      C819BB52 
 106      52A28F
 107 026d 4DE4203E 		.ascii	"M\344 >\237]R\316\3059G\352u~\336\027\343\303\273Ht"
 107      9F5D52CE 
 107      C53947EA 
 107      757EDE17 
 107      E3C3BB48 
 108 0282 365D1E48 		.ascii	"6]\036H\037\251V\371\252H\373\242\005s\243\242L\357"
 108      1FA956F9 
 108      AA48FBA2 
 108      0573A3A2 
 108      4CEF
 109 0294 27A454C4 		.ascii	"'\244T\304_\260@\277\305\272\225\240\000\240\201\205"
 109      5FB040BF 
 109      C5BA95A0 
 109      00A08185 
 110 02a4 F38F30A0 		.ascii	"\363\2170\240E\006\364\303\246:`\312\252\003&\355\306"
 110      4506F4C3 
 110      A63A60CA 
 110      AA0326ED 
 110      C6
 111 02b5 36D9329D 		.ascii	"6\3312\235d\322\204\212\033\314\2415\346p>\263\3764"
 111      64D2848A 
 111      1BCCA135 
 111      E6703EB3 
 111      FE34
 112 02c7 24F34D51 		.ascii	"$\363MQwb\351\373\021\226\272t&\376,\032\257\"kN8\364"
 112      7762E9FB 
 112      1196BA74 
 112      26FE2C1A 
 112      AF226B4E 
 113 02dd CF56978D 		.ascii	"\317V\227\215*\362T\320\"\276\212\367\200\276\016Z\345"
 113      2AF254D0 
 113      22BE8AF7 
 113      80BE0E5A 
 113      E5
 114 02ee E0DF4236 		.ascii	"\340\337B6\335.\203\240a\007\317\250wp\017W,\230C\003"
 114      DD2E83A0 
 114      6107CFA8 
 114      77700F57 
 114      2C984303 
 115 0302 F6911AEC 		.ascii	"\366\221\032\354t!`\016cf\037\253\301^*\032L\313\354"
 115      7421600E 
 115      63661FAB 
 115      C15E2A1A 
 115      4CCBEC
 116 0315 5335D860 		.ascii	"S5\330`!`\325\271&E3?\231+\200\210\317\263\003\367\002"
 116      2160D5B9 
 116      2645333F 
 116      992B8088 
 116      CFB303F7 
ARM GAS  /tmp/ccfvXp7H.s 			page 9


 117 032a 9BA969A6 		.ascii	"\233\251i\246/1}\231\351O\230\276\302\364,\323\313L"
 117      2F317D99 
 117      E94F98BE 
 117      C2F42CD3 
 117      CB4C
 118 033c AF307D93 		.ascii	"\2570}\223\351U\365\374\032\237\273\261\033C\367\322"
 118      E955F5FC 
 118      1A9FBBB1 
 118      1B43F7D2 
 119 034c 6A3681CB 		.ascii	"j6\201\313 \242!N\273\3274W\241\324\365\306\250\332"
 119      20A2214E 
 119      BBD73457 
 119      A1D4F5C6 
 119      A8DA
 120 035e 240040BF 		.ascii	"$\000@\277\250l\372\246\334\263\012\276\033\304\222"
 120      A86CFAA6 
 120      DCB30ABE 
 120      1BC492
 121 036d AF54528E 		.ascii	"\257TR\216\337\261\254\217r\331\365\200VV\215\277\202"
 121      DFB1AC8F 
 121      72D9F580 
 121      56568DBF 
 121      82
 122 037e 2E0645B3 		.ascii	".\006E\2638[\305\211\370V\352n\362?q\310\334\224\021"
 122      385BC589 
 122      F856EA6E 
 122      F23F71C8 
 122      DC9411
 123 0391 DD84D359 		.ascii	"\335\204\323Y\260i\254\037\261\336}\367\362\362r\357"
 123      B069AC1F 
 123      B1DE7DF7 
 123      F2F272EF 
 124 03a1 96EEBBB7 		.ascii	"\226\356\273\2677\335\323\241H\031\270\376Y\327u\377"
 124      37DDD3A1 
 124      4819B8FE 
 124      59D775FF 
 125 03b1 CD55EE75 		.ascii	"\315U\356u2\327K\222\311S\012 \207&L\372\020\277h!X"
 125      32D74B92 
 125      C9530A20 
 125      87264CFA 
 125      10BF6821 
 126 03c6 C223F913 		.ascii	"\302#\371\023N\3771@\302-4\337S\000\255\333\330wu\236"
 126      4EFF3140 
 126      C22D34DF 
 126      5300ADDB 
 126      D877759E 
 127 03da E19166E1 		.ascii	"\341\221f\341/\232c|JyC\037\254\233V3em\224\2425X\261"
 127      2F9A637C 
 127      4A79431F 
 127      AC9B5633 
 127      656D94A2 
 128 03f1 4ACBB21A 		.ascii	"J\313\262\032\317a\265\236\261Rn\342\271\216;\021\177"
 128      CF61B59E 
 128      B1526EE2 
 128      B98E3B11 
 128      7F
 129 0402 C97679BE 		.ascii	"\311vy\276\023\211\035\366\221\202\017{\372\264\300"
ARM GAS  /tmp/ccfvXp7H.s 			page 10


 129      13891DF6 
 129      91820F7B 
 129      FAB4C0
 130 0411 4AC092BA 		.ascii	"J\300\222\272\004 k@\224\202\007\334\310r\344\251VG"
 130      04206B40 
 130      948207DC 
 130      C872E4A9 
 130      5647
 131 0423 2D7A94F7 		.ascii	"-z\224\367\205\002^\336{\302\313\327\372\244\343\222"
 131      85025EDE 
 131      7BC2CBD7 
 131      FAA4E392 
 132 0433 B3850F85 		.ascii	"\263\205\017\205y\237\350\347\333C\035r\230o9v\364`"
 132      799FE8E7 
 132      DB431D72 
 132      986F3976 
 132      F460
 133 0445 0DDFD454 		.ascii	"\015\337\324T\307\037int\276P\303\267\213~\301\357\367"
 133      C71F696E 
 133      74BE50C3 
 133      B78B7EC1 
 133      EFF7
 134 0457 1CF0217B 		.ascii	"\034\360!{X\016\034\254\021\332\332\245\220 \337\307"
 134      580E1CAC 
 134      11DADAA5 
 134      9020DFC7 
 135 0467 77863B78 		.ascii	"w\206;x)\350\366wz\274|\320{\322/\035\347\303\262G\012"
 135      29E8F677 
 135      7ABC7CD0 
 135      7BD22F1D 
 135      E7C3B247 
 136 047c CA30B4B4 		.ascii	"\3120\264\264\023~a\254\374\240\336\260\200\350\366"
 136      137E61AC 
 136      FCA0DEB0 
 136      80E8F6
 137 048b 49412F2F 		.ascii	"IA//x\274'\304N\277,\310]\355\3360\230m\023\204\264"
 137      78BC27C4 
 137      4EBF2CC8 
 137      5DEDDE30 
 137      986D1384 
 138 04a0 61C95167 		.ascii	"a\311Qg]\275\313\342<\366\\s\275\313\352li\256\257\257"
 138      5DBDCBE2 
 138      3CF65C73 
 138      BDCBEA6C 
 138      69AEAFAF 
 139 04b4 739534B7 		.ascii	"s\2254\2676\327\271L\215 \316:\027~\206\271y\350aAV"
 139      36D7B94C 
 139      8D20CE3A 
 139      177E86B9 
 139      79E86141 
 140 04c9 0C69D714 		.ascii	"\014i\327\024\366\312%n\277W\354\300\015\346\303-.\227"
 140      F6CA256E 
 140      BF57ECC0 
 140      0DE6C32D 
 140      2E97
 141 04db B9A9F649 		.ascii	"\271\251\366I\227\371\361'\\MT5\230\016\273\\\333\244"
 141      97F9F127 
ARM GAS  /tmp/ccfvXp7H.s 			page 11


 141      5C4D5435 
 141      980EBB5C 
 141      DBA4
 142 04ed 108D56F2 		.ascii	"\020\215V\362\010\262=\325\015\210\341\347\005\271T"
 142      08B23DD5 
 142      0D88E1E7 
 142      05B954
 143 04fc 0A05421E 		.ascii	"\012\005B\036\257 W\012J\330\002\240\265u\204:\333\351"
 143      AF20570A 
 143      4AD802A0 
 143      B575843A 
 143      DBE9
 144 050e FB6ADDDC 		.ascii	"\373j\335\334u\310\033\361\271}\341.\032\207\315\355"
 144      75C81BF1 
 144      B97DE12E 
 144      1A87CDED 
 145 051e 6BE90A37 		.ascii	"k\351\0127\006%\371\001\303t\247m\240\017\026V\370\241"
 145      0625F901 
 145      C374A76D 
 145      A00F1656 
 145      F8A1
 146 0530 E34BFDA1 		.ascii	"\343K\375\241`\233\003B\371\017\371\007 \302"
 146      609B0342 
 146      F90FF907 
 146      20C2
 147              		.text
 148              		.section	.gnu.lto_.symtab.f25f7182d7a14545,"",%progbits
 149 0000 6D61696E 		.ascii	"main\000\000\000\000\000\000\000\000\000\000\000\000"
 149      00000000 
 149      00000000 
 149      00000000 
 150 0010 A1000000 		.ascii	"\241\000\000\000_pal_lld_setgroupmode\000\000\002\000"
 150      5F70616C 
 150      5F6C6C64 
 150      5F736574 
 150      67726F75 
 151 002d 00000000 		.ascii	"\000\000\000\000\000\000\000\000\245\000\000\000chS"
 151      00000000 
 151      A5000000 
 151      636853
 152 003c 7973496E 		.ascii	"ysInit\000\000\002\000\000\000\000\000\000\000\000\000"
 152      69740000 
 152      02000000 
 152      00000000 
 152      0000
 153 004e EA000000 		.ascii	"\352\000\000\000halInit\000\000\002\000\000\000\000"
 153      68616C49 
 153      6E697400 
 153      00020000 
 153      0000
 154 0060 00000000 		.ascii	"\000\000\000\000\000\355\000\000\000"
 154      00ED0000 
 154      00
 155              		.text
 156              		.section	.gnu.lto_.opts,"",%progbits
 157 0000 272D6D63 		.ascii	"'-mcpu=cortex-m0' '-mno-thumb-interwork' '-mthumb' "
 157      70753D63 
ARM GAS  /tmp/ccfvXp7H.s 			page 12


 157      6F727465 
 157      782D6D30 
 157      2720272D 
 158 0033 272D6767 		.ascii	"'-ggdb' '-O0' '-fomit-frame-pointer' '-falign-funct"
 158      64622720 
 158      272D4F30 
 158      2720272D 
 158      666F6D69 
 159 0066 696F6E73 		.ascii	"ions=16' '-ffunction-sections' '-fdata-sections' '-"
 159      3D313627 
 159      20272D66 
 159      66756E63 
 159      74696F6E 
 160 0099 666E6F2D 		.ascii	"fno-common' '-flto'\000"
 160      636F6D6D 
 160      6F6E2720 
 160      272D666C 
 160      746F2700 
 161              		.text
 162              		.cfi_sections	.debug_frame
 163              		.section	.text.main,"ax",%progbits
 164              		.align	2
 165              		.p2align 4,,15
 166              		.global	main
 167              		.code	16
 168              		.thumb_func
 169              		.type	main, %function
 170              	main:
 171              	.LFB149:
 172              		.file 1 "main.c"
 173              		.loc 1 5 0
 174              		.cfi_startproc
 175 0000 00B5     		push	{lr}
 176              		.cfi_def_cfa_offset 4
 177              		.cfi_offset 14, -4
 178 0002 83B0     		sub	sp, sp, #12
 179              		.cfi_def_cfa_offset 16
 180              		.loc 1 6 0
 181 0004 FFF7FEFF 		bl	halInit
 182              		.loc 1 7 0
 183 0008 FFF7FEFF 		bl	chSysInit
 184              		.loc 1 8 0
 185 000c 9023     		mov	r3, #144
 186 000e DB05     		lsl	r3, r3, #23
 187 0010 181C     		mov	r0, r3
 188 0012 2021     		mov	r1, #32
 189 0014 0122     		mov	r2, #1
 190 0016 FFF7FEFF 		bl	_pal_lld_setgroupmode
 191              	.L6:
 192              		.loc 1 13 0
 193 001a 9023     		mov	r3, #144
 194 001c DB05     		lsl	r3, r3, #23
 195 001e 2022     		mov	r2, #32
 196 0020 5A83     		strh	r2, [r3, #26]
 197              		.loc 1 14 0
 198 0022 0023     		mov	r3, #0
 199 0024 0193     		str	r3, [sp, #4]
ARM GAS  /tmp/ccfvXp7H.s 			page 13


 200 0026 05E0     		b	.L2
 201              	.L3:
 202              		.loc 1 15 0 discriminator 2
 203 0028 009B     		ldr	r3, [sp]
 204 002a 0133     		add	r3, r3, #1
 205 002c 0093     		str	r3, [sp]
 206              		.loc 1 14 0 discriminator 2
 207 002e 019B     		ldr	r3, [sp, #4]
 208 0030 0133     		add	r3, r3, #1
 209 0032 0193     		str	r3, [sp, #4]
 210              	.L2:
 211              		.loc 1 14 0 is_stmt 0 discriminator 1
 212 0034 019A     		ldr	r2, [sp, #4]
 213 0036 0A4B     		ldr	r3, .L7
 214 0038 9A42     		cmp	r2, r3
 215 003a F5DD     		ble	.L3
 216              		.loc 1 17 0 is_stmt 1
 217 003c 9023     		mov	r3, #144
 218 003e DB05     		lsl	r3, r3, #23
 219 0040 2022     		mov	r2, #32
 220 0042 1A83     		strh	r2, [r3, #24]
 221              		.loc 1 18 0
 222 0044 0023     		mov	r3, #0
 223 0046 0193     		str	r3, [sp, #4]
 224 0048 05E0     		b	.L4
 225              	.L5:
 226              		.loc 1 19 0 discriminator 2
 227 004a 009B     		ldr	r3, [sp]
 228 004c 0133     		add	r3, r3, #1
 229 004e 0093     		str	r3, [sp]
 230              		.loc 1 18 0 discriminator 2
 231 0050 019B     		ldr	r3, [sp, #4]
 232 0052 0133     		add	r3, r3, #1
 233 0054 0193     		str	r3, [sp, #4]
 234              	.L4:
 235              		.loc 1 18 0 is_stmt 0 discriminator 1
 236 0056 019A     		ldr	r2, [sp, #4]
 237 0058 014B     		ldr	r3, .L7
 238 005a 9A42     		cmp	r2, r3
 239 005c F5DD     		ble	.L5
 240              		.loc 1 21 0 is_stmt 1
 241 005e DCE7     		b	.L6
 242              	.L8:
 243              		.align	2
 244              	.L7:
 245 0060 7F969800 		.word	9999999
 246              		.cfi_endproc
 247              	.LFE149:
 248              		.size	main, .-main
 249 0064 C046C046 		.text
 249      C046C046 
 249      C046C046 
 250              	.Letext0:
 251              		.file 2 "/usr/include/newlib/machine/_default_types.h"
 252              		.file 3 "/usr/include/newlib/stdint.h"
 253              		.file 4 "/home/efe/ChibiOS/os/rt/ports/ARMCMx/compilers/GCC/chtypes.h"
 254              		.file 5 "/home/efe/ChibiOS/os/rt/include/chsystypes.h"
ARM GAS  /tmp/ccfvXp7H.s 			page 14


 255              		.file 6 "/home/efe/ChibiOS/os/rt/include/chschd.h"
 256              		.file 7 "/home/efe/ChibiOS/os/rt/ports/ARMCMx/chcore.h"
 257              		.file 8 "/home/efe/ChibiOS/os/rt/ports/ARMCMx/chcore_v6m.h"
 258              		.file 9 "/home/efe/ChibiOS/os/rt/include/chsem.h"
 259              		.file 10 "/home/efe/ChibiOS/os/rt/include/chmtx.h"
 260              		.file 11 "/home/efe/ChibiOS/os/hal/ports/STM32/LLD/GPIOv2/pal_lld.h"
 261              		.section	.debug_info,"",%progbits
 262              	.Ldebug_info0:
 263 0000 BA060000 		.4byte	0x6ba
 264 0004 0400     		.2byte	0x4
 265 0006 00000000 		.4byte	.Ldebug_abbrev0
 266 000a 04       		.byte	0x4
 267 000b 01       		.uleb128 0x1
 268 000c 9E020000 		.4byte	.LASF104
 269 0010 01       		.byte	0x1
 270 0011 2A000000 		.4byte	.LASF105
 271 0015 E6000000 		.4byte	.LASF106
 272 0019 00000000 		.4byte	.Ldebug_ranges0+0
 273 001d 00000000 		.4byte	0
 274 0021 00000000 		.4byte	.Ldebug_line0
 275 0025 02       		.uleb128 0x2
 276 0026 04       		.byte	0x4
 277 0027 05       		.byte	0x5
 278 0028 696E7400 		.ascii	"int\000"
 279 002c 03       		.uleb128 0x3
 280 002d 04       		.byte	0x4
 281 002e 07       		.byte	0x7
 282 002f 65000000 		.4byte	.LASF0
 283 0033 03       		.uleb128 0x3
 284 0034 01       		.byte	0x1
 285 0035 06       		.byte	0x6
 286 0036 93040000 		.4byte	.LASF1
 287 003a 04       		.uleb128 0x4
 288 003b F3030000 		.4byte	.LASF4
 289 003f 02       		.byte	0x2
 290 0040 1D       		.byte	0x1d
 291 0041 45000000 		.4byte	0x45
 292 0045 03       		.uleb128 0x3
 293 0046 01       		.byte	0x1
 294 0047 08       		.byte	0x8
 295 0048 43040000 		.4byte	.LASF2
 296 004c 03       		.uleb128 0x3
 297 004d 02       		.byte	0x2
 298 004e 05       		.byte	0x5
 299 004f 95030000 		.4byte	.LASF3
 300 0053 04       		.uleb128 0x4
 301 0054 57010000 		.4byte	.LASF5
 302 0058 02       		.byte	0x2
 303 0059 2B       		.byte	0x2b
 304 005a 5E000000 		.4byte	0x5e
 305 005e 03       		.uleb128 0x3
 306 005f 02       		.byte	0x2
 307 0060 07       		.byte	0x7
 308 0061 9F040000 		.4byte	.LASF6
 309 0065 04       		.uleb128 0x4
 310 0066 81000000 		.4byte	.LASF7
 311 006a 02       		.byte	0x2
ARM GAS  /tmp/ccfvXp7H.s 			page 15


 312 006b 3F       		.byte	0x3f
 313 006c 70000000 		.4byte	0x70
 314 0070 03       		.uleb128 0x3
 315 0071 04       		.byte	0x4
 316 0072 05       		.byte	0x5
 317 0073 B1030000 		.4byte	.LASF8
 318 0077 04       		.uleb128 0x4
 319 0078 51040000 		.4byte	.LASF9
 320 007c 02       		.byte	0x2
 321 007d 41       		.byte	0x41
 322 007e 82000000 		.4byte	0x82
 323 0082 03       		.uleb128 0x3
 324 0083 04       		.byte	0x4
 325 0084 07       		.byte	0x7
 326 0085 0D040000 		.4byte	.LASF10
 327 0089 03       		.uleb128 0x3
 328 008a 08       		.byte	0x8
 329 008b 05       		.byte	0x5
 330 008c 4D020000 		.4byte	.LASF11
 331 0090 04       		.uleb128 0x4
 332 0091 C9010000 		.4byte	.LASF12
 333 0095 02       		.byte	0x2
 334 0096 5B       		.byte	0x5b
 335 0097 9B000000 		.4byte	0x9b
 336 009b 03       		.uleb128 0x3
 337 009c 08       		.byte	0x8
 338 009d 07       		.byte	0x7
 339 009e 40010000 		.4byte	.LASF13
 340 00a2 04       		.uleb128 0x4
 341 00a3 22020000 		.4byte	.LASF14
 342 00a7 03       		.byte	0x3
 343 00a8 2A       		.byte	0x2a
 344 00a9 3A000000 		.4byte	0x3a
 345 00ad 04       		.uleb128 0x4
 346 00ae 81030000 		.4byte	.LASF15
 347 00b2 03       		.byte	0x3
 348 00b3 36       		.byte	0x36
 349 00b4 53000000 		.4byte	0x53
 350 00b8 04       		.uleb128 0x4
 351 00b9 2C040000 		.4byte	.LASF16
 352 00bd 03       		.byte	0x3
 353 00be 41       		.byte	0x41
 354 00bf 65000000 		.4byte	0x65
 355 00c3 04       		.uleb128 0x4
 356 00c4 03010000 		.4byte	.LASF17
 357 00c8 03       		.byte	0x3
 358 00c9 42       		.byte	0x42
 359 00ca 77000000 		.4byte	0x77
 360 00ce 04       		.uleb128 0x4
 361 00cf DE030000 		.4byte	.LASF18
 362 00d3 03       		.byte	0x3
 363 00d4 4E       		.byte	0x4e
 364 00d5 90000000 		.4byte	0x90
 365 00d9 04       		.uleb128 0x4
 366 00da 66030000 		.4byte	.LASF19
 367 00de 04       		.byte	0x4
 368 00df 3C       		.byte	0x3c
ARM GAS  /tmp/ccfvXp7H.s 			page 16


 369 00e0 A2000000 		.4byte	0xa2
 370 00e4 04       		.uleb128 0x4
 371 00e5 09020000 		.4byte	.LASF20
 372 00e9 04       		.byte	0x4
 373 00ea 3D       		.byte	0x3d
 374 00eb A2000000 		.4byte	0xa2
 375 00ef 04       		.uleb128 0x4
 376 00f0 27010000 		.4byte	.LASF21
 377 00f4 04       		.byte	0x4
 378 00f5 40       		.byte	0x40
 379 00f6 C3000000 		.4byte	0xc3
 380 00fa 04       		.uleb128 0x4
 381 00fb 6B020000 		.4byte	.LASF22
 382 00ff 04       		.byte	0x4
 383 0100 41       		.byte	0x41
 384 0101 B8000000 		.4byte	0xb8
 385 0105 04       		.uleb128 0x4
 386 0106 62010000 		.4byte	.LASF23
 387 010a 04       		.byte	0x4
 388 010b 45       		.byte	0x45
 389 010c B8000000 		.4byte	0xb8
 390 0110 04       		.uleb128 0x4
 391 0111 4B000000 		.4byte	.LASF24
 392 0115 05       		.byte	0x5
 393 0116 35       		.byte	0x35
 394 0117 AD000000 		.4byte	0xad
 395 011b 04       		.uleb128 0x4
 396 011c AA010000 		.4byte	.LASF25
 397 0120 05       		.byte	0x5
 398 0121 3F       		.byte	0x3f
 399 0122 26010000 		.4byte	0x126
 400 0126 05       		.uleb128 0x5
 401 0127 34020000 		.4byte	.LASF40
 402 012b 30       		.byte	0x30
 403 012c 06       		.byte	0x6
 404 012d C2       		.byte	0xc2
 405 012e D3010000 		.4byte	0x1d3
 406 0132 06       		.uleb128 0x6
 407 0133 D7030000 		.4byte	.LASF26
 408 0137 06       		.byte	0x6
 409 0138 C3       		.byte	0xc3
 410 0139 DE010000 		.4byte	0x1de
 411 013d 00       		.byte	0
 412 013e 06       		.uleb128 0x6
 413 013f FD030000 		.4byte	.LASF27
 414 0143 06       		.byte	0x6
 415 0144 C5       		.byte	0xc5
 416 0145 DE010000 		.4byte	0x1de
 417 0149 04       		.byte	0x4
 418 014a 06       		.uleb128 0x6
 419 014b 44000000 		.4byte	.LASF28
 420 014f 06       		.byte	0x6
 421 0150 C7       		.byte	0xc7
 422 0151 EF000000 		.4byte	0xef
 423 0155 08       		.byte	0x8
 424 0156 06       		.uleb128 0x6
 425 0157 E7030000 		.4byte	.LASF29
ARM GAS  /tmp/ccfvXp7H.s 			page 17


 426 015b 06       		.byte	0x6
 427 015c C8       		.byte	0xc8
 428 015d 07040000 		.4byte	0x407
 429 0161 0C       		.byte	0xc
 430 0162 06       		.uleb128 0x6
 431 0163 85010000 		.4byte	.LASF30
 432 0167 06       		.byte	0x6
 433 0168 CA       		.byte	0xca
 434 0169 DE010000 		.4byte	0x1de
 435 016d 10       		.byte	0x10
 436 016e 06       		.uleb128 0x6
 437 016f 12020000 		.4byte	.LASF31
 438 0173 06       		.byte	0x6
 439 0174 CB       		.byte	0xcb
 440 0175 DE010000 		.4byte	0x1de
 441 0179 14       		.byte	0x14
 442 017a 06       		.uleb128 0x6
 443 017b DA010000 		.4byte	.LASF32
 444 017f 06       		.byte	0x6
 445 0180 D2       		.byte	0xd2
 446 0181 51050000 		.4byte	0x551
 447 0185 18       		.byte	0x18
 448 0186 06       		.uleb128 0x6
 449 0187 1A020000 		.4byte	.LASF33
 450 018b 06       		.byte	0x6
 451 018c DD       		.byte	0xdd
 452 018d E4000000 		.4byte	0xe4
 453 0191 1C       		.byte	0x1c
 454 0192 06       		.uleb128 0x6
 455 0193 79020000 		.4byte	.LASF34
 456 0197 06       		.byte	0x6
 457 0198 E1       		.byte	0xe1
 458 0199 D9000000 		.4byte	0xd9
 459 019d 1D       		.byte	0x1d
 460 019e 07       		.uleb128 0x7
 461 019f 705F7500 		.ascii	"p_u\000"
 462 01a3 06       		.byte	0x6
 463 01a4 3101     		.2byte	0x131
 464 01a6 98040000 		.4byte	0x498
 465 01aa 20       		.byte	0x20
 466 01ab 08       		.uleb128 0x8
 467 01ac 20000000 		.4byte	.LASF35
 468 01b0 06       		.byte	0x6
 469 01b1 3601     		.2byte	0x136
 470 01b3 E4010000 		.4byte	0x1e4
 471 01b7 24       		.byte	0x24
 472 01b8 08       		.uleb128 0x8
 473 01b9 2A020000 		.4byte	.LASF36
 474 01bd 06       		.byte	0x6
 475 01be 4D01     		.2byte	0x14d
 476 01c0 4B050000 		.4byte	0x54b
 477 01c4 28       		.byte	0x28
 478 01c5 08       		.uleb128 0x8
 479 01c6 8A030000 		.4byte	.LASF37
 480 01ca 06       		.byte	0x6
 481 01cb 5101     		.2byte	0x151
 482 01cd EF000000 		.4byte	0xef
ARM GAS  /tmp/ccfvXp7H.s 			page 18


 483 01d1 2C       		.byte	0x2c
 484 01d2 00       		.byte	0
 485 01d3 04       		.uleb128 0x4
 486 01d4 EA010000 		.4byte	.LASF38
 487 01d8 05       		.byte	0x5
 488 01d9 44       		.byte	0x44
 489 01da DE010000 		.4byte	0x1de
 490 01de 09       		.uleb128 0x9
 491 01df 04       		.byte	0x4
 492 01e0 1B010000 		.4byte	0x11b
 493 01e4 04       		.uleb128 0x4
 494 01e5 72000000 		.4byte	.LASF39
 495 01e9 05       		.byte	0x5
 496 01ea 49       		.byte	0x49
 497 01eb EF010000 		.4byte	0x1ef
 498 01ef 05       		.uleb128 0x5
 499 01f0 00000000 		.4byte	.LASF41
 500 01f4 04       		.byte	0x4
 501 01f5 06       		.byte	0x6
 502 01f6 B0       		.byte	0xb0
 503 01f7 08020000 		.4byte	0x208
 504 01fb 06       		.uleb128 0x6
 505 01fc D7030000 		.4byte	.LASF26
 506 0200 06       		.byte	0x6
 507 0201 B1       		.byte	0xb1
 508 0202 DE010000 		.4byte	0x1de
 509 0206 00       		.byte	0
 510 0207 00       		.byte	0
 511 0208 04       		.uleb128 0x4
 512 0209 10000000 		.4byte	.LASF42
 513 020d 05       		.byte	0x5
 514 020e 50       		.byte	0x50
 515 020f 13020000 		.4byte	0x213
 516 0213 05       		.uleb128 0x5
 517 0214 B6000000 		.4byte	.LASF43
 518 0218 08       		.byte	0x8
 519 0219 06       		.byte	0x6
 520 021a B7       		.byte	0xb7
 521 021b 38020000 		.4byte	0x238
 522 021f 06       		.uleb128 0x6
 523 0220 D7030000 		.4byte	.LASF26
 524 0224 06       		.byte	0x6
 525 0225 B8       		.byte	0xb8
 526 0226 DE010000 		.4byte	0x1de
 527 022a 00       		.byte	0
 528 022b 06       		.uleb128 0x6
 529 022c FD030000 		.4byte	.LASF27
 530 0230 06       		.byte	0x6
 531 0231 B9       		.byte	0xb9
 532 0232 DE010000 		.4byte	0x1de
 533 0236 04       		.byte	0x4
 534 0237 00       		.byte	0
 535 0238 04       		.uleb128 0x4
 536 0239 1F040000 		.4byte	.LASF44
 537 023d 05       		.byte	0x5
 538 023e 57       		.byte	0x57
 539 023f 43020000 		.4byte	0x243
ARM GAS  /tmp/ccfvXp7H.s 			page 19


 540 0243 0A       		.uleb128 0xa
 541 0244 99000000 		.4byte	.LASF45
 542 0248 1C       		.byte	0x1c
 543 0249 06       		.byte	0x6
 544 024a 9001     		.2byte	0x190
 545 024c 9F020000 		.4byte	0x29f
 546 0250 08       		.uleb128 0x8
 547 0251 5B020000 		.4byte	.LASF46
 548 0255 06       		.byte	0x6
 549 0256 9101     		.2byte	0x191
 550 0258 08020000 		.4byte	0x208
 551 025c 00       		.byte	0
 552 025d 08       		.uleb128 0x8
 553 025e 0C010000 		.4byte	.LASF47
 554 0262 06       		.byte	0x6
 555 0263 9201     		.2byte	0x192
 556 0265 EF000000 		.4byte	0xef
 557 0269 08       		.byte	0x8
 558 026a 08       		.uleb128 0x8
 559 026b B2040000 		.4byte	.LASF48
 560 026f 06       		.byte	0x6
 561 0270 9401     		.2byte	0x194
 562 0272 07040000 		.4byte	0x407
 563 0276 0C       		.byte	0xc
 564 0277 08       		.uleb128 0x8
 565 0278 63020000 		.4byte	.LASF49
 566 027c 06       		.byte	0x6
 567 027d 9701     		.2byte	0x197
 568 027f DE010000 		.4byte	0x1de
 569 0283 10       		.byte	0x10
 570 0284 08       		.uleb128 0x8
 571 0285 54030000 		.4byte	.LASF50
 572 0289 06       		.byte	0x6
 573 028a 9801     		.2byte	0x198
 574 028c DE010000 		.4byte	0x1de
 575 0290 14       		.byte	0x14
 576 0291 08       		.uleb128 0x8
 577 0292 9F030000 		.4byte	.LASF51
 578 0296 06       		.byte	0x6
 579 0297 9B01     		.2byte	0x19b
 580 0299 DE010000 		.4byte	0x1de
 581 029d 18       		.byte	0x18
 582 029e 00       		.byte	0
 583 029f 04       		.uleb128 0x4
 584 02a0 C7000000 		.4byte	.LASF52
 585 02a4 05       		.byte	0x5
 586 02a5 5C       		.byte	0x5c
 587 02a6 AA020000 		.4byte	0x2aa
 588 02aa 09       		.uleb128 0x9
 589 02ab 04       		.byte	0x4
 590 02ac B0020000 		.4byte	0x2b0
 591 02b0 0B       		.uleb128 0xb
 592 02b1 BB020000 		.4byte	0x2bb
 593 02b5 0C       		.uleb128 0xc
 594 02b6 BB020000 		.4byte	0x2bb
 595 02ba 00       		.byte	0
 596 02bb 0D       		.uleb128 0xd
ARM GAS  /tmp/ccfvXp7H.s 			page 20


 597 02bc 04       		.byte	0x4
 598 02bd 04       		.uleb128 0x4
 599 02be 81020000 		.4byte	.LASF53
 600 02c2 05       		.byte	0x5
 601 02c3 61       		.byte	0x61
 602 02c4 C8020000 		.4byte	0x2c8
 603 02c8 0A       		.uleb128 0xa
 604 02c9 2F010000 		.4byte	.LASF54
 605 02cd 14       		.byte	0x14
 606 02ce 06       		.byte	0x6
 607 02cf 6B01     		.2byte	0x16b
 608 02d1 17030000 		.4byte	0x317
 609 02d5 08       		.uleb128 0x8
 610 02d6 72040000 		.4byte	.LASF55
 611 02da 06       		.byte	0x6
 612 02db 6C01     		.2byte	0x16c
 613 02dd 63050000 		.4byte	0x563
 614 02e1 00       		.byte	0
 615 02e2 08       		.uleb128 0x8
 616 02e3 D0040000 		.4byte	.LASF56
 617 02e7 06       		.byte	0x6
 618 02e8 6D01     		.2byte	0x16d
 619 02ea 63050000 		.4byte	0x563
 620 02ee 04       		.byte	0x4
 621 02ef 08       		.uleb128 0x8
 622 02f0 E1010000 		.4byte	.LASF57
 623 02f4 06       		.byte	0x6
 624 02f5 6E01     		.2byte	0x16e
 625 02f7 10010000 		.4byte	0x110
 626 02fb 08       		.byte	0x8
 627 02fc 08       		.uleb128 0x8
 628 02fd C8040000 		.4byte	.LASF58
 629 0301 06       		.byte	0x6
 630 0302 6F01     		.2byte	0x16f
 631 0304 9F020000 		.4byte	0x29f
 632 0308 0C       		.byte	0xc
 633 0309 08       		.uleb128 0x8
 634 030a 13010000 		.4byte	.LASF59
 635 030e 06       		.byte	0x6
 636 030f 7101     		.2byte	0x171
 637 0311 BB020000 		.4byte	0x2bb
 638 0315 10       		.byte	0x10
 639 0316 00       		.byte	0
 640 0317 04       		.uleb128 0x4
 641 0318 5C040000 		.4byte	.LASF60
 642 031c 05       		.byte	0x5
 643 031d 66       		.byte	0x66
 644 031e 22030000 		.4byte	0x322
 645 0322 0A       		.uleb128 0xa
 646 0323 93010000 		.4byte	.LASF61
 647 0327 0C       		.byte	0xc
 648 0328 06       		.byte	0x6
 649 0329 7B01     		.2byte	0x17b
 650 032b 64030000 		.4byte	0x364
 651 032f 08       		.uleb128 0x8
 652 0330 72040000 		.4byte	.LASF55
 653 0334 06       		.byte	0x6
ARM GAS  /tmp/ccfvXp7H.s 			page 21


 654 0335 7C01     		.2byte	0x17c
 655 0337 63050000 		.4byte	0x563
 656 033b 00       		.byte	0
 657 033c 08       		.uleb128 0x8
 658 033d D0040000 		.4byte	.LASF56
 659 0341 06       		.byte	0x6
 660 0342 7E01     		.2byte	0x17e
 661 0344 63050000 		.4byte	0x563
 662 0348 04       		.byte	0x4
 663 0349 08       		.uleb128 0x8
 664 034a E1010000 		.4byte	.LASF57
 665 034e 06       		.byte	0x6
 666 034f 8001     		.2byte	0x180
 667 0351 10010000 		.4byte	0x110
 668 0355 08       		.byte	0x8
 669 0356 08       		.uleb128 0x8
 670 0357 FD010000 		.4byte	.LASF62
 671 035b 06       		.byte	0x6
 672 035c 8801     		.2byte	0x188
 673 035e 10010000 		.4byte	0x110
 674 0362 0A       		.byte	0xa
 675 0363 00       		.byte	0
 676 0364 04       		.uleb128 0x4
 677 0365 3E020000 		.4byte	.LASF63
 678 0369 05       		.byte	0x5
 679 036a 6B       		.byte	0x6b
 680 036b 6F030000 		.4byte	0x36f
 681 036f 0A       		.uleb128 0xa
 682 0370 D6000000 		.4byte	.LASF64
 683 0374 04       		.byte	0x4
 684 0375 06       		.byte	0x6
 685 0376 A201     		.2byte	0x1a2
 686 0378 8A030000 		.4byte	0x38a
 687 037c 08       		.uleb128 0x8
 688 037d 5C030000 		.4byte	.LASF65
 689 0381 06       		.byte	0x6
 690 0382 AA01     		.2byte	0x1aa
 691 0384 69050000 		.4byte	0x569
 692 0388 00       		.byte	0
 693 0389 00       		.byte	0
 694 038a 04       		.uleb128 0x4
 695 038b 7A040000 		.4byte	.LASF66
 696 038f 05       		.byte	0x5
 697 0390 70       		.byte	0x70
 698 0391 95030000 		.4byte	0x395
 699 0395 0E       		.uleb128 0xe
 700 0396 C6030000 		.4byte	.LASF67
 701 039a 2801     		.2byte	0x128
 702 039c 06       		.byte	0x6
 703 039d C201     		.2byte	0x1c2
 704 039f E5030000 		.4byte	0x3e5
 705 03a3 08       		.uleb128 0x8
 706 03a4 ED030000 		.4byte	.LASF68
 707 03a8 06       		.byte	0x6
 708 03a9 C601     		.2byte	0x1c6
 709 03ab 38020000 		.4byte	0x238
 710 03af 00       		.byte	0
ARM GAS  /tmp/ccfvXp7H.s 			page 22


 711 03b0 08       		.uleb128 0x8
 712 03b1 92000000 		.4byte	.LASF69
 713 03b5 06       		.byte	0x6
 714 03b6 CA01     		.2byte	0x1ca
 715 03b8 17030000 		.4byte	0x317
 716 03bc 1C       		.byte	0x1c
 717 03bd 07       		.uleb128 0x7
 718 03be 64626700 		.ascii	"dbg\000"
 719 03c2 06       		.byte	0x6
 720 03c3 CE01     		.2byte	0x1ce
 721 03c5 64030000 		.4byte	0x364
 722 03c9 28       		.byte	0x28
 723 03ca 08       		.uleb128 0x8
 724 03cb 6E030000 		.4byte	.LASF70
 725 03cf 06       		.byte	0x6
 726 03d0 D201     		.2byte	0x1d2
 727 03d2 1B010000 		.4byte	0x11b
 728 03d6 2C       		.byte	0x2c
 729 03d7 08       		.uleb128 0x8
 730 03d8 A7000000 		.4byte	.LASF71
 731 03dc 06       		.byte	0x6
 732 03dd E301     		.2byte	0x1e3
 733 03df 6E050000 		.4byte	0x56e
 734 03e3 60       		.byte	0x60
 735 03e4 00       		.byte	0
 736 03e5 03       		.uleb128 0x3
 737 03e6 04       		.byte	0x4
 738 03e7 07       		.byte	0x7
 739 03e8 04040000 		.4byte	.LASF72
 740 03ec 0F       		.uleb128 0xf
 741 03ed C3000000 		.4byte	0xc3
 742 03f1 04       		.uleb128 0x4
 743 03f2 3B000000 		.4byte	.LASF73
 744 03f6 07       		.byte	0x7
 745 03f7 65       		.byte	0x65
 746 03f8 BB020000 		.4byte	0x2bb
 747 03fc 04       		.uleb128 0x4
 748 03fd B8040000 		.4byte	.LASF74
 749 0401 07       		.byte	0x7
 750 0402 6D       		.byte	0x6d
 751 0403 CE000000 		.4byte	0xce
 752 0407 05       		.uleb128 0x5
 753 0408 71020000 		.4byte	.LASF75
 754 040c 04       		.byte	0x4
 755 040d 07       		.byte	0x7
 756 040e 89       		.byte	0x89
 757 040f 20040000 		.4byte	0x420
 758 0413 10       		.uleb128 0x10
 759 0414 72313300 		.ascii	"r13\000"
 760 0418 07       		.byte	0x7
 761 0419 8A       		.byte	0x8a
 762 041a 92040000 		.4byte	0x492
 763 041e 00       		.byte	0
 764 041f 00       		.byte	0
 765 0420 05       		.uleb128 0x5
 766 0421 BA030000 		.4byte	.LASF76
 767 0425 24       		.byte	0x24
ARM GAS  /tmp/ccfvXp7H.s 			page 23


 768 0426 08       		.byte	0x8
 769 0427 A4       		.byte	0xa4
 770 0428 92040000 		.4byte	0x492
 771 042c 10       		.uleb128 0x10
 772 042d 723800   		.ascii	"r8\000"
 773 0430 08       		.byte	0x8
 774 0431 A5       		.byte	0xa5
 775 0432 F1030000 		.4byte	0x3f1
 776 0436 00       		.byte	0
 777 0437 10       		.uleb128 0x10
 778 0438 723900   		.ascii	"r9\000"
 779 043b 08       		.byte	0x8
 780 043c A6       		.byte	0xa6
 781 043d F1030000 		.4byte	0x3f1
 782 0441 04       		.byte	0x4
 783 0442 10       		.uleb128 0x10
 784 0443 72313000 		.ascii	"r10\000"
 785 0447 08       		.byte	0x8
 786 0448 A7       		.byte	0xa7
 787 0449 F1030000 		.4byte	0x3f1
 788 044d 08       		.byte	0x8
 789 044e 10       		.uleb128 0x10
 790 044f 72313100 		.ascii	"r11\000"
 791 0453 08       		.byte	0x8
 792 0454 A8       		.byte	0xa8
 793 0455 F1030000 		.4byte	0x3f1
 794 0459 0C       		.byte	0xc
 795 045a 10       		.uleb128 0x10
 796 045b 723400   		.ascii	"r4\000"
 797 045e 08       		.byte	0x8
 798 045f A9       		.byte	0xa9
 799 0460 F1030000 		.4byte	0x3f1
 800 0464 10       		.byte	0x10
 801 0465 10       		.uleb128 0x10
 802 0466 723500   		.ascii	"r5\000"
 803 0469 08       		.byte	0x8
 804 046a AA       		.byte	0xaa
 805 046b F1030000 		.4byte	0x3f1
 806 046f 14       		.byte	0x14
 807 0470 10       		.uleb128 0x10
 808 0471 723600   		.ascii	"r6\000"
 809 0474 08       		.byte	0x8
 810 0475 AB       		.byte	0xab
 811 0476 F1030000 		.4byte	0x3f1
 812 047a 18       		.byte	0x18
 813 047b 10       		.uleb128 0x10
 814 047c 723700   		.ascii	"r7\000"
 815 047f 08       		.byte	0x8
 816 0480 AC       		.byte	0xac
 817 0481 F1030000 		.4byte	0x3f1
 818 0485 1C       		.byte	0x1c
 819 0486 10       		.uleb128 0x10
 820 0487 6C7200   		.ascii	"lr\000"
 821 048a 08       		.byte	0x8
 822 048b AD       		.byte	0xad
 823 048c F1030000 		.4byte	0x3f1
 824 0490 20       		.byte	0x20
ARM GAS  /tmp/ccfvXp7H.s 			page 24


 825 0491 00       		.byte	0
 826 0492 09       		.uleb128 0x9
 827 0493 04       		.byte	0x4
 828 0494 20040000 		.4byte	0x420
 829 0498 11       		.uleb128 0x11
 830 0499 04       		.byte	0x4
 831 049a 06       		.byte	0x6
 832 049b FA       		.byte	0xfa
 833 049c E9040000 		.4byte	0x4e9
 834 04a0 12       		.uleb128 0x12
 835 04a1 B3010000 		.4byte	.LASF77
 836 04a5 06       		.byte	0x6
 837 04a6 0101     		.2byte	0x101
 838 04a8 FA000000 		.4byte	0xfa
 839 04ac 12       		.uleb128 0x12
 840 04ad DF040000 		.4byte	.LASF78
 841 04b1 06       		.byte	0x6
 842 04b2 0801     		.2byte	0x108
 843 04b4 FA000000 		.4byte	0xfa
 844 04b8 12       		.uleb128 0x12
 845 04b9 8B000000 		.4byte	.LASF79
 846 04bd 06       		.byte	0x6
 847 04be 0F01     		.2byte	0x10f
 848 04c0 BB020000 		.4byte	0x2bb
 849 04c4 12       		.uleb128 0x12
 850 04c5 86040000 		.4byte	.LASF80
 851 04c9 06       		.byte	0x6
 852 04ca 1601     		.2byte	0x116
 853 04cc E9040000 		.4byte	0x4e9
 854 04d0 12       		.uleb128 0x12
 855 04d1 34040000 		.4byte	.LASF81
 856 04d5 06       		.byte	0x6
 857 04d6 1E01     		.2byte	0x11e
 858 04d8 14050000 		.4byte	0x514
 859 04dc 12       		.uleb128 0x12
 860 04dd D8040000 		.4byte	.LASF82
 861 04e1 06       		.byte	0x6
 862 04e2 2701     		.2byte	0x127
 863 04e4 4B050000 		.4byte	0x54b
 864 04e8 00       		.byte	0
 865 04e9 09       		.uleb128 0x9
 866 04ea 04       		.byte	0x4
 867 04eb D3010000 		.4byte	0x1d3
 868 04ef 05       		.uleb128 0x5
 869 04f0 1A010000 		.4byte	.LASF83
 870 04f4 0C       		.byte	0xc
 871 04f5 09       		.byte	0x9
 872 04f6 34       		.byte	0x34
 873 04f7 14050000 		.4byte	0x514
 874 04fb 06       		.uleb128 0x6
 875 04fc 5D000000 		.4byte	.LASF84
 876 0500 09       		.byte	0x9
 877 0501 35       		.byte	0x35
 878 0502 08020000 		.4byte	0x208
 879 0506 00       		.byte	0
 880 0507 06       		.uleb128 0x6
 881 0508 D0000000 		.4byte	.LASF85
ARM GAS  /tmp/ccfvXp7H.s 			page 25


 882 050c 09       		.byte	0x9
 883 050d 37       		.byte	0x37
 884 050e 05010000 		.4byte	0x105
 885 0512 08       		.byte	0x8
 886 0513 00       		.byte	0
 887 0514 09       		.uleb128 0x9
 888 0515 04       		.byte	0x4
 889 0516 EF040000 		.4byte	0x4ef
 890 051a 05       		.uleb128 0x5
 891 051b C0010000 		.4byte	.LASF86
 892 051f 10       		.byte	0x10
 893 0520 0A       		.byte	0xa
 894 0521 39       		.byte	0x39
 895 0522 4B050000 		.4byte	0x54b
 896 0526 06       		.uleb128 0x6
 897 0527 A9030000 		.4byte	.LASF87
 898 052b 0A       		.byte	0xa
 899 052c 3A       		.byte	0x3a
 900 052d 08020000 		.4byte	0x208
 901 0531 00       		.byte	0
 902 0532 06       		.uleb128 0x6
 903 0533 55000000 		.4byte	.LASF88
 904 0537 0A       		.byte	0xa
 905 0538 3C       		.byte	0x3c
 906 0539 DE010000 		.4byte	0x1de
 907 053d 08       		.byte	0x8
 908 053e 06       		.uleb128 0x6
 909 053f 8C040000 		.4byte	.LASF89
 910 0543 0A       		.byte	0xa
 911 0544 3E       		.byte	0x3e
 912 0545 89050000 		.4byte	0x589
 913 0549 0C       		.byte	0xc
 914 054a 00       		.byte	0
 915 054b 09       		.uleb128 0x9
 916 054c 04       		.byte	0x4
 917 054d 1A050000 		.4byte	0x51a
 918 0551 09       		.uleb128 0x9
 919 0552 04       		.byte	0x4
 920 0553 57050000 		.4byte	0x557
 921 0557 13       		.uleb128 0x13
 922 0558 5C050000 		.4byte	0x55c
 923 055c 03       		.uleb128 0x3
 924 055d 01       		.byte	0x1
 925 055e 08       		.byte	0x8
 926 055f 36000000 		.4byte	.LASF90
 927 0563 09       		.uleb128 0x9
 928 0564 04       		.byte	0x4
 929 0565 BD020000 		.4byte	0x2bd
 930 0569 0F       		.uleb128 0xf
 931 056a 51050000 		.4byte	0x551
 932 056e 14       		.uleb128 0x14
 933 056f FC030000 		.4byte	0x3fc
 934 0573 7E050000 		.4byte	0x57e
 935 0577 15       		.uleb128 0x15
 936 0578 E5030000 		.4byte	0x3e5
 937 057c 18       		.byte	0x18
 938 057d 00       		.byte	0
ARM GAS  /tmp/ccfvXp7H.s 			page 26


 939 057e 04       		.uleb128 0x4
 940 057f 3B040000 		.4byte	.LASF91
 941 0583 0A       		.byte	0xa
 942 0584 34       		.byte	0x34
 943 0585 1A050000 		.4byte	0x51a
 944 0589 09       		.uleb128 0x9
 945 058a 04       		.byte	0x4
 946 058b 7E050000 		.4byte	0x57e
 947 058f 03       		.uleb128 0x3
 948 0590 01       		.byte	0x1
 949 0591 02       		.byte	0x2
 950 0592 BA010000 		.4byte	.LASF92
 951 0596 16       		.uleb128 0x16
 952 0597 04       		.byte	0x4
 953 0598 0B       		.byte	0xb
 954 0599 E7       		.byte	0xe7
 955 059a B7050000 		.4byte	0x5b7
 956 059e 10       		.uleb128 0x10
 957 059f 73657400 		.ascii	"set\000"
 958 05a3 0B       		.byte	0xb
 959 05a4 E8       		.byte	0xe8
 960 05a5 AD000000 		.4byte	0xad
 961 05a9 00       		.byte	0
 962 05aa 06       		.uleb128 0x6
 963 05ab 8D010000 		.4byte	.LASF93
 964 05af 0B       		.byte	0xb
 965 05b0 E9       		.byte	0xe9
 966 05b1 AD000000 		.4byte	0xad
 967 05b5 02       		.byte	0x2
 968 05b6 00       		.byte	0
 969 05b7 11       		.uleb128 0x11
 970 05b8 04       		.byte	0x4
 971 05b9 0B       		.byte	0xb
 972 05ba E5       		.byte	0xe5
 973 05bb D2050000 		.4byte	0x5d2
 974 05bf 17       		.uleb128 0x17
 975 05c0 5700     		.ascii	"W\000"
 976 05c2 0B       		.byte	0xb
 977 05c3 E6       		.byte	0xe6
 978 05c4 C3000000 		.4byte	0xc3
 979 05c8 17       		.uleb128 0x17
 980 05c9 4800     		.ascii	"H\000"
 981 05cb 0B       		.byte	0xb
 982 05cc EA       		.byte	0xea
 983 05cd 96050000 		.4byte	0x596
 984 05d1 00       		.byte	0
 985 05d2 16       		.uleb128 0x16
 986 05d3 2C       		.byte	0x2c
 987 05d4 0B       		.byte	0xb
 988 05d5 DD       		.byte	0xdd
 989 05d6 5F060000 		.4byte	0x65f
 990 05da 06       		.uleb128 0x6
 991 05db 68010000 		.4byte	.LASF94
 992 05df 0B       		.byte	0xb
 993 05e0 DF       		.byte	0xdf
 994 05e1 EC030000 		.4byte	0x3ec
 995 05e5 00       		.byte	0
ARM GAS  /tmp/ccfvXp7H.s 			page 27


 996 05e6 06       		.uleb128 0x6
 997 05e7 D0030000 		.4byte	.LASF95
 998 05eb 0B       		.byte	0xb
 999 05ec E0       		.byte	0xe0
 1000 05ed EC030000 		.4byte	0x3ec
 1001 05f1 04       		.byte	0x4
 1002 05f2 06       		.uleb128 0x6
 1003 05f3 79030000 		.4byte	.LASF96
 1004 05f7 0B       		.byte	0xb
 1005 05f8 E1       		.byte	0xe1
 1006 05f9 EC030000 		.4byte	0x3ec
 1007 05fd 08       		.byte	0x8
 1008 05fe 06       		.uleb128 0x6
 1009 05ff D4010000 		.4byte	.LASF97
 1010 0603 0B       		.byte	0xb
 1011 0604 E2       		.byte	0xe2
 1012 0605 EC030000 		.4byte	0x3ec
 1013 0609 0C       		.byte	0xc
 1014 060a 10       		.uleb128 0x10
 1015 060b 49445200 		.ascii	"IDR\000"
 1016 060f 0B       		.byte	0xb
 1017 0610 E3       		.byte	0xe3
 1018 0611 EC030000 		.4byte	0x3ec
 1019 0615 10       		.byte	0x10
 1020 0616 10       		.uleb128 0x10
 1021 0617 4F445200 		.ascii	"ODR\000"
 1022 061b 0B       		.byte	0xb
 1023 061c E4       		.byte	0xe4
 1024 061d EC030000 		.4byte	0x3ec
 1025 0621 14       		.byte	0x14
 1026 0622 06       		.uleb128 0x6
 1027 0623 31000000 		.4byte	.LASF98
 1028 0627 0B       		.byte	0xb
 1029 0628 EB       		.byte	0xeb
 1030 0629 5F060000 		.4byte	0x65f
 1031 062d 18       		.byte	0x18
 1032 062e 06       		.uleb128 0x6
 1033 062f E8040000 		.4byte	.LASF99
 1034 0633 0B       		.byte	0xb
 1035 0634 EC       		.byte	0xec
 1036 0635 EC030000 		.4byte	0x3ec
 1037 0639 1C       		.byte	0x1c
 1038 063a 06       		.uleb128 0x6
 1039 063b 80010000 		.4byte	.LASF100
 1040 063f 0B       		.byte	0xb
 1041 0640 ED       		.byte	0xed
 1042 0641 EC030000 		.4byte	0x3ec
 1043 0645 20       		.byte	0x20
 1044 0646 06       		.uleb128 0x6
 1045 0647 6E010000 		.4byte	.LASF101
 1046 064b 0B       		.byte	0xb
 1047 064c EE       		.byte	0xee
 1048 064d EC030000 		.4byte	0x3ec
 1049 0651 24       		.byte	0x24
 1050 0652 10       		.uleb128 0x10
 1051 0653 42525200 		.ascii	"BRR\000"
 1052 0657 0B       		.byte	0xb
ARM GAS  /tmp/ccfvXp7H.s 			page 28


 1053 0658 EF       		.byte	0xef
 1054 0659 EC030000 		.4byte	0x3ec
 1055 065d 28       		.byte	0x28
 1056 065e 00       		.byte	0
 1057 065f 0F       		.uleb128 0xf
 1058 0660 B7050000 		.4byte	0x5b7
 1059 0664 04       		.uleb128 0x4
 1060 0665 73010000 		.4byte	.LASF102
 1061 0669 0B       		.byte	0xb
 1062 066a F0       		.byte	0xf0
 1063 066b D2050000 		.4byte	0x5d2
 1064 066f 18       		.uleb128 0x18
 1065 0670 91020000 		.4byte	.LASF103
 1066 0674 0B       		.byte	0xb
 1067 0675 3F01     		.2byte	0x13f
 1068 0677 C3000000 		.4byte	0xc3
 1069 067b 19       		.uleb128 0x19
 1070 067c C3040000 		.4byte	.LASF107
 1071 0680 01       		.byte	0x1
 1072 0681 04       		.byte	0x4
 1073 0682 25000000 		.4byte	0x25
 1074 0686 00000000 		.4byte	.LFB149
 1075 068a 64000000 		.4byte	.LFE149-.LFB149
 1076 068e 01       		.uleb128 0x1
 1077 068f 9C       		.byte	0x9c
 1078 0690 AD060000 		.4byte	0x6ad
 1079 0694 1A       		.uleb128 0x1a
 1080 0695 6900     		.ascii	"i\000"
 1081 0697 01       		.byte	0x1
 1082 0698 0A       		.byte	0xa
 1083 0699 AD060000 		.4byte	0x6ad
 1084 069d 02       		.uleb128 0x2
 1085 069e 91       		.byte	0x91
 1086 069f 74       		.sleb128 -12
 1087 06a0 1A       		.uleb128 0x1a
 1088 06a1 6A00     		.ascii	"j\000"
 1089 06a3 01       		.byte	0x1
 1090 06a4 0A       		.byte	0xa
 1091 06a5 AD060000 		.4byte	0x6ad
 1092 06a9 02       		.uleb128 0x2
 1093 06aa 91       		.byte	0x91
 1094 06ab 70       		.sleb128 -16
 1095 06ac 00       		.byte	0
 1096 06ad 0F       		.uleb128 0xf
 1097 06ae 70000000 		.4byte	0x70
 1098 06b2 1B       		.uleb128 0x1b
 1099 06b3 636800   		.ascii	"ch\000"
 1100 06b6 06       		.byte	0x6
 1101 06b7 0902     		.2byte	0x209
 1102 06b9 8A030000 		.4byte	0x38a
 1103 06bd 00       		.byte	0
 1104              		.section	.debug_abbrev,"",%progbits
 1105              	.Ldebug_abbrev0:
 1106 0000 01       		.uleb128 0x1
 1107 0001 11       		.uleb128 0x11
 1108 0002 01       		.byte	0x1
 1109 0003 25       		.uleb128 0x25
ARM GAS  /tmp/ccfvXp7H.s 			page 29


 1110 0004 0E       		.uleb128 0xe
 1111 0005 13       		.uleb128 0x13
 1112 0006 0B       		.uleb128 0xb
 1113 0007 03       		.uleb128 0x3
 1114 0008 0E       		.uleb128 0xe
 1115 0009 1B       		.uleb128 0x1b
 1116 000a 0E       		.uleb128 0xe
 1117 000b 55       		.uleb128 0x55
 1118 000c 17       		.uleb128 0x17
 1119 000d 11       		.uleb128 0x11
 1120 000e 01       		.uleb128 0x1
 1121 000f 10       		.uleb128 0x10
 1122 0010 17       		.uleb128 0x17
 1123 0011 00       		.byte	0
 1124 0012 00       		.byte	0
 1125 0013 02       		.uleb128 0x2
 1126 0014 24       		.uleb128 0x24
 1127 0015 00       		.byte	0
 1128 0016 0B       		.uleb128 0xb
 1129 0017 0B       		.uleb128 0xb
 1130 0018 3E       		.uleb128 0x3e
 1131 0019 0B       		.uleb128 0xb
 1132 001a 03       		.uleb128 0x3
 1133 001b 08       		.uleb128 0x8
 1134 001c 00       		.byte	0
 1135 001d 00       		.byte	0
 1136 001e 03       		.uleb128 0x3
 1137 001f 24       		.uleb128 0x24
 1138 0020 00       		.byte	0
 1139 0021 0B       		.uleb128 0xb
 1140 0022 0B       		.uleb128 0xb
 1141 0023 3E       		.uleb128 0x3e
 1142 0024 0B       		.uleb128 0xb
 1143 0025 03       		.uleb128 0x3
 1144 0026 0E       		.uleb128 0xe
 1145 0027 00       		.byte	0
 1146 0028 00       		.byte	0
 1147 0029 04       		.uleb128 0x4
 1148 002a 16       		.uleb128 0x16
 1149 002b 00       		.byte	0
 1150 002c 03       		.uleb128 0x3
 1151 002d 0E       		.uleb128 0xe
 1152 002e 3A       		.uleb128 0x3a
 1153 002f 0B       		.uleb128 0xb
 1154 0030 3B       		.uleb128 0x3b
 1155 0031 0B       		.uleb128 0xb
 1156 0032 49       		.uleb128 0x49
 1157 0033 13       		.uleb128 0x13
 1158 0034 00       		.byte	0
 1159 0035 00       		.byte	0
 1160 0036 05       		.uleb128 0x5
 1161 0037 13       		.uleb128 0x13
 1162 0038 01       		.byte	0x1
 1163 0039 03       		.uleb128 0x3
 1164 003a 0E       		.uleb128 0xe
 1165 003b 0B       		.uleb128 0xb
 1166 003c 0B       		.uleb128 0xb
ARM GAS  /tmp/ccfvXp7H.s 			page 30


 1167 003d 3A       		.uleb128 0x3a
 1168 003e 0B       		.uleb128 0xb
 1169 003f 3B       		.uleb128 0x3b
 1170 0040 0B       		.uleb128 0xb
 1171 0041 01       		.uleb128 0x1
 1172 0042 13       		.uleb128 0x13
 1173 0043 00       		.byte	0
 1174 0044 00       		.byte	0
 1175 0045 06       		.uleb128 0x6
 1176 0046 0D       		.uleb128 0xd
 1177 0047 00       		.byte	0
 1178 0048 03       		.uleb128 0x3
 1179 0049 0E       		.uleb128 0xe
 1180 004a 3A       		.uleb128 0x3a
 1181 004b 0B       		.uleb128 0xb
 1182 004c 3B       		.uleb128 0x3b
 1183 004d 0B       		.uleb128 0xb
 1184 004e 49       		.uleb128 0x49
 1185 004f 13       		.uleb128 0x13
 1186 0050 38       		.uleb128 0x38
 1187 0051 0B       		.uleb128 0xb
 1188 0052 00       		.byte	0
 1189 0053 00       		.byte	0
 1190 0054 07       		.uleb128 0x7
 1191 0055 0D       		.uleb128 0xd
 1192 0056 00       		.byte	0
 1193 0057 03       		.uleb128 0x3
 1194 0058 08       		.uleb128 0x8
 1195 0059 3A       		.uleb128 0x3a
 1196 005a 0B       		.uleb128 0xb
 1197 005b 3B       		.uleb128 0x3b
 1198 005c 05       		.uleb128 0x5
 1199 005d 49       		.uleb128 0x49
 1200 005e 13       		.uleb128 0x13
 1201 005f 38       		.uleb128 0x38
 1202 0060 0B       		.uleb128 0xb
 1203 0061 00       		.byte	0
 1204 0062 00       		.byte	0
 1205 0063 08       		.uleb128 0x8
 1206 0064 0D       		.uleb128 0xd
 1207 0065 00       		.byte	0
 1208 0066 03       		.uleb128 0x3
 1209 0067 0E       		.uleb128 0xe
 1210 0068 3A       		.uleb128 0x3a
 1211 0069 0B       		.uleb128 0xb
 1212 006a 3B       		.uleb128 0x3b
 1213 006b 05       		.uleb128 0x5
 1214 006c 49       		.uleb128 0x49
 1215 006d 13       		.uleb128 0x13
 1216 006e 38       		.uleb128 0x38
 1217 006f 0B       		.uleb128 0xb
 1218 0070 00       		.byte	0
 1219 0071 00       		.byte	0
 1220 0072 09       		.uleb128 0x9
 1221 0073 0F       		.uleb128 0xf
 1222 0074 00       		.byte	0
 1223 0075 0B       		.uleb128 0xb
ARM GAS  /tmp/ccfvXp7H.s 			page 31


 1224 0076 0B       		.uleb128 0xb
 1225 0077 49       		.uleb128 0x49
 1226 0078 13       		.uleb128 0x13
 1227 0079 00       		.byte	0
 1228 007a 00       		.byte	0
 1229 007b 0A       		.uleb128 0xa
 1230 007c 13       		.uleb128 0x13
 1231 007d 01       		.byte	0x1
 1232 007e 03       		.uleb128 0x3
 1233 007f 0E       		.uleb128 0xe
 1234 0080 0B       		.uleb128 0xb
 1235 0081 0B       		.uleb128 0xb
 1236 0082 3A       		.uleb128 0x3a
 1237 0083 0B       		.uleb128 0xb
 1238 0084 3B       		.uleb128 0x3b
 1239 0085 05       		.uleb128 0x5
 1240 0086 01       		.uleb128 0x1
 1241 0087 13       		.uleb128 0x13
 1242 0088 00       		.byte	0
 1243 0089 00       		.byte	0
 1244 008a 0B       		.uleb128 0xb
 1245 008b 15       		.uleb128 0x15
 1246 008c 01       		.byte	0x1
 1247 008d 27       		.uleb128 0x27
 1248 008e 19       		.uleb128 0x19
 1249 008f 01       		.uleb128 0x1
 1250 0090 13       		.uleb128 0x13
 1251 0091 00       		.byte	0
 1252 0092 00       		.byte	0
 1253 0093 0C       		.uleb128 0xc
 1254 0094 05       		.uleb128 0x5
 1255 0095 00       		.byte	0
 1256 0096 49       		.uleb128 0x49
 1257 0097 13       		.uleb128 0x13
 1258 0098 00       		.byte	0
 1259 0099 00       		.byte	0
 1260 009a 0D       		.uleb128 0xd
 1261 009b 0F       		.uleb128 0xf
 1262 009c 00       		.byte	0
 1263 009d 0B       		.uleb128 0xb
 1264 009e 0B       		.uleb128 0xb
 1265 009f 00       		.byte	0
 1266 00a0 00       		.byte	0
 1267 00a1 0E       		.uleb128 0xe
 1268 00a2 13       		.uleb128 0x13
 1269 00a3 01       		.byte	0x1
 1270 00a4 03       		.uleb128 0x3
 1271 00a5 0E       		.uleb128 0xe
 1272 00a6 0B       		.uleb128 0xb
 1273 00a7 05       		.uleb128 0x5
 1274 00a8 3A       		.uleb128 0x3a
 1275 00a9 0B       		.uleb128 0xb
 1276 00aa 3B       		.uleb128 0x3b
 1277 00ab 05       		.uleb128 0x5
 1278 00ac 01       		.uleb128 0x1
 1279 00ad 13       		.uleb128 0x13
 1280 00ae 00       		.byte	0
ARM GAS  /tmp/ccfvXp7H.s 			page 32


 1281 00af 00       		.byte	0
 1282 00b0 0F       		.uleb128 0xf
 1283 00b1 35       		.uleb128 0x35
 1284 00b2 00       		.byte	0
 1285 00b3 49       		.uleb128 0x49
 1286 00b4 13       		.uleb128 0x13
 1287 00b5 00       		.byte	0
 1288 00b6 00       		.byte	0
 1289 00b7 10       		.uleb128 0x10
 1290 00b8 0D       		.uleb128 0xd
 1291 00b9 00       		.byte	0
 1292 00ba 03       		.uleb128 0x3
 1293 00bb 08       		.uleb128 0x8
 1294 00bc 3A       		.uleb128 0x3a
 1295 00bd 0B       		.uleb128 0xb
 1296 00be 3B       		.uleb128 0x3b
 1297 00bf 0B       		.uleb128 0xb
 1298 00c0 49       		.uleb128 0x49
 1299 00c1 13       		.uleb128 0x13
 1300 00c2 38       		.uleb128 0x38
 1301 00c3 0B       		.uleb128 0xb
 1302 00c4 00       		.byte	0
 1303 00c5 00       		.byte	0
 1304 00c6 11       		.uleb128 0x11
 1305 00c7 17       		.uleb128 0x17
 1306 00c8 01       		.byte	0x1
 1307 00c9 0B       		.uleb128 0xb
 1308 00ca 0B       		.uleb128 0xb
 1309 00cb 3A       		.uleb128 0x3a
 1310 00cc 0B       		.uleb128 0xb
 1311 00cd 3B       		.uleb128 0x3b
 1312 00ce 0B       		.uleb128 0xb
 1313 00cf 01       		.uleb128 0x1
 1314 00d0 13       		.uleb128 0x13
 1315 00d1 00       		.byte	0
 1316 00d2 00       		.byte	0
 1317 00d3 12       		.uleb128 0x12
 1318 00d4 0D       		.uleb128 0xd
 1319 00d5 00       		.byte	0
 1320 00d6 03       		.uleb128 0x3
 1321 00d7 0E       		.uleb128 0xe
 1322 00d8 3A       		.uleb128 0x3a
 1323 00d9 0B       		.uleb128 0xb
 1324 00da 3B       		.uleb128 0x3b
 1325 00db 05       		.uleb128 0x5
 1326 00dc 49       		.uleb128 0x49
 1327 00dd 13       		.uleb128 0x13
 1328 00de 00       		.byte	0
 1329 00df 00       		.byte	0
 1330 00e0 13       		.uleb128 0x13
 1331 00e1 26       		.uleb128 0x26
 1332 00e2 00       		.byte	0
 1333 00e3 49       		.uleb128 0x49
 1334 00e4 13       		.uleb128 0x13
 1335 00e5 00       		.byte	0
 1336 00e6 00       		.byte	0
 1337 00e7 14       		.uleb128 0x14
ARM GAS  /tmp/ccfvXp7H.s 			page 33


 1338 00e8 01       		.uleb128 0x1
 1339 00e9 01       		.byte	0x1
 1340 00ea 49       		.uleb128 0x49
 1341 00eb 13       		.uleb128 0x13
 1342 00ec 01       		.uleb128 0x1
 1343 00ed 13       		.uleb128 0x13
 1344 00ee 00       		.byte	0
 1345 00ef 00       		.byte	0
 1346 00f0 15       		.uleb128 0x15
 1347 00f1 21       		.uleb128 0x21
 1348 00f2 00       		.byte	0
 1349 00f3 49       		.uleb128 0x49
 1350 00f4 13       		.uleb128 0x13
 1351 00f5 2F       		.uleb128 0x2f
 1352 00f6 0B       		.uleb128 0xb
 1353 00f7 00       		.byte	0
 1354 00f8 00       		.byte	0
 1355 00f9 16       		.uleb128 0x16
 1356 00fa 13       		.uleb128 0x13
 1357 00fb 01       		.byte	0x1
 1358 00fc 0B       		.uleb128 0xb
 1359 00fd 0B       		.uleb128 0xb
 1360 00fe 3A       		.uleb128 0x3a
 1361 00ff 0B       		.uleb128 0xb
 1362 0100 3B       		.uleb128 0x3b
 1363 0101 0B       		.uleb128 0xb
 1364 0102 01       		.uleb128 0x1
 1365 0103 13       		.uleb128 0x13
 1366 0104 00       		.byte	0
 1367 0105 00       		.byte	0
 1368 0106 17       		.uleb128 0x17
 1369 0107 0D       		.uleb128 0xd
 1370 0108 00       		.byte	0
 1371 0109 03       		.uleb128 0x3
 1372 010a 08       		.uleb128 0x8
 1373 010b 3A       		.uleb128 0x3a
 1374 010c 0B       		.uleb128 0xb
 1375 010d 3B       		.uleb128 0x3b
 1376 010e 0B       		.uleb128 0xb
 1377 010f 49       		.uleb128 0x49
 1378 0110 13       		.uleb128 0x13
 1379 0111 00       		.byte	0
 1380 0112 00       		.byte	0
 1381 0113 18       		.uleb128 0x18
 1382 0114 16       		.uleb128 0x16
 1383 0115 00       		.byte	0
 1384 0116 03       		.uleb128 0x3
 1385 0117 0E       		.uleb128 0xe
 1386 0118 3A       		.uleb128 0x3a
 1387 0119 0B       		.uleb128 0xb
 1388 011a 3B       		.uleb128 0x3b
 1389 011b 05       		.uleb128 0x5
 1390 011c 49       		.uleb128 0x49
 1391 011d 13       		.uleb128 0x13
 1392 011e 00       		.byte	0
 1393 011f 00       		.byte	0
 1394 0120 19       		.uleb128 0x19
ARM GAS  /tmp/ccfvXp7H.s 			page 34


 1395 0121 2E       		.uleb128 0x2e
 1396 0122 01       		.byte	0x1
 1397 0123 3F       		.uleb128 0x3f
 1398 0124 19       		.uleb128 0x19
 1399 0125 03       		.uleb128 0x3
 1400 0126 0E       		.uleb128 0xe
 1401 0127 3A       		.uleb128 0x3a
 1402 0128 0B       		.uleb128 0xb
 1403 0129 3B       		.uleb128 0x3b
 1404 012a 0B       		.uleb128 0xb
 1405 012b 27       		.uleb128 0x27
 1406 012c 19       		.uleb128 0x19
 1407 012d 49       		.uleb128 0x49
 1408 012e 13       		.uleb128 0x13
 1409 012f 11       		.uleb128 0x11
 1410 0130 01       		.uleb128 0x1
 1411 0131 12       		.uleb128 0x12
 1412 0132 06       		.uleb128 0x6
 1413 0133 40       		.uleb128 0x40
 1414 0134 18       		.uleb128 0x18
 1415 0135 9642     		.uleb128 0x2116
 1416 0137 19       		.uleb128 0x19
 1417 0138 01       		.uleb128 0x1
 1418 0139 13       		.uleb128 0x13
 1419 013a 00       		.byte	0
 1420 013b 00       		.byte	0
 1421 013c 1A       		.uleb128 0x1a
 1422 013d 34       		.uleb128 0x34
 1423 013e 00       		.byte	0
 1424 013f 03       		.uleb128 0x3
 1425 0140 08       		.uleb128 0x8
 1426 0141 3A       		.uleb128 0x3a
 1427 0142 0B       		.uleb128 0xb
 1428 0143 3B       		.uleb128 0x3b
 1429 0144 0B       		.uleb128 0xb
 1430 0145 49       		.uleb128 0x49
 1431 0146 13       		.uleb128 0x13
 1432 0147 02       		.uleb128 0x2
 1433 0148 18       		.uleb128 0x18
 1434 0149 00       		.byte	0
 1435 014a 00       		.byte	0
 1436 014b 1B       		.uleb128 0x1b
 1437 014c 34       		.uleb128 0x34
 1438 014d 00       		.byte	0
 1439 014e 03       		.uleb128 0x3
 1440 014f 08       		.uleb128 0x8
 1441 0150 3A       		.uleb128 0x3a
 1442 0151 0B       		.uleb128 0xb
 1443 0152 3B       		.uleb128 0x3b
 1444 0153 05       		.uleb128 0x5
 1445 0154 49       		.uleb128 0x49
 1446 0155 13       		.uleb128 0x13
 1447 0156 3F       		.uleb128 0x3f
 1448 0157 19       		.uleb128 0x19
 1449 0158 3C       		.uleb128 0x3c
 1450 0159 19       		.uleb128 0x19
 1451 015a 00       		.byte	0
ARM GAS  /tmp/ccfvXp7H.s 			page 35


 1452 015b 00       		.byte	0
 1453 015c 00       		.byte	0
 1454              		.section	.debug_aranges,"",%progbits
 1455 0000 1C000000 		.4byte	0x1c
 1456 0004 0200     		.2byte	0x2
 1457 0006 00000000 		.4byte	.Ldebug_info0
 1458 000a 04       		.byte	0x4
 1459 000b 00       		.byte	0
 1460 000c 0000     		.2byte	0
 1461 000e 0000     		.2byte	0
 1462 0010 00000000 		.4byte	.LFB149
 1463 0014 64000000 		.4byte	.LFE149-.LFB149
 1464 0018 00000000 		.4byte	0
 1465 001c 00000000 		.4byte	0
 1466              		.section	.debug_ranges,"",%progbits
 1467              	.Ldebug_ranges0:
 1468 0000 00000000 		.4byte	.LFB149
 1469 0004 64000000 		.4byte	.LFE149
 1470 0008 00000000 		.4byte	0
 1471 000c 00000000 		.4byte	0
 1472              		.section	.debug_line,"",%progbits
 1473              	.Ldebug_line0:
 1474 0000 BA010000 		.section	.debug_str,"MS",%progbits,1
 1474      02007D01 
 1474      00000201 
 1474      FB0E0D00 
 1474      01010101 
 1475              	.LASF41:
 1476 0000 63685F74 		.ascii	"ch_threads_list\000"
 1476      68726561 
 1476      64735F6C 
 1476      69737400 
 1477              	.LASF42:
 1478 0010 74687265 		.ascii	"threads_queue_t\000"
 1478      6164735F 
 1478      71756575 
 1478      655F7400 
 1479              	.LASF35:
 1480 0020 705F7761 		.ascii	"p_waiting\000"
 1480      6974696E 
 1480      6700
 1481              	.LASF105:
 1482 002a 6D61696E 		.ascii	"main.c\000"
 1482      2E6300
 1483              	.LASF98:
 1484 0031 42535252 		.ascii	"BSRR\000"
 1484      00
 1485              	.LASF90:
 1486 0036 63686172 		.ascii	"char\000"
 1486      00
 1487              	.LASF73:
 1488 003b 72656761 		.ascii	"regarm_t\000"
 1488      726D5F74 
 1488      00
 1489              	.LASF28:
 1490 0044 705F7072 		.ascii	"p_prio\000"
 1490      696F00
ARM GAS  /tmp/ccfvXp7H.s 			page 36


 1491              	.LASF24:
 1492 004b 73797374 		.ascii	"systime_t\000"
 1492      696D655F 
 1492      7400
 1493              	.LASF88:
 1494 0055 6D5F6F77 		.ascii	"m_owner\000"
 1494      6E657200 
 1495              	.LASF84:
 1496 005d 735F7175 		.ascii	"s_queue\000"
 1496      65756500 
 1497              	.LASF0:
 1498 0065 756E7369 		.ascii	"unsigned int\000"
 1498      676E6564 
 1498      20696E74 
 1498      00
 1499              	.LASF39:
 1500 0072 74687265 		.ascii	"threads_list_t\000"
 1500      6164735F 
 1500      6C697374 
 1500      5F7400
 1501              	.LASF7:
 1502 0081 5F5F696E 		.ascii	"__int32_t\000"
 1502      7433325F 
 1502      7400
 1503              	.LASF79:
 1504 008b 77746F62 		.ascii	"wtobjp\000"
 1504      6A7000
 1505              	.LASF69:
 1506 0092 76746C69 		.ascii	"vtlist\000"
 1506      737400
 1507              	.LASF45:
 1508 0099 63685F72 		.ascii	"ch_ready_list\000"
 1508      65616479 
 1508      5F6C6973 
 1508      7400
 1509              	.LASF71:
 1510 00a7 69646C65 		.ascii	"idle_thread_wa\000"
 1510      5F746872 
 1510      6561645F 
 1510      776100
 1511              	.LASF43:
 1512 00b6 63685F74 		.ascii	"ch_threads_queue\000"
 1512      68726561 
 1512      64735F71 
 1512      75657565 
 1512      00
 1513              	.LASF52:
 1514 00c7 76746675 		.ascii	"vtfunc_t\000"
 1514      6E635F74 
 1514      00
 1515              	.LASF85:
 1516 00d0 735F636E 		.ascii	"s_cnt\000"
 1516      7400
 1517              	.LASF64:
 1518 00d6 63685F73 		.ascii	"ch_system_debug\000"
 1518      79737465 
 1518      6D5F6465 
ARM GAS  /tmp/ccfvXp7H.s 			page 37


 1518      62756700 
 1519              	.LASF106:
 1520 00e6 2F686F6D 		.ascii	"/home/efe/projeler/led-panel\000"
 1520      652F6566 
 1520      652F7072 
 1520      6F6A656C 
 1520      65722F6C 
 1521              	.LASF17:
 1522 0103 75696E74 		.ascii	"uint32_t\000"
 1522      33325F74 
 1522      00
 1523              	.LASF47:
 1524 010c 725F7072 		.ascii	"r_prio\000"
 1524      696F00
 1525              	.LASF59:
 1526 0113 76745F70 		.ascii	"vt_par\000"
 1526      617200
 1527              	.LASF83:
 1528 011a 63685F73 		.ascii	"ch_semaphore\000"
 1528      656D6170 
 1528      686F7265 
 1528      00
 1529              	.LASF21:
 1530 0127 74707269 		.ascii	"tprio_t\000"
 1530      6F5F7400 
 1531              	.LASF54:
 1532 012f 63685F76 		.ascii	"ch_virtual_timer\000"
 1532      69727475 
 1532      616C5F74 
 1532      696D6572 
 1532      00
 1533              	.LASF13:
 1534 0140 6C6F6E67 		.ascii	"long long unsigned int\000"
 1534      206C6F6E 
 1534      6720756E 
 1534      7369676E 
 1534      65642069 
 1535              	.LASF5:
 1536 0157 5F5F7569 		.ascii	"__uint16_t\000"
 1536      6E743136 
 1536      5F7400
 1537              	.LASF23:
 1538 0162 636E745F 		.ascii	"cnt_t\000"
 1538      7400
 1539              	.LASF94:
 1540 0168 4D4F4445 		.ascii	"MODER\000"
 1540      5200
 1541              	.LASF101:
 1542 016e 41465248 		.ascii	"AFRH\000"
 1542      00
 1543              	.LASF102:
 1544 0173 73746D33 		.ascii	"stm32_gpio_t\000"
 1544      325F6770 
 1544      696F5F74 
 1544      00
 1545              	.LASF100:
 1546 0180 4146524C 		.ascii	"AFRL\000"
ARM GAS  /tmp/ccfvXp7H.s 			page 38


 1546      00
 1547              	.LASF30:
 1548 0185 705F6E65 		.ascii	"p_newer\000"
 1548      77657200 
 1549              	.LASF93:
 1550 018d 636C6561 		.ascii	"clear\000"
 1550      7200
 1551              	.LASF61:
 1552 0193 63685F76 		.ascii	"ch_virtual_timers_list\000"
 1552      69727475 
 1552      616C5F74 
 1552      696D6572 
 1552      735F6C69 
 1553              	.LASF25:
 1554 01aa 74687265 		.ascii	"thread_t\000"
 1554      61645F74 
 1554      00
 1555              	.LASF77:
 1556 01b3 7264796D 		.ascii	"rdymsg\000"
 1556      736700
 1557              	.LASF92:
 1558 01ba 5F426F6F 		.ascii	"_Bool\000"
 1558      6C00
 1559              	.LASF86:
 1560 01c0 63685F6D 		.ascii	"ch_mutex\000"
 1560      75746578 
 1560      00
 1561              	.LASF12:
 1562 01c9 5F5F7569 		.ascii	"__uint64_t\000"
 1562      6E743634 
 1562      5F7400
 1563              	.LASF97:
 1564 01d4 50555044 		.ascii	"PUPDR\000"
 1564      5200
 1565              	.LASF32:
 1566 01da 705F6E61 		.ascii	"p_name\000"
 1566      6D6500
 1567              	.LASF57:
 1568 01e1 76745F64 		.ascii	"vt_delta\000"
 1568      656C7461 
 1568      00
 1569              	.LASF38:
 1570 01ea 74687265 		.ascii	"thread_reference_t\000"
 1570      61645F72 
 1570      65666572 
 1570      656E6365 
 1570      5F7400
 1571              	.LASF62:
 1572 01fd 76745F6C 		.ascii	"vt_lasttime\000"
 1572      61737474 
 1572      696D6500 
 1573              	.LASF20:
 1574 0209 74737461 		.ascii	"tstate_t\000"
 1574      74655F74 
 1574      00
 1575              	.LASF31:
 1576 0212 705F6F6C 		.ascii	"p_older\000"
ARM GAS  /tmp/ccfvXp7H.s 			page 39


 1576      64657200 
 1577              	.LASF33:
 1578 021a 705F7374 		.ascii	"p_state\000"
 1578      61746500 
 1579              	.LASF14:
 1580 0222 75696E74 		.ascii	"uint8_t\000"
 1580      385F7400 
 1581              	.LASF36:
 1582 022a 705F6D74 		.ascii	"p_mtxlist\000"
 1582      786C6973 
 1582      7400
 1583              	.LASF40:
 1584 0234 63685F74 		.ascii	"ch_thread\000"
 1584      68726561 
 1584      6400
 1585              	.LASF63:
 1586 023e 73797374 		.ascii	"system_debug_t\000"
 1586      656D5F64 
 1586      65627567 
 1586      5F7400
 1587              	.LASF11:
 1588 024d 6C6F6E67 		.ascii	"long long int\000"
 1588      206C6F6E 
 1588      6720696E 
 1588      7400
 1589              	.LASF46:
 1590 025b 725F7175 		.ascii	"r_queue\000"
 1590      65756500 
 1591              	.LASF49:
 1592 0263 725F6E65 		.ascii	"r_newer\000"
 1592      77657200 
 1593              	.LASF22:
 1594 026b 6D73675F 		.ascii	"msg_t\000"
 1594      7400
 1595              	.LASF75:
 1596 0271 636F6E74 		.ascii	"context\000"
 1596      65787400 
 1597              	.LASF34:
 1598 0279 705F666C 		.ascii	"p_flags\000"
 1598      61677300 
 1599              	.LASF53:
 1600 0281 76697274 		.ascii	"virtual_timer_t\000"
 1600      75616C5F 
 1600      74696D65 
 1600      725F7400 
 1601              	.LASF103:
 1602 0291 696F706F 		.ascii	"ioportmask_t\000"
 1602      72746D61 
 1602      736B5F74 
 1602      00
 1603              	.LASF104:
 1604 029e 474E5520 		.ascii	"GNU C 4.8.4 20141219 (release) -mcpu=cortex-m0 -mno"
 1604      4320342E 
 1604      382E3420 
 1604      32303134 
 1604      31323139 
 1605 02d1 2D746875 		.ascii	"-thumb-interwork -mthumb -ggdb -O0 -fomit-frame-poi"
ARM GAS  /tmp/ccfvXp7H.s 			page 40


 1605      6D622D69 
 1605      6E746572 
 1605      776F726B 
 1605      202D6D74 
 1606 0304 6E746572 		.ascii	"nter -falign-functions=16 -ffunction-sections -fdat"
 1606      202D6661 
 1606      6C69676E 
 1606      2D66756E 
 1606      6374696F 
 1607 0337 612D7365 		.ascii	"a-sections -fno-common -flto\000"
 1607      6374696F 
 1607      6E73202D 
 1607      666E6F2D 
 1607      636F6D6D 
 1608              	.LASF50:
 1609 0354 725F6F6C 		.ascii	"r_older\000"
 1609      64657200 
 1610              	.LASF65:
 1611 035c 70616E69 		.ascii	"panic_msg\000"
 1611      635F6D73 
 1611      6700
 1612              	.LASF19:
 1613 0366 746D6F64 		.ascii	"tmode_t\000"
 1613      655F7400 
 1614              	.LASF70:
 1615 036e 6D61696E 		.ascii	"mainthread\000"
 1615      74687265 
 1615      616400
 1616              	.LASF96:
 1617 0379 4F535045 		.ascii	"OSPEEDR\000"
 1617      45445200 
 1618              	.LASF15:
 1619 0381 75696E74 		.ascii	"uint16_t\000"
 1619      31365F74 
 1619      00
 1620              	.LASF37:
 1621 038a 705F7265 		.ascii	"p_realprio\000"
 1621      616C7072 
 1621      696F00
 1622              	.LASF3:
 1623 0395 73686F72 		.ascii	"short int\000"
 1623      7420696E 
 1623      7400
 1624              	.LASF51:
 1625 039f 725F6375 		.ascii	"r_current\000"
 1625      7272656E 
 1625      7400
 1626              	.LASF87:
 1627 03a9 6D5F7175 		.ascii	"m_queue\000"
 1627      65756500 
 1628              	.LASF8:
 1629 03b1 6C6F6E67 		.ascii	"long int\000"
 1629      20696E74 
 1629      00
 1630              	.LASF76:
 1631 03ba 706F7274 		.ascii	"port_intctx\000"
 1631      5F696E74 
ARM GAS  /tmp/ccfvXp7H.s 			page 41


 1631      63747800 
 1632              	.LASF67:
 1633 03c6 63685F73 		.ascii	"ch_system\000"
 1633      79737465 
 1633      6D00
 1634              	.LASF95:
 1635 03d0 4F545950 		.ascii	"OTYPER\000"
 1635      455200
 1636              	.LASF26:
 1637 03d7 705F6E65 		.ascii	"p_next\000"
 1637      787400
 1638              	.LASF18:
 1639 03de 75696E74 		.ascii	"uint64_t\000"
 1639      36345F74 
 1639      00
 1640              	.LASF29:
 1641 03e7 705F6374 		.ascii	"p_ctx\000"
 1641      7800
 1642              	.LASF68:
 1643 03ed 726C6973 		.ascii	"rlist\000"
 1643      7400
 1644              	.LASF4:
 1645 03f3 5F5F7569 		.ascii	"__uint8_t\000"
 1645      6E74385F 
 1645      7400
 1646              	.LASF27:
 1647 03fd 705F7072 		.ascii	"p_prev\000"
 1647      657600
 1648              	.LASF72:
 1649 0404 73697A65 		.ascii	"sizetype\000"
 1649      74797065 
 1649      00
 1650              	.LASF10:
 1651 040d 6C6F6E67 		.ascii	"long unsigned int\000"
 1651      20756E73 
 1651      69676E65 
 1651      6420696E 
 1651      7400
 1652              	.LASF44:
 1653 041f 72656164 		.ascii	"ready_list_t\000"
 1653      795F6C69 
 1653      73745F74 
 1653      00
 1654              	.LASF16:
 1655 042c 696E7433 		.ascii	"int32_t\000"
 1655      325F7400 
 1656              	.LASF81:
 1657 0434 77747365 		.ascii	"wtsemp\000"
 1657      6D7000
 1658              	.LASF91:
 1659 043b 6D757465 		.ascii	"mutex_t\000"
 1659      785F7400 
 1660              	.LASF2:
 1661 0443 756E7369 		.ascii	"unsigned char\000"
 1661      676E6564 
 1661      20636861 
 1661      7200
ARM GAS  /tmp/ccfvXp7H.s 			page 42


 1662              	.LASF9:
 1663 0451 5F5F7569 		.ascii	"__uint32_t\000"
 1663      6E743332 
 1663      5F7400
 1664              	.LASF60:
 1665 045c 76697274 		.ascii	"virtual_timers_list_t\000"
 1665      75616C5F 
 1665      74696D65 
 1665      72735F6C 
 1665      6973745F 
 1666              	.LASF55:
 1667 0472 76745F6E 		.ascii	"vt_next\000"
 1667      65787400 
 1668              	.LASF66:
 1669 047a 63685F73 		.ascii	"ch_system_t\000"
 1669      79737465 
 1669      6D5F7400 
 1670              	.LASF80:
 1671 0486 77747472 		.ascii	"wttrp\000"
 1671      7000
 1672              	.LASF89:
 1673 048c 6D5F6E65 		.ascii	"m_next\000"
 1673      787400
 1674              	.LASF1:
 1675 0493 7369676E 		.ascii	"signed char\000"
 1675      65642063 
 1675      68617200 
 1676              	.LASF6:
 1677 049f 73686F72 		.ascii	"short unsigned int\000"
 1677      7420756E 
 1677      7369676E 
 1677      65642069 
 1677      6E7400
 1678              	.LASF48:
 1679 04b2 725F6374 		.ascii	"r_ctx\000"
 1679      7800
 1680              	.LASF74:
 1681 04b8 73746B61 		.ascii	"stkalign_t\000"
 1681      6C69676E 
 1681      5F7400
 1682              	.LASF107:
 1683 04c3 6D61696E 		.ascii	"main\000"
 1683      00
 1684              	.LASF58:
 1685 04c8 76745F66 		.ascii	"vt_func\000"
 1685      756E6300 
 1686              	.LASF56:
 1687 04d0 76745F70 		.ascii	"vt_prev\000"
 1687      72657600 
 1688              	.LASF82:
 1689 04d8 77746D74 		.ascii	"wtmtxp\000"
 1689      787000
 1690              	.LASF78:
 1691 04df 65786974 		.ascii	"exitcode\000"
 1691      636F6465 
 1691      00
 1692              	.LASF99:
ARM GAS  /tmp/ccfvXp7H.s 			page 43


 1693 04e8 4C434B52 		.ascii	"LCKR\000"
 1693      00
 1694              		.comm	__gnu_lto_v1,1,1
 1695              		.ident	"GCC: (4.8.4-1+11-1) 4.8.4 20141219 (release)"
ARM GAS  /tmp/ccfvXp7H.s 			page 44


DEFINED SYMBOLS
                            *ABS*:0000000000000000 main.c
     /tmp/ccfvXp7H.s:164    .text.main:0000000000000000 $t
     /tmp/ccfvXp7H.s:170    .text.main:0000000000000000 main
     /tmp/ccfvXp7H.s:245    .text.main:0000000000000060 $d
                            *COM*:0000000000000001 __gnu_lto_v1
                     .debug_frame:0000000000000010 $d
     /tmp/ccfvXp7H.s:249    .text.main:0000000000000064 $t

UNDEFINED SYMBOLS
halInit
chSysInit
_pal_lld_setgroupmode
