ARM GAS  /tmp/cca4i599.s 			page 1


   1              		.cpu cortex-m0
   2              		.fpu softvfp
   3              		.eabi_attribute 20, 1
   4              		.eabi_attribute 21, 1
   5              		.eabi_attribute 23, 3
   6              		.eabi_attribute 24, 1
   7              		.eabi_attribute 25, 1
   8              		.eabi_attribute 26, 1
   9              		.eabi_attribute 30, 6
  10              		.eabi_attribute 34, 0
  11              		.eabi_attribute 18, 4
  12              		.code	16
  13              		.file	"main.c"
  14              		.text
  15              	.Ltext0:
  16              		.section	.gnu.lto_.inline.ca0ffbfe55d3c68d,"",%progbits
  17 0000 789C6362 		.ascii	"x\234cb`b\300\006\302\2404PVT\026H\3115\374bd`\201("
  17      6062C006 
  17      C2A03450 
  17      56541648 
  17      C935FC62 
  18 0018 66E10512 		.ascii	"f\341\005\022\214\014\206\337A\362:\017\2563\301$X\371"
  18      8C0C86DF 
  18      41F23A0F 
  18      AE33C124 
  18      58F9
  19 002a 8004330F 		.ascii	"\200\0043\017\214\000\253C\020\214\\0\202\001\000e\332"
  19      8C00AB43 
  19      108C5C30 
  19      82010065 
  19      DA
  20 003b 05D1     		.ascii	"\005\321"
  21              		.text
  22              		.section	.gnu.lto_prepareForSend.ca0ffbfe55d3c68d,"",%progbits
  23 0000 789C9D93 		.ascii	"x\234\235\223\277K\034A\024\307\337\233\231\375q{gr"
  23      BF4B1C41 
  23      14C7DF9B 
  23      99FD717B 
  23      6772
  24 0012 6D0804F1 		.ascii	"m\010\004\361\017\010\330\330\246Nw\004\205\244<\326"
  24      0F08D8D8 
  24      A64E7704 
  24      85A43CD6 
  25 0022 706C610A 		.ascii	"pla\012SZ8w\247 ^\212#U\210\215\026\001\011\242\355"
  25      535A3877 
  25      A7205E8A 
  25      2355888D 
  25      160109A2 
  26 0037 090ADB08 		.ascii	"\011\012\333\010\202\210\246\014\204\260\001-\202\011"
  26      8288A60C 
  26      84B0012D 
  26      8209
  27 0045 1C811008 		.ascii	"\034\201\020\010\301q\336\316\316\23696F\035\330wo\367"
  27      C171DECE 
  27      CE9E3936 
  27      461DD877 
  27      6FF7
ARM GAS  /tmp/cca4i599.s 			page 2


  28 0057 CDF7F37D 		.ascii	"\315\367\363}\373v\216\001\203\341u__\334\001\250\322"
  28      FB768E01 
  28      83E1755F 
  28      5FDC01A8 
  28      D2
  29 0068 8D00D43B 		.ascii	"\215\000\324;\220!\327\221#\352G\010\363\214\343\374"
  29      9021D791 
  29      23EA4708 
  29      F38CE3FC 
  30 0078 33CA2118 		.ascii	"3\312!\030\2035)_'{\235W\367\226W[]y\256\024FT\012\021"
  30      8335295F 
  30      277B9D57 
  30      F796575B 
  30      5D79AE14 
  31 0090 9EEA0C47 		.ascii	"\236\352\014G\323\037&\37661\262\370\363Im_.\304J=\272"
  31      D31F26FE 
  31      3631B2F8 
  31      F3496D5F 
  31      2EC44A3D 
  32 00a5 BEA67F0B 		.ascii	"\276\246\177\013\315\217\233k\344vR[\267\032>\320T\215"
  32      CD8F9B6B 
  32      E476525B 
  32      B71A3ED0 
  32      548D
  33 00b7 86156A36 		.ascii	"\206\025j6\327%_\225\177\224\342\021\212\201\3067\032"
  33      D7255F95 
  33      7F94E211 
  33      8A81C637 
  33      1A
  34 00c8 2CECED67 		.ascii	",\354\355g\262\277\206Z\333\354+u\367\006\355}\252\275"
  34      B2BF865A 
  34      DBEC2B75 
  34      F706ED7D 
  34      AABD
  35 00da B1ED5DD7 		.ascii	"\261\355]\327\352\327\255\254\342\217\337b\224\313V"
  35      EAD7ADAC 
  35      E28FDF62 
  35      94CB56
  36 00e9 E53008F0 		.ascii	"\3450\010\360?\343\330bq\242\324\316\273\343\007#\210"
  36      3FE3D862 
  36      71A2D4CE 
  36      BBE30723 
  36      88
  37 00fa 33A84F59 		.ascii	"3\250OY\035\337\343\030p\320\256\202\202C\301\3255\364"
  37      1DDFE318 
  37      70D0AE82 
  37      8243C1D5 
  37      35F4
  38 010c 28F375E0 		.ascii	"(\363u\340%\035D@\267e\312*\220\266\250\267.H\331\035"
  38      251D4440 
  38      B765CA2A 
  38      90B6A8B7 
  38      2E48D91D 
  39 0120 3584B465 		.ascii	"5\204\264e\275&\3238E\247\223\037\301b\2621Q\307\015"
  39      BD26D338 
  39      45A7931F 
  39      C162B231 
ARM GAS  /tmp/cca4i599.s 			page 3


  39      51C70D
  40 0133 74A0816C 		.ascii	"t\240\201l\016~\313%Y\215\320\015\321\314\241\201H]"
  40      0E7ECB25 
  40      598DD00D 
  40      D1CCA181 
  40      485D
  41 0145 7AE4EC03 		.ascii	"z\344\354\003\034B\253\327\353\3341\202\025x\333\224"
  41      1C42ABD7 
  41      EBDC3182 
  41      1578DB94 
  42 0155 528E4758 		.ascii	"R\216GX\312\266\231W\240\254D\371!\264;\355m\264x\236"
  42      CAB69957 
  42      A0AC44F9 
  42      21B43BED 
  42      6DB4789E 
  43 0169 ED62A6D6 		.ascii	"\355b\246\326\352u\275\002\020\037\002\365s\322nN\022"
  43      EA75BD02 
  43      101F02F5 
  43      73D26E4E 
  43      12
  44 017a 96C4AE22 		.ascii	"\226\304\256\"\211!R\325\202\276\344 \307\202\270\001"
  44      892152D5 
  44      82BEE420 
  44      C782B801 
  45 018a 1D14829C 		.ascii	"\035\024\202\234\001\250\201n\0069\315!\236\205\010"
  45      01A8816E 
  45      0639CD21 
  45      9E8508
  46 0199 63B0D99E 		.ascii	"c\260\331\236\265%_\0175\235\237o\370g\334V4\326\314"
  46      B5255F0F 
  46      359D9F6F 
  46      F867DC56 
  46      34D6CC
  47 01ac F37181A1 		.ascii	"\363q\201\241w\331\260\224\031~\315\015\003k\350d\324"
  47      77D9B094 
  47      197ECD0D 
  47      036BE864 
  47      D4
  48 01bd 8161B941 		.ascii	"\201a\271A\337\365\037\330\3402\266\234a\277\347\330"
  48      DFF51FD8 
  48      E032B69C 
  48      61BFE7D8 
  49 01cd 8AC5BA57 		.ascii	"\212\305\272WM\26524U{\360\247\350\257\316\017\240\251"
  49      4DB53234 
  49      557BF0A7 
  49      E8AFCE0F 
  49      A0A9
  50 01df 5F6B9A9A 		.ascii	"_k\232\232\370\000\315dG\030\202]\223t\254\350\243y"
  50      F800CD64 
  50      4718825D 
  50      9374ACE8 
  50      A379
  51 01f1 33F5E8C5 		.ascii	"3\365\350\305\303\020\334p6|\362\374\345\005\267\211"
  51      C310DC70 
  51      367CF2FC 
  51      E505B789 
  52 0201 1AA0     		.ascii	"\032\240"
ARM GAS  /tmp/cca4i599.s 			page 4


  53              		.text
  54              		.section	.gnu.lto_main.ca0ffbfe55d3c68d,"",%progbits
  55 0000 789CCD55 		.ascii	"x\234\315U]h\034U\024\276\347\336\231\235\331I6\273"
  55      5D681C55 
  55      14BEE7DE 
  55      999DD949 
  55      36BB
  56 0012 D924DB56 		.ascii	"\331$\333Vk,y\264\022\264\212\372\342\017\370\344\223"
  56      6B2C79B4 
  56      12B48AFA 
  56      E20FF8E4 
  56      93
  57 0023 8209FEBC 		.ascii	"\202\011\376\274m\227\022\246\032\033J\251`\037r\223"
  57      6D9712A6 
  57      1A1B4AA9 
  57      601F7293 
  58 0033 5D6B288A 		.ascii	"]k(\212\253 \015\0064\373P\214\"1\024-+A:\015\010\331"
  58      AB200D06 
  58      34FB508C 
  58      2231142D 
  58      2B413A0D 
  59 0049 875811A4 		.ascii	"\207X\021\244\365\311\365E\020[h\353\203\265\024\307"
  59      F5C9F545 
  59      105B68EB 
  59      83B514C7 
  60 0059 73EE9D3B 		.ascii	"s\356\235;\273\235,:\355\223\027\346\234\331s\316\367"
  60      BB9D2C3A 
  60      ED9317E6 
  60      9CD973CE 
  60      F7
  61 006a 9D33E79E 		.ascii	"\2353\347\236{\2273\316\222\353i||\217\261\307\351\207"
  61      7B9733CE 
  61      92EB697C 
  61      7C8FB1C7 
  61      E987
  62 007c CB002380 		.ascii	"\313\000#\200\203@)\270\305\230\344\016\012\313\202"
  62      834029B8 
  62      C598E40E 
  62      0ACB82
  63 008b 0C5A6C25 		.ascii	"\014Zl%3\334\216\355\216\212\0046\313\205eg\034\230"
  63      33DC8EED 
  63      8E8A0436 
  63      CB856567 
  63      1C98
  64 009d 7D0988A7 		.ascii	"}\011\210\2474\306\032R\276\337\376\366\302\273\273"
  64      34C61A52 
  64      BEDFFEF6 
  64      C2BBBB
  65 00ac 4E2CCFD7 		.ascii	"N,\317\327\345\337a\010>\271*\300^\3047\330\243\024"
  65      E5DF6108 
  65      3EB92AC0 
  65      5EC437D8 
  65      A314
  66 00be 65E85E1A 		.ascii	"e\350^\032&O\257\310\354\262\274\031\206\302'\376T\230"
  66      264FAFC8 
  66      ECB2BC19 
  66      86C227FE 
ARM GAS  /tmp/cca4i599.s 			page 5


  66      5498
  67 00d0 F5F6732B 		.ascii	"\365\366s+\262\026\204\341\223>X\035LAcx/Lp\366\257"
  67      B21684E1 
  67      933E581D 
  67      4C416378 
  67      2F4C70F6 
  68 00e5 6603E471 		.ascii	"f\003\344q9w%\014\363>\330\035\230\253a\3203\325\352"
  68      3977250C 
  68      F33ED81D 
  68      98AB61D0 
  68      33D5EA
  69 00f8 8A14A6BC 		.ascii	"\212\024\246\274\224\230\340\373_n\273<\271\266\"m\223"
  69      9498E0FB 
  69      5F6EBB3C 
  69      B9B6226D 
  69      93
  70 0109 272DE64E 		.ascii	"'-\346Nj\373\341\177[[=\270\372\323\333^}nA\206\341"
  70      6AFBE17F 
  70      5B5B3DB8 
  70      FAD3DB5E 
  70      7D6E4186 
  71 011e AC8F93C7 		.ascii	"\254\217\223\307<H3\016u\034\241\371x\204\0206\320\023"
  71      3C48330E 
  71      751CA1F9 
  71      78841036 
  71      D013
  72 0130 46B1B5F7 		.ascii	"F\261\265\367\202\257>m\001\226\027M\201\303Y\361\277"
  72      82AF3E6D 
  72      0196174D 
  72      81C359F1 
  72      BF
  73 0141 9224ABFC 		.ascii	"\222$\253\374\371j\253\321E\201\011\207\357\254\316"
  73      F96AABD1 
  73      45810987 
  73      EFACCE
  74 0150 9DFF5A67 		.ascii	"\235\377Zg#Q\347\356\333\256\363T\262\316\321Tu.\006"
  74      2351E7EE 
  74      DBAEF354 
  74      B2CED154 
  74      752E06
  75 0163 7FB6BAF6 		.ascii	"\177\266\272\366\301Mw&\203\017.\007 O\230lY\316\306"
  75      C14D7726 
  75      830F2E07 
  75      204F986C 
  75      59CEC6
  76 0176 20DDC13C 		.ascii	" \335\301<\371[\263\353\\z\234\335\017)\306%\250\007"
  76      F95BB3EB 
  76      5C7A9CDD 
  76      0F29C625 
  76      A807
  77 0188 8BF6A299 		.ascii	"\213\366\242\231\344>\316\036\355\240\036\323(\347V"
  77      E43ECE1E 
  77      EDA01ED3 
  77      28E756
  78 0197 5419CEC0 		.ascii	"T\031\316\300\030\3125\224_\360\240\035\2067?\251?\261"
  78      18CA3594 
  78      5FF0A01D 
ARM GAS  /tmp/cca4i599.s 			page 6


  78      86373FA9 
  78      3FB1
  79 01a9 03D0B48E 		.ascii	"\003\320\264\216&\216\372\033\324\202\341\335e\241\020"
  79      268EFA1B 
  79      D482E1DD 
  79      65A110
  80 01b8 360A2B13 		.ascii	"6\012+\023\271\035\374a\273$\262Q\240G\356>\022\375"
  80      B91DFC61 
  80      BB24B251 
  80      A047EE3E 
  80      12FD
  81 01ca 64CE45E6 		.ascii	"d\316E\346\001\262\344I\024\310<\030\231\213\250\233"
  81      01B2E449 
  81      14C83C18 
  81      998BA89B 
  82 01da A887507F 		.ascii	"\250\207P\177\216z\030\365*\352\021\324\247Q\227P\177"
  82      8E7A18F5 
  82      2AEA11D4 
  82      A7519750 
  82      7F
  83 01eb 891A97CD 		.ascii	"\211\032\227\315j\270\177{t^\215.\303Y%;_\240v\005\327"
  83      6AB87F7B 
  83      745E8D2E 
  83      C359253B 
  83      5FA07605 
  84 0200 84929374 		.ascii	"\204\222\223t\225\213\363\254\332\336\334W\206st\342"
  84      958BF3AC 
  84      DADEDC57 
  84      867374E2 
  85 0210 D8317643 		.ascii	"\3301vC.\310\202\017\375\025\320\015\364!\307\030\005"
  85      2EC8820F 
  85      FD15D00D 
  85      F421C718 
  85      05
  86 0221 B51EE915 		.ascii	"\265\036\351\025\304;A[l\276\271Y\324AS\000\324\316"
  86      C43B415B 
  86      6CBEB959 
  86      D4415300 
  86      D4CE
  87 0233 2C39CFB3 		.ascii	",9\317\263\343\355-o\033x\240BW7.\012dR\312\300R\257"
  87      E3ED2D6F 
  87      1B78A042 
  87      57372E0A 
  87      6452CAC0 
  88 0249 F93F724A 		.ascii	"\371?rJ\027\236B\332A\015\377\316J\015\027Z\025\346"
  88      179E42DA 
  88      410DFFCE 
  88      4A0D175A 
  88      15E6
  89 025b 21862F3F 		.ascii	"!\206/?\233\036\355&\321o\266/n\357N\261\002z\240\311"
  89      9B1EED26 
  89      D16FB62F 
  89      6EEF4EB1 
  89      027AA0C9 
  90 026f E2FA3034 		.ascii	"\342\37204M\023\241\202\010>L\035\031\321\0234I\211"
  90      4D13A182 
  90      083E4C1D 
ARM GAS  /tmp/cca4i599.s 			page 7


  90      19D11334 
  90      4989
  91 0281 04F5A679 		.ascii	"\004\365\246y2o\232\303)\312#79.^\210\035\242\253\036"
  91      326F9AC3 
  91      29CA2337 
  91      392E5E88 
  91      1DA2AB1E 
  92 0295 726EBC6C 		.ascii	"rn\274l<\326^\366\231\254\241\267\264\304>D\265\303"
  92      3CD65EF6 
  92      99ACA1B7 
  92      B4C43E44 
  92      B5C3
  93 02a7 04ABB53F 		.ascii	"\004\253\265?\236v$\374\275z\324\240\354)*t\213U\327"
  93      9E7624FC 
  93      BD7AD4A0 
  93      EC292A74 
  93      8B55D7
  94 02ba 853165D0 		.ascii	"\2051e\320\252\366\006\373\034\205\207\327\300x\235"
  94      AAF606FB 
  94      1C8587D7 
  94      C0789D
  95 02c9 29FA0BBF 		.ascii	")\372\013\277\005\340\242U\325+T|\365\353\330\223UN"
  95      05E0A255 
  95      D52B547C 
  95      F5EBD893 
  95      554E
  96 02db AEE3AB8D 		.ascii	"\256\343\253\215\330\356!\011!\254+\240!\253\261\253"
  96      D8EE2109 
  96      21AC2BA0 
  96      21ABB1AB 
  97 02eb 0FBDE472 		.ascii	"\017\275\344ry\224<\366\364\2433\301\237S\326l\304\177"
  97      79943CF6 
  97      F4A333C1 
  97      9F53D66C 
  97      C47F
  98 02fd 2AB60F18 		.ascii	"*\266\017\030~\331\237\344\317\243W\361\213$\177\001"
  98      7ED99FE4 
  98      CFA357F1 
  98      8B247F01 
  99 030d 9D09FE41 		.ascii	"\235\011\376Ae\3056l\262\332\245s?\216\304vb\260\273"
  99      65C5366C 
  99      B2DAA573 
  99      3F8EC476 
  99      62B0BB
 100 0320 EF81496A 		.ascii	"\357\201Ij\243\240i\2704\261m\032vV\242`\262\340z\301"
 100      A3A069B8 
 100      34B16D1A 
 100      7656A260 
 100      B2E07AC1 
 101 0334 875DE6F0 		.ascii	"\207]\346\360\251Pd\364\341.\232\246\267\332\227\335"
 101      A95064F4 
 101      E12E9AA6 
 101      B7DA97DD 
 102 0344 6DF8BB2B 		.ascii	"m\370\273+\324\363\3164\355\336\313\356\363\341\036"
 102      D4F3CE34 
 102      EDDECBEE 
 102      F3E11E
ARM GAS  /tmp/cca4i599.s 			page 8


 103 0353 9CA9FDD1 		.ascii	"\234\251\375\321!\214 \307\330\033Ij\252t\324Q\312\302"
 103      218C20C7 
 103      D81B496A 
 103      AA74D451 
 103      CAC2
 104 0365 FF089CBB 		.ascii	"\377\010\234\273{\325\3344\257/\345t\210\276\000(\300"
 104      7BD5DC34 
 104      AF2FE574 
 104      88BE0028 
 104      C0
 105 0376 E97C8DAD 		.ascii	"\351|\215\255fr\243\265\370Q\334\214!sG`\213\026b\353"
 105      6672A3B5 
 105      F851DC8C 
 105      21734760 
 105      8B1662EB 
 106 038a 303A1456 		.ascii	"0:\024V\357\344\3063\206\224b\247h\322\211\346\372\322"
 106      EFE4C633 
 106      869462A7 
 106      68D289E6 
 106      FAD2
 107 039c A8018CE8 		.ascii	"\250\001\214\350|\011\232\022:z\322\234Q4%SW&\252k\315"
 107      7C099A12 
 107      3A7AD29C 
 107      51342553 
 107      5726AA6B 
 108 03b1 33C8A2E1 		.ascii	"3\310\242\341\303=\372u.\033\233\025\333\307\357d\272"
 108      C33DFA75 
 108      2E1B9B15 
 108      DBC7EF64 
 108      BA
 109 03c2 366982BE 		.ascii	"6i\202\276PLD=c\316t\331\177m\274\302\304\301\361\007"
 109      504C443D 
 109      63CE74D9 
 109      7F6DBCC2 
 109      C4C1F107 
 110 03d6 F079100E 		.ascii	"\360y\020\016\012\177|\037>\017\201\217\362\341\354"
 110      0A7F7C1F 
 110      3E0F818F 
 110      F2E1EC
 111 03e5 E1F2EBCF 		.ascii	"\341\362\353\317\227\247g^=\340\315\034:|D\277ff\312"
 111      97A7675E 
 111      3DE0CD1C 
 111      3A7C44BF 
 111      6666CA
 112 03f8 95570E1C 		.ascii	"\225W\016\034\371\007\362\012U\217"
 112      F907F20A 
 112      558F
 113              		.text
 114              		.section	.gnu.lto_.symbol_nodes.ca0ffbfe55d3c68d,"",%progbits
 115 0000 789C45C8 		.ascii	"x\234E\310\273\015\302@\020\204\341\231]\237M\027\324"
 115      BB0DC240 
 115      1084E199 
 115      5D9F4D17 
 115      D4
 116 0011 462563E1 		.ascii	"F%c\341\304\021\"\341\015\321\225\342\234\0109\006\221"
 116      C41122E1 
 116      0DD195E2 
ARM GAS  /tmp/cca4i599.s 			page 9


 116      9C083906 
 116      91
 117 0022 5203C23A 		.ascii	"R\003\302:\237\270M\276\375\307`\030\220\317v\024\260"
 117      9FB84DBE 
 117      FDC76018 
 117      90CF7614 
 117      B0
 118 0033 BD03D2A3 		.ascii	"\275\003\322\243_\331\236b\316\261g\270r\372\300\003"
 118      5FD99E62 
 118      CEB167B8 
 118      72FAC003 
 119 0043 65F3DAB6 		.ascii	"e\363\332\266\344\215\362R\027\252*u\246B\251\023U\227"
 119      E48DF252 
 119      17AA2A75 
 119      A642A913 
 119      5597
 120 0055 3A52CDBF 		.ascii	":R\315\277\034\216\356\371\245s\221m\020\2235\336\331"
 120      1C8EEEF9 
 120      A573916D 
 120      109335DE 
 120      D9
 121 0066 EE351B93 		.ascii	"\3565\033\223\001C\022Xo>Kg\2058\211\037<\275:\024"
 121      01431258 
 121      6F3E4B67 
 121      8538891F 
 121      3CBD3A14 
 122              		.text
 123              		.section	.gnu.lto_.refs.ca0ffbfe55d3c68d,"",%progbits
 124 0000 789C6362 		.ascii	"x\234cb`b`g\200\000&F& `\000\000\000\364\000\027"
 124      60626067 
 124      80002646 
 124      26206000 
 124      0000F400 
 125              		.text
 126              		.section	.gnu.lto_.decls.ca0ffbfe55d3c68d,"",%progbits
 127 0000 789CBD5C 		.ascii	"x\234\275\\{t\024U\232\257G?\322$\006\3069\272\314\236"
 127      7B741455 
 127      9AAF473F 
 127      D22406C6 
 127      39BACC9E 
 128 0014 D9B567CF 		.ascii	"\331\265g\317\270\3138j\002\270\256\263\347\214\312"
 128      B8CB386A 
 128      02B8AEB3 
 128      E78CCA
 129 0023 10546641 		.ascii	"\020TfA\230$8\353\037s\332\242S$\255Iw\247\273\302c"
 129      982438EB 
 129      1F73DAA2 
 129      5324AD49 
 129      77A7BBC2 
 130 0038 CE9EB508 		.ascii	"\316\236\265\010\020Qy\344%\004I \020\302\001\207Qy"
 130      105179E4 
 130      25044920 
 130      10C20187 
 130      5179
 131 004a A3207470 		.ascii	"\243 tp\011\317!H\020\220\000\011\203\242\214\342\021"
 131      09CF2148 
 131      10900009 
ARM GAS  /tmp/cca4i599.s 			page 10


 131      83A28CE2 
 131      11
 132 005b C32BA264 		.ascii	"\303+\242d\277\373UUwU\245\252\273\252\321\251s\356"
 132      BFFB5555 
 132      7755A5AA 
 132      BBAAD1A9 
 132      73EE
 133 006d 578FBEF7 		.ascii	"W\217\276\367w\277\357\273\337\375\356w\037\011C1T)"
 133      77BFEFBB 
 133      DFFDEE77 
 133      1F094331 
 133      5429
 134 007f 4D51FD70 		.ascii	"MQ\375p=\364[\212\372\334MQ,EQ\217R\211+\003\322\012"
 134      3DF45B8A 
 134      FADC4D51 
 134      2C45518F 
 134      52892B03 
 135 0095 481B216D 		.ascii	"H\033!m\201\264\013\322<(\223\313PT1\244\347!\301+U"
 135      81B40BD2 
 135      3C2893CB 
 135      505431A4 
 135      E721C12B 
 136 00aa CA509A8B 		.ascii	"\312P\232\213\224\031\004i\025\244lHY\224\204M\362\316"
 136      94190469 
 136      15A46C48 
 136      5994844D 
 136      F2CE
 137 00bc 011284FC 		.ascii	"\001\022\204\374\016x\336\012\251U.\303\310\345\266"
 137      0E78DE0A 
 137      A9552EC3 
 137      C8E5B6
 138 00cb C879DF84 		.ascii	"\310y\337\204\3646\244\220\016\233\360\342\205\364\007"
 138      F436A490 
 138      0E9BF0E2 
 138      85F407
 139 00da 2681ED56 		.ascii	"&\201\355V\341\273 \205e|R\027\301\217\302{\005\244"
 139      E1BB2085 
 139      657C5217 
 139      C18FC27B 
 139      05A4
 140 00ec 12485321 		.ascii	"\022HS!\371 \371!\015\2074\015\322B\310\347\205\373"
 140      F920F921 
 140      0D87340D 
 140      D242C8E7 
 140      85FB
 141 00fe 7CB8D370 		.ascii	"|\270\323p\177\010\322tH3 \255\204\362\177\204\373\036"
 141      7F08D274 
 141      483320AD 
 141      84F27F84 
 141      FB1E
 142 0110 B8B7436A 		.ascii	"\270\267Cj\203\024\223\371\035\005\3442-\325O\370z^"
 142      831493F9 
 142      1D05E432 
 142      2DD54FF8 
 142      7A5E
 143 0122 D60BD10F 		.ascii	"\326\013\321\017\321\323\012YgF:\272\207Z&\306\216\364"
 143      D1D30A59 
ARM GAS  /tmp/cca4i599.s 			page 11


 143      67463ABA 
 143      875A26C6 
 143      8EF4
 144 0134 EC39B0E0 		.ascii	"\3549\260\340'bse\254\277\177\327\343\324\335\324k\""
 144      27627365 
 144      ACBF7FD7 
 144      E3D4DDD4 
 144      6B22
 145 0146 5CCD55A2 		.ascii	"\\\315U\242H\013\034\375\350]\324\177\323\034\235\355"
 145      480B1CFD 
 145      E85DD47F 
 145      D31C9DED 
 146 0156 0181C943 		.ascii	"\001\201\311C\226\007\245\242(\216^I\337\215O,\362A"
 146      9607A5A2 
 146      288E5E49 
 146      DF8D4F2C 
 146      F241
 147 0168 6552AF88 		.ascii	"eR\257\210b%)\370\324>\310>\227\274\364\264\212C\033"
 147      622529F8 
 147      D43EC83E 
 147      97BCF4B4 
 147      8A431B
 148 017b 40433244 		.ascii	"@C2D\206\002A\230\271\227Z%\212\325=\233?;\305\210b"
 148      86024198 
 148      B9975A25 
 148      8AD53D9B 
 148      3F3BC588 
 149 0190 0647B7D2 		.ascii	"\006G\267\322\036\000\032FS\367Qk\201\201j(\377\217"
 149      1E001A46 
 149      53F7516B 
 149      81816A28 
 149      FF8F
 150 01a2 D4C0CB3A 		.ascii	"\324\300\313:r\367\3256\026\221\327\"2O\003\317k\350"
 150      72F7D536 
 150      1691D722 
 150      324F03CF 
 150      6BE8
 151 01b4 FB641C8E 		.ascii	"\373d\034\216\206\257\252\013\337\225\014\004\014\177"
 151      86AFAA0B 
 151      DF950C04 
 151      0C7F
 152 01c2 961FFA69 		.ascii	"\226\037\372i\312V^3\225\255\2423\025\014Yk\222\334"
 152      CA565E33 
 152      95ADA233 
 152      150C596B 
 152      92DC
 153 01d4 F830898D 		.ascii	"\3700\211\215W\300P!-\267?\247ZD\261\026Zj5\264\024"
 153      57C05021 
 153      2DB73FA7 
 153      5A44B116 
 153      5A6A35B4 
 154 01e9 230131D4 		.ascii	"#\0011\324\377\222L+\350{\014\353\223k\223J\212]\177"
 154      FF924C2B 
 154      E87B0CEB 
 154      936B934A 
 154      8A5D7F
 155 01fc 18AAA878 		.ascii	"\030\252\250x\016\255+\246Q^\234\241\177\245Z\211!l"
ARM GAS  /tmp/cca4i599.s 			page 12


 155      0EAD2BA6 
 155      515E9CA1 
 155      7FA55A89 
 155      216C
 156 020e 17270E45 		.ascii	"\027'\016E3\240\344B\032=\374\231\326\230\0241\250\346"
 156      33A0E442 
 156      1A3DFC99 
 156      D6981431 
 156      A8E6
 157 0220 58ECBB63 		.ascii	"X\354\273cY\3253{\372\373\227{u\326\344\360\230\252"
 157      59D5337B 
 157      FAFB977B 
 157      75D6E4F0 
 157      98AA
 158 0232 66936C4D 		.ascii	"f\223lM\011=p\3643\214F\011q\2366\254\021=\010F2m4\221"
 158      093D70F4 
 158      338C4609 
 158      719E36AC 
 158      113D0846 
 159 024a 3F81A163 		.ascii	"?\201\241c\260\247\272g\343\201\277\224/\021w\317\026"
 159      B0A7BA67 
 159      E381BF94 
 159      2F1177CF 
 159      16
 160 025b FBFB5FD4 		.ascii	"\373\373_\324Z\274l^b\2258lM\302\274\206(\300L\334\274"
 160      5ABC6C5E 
 160      6295386C 
 160      4DC2BC86 
 160      28C04CDC 
 161 0270 62EF7C42 		.ascii	"b\357|B{9z\033\252\264\232\326\033\027\2533.Vk0\254"
 161      7B397A1B 
 161      AAB49AD6 
 161      1B17AB33 
 161      2E566B30 
 162 0285 27F1D0DF 		.ascii	"'\361\320\337\317\232[\314\326$\235\014\315\315\254"
 162      CF9A5BCC 
 162      D6249D0C 
 162      CDCDAC
 163 0294 E00E0353 		.ascii	"\340\016\003Ss\030YZ\275\216w\205\343\235\003\233\026"
 163      7318595A 
 163      BD8E7785 
 163      E39D039B 
 163      16
 164 02a5 34D777E0 		.ascii	"4\327w\340R+]3\253y\237\370U\177\377`C\335I\314\031"
 164      522B5D33 
 164      AB799FF8 
 164      557FFF60 
 164      43DD49CC 
 165 02ba 8B2477CD 		.ascii	"\213$w\315\255\013\216\367\322\240e\370\241\015\025"
 165      AD0B8EF7 
 165      D2A065F8 
 165      A10D15
 166 02c9 F8ED0005 		.ascii	"\370\355\000\005:u\012tj\025\350\364$\036\310\3601\330"
 166      3A750A74 
 166      6A15E8F4 
 166      241EC8F0 
 166      31D8
ARM GAS  /tmp/cca4i599.s 			page 13


 167 02db 5C85B124 		.ascii	"\\\205\261$*\274\223\252!\374{U\37463\012\300\317\023"
 167      2ABC93AA 
 167      21FC7B55 
 167      FC36330A 
 167      C0CF13
 168 02ee 0CF71DB8 		.ascii	"\014\367\035\270\362\276\314p;}'\000\315b\264\014[\004"
 168      F2BECC70 
 168      3B7D2700 
 168      CD62B40C 
 168      5B04
 169 0300 8AED42AB 		.ascii	"\212\355B\253\331\217\030\265v1\030\252\011\213\034"
 169      D98F18B5 
 169      763118AA 
 169      098B1C
 170 030f 82E25241 		.ascii	"\202\342RAD\025c5UY\242C\372N\0314\246|\375\214j&\231"
 170      44156335 
 170      5559A243 
 170      FA4E1934 
 170      A67CFD8C 
 171 0326 EBDA1B69 		.ascii	"\353\332\033i\261y7mP\335\343Jm\031\011\321\233\352"
 171      B179376D 
 171      50DDE34A 
 171      6D1909D1 
 171      9BEA
 172 0338 8ED5D0B3 		.ascii	"\216\325\320\263Q\364#\310\3661c\266\233\0377\003b\250"
 172      51F423C8 
 172      F63163B6 
 172      9B1F3703 
 172      62A8
 173 034a 8FB148A7 		.ascii	"\217\261H\247\216\355\236\256\023\327+\351\231\010\335"
 173      8EED9EAE 
 173      13D72BE9 
 173      9908DD
 174 0359 6981F5CA 		.ascii	"i\201\365\312\330\345W\233~BXO\325\206\"\253\324\237"
 174      D8E5579B 
 174      7E42584F 
 174      D58622AB 
 174      D49F
 175 036b 9B10A4B1 		.ascii	"\233\020\244\261\3631\242\244\223(\304r6\245\356\265"
 175      F331A2A4 
 175      9328C472 
 175      36A5EEB5 
 176 037b 200CB506 		.ascii	" \014\265\006\213t\015\020b\361\236Y\262\020]\226\204"
 176      8B740D10 
 176      62F19E59 
 176      B2105D96 
 176      84
 177 038c 58BC4012 		.ascii	"X\274@\022\202\243O\240\027\337\020\3075\262`\371Q\272"
 177      82A34FA0 
 177      17DF10C7 
 177      35B260F9 
 177      51BA
 178 039e E40C5ABC 		.ascii	"\344\014Z\274\327\017gUs\012\330;\266\301\274\032\260"
 178      D70F6755 
 178      730AD83B 
 178      B6C1BC1A 
 178      B0
ARM GAS  /tmp/cca4i599.s 			page 14


 179 03af E5871B91 		.ascii	"\345\207\033\2219\353}\271f\331\377}@\317B\371\317c"
 179      39EB7DB9 
 179      66D9FF7D 
 179      40CF42F9 
 179      CF63
 180 03c1 5FBEA553 		.ascii	"_\276\245S\255u\250\315k\346\335\217#\366\005\004\252"
 180      AD75A8CD 
 180      6BE6DD8F 
 180      23F60504 
 180      AA
 181 03d2 72A40BD4 		.ascii	"r\244\013\324\335:\357W\010t\021\201\026:\364\336\305"
 181      DD3AEF57 
 181      08741181 
 181      163AF4DE 
 181      C5
 182 03e3 ADF32E6E 		.ascii	"\255\363.n\255wq{\022\017\262w\371a\2633\324\353\016"
 182      AD77717B 
 182      120FB277 
 182      F961B333 
 182      D4EB0E
 183 03f6 0B0D9761 		.ascii	"\013\015\227af\005b\317\251\305\207\330%bl6\253tG\227"
 183      660562CF 
 183      A9C587D8 
 183      25626C36 
 183      AB744797 
 184 040a 998E186A 		.ascii	"\231\216\030j\005\326\365\245\336\2227\236\337\367\213"
 184      05D6F5A5 
 184      DE92379E 
 184      DFF78B
 185 0419 06511C22 		.ascii	"\006Q\034\"\375\224\332\2207\037Xl\2517\352\235\330"
 185      FD94DA90 
 185      371F586C 
 185      A937EA9D 
 185      D8
 186 042a 49ACBE57 		.ascii	"I\254\276W_\375\222O{\356\227\252\357\265T\375\322\203"
 186      5FFD924F 
 186      7BEE97AA 
 186      EFB554FD 
 186      D283
 187 043c F503AB37 		.ascii	"\365\003\2537\215Xe\313\330x\376\263\237.\307J\256c"
 187      8D5865CB 
 187      D878FEB3 
 187      9F2EC74A 
 187      AE63
 188 044e 7F59ECD4 		.ascii	"\177Y\354\324\233\306c\231\352\272\360]\225\201\241"
 188      9BC66399 
 188      EABAF05D 
 188      9581A1
 189 045d 9A9D0AF7 		.ascii	"\232\235\012\367iuW\020\363\253\373\327n\020\305\227"
 189      69755710 
 189      F3ABFBD7 
 189      6E10C597 
 190 046d 5D0A0F2D 		.ascii	"]\012\017-\266\021\275\032E,;\210\016@\002[m\005\314"
 190      B611BD1A 
 190      452C3B88 
 190      0E40025B 
 190      6D05CC
ARM GAS  /tmp/cca4i599.s 			page 15


 191 0480 D48E2A63 		.ascii	"\324\216*co\253\301\336\260\015\246\345l\203\032\354"
 191      6FABC1DE 
 191      B00DA6E5 
 191      6C831AEC 
 192 0490 4D2B6043 		.ascii	"M+`C\3149\333\244\006[o\033L\313\331\0265\330&+`C\315"
 192      CC39DBA4 
 192      065B6F1B 
 192      4CCBD916 
 192      35D8262B 
 193 04a7 39DBA606 		.ascii	"9\333\246\006\333j\033L\313\331\273j\260w\255\200y\015"
 193      DB6A1B4C 
 193      CBD9BB6A 
 193      B077AD80 
 193      790D
 194 04b9 388B5F66 		.ascii	"8\213_fQ\321\327\211\370\220\241\336s*\016\301\246M"
 194      51D1D789 
 194      F890A1DE 
 194      732A0EC1 
 194      A64D
 195 04cb 53098C36 		.ascii	"S\011\2146\247]\007\246\221\033\306\321\277\264\320"
 195      A75D07A6 
 195      911BC6D1 
 195      BFB4D0
 196 04da 75B3C47D 		.ascii	"u\263\304}\271\312X\266\327\012b\022\203\331\242\036"
 196      B9CA58B6 
 196      D70A6212 
 196      83D9A21E 
 197 04ea 183B6C83 		.ascii	"\030;l\203i\233\345\030\0013\236\343\306\222\317D\311"
 197      699BE518 
 197      01339EE3 
 197      C692CF44 
 197      C9
 198 04fb 5496514D 		.ascii	"T\226QM[\207\032\347\345\350z\346^\240\2571\2368\027"
 198      5B871AE7 
 198      E5E87AE6 
 198      5EA0AF31 
 198      9E3817
 199 050e D2B3F244 		.ascii	"\322\263\362Df\226\014u\302\251\235\214\306\257TE\315"
 199      66960C75 
 199      C2A99D8C 
 199      C6AF5445 
 199      CD
 200 051f 2CA19651 		.ascii	",\241\226QY\302i+jJ\322\025n\036n\374\007\261'F[\237"
 200      59C2692B 
 200      6A4AD215 
 200      6E1E6EFC 
 200      07B12746 
 201 0535 A6D79CDD 		.ascii	"\246\327\234\335\371k\034\253\2270d\254>?\300!\267\332"
 201      F96B1CAB 
 201      973064AC 
 201      3E3FC021 
 201      B7DA
 202 0547 9CA833D4 		.ascii	"\234\2503\324\027z!4\365\246\354\202\020\227~\\G\367"
 202      177A2134 
 202      F5A6EC82 
 202      10977E5C 
 202      47F7
ARM GAS  /tmp/cca4i599.s 			page 16


 203 0559 568A0DB9 		.ascii	"V\212\015\2716\304X&\213\261\014\305\270\362=\210\361"
 203      36C45826 
 203      8BB10CC5 
 203      B8F23D88 
 203      F1
 204 056a AD6D3186 		.ascii	"\255m1\206\251\304 \341\365\225z\251G\375\230\252M\036"
 204      A9C420E1 
 204      F5957AA9 
 204      47FD98AA 
 204      4D1E
 205 057c 13107E5A 		.ascii	"\023\020~Z\230\037kg\025W;\310\\\205|\2660\2518\252"
 205      981F6B67 
 205      15573BC8 
 205      5C857CB6 
 205      30A938AA 
 206 0590 8A1B454B 		.ascii	"\212\033EKq\343\331x\334\270\032U6\333e\020\356Y\201"
 206      71E3D978 
 206      DCB81A55 
 206      36DB6510 
 206      EE5981
 207 05a3 6ADEBC8E 		.ascii	"j\336\274\2160\272\026Q^I\027\245\247\373\273\367\245"
 207      30BA1651 
 207      5E4917A5 
 207      A7FBBBF7 
 207      A5
 208 05b4 F5A27508 		.ascii	"\365\242u\010T\353\322\267\240K\327\200.m\003\302+\251"
 208      54EBD2B7 
 208      A04BD780 
 208      2E6D03C2 
 208      2BA9
 209 05c6 E90609E9 		.ascii	"\351\006\011\351\350\027\345/\344\305M\375\335\3131"
 209      E817E52F 
 209      E4C54DFD 
 209      DDCB31
 210 05d5 5423B24F 		.ascii	"T#\262O\032/\2350\205Lk\016\325+\356Xj\237\226\333B"
 210      1A2F9D30 
 210      854C6B0E 
 210      D52BEE58 
 210      6A9F96DB 
 211 05ea AC8CEDAA 		.ascii	"\254\214\355\252U\346=\217\021\207\274\3566\341N\037"
 211      55E63D8F 
 211      1187BCEE 
 211      36E14E1F 
 212 05fa D53B645D 		.ascii	"\325;d] x\322\304\211\305\347\265\355m\362\224~\013"
 212      2078D2C4 
 212      89C5E7B5 
 212      ED6DF294 
 212      7E0B
 213 060c 4318DA38 		.ascii	"C\030\3328\240\301O\320\272X\220|Pe1\353I\233\325\036"
 213      A0C14FD0 
 213      BA58907C 
 213      506531EB 
 213      499BD51E 
 214 0620 B5FDF6E4 		.ascii	"\265\375\366\344\204\206\350^%5D\2528\3739\005-\013"
 214      8486E85E 
 214      253544AA 
 214      38FB3905 
ARM GAS  /tmp/cca4i599.s 			page 17


 214      2D0B
 215 0632 2B3E8415 		.ascii	"+>\204\025\357`tav\357\265\236*Yn\362[\352\256\335\365"
 215      EF607461 
 215      76EFB59E 
 215      2A596EF2 
 215      5BEAAEDD 
 216 0647 8947ACCD 		.ascii	"\211G\254\315Rf\377\225n\005U\256U3\325OiW\261\263\374"
 216      5266FF95 
 216      6E0555AE 
 216      5533D54F 
 216      6957B1B3 
 217 065c BE5C3B4E 		.ascii	"\276\\;N\242]q\022\273\245\356\355\3267\322Z&\375n\311"
 217      A25D7112 
 217      BBA5EEED 
 217      D637D25A 
 217      26FD6EC9 
 218 0670 50D57A71 		.ascii	"P\325zq\254\206\313\361\313\314\010\266\253\215`\221"
 218      AC86CBF1 
 218      CBCC08B6 
 218      AB8D6091 
 219 0680 FB368DE0 		.ascii	"\3736\215\340\304\247\026\215@\244\325\301\014C5a\315"
 219      C4A7168D 
 219      40A4D5C1 
 219      0C433561 
 219      CD
 220 0691 FBF556D0 		.ascii	"\373\365V\320ts\337K\362\252\305~KVpUc\005\035q\324"
 220      7473DF4B 
 220      F2AAC57E 
 220      4B567055 
 220      63051D71 
 221 06a6 74ACA032 		.ascii	"t\254\2402\326wq?\215pRpvB\017gs\322\362-oW1\362r\334"
 221      D677713F 
 221      8D705270 
 221      76420F67 
 221      73D2F22D 
 222 06c0 47B81C77 		.ascii	"G\270\034w\224!2u\0170-I3*\323J\250\221\243\017b\264"
 222      94213275 
 222      0F302D49 
 222      332AD34A 
 222      A891A30F 
 223 06d6 7688F919 		.ascii	"v\210\371\031\320\303H\217\000Mi\026\037\250\315\342"
 223      D0C3488F 
 223      004D6916 
 223      1FA8CDE2 
 224 06e6 53DB727B 		.ascii	"S\333r{-Z\337>u5_\246k}T\002\343\252\333B`\3505k\"\262"
 224      2D5ADF3E 
 224      75355FA6 
 224      6B7D5402 
 224      E3AADB42 
 225 0700 3E71DD61 		.ascii	">q\335am}B\361\317\235\207f\312\353\216\037a\373\364"
 225      6D7D42F1 
 225      CF9D8766 
 225      CAEB8E1F 
 225      61FBF4
 226 0713 E9DAC7C2 		.ascii	"\351\332\307\302B\307\334\014R\344\264\336\370\273\026"
 226      42C7DC0C 
 226      52E4B4DE 
ARM GAS  /tmp/cca4i599.s 			page 18


 226      F8BB16
 227 0722 5F51D61D 		.ascii	"_Q\326\035O[0\376\312X\347\253\352%;\216\356\246\031"
 227      4F5B30FE 
 227      CA58E7AB 
 227      EA253B8E 
 227      EEA619
 228 0735 19375D85 		.ascii	"\0317]\205\252.5\203\034}\026\315\252[mJ\014\325\220"
 228      AA2E3583 
 228      1C7D16CD 
 228      AA5B6D4A 
 228      0CD590
 229 0748 6157F95E 		.ascii	"aW\371^\015\377\357\036\307\231\320>\034\347VZ\001\033"
 229      0DFFEF1E 
 229      C799D03E 
 229      1CE7565A 
 229      011B
 230 075a 66D692A0 		.ascii	"f\326\222\240\214\343\215\2622\244\365\276u\266\361"
 230      8CE38DB2 
 230      32A4F5BE 
 230      75B6F1
 231 0769 BCC99491 		.ascii	"\274\311\224\221X`\345\35034Q\306Y\232\364\256\036\244"
 231      5860E5E8 
 231      333451C6 
 231      599AF4AE 
 231      1EA4
 232 077b 7F457A09 		.ascii	"\177Ez\011\351|\354u\013\221\326 m@\332\204t%\322\223"
 232      E97CEC75 
 232      0B91D620 
 232      6D40DA84 
 232      7425D293 
 233 078f 48CF213D 		.ascii	"H\317!=o\245\177\352\206x\245\255;\323^\236\355\325"
 233      6FA57FEA 
 233      8678A5AD 
 233      3BD35E9E 
 233      EDD5
 234 07a1 D9CE39DB 		.ascii	"\331\3169\333xI\325\325\251R\327\207\250\256\343\250"
 234      7849D5D5 
 234      A952D787 
 234      A8AEE3A8 
 235 07b1 9C4FB416 		.ascii	"\234O\264\026\2645C\3318H\303a\317\236\325\323\367\312"
 235      B43543D9 
 235      3848C361 
 235      CF9ED5D3 
 235      F7CA
 236 07c3 9E1A6900 		.ascii	"\236\032i\000\302\301{V\322\301\033\006k"
 236      C2C17B56 
 236      D2C11B06 
 236      6B
 237 07d0 E424F59E 		.ascii	"\344$\365\236\015C\265\351\031\263\351\372\027W)\352"
 237      0D43B5E9 
 237      19B3E9FA 
 237      175729EA 
 238 07e0 95F6440F 		.ascii	"\225\366D\017\332\306\363j\360\032\332\261\253H`\307"
 238      DAC6F36A 
 238      F01ADAB1 
 238      AB4860C7 
 239 07f0 AC802559 		.ascii	"\254\200%Y\201hT\203\235\262\015\246\345l\231\032\354"
ARM GAS  /tmp/cca4i599.s 			page 19


 239      81685483 
 239      9DB20DA6 
 239      E56C991A 
 239      EC
 240 0801 AF56C092 		.ascii	"\257V\300\222\314\323\327\2677\016\\<\265\276\367\177"
 240      CCD3D7B7 
 240      370E5C3C 
 240      B5BEF77F 
 241 0811 8549B62D 		.ascii	"\205I\266-\271\337\204-R\362Zb`\322lD\232\217\004\261"
 241      B9DF842D 
 241      52F25A62 
 241      60D26C44 
 241      9A8F04B1 
 242 0825 332BC820 		.ascii	"3+\310 \335\213\316\353o\031\332A@W3\341\313\254\346"
 242      DD8BCEEB 
 242      6F19DA41 
 242      405733E1 
 242      CBACE6
 243 0838 3E46D3B3 		.ascii	">F\323\2635\275H\367\033\314\337m\353W\333X\033\253"
 243      35BD48F7 
 243      1BCCDF6D 
 243      EB57DB58 
 243      1BAB
 244 084a 34939DEF 		.ascii	"4\223\235\357\254\300y\015\232\313\350Ro\000B\354\201"
 244      ACC0790D 
 244      9ACBE852 
 244      6F0042EC 
 244      81
 245 085b 5DAD033B 		.ascii	"]\255\003;\375\247\350\347\376\206\364\013\244_\"\375"
 245      FDA7E8E7 
 245      FE86F40B 
 245      A45F22FD 
 246 086b 0AE9D748 		.ascii	"\012\351\327Ho\252\035\303\017\203j\326\002{\006\354"
 246      6FAA1DC3 
 246      0F836AD6 
 246      027B06EC 
 247 087b 49DB5D50 		.ascii	"I\333]P\203\271(2\226\346\371\213[\214zB\027\337\027"
 247      83B92832 
 247      96E6F98B 
 247      5B8C7A42 
 247      17DF17
 248 088e 6F939666 		.ascii	"o\223\226f\344w\313G\000 D\331r\037\256\030T\262\270"
 248      E477CB47 
 248      002044D9 
 248      721FAE18 
 248      54B2B8
 249 08a1 80E131DC 		.ascii	"\200\3411\334\257\262\000\264y\333y\351\020\314\034"
 249      AFB200B4 
 249      79DB79E9 
 249      10CC1C
 250 08b0 045A9036 		.ascii	"\004Z\2206P\367\245\003\322\032\306\\\004Z\254\003\262"
 250      50F7A503 
 250      D21AC65C 
 250      045AAC03 
 250      B2
 251 08c1 7F2EE107 		.ascii	"\177.\341\007\315\254;\211\260R\307\255\202\364*kt\022"
 251      CDAC3B89 
ARM GAS  /tmp/cca4i599.s 			page 20


 251      B052C7AD 
 251      82F42A6B 
 251      7412
 252 08d3 A1F34F6D 		.ascii	"\241\363Om\277m\330 \316~Y\274\325\377\"m\335u\315g"
 252      BF6DD820 
 252      CE7E59BC 
 252      D5FF226D 
 252      DD75CD67 
 253 08e7 6D1D07E8 		.ascii	"m\035\007\350q+\000\377\023Ws\354\273\366\177&[\311"
 253      712B00FF 
 253      135773EC 
 253      BBF67F26 
 253      5BC9
 254 08f9 D52C894B 		.ascii	"\325,\211KO\353\330N\011\302\321\265,\211\001\352X\335"
 254      4FEBD84E 
 254      09C2D1B5 
 254      2C8901EA 
 254      58DD
 255 090b 36FEE597 		.ascii	"6\376\345\227p\033\237|O\035\223^\335\273\312t\367\015"
 255      701B9F7C 
 255      4F1D935E 
 255      DDBBCA74 
 255      F70D
 256 091d 32D0EAA9 		.ascii	"2\320\352\251\017\243v1\014u\02186\232!i\262A4\205\\"
 256      0FA37631 
 256      0C751138 
 256      369A2169 
 256      B2413485 
 257 0932 2ED173B9 		.ascii	".\321s\271]\342r\211%.\337\333\213\023\275d\303L[\222"
 257      5DE27289 
 257      252EDFDB 
 257      8B13BD64 
 257      C34C5B92 
 258 0946 532C4DDA 		.ascii	"S,M\332\306Bo\032\177\226{\263\276\033\247\034VH\226"
 258      C6426F1A 
 258      7F967BB3 
 258      BE1BA71C 
 258      564896
 259 0959 4656353F 		.ascii	"FV5?\352\303\026$\002\245\025\342\211\033D\321\343J"
 259      EAC31624 
 259      02A515E2 
 259      891B44D1 
 259      E34A
 260 096b 57C455C9 		.ascii	"W\304U\311D\224\017\214\245%b\213Z\304~\333\"z\355\211"
 260      44940F8C 
 260      A525628B 
 260      5AC47EDB 
 260      227AED89 
 261 097f 48D608CD 		.ascii	"H\326\010\3158\371S2\021\215\316\277\231\001\275\241"
 261      38F95332 
 261      118DCEBF 
 261      9901BDA1 
 262 098f 1669F620 		.ascii	"\026i\366 \013\"\231G\216\267'\322z\003\221,\211\360"
 262      0B229947 
 262      8EB727D2 
 262      7A03912C 
 262      89F0
ARM GAS  /tmp/cca4i599.s 			page 21


 263 09a1 B65A84B9 		.ascii	"\266Z\204\271\266E\370\036[e\213\205V\211\277W\262\326"
 263      B645F81E 
 263      5B658B85 
 263      5689BF57 
 263      B2D6
 264 09b3 5B69B35A 		.ascii	"[i\263Z\304yVD4\017\241oO\304\367\222\211hG\244\035"
 264      C4795644 
 264      340FA16F 
 264      4FC4F792 
 264      896847A4 
 265 09c8 6A916A6C 		.ascii	"j\221jl\213d\263\325\222\271\213\367\323\360\210i\211"
 265      8B64B3D5 
 265      92B98BF7 
 265      D3F08869 
 265      89
 266 09d9 BC5B2DF2 		.ascii	"\274[-\362\"+\"\233O7nO\344\203ix\310\264D>\240\026"
 266      222B229B 
 266      4F376E4F 
 266      E4836978 
 266      C8B4443E 
 267 09ef B9C9B6C8 		.ascii	"\271\311\266\310^J{)c#G/eqE\002\351Z\244o!\335\204t"
 267      5E4A7B29 
 267      6323472F 
 267      65714502 
 267      E95AA46F 
 268 0a07 3BD236A4 		.ascii	";\3226\244\373Y\013q\364\"5\237-\310g]\232\203\227\030"
 268      FB590B71 
 268      F422359F 
 268      2DC8675D 
 268      9A839718 
 269 0a1b BBB617A6 		.ascii	"\273\266\027\246\225V\027\345\226ml\313\301\370\262"
 269      955617E5 
 269      966D6CCB 
 269      C1F8B2
 270 0a2a 13439F23 		.ascii	"\023C\237#\203l.\311\021\356\217\353\003\212\256\203"
 270      836C2EC9 
 270      11EE8FEB 
 270      038AAE83 
 271 0a3a 18501C4F 		.ascii	"\030P\034O\035P\314\236\025;sP\265\321\230|\031\"\276"
 271      1D50CC9E 
 271      153B7350 
 271      B5D1987C 
 271      1922BE
 272 0a4d 332BEF21 		.ascii	"3+\357!X8?\306\321\247X2\277\260rb\253{\220>\270\276"
 272      58383FC6 
 272      D1A75832 
 272      BFB07262 
 272      AB7B903E 
 273 0a63 A0DFE2B5 		.ascii	"\240\337\342\265\002\363\005\302\034\267\337~F\227Z"
 273      02F305C2 
 273      1CB7DF7E 
 273      46975A
 274 0a72 BB1C7D02 		.ascii	"\273\034}\002e9\2516)\206\372\332\266\275xU\366R\011"
 274      6539A936 
 274      2986FADA 
 274      B6BD7855 
 274      F65209
ARM GAS  /tmp/cca4i599.s 			page 22


 275 0a85 71F747F7 		.ascii	"q\367G\367\340\336\270\233\252\302\351\332\234\312\024"
 275      E0DEB89B 
 275      AAC2E9DA 
 275      9CCA14
 276 0a94 7BE3B1AF 		.ascii	"{\343\261\257]\014G\367\260n\250\375\206Ni\026@\210"
 276      5D0C47F7 
 276      B06EA8FD 
 276      864E6916 
 276      4088
 277 0aa6 54E7A1B0 		.ascii	"T\347\241\260\326f\252\006\023\233!\337\223\330\014"
 277      D666AA06 
 277      139B21DF 
 277      93D80C
 278 0ab5 7A0186AA 		.ascii	"z\001\206\252\314\224\326\376\361\374\263\374m^\342"
 278      CC94D6FE 
 278      F1FCB3FC 
 278      6D5EE2
 279 0ac4 1BADCA5A 		.ascii	"\033\255\312Z\237\370\254L:\214&\230\032\225'\230\343"
 279      9FF8AC4C 
 279      3A8C2698 
 279      1A952798 
 279      E3
 280 0ad5 E88F51E5 		.ascii	"\350\217Q\345\237\260\254a1\360*\231:\355\033\355\351"
 280      9FB0AC61 
 280      31F02A99 
 280      3AED1BED 
 280      E9
 281 0ae6 9B1FF38B 		.ascii	"\233\037\363\213]\337K\266a\254\037[\356W\3668/a\207"
 281      5DDF4BB6 
 281      61AC1F5B 
 281      EE57F638 
 281      2F6187
 282 0af9 6DC91CB0 		.ascii	"m\311\034\260\307A\353\3668\276\267U\000\206Z\257\027"
 282      C741EBF6 
 282      38BEB755 
 282      00865AAF 
 282      17
 283 0b0a 56CB64AA 		.ascii	"V\313d\252\370FD[\253\023q\017Z:v\275\315\022b\256\251"
 283      F846445B 
 283      AB13710F 
 283      5A3A76BD 
 283      CD1262AE 
 284 0b1f FEC82C9A 		.ascii	"\376\310,\232u\375\210\252F\3655dK\201\2162\377\321"
 284      75FD88AA 
 284      46F53564 
 284      4B818E32 
 284      FFD1
 285 0b31 EC10E132 		.ascii	"\354\020\3412\027\373#|\322lXb\0163\347v\225M\034\301"
 285      17FB237C 
 285      D26C5862 
 285      0E33E776 
 285      954D1CC1 
 286 0b45 C9F2241E 		.ascii	"\311\362$\036\224#\241\014\265K/\202\266Z\371q\242\251"
 286      9423A10C 
 286      B54B2F82 
 286      B65AF971 
 286      A2A9
ARM GAS  /tmp/cca4i599.s 			page 23


 287 0b57 52241124 		.ascii	"R$\021$\336\030j\267%\264\347\314\320\214Ff\243\371"
 287      DE186AB7 
 287      25B4E7CC 
 287      D08C4666 
 287      A3F9
 288 0b69 6B5CCBF7 		.ascii	"k\\\313\367'\214k\351\316\2662\311\266n\242m]\3134\034"
 288      278C6BE9 
 288      CEB632C9 
 288      B66EA26D 
 288      5DCB341C 
 289 0b7d 0CCC7130 		.ascii	"\014\314q0b\321\017\006\275\247p0\270ei0\270~\252\336"
 289      62D10F06 
 289      BDA77030 
 289      B8656930 
 289      B87EAADE 
 290 0b91 EA600006 		.ascii	"\352`\000\006L[\365\354\263\263h\231\2654\206T`\353"
 290      4C5BF5EC 
 290      B3B36899 
 290      B5348654 
 290      60EB
 291 0ba3 C6295CA9 		.ascii	"\306)\\\251\235\211Nd\256m0\257\006\354\0335\330<+`"
 291      9D894E64 
 291      AE6D30AF 
 291      06EC1B35 
 291      D83C2B60 
 292 0bb7 66EE03C0 		.ascii	"f\356\003\300\276U\203U\333\006\323rvK\015Vo\005\314"
 292      BE558355 
 292      DB06D372 
 292      764B0D56 
 292      6F05CC
 293 0bca 2CCE07B0 		.ascii	",\316\007\260\352.\025\330\022\333`Z\316j\325`\313\254"
 293      EA2E15D8 
 293      12DB605A 
 293      CE6AD560 
 293      CBAC
 294 0bdc 8099C5AE 		.ascii	"\200\231\305\256\000V\257\006[i\033L\313\331\"5\330"
 294      0056AF06 
 294      5B691B4C 
 294      CBD92235 
 294      D8
 295 0bed 6A2B605E 		.ascii	"j+`^s\316\032\226f\035yN\266\375d\213\203\034]\205\303"
 295      73CE1A96 
 295      661D794E 
 295      B6FD648B 
 295      831C5D85 
 296 0c02 52AA2539 		.ascii	"R\252%9\206zC\317\221\006\307\210#\225xbeli\327\202"
 296      867A43CF 
 296      9106C788 
 296      23957862 
 296      656C69D7 
 297 0c17 A162731B 		.ascii	"\241bs\033\255\254d\276i\033/W#aSW\275\214W\217\032"
 297      ADAC64BE 
 297      691B2F57 
 297      23615357 
 297      BD8C578F 
 298 0c2c DB66052F 		.ascii	"\333f\005/\311\336\345r\035\177;l\343\015\241L/\265"
 298      C9DEE572 
ARM GAS  /tmp/cca4i599.s 			page 24


 298      1D7F3B6C 
 298      E30DA14C 
 298      2FB5
 299 0c3e 37E3E87E 		.ascii	"7\343\350~T\271\350 \343\342,\244s\220\276\204\364e"
 299      54B9E820 
 299      E3E22CA4 
 299      7390BE84 
 299      F465
 300 0c50 A4AF229D 		.ascii	"\244\257\"\235\217t!\322\032\244uH\027!m@\372\272\303"
 300      8F7421D2 
 300      1AA47548 
 300      17216D40 
 300      FABAC3
 301 0c63 C2BCE01B 		.ascii	"\302\274\340\033\365\274\240=\313B\234\0276mJi\354\225"
 301      F5BCA03D 
 301      CB429C17 
 301      366D4A69 
 301      EC95
 302 0c75 CE7F497F 		.ascii	"\316\177I\177\216q\310\012\340t\003\335\033\353\252"
 302      8E71C80A 
 302      E07403DD 
 302      1BEBAA
 303 0c84 4EA5AB7A 		.ascii	"N\245\253z\324\325k8\003:\212\264\033\351\027H/#\355"
 303      D4D56B38 
 303      033A8AB4 
 303      1BE91748 
 303      2F23ED
 304 0c97 457A1D69 		.ascii	"Ez\035i\037\322&+:Y\310&\335s0Y058+\322s\354\302\271"
 304      1FD2262B 
 304      3A59C826 
 304      DD733059 
 304      3035382B 
 305 0cb0 7130F749 		.ascii	"q0\367Iy\264\004&z\216{\015\327W\007\304\027\253\034"
 305      79B40426 
 305      7A8E7B0D 
 305      D75707C4 
 305      17AB1C
 306 0cc3 BAD1EFC3 		.ascii	"\272\321\357\303\2438\372\221\357\251\327V\317\034]"
 306      A338FA91 
 306      EFA9D756 
 306      CF1C5D
 307 0cd2 26EF3149 		.ascii	"&\3571I\015Ts\007-c\2461l\001\336\265\243\350\233$\260"
 307      0D547307 
 307      2D63A631 
 307      6C01DEB5 
 307      A3E89B24 
 308 0ce7 C5B6C134 		.ascii	"\305\266\3014\346\023\273\245\006[j\005,\311&\357\242"
 308      E613BBA5 
 308      065B6A05 
 308      2CC926EF 
 308      A2
 309 0cf8 4E15D872 		.ascii	"N\025\330r\333`\336\001\306'\231]\253\203\230\335j\354"
 309      DB60DE01 
 309      C627995D 
 309      AB8398DD 
 309      6AEC
 310 0d0a 606B90BE 		.ascii	"`k\220\276\201t\235\332\260 h\276C\0374K\355\243\302"
ARM GAS  /tmp/cca4i599.s 			page 25


 310      81749DDA 
 310      B02068BE 
 310      431F344B 
 310      EDA3C2
 311 0d1d 4B342495 		.ascii	"K4$\225\032\321\314T\233\035\231\032P\315\346\310\333"
 311      1AD1CC54 
 311      9B1D991A 
 311      50CDE6C8 
 311      DB
 312 0d2e 3A26944C 		.ascii	":&\224Lo9\2146G.\177~n\036=\263\245*F\376\016\367\305"
 312      6F398C36 
 312      472E7F7E 
 312      6E1E3DB3 
 312      A52A46FE 
 313 0d45 7BACEF8E 		.ascii	"{\254\357\216\254w\330\333\0351\010\014c\037\340\271"
 313      AC77D8DB 
 313      1D31080C 
 313      631FE0B9 
 314 0d55 E14D0E12 		.ascii	"\341M\016\022\024\366\352\330\266\024\024n\325w\213"
 314      14F6EAD8 
 314      B614146E 
 314      D5778B
 315 0d64 9B87B15B 		.ascii	"\233\207\261[lM\335-`\314\350?\254\234O\221FY1\233\226"
 315      6C4DDD2D 
 315      60CCE83F 
 315      AC9C4F91 
 315      4659319B 
 316 0d79 31D38BE6 		.ascii	"1\323\213\346\252;TCv\225m0\257\006\254V\0156\337\012"
 316      AA3B5443 
 316      76956D30 
 316      AF06AC56 
 316      0D36DF0A 
 317 0d8d 589268AE 		.ascii	"X\222h\256^\015\366\232m0-g\213\324`K\255\200%\211\346"
 317      5E0DF69A 
 317      6D302D67 
 317      8BD4604B 
 317      AD802589 
 318 0da2 1AD460CB 		.ascii	"\032\324`\313m\203\2519\233\031\333\332q\200\354!\341"
 318      6D83A939 
 318      9B19DBDA 
 318      7180EC21 
 318      E1
 319 0db3 21F69949 		.ascii	"!\366\231I\027\227,\235s\337\353\320\235s_\2720\233"
 319      17972C9D 
 319      73DFEBD0 
 319      9D735FBA 
 319      309B
 320 0dc5 5817F99E 		.ascii	"X\027\371\236\332\3516u4j\234n\013\012G\312\246\343"
 320      DAE93675 
 320      346A9C6E 
 320      0B0A47CA 
 320      A6E3
 321 0dd7 74C5D8E6 		.ascii	"t\305\330\346\216L\361\225\254\370\337\320\256I\302"
 321      8E4CF195 
 321      ACF8DFD0 
 321      AE49C2
 322 0de6 F8217DB7 		.ascii	"\370!}\267X\336\301x\245\317\251\371^\337\321\250\211"
ARM GAS  /tmp/cca4i599.s 			page 26


 322      58DEC178 
 322      A5CFA9F9 
 322      5EDFD1A8 
 322      89
 323 0df7 7C5A91EF 		.ascii	"|Z\221\357C\216\244\221\217)\337\225\261\015\013!\366"
 323      438EA491 
 323      8F29DF95 
 323      B10D0B21 
 323      F6
 324 0e08 54C0D6DA 		.ascii	"T\300\326\332\006\323\207Q\014\365V\272\212\214_\011"
 324      06D38751 
 324      0CF556BA 
 324      8A8C5F09 
 325 0e18 07BC1F9D 		.ascii	"\007\274\037\235\356A\255\033_o\305\014\223\314\003"
 325      EE41AD1B 
 325      5F6FC50C 
 325      93CC03
 326 0e27 B6A96D7A 		.ascii	"\266\251mz\213m0\257\006\354]5\330v+`^s\316v\250\301"
 326      8B6D30AF 
 326      06EC5D35 
 326      D8762B60 
 326      5E73CE76 
 327 0e3d 62B6C1B4 		.ascii	"b\266\301\264\234\355L\200q\364\\\007\223\032\314(\336"
 327      9CED4C80 
 327      71F45C07 
 327      931ACC28 
 327      DE
 328 0e4e 36BAD48E 		.ascii	"6\272\324\216\235\243\267\341\340\373\016\266\324v\244"
 328      9DA3B7E1 
 328      E0FB0EB6 
 328      D476A4
 329 0e5d EF21DD85 		.ascii	"\357!\335\205\264\015\351\373H\367 =\206\3648\322\223"
 329      B40DE9FB 
 329      48F7203D 
 329      86F438D2 
 329      93
 330 0e6e 484FA51A 		.ascii	"HO\245\032T\345\361\250s\321OI\377\336\350 'q\366dk"
 330      54E5F1A8 
 330      73D14F49 
 330      FFDEE820 
 330      2771F664 
 331 0e83 0724DD01 		.ascii	"\007$\335\001\242M&\242\022\356\3178\314\017\020\351"
 331      A24D26A2 
 331      12EECF38 
 331      CC0F10E9 
 332 0e93 7ED31E25 		.ascii	"~\323\036%I\275H\035\353\257\273\213\360\330\215Mx$"
 332      49BD481D 
 332      EBAFBB8B 
 332      F0D88D4D 
 332      7824
 333 0ea5 5B1F70A4 		.ascii	"[\037p\244\261\262\234\016\027\015w3\034}\036y8\363"
 333      B1B29C0E 
 333      170D7733 
 333      1C7D1E79 
 333      38F3
 334 0eb7 3DF1A00B 		.ascii	"=\361\240\013c.d\033\2071\027\014\303\230\276\353\027"
 334      632E641B 
ARM GAS  /tmp/cca4i599.s 			page 27


 334      8731170C 
 334      C398BEEB 
 334      17
 335 0ec8 D33AE3F1 		.ascii	"\323:\343\361\231C\377\317D\300\341\0156\256\371\242"
 335      9943FFCF 
 335      44C0E10D 
 335      36AEF9A2 
 336 0ed8 61CD3B6F 		.ascii	"a\315;o\356\377e\374?\204H\200\014u\302\004\342s-\304"
 336      EEFF65FC 
 336      3F844880 
 336      0C75C204 
 336      E2732DC4 
 337 0eec BF502B08 		.ascii	"\277P+\010\304\207\027\316=\373\347J\302\274x\243\037"
 337      C48717CE 
 337      3DFBE74A 
 337      C2BC78A3 
 337      1F
 338 0efd A683CA79 		.ascii	"\246\203\312y\221\3568\212\022\000iN\207\020\300K\011"
 338      91EE388A 
 338      1200694E 
 338      8710C04B 
 338      09
 339 0f0e 409D7D92 		.ascii	"@\235}\222\377\007b&\365\227\211\370\321K-'\353\247"
 339      FF076226 
 339      F59789F8 
 339      D14B2D27 
 339      EBA7
 340 0f20 AD1DA2D7 		.ascii	"\255\035\242\327k\374\337[\320(f\2466\012\374\353E\374"
 340      6BFCDF5B 
 340      D02866A6 
 340      360AFCEB 
 340      45FC
 341 0f32 9B09863A 		.ascii	"\233\011\206:?X\273\364\255R\201\215?\2720Y}}D\251\332"
 341      3F58BBF4 
 341      AD52818D 
 341      3FBA3059 
 341      7D7D44A9 
 342 0f47 2D43F63A 		.ascii	"-C\366:\354.\276^q\030/\276\272\214uI\032\325\014\352"
 342      EC2EBE5E 
 342      71182FBE 
 342      BA8C7549 
 342      1AD50CEA 
 343 0f5b 6A4297BA 		.ascii	"jB\227\272R\353\223\224\272fZ\212\234:2+u\335\264\324"
 343      52EB9394 
 343      BA665A8A 
 343      9C3A322B 
 343      75DDB4D4 
 344 0f6f CA24AD7D 		.ascii	"\312$\255}\303\264\024Q\234Y\251>\323R\261$u}\243\232"
 344      C3B41451 
 344      9C59A93E 
 344      D352B124 
 344      757DA39A 
 345 0f83 99B8CBB8 		.ascii	"\231\270\313\270@\360A?\365O9\025\321HN \350/\255(\342"
 345      40F0413F 
 345      F54F3915 
 345      D1484E20 
 345      E82FAD28 
ARM GAS  /tmp/cca4i599.s 			page 28


 346 0f98 7382FCB4 		.ascii	"s\202\374\264\322\300\344\234"
 346      D2C0E49C 
 347 0fa0 A8501408 		.ascii	"\250P\024\010\012\017\226P\356\012\270?\342\023\\O>"
 347      0A0F9650 
 347      EE0AB83F 
 347      E2135C4F 
 347      3E
 348 0fb1 3DC93B9A 		.ascii	"=\311;\232z\300(s\031\347/\011\004\371\034_\021?\205"
 348      7AC02873 
 348      19E72F09 
 348      04F91C5F 
 348      113F85
 349 0fc4 AB28157C 		.ascii	"\253(\025|\302\2140\037\205\302\036\237O.\236\035\216"
 349      C28C301F 
 349      85C21E9F 
 349      4F2E9E1D 
 349      8E
 350 0fd5 F0612EC2 		.ascii	"\360a.\302?\021\212\024\360\301\"W\230\363\277\300\013"
 350      3F118A14 
 350      F0C12257 
 350      98F3BFC0 
 350      0B
 351 0fe6 6C59B4D8 		.ascii	"lY\264\330\345\217\370!+\01377\244'\270\250\360`NI\250"
 351      E58FF821 
 351      2B0B3737 
 351      A427B8A8 
 351      F0604E49 
 352 0ffb 8CCFE1A7 		.ascii	"\214\317\341\247\360"
 352      F0
 353 1000 39A34B02 		.ascii	"9\243K\002\223\003\023\012rB\321\234\022\2564^1<\373"
 353      9303130A 
 353      7242D19C 
 353      12AE345E 
 353      313CFB
 354 1013 CA2BF80A 		.ascii	"\312+\370\012\254%\027y\"\214\024\373\3759\\\244\354"
 354      AC251779 
 354      228C14FB 
 354      FD395CA4 
 354      EC
 355 1024 816028C8 		.ascii	"\201`(\310?\300s\223\0039\017=\370H\274\020\310\004"
 355      3FC07393 
 355      03390F3D 
 355      F848BC10 
 355      C804
 356 1036 0C420157 		.ascii	"\014B\001W4\360G\036x\012U\010\341\012A\002\362\011"
 356      34F0471E 
 356      780A5508 
 356      E10A4102 
 356      F209
 357 1048 830221E5 		.ascii	"\203\002!\3451Cy|\300\220\223\210\020\307\364\227Dg"
 357      3143797C 
 357      C0909388 
 357      10C7F497 
 357      4467
 358 105a 44157107 		.ascii	"D\025q\007\013%\021\236+\212*0C\374%>\315\247_X\200"
 358      0B25119E 
 358      2B8A2A30 
ARM GAS  /tmp/cca4i599.s 			page 29


 358      43FC253E 
 358      CDA75F58 
 359 106f F3971401 		.ascii	"\363\227\024\001T\206T\316'x\342\030\256\260/\310O\027"
 359      548654CE 
 359      2778E218 
 359      AEB02FC8 
 359      4F17
 360 1081 E006BA9C 		.ascii	"\340\006\272\234\372k3\250p(\"DsF\345\217\037=~z\216"
 360      FA6B33A8 
 360      70282244 
 360      7346E58F 
 360      1F3D7E7A 
 361 1096 3F54160E 		.ascii	"?T\026\016\224\362\221h\316\223\243G\003\272\302\251"
 361      94F29168 
 361      CE93A347 
 361      03BAC2A9 
 362 10a6 5B084740 		.ascii	"[\010G@F!\2034\317\310\021 \274\324R\344\021+\010\204"
 362      46218334 
 362      CFC81120 
 362      BCD452E4 
 362      112B0884 
 363 10ba DCFE5050 		.ascii	"\334\376PP\200\372\214\033c@E%\376P\204\007\344L\362"
 363      80FA8C1B 
 363      63404525 
 363      FE508407 
 363      E44CF2
 364 10cd D907507E 		.ascii	"\331\007P~a\372\010\033E}S\037.#rG\370bhA\237\300D\036"
 364      61FA081B 
 364      457D531F 
 364      2E237247 
 364      F8626841 
 365 10e5 6122BF62 		.ascii	"a\"\277b#\303s!\015g\"\0171\221\177g\"\0173\221\377"
 365      23C37321 
 365      0D67220F 
 365      31917F67 
 365      220F3391 
 366 10fa 604A23F0 		.ascii	"`J#\360i\2443\354\203*\334D)\323\370\010\334C\245E|"
 366      69A433EC 
 366      832ADC44 
 366      29D3F808 
 366      DC43A545 
 367 110f C4E12FE1 		.ascii	"\304\341/\341\"DS\\\031\237!D\005N\200v\200\037\361"
 367      2244535C 
 367      199F2144 
 367      054E8076 
 367      801FF1
 368 1122 C92D9485 		.ascii	"\311-\224\205\212\244\367)\245\\q\324\011\346\007o\262"
 368      8AA4F729 
 368      A55C71D4 
 368      09E6076F 
 368      B2
 369 1133 DC60AC8A 		.ascii	"\334`\254\212\006\"E3\340\247\014~z@\360C\011\3274!"
 369      06224533 
 369      E0A70C7E 
 369      7A40F043 
 369      09D73421 
 370 1147 34F9F9F0 		.ascii	"4\371\371\360\235r\233D@\240\010\037\364\003\222s\232"
ARM GAS  /tmp/cca4i599.s 			page 30


 370      9D729B44 
 370      40A0081F 
 370      F4039273 
 370      9A
 371 1158 2044C259 		.ascii	" D\302Y\320FQ\276\214\013\227\200 \303,\2641ODu\313"
 371      D04651BE 
 371      8C0B9780 
 371      20C32CB4 
 371      314F4475 
 372 116d 46E1F407 		.ascii	"F\341\364\007\241\3078\243>\270CM\360c8\003\000\313"
 372      A1C738A3 
 372      3EB8434D 
 372      F0633803 
 372      00CB
 373 117f 2A40FB16 		.ascii	"*@\373\026\300\312\204\351\004\254L\002\203{hZ\020\364"
 373      C0CA84E9 
 373      04AC4C02 
 373      837B685A 
 373      10F4
 374 1191 81C54194 		.ascii	"\201\305A\2242\311h\246\011\220/\314\206}\025\331\212"
 374      32C968A6 
 374      09902FCC 
 374      867D15D9 
 374      8A
 375 11a2 459606A2 		.ascii	"E\226\006\242P\357`\225\215\222/\236\260o\032\027\020"
 375      50EF6095 
 375      8D922F9E 
 375      B06F1A17 
 375      10
 376 11b3 02C16278 		.ascii	"\002\301bx\2022\344\333\2400\310\314\225\022\253\360"
 376      8232E4DB 
 376      A030C8CC 
 376      9512ABF0 
 377 11c3 94C77F2E 		.ascii	"\224\307\177.\367\371C\025`\"\221\214r\337\344\212)"
 377      F7F94315 
 377      6022918C 
 377      72DFE48A 
 377      29
 378 11d4 A01367B9 		.ascii	"\240\023g\271O\010\205\335\220%\022\026\"p\217\024\301"
 378      4F0885DD 
 378      90251216 
 378      22708F14 
 378      C1
 379 11e5 DD531E0C 		.ascii	"\335S\036\014\011\201)3\300\332\312}\322\243\253\034"
 379      09812933 
 379      C0DACA7D 
 379      D2A3AB1C 
 380 11f5 EA0ABEE0 		.ascii	"\352\012\276\340!}'P\306\313v8\374\341\270\035\222\307"
 380      217D2750 
 380      C6CB7638 
 380      FCE1B81D 
 380      92C7
 381 1207 EC50F9EF 		.ascii	"\354P\371\357#\001\201/\204\034\320S\357K\351\024\242"
 381      2301812F 
 381      841CD053 
 381      EF4BE914 
 381      A2
ARM GAS  /tmp/cca4i599.s 			page 31


 382 1218 7C24C095 		.ascii	"|$\300\225\2022\262\012\360)/\022\230\312G\006\253_"
 382      8232B20A 
 382      F0292F12 
 382      98CA4706 
 382      AB5F
 383 122a 9E195FE8 		.ascii	"\236\031_\350\234F@\035Db\026z?[\314\013\016\270\013"
 383      9C46401D 
 383      4462167A 
 383      3F5BCC0B 
 383      0EB80B
 384 123d 0E78003D 		.ascii	"\016x\000=\221\037\005'\371U`\247\226\011\306\015@j"
 384      911F0527 
 384      F95560A7 
 384      9609C60D 
 384      406A
 385 124f 0D458140 		.ascii	"\015E\201@K\220;\324\231\315O\345\241\035\243\241\212"
 385      4B903BD4 
 385      99CD4FE5 
 385      A11DA3A1 
 385      8A
 386 1260 08318C2C 		.ascii	"\0101\214,|E+\203\266\225\254\015?y\242E\262Uz\012\362"
 386      7C452B83 
 386      B695AC0D 
 386      3F79A245 
 386      B2557A0A 
 387 1275 7C939E1E 		.ascii	"|\223\236\036\373\364\330B7<\025\024N\230\230\001\367"
 387      FBF4D842 
 387      373C1514 
 387      4E989801 
 387      F7
 388 1286 FC31A3F2 		.ascii	"\3741\243\362\236ub\226;\002A\225{r\005\360\301\025"
 388      9E756296 
 388      3B024195 
 388      7B7205F0 
 388      C115
 389 1298 C21B1398 		.ascii	"\302\033\023\230\314\204&\347\032r\007\355\2353z|\301"
 389      CC8426E7 
 389      1A7207ED 
 389      9D337A7C 
 389      C1
 390 12a9 D8829C82 		.ascii	"\330\202\234\202Bpze#GL\311\035\231;\375a\340\362\216"
 390      42707A65 
 390      23474CC9 
 390      1D993BFD 
 390      61E0F28E 
 391 12bd 4905A3F2 		.ascii	"I\005\243\362\013}\205\340\006\362\370)\354\350\374"
 391      0B7D85E0 
 391      06F2F829 
 391      ECE8FC
 392 12cc E1904640 		.ascii	"\341\220F@\032\311\376&?\337\361d\341\304|G~\341\204"
 392      1AC9FE26 
 392      3FDFF164 
 392      E1C47C47 
 392      7EE184
 393 12df 7C36FF77 		.ascii	"|6\377w\371\354\330\002H\243\3419/\337\223?\246`L\376"
 393      F9ECD802 
 393      48A3E139 
ARM GAS  /tmp/cca4i599.s 			page 32


 393      2FDF933F 
 393      A6604CFE 
 394 12f3 3363F286 		.ascii	"3c\362\206\263\205\252\267\021\316\212(\027\021\234"
 394      B385AAB7 
 394      11CE8A28 
 394      17119C
 395 1302 FED290FF 		.ascii	"\376\322\220\377\205GMU%u\367\202\302\361#G\344\214"
 395      85474D55 
 395      2575F782 
 395      C2F12347 
 395      E48C
 396 1314 1B979783 		.ascii	"\033\227\227\203LL\035!7\230\257\264\224x<g4\314\363"
 396      4C4C1D21 
 396      3798AFB4 
 396      94783C67 
 396      34CCF3
 397 1327 45300C0C 		.ascii	"E0\014\014\2074\002\322H\271\031G\207\202S\002\305\356"
 397      873402D2 
 397      48B91947 
 397      87825302 
 397      C5EE
 398 1339 68518100 		.ascii	"hQ\201\000u\375\247\345Z\236\2348v\002T\022\216\327"
 398      75FDA7E5 
 398      5A9E9C38 
 398      76025412 
 398      8ED7
 399 134b 9085BAF0 		.ascii	"\220\205\272\360\025\207\211\347s\216\237\2207&\337"
 399      158789E7 
 399      738E9F90 
 399      3726DF
 400 135a 35A1F0D9 		.ascii	"5\241\360\331\211c\362\335\023\012&\216\031\223\227"
 400      8963F2DD 
 400      130A268E 
 400      199397
 401 1369 EF9C3869 		.ascii	"\357\2348ib\036\010\015iB^>\375{6\312\023\341x.B?\345"
 401      621E080D 
 401      69425E3E 
 401      FD7B36CA 
 401      13E1782E 
 402 1380 F84D0168 		.ascii	"\370M\001hh\334\350\377\312w\214z\"\177\034!O\301\220"
 402      68DCE8FF 
 402      CA778C7A 
 402      227F1C21 
 402      4FC190
 403 1393 416A0D80 		.ascii	"Aj\015\200\237\316\222\036\313\270\350\0138~H\236\346"
 403      9FCE921E 
 403      CBB8E80B 
 403      387E489E 
 403      E6
 404 13a4 2E9F5C3D 		.ascii	".\237\\=\370\007\2418\022\252\010\223\357V\\\304\014"
 404      F807A138 
 404      12AA0893 
 404      EF565CC4 
 404      0C
 405 13b5 1C3FFD25 		.ascii	"\034?\375%\0053\242c\203\001\341\337\254\014\211\304"
 405      0533A263 
 405      8301E1DF 
ARM GAS  /tmp/cca4i599.s 			page 33


 405      AC0C89C4 
 406 13c5 0FC08DE4 		.ascii	"\017\300\215\344g\013\362\206g\224\206\202\305^\350"
 406      670BF286 
 406      67948682 
 406      C55EE8
 407 13d4 4DFF0FA9 		.ascii	"M\377\017\251\370\2740"
 407      F8BC30
 408              		.text
 409              		.section	.gnu.lto_.symtab.ca0ffbfe55d3c68d,"",%progbits
 410 0000 6D61696E 		.ascii	"main\000\000\000\000\000\000\000\000\000\000\000\000"
 410      00000000 
 410      00000000 
 410      00000000 
 411 0010 B3000000 		.ascii	"\263\000\000\000SD1\000\000\002\000\000\000\000\000"
 411      53443100 
 411      00020000 
 411      000000
 412 001f 00000000 		.ascii	"\000\000\000\000l\002\000\000crcFast\000\000\002\000"
 412      6C020000 
 412      63726346 
 412      61737400 
 412      000200
 413 0032 00000000 		.ascii	"\000\000\000\000\000\000\000\000\266\000\000\000oqW"
 413      00000000 
 413      B6000000 
 413      6F7157
 414 0041 72697465 		.ascii	"riteTimeout\000\000\002\000\000\000\000\000\000\000"
 414      54696D65 
 414      6F757400 
 414      00020000 
 414      00000000 
 415 0056 0000BF00 		.ascii	"\000\000\277\000\000\000sdStart\000\000\002\000\000"
 415      00007364 
 415      53746172 
 415      74000002 
 415      0000
 416 0068 00000000 		.ascii	"\000\000\000\000\000\000\000\214\001\000\000_pal_ll"
 416      0000008C 
 416      0100005F 
 416      70616C5F 
 416      6C6C
 417 007a 645F7365 		.ascii	"d_setgroupmode\000\000\002\000\000\000\000\000\000\000"
 417      7467726F 
 417      75706D6F 
 417      64650000 
 417      02000000 
 418 0092 00003002 		.ascii	"\000\0000\002\000\000chSysInit\000\000\002\000\000\000"
 418      00006368 
 418      53797349 
 418      6E697400 
 418      00020000 
 419 00a7 00000000 		.ascii	"\000\000\000\000\000\000g\002\000\000halInit\000\000"
 419      00006702 
 419      00006861 
 419      6C496E69 
 419      740000
 420 00ba 02000000 		.ascii	"\002\000\000\000\000\000\000\000\000\000j\002\000\000"
ARM GAS  /tmp/cca4i599.s 			page 34


 420      00000000 
 420      00006A02 
 420      0000
 421              		.text
 422              		.section	.gnu.lto_.opts,"",%progbits
 423 0000 272D6D63 		.ascii	"'-mcpu=cortex-m0' '-mno-thumb-interwork' '-mthumb' "
 423      70753D63 
 423      6F727465 
 423      782D6D30 
 423      2720272D 
 424 0033 272D6767 		.ascii	"'-ggdb' '-O0' '-fomit-frame-pointer' '-falign-funct"
 424      64622720 
 424      272D4F30 
 424      2720272D 
 424      666F6D69 
 425 0066 696F6E73 		.ascii	"ions=16' '-ffunction-sections' '-fdata-sections' '-"
 425      3D313627 
 425      20272D66 
 425      66756E63 
 425      74696F6E 
 426 0099 666E6F2D 		.ascii	"fno-common' '-flto'\000"
 426      636F6D6D 
 426      6F6E2720 
 426      272D666C 
 426      746F2700 
 427              		.text
 428              		.cfi_sections	.debug_frame
 429              		.section	.text.prepareForSend,"ax",%progbits
 430              		.align	2
 431              		.p2align 4,,15
 432              		.code	16
 433              		.thumb_func
 434              		.type	prepareForSend, %function
 435              	prepareForSend:
 436              	.LFB149:
 437              		.file 1 "main.c"
 438              		.loc 1 19 0
 439              		.cfi_startproc
 440 0000 10B5     		push	{r4, lr}
 441              		.cfi_def_cfa_offset 8
 442              		.cfi_offset 4, -8
 443              		.cfi_offset 14, -4
 444 0002 84B0     		sub	sp, sp, #16
 445              		.cfi_def_cfa_offset 24
 446 0004 0190     		str	r0, [sp, #4]
 447 0006 0A1C     		mov	r2, r1
 448 0008 6B46     		mov	r3, sp
 449 000a 0333     		add	r3, r3, #3
 450 000c 1A70     		strb	r2, [r3]
 451              		.loc 1 20 0
 452 000e 6C46     		mov	r4, sp
 453 0010 0E34     		add	r4, r4, #14
 454 0012 019B     		ldr	r3, [sp, #4]
 455 0014 181C     		mov	r0, r3
 456 0016 0421     		mov	r1, #4
 457 0018 FFF7FEFF 		bl	crcFast
 458 001c 031C     		mov	r3, r0
ARM GAS  /tmp/cca4i599.s 			page 35


 459 001e 2380     		strh	r3, [r4]
 460              		.loc 1 21 0
 461 0020 019B     		ldr	r3, [sp, #4]
 462 0022 0122     		mov	r2, #1
 463 0024 1A70     		strb	r2, [r3]
 464              		.loc 1 22 0
 465 0026 019B     		ldr	r3, [sp, #4]
 466 0028 0133     		add	r3, r3, #1
 467 002a F022     		mov	r2, #240
 468 002c 1A70     		strb	r2, [r3]
 469              		.loc 1 23 0
 470 002e 019B     		ldr	r3, [sp, #4]
 471 0030 0233     		add	r3, r3, #2
 472 0032 1022     		mov	r2, #16
 473 0034 1A70     		strb	r2, [r3]
 474              		.loc 1 24 0
 475 0036 019B     		ldr	r3, [sp, #4]
 476 0038 0333     		add	r3, r3, #3
 477 003a 6A46     		mov	r2, sp
 478 003c 0332     		add	r2, r2, #3
 479 003e 1278     		ldrb	r2, [r2]
 480 0040 1A70     		strb	r2, [r3]
 481              		.loc 1 25 0
 482 0042 019B     		ldr	r3, [sp, #4]
 483 0044 0433     		add	r3, r3, #4
 484 0046 6A46     		mov	r2, sp
 485 0048 0E32     		add	r2, r2, #14
 486 004a 1288     		ldrh	r2, [r2]
 487 004c 120A     		lsr	r2, r2, #8
 488 004e 92B2     		uxth	r2, r2
 489 0050 D2B2     		uxtb	r2, r2
 490 0052 1A70     		strb	r2, [r3]
 491              		.loc 1 26 0
 492 0054 019B     		ldr	r3, [sp, #4]
 493 0056 0533     		add	r3, r3, #5
 494 0058 6A46     		mov	r2, sp
 495 005a 0E32     		add	r2, r2, #14
 496 005c 1288     		ldrh	r2, [r2]
 497 005e D2B2     		uxtb	r2, r2
 498 0060 1A70     		strb	r2, [r3]
 499              		.loc 1 27 0
 500 0062 019B     		ldr	r3, [sp, #4]
 501 0064 0633     		add	r3, r3, #6
 502 0066 0422     		mov	r2, #4
 503 0068 1A70     		strb	r2, [r3]
 504              		.loc 1 28 0
 505 006a C046     		mov	r8, r8
 506              		.loc 1 29 0
 507 006c 04B0     		add	sp, sp, #16
 508              		@ sp needed
 509 006e 10BD     		pop	{r4, pc}
 510              		.cfi_endproc
 511              	.LFE149:
 512              		.size	prepareForSend, .-prepareForSend
 513              		.section	.text.main,"ax",%progbits
 514              		.align	2
 515              		.p2align 4,,15
ARM GAS  /tmp/cca4i599.s 			page 36


 516              		.global	main
 517              		.code	16
 518              		.thumb_func
 519              		.type	main, %function
 520              	main:
 521              	.LFB150:
 522              		.loc 1 31 0
 523              		.cfi_startproc
 524 0000 00B5     		push	{lr}
 525              		.cfi_def_cfa_offset 4
 526              		.cfi_offset 14, -4
 527 0002 87B0     		sub	sp, sp, #28
 528              		.cfi_def_cfa_offset 32
 529              		.loc 1 32 0
 530 0004 FFF7FEFF 		bl	halInit
 531              		.loc 1 33 0
 532 0008 FFF7FEFF 		bl	chSysInit
 533              		.loc 1 34 0
 534 000c 6B46     		mov	r3, sp
 535 000e 1633     		add	r3, r3, #22
 536 0010 0022     		mov	r2, #0
 537 0012 1A80     		strh	r2, [r3]
 538              		.loc 1 37 0
 539 0014 9023     		mov	r3, #144
 540 0016 DA05     		lsl	r2, r3, #23
 541 0018 3B4B     		ldr	r3, .L8
 542 001a 101C     		mov	r0, r2
 543 001c 191C     		mov	r1, r3
 544 001e 4022     		mov	r2, #64
 545 0020 FFF7FEFF 		bl	_pal_lld_setgroupmode
 546              		.loc 1 38 0
 547 0024 9023     		mov	r3, #144
 548 0026 DB05     		lsl	r3, r3, #23
 549 0028 181C     		mov	r0, r3
 550 002a 0421     		mov	r1, #4
 551 002c 8222     		mov	r2, #130
 552 002e FFF7FEFF 		bl	_pal_lld_setgroupmode
 553              		.loc 1 39 0
 554 0032 9023     		mov	r3, #144
 555 0034 DB05     		lsl	r3, r3, #23
 556 0036 181C     		mov	r0, r3
 557 0038 0821     		mov	r1, #8
 558 003a 8222     		mov	r2, #130
 559 003c FFF7FEFF 		bl	_pal_lld_setgroupmode
 560              		.loc 1 40 0
 561 0040 324B     		ldr	r3, .L8+4
 562 0042 181C     		mov	r0, r3
 563 0044 0021     		mov	r1, #0
 564 0046 FFF7FEFF 		bl	sdStart
 565              	.L7:
 566              		.loc 1 45 0
 567 004a 6B46     		mov	r3, sp
 568 004c 1533     		add	r3, r3, #21
 569 004e 0022     		mov	r2, #0
 570 0050 1A70     		strb	r2, [r3]
 571              		.loc 1 46 0
 572 0052 9023     		mov	r3, #144
ARM GAS  /tmp/cca4i599.s 			page 37


 573 0054 DB05     		lsl	r3, r3, #23
 574 0056 1B69     		ldr	r3, [r3, #16]
 575 0058 99B2     		uxth	r1, r3
 576 005a 6B46     		mov	r3, sp
 577 005c 1633     		add	r3, r3, #22
 578 005e 2A4A     		ldr	r2, .L8
 579 0060 0A40     		and	r2, r1
 580 0062 1A80     		strh	r2, [r3]
 581              		.loc 1 47 0
 582 0064 6B46     		mov	r3, sp
 583 0066 1633     		add	r3, r3, #22
 584 0068 1B88     		ldrh	r3, [r3]
 585 006a DAB2     		uxtb	r2, r3
 586 006c 0323     		mov	r3, #3
 587 006e 1340     		and	r3, r2
 588 0070 D9B2     		uxtb	r1, r3
 589 0072 6B46     		mov	r3, sp
 590 0074 1533     		add	r3, r3, #21
 591 0076 6A46     		mov	r2, sp
 592 0078 1532     		add	r2, r2, #21
 593 007a 1278     		ldrb	r2, [r2]
 594 007c 0A43     		orr	r2, r1
 595 007e 1A70     		strb	r2, [r3]
 596              		.loc 1 48 0
 597 0080 6B46     		mov	r3, sp
 598 0082 1633     		add	r3, r3, #22
 599 0084 1A88     		ldrh	r2, [r3]
 600 0086 F023     		mov	r3, #240
 601 0088 1340     		and	r3, r2
 602 008a 9BB2     		uxth	r3, r3
 603 008c 9B08     		lsr	r3, r3, #2
 604 008e 9BB2     		uxth	r3, r3
 605 0090 D9B2     		uxtb	r1, r3
 606 0092 6B46     		mov	r3, sp
 607 0094 1533     		add	r3, r3, #21
 608 0096 6A46     		mov	r2, sp
 609 0098 1532     		add	r2, r2, #21
 610 009a 1278     		ldrb	r2, [r2]
 611 009c 0A43     		orr	r2, r1
 612 009e 1A70     		strb	r2, [r3]
 613              		.loc 1 49 0
 614 00a0 6B46     		mov	r3, sp
 615 00a2 1633     		add	r3, r3, #22
 616 00a4 1A88     		ldrh	r2, [r3]
 617 00a6 C023     		mov	r3, #192
 618 00a8 DB00     		lsl	r3, r3, #3
 619 00aa 1340     		and	r3, r2
 620 00ac 9BB2     		uxth	r3, r3
 621 00ae DB08     		lsr	r3, r3, #3
 622 00b0 9BB2     		uxth	r3, r3
 623 00b2 D9B2     		uxtb	r1, r3
 624 00b4 6B46     		mov	r3, sp
 625 00b6 1533     		add	r3, r3, #21
 626 00b8 6A46     		mov	r2, sp
 627 00ba 1532     		add	r2, r2, #21
 628 00bc 1278     		ldrb	r2, [r2]
 629 00be 0A43     		orr	r2, r1
ARM GAS  /tmp/cca4i599.s 			page 38


 630 00c0 1A70     		strb	r2, [r3]
 631              		.loc 1 50 0
 632 00c2 6B46     		mov	r3, sp
 633 00c4 1533     		add	r3, r3, #21
 634 00c6 1B78     		ldrb	r3, [r3]
 635 00c8 002B     		cmp	r3, #0
 636 00ca 1CD0     		beq	.L4
 637              		.loc 1 52 0
 638 00cc 03AA     		add	r2, sp, #12
 639 00ce 6B46     		mov	r3, sp
 640 00d0 1533     		add	r3, r3, #21
 641 00d2 1B78     		ldrb	r3, [r3]
 642 00d4 101C     		mov	r0, r2
 643 00d6 191C     		mov	r1, r3
 644 00d8 FFF7FEFF 		bl	prepareForSend
 645              		.loc 1 53 0
 646 00dc 0C49     		ldr	r1, .L8+8
 647 00de 03AA     		add	r2, sp, #12
 648 00e0 0C4B     		ldr	r3, .L8+12
 649 00e2 081C     		mov	r0, r1
 650 00e4 111C     		mov	r1, r2
 651 00e6 0722     		mov	r2, #7
 652 00e8 FFF7FEFF 		bl	oqWriteTimeout
 653              		.loc 1 55 0
 654 00ec 0023     		mov	r3, #0
 655 00ee 0293     		str	r3, [sp, #8]
 656 00f0 05E0     		b	.L5
 657              	.L6:
 658              		.loc 1 56 0 discriminator 2
 659 00f2 019B     		ldr	r3, [sp, #4]
 660 00f4 0133     		add	r3, r3, #1
 661 00f6 0193     		str	r3, [sp, #4]
 662              		.loc 1 55 0 discriminator 2
 663 00f8 029B     		ldr	r3, [sp, #8]
 664 00fa 0133     		add	r3, r3, #1
 665 00fc 0293     		str	r3, [sp, #8]
 666              	.L5:
 667              		.loc 1 55 0 is_stmt 0 discriminator 1
 668 00fe 029A     		ldr	r2, [sp, #8]
 669 0100 054B     		ldr	r3, .L8+16
 670 0102 9A42     		cmp	r2, r3
 671 0104 F5DD     		ble	.L6
 672              	.L4:
 673              		.loc 1 58 0 is_stmt 1
 674 0106 A0E7     		b	.L7
 675              	.L9:
 676              		.align	2
 677              	.L8:
 678 0108 F3060000 		.word	1779
 679 010c 00000000 		.word	SD1
 680 0110 30000000 		.word	SD1+48
 681 0114 FFFF0000 		.word	65535
 682 0118 9F860100 		.word	99999
 683              		.cfi_endproc
 684              	.LFE150:
 685              		.size	main, .-main
 686 011c C046C046 		.text
ARM GAS  /tmp/cca4i599.s 			page 39


 687              	.Letext0:
 688              		.file 2 "/usr/lib/gcc/arm-none-eabi/4.8/include/stddef.h"
 689              		.file 3 "/usr/include/newlib/machine/_default_types.h"
 690              		.file 4 "/usr/include/newlib/stdint.h"
 691              		.file 5 "/home/efe/ChibiOS/os/rt/ports/ARMCMx/compilers/GCC/chtypes.h"
 692              		.file 6 "/home/efe/ChibiOS/os/rt/include/chsystypes.h"
 693              		.file 7 "/home/efe/ChibiOS/os/rt/include/chschd.h"
 694              		.file 8 "/home/efe/ChibiOS/os/ext/CMSIS/ST/stm32f030x6.h"
 695              		.file 9 "/home/efe/ChibiOS/os/rt/ports/ARMCMx/chcore.h"
 696              		.file 10 "/home/efe/ChibiOS/os/rt/ports/ARMCMx/chcore_v6m.h"
 697              		.file 11 "/home/efe/ChibiOS/os/rt/include/chsem.h"
 698              		.file 12 "/home/efe/ChibiOS/os/rt/include/chmtx.h"
 699              		.file 13 "/home/efe/ChibiOS/os/hal/osal/rt/osal.h"
 700              		.file 14 "/home/efe/ChibiOS/os/hal/include/hal_queues.h"
 701              		.file 15 "/home/efe/ChibiOS/os/hal/ports/STM32/LLD/GPIOv2/pal_lld.h"
 702              		.file 16 "/home/efe/ChibiOS/os/hal/include/serial.h"
 703              		.file 17 "/home/efe/ChibiOS/os/hal/ports/STM32/LLD/USARTv2/serial_lld.h"
 704              		.section	.debug_info,"",%progbits
 705              	.Ldebug_info0:
 706 0000 290B0000 		.4byte	0xb29
 707 0004 0400     		.2byte	0x4
 708 0006 00000000 		.4byte	.Ldebug_abbrev0
 709 000a 04       		.byte	0x4
 710 000b 01       		.uleb128 0x1
 711 000c 92030000 		.4byte	.LASF148
 712 0010 01       		.byte	0x1
 713 0011 37000000 		.4byte	.LASF149
 714 0015 2B010000 		.4byte	.LASF150
 715 0019 00000000 		.4byte	.Ldebug_ranges0+0
 716 001d 00000000 		.4byte	0
 717 0021 00000000 		.4byte	.Ldebug_line0
 718 0025 02       		.uleb128 0x2
 719 0026 04       		.byte	0x4
 720 0027 05       		.byte	0x5
 721 0028 696E7400 		.ascii	"int\000"
 722 002c 03       		.uleb128 0x3
 723 002d 3C020000 		.4byte	.LASF2
 724 0031 02       		.byte	0x2
 725 0032 D4       		.byte	0xd4
 726 0033 37000000 		.4byte	0x37
 727 0037 04       		.uleb128 0x4
 728 0038 04       		.byte	0x4
 729 0039 07       		.byte	0x7
 730 003a 83000000 		.4byte	.LASF0
 731 003e 04       		.uleb128 0x4
 732 003f 01       		.byte	0x1
 733 0040 06       		.byte	0x6
 734 0041 13060000 		.4byte	.LASF1
 735 0045 03       		.uleb128 0x3
 736 0046 33050000 		.4byte	.LASF3
 737 004a 03       		.byte	0x3
 738 004b 1D       		.byte	0x1d
 739 004c 50000000 		.4byte	0x50
 740 0050 04       		.uleb128 0x4
 741 0051 01       		.byte	0x1
 742 0052 08       		.byte	0x8
 743 0053 AE050000 		.4byte	.LASF4
ARM GAS  /tmp/cca4i599.s 			page 40


 744 0057 04       		.uleb128 0x4
 745 0058 02       		.byte	0x2
 746 0059 05       		.byte	0x5
 747 005a CA040000 		.4byte	.LASF5
 748 005e 03       		.uleb128 0x3
 749 005f D1010000 		.4byte	.LASF6
 750 0063 03       		.byte	0x3
 751 0064 2B       		.byte	0x2b
 752 0065 69000000 		.4byte	0x69
 753 0069 04       		.uleb128 0x4
 754 006a 02       		.byte	0x2
 755 006b 07       		.byte	0x7
 756 006c 2E060000 		.4byte	.LASF7
 757 0070 03       		.uleb128 0x3
 758 0071 AE000000 		.4byte	.LASF8
 759 0075 03       		.byte	0x3
 760 0076 3F       		.byte	0x3f
 761 0077 7B000000 		.4byte	0x7b
 762 007b 04       		.uleb128 0x4
 763 007c 04       		.byte	0x4
 764 007d 05       		.byte	0x5
 765 007e E6040000 		.4byte	.LASF9
 766 0082 03       		.uleb128 0x3
 767 0083 BC050000 		.4byte	.LASF10
 768 0087 03       		.byte	0x3
 769 0088 41       		.byte	0x41
 770 0089 8D000000 		.4byte	0x8d
 771 008d 04       		.uleb128 0x4
 772 008e 04       		.byte	0x4
 773 008f 07       		.byte	0x7
 774 0090 71050000 		.4byte	.LASF11
 775 0094 04       		.uleb128 0x4
 776 0095 08       		.byte	0x8
 777 0096 05       		.byte	0x5
 778 0097 23030000 		.4byte	.LASF12
 779 009b 03       		.uleb128 0x3
 780 009c 61020000 		.4byte	.LASF13
 781 00a0 03       		.byte	0x3
 782 00a1 5B       		.byte	0x5b
 783 00a2 A6000000 		.4byte	0xa6
 784 00a6 04       		.uleb128 0x4
 785 00a7 08       		.byte	0x8
 786 00a8 07       		.byte	0x7
 787 00a9 AB010000 		.4byte	.LASF14
 788 00ad 03       		.uleb128 0x3
 789 00ae DF020000 		.4byte	.LASF15
 790 00b2 04       		.byte	0x4
 791 00b3 2A       		.byte	0x2a
 792 00b4 45000000 		.4byte	0x45
 793 00b8 03       		.uleb128 0x3
 794 00b9 89040000 		.4byte	.LASF16
 795 00bd 04       		.byte	0x4
 796 00be 36       		.byte	0x36
 797 00bf 5E000000 		.4byte	0x5e
 798 00c3 03       		.uleb128 0x3
 799 00c4 90050000 		.4byte	.LASF17
 800 00c8 04       		.byte	0x4
ARM GAS  /tmp/cca4i599.s 			page 41


 801 00c9 41       		.byte	0x41
 802 00ca 70000000 		.4byte	0x70
 803 00ce 03       		.uleb128 0x3
 804 00cf 4F010000 		.4byte	.LASF18
 805 00d3 04       		.byte	0x4
 806 00d4 42       		.byte	0x42
 807 00d5 82000000 		.4byte	0x82
 808 00d9 03       		.uleb128 0x3
 809 00da 1E050000 		.4byte	.LASF19
 810 00de 04       		.byte	0x4
 811 00df 4E       		.byte	0x4e
 812 00e0 9B000000 		.4byte	0x9b
 813 00e4 03       		.uleb128 0x3
 814 00e5 67040000 		.4byte	.LASF20
 815 00e9 05       		.byte	0x5
 816 00ea 3C       		.byte	0x3c
 817 00eb AD000000 		.4byte	0xad
 818 00ef 03       		.uleb128 0x3
 819 00f0 C6020000 		.4byte	.LASF21
 820 00f4 05       		.byte	0x5
 821 00f5 3D       		.byte	0x3d
 822 00f6 AD000000 		.4byte	0xad
 823 00fa 03       		.uleb128 0x3
 824 00fb 92010000 		.4byte	.LASF22
 825 00ff 05       		.byte	0x5
 826 0100 40       		.byte	0x40
 827 0101 CE000000 		.4byte	0xce
 828 0105 03       		.uleb128 0x3
 829 0106 50030000 		.4byte	.LASF23
 830 010a 05       		.byte	0x5
 831 010b 41       		.byte	0x41
 832 010c C3000000 		.4byte	0xc3
 833 0110 03       		.uleb128 0x3
 834 0111 50040000 		.4byte	.LASF24
 835 0115 05       		.byte	0x5
 836 0116 44       		.byte	0x44
 837 0117 CE000000 		.4byte	0xce
 838 011b 03       		.uleb128 0x3
 839 011c DC010000 		.4byte	.LASF25
 840 0120 05       		.byte	0x5
 841 0121 45       		.byte	0x45
 842 0122 C3000000 		.4byte	0xc3
 843 0126 03       		.uleb128 0x3
 844 0127 5E000000 		.4byte	.LASF26
 845 012b 06       		.byte	0x6
 846 012c 35       		.byte	0x35
 847 012d B8000000 		.4byte	0xb8
 848 0131 03       		.uleb128 0x3
 849 0132 24020000 		.4byte	.LASF27
 850 0136 06       		.byte	0x6
 851 0137 3F       		.byte	0x3f
 852 0138 3C010000 		.4byte	0x13c
 853 013c 05       		.uleb128 0x5
 854 013d 04030000 		.4byte	.LASF42
 855 0141 30       		.byte	0x30
 856 0142 07       		.byte	0x7
 857 0143 C2       		.byte	0xc2
ARM GAS  /tmp/cca4i599.s 			page 42


 858 0144 E9010000 		.4byte	0x1e9
 859 0148 06       		.uleb128 0x6
 860 0149 17050000 		.4byte	.LASF28
 861 014d 07       		.byte	0x7
 862 014e C3       		.byte	0xc3
 863 014f F4010000 		.4byte	0x1f4
 864 0153 00       		.byte	0
 865 0154 06       		.uleb128 0x6
 866 0155 61050000 		.4byte	.LASF29
 867 0159 07       		.byte	0x7
 868 015a C5       		.byte	0xc5
 869 015b F4010000 		.4byte	0x1f4
 870 015f 04       		.byte	0x4
 871 0160 06       		.uleb128 0x6
 872 0161 51000000 		.4byte	.LASF30
 873 0165 07       		.byte	0x7
 874 0166 C7       		.byte	0xc7
 875 0167 FA000000 		.4byte	0xfa
 876 016b 08       		.byte	0x8
 877 016c 06       		.uleb128 0x6
 878 016d 27050000 		.4byte	.LASF31
 879 0171 07       		.byte	0x7
 880 0172 C8       		.byte	0xc8
 881 0173 E1040000 		.4byte	0x4e1
 882 0177 0C       		.byte	0xc
 883 0178 06       		.uleb128 0x6
 884 0179 FF010000 		.4byte	.LASF32
 885 017d 07       		.byte	0x7
 886 017e CA       		.byte	0xca
 887 017f F4010000 		.4byte	0x1f4
 888 0183 10       		.byte	0x10
 889 0184 06       		.uleb128 0x6
 890 0185 CF020000 		.4byte	.LASF33
 891 0189 07       		.byte	0x7
 892 018a CB       		.byte	0xcb
 893 018b F4010000 		.4byte	0x1f4
 894 018f 14       		.byte	0x14
 895 0190 06       		.uleb128 0x6
 896 0191 8F020000 		.4byte	.LASF34
 897 0195 07       		.byte	0x7
 898 0196 D2       		.byte	0xd2
 899 0197 2B060000 		.4byte	0x62b
 900 019b 18       		.byte	0x18
 901 019c 06       		.uleb128 0x6
 902 019d D7020000 		.4byte	.LASF35
 903 01a1 07       		.byte	0x7
 904 01a2 DD       		.byte	0xdd
 905 01a3 EF000000 		.4byte	0xef
 906 01a7 1C       		.byte	0x1c
 907 01a8 06       		.uleb128 0x6
 908 01a9 5E030000 		.4byte	.LASF36
 909 01ad 07       		.byte	0x7
 910 01ae E1       		.byte	0xe1
 911 01af E4000000 		.4byte	0xe4
 912 01b3 1D       		.byte	0x1d
 913 01b4 07       		.uleb128 0x7
 914 01b5 705F7500 		.ascii	"p_u\000"
ARM GAS  /tmp/cca4i599.s 			page 43


 915 01b9 07       		.byte	0x7
 916 01ba 3101     		.2byte	0x131
 917 01bc 72050000 		.4byte	0x572
 918 01c0 20       		.byte	0x20
 919 01c1 08       		.uleb128 0x8
 920 01c2 20000000 		.4byte	.LASF37
 921 01c6 07       		.byte	0x7
 922 01c7 3601     		.2byte	0x136
 923 01c9 FA010000 		.4byte	0x1fa
 924 01cd 24       		.byte	0x24
 925 01ce 08       		.uleb128 0x8
 926 01cf FA020000 		.4byte	.LASF38
 927 01d3 07       		.byte	0x7
 928 01d4 4D01     		.2byte	0x14d
 929 01d6 25060000 		.4byte	0x625
 930 01da 28       		.byte	0x28
 931 01db 08       		.uleb128 0x8
 932 01dc AB040000 		.4byte	.LASF39
 933 01e0 07       		.byte	0x7
 934 01e1 5101     		.2byte	0x151
 935 01e3 FA000000 		.4byte	0xfa
 936 01e7 2C       		.byte	0x2c
 937 01e8 00       		.byte	0
 938 01e9 03       		.uleb128 0x3
 939 01ea 9F020000 		.4byte	.LASF40
 940 01ee 06       		.byte	0x6
 941 01ef 44       		.byte	0x44
 942 01f0 F4010000 		.4byte	0x1f4
 943 01f4 09       		.uleb128 0x9
 944 01f5 04       		.byte	0x4
 945 01f6 31010000 		.4byte	0x131
 946 01fa 03       		.uleb128 0x3
 947 01fb 97000000 		.4byte	.LASF41
 948 01ff 06       		.byte	0x6
 949 0200 49       		.byte	0x49
 950 0201 05020000 		.4byte	0x205
 951 0205 05       		.uleb128 0x5
 952 0206 00000000 		.4byte	.LASF43
 953 020a 04       		.byte	0x4
 954 020b 07       		.byte	0x7
 955 020c B0       		.byte	0xb0
 956 020d 1E020000 		.4byte	0x21e
 957 0211 06       		.uleb128 0x6
 958 0212 17050000 		.4byte	.LASF28
 959 0216 07       		.byte	0x7
 960 0217 B1       		.byte	0xb1
 961 0218 F4010000 		.4byte	0x1f4
 962 021c 00       		.byte	0
 963 021d 00       		.byte	0
 964 021e 03       		.uleb128 0x3
 965 021f 10000000 		.4byte	.LASF44
 966 0223 06       		.byte	0x6
 967 0224 50       		.byte	0x50
 968 0225 29020000 		.4byte	0x229
 969 0229 05       		.uleb128 0x5
 970 022a F4000000 		.4byte	.LASF45
 971 022e 08       		.byte	0x8
ARM GAS  /tmp/cca4i599.s 			page 44


 972 022f 07       		.byte	0x7
 973 0230 B7       		.byte	0xb7
 974 0231 4E020000 		.4byte	0x24e
 975 0235 06       		.uleb128 0x6
 976 0236 17050000 		.4byte	.LASF28
 977 023a 07       		.byte	0x7
 978 023b B8       		.byte	0xb8
 979 023c F4010000 		.4byte	0x1f4
 980 0240 00       		.byte	0
 981 0241 06       		.uleb128 0x6
 982 0242 61050000 		.4byte	.LASF29
 983 0246 07       		.byte	0x7
 984 0247 B9       		.byte	0xb9
 985 0248 F4010000 		.4byte	0x1f4
 986 024c 04       		.byte	0x4
 987 024d 00       		.byte	0
 988 024e 03       		.uleb128 0x3
 989 024f 83050000 		.4byte	.LASF46
 990 0253 06       		.byte	0x6
 991 0254 57       		.byte	0x57
 992 0255 59020000 		.4byte	0x259
 993 0259 0A       		.uleb128 0xa
 994 025a D7000000 		.4byte	.LASF47
 995 025e 1C       		.byte	0x1c
 996 025f 07       		.byte	0x7
 997 0260 9001     		.2byte	0x190
 998 0262 B5020000 		.4byte	0x2b5
 999 0266 08       		.uleb128 0x8
 1000 0267 40030000 		.4byte	.LASF48
 1001 026b 07       		.byte	0x7
 1002 026c 9101     		.2byte	0x191
 1003 026e 1E020000 		.4byte	0x21e
 1004 0272 00       		.byte	0
 1005 0273 08       		.uleb128 0x8
 1006 0274 67010000 		.4byte	.LASF49
 1007 0278 07       		.byte	0x7
 1008 0279 9201     		.2byte	0x192
 1009 027b FA000000 		.4byte	0xfa
 1010 027f 08       		.byte	0x8
 1011 0280 08       		.uleb128 0x8
 1012 0281 41060000 		.4byte	.LASF50
 1013 0285 07       		.byte	0x7
 1014 0286 9401     		.2byte	0x194
 1015 0288 E1040000 		.4byte	0x4e1
 1016 028c 0C       		.byte	0xc
 1017 028d 08       		.uleb128 0x8
 1018 028e 48030000 		.4byte	.LASF51
 1019 0292 07       		.byte	0x7
 1020 0293 9701     		.2byte	0x197
 1021 0295 F4010000 		.4byte	0x1f4
 1022 0299 10       		.byte	0x10
 1023 029a 08       		.uleb128 0x8
 1024 029b 48040000 		.4byte	.LASF52
 1025 029f 07       		.byte	0x7
 1026 02a0 9801     		.2byte	0x198
 1027 02a2 F4010000 		.4byte	0x1f4
 1028 02a6 14       		.byte	0x14
ARM GAS  /tmp/cca4i599.s 			page 45


 1029 02a7 08       		.uleb128 0x8
 1030 02a8 D4040000 		.4byte	.LASF53
 1031 02ac 07       		.byte	0x7
 1032 02ad 9B01     		.2byte	0x19b
 1033 02af F4010000 		.4byte	0x1f4
 1034 02b3 18       		.byte	0x18
 1035 02b4 00       		.byte	0
 1036 02b5 03       		.uleb128 0x3
 1037 02b6 05010000 		.4byte	.LASF54
 1038 02ba 06       		.byte	0x6
 1039 02bb 5C       		.byte	0x5c
 1040 02bc C0020000 		.4byte	0x2c0
 1041 02c0 09       		.uleb128 0x9
 1042 02c1 04       		.byte	0x4
 1043 02c2 C6020000 		.4byte	0x2c6
 1044 02c6 0B       		.uleb128 0xb
 1045 02c7 D1020000 		.4byte	0x2d1
 1046 02cb 0C       		.uleb128 0xc
 1047 02cc D1020000 		.4byte	0x2d1
 1048 02d0 00       		.byte	0
 1049 02d1 0D       		.uleb128 0xd
 1050 02d2 04       		.byte	0x4
 1051 02d3 03       		.uleb128 0x3
 1052 02d4 66030000 		.4byte	.LASF55
 1053 02d8 06       		.byte	0x6
 1054 02d9 61       		.byte	0x61
 1055 02da DE020000 		.4byte	0x2de
 1056 02de 0A       		.uleb128 0xa
 1057 02df 9A010000 		.4byte	.LASF56
 1058 02e3 14       		.byte	0x14
 1059 02e4 07       		.byte	0x7
 1060 02e5 6B01     		.2byte	0x16b
 1061 02e7 2D030000 		.4byte	0x32d
 1062 02eb 08       		.uleb128 0x8
 1063 02ec F2050000 		.4byte	.LASF57
 1064 02f0 07       		.byte	0x7
 1065 02f1 6C01     		.2byte	0x16c
 1066 02f3 3D060000 		.4byte	0x63d
 1067 02f7 00       		.byte	0
 1068 02f8 08       		.uleb128 0x8
 1069 02f9 5F060000 		.4byte	.LASF58
 1070 02fd 07       		.byte	0x7
 1071 02fe 6D01     		.2byte	0x16d
 1072 0300 3D060000 		.4byte	0x63d
 1073 0304 04       		.byte	0x4
 1074 0305 08       		.uleb128 0x8
 1075 0306 96020000 		.4byte	.LASF59
 1076 030a 07       		.byte	0x7
 1077 030b 6E01     		.2byte	0x16e
 1078 030d 26010000 		.4byte	0x126
 1079 0311 08       		.byte	0x8
 1080 0312 08       		.uleb128 0x8
 1081 0313 57060000 		.4byte	.LASF60
 1082 0317 07       		.byte	0x7
 1083 0318 6F01     		.2byte	0x16f
 1084 031a B5020000 		.4byte	0x2b5
 1085 031e 0C       		.byte	0xc
ARM GAS  /tmp/cca4i599.s 			page 46


 1086 031f 08       		.uleb128 0x8
 1087 0320 6E010000 		.4byte	.LASF61
 1088 0324 07       		.byte	0x7
 1089 0325 7101     		.2byte	0x171
 1090 0327 D1020000 		.4byte	0x2d1
 1091 032b 10       		.byte	0x10
 1092 032c 00       		.byte	0
 1093 032d 03       		.uleb128 0x3
 1094 032e C7050000 		.4byte	.LASF62
 1095 0332 06       		.byte	0x6
 1096 0333 66       		.byte	0x66
 1097 0334 38030000 		.4byte	0x338
 1098 0338 0A       		.uleb128 0xa
 1099 0339 0D020000 		.4byte	.LASF63
 1100 033d 0C       		.byte	0xc
 1101 033e 07       		.byte	0x7
 1102 033f 7B01     		.2byte	0x17b
 1103 0341 7A030000 		.4byte	0x37a
 1104 0345 08       		.uleb128 0x8
 1105 0346 F2050000 		.4byte	.LASF57
 1106 034a 07       		.byte	0x7
 1107 034b 7C01     		.2byte	0x17c
 1108 034d 3D060000 		.4byte	0x63d
 1109 0351 00       		.byte	0
 1110 0352 08       		.uleb128 0x8
 1111 0353 5F060000 		.4byte	.LASF58
 1112 0357 07       		.byte	0x7
 1113 0358 7E01     		.2byte	0x17e
 1114 035a 3D060000 		.4byte	0x63d
 1115 035e 04       		.byte	0x4
 1116 035f 08       		.uleb128 0x8
 1117 0360 96020000 		.4byte	.LASF59
 1118 0364 07       		.byte	0x7
 1119 0365 8001     		.2byte	0x180
 1120 0367 26010000 		.4byte	0x126
 1121 036b 08       		.byte	0x8
 1122 036c 08       		.uleb128 0x8
 1123 036d B2020000 		.4byte	.LASF64
 1124 0371 07       		.byte	0x7
 1125 0372 8801     		.2byte	0x188
 1126 0374 26010000 		.4byte	0x126
 1127 0378 0A       		.byte	0xa
 1128 0379 00       		.byte	0
 1129 037a 03       		.uleb128 0x3
 1130 037b 14030000 		.4byte	.LASF65
 1131 037f 06       		.byte	0x6
 1132 0380 6B       		.byte	0x6b
 1133 0381 85030000 		.4byte	0x385
 1134 0385 0A       		.uleb128 0xa
 1135 0386 1B010000 		.4byte	.LASF66
 1136 038a 04       		.byte	0x4
 1137 038b 07       		.byte	0x7
 1138 038c A201     		.2byte	0x1a2
 1139 038e A0030000 		.4byte	0x3a0
 1140 0392 08       		.uleb128 0x8
 1141 0393 5D040000 		.4byte	.LASF67
 1142 0397 07       		.byte	0x7
ARM GAS  /tmp/cca4i599.s 			page 47


 1143 0398 AA01     		.2byte	0x1aa
 1144 039a 43060000 		.4byte	0x643
 1145 039e 00       		.byte	0
 1146 039f 00       		.byte	0
 1147 03a0 03       		.uleb128 0x3
 1148 03a1 FA050000 		.4byte	.LASF68
 1149 03a5 06       		.byte	0x6
 1150 03a6 70       		.byte	0x70
 1151 03a7 AB030000 		.4byte	0x3ab
 1152 03ab 0E       		.uleb128 0xe
 1153 03ac 06050000 		.4byte	.LASF69
 1154 03b0 2801     		.2byte	0x128
 1155 03b2 07       		.byte	0x7
 1156 03b3 C201     		.2byte	0x1c2
 1157 03b5 FB030000 		.4byte	0x3fb
 1158 03b9 08       		.uleb128 0x8
 1159 03ba 2D050000 		.4byte	.LASF70
 1160 03be 07       		.byte	0x7
 1161 03bf C601     		.2byte	0x1c6
 1162 03c1 4E020000 		.4byte	0x24e
 1163 03c5 00       		.byte	0
 1164 03c6 08       		.uleb128 0x8
 1165 03c7 C9000000 		.4byte	.LASF71
 1166 03cb 07       		.byte	0x7
 1167 03cc CA01     		.2byte	0x1ca
 1168 03ce 2D030000 		.4byte	0x32d
 1169 03d2 1C       		.byte	0x1c
 1170 03d3 07       		.uleb128 0x7
 1171 03d4 64626700 		.ascii	"dbg\000"
 1172 03d8 07       		.byte	0x7
 1173 03d9 CE01     		.2byte	0x1ce
 1174 03db 7A030000 		.4byte	0x37a
 1175 03df 28       		.byte	0x28
 1176 03e0 08       		.uleb128 0x8
 1177 03e1 6F040000 		.4byte	.LASF72
 1178 03e5 07       		.byte	0x7
 1179 03e6 D201     		.2byte	0x1d2
 1180 03e8 31010000 		.4byte	0x131
 1181 03ec 2C       		.byte	0x2c
 1182 03ed 08       		.uleb128 0x8
 1183 03ee E5000000 		.4byte	.LASF73
 1184 03f2 07       		.byte	0x7
 1185 03f3 E301     		.2byte	0x1e3
 1186 03f5 48060000 		.4byte	0x648
 1187 03f9 60       		.byte	0x60
 1188 03fa 00       		.byte	0
 1189 03fb 04       		.uleb128 0x4
 1190 03fc 04       		.byte	0x4
 1191 03fd 07       		.byte	0x7
 1192 03fe 68050000 		.4byte	.LASF74
 1193 0402 0F       		.uleb128 0xf
 1194 0403 CE000000 		.4byte	0xce
 1195 0407 0F       		.uleb128 0xf
 1196 0408 B8000000 		.4byte	0xb8
 1197 040c 10       		.uleb128 0x10
 1198 040d 2C       		.byte	0x2c
 1199 040e 08       		.byte	0x8
ARM GAS  /tmp/cca4i599.s 			page 48


 1200 040f 9901     		.2byte	0x199
 1201 0411 BF040000 		.4byte	0x4bf
 1202 0415 07       		.uleb128 0x7
 1203 0416 43523100 		.ascii	"CR1\000"
 1204 041a 08       		.byte	0x8
 1205 041b 9B01     		.2byte	0x19b
 1206 041d 02040000 		.4byte	0x402
 1207 0421 00       		.byte	0
 1208 0422 07       		.uleb128 0x7
 1209 0423 43523200 		.ascii	"CR2\000"
 1210 0427 08       		.byte	0x8
 1211 0428 9C01     		.2byte	0x19c
 1212 042a 02040000 		.4byte	0x402
 1213 042e 04       		.byte	0x4
 1214 042f 07       		.uleb128 0x7
 1215 0430 43523300 		.ascii	"CR3\000"
 1216 0434 08       		.byte	0x8
 1217 0435 9D01     		.2byte	0x19d
 1218 0437 02040000 		.4byte	0x402
 1219 043b 08       		.byte	0x8
 1220 043c 07       		.uleb128 0x7
 1221 043d 42525200 		.ascii	"BRR\000"
 1222 0441 08       		.byte	0x8
 1223 0442 9E01     		.2byte	0x19e
 1224 0444 02040000 		.4byte	0x402
 1225 0448 0C       		.byte	0xc
 1226 0449 08       		.uleb128 0x8
 1227 044a 62010000 		.4byte	.LASF75
 1228 044e 08       		.byte	0x8
 1229 044f 9F01     		.2byte	0x19f
 1230 0451 02040000 		.4byte	0x402
 1231 0455 10       		.byte	0x10
 1232 0456 08       		.uleb128 0x8
 1233 0457 E7020000 		.4byte	.LASF76
 1234 045b 08       		.byte	0x8
 1235 045c A001     		.2byte	0x1a0
 1236 045e 02040000 		.4byte	0x402
 1237 0462 14       		.byte	0x14
 1238 0463 07       		.uleb128 0x7
 1239 0464 52515200 		.ascii	"RQR\000"
 1240 0468 08       		.byte	0x8
 1241 0469 A101     		.2byte	0x1a1
 1242 046b 02040000 		.4byte	0x402
 1243 046f 18       		.byte	0x18
 1244 0470 07       		.uleb128 0x7
 1245 0471 49535200 		.ascii	"ISR\000"
 1246 0475 08       		.byte	0x8
 1247 0476 A201     		.2byte	0x1a2
 1248 0478 02040000 		.4byte	0x402
 1249 047c 1C       		.byte	0x1c
 1250 047d 07       		.uleb128 0x7
 1251 047e 49435200 		.ascii	"ICR\000"
 1252 0482 08       		.byte	0x8
 1253 0483 A301     		.2byte	0x1a3
 1254 0485 02040000 		.4byte	0x402
 1255 0489 20       		.byte	0x20
 1256 048a 07       		.uleb128 0x7
ARM GAS  /tmp/cca4i599.s 			page 49


 1257 048b 52445200 		.ascii	"RDR\000"
 1258 048f 08       		.byte	0x8
 1259 0490 A401     		.2byte	0x1a4
 1260 0492 07040000 		.4byte	0x407
 1261 0496 24       		.byte	0x24
 1262 0497 08       		.uleb128 0x8
 1263 0498 B6040000 		.4byte	.LASF77
 1264 049c 08       		.byte	0x8
 1265 049d A501     		.2byte	0x1a5
 1266 049f B8000000 		.4byte	0xb8
 1267 04a3 26       		.byte	0x26
 1268 04a4 07       		.uleb128 0x7
 1269 04a5 54445200 		.ascii	"TDR\000"
 1270 04a9 08       		.byte	0x8
 1271 04aa A601     		.2byte	0x1a6
 1272 04ac 07040000 		.4byte	0x407
 1273 04b0 28       		.byte	0x28
 1274 04b1 08       		.uleb128 0x8
 1275 04b2 C0040000 		.4byte	.LASF78
 1276 04b6 08       		.byte	0x8
 1277 04b7 A701     		.2byte	0x1a7
 1278 04b9 B8000000 		.4byte	0xb8
 1279 04bd 2A       		.byte	0x2a
 1280 04be 00       		.byte	0
 1281 04bf 11       		.uleb128 0x11
 1282 04c0 6C020000 		.4byte	.LASF79
 1283 04c4 08       		.byte	0x8
 1284 04c5 A801     		.2byte	0x1a8
 1285 04c7 0C040000 		.4byte	0x40c
 1286 04cb 03       		.uleb128 0x3
 1287 04cc 48000000 		.4byte	.LASF80
 1288 04d0 09       		.byte	0x9
 1289 04d1 65       		.byte	0x65
 1290 04d2 D1020000 		.4byte	0x2d1
 1291 04d6 03       		.uleb128 0x3
 1292 04d7 47060000 		.4byte	.LASF81
 1293 04db 09       		.byte	0x9
 1294 04dc 6D       		.byte	0x6d
 1295 04dd D9000000 		.4byte	0xd9
 1296 04e1 05       		.uleb128 0x5
 1297 04e2 56030000 		.4byte	.LASF82
 1298 04e6 04       		.byte	0x4
 1299 04e7 09       		.byte	0x9
 1300 04e8 89       		.byte	0x89
 1301 04e9 FA040000 		.4byte	0x4fa
 1302 04ed 12       		.uleb128 0x12
 1303 04ee 72313300 		.ascii	"r13\000"
 1304 04f2 09       		.byte	0x9
 1305 04f3 8A       		.byte	0x8a
 1306 04f4 6C050000 		.4byte	0x56c
 1307 04f8 00       		.byte	0
 1308 04f9 00       		.byte	0
 1309 04fa 05       		.uleb128 0x5
 1310 04fb EF040000 		.4byte	.LASF83
 1311 04ff 24       		.byte	0x24
 1312 0500 0A       		.byte	0xa
 1313 0501 A4       		.byte	0xa4
ARM GAS  /tmp/cca4i599.s 			page 50


 1314 0502 6C050000 		.4byte	0x56c
 1315 0506 12       		.uleb128 0x12
 1316 0507 723800   		.ascii	"r8\000"
 1317 050a 0A       		.byte	0xa
 1318 050b A5       		.byte	0xa5
 1319 050c CB040000 		.4byte	0x4cb
 1320 0510 00       		.byte	0
 1321 0511 12       		.uleb128 0x12
 1322 0512 723900   		.ascii	"r9\000"
 1323 0515 0A       		.byte	0xa
 1324 0516 A6       		.byte	0xa6
 1325 0517 CB040000 		.4byte	0x4cb
 1326 051b 04       		.byte	0x4
 1327 051c 12       		.uleb128 0x12
 1328 051d 72313000 		.ascii	"r10\000"
 1329 0521 0A       		.byte	0xa
 1330 0522 A7       		.byte	0xa7
 1331 0523 CB040000 		.4byte	0x4cb
 1332 0527 08       		.byte	0x8
 1333 0528 12       		.uleb128 0x12
 1334 0529 72313100 		.ascii	"r11\000"
 1335 052d 0A       		.byte	0xa
 1336 052e A8       		.byte	0xa8
 1337 052f CB040000 		.4byte	0x4cb
 1338 0533 0C       		.byte	0xc
 1339 0534 12       		.uleb128 0x12
 1340 0535 723400   		.ascii	"r4\000"
 1341 0538 0A       		.byte	0xa
 1342 0539 A9       		.byte	0xa9
 1343 053a CB040000 		.4byte	0x4cb
 1344 053e 10       		.byte	0x10
 1345 053f 12       		.uleb128 0x12
 1346 0540 723500   		.ascii	"r5\000"
 1347 0543 0A       		.byte	0xa
 1348 0544 AA       		.byte	0xaa
 1349 0545 CB040000 		.4byte	0x4cb
 1350 0549 14       		.byte	0x14
 1351 054a 12       		.uleb128 0x12
 1352 054b 723600   		.ascii	"r6\000"
 1353 054e 0A       		.byte	0xa
 1354 054f AB       		.byte	0xab
 1355 0550 CB040000 		.4byte	0x4cb
 1356 0554 18       		.byte	0x18
 1357 0555 12       		.uleb128 0x12
 1358 0556 723700   		.ascii	"r7\000"
 1359 0559 0A       		.byte	0xa
 1360 055a AC       		.byte	0xac
 1361 055b CB040000 		.4byte	0x4cb
 1362 055f 1C       		.byte	0x1c
 1363 0560 12       		.uleb128 0x12
 1364 0561 6C7200   		.ascii	"lr\000"
 1365 0564 0A       		.byte	0xa
 1366 0565 AD       		.byte	0xad
 1367 0566 CB040000 		.4byte	0x4cb
 1368 056a 20       		.byte	0x20
 1369 056b 00       		.byte	0
 1370 056c 09       		.uleb128 0x9
ARM GAS  /tmp/cca4i599.s 			page 51


 1371 056d 04       		.byte	0x4
 1372 056e FA040000 		.4byte	0x4fa
 1373 0572 13       		.uleb128 0x13
 1374 0573 04       		.byte	0x4
 1375 0574 07       		.byte	0x7
 1376 0575 FA       		.byte	0xfa
 1377 0576 C3050000 		.4byte	0x5c3
 1378 057a 14       		.uleb128 0x14
 1379 057b 43020000 		.4byte	.LASF84
 1380 057f 07       		.byte	0x7
 1381 0580 0101     		.2byte	0x101
 1382 0582 05010000 		.4byte	0x105
 1383 0586 14       		.uleb128 0x14
 1384 0587 6E060000 		.4byte	.LASF85
 1385 058b 07       		.byte	0x7
 1386 058c 0801     		.2byte	0x108
 1387 058e 05010000 		.4byte	0x105
 1388 0592 14       		.uleb128 0x14
 1389 0593 C2000000 		.4byte	.LASF86
 1390 0597 07       		.byte	0x7
 1391 0598 0F01     		.2byte	0x10f
 1392 059a D1020000 		.4byte	0x2d1
 1393 059e 14       		.uleb128 0x14
 1394 059f 06060000 		.4byte	.LASF87
 1395 05a3 07       		.byte	0x7
 1396 05a4 1601     		.2byte	0x116
 1397 05a6 C3050000 		.4byte	0x5c3
 1398 05aa 14       		.uleb128 0x14
 1399 05ab 9F050000 		.4byte	.LASF88
 1400 05af 07       		.byte	0x7
 1401 05b0 1E01     		.2byte	0x11e
 1402 05b2 EE050000 		.4byte	0x5ee
 1403 05b6 14       		.uleb128 0x14
 1404 05b7 67060000 		.4byte	.LASF89
 1405 05bb 07       		.byte	0x7
 1406 05bc 2701     		.2byte	0x127
 1407 05be 25060000 		.4byte	0x625
 1408 05c2 00       		.byte	0
 1409 05c3 09       		.uleb128 0x9
 1410 05c4 04       		.byte	0x4
 1411 05c5 E9010000 		.4byte	0x1e9
 1412 05c9 05       		.uleb128 0x5
 1413 05ca 85010000 		.4byte	.LASF90
 1414 05ce 0C       		.byte	0xc
 1415 05cf 0B       		.byte	0xb
 1416 05d0 34       		.byte	0x34
 1417 05d1 EE050000 		.4byte	0x5ee
 1418 05d5 06       		.uleb128 0x6
 1419 05d6 70000000 		.4byte	.LASF91
 1420 05da 0B       		.byte	0xb
 1421 05db 35       		.byte	0x35
 1422 05dc 1E020000 		.4byte	0x21e
 1423 05e0 00       		.byte	0
 1424 05e1 06       		.uleb128 0x6
 1425 05e2 15010000 		.4byte	.LASF92
 1426 05e6 0B       		.byte	0xb
 1427 05e7 37       		.byte	0x37
ARM GAS  /tmp/cca4i599.s 			page 52


 1428 05e8 1B010000 		.4byte	0x11b
 1429 05ec 08       		.byte	0x8
 1430 05ed 00       		.byte	0
 1431 05ee 09       		.uleb128 0x9
 1432 05ef 04       		.byte	0x4
 1433 05f0 C9050000 		.4byte	0x5c9
 1434 05f4 05       		.uleb128 0x5
 1435 05f5 58020000 		.4byte	.LASF93
 1436 05f9 10       		.byte	0x10
 1437 05fa 0C       		.byte	0xc
 1438 05fb 39       		.byte	0x39
 1439 05fc 25060000 		.4byte	0x625
 1440 0600 06       		.uleb128 0x6
 1441 0601 DE040000 		.4byte	.LASF94
 1442 0605 0C       		.byte	0xc
 1443 0606 3A       		.byte	0x3a
 1444 0607 1E020000 		.4byte	0x21e
 1445 060b 00       		.byte	0
 1446 060c 06       		.uleb128 0x6
 1447 060d 68000000 		.4byte	.LASF95
 1448 0611 0C       		.byte	0xc
 1449 0612 3C       		.byte	0x3c
 1450 0613 F4010000 		.4byte	0x1f4
 1451 0617 08       		.byte	0x8
 1452 0618 06       		.uleb128 0x6
 1453 0619 0C060000 		.4byte	.LASF96
 1454 061d 0C       		.byte	0xc
 1455 061e 3E       		.byte	0x3e
 1456 061f 63060000 		.4byte	0x663
 1457 0623 0C       		.byte	0xc
 1458 0624 00       		.byte	0
 1459 0625 09       		.uleb128 0x9
 1460 0626 04       		.byte	0x4
 1461 0627 F4050000 		.4byte	0x5f4
 1462 062b 09       		.uleb128 0x9
 1463 062c 04       		.byte	0x4
 1464 062d 31060000 		.4byte	0x631
 1465 0631 15       		.uleb128 0x15
 1466 0632 36060000 		.4byte	0x636
 1467 0636 04       		.uleb128 0x4
 1468 0637 01       		.byte	0x1
 1469 0638 08       		.byte	0x8
 1470 0639 43000000 		.4byte	.LASF97
 1471 063d 09       		.uleb128 0x9
 1472 063e 04       		.byte	0x4
 1473 063f D3020000 		.4byte	0x2d3
 1474 0643 0F       		.uleb128 0xf
 1475 0644 2B060000 		.4byte	0x62b
 1476 0648 16       		.uleb128 0x16
 1477 0649 D6040000 		.4byte	0x4d6
 1478 064d 58060000 		.4byte	0x658
 1479 0651 17       		.uleb128 0x17
 1480 0652 FB030000 		.4byte	0x3fb
 1481 0656 18       		.byte	0x18
 1482 0657 00       		.byte	0
 1483 0658 03       		.uleb128 0x3
 1484 0659 A6050000 		.4byte	.LASF98
ARM GAS  /tmp/cca4i599.s 			page 53


 1485 065d 0C       		.byte	0xc
 1486 065e 34       		.byte	0x34
 1487 065f F4050000 		.4byte	0x5f4
 1488 0663 09       		.uleb128 0x9
 1489 0664 04       		.byte	0x4
 1490 0665 58060000 		.4byte	0x658
 1491 0669 18       		.uleb128 0x18
 1492 066a 2C000000 		.4byte	0x2c
 1493 066e 82060000 		.4byte	0x682
 1494 0672 0C       		.uleb128 0xc
 1495 0673 D1020000 		.4byte	0x2d1
 1496 0677 0C       		.uleb128 0xc
 1497 0678 82060000 		.4byte	0x682
 1498 067c 0C       		.uleb128 0xc
 1499 067d 2C000000 		.4byte	0x2c
 1500 0681 00       		.byte	0
 1501 0682 09       		.uleb128 0x9
 1502 0683 04       		.byte	0x4
 1503 0684 88060000 		.4byte	0x688
 1504 0688 15       		.uleb128 0x15
 1505 0689 AD000000 		.4byte	0xad
 1506 068d 09       		.uleb128 0x9
 1507 068e 04       		.byte	0x4
 1508 068f 69060000 		.4byte	0x669
 1509 0693 18       		.uleb128 0x18
 1510 0694 2C000000 		.4byte	0x2c
 1511 0698 AC060000 		.4byte	0x6ac
 1512 069c 0C       		.uleb128 0xc
 1513 069d D1020000 		.4byte	0x2d1
 1514 06a1 0C       		.uleb128 0xc
 1515 06a2 AC060000 		.4byte	0x6ac
 1516 06a6 0C       		.uleb128 0xc
 1517 06a7 2C000000 		.4byte	0x2c
 1518 06ab 00       		.byte	0
 1519 06ac 09       		.uleb128 0x9
 1520 06ad 04       		.byte	0x4
 1521 06ae AD000000 		.4byte	0xad
 1522 06b2 09       		.uleb128 0x9
 1523 06b3 04       		.byte	0x4
 1524 06b4 93060000 		.4byte	0x693
 1525 06b8 18       		.uleb128 0x18
 1526 06b9 05010000 		.4byte	0x105
 1527 06bd CC060000 		.4byte	0x6cc
 1528 06c1 0C       		.uleb128 0xc
 1529 06c2 D1020000 		.4byte	0x2d1
 1530 06c6 0C       		.uleb128 0xc
 1531 06c7 AD000000 		.4byte	0xad
 1532 06cb 00       		.byte	0
 1533 06cc 09       		.uleb128 0x9
 1534 06cd 04       		.byte	0x4
 1535 06ce B8060000 		.4byte	0x6b8
 1536 06d2 18       		.uleb128 0x18
 1537 06d3 05010000 		.4byte	0x105
 1538 06d7 E1060000 		.4byte	0x6e1
 1539 06db 0C       		.uleb128 0xc
 1540 06dc D1020000 		.4byte	0x2d1
 1541 06e0 00       		.byte	0
ARM GAS  /tmp/cca4i599.s 			page 54


 1542 06e1 09       		.uleb128 0x9
 1543 06e2 04       		.byte	0x4
 1544 06e3 D2060000 		.4byte	0x6d2
 1545 06e7 19       		.uleb128 0x19
 1546 06e8 04       		.byte	0x4
 1547 06e9 0D       		.byte	0xd
 1548 06ea B5       		.byte	0xb5
 1549 06eb FC060000 		.4byte	0x6fc
 1550 06ef 06       		.uleb128 0x6
 1551 06f0 58000000 		.4byte	.LASF99
 1552 06f4 0D       		.byte	0xd
 1553 06f5 B6       		.byte	0xb6
 1554 06f6 FC060000 		.4byte	0x6fc
 1555 06fa 00       		.byte	0
 1556 06fb 00       		.byte	0
 1557 06fc 0F       		.uleb128 0xf
 1558 06fd 10010000 		.4byte	0x110
 1559 0701 03       		.uleb128 0x3
 1560 0702 C2010000 		.4byte	.LASF100
 1561 0706 0D       		.byte	0xd
 1562 0707 B8       		.byte	0xb8
 1563 0708 E7060000 		.4byte	0x6e7
 1564 070c 18       		.uleb128 0x18
 1565 070d 05010000 		.4byte	0x105
 1566 0711 25070000 		.4byte	0x725
 1567 0715 0C       		.uleb128 0xc
 1568 0716 D1020000 		.4byte	0x2d1
 1569 071a 0C       		.uleb128 0xc
 1570 071b AD000000 		.4byte	0xad
 1571 071f 0C       		.uleb128 0xc
 1572 0720 26010000 		.4byte	0x126
 1573 0724 00       		.byte	0
 1574 0725 09       		.uleb128 0x9
 1575 0726 04       		.byte	0x4
 1576 0727 0C070000 		.4byte	0x70c
 1577 072b 18       		.uleb128 0x18
 1578 072c 05010000 		.4byte	0x105
 1579 0730 3F070000 		.4byte	0x73f
 1580 0734 0C       		.uleb128 0xc
 1581 0735 D1020000 		.4byte	0x2d1
 1582 0739 0C       		.uleb128 0xc
 1583 073a 26010000 		.4byte	0x126
 1584 073e 00       		.byte	0
 1585 073f 09       		.uleb128 0x9
 1586 0740 04       		.byte	0x4
 1587 0741 2B070000 		.4byte	0x72b
 1588 0745 18       		.uleb128 0x18
 1589 0746 2C000000 		.4byte	0x2c
 1590 074a 63070000 		.4byte	0x763
 1591 074e 0C       		.uleb128 0xc
 1592 074f D1020000 		.4byte	0x2d1
 1593 0753 0C       		.uleb128 0xc
 1594 0754 82060000 		.4byte	0x682
 1595 0758 0C       		.uleb128 0xc
 1596 0759 2C000000 		.4byte	0x2c
 1597 075d 0C       		.uleb128 0xc
 1598 075e 26010000 		.4byte	0x126
ARM GAS  /tmp/cca4i599.s 			page 55


 1599 0762 00       		.byte	0
 1600 0763 09       		.uleb128 0x9
 1601 0764 04       		.byte	0x4
 1602 0765 45070000 		.4byte	0x745
 1603 0769 18       		.uleb128 0x18
 1604 076a 2C000000 		.4byte	0x2c
 1605 076e 87070000 		.4byte	0x787
 1606 0772 0C       		.uleb128 0xc
 1607 0773 D1020000 		.4byte	0x2d1
 1608 0777 0C       		.uleb128 0xc
 1609 0778 AC060000 		.4byte	0x6ac
 1610 077c 0C       		.uleb128 0xc
 1611 077d 2C000000 		.4byte	0x2c
 1612 0781 0C       		.uleb128 0xc
 1613 0782 26010000 		.4byte	0x126
 1614 0786 00       		.byte	0
 1615 0787 09       		.uleb128 0x9
 1616 0788 04       		.byte	0x4
 1617 0789 69070000 		.4byte	0x769
 1618 078d 04       		.uleb128 0x4
 1619 078e 01       		.byte	0x1
 1620 078f 02       		.byte	0x2
 1621 0790 4A020000 		.4byte	.LASF101
 1622 0794 03       		.uleb128 0x3
 1623 0795 78000000 		.4byte	.LASF102
 1624 0799 0E       		.byte	0xe
 1625 079a 2F       		.byte	0x2f
 1626 079b 9F070000 		.4byte	0x79f
 1627 079f 05       		.uleb128 0x5
 1628 07a0 1F060000 		.4byte	.LASF103
 1629 07a4 24       		.byte	0x24
 1630 07a5 0E       		.byte	0xe
 1631 07a6 40       		.byte	0x40
 1632 07a7 0C080000 		.4byte	0x80c
 1633 07ab 06       		.uleb128 0x6
 1634 07ac 58010000 		.4byte	.LASF104
 1635 07b0 0E       		.byte	0xe
 1636 07b1 41       		.byte	0x41
 1637 07b2 1E020000 		.4byte	0x21e
 1638 07b6 00       		.byte	0
 1639 07b7 06       		.uleb128 0x6
 1640 07b8 4C050000 		.4byte	.LASF105
 1641 07bc 0E       		.byte	0xe
 1642 07bd 42       		.byte	0x42
 1643 07be 2E080000 		.4byte	0x82e
 1644 07c2 08       		.byte	0x8
 1645 07c3 06       		.uleb128 0x6
 1646 07c4 37030000 		.4byte	.LASF106
 1647 07c8 0E       		.byte	0xe
 1648 07c9 43       		.byte	0x43
 1649 07ca AC060000 		.4byte	0x6ac
 1650 07ce 0C       		.byte	0xc
 1651 07cf 06       		.uleb128 0x6
 1652 07d0 5B050000 		.4byte	.LASF107
 1653 07d4 0E       		.byte	0xe
 1654 07d5 44       		.byte	0x44
 1655 07d6 AC060000 		.4byte	0x6ac
ARM GAS  /tmp/cca4i599.s 			page 56


 1656 07da 10       		.byte	0x10
 1657 07db 06       		.uleb128 0x6
 1658 07dc BE020000 		.4byte	.LASF108
 1659 07e0 0E       		.byte	0xe
 1660 07e1 46       		.byte	0x46
 1661 07e2 AC060000 		.4byte	0x6ac
 1662 07e6 14       		.byte	0x14
 1663 07e7 06       		.uleb128 0x6
 1664 07e8 A6000000 		.4byte	.LASF109
 1665 07ec 0E       		.byte	0xe
 1666 07ed 47       		.byte	0x47
 1667 07ee AC060000 		.4byte	0x6ac
 1668 07f2 18       		.byte	0x18
 1669 07f3 06       		.uleb128 0x6
 1670 07f4 7A020000 		.4byte	.LASF110
 1671 07f8 0E       		.byte	0xe
 1672 07f9 48       		.byte	0x48
 1673 07fa 0C080000 		.4byte	0x80c
 1674 07fe 1C       		.byte	0x1c
 1675 07ff 06       		.uleb128 0x6
 1676 0800 D0000000 		.4byte	.LASF111
 1677 0804 0E       		.byte	0xe
 1678 0805 49       		.byte	0x49
 1679 0806 D1020000 		.4byte	0x2d1
 1680 080a 20       		.byte	0x20
 1681 080b 00       		.byte	0
 1682 080c 03       		.uleb128 0x3
 1683 080d B8000000 		.4byte	.LASF112
 1684 0811 0E       		.byte	0xe
 1685 0812 36       		.byte	0x36
 1686 0813 17080000 		.4byte	0x817
 1687 0817 09       		.uleb128 0x9
 1688 0818 04       		.byte	0x4
 1689 0819 1D080000 		.4byte	0x81d
 1690 081d 0B       		.uleb128 0xb
 1691 081e 28080000 		.4byte	0x828
 1692 0822 0C       		.uleb128 0xc
 1693 0823 28080000 		.4byte	0x828
 1694 0827 00       		.byte	0
 1695 0828 09       		.uleb128 0x9
 1696 0829 04       		.byte	0x4
 1697 082a 94070000 		.4byte	0x794
 1698 082e 0F       		.uleb128 0xf
 1699 082f 2C000000 		.4byte	0x2c
 1700 0833 03       		.uleb128 0x3
 1701 0834 EC020000 		.4byte	.LASF113
 1702 0838 0E       		.byte	0xe
 1703 0839 7F       		.byte	0x7f
 1704 083a 94070000 		.4byte	0x794
 1705 083e 03       		.uleb128 0x3
 1706 083f 83030000 		.4byte	.LASF114
 1707 0843 0E       		.byte	0xe
 1708 0844 F1       		.byte	0xf1
 1709 0845 94070000 		.4byte	0x794
 1710 0849 19       		.uleb128 0x19
 1711 084a 04       		.byte	0x4
 1712 084b 0F       		.byte	0xf
ARM GAS  /tmp/cca4i599.s 			page 57


 1713 084c E7       		.byte	0xe7
 1714 084d 6A080000 		.4byte	0x86a
 1715 0851 12       		.uleb128 0x12
 1716 0852 73657400 		.ascii	"set\000"
 1717 0856 0F       		.byte	0xf
 1718 0857 E8       		.byte	0xe8
 1719 0858 B8000000 		.4byte	0xb8
 1720 085c 00       		.byte	0
 1721 085d 06       		.uleb128 0x6
 1722 085e 07020000 		.4byte	.LASF115
 1723 0862 0F       		.byte	0xf
 1724 0863 E9       		.byte	0xe9
 1725 0864 B8000000 		.4byte	0xb8
 1726 0868 02       		.byte	0x2
 1727 0869 00       		.byte	0
 1728 086a 13       		.uleb128 0x13
 1729 086b 04       		.byte	0x4
 1730 086c 0F       		.byte	0xf
 1731 086d E5       		.byte	0xe5
 1732 086e 85080000 		.4byte	0x885
 1733 0872 1A       		.uleb128 0x1a
 1734 0873 5700     		.ascii	"W\000"
 1735 0875 0F       		.byte	0xf
 1736 0876 E6       		.byte	0xe6
 1737 0877 CE000000 		.4byte	0xce
 1738 087b 1A       		.uleb128 0x1a
 1739 087c 4800     		.ascii	"H\000"
 1740 087e 0F       		.byte	0xf
 1741 087f EA       		.byte	0xea
 1742 0880 49080000 		.4byte	0x849
 1743 0884 00       		.byte	0
 1744 0885 19       		.uleb128 0x19
 1745 0886 2C       		.byte	0x2c
 1746 0887 0F       		.byte	0xf
 1747 0888 DD       		.byte	0xdd
 1748 0889 12090000 		.4byte	0x912
 1749 088d 06       		.uleb128 0x6
 1750 088e E2010000 		.4byte	.LASF116
 1751 0892 0F       		.byte	0xf
 1752 0893 DF       		.byte	0xdf
 1753 0894 02040000 		.4byte	0x402
 1754 0898 00       		.byte	0
 1755 0899 06       		.uleb128 0x6
 1756 089a 10050000 		.4byte	.LASF117
 1757 089e 0F       		.byte	0xf
 1758 089f E0       		.byte	0xe0
 1759 08a0 02040000 		.4byte	0x402
 1760 08a4 04       		.byte	0x4
 1761 08a5 06       		.uleb128 0x6
 1762 08a6 7A040000 		.4byte	.LASF118
 1763 08aa 0F       		.byte	0xf
 1764 08ab E1       		.byte	0xe1
 1765 08ac 02040000 		.4byte	0x402
 1766 08b0 08       		.byte	0x8
 1767 08b1 06       		.uleb128 0x6
 1768 08b2 89020000 		.4byte	.LASF119
 1769 08b6 0F       		.byte	0xf
ARM GAS  /tmp/cca4i599.s 			page 58


 1770 08b7 E2       		.byte	0xe2
 1771 08b8 02040000 		.4byte	0x402
 1772 08bc 0C       		.byte	0xc
 1773 08bd 12       		.uleb128 0x12
 1774 08be 49445200 		.ascii	"IDR\000"
 1775 08c2 0F       		.byte	0xf
 1776 08c3 E3       		.byte	0xe3
 1777 08c4 02040000 		.4byte	0x402
 1778 08c8 10       		.byte	0x10
 1779 08c9 12       		.uleb128 0x12
 1780 08ca 4F445200 		.ascii	"ODR\000"
 1781 08ce 0F       		.byte	0xf
 1782 08cf E4       		.byte	0xe4
 1783 08d0 02040000 		.4byte	0x402
 1784 08d4 14       		.byte	0x14
 1785 08d5 06       		.uleb128 0x6
 1786 08d6 3E000000 		.4byte	.LASF120
 1787 08da 0F       		.byte	0xf
 1788 08db EB       		.byte	0xeb
 1789 08dc 12090000 		.4byte	0x912
 1790 08e0 18       		.byte	0x18
 1791 08e1 06       		.uleb128 0x6
 1792 08e2 77060000 		.4byte	.LASF121
 1793 08e6 0F       		.byte	0xf
 1794 08e7 EC       		.byte	0xec
 1795 08e8 02040000 		.4byte	0x402
 1796 08ec 1C       		.byte	0x1c
 1797 08ed 06       		.uleb128 0x6
 1798 08ee FA010000 		.4byte	.LASF122
 1799 08f2 0F       		.byte	0xf
 1800 08f3 ED       		.byte	0xed
 1801 08f4 02040000 		.4byte	0x402
 1802 08f8 20       		.byte	0x20
 1803 08f9 06       		.uleb128 0x6
 1804 08fa E8010000 		.4byte	.LASF123
 1805 08fe 0F       		.byte	0xf
 1806 08ff EE       		.byte	0xee
 1807 0900 02040000 		.4byte	0x402
 1808 0904 24       		.byte	0x24
 1809 0905 12       		.uleb128 0x12
 1810 0906 42525200 		.ascii	"BRR\000"
 1811 090a 0F       		.byte	0xf
 1812 090b EF       		.byte	0xef
 1813 090c 02040000 		.4byte	0x402
 1814 0910 28       		.byte	0x28
 1815 0911 00       		.byte	0
 1816 0912 0F       		.uleb128 0xf
 1817 0913 6A080000 		.4byte	0x86a
 1818 0917 03       		.uleb128 0x3
 1819 0918 ED010000 		.4byte	.LASF124
 1820 091c 0F       		.byte	0xf
 1821 091d F0       		.byte	0xf0
 1822 091e 85080000 		.4byte	0x885
 1823 0922 11       		.uleb128 0x11
 1824 0923 76030000 		.4byte	.LASF125
 1825 0927 0F       		.byte	0xf
 1826 0928 3F01     		.2byte	0x13f
ARM GAS  /tmp/cca4i599.s 			page 59


 1827 092a CE000000 		.4byte	0xce
 1828 092e 1B       		.uleb128 0x1b
 1829 092f 01       		.byte	0x1
 1830 0930 10       		.byte	0x10
 1831 0931 55       		.byte	0x55
 1832 0932 49090000 		.4byte	0x949
 1833 0936 1C       		.uleb128 0x1c
 1834 0937 42050000 		.4byte	.LASF126
 1835 093b 00       		.sleb128 0
 1836 093c 1C       		.uleb128 0x1c
 1837 093d 50020000 		.4byte	.LASF127
 1838 0941 01       		.sleb128 1
 1839 0942 1C       		.uleb128 0x1c
 1840 0943 92040000 		.4byte	.LASF128
 1841 0947 02       		.sleb128 2
 1842 0948 00       		.byte	0
 1843 0949 03       		.uleb128 0x3
 1844 094a 75010000 		.4byte	.LASF129
 1845 094e 10       		.byte	0x10
 1846 094f 59       		.byte	0x59
 1847 0950 2E090000 		.4byte	0x92e
 1848 0954 03       		.uleb128 0x3
 1849 0955 2A000000 		.4byte	.LASF130
 1850 0959 10       		.byte	0x10
 1851 095a 5E       		.byte	0x5e
 1852 095b 5F090000 		.4byte	0x95f
 1853 095f 05       		.uleb128 0x5
 1854 0960 2A000000 		.4byte	.LASF130
 1855 0964 7C       		.byte	0x7c
 1856 0965 10       		.byte	0x10
 1857 0966 78       		.byte	0x78
 1858 0967 D6090000 		.4byte	0x9d6
 1859 096b 12       		.uleb128 0x12
 1860 096c 766D7400 		.ascii	"vmt\000"
 1861 0970 10       		.byte	0x10
 1862 0971 7A       		.byte	0x7a
 1863 0972 430A0000 		.4byte	0xa43
 1864 0976 00       		.byte	0
 1865 0977 06       		.uleb128 0x6
 1866 0978 7F010000 		.4byte	.LASF131
 1867 097c 10       		.byte	0x10
 1868 097d 7B       		.byte	0x7b
 1869 097e 01070000 		.4byte	0x701
 1870 0982 04       		.byte	0x4
 1871 0983 06       		.uleb128 0x6
 1872 0984 EC050000 		.4byte	.LASF132
 1873 0988 10       		.byte	0x10
 1874 0989 7B       		.byte	0x7b
 1875 098a 49090000 		.4byte	0x949
 1876 098e 08       		.byte	0x8
 1877 098f 06       		.uleb128 0x6
 1878 0990 48010000 		.4byte	.LASF133
 1879 0994 10       		.byte	0x10
 1880 0995 7B       		.byte	0x7b
 1881 0996 33080000 		.4byte	0x833
 1882 099a 0C       		.byte	0xc
 1883 099b 06       		.uleb128 0x6
ARM GAS  /tmp/cca4i599.s 			page 60


 1884 099c 82040000 		.4byte	.LASF134
 1885 09a0 10       		.byte	0x10
 1886 09a1 7B       		.byte	0x7b
 1887 09a2 3E080000 		.4byte	0x83e
 1888 09a6 30       		.byte	0x30
 1889 09a7 12       		.uleb128 0x12
 1890 09a8 696200   		.ascii	"ib\000"
 1891 09ab 10       		.byte	0x10
 1892 09ac 7B       		.byte	0x7b
 1893 09ad 4E0A0000 		.4byte	0xa4e
 1894 09b1 54       		.byte	0x54
 1895 09b2 12       		.uleb128 0x12
 1896 09b3 6F6200   		.ascii	"ob\000"
 1897 09b6 10       		.byte	0x10
 1898 09b7 7B       		.byte	0x7b
 1899 09b8 4E0A0000 		.4byte	0xa4e
 1900 09bc 64       		.byte	0x64
 1901 09bd 06       		.uleb128 0x6
 1902 09be 0E030000 		.4byte	.LASF135
 1903 09c2 10       		.byte	0x10
 1904 09c3 7B       		.byte	0x7b
 1905 09c4 5E0A0000 		.4byte	0xa5e
 1906 09c8 74       		.byte	0x74
 1907 09c9 06       		.uleb128 0x6
 1908 09ca 83020000 		.4byte	.LASF136
 1909 09ce 10       		.byte	0x10
 1910 09cf 7B       		.byte	0x7b
 1911 09d0 CE000000 		.4byte	0xce
 1912 09d4 78       		.byte	0x78
 1913 09d5 00       		.byte	0
 1914 09d6 05       		.uleb128 0x5
 1915 09d7 9B040000 		.4byte	.LASF137
 1916 09db 20       		.byte	0x20
 1917 09dc 10       		.byte	0x10
 1918 09dd 6D       		.byte	0x6d
 1919 09de 430A0000 		.4byte	0xa43
 1920 09e2 06       		.uleb128 0x6
 1921 09e3 31030000 		.4byte	.LASF138
 1922 09e7 10       		.byte	0x10
 1923 09e8 6E       		.byte	0x6e
 1924 09e9 8D060000 		.4byte	0x68d
 1925 09ed 00       		.byte	0
 1926 09ee 06       		.uleb128 0x6
 1927 09ef 3D050000 		.4byte	.LASF139
 1928 09f3 10       		.byte	0x10
 1929 09f4 6E       		.byte	0x6e
 1930 09f5 B2060000 		.4byte	0x6b2
 1931 09f9 04       		.byte	0x4
 1932 09fa 12       		.uleb128 0x12
 1933 09fb 70757400 		.ascii	"put\000"
 1934 09ff 10       		.byte	0x10
 1935 0a00 6E       		.byte	0x6e
 1936 0a01 CC060000 		.4byte	0x6cc
 1937 0a05 08       		.byte	0x8
 1938 0a06 12       		.uleb128 0x12
 1939 0a07 67657400 		.ascii	"get\000"
 1940 0a0b 10       		.byte	0x10
ARM GAS  /tmp/cca4i599.s 			page 61


 1941 0a0c 6E       		.byte	0x6e
 1942 0a0d E1060000 		.4byte	0x6e1
 1943 0a11 0C       		.byte	0xc
 1944 0a12 06       		.uleb128 0x6
 1945 0a13 2D020000 		.4byte	.LASF140
 1946 0a17 10       		.byte	0x10
 1947 0a18 6E       		.byte	0x6e
 1948 0a19 25070000 		.4byte	0x725
 1949 0a1d 10       		.byte	0x10
 1950 0a1e 06       		.uleb128 0x6
 1951 0a1f 56050000 		.4byte	.LASF141
 1952 0a23 10       		.byte	0x10
 1953 0a24 6E       		.byte	0x6e
 1954 0a25 3F070000 		.4byte	0x73f
 1955 0a29 14       		.byte	0x14
 1956 0a2a 06       		.uleb128 0x6
 1957 0a2b 0E010000 		.4byte	.LASF142
 1958 0a2f 10       		.byte	0x10
 1959 0a30 6E       		.byte	0x6e
 1960 0a31 63070000 		.4byte	0x763
 1961 0a35 18       		.byte	0x18
 1962 0a36 06       		.uleb128 0x6
 1963 0a37 28060000 		.4byte	.LASF143
 1964 0a3b 10       		.byte	0x10
 1965 0a3c 6E       		.byte	0x6e
 1966 0a3d 87070000 		.4byte	0x787
 1967 0a41 1C       		.byte	0x1c
 1968 0a42 00       		.byte	0
 1969 0a43 09       		.uleb128 0x9
 1970 0a44 04       		.byte	0x4
 1971 0a45 490A0000 		.4byte	0xa49
 1972 0a49 15       		.uleb128 0x15
 1973 0a4a D6090000 		.4byte	0x9d6
 1974 0a4e 16       		.uleb128 0x16
 1975 0a4f AD000000 		.4byte	0xad
 1976 0a53 5E0A0000 		.4byte	0xa5e
 1977 0a57 17       		.uleb128 0x17
 1978 0a58 FB030000 		.4byte	0x3fb
 1979 0a5c 0F       		.byte	0xf
 1980 0a5d 00       		.byte	0
 1981 0a5e 09       		.uleb128 0x9
 1982 0a5f 04       		.byte	0x4
 1983 0a60 BF040000 		.4byte	0x4bf
 1984 0a64 1D       		.uleb128 0x1d
 1985 0a65 DD050000 		.4byte	.LASF151
 1986 0a69 01       		.byte	0x1
 1987 0a6a 12       		.byte	0x12
 1988 0a6b 00000000 		.4byte	.LFB149
 1989 0a6f 70000000 		.4byte	.LFE149-.LFB149
 1990 0a73 01       		.uleb128 0x1
 1991 0a74 9C       		.byte	0x9c
 1992 0a75 A40A0000 		.4byte	0xaa4
 1993 0a79 1E       		.uleb128 0x1e
 1994 0a7a 98050000 		.4byte	.LASF144
 1995 0a7e 01       		.byte	0x1
 1996 0a7f 12       		.byte	0x12
 1997 0a80 AC060000 		.4byte	0x6ac
ARM GAS  /tmp/cca4i599.s 			page 62


 1998 0a84 02       		.uleb128 0x2
 1999 0a85 91       		.byte	0x91
 2000 0a86 6C       		.sleb128 -20
 2001 0a87 1F       		.uleb128 0x1f
 2002 0a88 6D736700 		.ascii	"msg\000"
 2003 0a8c 01       		.byte	0x1
 2004 0a8d 12       		.byte	0x12
 2005 0a8e AD000000 		.4byte	0xad
 2006 0a92 02       		.uleb128 0x2
 2007 0a93 91       		.byte	0x91
 2008 0a94 6B       		.sleb128 -21
 2009 0a95 20       		.uleb128 0x20
 2010 0a96 90000000 		.4byte	.LASF145
 2011 0a9a 01       		.byte	0x1
 2012 0a9b 14       		.byte	0x14
 2013 0a9c B8000000 		.4byte	0xb8
 2014 0aa0 02       		.uleb128 0x2
 2015 0aa1 91       		.byte	0x91
 2016 0aa2 76       		.sleb128 -10
 2017 0aa3 00       		.byte	0
 2018 0aa4 21       		.uleb128 0x21
 2019 0aa5 52060000 		.4byte	.LASF152
 2020 0aa9 01       		.byte	0x1
 2021 0aaa 1E       		.byte	0x1e
 2022 0aab 25000000 		.4byte	0x25
 2023 0aaf 00000000 		.4byte	.LFB150
 2024 0ab3 1C010000 		.4byte	.LFE150-.LFB150
 2025 0ab7 01       		.uleb128 0x1
 2026 0ab8 9C       		.byte	0x9c
 2027 0ab9 000B0000 		.4byte	0xb00
 2028 0abd 20       		.uleb128 0x20
 2029 0abe 32020000 		.4byte	.LASF146
 2030 0ac2 01       		.byte	0x1
 2031 0ac3 22       		.byte	0x22
 2032 0ac4 B8000000 		.4byte	0xb8
 2033 0ac8 02       		.uleb128 0x2
 2034 0ac9 91       		.byte	0x91
 2035 0aca 76       		.sleb128 -10
 2036 0acb 20       		.uleb128 0x20
 2037 0acc FB040000 		.4byte	.LASF147
 2038 0ad0 01       		.byte	0x1
 2039 0ad1 23       		.byte	0x23
 2040 0ad2 AD000000 		.4byte	0xad
 2041 0ad6 02       		.uleb128 0x2
 2042 0ad7 91       		.byte	0x91
 2043 0ad8 75       		.sleb128 -11
 2044 0ad9 20       		.uleb128 0x20
 2045 0ada 98050000 		.4byte	.LASF144
 2046 0ade 01       		.byte	0x1
 2047 0adf 24       		.byte	0x24
 2048 0ae0 000B0000 		.4byte	0xb00
 2049 0ae4 02       		.uleb128 0x2
 2050 0ae5 91       		.byte	0x91
 2051 0ae6 6C       		.sleb128 -20
 2052 0ae7 22       		.uleb128 0x22
 2053 0ae8 6900     		.ascii	"i\000"
 2054 0aea 01       		.byte	0x1
ARM GAS  /tmp/cca4i599.s 			page 63


 2055 0aeb 2A       		.byte	0x2a
 2056 0aec 100B0000 		.4byte	0xb10
 2057 0af0 02       		.uleb128 0x2
 2058 0af1 91       		.byte	0x91
 2059 0af2 68       		.sleb128 -24
 2060 0af3 22       		.uleb128 0x22
 2061 0af4 6A00     		.ascii	"j\000"
 2062 0af6 01       		.byte	0x1
 2063 0af7 2A       		.byte	0x2a
 2064 0af8 100B0000 		.4byte	0xb10
 2065 0afc 02       		.uleb128 0x2
 2066 0afd 91       		.byte	0x91
 2067 0afe 64       		.sleb128 -28
 2068 0aff 00       		.byte	0
 2069 0b00 16       		.uleb128 0x16
 2070 0b01 AD000000 		.4byte	0xad
 2071 0b05 100B0000 		.4byte	0xb10
 2072 0b09 17       		.uleb128 0x17
 2073 0b0a FB030000 		.4byte	0x3fb
 2074 0b0e 06       		.byte	0x6
 2075 0b0f 00       		.byte	0
 2076 0b10 0F       		.uleb128 0xf
 2077 0b11 7B000000 		.4byte	0x7b
 2078 0b15 23       		.uleb128 0x23
 2079 0b16 636800   		.ascii	"ch\000"
 2080 0b19 07       		.byte	0x7
 2081 0b1a 0902     		.2byte	0x209
 2082 0b1c A0030000 		.4byte	0x3a0
 2083 0b20 23       		.uleb128 0x23
 2084 0b21 53443100 		.ascii	"SD1\000"
 2085 0b25 11       		.byte	0x11
 2086 0b26 4C01     		.2byte	0x14c
 2087 0b28 54090000 		.4byte	0x954
 2088 0b2c 00       		.byte	0
 2089              		.section	.debug_abbrev,"",%progbits
 2090              	.Ldebug_abbrev0:
 2091 0000 01       		.uleb128 0x1
 2092 0001 11       		.uleb128 0x11
 2093 0002 01       		.byte	0x1
 2094 0003 25       		.uleb128 0x25
 2095 0004 0E       		.uleb128 0xe
 2096 0005 13       		.uleb128 0x13
 2097 0006 0B       		.uleb128 0xb
 2098 0007 03       		.uleb128 0x3
 2099 0008 0E       		.uleb128 0xe
 2100 0009 1B       		.uleb128 0x1b
 2101 000a 0E       		.uleb128 0xe
 2102 000b 55       		.uleb128 0x55
 2103 000c 17       		.uleb128 0x17
 2104 000d 11       		.uleb128 0x11
 2105 000e 01       		.uleb128 0x1
 2106 000f 10       		.uleb128 0x10
 2107 0010 17       		.uleb128 0x17
 2108 0011 00       		.byte	0
 2109 0012 00       		.byte	0
 2110 0013 02       		.uleb128 0x2
 2111 0014 24       		.uleb128 0x24
ARM GAS  /tmp/cca4i599.s 			page 64


 2112 0015 00       		.byte	0
 2113 0016 0B       		.uleb128 0xb
 2114 0017 0B       		.uleb128 0xb
 2115 0018 3E       		.uleb128 0x3e
 2116 0019 0B       		.uleb128 0xb
 2117 001a 03       		.uleb128 0x3
 2118 001b 08       		.uleb128 0x8
 2119 001c 00       		.byte	0
 2120 001d 00       		.byte	0
 2121 001e 03       		.uleb128 0x3
 2122 001f 16       		.uleb128 0x16
 2123 0020 00       		.byte	0
 2124 0021 03       		.uleb128 0x3
 2125 0022 0E       		.uleb128 0xe
 2126 0023 3A       		.uleb128 0x3a
 2127 0024 0B       		.uleb128 0xb
 2128 0025 3B       		.uleb128 0x3b
 2129 0026 0B       		.uleb128 0xb
 2130 0027 49       		.uleb128 0x49
 2131 0028 13       		.uleb128 0x13
 2132 0029 00       		.byte	0
 2133 002a 00       		.byte	0
 2134 002b 04       		.uleb128 0x4
 2135 002c 24       		.uleb128 0x24
 2136 002d 00       		.byte	0
 2137 002e 0B       		.uleb128 0xb
 2138 002f 0B       		.uleb128 0xb
 2139 0030 3E       		.uleb128 0x3e
 2140 0031 0B       		.uleb128 0xb
 2141 0032 03       		.uleb128 0x3
 2142 0033 0E       		.uleb128 0xe
 2143 0034 00       		.byte	0
 2144 0035 00       		.byte	0
 2145 0036 05       		.uleb128 0x5
 2146 0037 13       		.uleb128 0x13
 2147 0038 01       		.byte	0x1
 2148 0039 03       		.uleb128 0x3
 2149 003a 0E       		.uleb128 0xe
 2150 003b 0B       		.uleb128 0xb
 2151 003c 0B       		.uleb128 0xb
 2152 003d 3A       		.uleb128 0x3a
 2153 003e 0B       		.uleb128 0xb
 2154 003f 3B       		.uleb128 0x3b
 2155 0040 0B       		.uleb128 0xb
 2156 0041 01       		.uleb128 0x1
 2157 0042 13       		.uleb128 0x13
 2158 0043 00       		.byte	0
 2159 0044 00       		.byte	0
 2160 0045 06       		.uleb128 0x6
 2161 0046 0D       		.uleb128 0xd
 2162 0047 00       		.byte	0
 2163 0048 03       		.uleb128 0x3
 2164 0049 0E       		.uleb128 0xe
 2165 004a 3A       		.uleb128 0x3a
 2166 004b 0B       		.uleb128 0xb
 2167 004c 3B       		.uleb128 0x3b
 2168 004d 0B       		.uleb128 0xb
ARM GAS  /tmp/cca4i599.s 			page 65


 2169 004e 49       		.uleb128 0x49
 2170 004f 13       		.uleb128 0x13
 2171 0050 38       		.uleb128 0x38
 2172 0051 0B       		.uleb128 0xb
 2173 0052 00       		.byte	0
 2174 0053 00       		.byte	0
 2175 0054 07       		.uleb128 0x7
 2176 0055 0D       		.uleb128 0xd
 2177 0056 00       		.byte	0
 2178 0057 03       		.uleb128 0x3
 2179 0058 08       		.uleb128 0x8
 2180 0059 3A       		.uleb128 0x3a
 2181 005a 0B       		.uleb128 0xb
 2182 005b 3B       		.uleb128 0x3b
 2183 005c 05       		.uleb128 0x5
 2184 005d 49       		.uleb128 0x49
 2185 005e 13       		.uleb128 0x13
 2186 005f 38       		.uleb128 0x38
 2187 0060 0B       		.uleb128 0xb
 2188 0061 00       		.byte	0
 2189 0062 00       		.byte	0
 2190 0063 08       		.uleb128 0x8
 2191 0064 0D       		.uleb128 0xd
 2192 0065 00       		.byte	0
 2193 0066 03       		.uleb128 0x3
 2194 0067 0E       		.uleb128 0xe
 2195 0068 3A       		.uleb128 0x3a
 2196 0069 0B       		.uleb128 0xb
 2197 006a 3B       		.uleb128 0x3b
 2198 006b 05       		.uleb128 0x5
 2199 006c 49       		.uleb128 0x49
 2200 006d 13       		.uleb128 0x13
 2201 006e 38       		.uleb128 0x38
 2202 006f 0B       		.uleb128 0xb
 2203 0070 00       		.byte	0
 2204 0071 00       		.byte	0
 2205 0072 09       		.uleb128 0x9
 2206 0073 0F       		.uleb128 0xf
 2207 0074 00       		.byte	0
 2208 0075 0B       		.uleb128 0xb
 2209 0076 0B       		.uleb128 0xb
 2210 0077 49       		.uleb128 0x49
 2211 0078 13       		.uleb128 0x13
 2212 0079 00       		.byte	0
 2213 007a 00       		.byte	0
 2214 007b 0A       		.uleb128 0xa
 2215 007c 13       		.uleb128 0x13
 2216 007d 01       		.byte	0x1
 2217 007e 03       		.uleb128 0x3
 2218 007f 0E       		.uleb128 0xe
 2219 0080 0B       		.uleb128 0xb
 2220 0081 0B       		.uleb128 0xb
 2221 0082 3A       		.uleb128 0x3a
 2222 0083 0B       		.uleb128 0xb
 2223 0084 3B       		.uleb128 0x3b
 2224 0085 05       		.uleb128 0x5
 2225 0086 01       		.uleb128 0x1
ARM GAS  /tmp/cca4i599.s 			page 66


 2226 0087 13       		.uleb128 0x13
 2227 0088 00       		.byte	0
 2228 0089 00       		.byte	0
 2229 008a 0B       		.uleb128 0xb
 2230 008b 15       		.uleb128 0x15
 2231 008c 01       		.byte	0x1
 2232 008d 27       		.uleb128 0x27
 2233 008e 19       		.uleb128 0x19
 2234 008f 01       		.uleb128 0x1
 2235 0090 13       		.uleb128 0x13
 2236 0091 00       		.byte	0
 2237 0092 00       		.byte	0
 2238 0093 0C       		.uleb128 0xc
 2239 0094 05       		.uleb128 0x5
 2240 0095 00       		.byte	0
 2241 0096 49       		.uleb128 0x49
 2242 0097 13       		.uleb128 0x13
 2243 0098 00       		.byte	0
 2244 0099 00       		.byte	0
 2245 009a 0D       		.uleb128 0xd
 2246 009b 0F       		.uleb128 0xf
 2247 009c 00       		.byte	0
 2248 009d 0B       		.uleb128 0xb
 2249 009e 0B       		.uleb128 0xb
 2250 009f 00       		.byte	0
 2251 00a0 00       		.byte	0
 2252 00a1 0E       		.uleb128 0xe
 2253 00a2 13       		.uleb128 0x13
 2254 00a3 01       		.byte	0x1
 2255 00a4 03       		.uleb128 0x3
 2256 00a5 0E       		.uleb128 0xe
 2257 00a6 0B       		.uleb128 0xb
 2258 00a7 05       		.uleb128 0x5
 2259 00a8 3A       		.uleb128 0x3a
 2260 00a9 0B       		.uleb128 0xb
 2261 00aa 3B       		.uleb128 0x3b
 2262 00ab 05       		.uleb128 0x5
 2263 00ac 01       		.uleb128 0x1
 2264 00ad 13       		.uleb128 0x13
 2265 00ae 00       		.byte	0
 2266 00af 00       		.byte	0
 2267 00b0 0F       		.uleb128 0xf
 2268 00b1 35       		.uleb128 0x35
 2269 00b2 00       		.byte	0
 2270 00b3 49       		.uleb128 0x49
 2271 00b4 13       		.uleb128 0x13
 2272 00b5 00       		.byte	0
 2273 00b6 00       		.byte	0
 2274 00b7 10       		.uleb128 0x10
 2275 00b8 13       		.uleb128 0x13
 2276 00b9 01       		.byte	0x1
 2277 00ba 0B       		.uleb128 0xb
 2278 00bb 0B       		.uleb128 0xb
 2279 00bc 3A       		.uleb128 0x3a
 2280 00bd 0B       		.uleb128 0xb
 2281 00be 3B       		.uleb128 0x3b
 2282 00bf 05       		.uleb128 0x5
ARM GAS  /tmp/cca4i599.s 			page 67


 2283 00c0 01       		.uleb128 0x1
 2284 00c1 13       		.uleb128 0x13
 2285 00c2 00       		.byte	0
 2286 00c3 00       		.byte	0
 2287 00c4 11       		.uleb128 0x11
 2288 00c5 16       		.uleb128 0x16
 2289 00c6 00       		.byte	0
 2290 00c7 03       		.uleb128 0x3
 2291 00c8 0E       		.uleb128 0xe
 2292 00c9 3A       		.uleb128 0x3a
 2293 00ca 0B       		.uleb128 0xb
 2294 00cb 3B       		.uleb128 0x3b
 2295 00cc 05       		.uleb128 0x5
 2296 00cd 49       		.uleb128 0x49
 2297 00ce 13       		.uleb128 0x13
 2298 00cf 00       		.byte	0
 2299 00d0 00       		.byte	0
 2300 00d1 12       		.uleb128 0x12
 2301 00d2 0D       		.uleb128 0xd
 2302 00d3 00       		.byte	0
 2303 00d4 03       		.uleb128 0x3
 2304 00d5 08       		.uleb128 0x8
 2305 00d6 3A       		.uleb128 0x3a
 2306 00d7 0B       		.uleb128 0xb
 2307 00d8 3B       		.uleb128 0x3b
 2308 00d9 0B       		.uleb128 0xb
 2309 00da 49       		.uleb128 0x49
 2310 00db 13       		.uleb128 0x13
 2311 00dc 38       		.uleb128 0x38
 2312 00dd 0B       		.uleb128 0xb
 2313 00de 00       		.byte	0
 2314 00df 00       		.byte	0
 2315 00e0 13       		.uleb128 0x13
 2316 00e1 17       		.uleb128 0x17
 2317 00e2 01       		.byte	0x1
 2318 00e3 0B       		.uleb128 0xb
 2319 00e4 0B       		.uleb128 0xb
 2320 00e5 3A       		.uleb128 0x3a
 2321 00e6 0B       		.uleb128 0xb
 2322 00e7 3B       		.uleb128 0x3b
 2323 00e8 0B       		.uleb128 0xb
 2324 00e9 01       		.uleb128 0x1
 2325 00ea 13       		.uleb128 0x13
 2326 00eb 00       		.byte	0
 2327 00ec 00       		.byte	0
 2328 00ed 14       		.uleb128 0x14
 2329 00ee 0D       		.uleb128 0xd
 2330 00ef 00       		.byte	0
 2331 00f0 03       		.uleb128 0x3
 2332 00f1 0E       		.uleb128 0xe
 2333 00f2 3A       		.uleb128 0x3a
 2334 00f3 0B       		.uleb128 0xb
 2335 00f4 3B       		.uleb128 0x3b
 2336 00f5 05       		.uleb128 0x5
 2337 00f6 49       		.uleb128 0x49
 2338 00f7 13       		.uleb128 0x13
 2339 00f8 00       		.byte	0
ARM GAS  /tmp/cca4i599.s 			page 68


 2340 00f9 00       		.byte	0
 2341 00fa 15       		.uleb128 0x15
 2342 00fb 26       		.uleb128 0x26
 2343 00fc 00       		.byte	0
 2344 00fd 49       		.uleb128 0x49
 2345 00fe 13       		.uleb128 0x13
 2346 00ff 00       		.byte	0
 2347 0100 00       		.byte	0
 2348 0101 16       		.uleb128 0x16
 2349 0102 01       		.uleb128 0x1
 2350 0103 01       		.byte	0x1
 2351 0104 49       		.uleb128 0x49
 2352 0105 13       		.uleb128 0x13
 2353 0106 01       		.uleb128 0x1
 2354 0107 13       		.uleb128 0x13
 2355 0108 00       		.byte	0
 2356 0109 00       		.byte	0
 2357 010a 17       		.uleb128 0x17
 2358 010b 21       		.uleb128 0x21
 2359 010c 00       		.byte	0
 2360 010d 49       		.uleb128 0x49
 2361 010e 13       		.uleb128 0x13
 2362 010f 2F       		.uleb128 0x2f
 2363 0110 0B       		.uleb128 0xb
 2364 0111 00       		.byte	0
 2365 0112 00       		.byte	0
 2366 0113 18       		.uleb128 0x18
 2367 0114 15       		.uleb128 0x15
 2368 0115 01       		.byte	0x1
 2369 0116 27       		.uleb128 0x27
 2370 0117 19       		.uleb128 0x19
 2371 0118 49       		.uleb128 0x49
 2372 0119 13       		.uleb128 0x13
 2373 011a 01       		.uleb128 0x1
 2374 011b 13       		.uleb128 0x13
 2375 011c 00       		.byte	0
 2376 011d 00       		.byte	0
 2377 011e 19       		.uleb128 0x19
 2378 011f 13       		.uleb128 0x13
 2379 0120 01       		.byte	0x1
 2380 0121 0B       		.uleb128 0xb
 2381 0122 0B       		.uleb128 0xb
 2382 0123 3A       		.uleb128 0x3a
 2383 0124 0B       		.uleb128 0xb
 2384 0125 3B       		.uleb128 0x3b
 2385 0126 0B       		.uleb128 0xb
 2386 0127 01       		.uleb128 0x1
 2387 0128 13       		.uleb128 0x13
 2388 0129 00       		.byte	0
 2389 012a 00       		.byte	0
 2390 012b 1A       		.uleb128 0x1a
 2391 012c 0D       		.uleb128 0xd
 2392 012d 00       		.byte	0
 2393 012e 03       		.uleb128 0x3
 2394 012f 08       		.uleb128 0x8
 2395 0130 3A       		.uleb128 0x3a
 2396 0131 0B       		.uleb128 0xb
ARM GAS  /tmp/cca4i599.s 			page 69


 2397 0132 3B       		.uleb128 0x3b
 2398 0133 0B       		.uleb128 0xb
 2399 0134 49       		.uleb128 0x49
 2400 0135 13       		.uleb128 0x13
 2401 0136 00       		.byte	0
 2402 0137 00       		.byte	0
 2403 0138 1B       		.uleb128 0x1b
 2404 0139 04       		.uleb128 0x4
 2405 013a 01       		.byte	0x1
 2406 013b 0B       		.uleb128 0xb
 2407 013c 0B       		.uleb128 0xb
 2408 013d 3A       		.uleb128 0x3a
 2409 013e 0B       		.uleb128 0xb
 2410 013f 3B       		.uleb128 0x3b
 2411 0140 0B       		.uleb128 0xb
 2412 0141 01       		.uleb128 0x1
 2413 0142 13       		.uleb128 0x13
 2414 0143 00       		.byte	0
 2415 0144 00       		.byte	0
 2416 0145 1C       		.uleb128 0x1c
 2417 0146 28       		.uleb128 0x28
 2418 0147 00       		.byte	0
 2419 0148 03       		.uleb128 0x3
 2420 0149 0E       		.uleb128 0xe
 2421 014a 1C       		.uleb128 0x1c
 2422 014b 0D       		.uleb128 0xd
 2423 014c 00       		.byte	0
 2424 014d 00       		.byte	0
 2425 014e 1D       		.uleb128 0x1d
 2426 014f 2E       		.uleb128 0x2e
 2427 0150 01       		.byte	0x1
 2428 0151 03       		.uleb128 0x3
 2429 0152 0E       		.uleb128 0xe
 2430 0153 3A       		.uleb128 0x3a
 2431 0154 0B       		.uleb128 0xb
 2432 0155 3B       		.uleb128 0x3b
 2433 0156 0B       		.uleb128 0xb
 2434 0157 27       		.uleb128 0x27
 2435 0158 19       		.uleb128 0x19
 2436 0159 11       		.uleb128 0x11
 2437 015a 01       		.uleb128 0x1
 2438 015b 12       		.uleb128 0x12
 2439 015c 06       		.uleb128 0x6
 2440 015d 40       		.uleb128 0x40
 2441 015e 18       		.uleb128 0x18
 2442 015f 9642     		.uleb128 0x2116
 2443 0161 19       		.uleb128 0x19
 2444 0162 01       		.uleb128 0x1
 2445 0163 13       		.uleb128 0x13
 2446 0164 00       		.byte	0
 2447 0165 00       		.byte	0
 2448 0166 1E       		.uleb128 0x1e
 2449 0167 05       		.uleb128 0x5
 2450 0168 00       		.byte	0
 2451 0169 03       		.uleb128 0x3
 2452 016a 0E       		.uleb128 0xe
 2453 016b 3A       		.uleb128 0x3a
ARM GAS  /tmp/cca4i599.s 			page 70


 2454 016c 0B       		.uleb128 0xb
 2455 016d 3B       		.uleb128 0x3b
 2456 016e 0B       		.uleb128 0xb
 2457 016f 49       		.uleb128 0x49
 2458 0170 13       		.uleb128 0x13
 2459 0171 02       		.uleb128 0x2
 2460 0172 18       		.uleb128 0x18
 2461 0173 00       		.byte	0
 2462 0174 00       		.byte	0
 2463 0175 1F       		.uleb128 0x1f
 2464 0176 05       		.uleb128 0x5
 2465 0177 00       		.byte	0
 2466 0178 03       		.uleb128 0x3
 2467 0179 08       		.uleb128 0x8
 2468 017a 3A       		.uleb128 0x3a
 2469 017b 0B       		.uleb128 0xb
 2470 017c 3B       		.uleb128 0x3b
 2471 017d 0B       		.uleb128 0xb
 2472 017e 49       		.uleb128 0x49
 2473 017f 13       		.uleb128 0x13
 2474 0180 02       		.uleb128 0x2
 2475 0181 18       		.uleb128 0x18
 2476 0182 00       		.byte	0
 2477 0183 00       		.byte	0
 2478 0184 20       		.uleb128 0x20
 2479 0185 34       		.uleb128 0x34
 2480 0186 00       		.byte	0
 2481 0187 03       		.uleb128 0x3
 2482 0188 0E       		.uleb128 0xe
 2483 0189 3A       		.uleb128 0x3a
 2484 018a 0B       		.uleb128 0xb
 2485 018b 3B       		.uleb128 0x3b
 2486 018c 0B       		.uleb128 0xb
 2487 018d 49       		.uleb128 0x49
 2488 018e 13       		.uleb128 0x13
 2489 018f 02       		.uleb128 0x2
 2490 0190 18       		.uleb128 0x18
 2491 0191 00       		.byte	0
 2492 0192 00       		.byte	0
 2493 0193 21       		.uleb128 0x21
 2494 0194 2E       		.uleb128 0x2e
 2495 0195 01       		.byte	0x1
 2496 0196 3F       		.uleb128 0x3f
 2497 0197 19       		.uleb128 0x19
 2498 0198 03       		.uleb128 0x3
 2499 0199 0E       		.uleb128 0xe
 2500 019a 3A       		.uleb128 0x3a
 2501 019b 0B       		.uleb128 0xb
 2502 019c 3B       		.uleb128 0x3b
 2503 019d 0B       		.uleb128 0xb
 2504 019e 27       		.uleb128 0x27
 2505 019f 19       		.uleb128 0x19
 2506 01a0 49       		.uleb128 0x49
 2507 01a1 13       		.uleb128 0x13
 2508 01a2 11       		.uleb128 0x11
 2509 01a3 01       		.uleb128 0x1
 2510 01a4 12       		.uleb128 0x12
ARM GAS  /tmp/cca4i599.s 			page 71


 2511 01a5 06       		.uleb128 0x6
 2512 01a6 40       		.uleb128 0x40
 2513 01a7 18       		.uleb128 0x18
 2514 01a8 9642     		.uleb128 0x2116
 2515 01aa 19       		.uleb128 0x19
 2516 01ab 01       		.uleb128 0x1
 2517 01ac 13       		.uleb128 0x13
 2518 01ad 00       		.byte	0
 2519 01ae 00       		.byte	0
 2520 01af 22       		.uleb128 0x22
 2521 01b0 34       		.uleb128 0x34
 2522 01b1 00       		.byte	0
 2523 01b2 03       		.uleb128 0x3
 2524 01b3 08       		.uleb128 0x8
 2525 01b4 3A       		.uleb128 0x3a
 2526 01b5 0B       		.uleb128 0xb
 2527 01b6 3B       		.uleb128 0x3b
 2528 01b7 0B       		.uleb128 0xb
 2529 01b8 49       		.uleb128 0x49
 2530 01b9 13       		.uleb128 0x13
 2531 01ba 02       		.uleb128 0x2
 2532 01bb 18       		.uleb128 0x18
 2533 01bc 00       		.byte	0
 2534 01bd 00       		.byte	0
 2535 01be 23       		.uleb128 0x23
 2536 01bf 34       		.uleb128 0x34
 2537 01c0 00       		.byte	0
 2538 01c1 03       		.uleb128 0x3
 2539 01c2 08       		.uleb128 0x8
 2540 01c3 3A       		.uleb128 0x3a
 2541 01c4 0B       		.uleb128 0xb
 2542 01c5 3B       		.uleb128 0x3b
 2543 01c6 05       		.uleb128 0x5
 2544 01c7 49       		.uleb128 0x49
 2545 01c8 13       		.uleb128 0x13
 2546 01c9 3F       		.uleb128 0x3f
 2547 01ca 19       		.uleb128 0x19
 2548 01cb 3C       		.uleb128 0x3c
 2549 01cc 19       		.uleb128 0x19
 2550 01cd 00       		.byte	0
 2551 01ce 00       		.byte	0
 2552 01cf 00       		.byte	0
 2553              		.section	.debug_aranges,"",%progbits
 2554 0000 24000000 		.4byte	0x24
 2555 0004 0200     		.2byte	0x2
 2556 0006 00000000 		.4byte	.Ldebug_info0
 2557 000a 04       		.byte	0x4
 2558 000b 00       		.byte	0
 2559 000c 0000     		.2byte	0
 2560 000e 0000     		.2byte	0
 2561 0010 00000000 		.4byte	.LFB149
 2562 0014 70000000 		.4byte	.LFE149-.LFB149
 2563 0018 00000000 		.4byte	.LFB150
 2564 001c 1C010000 		.4byte	.LFE150-.LFB150
 2565 0020 00000000 		.4byte	0
 2566 0024 00000000 		.4byte	0
 2567              		.section	.debug_ranges,"",%progbits
ARM GAS  /tmp/cca4i599.s 			page 72


 2568              	.Ldebug_ranges0:
 2569 0000 00000000 		.4byte	.LFB149
 2570 0004 70000000 		.4byte	.LFE149
 2571 0008 00000000 		.4byte	.LFB150
 2572 000c 1C010000 		.4byte	.LFE150
 2573 0010 00000000 		.4byte	0
 2574 0014 00000000 		.4byte	0
 2575              		.section	.debug_line,"",%progbits
 2576              	.Ldebug_line0:
 2577 0000 DD020000 		.section	.debug_str,"MS",%progbits,1
 2577      02008C02 
 2577      00000201 
 2577      FB0E0D00 
 2577      01010101 
 2578              	.LASF43:
 2579 0000 63685F74 		.ascii	"ch_threads_list\000"
 2579      68726561 
 2579      64735F6C 
 2579      69737400 
 2580              	.LASF44:
 2581 0010 74687265 		.ascii	"threads_queue_t\000"
 2581      6164735F 
 2581      71756575 
 2581      655F7400 
 2582              	.LASF37:
 2583 0020 705F7761 		.ascii	"p_waiting\000"
 2583      6974696E 
 2583      6700
 2584              	.LASF130:
 2585 002a 53657269 		.ascii	"SerialDriver\000"
 2585      616C4472 
 2585      69766572 
 2585      00
 2586              	.LASF149:
 2587 0037 6D61696E 		.ascii	"main.c\000"
 2587      2E6300
 2588              	.LASF120:
 2589 003e 42535252 		.ascii	"BSRR\000"
 2589      00
 2590              	.LASF97:
 2591 0043 63686172 		.ascii	"char\000"
 2591      00
 2592              	.LASF80:
 2593 0048 72656761 		.ascii	"regarm_t\000"
 2593      726D5F74 
 2593      00
 2594              	.LASF30:
 2595 0051 705F7072 		.ascii	"p_prio\000"
 2595      696F00
 2596              	.LASF99:
 2597 0058 666C6167 		.ascii	"flags\000"
 2597      7300
 2598              	.LASF26:
 2599 005e 73797374 		.ascii	"systime_t\000"
 2599      696D655F 
 2599      7400
 2600              	.LASF95:
ARM GAS  /tmp/cca4i599.s 			page 73


 2601 0068 6D5F6F77 		.ascii	"m_owner\000"
 2601      6E657200 
 2602              	.LASF91:
 2603 0070 735F7175 		.ascii	"s_queue\000"
 2603      65756500 
 2604              	.LASF102:
 2605 0078 696F5F71 		.ascii	"io_queue_t\000"
 2605      75657565 
 2605      5F7400
 2606              	.LASF0:
 2607 0083 756E7369 		.ascii	"unsigned int\000"
 2607      676E6564 
 2607      20696E74 
 2607      00
 2608              	.LASF145:
 2609 0090 63726352 		.ascii	"crcRes\000"
 2609      657300
 2610              	.LASF41:
 2611 0097 74687265 		.ascii	"threads_list_t\000"
 2611      6164735F 
 2611      6C697374 
 2611      5F7400
 2612              	.LASF109:
 2613 00a6 715F7264 		.ascii	"q_rdptr\000"
 2613      70747200 
 2614              	.LASF8:
 2615 00ae 5F5F696E 		.ascii	"__int32_t\000"
 2615      7433325F 
 2615      7400
 2616              	.LASF112:
 2617 00b8 716E6F74 		.ascii	"qnotify_t\000"
 2617      6966795F 
 2617      7400
 2618              	.LASF86:
 2619 00c2 77746F62 		.ascii	"wtobjp\000"
 2619      6A7000
 2620              	.LASF71:
 2621 00c9 76746C69 		.ascii	"vtlist\000"
 2621      737400
 2622              	.LASF111:
 2623 00d0 715F6C69 		.ascii	"q_link\000"
 2623      6E6B00
 2624              	.LASF47:
 2625 00d7 63685F72 		.ascii	"ch_ready_list\000"
 2625      65616479 
 2625      5F6C6973 
 2625      7400
 2626              	.LASF73:
 2627 00e5 69646C65 		.ascii	"idle_thread_wa\000"
 2627      5F746872 
 2627      6561645F 
 2627      776100
 2628              	.LASF45:
 2629 00f4 63685F74 		.ascii	"ch_threads_queue\000"
 2629      68726561 
 2629      64735F71 
 2629      75657565 
ARM GAS  /tmp/cca4i599.s 			page 74


 2629      00
 2630              	.LASF54:
 2631 0105 76746675 		.ascii	"vtfunc_t\000"
 2631      6E635F74 
 2631      00
 2632              	.LASF142:
 2633 010e 77726974 		.ascii	"writet\000"
 2633      657400
 2634              	.LASF92:
 2635 0115 735F636E 		.ascii	"s_cnt\000"
 2635      7400
 2636              	.LASF66:
 2637 011b 63685F73 		.ascii	"ch_system_debug\000"
 2637      79737465 
 2637      6D5F6465 
 2637      62756700 
 2638              	.LASF150:
 2639 012b 2F686F6D 		.ascii	"/home/efe/projeler/led-panel\000"
 2639      652F6566 
 2639      652F7072 
 2639      6F6A656C 
 2639      65722F6C 
 2640              	.LASF133:
 2641 0148 69717565 		.ascii	"iqueue\000"
 2641      756500
 2642              	.LASF18:
 2643 014f 75696E74 		.ascii	"uint32_t\000"
 2643      33325F74 
 2643      00
 2644              	.LASF104:
 2645 0158 715F7761 		.ascii	"q_waiting\000"
 2645      6974696E 
 2645      6700
 2646              	.LASF75:
 2647 0162 47545052 		.ascii	"GTPR\000"
 2647      00
 2648              	.LASF49:
 2649 0167 725F7072 		.ascii	"r_prio\000"
 2649      696F00
 2650              	.LASF61:
 2651 016e 76745F70 		.ascii	"vt_par\000"
 2651      617200
 2652              	.LASF129:
 2653 0175 73647374 		.ascii	"sdstate_t\000"
 2653      6174655F 
 2653      7400
 2654              	.LASF131:
 2655 017f 6576656E 		.ascii	"event\000"
 2655      7400
 2656              	.LASF90:
 2657 0185 63685F73 		.ascii	"ch_semaphore\000"
 2657      656D6170 
 2657      686F7265 
 2657      00
 2658              	.LASF22:
 2659 0192 74707269 		.ascii	"tprio_t\000"
 2659      6F5F7400 
ARM GAS  /tmp/cca4i599.s 			page 75


 2660              	.LASF56:
 2661 019a 63685F76 		.ascii	"ch_virtual_timer\000"
 2661      69727475 
 2661      616C5F74 
 2661      696D6572 
 2661      00
 2662              	.LASF14:
 2663 01ab 6C6F6E67 		.ascii	"long long unsigned int\000"
 2663      206C6F6E 
 2663      6720756E 
 2663      7369676E 
 2663      65642069 
 2664              	.LASF100:
 2665 01c2 6576656E 		.ascii	"event_source_t\000"
 2665      745F736F 
 2665      75726365 
 2665      5F7400
 2666              	.LASF6:
 2667 01d1 5F5F7569 		.ascii	"__uint16_t\000"
 2667      6E743136 
 2667      5F7400
 2668              	.LASF25:
 2669 01dc 636E745F 		.ascii	"cnt_t\000"
 2669      7400
 2670              	.LASF116:
 2671 01e2 4D4F4445 		.ascii	"MODER\000"
 2671      5200
 2672              	.LASF123:
 2673 01e8 41465248 		.ascii	"AFRH\000"
 2673      00
 2674              	.LASF124:
 2675 01ed 73746D33 		.ascii	"stm32_gpio_t\000"
 2675      325F6770 
 2675      696F5F74 
 2675      00
 2676              	.LASF122:
 2677 01fa 4146524C 		.ascii	"AFRL\000"
 2677      00
 2678              	.LASF32:
 2679 01ff 705F6E65 		.ascii	"p_newer\000"
 2679      77657200 
 2680              	.LASF115:
 2681 0207 636C6561 		.ascii	"clear\000"
 2681      7200
 2682              	.LASF63:
 2683 020d 63685F76 		.ascii	"ch_virtual_timers_list\000"
 2683      69727475 
 2683      616C5F74 
 2683      696D6572 
 2683      735F6C69 
 2684              	.LASF27:
 2685 0224 74687265 		.ascii	"thread_t\000"
 2685      61645F74 
 2685      00
 2686              	.LASF140:
 2687 022d 70757474 		.ascii	"putt\000"
 2687      00
ARM GAS  /tmp/cca4i599.s 			page 76


 2688              	.LASF146:
 2689 0232 72617753 		.ascii	"rawSample\000"
 2689      616D706C 
 2689      6500
 2690              	.LASF2:
 2691 023c 73697A65 		.ascii	"size_t\000"
 2691      5F7400
 2692              	.LASF84:
 2693 0243 7264796D 		.ascii	"rdymsg\000"
 2693      736700
 2694              	.LASF101:
 2695 024a 5F426F6F 		.ascii	"_Bool\000"
 2695      6C00
 2696              	.LASF127:
 2697 0250 53445F53 		.ascii	"SD_STOP\000"
 2697      544F5000 
 2698              	.LASF93:
 2699 0258 63685F6D 		.ascii	"ch_mutex\000"
 2699      75746578 
 2699      00
 2700              	.LASF13:
 2701 0261 5F5F7569 		.ascii	"__uint64_t\000"
 2701      6E743634 
 2701      5F7400
 2702              	.LASF79:
 2703 026c 55534152 		.ascii	"USART_TypeDef\000"
 2703      545F5479 
 2703      70654465 
 2703      6600
 2704              	.LASF110:
 2705 027a 715F6E6F 		.ascii	"q_notify\000"
 2705      74696679 
 2705      00
 2706              	.LASF136:
 2707 0283 636C6F63 		.ascii	"clock\000"
 2707      6B00
 2708              	.LASF119:
 2709 0289 50555044 		.ascii	"PUPDR\000"
 2709      5200
 2710              	.LASF34:
 2711 028f 705F6E61 		.ascii	"p_name\000"
 2711      6D6500
 2712              	.LASF59:
 2713 0296 76745F64 		.ascii	"vt_delta\000"
 2713      656C7461 
 2713      00
 2714              	.LASF40:
 2715 029f 74687265 		.ascii	"thread_reference_t\000"
 2715      61645F72 
 2715      65666572 
 2715      656E6365 
 2715      5F7400
 2716              	.LASF64:
 2717 02b2 76745F6C 		.ascii	"vt_lasttime\000"
 2717      61737474 
 2717      696D6500 
 2718              	.LASF108:
ARM GAS  /tmp/cca4i599.s 			page 77


 2719 02be 715F7772 		.ascii	"q_wrptr\000"
 2719      70747200 
 2720              	.LASF21:
 2721 02c6 74737461 		.ascii	"tstate_t\000"
 2721      74655F74 
 2721      00
 2722              	.LASF33:
 2723 02cf 705F6F6C 		.ascii	"p_older\000"
 2723      64657200 
 2724              	.LASF35:
 2725 02d7 705F7374 		.ascii	"p_state\000"
 2725      61746500 
 2726              	.LASF15:
 2727 02df 75696E74 		.ascii	"uint8_t\000"
 2727      385F7400 
 2728              	.LASF76:
 2729 02e7 52544F52 		.ascii	"RTOR\000"
 2729      00
 2730              	.LASF113:
 2731 02ec 696E7075 		.ascii	"input_queue_t\000"
 2731      745F7175 
 2731      6575655F 
 2731      7400
 2732              	.LASF38:
 2733 02fa 705F6D74 		.ascii	"p_mtxlist\000"
 2733      786C6973 
 2733      7400
 2734              	.LASF42:
 2735 0304 63685F74 		.ascii	"ch_thread\000"
 2735      68726561 
 2735      6400
 2736              	.LASF135:
 2737 030e 75736172 		.ascii	"usart\000"
 2737      7400
 2738              	.LASF65:
 2739 0314 73797374 		.ascii	"system_debug_t\000"
 2739      656D5F64 
 2739      65627567 
 2739      5F7400
 2740              	.LASF12:
 2741 0323 6C6F6E67 		.ascii	"long long int\000"
 2741      206C6F6E 
 2741      6720696E 
 2741      7400
 2742              	.LASF138:
 2743 0331 77726974 		.ascii	"write\000"
 2743      6500
 2744              	.LASF106:
 2745 0337 715F6275 		.ascii	"q_buffer\000"
 2745      66666572 
 2745      00
 2746              	.LASF48:
 2747 0340 725F7175 		.ascii	"r_queue\000"
 2747      65756500 
 2748              	.LASF51:
 2749 0348 725F6E65 		.ascii	"r_newer\000"
 2749      77657200 
ARM GAS  /tmp/cca4i599.s 			page 78


 2750              	.LASF23:
 2751 0350 6D73675F 		.ascii	"msg_t\000"
 2751      7400
 2752              	.LASF82:
 2753 0356 636F6E74 		.ascii	"context\000"
 2753      65787400 
 2754              	.LASF36:
 2755 035e 705F666C 		.ascii	"p_flags\000"
 2755      61677300 
 2756              	.LASF55:
 2757 0366 76697274 		.ascii	"virtual_timer_t\000"
 2757      75616C5F 
 2757      74696D65 
 2757      725F7400 
 2758              	.LASF125:
 2759 0376 696F706F 		.ascii	"ioportmask_t\000"
 2759      72746D61 
 2759      736B5F74 
 2759      00
 2760              	.LASF114:
 2761 0383 6F757470 		.ascii	"output_queue_t\000"
 2761      75745F71 
 2761      75657565 
 2761      5F7400
 2762              	.LASF148:
 2763 0392 474E5520 		.ascii	"GNU C 4.8.4 20141219 (release) -mcpu=cortex-m0 -mno"
 2763      4320342E 
 2763      382E3420 
 2763      32303134 
 2763      31323139 
 2764 03c5 2D746875 		.ascii	"-thumb-interwork -mthumb -ggdb -O0 -fomit-frame-poi"
 2764      6D622D69 
 2764      6E746572 
 2764      776F726B 
 2764      202D6D74 
 2765 03f8 6E746572 		.ascii	"nter -falign-functions=16 -ffunction-sections -fdat"
 2765      202D6661 
 2765      6C69676E 
 2765      2D66756E 
 2765      6374696F 
 2766 042b 612D7365 		.ascii	"a-sections -fno-common -flto\000"
 2766      6374696F 
 2766      6E73202D 
 2766      666E6F2D 
 2766      636F6D6D 
 2767              	.LASF52:
 2768 0448 725F6F6C 		.ascii	"r_older\000"
 2768      64657200 
 2769              	.LASF24:
 2770 0450 6576656E 		.ascii	"eventflags_t\000"
 2770      74666C61 
 2770      67735F74 
 2770      00
 2771              	.LASF67:
 2772 045d 70616E69 		.ascii	"panic_msg\000"
 2772      635F6D73 
 2772      6700
ARM GAS  /tmp/cca4i599.s 			page 79


 2773              	.LASF20:
 2774 0467 746D6F64 		.ascii	"tmode_t\000"
 2774      655F7400 
 2775              	.LASF72:
 2776 046f 6D61696E 		.ascii	"mainthread\000"
 2776      74687265 
 2776      616400
 2777              	.LASF118:
 2778 047a 4F535045 		.ascii	"OSPEEDR\000"
 2778      45445200 
 2779              	.LASF134:
 2780 0482 6F717565 		.ascii	"oqueue\000"
 2780      756500
 2781              	.LASF16:
 2782 0489 75696E74 		.ascii	"uint16_t\000"
 2782      31365F74 
 2782      00
 2783              	.LASF128:
 2784 0492 53445F52 		.ascii	"SD_READY\000"
 2784      45414459 
 2784      00
 2785              	.LASF137:
 2786 049b 53657269 		.ascii	"SerialDriverVMT\000"
 2786      616C4472 
 2786      69766572 
 2786      564D5400 
 2787              	.LASF39:
 2788 04ab 705F7265 		.ascii	"p_realprio\000"
 2788      616C7072 
 2788      696F00
 2789              	.LASF77:
 2790 04b6 52455345 		.ascii	"RESERVED1\000"
 2790      52564544 
 2790      3100
 2791              	.LASF78:
 2792 04c0 52455345 		.ascii	"RESERVED2\000"
 2792      52564544 
 2792      3200
 2793              	.LASF5:
 2794 04ca 73686F72 		.ascii	"short int\000"
 2794      7420696E 
 2794      7400
 2795              	.LASF53:
 2796 04d4 725F6375 		.ascii	"r_current\000"
 2796      7272656E 
 2796      7400
 2797              	.LASF94:
 2798 04de 6D5F7175 		.ascii	"m_queue\000"
 2798      65756500 
 2799              	.LASF9:
 2800 04e6 6C6F6E67 		.ascii	"long int\000"
 2800      20696E74 
 2800      00
 2801              	.LASF83:
 2802 04ef 706F7274 		.ascii	"port_intctx\000"
 2802      5F696E74 
 2802      63747800 
ARM GAS  /tmp/cca4i599.s 			page 80


 2803              	.LASF147:
 2804 04fb 706F7274 		.ascii	"portSample\000"
 2804      53616D70 
 2804      6C6500
 2805              	.LASF69:
 2806 0506 63685F73 		.ascii	"ch_system\000"
 2806      79737465 
 2806      6D00
 2807              	.LASF117:
 2808 0510 4F545950 		.ascii	"OTYPER\000"
 2808      455200
 2809              	.LASF28:
 2810 0517 705F6E65 		.ascii	"p_next\000"
 2810      787400
 2811              	.LASF19:
 2812 051e 75696E74 		.ascii	"uint64_t\000"
 2812      36345F74 
 2812      00
 2813              	.LASF31:
 2814 0527 705F6374 		.ascii	"p_ctx\000"
 2814      7800
 2815              	.LASF70:
 2816 052d 726C6973 		.ascii	"rlist\000"
 2816      7400
 2817              	.LASF3:
 2818 0533 5F5F7569 		.ascii	"__uint8_t\000"
 2818      6E74385F 
 2818      7400
 2819              	.LASF139:
 2820 053d 72656164 		.ascii	"read\000"
 2820      00
 2821              	.LASF126:
 2822 0542 53445F55 		.ascii	"SD_UNINIT\000"
 2822      4E494E49 
 2822      5400
 2823              	.LASF105:
 2824 054c 715F636F 		.ascii	"q_counter\000"
 2824      756E7465 
 2824      7200
 2825              	.LASF141:
 2826 0556 67657474 		.ascii	"gett\000"
 2826      00
 2827              	.LASF107:
 2828 055b 715F746F 		.ascii	"q_top\000"
 2828      7000
 2829              	.LASF29:
 2830 0561 705F7072 		.ascii	"p_prev\000"
 2830      657600
 2831              	.LASF74:
 2832 0568 73697A65 		.ascii	"sizetype\000"
 2832      74797065 
 2832      00
 2833              	.LASF11:
 2834 0571 6C6F6E67 		.ascii	"long unsigned int\000"
 2834      20756E73 
 2834      69676E65 
 2834      6420696E 
ARM GAS  /tmp/cca4i599.s 			page 81


 2834      7400
 2835              	.LASF46:
 2836 0583 72656164 		.ascii	"ready_list_t\000"
 2836      795F6C69 
 2836      73745F74 
 2836      00
 2837              	.LASF17:
 2838 0590 696E7433 		.ascii	"int32_t\000"
 2838      325F7400 
 2839              	.LASF144:
 2840 0598 7061636B 		.ascii	"packet\000"
 2840      657400
 2841              	.LASF88:
 2842 059f 77747365 		.ascii	"wtsemp\000"
 2842      6D7000
 2843              	.LASF98:
 2844 05a6 6D757465 		.ascii	"mutex_t\000"
 2844      785F7400 
 2845              	.LASF4:
 2846 05ae 756E7369 		.ascii	"unsigned char\000"
 2846      676E6564 
 2846      20636861 
 2846      7200
 2847              	.LASF10:
 2848 05bc 5F5F7569 		.ascii	"__uint32_t\000"
 2848      6E743332 
 2848      5F7400
 2849              	.LASF62:
 2850 05c7 76697274 		.ascii	"virtual_timers_list_t\000"
 2850      75616C5F 
 2850      74696D65 
 2850      72735F6C 
 2850      6973745F 
 2851              	.LASF151:
 2852 05dd 70726570 		.ascii	"prepareForSend\000"
 2852      61726546 
 2852      6F725365 
 2852      6E6400
 2853              	.LASF132:
 2854 05ec 73746174 		.ascii	"state\000"
 2854      6500
 2855              	.LASF57:
 2856 05f2 76745F6E 		.ascii	"vt_next\000"
 2856      65787400 
 2857              	.LASF68:
 2858 05fa 63685F73 		.ascii	"ch_system_t\000"
 2858      79737465 
 2858      6D5F7400 
 2859              	.LASF87:
 2860 0606 77747472 		.ascii	"wttrp\000"
 2860      7000
 2861              	.LASF96:
 2862 060c 6D5F6E65 		.ascii	"m_next\000"
 2862      787400
 2863              	.LASF1:
 2864 0613 7369676E 		.ascii	"signed char\000"
 2864      65642063 
ARM GAS  /tmp/cca4i599.s 			page 82


 2864      68617200 
 2865              	.LASF103:
 2866 061f 696F5F71 		.ascii	"io_queue\000"
 2866      75657565 
 2866      00
 2867              	.LASF143:
 2868 0628 72656164 		.ascii	"readt\000"
 2868      7400
 2869              	.LASF7:
 2870 062e 73686F72 		.ascii	"short unsigned int\000"
 2870      7420756E 
 2870      7369676E 
 2870      65642069 
 2870      6E7400
 2871              	.LASF50:
 2872 0641 725F6374 		.ascii	"r_ctx\000"
 2872      7800
 2873              	.LASF81:
 2874 0647 73746B61 		.ascii	"stkalign_t\000"
 2874      6C69676E 
 2874      5F7400
 2875              	.LASF152:
 2876 0652 6D61696E 		.ascii	"main\000"
 2876      00
 2877              	.LASF60:
 2878 0657 76745F66 		.ascii	"vt_func\000"
 2878      756E6300 
 2879              	.LASF58:
 2880 065f 76745F70 		.ascii	"vt_prev\000"
 2880      72657600 
 2881              	.LASF89:
 2882 0667 77746D74 		.ascii	"wtmtxp\000"
 2882      787000
 2883              	.LASF85:
 2884 066e 65786974 		.ascii	"exitcode\000"
 2884      636F6465 
 2884      00
 2885              	.LASF121:
 2886 0677 4C434B52 		.ascii	"LCKR\000"
 2886      00
 2887              		.comm	__gnu_lto_v1,1,1
 2888              		.ident	"GCC: (4.8.4-1+11-1) 4.8.4 20141219 (release)"
ARM GAS  /tmp/cca4i599.s 			page 83


DEFINED SYMBOLS
                            *ABS*:0000000000000000 main.c
     /tmp/cca4i599.s:430    .text.prepareForSend:0000000000000000 $t
     /tmp/cca4i599.s:435    .text.prepareForSend:0000000000000000 prepareForSend
     /tmp/cca4i599.s:514    .text.main:0000000000000000 $t
     /tmp/cca4i599.s:520    .text.main:0000000000000000 main
     /tmp/cca4i599.s:678    .text.main:0000000000000108 $d
                            *COM*:0000000000000001 __gnu_lto_v1
                     .debug_frame:0000000000000010 $d
     /tmp/cca4i599.s:686    .text.main:000000000000011c $t

UNDEFINED SYMBOLS
crcFast
halInit
chSysInit
_pal_lld_setgroupmode
sdStart
oqWriteTimeout
SD1
