ARM GAS  /tmp/ccg5cMLk.s 			page 1


   1              		.cpu cortex-m0
   2              		.fpu softvfp
   3              		.eabi_attribute 20, 1
   4              		.eabi_attribute 21, 1
   5              		.eabi_attribute 23, 3
   6              		.eabi_attribute 24, 1
   7              		.eabi_attribute 25, 1
   8              		.eabi_attribute 26, 1
   9              		.eabi_attribute 30, 6
  10              		.eabi_attribute 34, 0
  11              		.eabi_attribute 18, 4
  12              		.code	16
  13              		.file	"nvic.c"
  14              		.text
  15              	.Ltext0:
  16              		.section	.gnu.lto_.inline.f43389fea77cc9af,"",%progbits
  17 0000 789C6362 		.ascii	"x\234cb`b\300\006|\2414\013\003\203\244\004\003\003"
  17      6062C006 
  17      7CA1340B 
  17      0383A404 
  17      0303
  18 0012 935EC377 		.ascii	"\223^\303w& \007\254\230\221A\200\037($\263\341\025"
  18      262007AC 
  18      98914180 
  18      1F2824B3 
  18      E115
  19 0024 234C8889 		.ascii	"#L\210\211AT\004H\252\035\330\001W\305\314\300\316\006"
  19      41540448 
  19      AA1DD801 
  19      57C5CCC0 
  19      CE06
  20 0036 14E27A10 		.ascii	"\024\342z\020\013\023a\000\000>\"\007G"
  20      0B136100 
  20      003E2207 
  20      47
  21              		.text
  22              		.section	.gnu.lto_nvicEnableVector.f43389fea77cc9af,"",%progbits
  23 0000 789CCD55 		.ascii	"x\234\315UMH\024a\030\376\336\231\331]\327\237]]W\335"
  23      4D481461 
  23      18FEDE99 
  23      D95DD79F 
  23      5D5D57DD 
  24 0014 F5A7C48E 		.ascii	"\365\247\304\216\221S\020x\020\212\360\322E\2122\250"
  24      91531078 
  24      108AF0D2 
  24      458A32A8 
  25 0024 A32EB60E 		.ascii	"\243.\266\016\264nhD7\277u\266\213uX\214\250\254\203"
  25      B46E6844 
  25      37BF75B6 
  25      8B75588C 
  25      A8AC83
  26 0037 7A12E907 		.ascii	"z\022\351\007\244\203V\310\342!\224\220\360\030E\353"
  26      A48356C8 
  26      E2219490 
  26      F01845EB 
  27 0047 C12E45B1 		.ascii	"\301.E\261\024\026a4}\3577;_\263\2322\273\321\317\007"
  27      14166134 
ARM GAS  /tmp/ccg5cMLk.s 			page 2


  27      7DEF373B 
  27      5FB39A32 
  27      BBD1CF07 
  28 005b F3CE37EF 		.ascii	"\363\3167\357\363\376=\3177\263+\021\211l^Av\035-%\344"
  28      F3FE3DCF 
  28      37B32B11 
  28      896C5E41 
  28      761D2D25 
  29 0070 103EC804 		.ascii	"\020>\310\004X\004H\000\354\001\310\220\004CgpK\032"
  29      58044800 
  29      EC01C890 
  29      04436770 
  29      4B1A
  30 0082 5AC804A5 		.ascii	"Z\310\004\245\243\253\2273\317&\200\216\322D\3260\374"
  30      A3AB9733 
  30      CF26808E 
  30      D244D630 
  30      FC
  31 0093 1A421120 		.ascii	"\032B\021 \247A\003h\3467I\311\257n\246\321\271\265"
  31      A7410368 
  31      E63749C9 
  31      AF6EA6D1 
  31      B9B5
  32 00a5 E38B3499 		.ascii	"\343\2134\2316\214\303\032\310\016s\014[\216\323>\267"
  32      368CC31A 
  32      C80E730C 
  32      5B8ED33E 
  32      B7
  33 00b6 DE14DEE7 		.ascii	"\336\024\336\347F\0219\033E\344\314LQ\3578\375f\030"
  33      4611391B 
  33      45E4CC4C 
  33      51EF38FD 
  33      6618
  34 00c8 B2D39C14 		.ascii	"\262\323\234\024]\267\365Q\212\350\343r\230\263b\353"
  34      5DB7F551 
  34      8AE8E372 
  34      98B362EB 
  35 00d8 E334A770 		.ascii	"\3434\247p>\243\351\215\367K\366\327\307\251t\231\277"
  35      3EA3E98D 
  35      F74BF6D7 
  35      C7A97499 
  35      BF
  36 00e9 24F78BDF 		.ascii	"$\367\213\337\224\333\251\014_\327\257\206G\306\207"
  36      94DBA90C 
  36      5FD7AF86 
  36      47C687
  37 00f8 53F4BB61 		.ascii	"S\364\273a\200\363\264kO\213\372\370V\012\376\370R4"
  37      80F3B46B 
  37      4F8BFAF8 
  37      560AFEF8 
  37      5234
  38 010a 63CB5124 		.ascii	"c\313Q$\322\006\316\322\354b\374\301\3675}\375\237)"
  38      D206CED2 
  38      EC62FCC1 
  38      F7357DFD 
  38      9F29
  39 011c D1FEBF28 		.ascii	"\321\376\277(\361@J\257\032\306\235\347c\257C\260\013"
ARM GAS  /tmp/ccg5cMLk.s 			page 3


  39      F1404AAF 
  39      1AC69DE7 
  39      63AF43B0 
  39      0B
  40 012d 08134182 		.ascii	"\010\023A\202\030\260_pFM\301G\027\356\334h<hJ\320x"
  40      18B05F70 
  40      464DC147 
  40      17EEDC68 
  40      3C684AD0 
  41 0142 99514A99 		.ascii	"\231QJ\231q\225\241)G_\005K\003\037\356\374h*\321Ta"
  41      7195A129 
  41      475F054B 
  41      031FEEFC 
  41      682AD154 
  42 0157 5C0077D5 		.ascii	"\\\000w\325h\202X\257\006w\265\244\033\036B\013\251"
  42      688258AF 
  42      0677B5A4 
  42      1B1E420B 
  42      A9
  43 0168 C38010D6 		.ascii	"\303\200\020\326\010#V\217X\003\303\0361\254\021\261"
  43      0823568F 
  43      5803C31E 
  43      31AC11B1 
  44 0178 26C239B0 		.ascii	"&\3029\260)\222L\216f\316\206\255.nO\341\277\214\274"
  44      29924C8E 
  44      66CE86AD 
  44      2E6E4FE1 
  44      BF8CBC
  45 018b 4C86676F 		.ascii	"L\206gof\344n\230g\221Q\000dI\350\202N},d\231\350\367"
  45      66E46E98 
  45      67915100 
  45      6449E882 
  45      4E7D2C64 
  46 01a2 F5010B93 		.ascii	"\365\001\013\223\243 !\254H\034\032\236\315\372-H\331"
  46      A32021AC 
  46      481C1A9E 
  46      CDFA2D48 
  46      D9
  47 01b3 9A362359 		.ascii	"\2326#Y\240+?o\341U6`A\356}\344.M2\314\275\227L\323"
  47      A02B3F6F 
  47      E1553660 
  47      41EE7DE4 
  47      2E4D32CC 
  48 01cb 64820E69 		.ascii	"d\202\016i\340\271M\306\230\247\304\252\312WO\356\036"
  48      E0B94DC6 
  48      98A7C4AA 
  48      CA574FEE 
  48      1E
  49 01dc E57CCCC5 		.ascii	"\345|\314\305\332<\326?\213\321=\2716\262lb#\002a\245"
  49      DA3CD63F 
  49      8BD13DB9 
  49      36B26C62 
  49      230261A5 
  50 01f0 3C1C2931 		.ascii	"<\034)1\007\377\240\277\025\230\227\301<\374\236p\225"
  50      07FFA0BF 
  50      159897C1 
  50      3CFC9E70 
ARM GAS  /tmp/ccg5cMLk.s 			page 4


  50      95
  51 0201 62ACCB00 		.ascii	"b\254\313\000Dy\374\023}Z\200e\014\317\265\236\024\316"
  51      4479FC13 
  51      7D5A8065 
  51      0CCFB59E 
  51      14CE
  52 0213 72C68441 		.ascii	"r\306\204Af\035\375\313K\001\370\242P\301\251\273\255"
  52      661DFDCB 
  52      4B01F8A2 
  52      50C1A9BB 
  52      AD
  53 0224 79E705E6 		.ascii	"y\347\005\346\337v\336J\006\346\317;#\260*\006o\232"
  53      DF76DE4A 
  53      06E6CF3B 
  53      23B02A06 
  53      6F9A
  54 0236 37C0FB54 		.ascii	"7\300\373Tq\357\234\376\351]\330\002\252\371d\001.\372"
  54      71EF9CFE 
  54      E95DD802 
  54      AAF96401 
  54      2EFA
  55 0248 52CA67BA 		.ascii	"R\312g\272\271\342\011\332\366Ss\277]s\370\225\3462"
  55      B9E209DA 
  55      F65373BF 
  55      5D73F895 
  55      E632
  56 025a B176D5E6 		.ascii	"\261v\325\346\311O\365X=\202[O~\022,\260\306:y\227E"
  56      C94FF558 
  56      3D825B4F 
  56      7E122CB0 
  56      C63A7997 
  57 026f 645E60B5 		.ascii	"d^`\265Q|\377P\023A\244\216yy\370n\222\223\362\243\010"
  57      517CFF50 
  57      1341A48E 
  57      7979F86E 
  57      9293F2A3 
  58 0284 0FF143C1 		.ascii	"\017\361C\3013\2513\371d\313\362\370\264\347\361\361"
  58      33A933F9 
  58      64CBF2F8 
  58      B4E7F1F1 
  59 0294 0A3E413B 		.ascii	"\012>A;\037\310\261\250\021|B&\237E\301'\274\023\237"
  59      1FC8B1A8 
  59      117C4226 
  59      9F45C127 
  59      BC139F
  60 02a7 FA1DF834 		.ascii	"\372\035\3704l\345\323\310\274\333\361i\022|\032\013"
  60      6CE5D3C8 
  60      BCDBF169 
  60      127C1A0B 
  61 02b7 E213B6F3 		.ascii	"\342\023\266\363\221r,\352\005\237&BVHb\365\312\036"
  61      91722CEA 
  61      059F2642 
  61      564862F5 
  61      CA1E
  62 02c9 B398B5BA 		.ascii	"\263\230\265\272\220:F\037T\373\342\261^\265\367l\257"
  62      903A461F 
  62      54FBE2B1 
ARM GAS  /tmp/ccg5cMLk.s 			page 5


  62      5EB5F76C 
  62      AF
  63 02da DAD1A7F5 		.ascii	"\332\321\247\365h\307N\252\361A\265\257\373\234z>>p"
  63      68C74EAA 
  63      F141B5AF 
  63      FB9C7A3E 
  63      3E70
  64 02ec 61508DC4 		.ascii	"aP\215\304c\261x\277z\344DgG\347%\265\377\242\026i\215"
  64      63B178BF 
  64      7AE44467 
  64      47E725B5 
  64      FFA21669 
  65 0301 10B9BF75 		.ascii	"\020\271\277u?\273\016\374\000\214\355X\231"
  65      3FBB0EFC 
  65      008CED58 
  65      99
  66              		.text
  67              		.section	.gnu.lto_nvicDisableVector.f43389fea77cc9af,"",%progbits
  68 0000 789CB553 		.ascii	"x\234\265SMh\023Q\020\236\331\237\374\266\371)^<Y\352"
  68      4D681351 
  68      109ED99F 
  68      FCB6F929 
  68      5E3C59EA 
  69 0014 51EC8208 		.ascii	"Q\354\202\010\025=\210\364\\\024\255\240xJCL\026L\""
  69      153D88F4 
  69      5C14ADA0 
  69      784A434C 
  69      164C22
  70 0027 AD8817E9 		.ascii	"\255\210\027\351K\266^z\012\005Q\364\322*\210\204Z\245"
  70      4BB65E7A 
  70      0A0551F4 
  70      D22A8884 
  70      5AA5
  71 0039 5E22FE85 		.ascii	"^\"\376\205\034\244\"\205\366.\030D\355MJ=\011\332u"
  71      1CA42285 
  71      F62E1844 
  71      ED4D4A3D 
  71      09DA75
  72 004c E66D76BB 		.ascii	"\346mv\273\261\0366\005\037\354\354\274\375\346{\363"
  72      B11E3605 
  72      1FECECBC 
  72      FDE67BF3 
  73 005c CDCC3E05 		.ascii	"\315\314>\005\024\370{\355\243\347R\010\3408oT@\212"
  73      14F87BED 
  73      A3E75208 
  73      E0386F54 
  73      408A
  74 006e 40059136 		.ascii	"@\005\2216\010\323\012N_d\027RC\260 \304\\\373\326F"
  74      08D30A4E 
  74      5F641752 
  74      43B020C4 
  74      5CFBD646 
  75 0082 63FFEC7C 		.ascii	"c\377\354|\265&\266m\033M\206\262\010\027\310\303A\371"
  75      B526B66D 
  75      1B4D86B2 
  75      0817C8C3 
  75      41F9
ARM GAS  /tmp/ccg5cMLk.s 			page 6


  76 0094 52B4EED3 		.ascii	"R\264\356\323\035\232X\377rfE\3144m\373\244\211j NM"
  76      1D9A58FF 
  76      726645CC 
  76      346DFBA4 
  76      896A204E 
  77 00a9 7CF27134 		.ascii	"|\362q4\005F0\030m\371\261\210\316\213_\266\255\022"
  77      05463018 
  77      6DF9B188 
  77      CE8B5FB6 
  77      AD12
  78 00bb 2DA03C3F 		.ascii	"-\240<?G\017\306i\276~\367a\001\211[\331\264\355d\360"
  78      470FC669 
  78      BE7EF761 
  78      01895BD9 
  78      B4ED64F0 
  79 00cf 4EBCE8B9 		.ascii	"N\274\350\271\023s\342\267\217\0234\317\235\257\275"
  79      1373E2B7 
  79      8F1334CF 
  79      9DAFBD
  80 00de E7B9BD07 		.ascii	"\347\271\275\007\316\317=p\374\355\016\3727\374\360"
  80      CECF3D70 
  80      FCED0EFA 
  80      37FCF0
  81 00ed E5F98F63 		.ascii	"\345\371\217c\025o}y\202rz\252\347\251\322l\333\366"
  81      156F7D79 
  81      82727AAA 
  81      E7A9D26C 
  81      DBF6
  82 00ff E2F3679F 		.ascii	"\342\363g\237\353\230\036@\240\221*XD\272zD\326 \203"
  82      EB981E40 
  82      A0912A58 
  82      44BA7A44 
  82      D62083
  83 0112 0F710874 		.ascii	"\017q\010t\332h!2z\230\003\"\214E\331\213\261\027g\323"
  83      DA682132 
  83      7A980322 
  83      8C45D98B 
  83      B11767D3 
  84 0126 C7A69F4D 		.ascii	"\307\246\237M\202\203\223\034\234b\223\006\251\202\316"
  84      8283931C 
  84      9C629306 
  84      A982CE
  85 0135 98A1C60D 		.ascii	"\230\241\306\015J=\264\306\245=\317\367[]\205j\343\356"
  85      4A3DB4C6 
  85      A53DCFF7 
  85      5B5D856A 
  85      E3EE
  86 0147 C6B10C2E 		.ascii	"\306\261\014.S\215yD\326\011\242e\211\004\205\254\202"
  86      538D7944 
  86      D609A265 
  86      890485AC 
  86      82
  87 0158 B5643D40 		.ascii	"\265d=@\027T\363\2500\256\351\022\253~\267\336x\230"
  87      1754F3A8 
  87      30AEE912 
  87      AB7EB7DE 
  87      7898
ARM GAS  /tmp/ccg5cMLk.s 			page 7


  88 016a 96E7E388 		.ascii	"\226\347\343\210\360Ru?\351\364U\206\037p\216zbmy\341"
  88      F052753F 
  88      E9F45586 
  88      1F708E7A 
  88      626D79E1 
  89 017e 210674E4 		.ascii	"!\006t\344(\306Z\3577\343\016t\030\026\305LE\23401t"
  89      28C65AEF 
  89      37E30E74 
  89      1816C54C 
  89      459C3031 
  90 0193 08EAECD2 		.ascii	"\010\352\354\322\215\012\337\207{\024\037q\365\3115"
  90      8D0ADF87 
  90      7B141F71 
  90      F5C935
  91 01a2 D179E765 		.ascii	"\321y\347e\211\216\027\222\272\032+y7Oxw=\223.\026q"
  91      898E1792 
  91      BA1A2B79 
  91      374F7877 
  91      3D932E16 
  92 01b7 CB519C72 		.ascii	"\313Q\234r\032kI\027\212\356\246-).\030\353\346\265"
  92      1A6B4917 
  92      8AEEA62D 
  92      292E18EB 
  92      E6B5
  93 01c9 3EAE0DB8 		.ascii	">\256\015\270P\\\312\307\035\3617M\214z\342\243~\361"
  93      505CCAC7 
  93      1DF1374D 
  93      8C7AE2A3 
  93      7EF1
  94 01db D8911CF3 		.ascii	"\330\221\034\363~\007n\236\265\345\265\257\257\223F"
  94      7E076E9E 
  94      B5E5B5AF 
  94      AF9346
  95 01ea 551D6CD6 		.ascii	"U\035l\326C\372\011\224H\304\235\3037\017K\020\354t"
  95      43FA0994 
  95      48C49DC3 
  95      370F4B10 
  95      EC74
  96 01fc DBFB9494 		.ascii	"\333\373\224\224\275\266\271\331\011\031\377\312z\344"
  96      BDB6B9D9 
  96      0919FFCA 
  96      7AE4
  97 020a 8129C23B 		.ascii	"\201)\302;\251\267\275\012\323T\011A\316dj\211\256\311"
  97      A9B7BD0A 
  97      D3540941 
  97      CE646A89 
  97      AEC9
  98 021c 8C744D66 		.ascii	"\214tMf\247\270\360\277\212\213x\223I\003\254C\245]"
  98      A7B8F0BF 
  98      8A8B7893 
  98      4903AC43 
  98      A55D
  99 022e 3FE81CE6 		.ascii	"?\350\034\346\256q\016\345>\0365\012\345b\316\310]\316"
  99      AE710EE5 
  99      3E1E350A 
  99      E562CEC8 
  99      5DCE
ARM GAS  /tmp/ccg5cMLk.s 			page 8


 100 0240 19A30573 		.ascii	"\031\243\005s\302<}\316(O\031\205\314\025\343jy\362"
 100      C23C7DCE 
 100      284F1985 
 100      CC15E36A 
 100      79F2
 101 0252 DA94912D 		.ascii	"\332\224\221-\027\213\345\222q\352\354\330\350\330\015"
 101      178BE592 
 101      71EAECD8 
 101      E8D80D
 102 0261 A374DDCC 		.ascii	"\243t\335\314\016gA-\015\037\371\003|\214wP"
 102      0E67412D 
 102      0D1FF903 
 102      7C8C7750 
 103              		.text
 104              		.section	.gnu.lto_nvicSetSystemHandlerPriority.f43389fea77cc9af,"",%progbits
 105 0000 789CCD95 		.ascii	"x\234\315\225MhSA\020\307g\337G\276\2324m\323$\212\227"
 105      4D685341 
 105      10C767DF 
 105      47BE9A34 
 105      6DD3248A 
 106 0015 A247D1E7 		.ascii	"\242G\321\347A\364(\322\233P\024\255\240\3076\304$`"
 106      41F428D2 
 106      9B5014AD 
 106      A0C736C4 
 106      2460
 107 0027 9AD28A78 		.ascii	"\232\322\212x\313\246/`)U\242x\321x\250\212 R\265\012"
 107      CBA62F60 
 107      2955A278 
 107      D178A88A 
 107      2052B50A 
 108 003b 9A163D04 		.ascii	"\232\026=\004\221b\017\025\275\212\207\"\315MRo\026"
 108      91620F15 
 108      BD8A8722 
 108      CD4D526F 
 108      16
 109 004c B1AE33FB 		.ascii	"\261\2563\373\362^\323\326\302#Pq!\377\235\354ofgv\336"
 109      F25ED3D6 
 109      C2235071 
 109      21FF9DEC 
 109      6F666776 
 110 0061 DB440105 		.ascii	"\333D\001\0056\217=\370y\347\0058B_4`\350\301\024\246"
 110      368F3DF8 
 110      79E70538 
 110      425F3460 
 110      E8C114A6 
 111 0075 A2AA8CE1 		.ascii	"\242\252\214\341\022\203\274\242\262\374y\262!\266\027"
 111      1283BCA2 
 111      B2FC79B2 
 111      21B617
 112 0084 EE717E73 		.ascii	"\356q~s\251\2662\263{bj\254\304\177\013\3012\204\022"
 112      A9B632B3 
 112      7B626AAC 
 112      C47F0BC1 
 112      328412
 113 0097 0CCEA1C5 		.ascii	"\014\316\241\305z\344\244h\033\223Xa|n\371\324{^\254"
 113      7AE4A468 
 113      1B935861 
ARM GAS  /tmp/ccg5cMLk.s 			page 9


 113      7C6EF9D4 
 113      7B5EAC
 114 00aa 0A712C43 		.ascii	"\012q,C\031\\\305\274x\304\375S\374\227\020\352\316"
 114      195CC5BC 
 114      78C4FD53 
 114      FC9710EA 
 114      CE
 115 00bb C6946BEB 		.ascii	"\306\224k\353\265\271=O\245\366\377\236\347e\013\265"
 115      B5B93D4F 
 115      A5F6FF9E 
 115      E7650BB5 
 116 00cb 55E62703 		.ascii	"U\346'\003\245\3028\027\"\277\223\305\225\370\363\346"
 116      A5C23817 
 116      22BF93C5 
 116      95F8F3E6 
 117 00db 445A0B89 		.ascii	"DZ\013\211t\2271kM]p\033\323B\267\2537\256>l\276\020"
 117      7497316B 
 117      4D5D701B 
 117      D342B7AB 
 117      37AE3E6C 
 118 00f1 6E7BB7F6 		.ascii	"n{\267\366O^\240\022\377\321\224\247\225v\273m\203\230"
 118      4F5EA012 
 118      FFD194A7 
 118      9576BB6D 
 118      8398
 119 0103 5F66B76F 		.ascii	"_f\267oU\2132\216\271iD\226\3013\245\272$\304tef\362"
 119      558B328E 
 119      B9694496 
 119      C133A5BA 
 119      24C47465 
 120 0119 1BBBABEC 		.ascii	"\033\273\253\354b\200\027PaY\206\301\270\201F\242\223"
 120      62801750 
 120      615986C1 
 120      B88146A2 
 120      93
 121 012a 780878C9 		.ascii	"x\010x\311\362\221\370I\002$m$A\222\020\212\326\216"
 121      F291F849 
 121      02246D24 
 121      4192108A 
 121      D68E
 122 013c A287493A 		.ascii	"\242\207I:h\255\023\267R\272\310\212\220t\223D\311/"
 122      68AD13B7 
 122      52BAC88A 
 122      90749344 
 122      C92F
 123 014e 46561C64 		.ascii	"FV\034d\221\240C\021\033\325\223m\334}\034\375\015\305"
 123      91A04311 
 123      1BD5936D 
 123      DC7D1CFD 
 123      0DC5
 124 0160 1F44F52C 		.ascii	"\037D\365,\371\250\21306\273\272rh\200\275\302w)\305"
 124      F9A88B30 
 124      36BBBA72 
 124      6880BDC2 
 124      7729C5
 125 0173 189D07F8 		.ascii	"\030\235\007\370g\223\267\243\343\"\230\257\315\021"
 125      6793B7A3 
ARM GAS  /tmp/ccg5cMLk.s 			page 10


 125      E32298AF 
 125      CD11
 126 0181 9BA929A6 		.ascii	"\233\251)\246\020V\303\026\032Wm\242!\224dU\010\321"
 126      1056C316 
 126      1A576DA2 
 126      21946455 
 126      08D1
 127 0193 A04F1DAA 		.ascii	"\240O\035\252\243\003QM\221dlv&b#\317\326tu\305\206"
 127      A303514D 
 127      91646C76 
 127      266223CF 
 127      D67475C5 
 128 01a8 DE6DF3F9 		.ascii	"\336m\363\371\020n\237\317\217\016M\371\336~\371\030"
 128      106E9FCF 
 128      8F0E4DF9 
 128      DE7EF918 
 129 01b8 B351E000 		.ascii	"\263Q\340\000L\363\"2\317~x\314\213\005^F\333[\206;"
 129      4CF32232 
 129      CF7E78CC 
 129      8B055E46 
 129      DB5B863B 
 130 01cc 38F9EC72 		.ascii	"8\371\354r\344\030l\314\270\235\363\\\255\372\202\366"
 130      E4186CCC 
 130      B89DF35C 
 130      ADFA82F6 
 131 01dc 666D767D 		.ascii	"fmv}\252\305&\234\012\202\010%\361Y'\256\233_\235\250"
 131      AAC5269C 
 131      0A820825 
 131      F15927AE 
 131      9B5F9DA8 
 132 01f0 1062E9FE 		.ascii	"\020b\351\376\304qo'_]0\242\322\377\215y\337\361\017"
 132      C4716F27 
 132      5F5D30A2 
 132      D2FF8D79 
 132      DFF10F
 133 0203 236FA4FE 		.ascii	"#o\244\376\351Dt\340Q\020Y\373\230\017\256\237\260A"
 133      E94474E0 
 133      511059FB 
 133      980FAE9F 
 133      B041
 134 0215 578A75CA 		.ascii	"W\212u\312\263{`KPd\333z\273\021n\254\267\356\260(\342"
 134      B37B604B 
 134      5064DB7A 
 134      BB116EAC 
 134      B7EEB028 
 135 022a 4DF5C664 		.ascii	"M\365\306d\236\250\\\2353\305\265\005\207\304ei1\331"
 135      9EA85C9D 
 135      33C5B505 
 135      87C46569 
 135      31D9
 136 023c F685EF61 		.ascii	"\366\205\357akY\366\274\300\217\256w=\324\334t\366\267"
 136      6B59F6BC 
 136      C08FAE77 
 136      3DD4DC74 
 136      F6B7
 137 024e A6EB605B 		.ascii	"\246\353`[q\200OPX\372\260\317\332\314\036\375\364G"
 137      71804F50 
ARM GAS  /tmp/ccg5cMLk.s 			page 11


 137      58FAB0CF 
 137      DACC1EFD 
 137      F447
 138 0260 4E0FF8B0 		.ascii	"N\017\370\260\221\316e\223F\362B\322\350Mg\0063'\317"
 138      91CE6593 
 138      46F242D2 
 138      E84D6706 
 138      3327CF
 139 0273 18B95123 		.ascii	"\030\271Q#=p\321\030\316\215\\\0325\022\271l67d\034"
 139      3D70D118 
 139      CE8D5C1A 
 139      3512B96C 
 139      3637641C 
 140 0287 3FDDD7DB 		.ascii	"?\335\327\333w\305\030\272\234I\034L\300\037\234,\311"
 140      77C518BA 
 140      9C491C4C 
 140      C01F9C2C 
 140      C9
 141 0298 34       		.ascii	"4"
 142              		.text
 143              		.section	.gnu.lto_nvicClearPending.f43389fea77cc9af,"",%progbits
 144 0000 789C9552 		.ascii	"x\234\225R;H\003A\020\235\331\273\313i\243\0106V\212"
 144      3B480341 
 144      109DD9BB 
 144      CB69A308 
 144      36568A
 145 0013 9662B650 		.ascii	"\226b\266PP\264\020Ie!\212\037\32029br`rbD\354\262\311"
 145      50B41049 
 145      65218A1F 
 145      D0323962 
 145      72607262 
 146 002b A5B20A82 		.ascii	"\245\262\012\202\2156~\032\021?`\025L#V6\026\366\012"
 146      8D367E1A 
 146      113F6015 
 146      4C235636 
 146      16F60A
 147 003e 41148285 		.ascii	"A\024\202\205\235\304B<g\367rA\255\342\300\355\316\274"
 147      9DC4423C 
 147      67F77241 
 147      ADE2C0ED 
 147      CEBC
 148 0050 37EFEDE7 		.ascii	"7\357\355\347\226\001\203\277\321I\337\016\301\243\262"
 148      960183BF 
 148      D149DF0E 
 148      C1A3B2
 149 005f D0002945 		.ascii	"\320\000)E\206H\005B\226avI\246\020\352\205\003!\266"
 149      86480542 
 149      96617649 
 149      A610EA85 
 149      0321B6
 150 0072 2B2FB552 		.ascii	"+/\265R\327\326~\276(\276<\017mIY\010\213\224a\217\232"
 150      D7D67EBE 
 150      28BE3C0F 
 150      6D495908 
 150      8B94618F 
 151 0087 98FEDBDD 		.ascii	"\230\376\333\335\227\211\373\347\231[Q\270\366\274q"
 151      9789FBE7 
ARM GAS  /tmp/ccg5cMLk.s 			page 12


 151      995B51B8 
 151      F6BC71
 152 0096 1BB5A634 		.ascii	"\033\265\2464E\361\376C\2433\030\306\346d\227\307\242"
 152      45F1FE43 
 152      A33318C6 
 152      E66497C7 
 152      A2
 153 00a7 755F7C7A 		.ascii	"u_|z\236F\262&\227\372\277f[<\376\347H\027\354\272\342"
 153      9E46B226 
 153      97FABF66 
 153      5B3CFEE7 
 153      4817ECBA 
 154 00bc 790FE5D3 		.ascii	"y\017\345\323\247*v\264 \320\3151L!\3357\211u\210\342"
 154      A72A76B4 
 154      20D0CD31 
 154      4C21DD37 
 154      897588E2 
 155 00d0 11F68241 		.ascii	"\021\366\202A\205\036\222\203\011\312\223\220\002m\257"
 155      851E9283 
 155      09CA9390 
 155      026DAF
 156 00df 47B953CC 		.ascii	"G\271S\314\253qA\376\"\355\016\362\245\217\332H\024"
 156      AB7141FE 
 156      22ED0EF2 
 156      A58FDA48 
 156      14
 157 00f0 8FD18004 		.ascii	"\217\321\200\004\242\\\025\304\215+\332\250\345\016"
 157      A25C15C4 
 157      8D2BDAA8 
 157      E50E
 158 00fe DC73F710 		.ascii	"\334s\367\020\003RK \223\274n(.\377\346\27668=!\355"
 158      03524B20 
 158      93BC6E28 
 158      2EFFE6BE 
 158      36383D21 
 159 0113 4850D602 		.ascii	"HP\326\002\310 T\265w\373Vg\015&\244`\224=u\243\253"
 159      C82054B5 
 159      77FB5667 
 159      0D26A460 
 159      943D75A3 
 160 0128 869149B4 		.ascii	"\206\221I\264\004o&}d\000NE!'\306l4\372\341D\246\355"
 160      046F267D 
 160      64004E45 
 160      2127C66C 
 160      34FAE144 
 161 013e 3686F660 		.ascii	"6\206\366`\227,\314`\303*b\3659\241\316\354g&\300=\344"
 161      972CCC60 
 161      C32A62F5 
 161      39A1CEEC 
 161      6726C03D 
 162 0153 2AD53EDF 		.ascii	"*\325>\337,\210y\3710\345\033\036\342I'\025\347\361"
 162      2C8879F9 
 162      30E51B1E 
 162      E2492715 
 162      E7F1
 163 0165 E5388F24 		.ascii	"\3458\217$\355\230==\307\235\014OFW\370\252\263\266"
 163      ED983D3D 
ARM GAS  /tmp/ccg5cMLk.s 			page 13


 163      C79D0C4F 
 163      4657F8AA 
 163      B3B6
 164 0177 9EE19693 		.ascii	"\236\341\226\223J9i>1;\025\231\332\344\351\015\333\012"
 164      4A39693E 
 164      313B1599 
 164      DAE4E90D 
 164      DB0A
 165 0189 5BA0A5C3 		.ascii	"[\240\245\303\203\337\264\313\244\024"
 165      83DFB4CB 
 165      A414
 166              		.text
 167              		.section	.gnu.lto_.symbol_nodes.f43389fea77cc9af,"",%progbits
 168 0000 789C6362 		.ascii	"x\234cb`b\260c\200\002\246\251\214\365\014\014\023\316"
 168      6062B063 
 168      8002A6A9 
 168      8CF50C0C 
 168      13CE
 169 0012 3130D4D7 		.ascii	"10\324\327_\353`d\232\306X\317\210\304\235\316X\317"
 169      5FEB6064 
 169      9AC658CF 
 169      88C49DCE 
 169      58CF
 170 0024 84C49DC1 		.ascii	"\204\304\235\301X\317\214\3402\000\000_\362\023\227"
 170      58CF8CE0 
 170      3200005F 
 170      F21397
 171              		.text
 172              		.section	.gnu.lto_.refs.f43389fea77cc9af,"",%progbits
 173 0000 789C6362 		.ascii	"x\234cb`b`d\200\002\000\000F\000\006"
 173      60626064 
 173      80020000 
 173      460006
 174              		.text
 175              		.section	.gnu.lto_.decls.f43389fea77cc9af,"",%progbits
 176 0000 789CAD58 		.ascii	"x\234\255Xml\024E\030\236\331\273\266w\245\326B\"\251"
 176      6D6C1445 
 176      189ED9BB 
 176      B677A5D6 
 176      4222A9
 177 0013 09C861C4 		.ascii	"\011\310a\304\030\242,\024\210\377\020\2746\366~\200"
 177      18A22C14 
 177      88FF10BC 
 177      36F67E80 
 178 0023 CD9DADFE 		.ascii	"\315\235\255\376\273L\257\213w\311\365\216\334]\025"
 178      BB4CAF8B 
 178      77C9F58E 
 178      DC5D15
 179 0032 127F4C29 		.ascii	"\022\177L)%h0^\001#\211\021Zm\243$*\332bS\020\353\246"
 179      2568305E 
 179      01238911 
 179      5A6DA324 
 179      2ADA6253 
 180 0049 185A8A91 		.ascii	"\030Z\212\221\322`K\010\037\027\220@\002D\202_1P\316"
 180      D2604B08 
 180      1F179040 
 180      0244825F 
ARM GAS  /tmp/ccg5cMLk.s 			page 14


 180      3150CE
 181 005c 7767776F 		.ascii	"wgwo?\330\245{\304I\336w\347n\337\367\231\347ygv\346"
 181      3FD8A57B 
 181      C449DE77 
 181      E76EDFF7 
 181      99E77967 
 182 0072 F638C4A1 		.ascii	"\3668\304\241,F(\017\355\370\\\204\316@\277\004!\264"
 182      2C46280F 
 182      EDF85C84 
 182      CE40BF04 
 182      21B4
 183 0084 0669CD0D 		.ascii	"\006i\315\015\326\003\326\0176\0046\214\036l\322\375"
 183      D603D60F 
 183      3604368C 
 183      1E6CD2FD 
 184 0094 72B011B0 		.ascii	"r\260\021\260J\260\012\2602%W\302\033\007\273\002v\014"
 184      4AB00AB0 
 184      322557C2 
 184      1B07BB02 
 184      760C
 185 00a6 EC04980B 		.ascii	"\354\004\230\013\3542\3309\26010\254`p`_\201\0354\341"
 185      EC32D839 
 185      B03130AC 
 185      6070605F 
 185      811D34E1 
 186 00ba F73BC03F 		.ascii	"\367;\300?\241\340_Qp&\2251\260\222/]\007M\270\222\036"
 186      A1E05F51 
 186      70269531 
 186      B0922F5D 
 186      074DB892 
 187 00cf 2FD8B587 		.ascii	"/\330\265\207\340\336\003\273\256\344\337U\256C\212"
 187      E0DE03BB 
 187      AEE4DF55 
 187      AE438A
 188 00de 060E3E1C 		.ascii	"\006\016>\034\201\353Q\023\256T#\217\015_=W\254\324"
 188      81EB5113 
 188      AE54238F 
 188      0D5F3D57 
 188      ACD4
 189 00f0 002B39D2 		.ascii	"\000+9\322U4a-B\373h\267\230\353\333w\022\323]\364^"
 189      5534612D 
 189      42FB68B7 
 189      98EBDB77 
 189      12D35DF4 
 190 0105 3EDFE146 		.ascii	">\337\341F\363\321\207\024Z\367vJq\206\3405O\24070\301"
 190      F3D18714 
 190      5AF7764A 
 190      7186E035 
 190      4FA03730 
 191 011a 955EE463 		.ascii	"\225^\344c\235\012/\033\011!\202?\305\363Y\317\305j"
 191      9D0A2F1B 
 191      0921823F 
 191      C5F359CF 
 191      C56A
 192 012c 02627750 		.ascii	"\002bwP\272UJ\254\037\003bVYKP/\245\331\334\245\003"
 192      BA554AAC 
 192      1F036256 
ARM GAS  /tmp/ccg5cMLk.s 			page 15


 192      594B502F 
 192      A5D9DCA5 
 193 0141 3B9FA7D4 		.ascii	";\237\247\324Cp/\366Bn#FK\321\001\0303K\351\010\217"
 193      43702FF6 
 193      426E2346 
 193      4BD10118 
 193      334BE908 
 194 0156 D183CD39 		.ascii	"\321\203\3159\364\307\243?u\341\016\240N\360\027\014"
 194      F4C7A33F 
 194      75E10EA0 
 194      4EF0170C 
 195 0166 7C37C640 		.ascii	"|7\306@\365s\274T\201\"\270\314\253\207f\237\325\000"
 195      F573BC54 
 195      8122B8CC 
 195      AB87669F 
 195      D500
 196 0178 098FDD56 		.ascii	"\011\217\335V:\322\332}\034\025\033\256\324C\226\307"
 196      3AD2DA7D 
 196      1C151BAE 
 196      D44396C7 
 197 0188 3A8DAE02 		.ascii	":\215\256\002\000\207\366\231\030=\203>\243t\027LB\357"
 197      0087F699 
 197      183D833E 
 197      A374174C 
 197      42EF
 198 019a 93B49B53 		.ascii	"\223\264\233S\213r\220E\365\340E\226j\025l9\225\036"
 198      8B729045 
 198      F5E04596 
 198      6A156C39 
 198      951E
 199 01ac 16EAD5B4 		.ascii	"\026\352\325\264o\235\244!\364,\352\223&\371}\332Y\205"
 199      6F9DA421 
 199      F42CEA93 
 199      26F97DDA 
 199      5985
 200 01be D91C2325 		.ascii	"\331\034#%\313 \365K\314=\270Z\304C\307+\262\355\271"
 200      CB20F54B 
 200      CC3DB85A 
 200      C443C72B 
 200      B2EDB9
 201 01d1 7C7EBFCF 		.ascii	"|~\277\317\371R\0310.\025\231\207\251.\203\226u\241"
 201      F9521930 
 201      2E159987 
 201      A92E8396 
 201      75A1
 202 01e3 BB557104 		.ascii	"\273Uq\004\177\015|\010\356\177$q\375fq\337Y\212\373"
 202      7F0D7C08 
 202      EE7F2471 
 202      FD6671DF 
 202      598AFB
 203 01f6 B3204E5E 		.ascii	"\263 N^\337\034\032\263\246\245\253\371U\0261\344h\252"
 203      DF1C1AB3 
 203      A6A5ABF9 
 203      551631E4 
 203      68AA
 204 0208 663435DF 		.ascii	"f45\33705\263\244\331\250\0312\2539l\251\346\310\250"
 204      3035B3A4 
ARM GAS  /tmp/ccg5cMLk.s 			page 16


 204      D9A81932 
 204      AB396CA9 
 204      E6C8A8
 205 021b A66680A9 		.ascii	"\246f\200\251\271e\255\246\313\\\344\341G\2425l\246"
 205      B965ADA6 
 205      CB5CE4E1 
 205      47A2356C 
 205      A6
 206 022c F5A391D6 		.ascii	"\365\243\221\326\034\364\236\366\034\317C]\022\202O"
 206      1CF49EF6 
 206      1CCF435D 
 206      12824F
 207 023b F744D31A 		.ascii	"\367D\323\032u\254\356RTx\246g>\270P\307\266\213cx\236"
 207      75ACEE52 
 207      5478A667 
 207      3EB850C7 
 207      B68B6378 
 208 0250 B4C439A3 		.ascii	"\264\3049\243\204\331q$&\307!W\316b\250T\374a\252\202"
 208      84D97124 
 208      26C72157 
 208      CE62A854 
 208      FC61AA82 
 209 0264 BAE5EF91 		.ascii	"\272\345\357\221\001\317\320\026\243n\272\255]<=\265"
 209      01CFD016 
 209      A36EBAAD 
 209      5D3C3DB5 
 210 0274 071ECE11 		.ascii	"\007\036\316\021<\027e\331\212/\035\253d{R\307C\367"
 210      3C1765D9 
 210      8A2F1DAB 
 210      647B52C7 
 210      43F7
 211 0286 2482FBF0 		.ascii	"$\202\373\360\022G[\206\365s\243\033M\256\273\335\343"
 211      12475B86 
 211      F573A31B 
 211      4DAEBBDD 
 211      E3
 212 0297 75128849 		.ascii	"u\022\210I\215q\242\012'\026a\227\361\263<\213\352\327"
 212      8D71A20A 
 212      27166197 
 212      F1B33C8B 
 212      EAD7
 213 02a9 BA8E7EFA 		.ascii	"\272\216~\372\324(\250\372\367\254\352R\265\254 \015"
 213      D428A8FA 
 213      F7ACEA52 
 213      B5AC200D 
 214 02b9 D94A80AE 		.ascii	"\331J\200\256\202P\356\311\246,Q\364\370Lrrej\376;\312"
 214      8250EEC9 
 214      A62C51F4 
 214      F84C7272 
 214      656AFE3B 
 215 02ce B8A78AD6 		.ascii	"\270\247\212\3263a\243\347)\244\012\020\315\002\214"
 215      3361A3E7 
 215      29A40A10 
 215      CD028C
 216 02dd C35A29F0 		.ascii	"\303Z)\360\031\326\300\231\251\212,!\370\004p\343\320"
 216      19D6C099 
 216      A98A2C21 
ARM GAS  /tmp/ccg5cMLk.s 			page 17


 216      F80470E3 
 216      D0
 217 02ee B8937250 		.ascii	"\270\223rPl_\217\251&\011\354\024\003;\345\210\232\021"
 217      6C5F8FA9 
 217      2609EC14 
 217      033BE588 
 217      9A11
 218 0300 CDC8EDAC 		.ascii	"\315\310\355\254\236\333YG\3348{n\347t\334.8\343\306"
 218      9EDB5947 
 218      DC387B6E 
 218      E774DC2E 
 218      38E3C6
 219 0313 D9733BAF 		.ascii	"\331s;\257\347v\315\0217\227=\267\213:n7\235qs\331p"
 219      E776CD11 
 219      37973DB7 
 219      8B3A6E37 
 219      9D7173D9 
 220 0328 03B4DBF6 		.ascii	"\003\264\333\366\253\222V\231\304\021|\251\350e\231"
 220      AB925699 
 220      C4117CA9 
 220      E86599
 221 0337 B359962F 		.ascii	"\263Y\226/\025\226\345\337f\015\246q\325\276\333\246"
 221      1596E5DF 
 221      660DA671 
 221      D5BEDBA6 
 222 0347 2450E03B 		.ascii	"$P\340;&\021\343:\021\234\012 \353\266\323j\012#\370"
 222      2611E33A 
 222      119C0A20 
 222      EBB6D36A 
 222      0A23F8
 223 035a B7A2A55E 		.ascii	"\267\242\245^\265\221Z\206\264\246E\201r\3522+7\260"
 223      B5915A86 
 223      B4A64581 
 223      72EA322B 
 223      37B0
 224 036c 5085975A 		.ascii	"P\205\227Z\010\267j\372-\236\340Q\266\361\216\341\305"
 224      08B76AFA 
 224      2D9EE051 
 224      B6F18EE1 
 224      C5
 225 037d E07F617E 		.ascii	"\340\177a~\222\3713\314O1\177\226\371s\314\237g\376"
 225      92F933CC 
 225      4F317F96 
 225      F973CC9F 
 225      67FE
 226 038f 22F397C1 		.ascii	"\"\363\227\301\027\232\235\334\021<G\015\231\355T\023"
 226      179A9DDC 
 226      113C470D 
 226      99ED5413 
 227 039f 0BBA9E43 		.ascii	"\013\272\236C\352\241&\376:\215\341P\276\316N\264\016"
 227      EAA126FE 
 227      3A8DE150 
 227      BECE4EB4 
 227      0E
 228 03b0 D7AC279A 		.ascii	"\327\254'\232\021C\"p\303|\240\355\237f\007\332\215"
 228      11432270 
 228      C37CA0ED 
ARM GAS  /tmp/ccg5cMLk.s 			page 18


 228      9F6607DA 
 228      8D
 229 03c1 D90FB43D 		.ascii	"\331\017\264=\035\342\300\264|\240\025N1\361\1778\305"
 229      1DE2C0B4 
 229      7CA0154E 
 229      31F17F38 
 229      C5
 230 03d2 38B49329 		.ascii	"8\264\223)\271\361h\247\304\266\016\361\3204\333+\306"
 230      B9F168A7 
 230      C4B60EF1 
 230      D034DB2B 
 230      C6
 231 03e3 D9EFAA5D 		.ascii	"\331\357\252]E\203\37140\272U\034\224\301\344\2375\247"
 231      4583F934 
 231      30BA551C 
 231      94C1E49F 
 231      35A7
 232 03f5 D9CF9A59 		.ascii	"\331\317\232Y\300<\366\314\206\364\314>r\302\314c\303"
 232      C03CF6CC 
 232      86F4CC3E 
 232      72C2CC63 
 232      C3
 233 0406 0CC08EE8 		.ascii	"\014\300\216\350\301>q\002Ve\317\354\250\036\254\247"
 233      C13E7102 
 233      5665CFEC 
 233      A81EACA7 
 234 0416 683063CD 		.ascii	"h0c\315\206\265\232q\250\317\011X\265\035\263vq\342"
 234      86B59A71 
 234      A8CF0958 
 234      B51DB376 
 234      71E2
 235 0428 F5C2C6D4 		.ascii	"\365\302\306\324\275\326\2643\2555\226\311\020\326k"
 235      BDD6B433 
 235      AD3596C9 
 235      10D66B
 236 0437 1B46F04C 		.ascii	"\033F\360L\321\033\323}\233\215I\377\242\251EI\257^"
 236      D11BD37D 
 236      9B8D49FF 
 236      A2A94549 
 236      AF5E
 237 0449 66D90612 		.ascii	"f\331\006\022V\262\215\263;\251\237\220\001'5\364Y\200"
 237      56B28DB3 
 237      3BA99F90 
 237      012735F4 
 237      5980
 238 045b 5935FD53 		.ascii	"Y5\375SO\360M\366X\336b{\326m\346\3570\377\007\363\177"
 238      4FF04DF6 
 238      58DE627B 
 238      D66DE6EF 
 238      30FF07F3 
 239 0470 31FF0FF3 		.ascii	"1\377\017\363\3772\177\227y\3129\330\335\256i\273\333"
 239      FF327F97 
 239      79CA39D8 
 239      DDAE69BB 
 239      DB
 240 0481 D3A8874E 		.ascii	"\323\250\207NL\344:\177\337\213w\344\340\025\375~>\257"
 240      4CE43A7F 
ARM GAS  /tmp/ccg5cMLk.s 			page 19


 240      DF8B77E4 
 240      E015FD7E 
 240      3EAF
 241 0493 FE0CF6ED 		.ascii	"\376\014\366\355\255T\336\314s}b\365^m\377\360\350k"
 241      AD54DECC 
 241      737D62F5 
 241      5E6DFFF0 
 241      E86B
 242 04a5 2C6F4F90 		.ascii	",oO\220\300\025\202iu\265u,\301\235\234$j;\247\315\231"
 242      C0158269 
 242      75B5752C 
 242      C19D9C24 
 242      6A3BA7CD 
 243 04ba DC577B79 		.ascii	"\334W{y,M\321a\227\325\337\004\014\340\341\251\312\240"
 243      2C4DD161 
 243      97D5DF04 
 243      0CE0E1A9 
 243      CAA0
 244 04cc D7B13AEA 		.ascii	"\327\261:\352B\375\362\003Ar\250M\030\301;\270b\227"
 244      42FDF203 
 244      4172A84D 
 244      18C13BB8 
 244      6297
 245 04de DFBB9CF5 		.ascii	"\337\273\234\365\362[``\255F\201\266a\227\351u\322\314"
 245      F25B6060 
 245      AD4681B6 
 245      6197E975 
 245      D2CC
 246 04f0 8243A38A 		.ascii	"\202C\243\212|\202\313\245\316*>\232l\025xa\243\300"
 246      7C82CBA5 
 246      CE2A3E9A 
 246      6C157861 
 246      A3C0
 247 0502 FBA3B1E6 		.ascii	"\373\243\261\346\330\253!>\231\346\243$\316oJ\2462i"
 247      D8AB213E 
 247      99E6A324 
 247      CE6F4AA6 
 247      3269
 248 0514 3E926C6D 		.ascii	">\222lmM&\370u\301\365\376\365\233\371\304[\261\310"
 248      4D26F875 
 248      C1F5FEF5 
 248      9BF9C45B 
 248      B1C8
 249 0526 B2085AC8 		.ascii	"\262\010Z\310\267\245S|,\021\211\267\265\010|Bx;\036"
 249      B7A5537C 
 249      2C1189B7 
 249      B5087C42 
 249      783B1E
 250 0539 6BE6D399 		.ascii	"k\346\323\231\226X\"\263,\212<mp]Y\023\316\224\276\262"
 250      965822B3 
 250      2C8A3C6D 
 250      705D5913 
 250      CE94BEB2 
 251 054d A1D1E747 		.ascii	"\241\321\347G/XE\267\222H4\226\020\370p\213\260\221"
 251      2F5845B7 
 251      92483496 
 251      10F8708B 
ARM GAS  /tmp/ccg5cMLk.s 			page 20


 251      B091
 252 055f B4C533E1 		.ascii	"\264\3053\341\314\226MB\032\262\313\303a5\277J\032\256"
 252      CC964D42 
 252      1AB2CBC3 
 252      6135BF4A 
 252      1AAE
 253 0571 2E419AE3 		.ascii	".A\232\343B\223\020\311$S8\341\336\224\212%\347J\337"
 253      429310C9 
 253      245338E1 
 253      DE948A25 
 253      E74ADF
 254 0584 D7C6D2DA 		.ascii	"\327\306\322\332\215\005\3227!!\023\332\222\316\010"
 254      8D05D237 
 254      212113DA 
 254      92CE08
 255 0593 ADF524D1 		.ascii	"\255\365$\321\022\027R\015\020\232\212e\266\224E\345"
 255      1217520D 
 255      109A8A65 
 255      B69445E5 
 256 05a3 CF0CCE1F 		.ascii	"\317\014\316\037\027H\252AH\000\3277k,\265\013\2333"
 256      1748AA41 
 256      4800D737 
 256      6B2CB50B 
 256      9B33
 257 05b5 BC7F7D28 		.ascii	"\274\177}(\020*P\216$SB8\322\272\034\330y74\005\374"
 257      102A508E 
 257      24534238 
 257      D2BA1CD8 
 257      79373405 
 258 05ca E1D780AB 		.ascii	"\341\327\200\253;\020\252\013z\203u\340\233\352j\227"
 258      3B10AA0B 
 258      7A8375E0 
 258      9BEA6A97 
 259 05da BB03FEBA 		.ascii	"\273\003\376\272\240'(\177Z\0017\033\264\2335pS\367"
 259      A027287F 
 259      5A01371B 
 259      B49B3570 
 259      53F7
 260 05ec 7165A1B7 		.ascii	"qe\241\267\212\0134xB\376\227\031`\211\277\2411P\013"
 260      8A0B3478 
 260      42FE9719 
 260      6089BFA1 
 260      31500B
 261 05ff A1A160C9 		.ascii	"\241\241`\311\272@\320\037t\205\300\374~-q\205+T\337"
 261      BA40D01F 
 261      7485C0FC 
 261      7E2D7185 
 261      2B54DF
 262 0612 5012AA87 		.ascii	"P\022\252\207\010w$JR\236pxc[\"\022\016?\246v\226\255"
 262      0877244A 
 262      529E7078 
 262      635B2212 
 262      0E3FA676 
 263 0628 7E71F5AA 		.ascii	"~q\365\252\377\000\231\035\332\""
 263      FF00991D 
 263      DA22
 264              		.text
ARM GAS  /tmp/ccg5cMLk.s 			page 21


 265              		.section	.gnu.lto_.symtab.f43389fea77cc9af,"",%progbits
 266 0000 6E766963 		.ascii	"nvicEnableVector\000\000\000\000\000\000\000\000\000"
 266      456E6162 
 266      6C655665 
 266      63746F72 
 266      00000000 
 267 0019 000000A1 		.ascii	"\000\000\000\241\000\000\000nvicDisableVector\000\000"
 267      0000006E 
 267      76696344 
 267      69736162 
 267      6C655665 
 268 0033 00000000 		.ascii	"\000\000\000\000\000\000\000\000\000\000\262\000\000"
 268      00000000 
 268      0000B200 
 268      00
 269 0040 006E7669 		.ascii	"\000nvicSetSystemHandlerPriority\000\000\000\000\000"
 269      63536574 
 269      53797374 
 269      656D4861 
 269      6E646C65 
 270 0062 00000000 		.ascii	"\000\000\000\000\000\000\000\270\000\000\000nvicCle"
 270      000000B8 
 270      0000006E 
 270      76696343 
 270      6C65
 271 0074 61725065 		.ascii	"arPending\000\000\000\000\000\000\000\000\000\000\000"
 271      6E64696E 
 271      67000000 
 271      00000000 
 271      00000000 
 272 0088 00BE0000 		.ascii	"\000\276\000\000\000"
 272      00
 273              		.text
 274              		.section	.gnu.lto_.opts,"",%progbits
 275 0000 272D6D63 		.ascii	"'-mcpu=cortex-m0' '-mno-thumb-interwork' '-mthumb' "
 275      70753D63 
 275      6F727465 
 275      782D6D30 
 275      2720272D 
 276 0033 272D6767 		.ascii	"'-ggdb' '-O0' '-fomit-frame-pointer' '-falign-funct"
 276      64622720 
 276      272D4F30 
 276      2720272D 
 276      666F6D69 
 277 0066 696F6E73 		.ascii	"ions=16' '-ffunction-sections' '-fdata-sections' '-"
 277      3D313627 
 277      20272D66 
 277      66756E63 
 277      74696F6E 
 278 0099 666E6F2D 		.ascii	"fno-common' '-flto'\000"
 278      636F6D6D 
 278      6F6E2720 
 278      272D666C 
 278      746F2700 
 279              		.text
 280              		.cfi_sections	.debug_frame
 281              		.section	.text.nvicEnableVector,"ax",%progbits
ARM GAS  /tmp/ccg5cMLk.s 			page 22


 282              		.align	2
 283              		.p2align 4,,15
 284              		.global	nvicEnableVector
 285              		.code	16
 286              		.thumb_func
 287              		.type	nvicEnableVector, %function
 288              	nvicEnableVector:
 289              	.LFB149:
 290              		.file 1 "/home/efe/ChibiOS/os/hal/ports/common/ARMCMx/nvic.c"
 291              		.loc 1 57 0
 292              		.cfi_startproc
 293 0000 30B5     		push	{r4, r5, lr}
 294              		.cfi_def_cfa_offset 12
 295              		.cfi_offset 4, -12
 296              		.cfi_offset 5, -8
 297              		.cfi_offset 14, -4
 298 0002 83B0     		sub	sp, sp, #12
 299              		.cfi_def_cfa_offset 24
 300 0004 0190     		str	r0, [sp, #4]
 301 0006 0091     		str	r1, [sp]
 302              		.loc 1 60 0
 303 0008 1D4B     		ldr	r3, .L2
 304 000a 019A     		ldr	r2, [sp, #4]
 305 000c 9208     		lsr	r2, r2, #2
 306 000e 1C49     		ldr	r1, .L2
 307 0010 0198     		ldr	r0, [sp, #4]
 308 0012 8008     		lsr	r0, r0, #2
 309 0014 C030     		add	r0, r0, #192
 310 0016 8000     		lsl	r0, r0, #2
 311 0018 4158     		ldr	r1, [r0, r1]
 312 001a 019C     		ldr	r4, [sp, #4]
 313 001c 0320     		mov	r0, #3
 314 001e 2040     		and	r0, r4
 315 0020 C000     		lsl	r0, r0, #3
 316 0022 FF24     		mov	r4, #255
 317 0024 251C     		mov	r5, r4
 318 0026 8540     		lsl	r5, r5, r0
 319 0028 281C     		mov	r0, r5
 320 002a C043     		mvn	r0, r0
 321 002c 0840     		and	r0, r1
 322              		.loc 1 61 0
 323 002e 0099     		ldr	r1, [sp]
 324 0030 8C01     		lsl	r4, r1, #6
 325 0032 019D     		ldr	r5, [sp, #4]
 326 0034 0321     		mov	r1, #3
 327 0036 2940     		and	r1, r5
 328 0038 C900     		lsl	r1, r1, #3
 329 003a 251C     		mov	r5, r4
 330 003c 8D40     		lsl	r5, r5, r1
 331 003e 291C     		mov	r1, r5
 332              		.loc 1 60 0
 333 0040 0143     		orr	r1, r0
 334 0042 C032     		add	r2, r2, #192
 335 0044 9200     		lsl	r2, r2, #2
 336 0046 D150     		str	r1, [r2, r3]
 337              		.loc 1 65 0
 338 0048 0D4B     		ldr	r3, .L2
ARM GAS  /tmp/ccg5cMLk.s 			page 23


 339 004a 019A     		ldr	r2, [sp, #4]
 340 004c 5209     		lsr	r2, r2, #5
 341 004e 0198     		ldr	r0, [sp, #4]
 342 0050 1F21     		mov	r1, #31
 343 0052 0140     		and	r1, r0
 344 0054 0120     		mov	r0, #1
 345 0056 041C     		mov	r4, r0
 346 0058 8C40     		lsl	r4, r4, r1
 347 005a 211C     		mov	r1, r4
 348 005c 6032     		add	r2, r2, #96
 349 005e 9200     		lsl	r2, r2, #2
 350 0060 D150     		str	r1, [r2, r3]
 351              		.loc 1 66 0
 352 0062 074B     		ldr	r3, .L2
 353 0064 019A     		ldr	r2, [sp, #4]
 354 0066 5209     		lsr	r2, r2, #5
 355 0068 0198     		ldr	r0, [sp, #4]
 356 006a 1F21     		mov	r1, #31
 357 006c 0140     		and	r1, r0
 358 006e 0120     		mov	r0, #1
 359 0070 051C     		mov	r5, r0
 360 0072 8D40     		lsl	r5, r5, r1
 361 0074 291C     		mov	r1, r5
 362 0076 9200     		lsl	r2, r2, #2
 363 0078 D150     		str	r1, [r2, r3]
 364              		.loc 1 67 0
 365 007a 03B0     		add	sp, sp, #12
 366              		@ sp needed
 367 007c 30BD     		pop	{r4, r5, pc}
 368              	.L3:
 369 007e C046     		.align	2
 370              	.L2:
 371 0080 00E100E0 		.word	-536813312
 372              		.cfi_endproc
 373              	.LFE149:
 374              		.size	nvicEnableVector, .-nvicEnableVector
 375 0084 C046C046 		.section	.text.nvicDisableVector,"ax",%progbits
 375      C046C046 
 375      C046C046 
 376              		.align	2
 377              		.p2align 4,,15
 378              		.global	nvicDisableVector
 379              		.code	16
 380              		.thumb_func
 381              		.type	nvicDisableVector, %function
 382              	nvicDisableVector:
 383              	.LFB150:
 384              		.loc 1 74 0
 385              		.cfi_startproc
 386 0000 30B5     		push	{r4, r5, lr}
 387              		.cfi_def_cfa_offset 12
 388              		.cfi_offset 4, -12
 389              		.cfi_offset 5, -8
 390              		.cfi_offset 14, -4
 391 0002 83B0     		sub	sp, sp, #12
 392              		.cfi_def_cfa_offset 24
 393 0004 0190     		str	r0, [sp, #4]
ARM GAS  /tmp/ccg5cMLk.s 			page 24


 394              		.loc 1 76 0
 395 0006 124B     		ldr	r3, .L5
 396 0008 019A     		ldr	r2, [sp, #4]
 397 000a 5209     		lsr	r2, r2, #5
 398 000c 0198     		ldr	r0, [sp, #4]
 399 000e 1F21     		mov	r1, #31
 400 0010 0140     		and	r1, r0
 401 0012 0120     		mov	r0, #1
 402 0014 041C     		mov	r4, r0
 403 0016 8C40     		lsl	r4, r4, r1
 404 0018 211C     		mov	r1, r4
 405 001a 2032     		add	r2, r2, #32
 406 001c 9200     		lsl	r2, r2, #2
 407 001e D150     		str	r1, [r2, r3]
 408              		.loc 1 78 0
 409 0020 0B4B     		ldr	r3, .L5
 410 0022 019A     		ldr	r2, [sp, #4]
 411 0024 9208     		lsr	r2, r2, #2
 412 0026 0A49     		ldr	r1, .L5
 413 0028 0198     		ldr	r0, [sp, #4]
 414 002a 8008     		lsr	r0, r0, #2
 415 002c C030     		add	r0, r0, #192
 416 002e 8000     		lsl	r0, r0, #2
 417 0030 4158     		ldr	r1, [r0, r1]
 418 0032 019C     		ldr	r4, [sp, #4]
 419 0034 0320     		mov	r0, #3
 420 0036 2040     		and	r0, r4
 421 0038 C000     		lsl	r0, r0, #3
 422 003a FF24     		mov	r4, #255
 423 003c 251C     		mov	r5, r4
 424 003e 8540     		lsl	r5, r5, r0
 425 0040 281C     		mov	r0, r5
 426 0042 C043     		mvn	r0, r0
 427 0044 0140     		and	r1, r0
 428 0046 C032     		add	r2, r2, #192
 429 0048 9200     		lsl	r2, r2, #2
 430 004a D150     		str	r1, [r2, r3]
 431              		.loc 1 82 0
 432 004c 03B0     		add	sp, sp, #12
 433              		@ sp needed
 434 004e 30BD     		pop	{r4, r5, pc}
 435              	.L6:
 436              		.align	2
 437              	.L5:
 438 0050 00E100E0 		.word	-536813312
 439              		.cfi_endproc
 440              	.LFE150:
 441              		.size	nvicDisableVector, .-nvicDisableVector
 442 0054 C046C046 		.section	.text.nvicSetSystemHandlerPriority,"ax",%progbits
 442      C046C046 
 442      C046C046 
 443              		.align	2
 444              		.p2align 4,,15
 445              		.global	nvicSetSystemHandlerPriority
 446              		.code	16
 447              		.thumb_func
 448              		.type	nvicSetSystemHandlerPriority, %function
ARM GAS  /tmp/ccg5cMLk.s 			page 25


 449              	nvicSetSystemHandlerPriority:
 450              	.LFB151:
 451              		.loc 1 90 0
 452              		.cfi_startproc
 453 0000 30B5     		push	{r4, r5, lr}
 454              		.cfi_def_cfa_offset 12
 455              		.cfi_offset 4, -12
 456              		.cfi_offset 5, -8
 457              		.cfi_offset 14, -4
 458 0002 83B0     		sub	sp, sp, #12
 459              		.cfi_def_cfa_offset 24
 460 0004 0190     		str	r0, [sp, #4]
 461 0006 0091     		str	r1, [sp]
 462              		.loc 1 95 0
 463 0008 1449     		ldr	r1, .L8
 464 000a 019A     		ldr	r2, [sp, #4]
 465 000c 0F23     		mov	r3, #15
 466 000e 1340     		and	r3, r2
 467 0010 083B     		sub	r3, r3, #8
 468 0012 9808     		lsr	r0, r3, #2
 469 0014 114A     		ldr	r2, .L8
 470 0016 019C     		ldr	r4, [sp, #4]
 471 0018 0F23     		mov	r3, #15
 472 001a 2340     		and	r3, r4
 473 001c 083B     		sub	r3, r3, #8
 474 001e 9B08     		lsr	r3, r3, #2
 475 0020 0633     		add	r3, r3, #6
 476 0022 9B00     		lsl	r3, r3, #2
 477 0024 D318     		add	r3, r2, r3
 478 0026 5B68     		ldr	r3, [r3, #4]
 479 0028 019C     		ldr	r4, [sp, #4]
 480 002a 0322     		mov	r2, #3
 481 002c 2240     		and	r2, r4
 482 002e D200     		lsl	r2, r2, #3
 483 0030 FF24     		mov	r4, #255
 484 0032 251C     		mov	r5, r4
 485 0034 9540     		lsl	r5, r5, r2
 486 0036 2A1C     		mov	r2, r5
 487 0038 D243     		mvn	r2, r2
 488 003a 1A40     		and	r2, r3
 489              		.loc 1 96 0
 490 003c 009B     		ldr	r3, [sp]
 491 003e 9C01     		lsl	r4, r3, #6
 492 0040 019D     		ldr	r5, [sp, #4]
 493 0042 0323     		mov	r3, #3
 494 0044 2B40     		and	r3, r5
 495 0046 DB00     		lsl	r3, r3, #3
 496 0048 251C     		mov	r5, r4
 497 004a 9D40     		lsl	r5, r5, r3
 498 004c 2B1C     		mov	r3, r5
 499              		.loc 1 95 0
 500 004e 1A43     		orr	r2, r3
 501 0050 831D     		add	r3, r0, #6
 502 0052 9B00     		lsl	r3, r3, #2
 503 0054 CB18     		add	r3, r1, r3
 504 0056 5A60     		str	r2, [r3, #4]
 505              		.loc 1 102 0
ARM GAS  /tmp/ccg5cMLk.s 			page 26


 506 0058 03B0     		add	sp, sp, #12
 507              		@ sp needed
 508 005a 30BD     		pop	{r4, r5, pc}
 509              	.L9:
 510              		.align	2
 511              	.L8:
 512 005c 00ED00E0 		.word	-536810240
 513              		.cfi_endproc
 514              	.LFE151:
 515              		.size	nvicSetSystemHandlerPriority, .-nvicSetSystemHandlerPriority
 516              		.section	.text.nvicClearPending,"ax",%progbits
 517              		.align	2
 518              		.p2align 4,,15
 519              		.global	nvicClearPending
 520              		.code	16
 521              		.thumb_func
 522              		.type	nvicClearPending, %function
 523              	nvicClearPending:
 524              	.LFB152:
 525              		.loc 1 109 0
 526              		.cfi_startproc
 527 0000 10B5     		push	{r4, lr}
 528              		.cfi_def_cfa_offset 8
 529              		.cfi_offset 4, -8
 530              		.cfi_offset 14, -4
 531 0002 82B0     		sub	sp, sp, #8
 532              		.cfi_def_cfa_offset 16
 533 0004 0190     		str	r0, [sp, #4]
 534              		.loc 1 111 0
 535 0006 074B     		ldr	r3, .L11
 536 0008 019A     		ldr	r2, [sp, #4]
 537 000a 5209     		lsr	r2, r2, #5
 538 000c 0198     		ldr	r0, [sp, #4]
 539 000e 1F21     		mov	r1, #31
 540 0010 0140     		and	r1, r0
 541 0012 0120     		mov	r0, #1
 542 0014 041C     		mov	r4, r0
 543 0016 8C40     		lsl	r4, r4, r1
 544 0018 211C     		mov	r1, r4
 545 001a 6032     		add	r2, r2, #96
 546 001c 9200     		lsl	r2, r2, #2
 547 001e D150     		str	r1, [r2, r3]
 548              		.loc 1 112 0
 549 0020 02B0     		add	sp, sp, #8
 550              		@ sp needed
 551 0022 10BD     		pop	{r4, pc}
 552              	.L12:
 553              		.align	2
 554              	.L11:
 555 0024 00E100E0 		.word	-536813312
 556              		.cfi_endproc
 557              	.LFE152:
 558              		.size	nvicClearPending, .-nvicClearPending
 559 0028 C046C046 		.text
 559      C046C046 
 560              	.Letext0:
 561              		.file 2 "/usr/include/newlib/machine/_default_types.h"
ARM GAS  /tmp/ccg5cMLk.s 			page 27


 562              		.file 3 "/usr/include/newlib/stdint.h"
 563              		.file 4 "/home/efe/ChibiOS/os/rt/ports/ARMCMx/compilers/GCC/chtypes.h"
 564              		.file 5 "/home/efe/ChibiOS/os/rt/include/chsystypes.h"
 565              		.file 6 "/home/efe/ChibiOS/os/rt/include/chschd.h"
 566              		.file 7 "/home/efe/ChibiOS/os/ext/CMSIS/include/core_cm0.h"
 567              		.file 8 "/home/efe/ChibiOS/os/rt/ports/ARMCMx/chcore.h"
 568              		.file 9 "/home/efe/ChibiOS/os/rt/ports/ARMCMx/chcore_v6m.h"
 569              		.file 10 "/home/efe/ChibiOS/os/rt/include/chsem.h"
 570              		.file 11 "/home/efe/ChibiOS/os/rt/include/chmtx.h"