ARM GAS  /tmp/ccdeFpUW.s 			page 1


   1              		.cpu cortex-m0
   2              		.fpu softvfp
   3              		.eabi_attribute 20, 1
   4              		.eabi_attribute 21, 1
   5              		.eabi_attribute 23, 3
   6              		.eabi_attribute 24, 1
   7              		.eabi_attribute 25, 1
   8              		.eabi_attribute 26, 1
   9              		.eabi_attribute 30, 6
  10              		.eabi_attribute 34, 0
  11              		.eabi_attribute 18, 4
  12              		.code	16
  13              		.file	"pal.c"
  14              		.text
  15              	.Ltext0:
  16              		.section	.gnu.lto_.inline.fb597b97d8443ba3,"",%progbits
  17 0000 789C6362 		.ascii	"x\234cb`b\300\006\354\24043\003\003'\007\003\003\023"
  17      6062C006 
  17      ECA03433 
  17      03032707 
  17      030313
  18 0013 5F432D03 		.ascii	"_C-\003\013D-#\203\000?PDf\303+F\230\020\023\003\267"
  18      0B442D23 
  18      83003F50 
  18      4466C32B 
  18      46981013 
  19 0029 3090E47A 		.ascii	"0\220\344z\020\013\023a\341\005\221\000\250\256\004"
  19      100B1361 
  19      E1059100 
  19      A8AE04
  20 0038 C9       		.ascii	"\311"
  21              		.text
  22              		.section	.gnu.lto_palReadBus.fb597b97d8443ba3,"",%progbits
  23 0000 789CBD92 		.ascii	"x\234\275\222\275J\003A\020\307gn\357rwQ\004K\273\020"
  23      BD4A0341 
  23      10C7676E 
  23      EF727751 
  23      044BBB10 
  24 0014 B131E03D 		.ascii	"\2611\340=\202\205X+h@\355\222\030\223\203\034\021\363"
  24      8285582B 
  24      6840ED92 
  24      1893831C 
  24      11F3
  25 0026 00D97C14 		.ascii	"\000\331|\024\"\"!\225D\213\330\251\205\242(\0106\301"
  25      22222195 
  25      448BD8A9 
  25      85A22808 
  25      36C1
  26 0038 42040968 		.ascii	"B\004\011hk\025\242\266>\201\270\316^r\247\206\200\301"
  26      6B15A2B6 
  26      3E81B8CE 
  26      5E72A786 
  26      80C1
  27 004a C2859BBD 		.ascii	"\302\205\233\275\335\235\337\314\177gV\001\005zG\230"
  27      DD9DDFCC 
  27      7F675601 
  27      057A4798 
ARM GAS  /tmp/ccdeFpUW.s 			page 2


  28 005a BE590630 		.ascii	"\276Y\0060!\027\032 y\240\202\264\201\014U\262*\"\035"
  28      21171A20 
  28      79A082B4 
  28      810C55B2 
  28      2A221D
  29 006d 20E415A6 		.ascii	" \344\025\246b~Y.\300\014\303\001\347\325\326k{wl\253"
  29      627E592E 
  29      C00CC301 
  29      E7D5D66B 
  29      7B776CAB 
  30 0081 5EACF00F 		.ascii	"^\254\360\017!\320\226G\011\204%\372\303\220;)jo.\302"
  30      21D09647 
  30      098425FA 
  30      C3903B29 
  30      6A6F2EC2 
  31 0095 6A8DDAED 		.ascii	"j\215\332\355v\260R\330\344B\344m\231i\000\250\312/"
  31      76B052D8 
  31      E442E46D 
  31      996900A8 
  31      CA2F
  32 00a7 5FE6EF78 		.ascii	"_\346\357x\271!\304\264-u\015\304\234\037r\263\316\337"
  32      B921C4B4 
  32      2D750DC4 
  32      9C1F72B3 
  32      CEDF
  33 00b9 8560366A 		.ascii	"\205`6j\177`\006\273P\345\007\023\370'm\2772\016\302"
  33      7F6006BB 
  33      50E50713 
  33      F8276DBF 
  33      320EC2
  34 00cc A9D26809 		.ascii	"\251\322h\011\261\177v\321\336\301Q\023\321Aj/\225\217"
  34      B17F76D1 
  34      DEC15113 
  34      D1416A2F 
  34      958F
  35 00de 91D15432 		.ascii	"\221\321T2\324pR\034\220K]\032\003\334\206\320v\231"
  35      D470521C 
  35      904B5D1A 
  35      03DC86D0 
  35      7699
  36 00f0 EE1572BA 		.ascii	"\356\025r\272\025\240\261\330\265\364<XT\372\260&\024"
  36      15A0B1D8 
  36      B5F43C58 
  36      54FAB026 
  36      14
  37 0101 9FAE9E1F 		.ascii	"\237\256\236\0370\206G$&\205J\004&m\324\367\240Fb\214"
  37      30864724 
  37      26854A04 
  37      266DD4F7 
  37      A046628C 
  38 0115 14A21465 		.ascii	"\024\242\024e\272R\342\350\211j\302\315\212\007\260"
  38      BA52E2E8 
  38      896AC2CD 
  38      8A07B0
  39 0124 081CF332 		.ascii	"\010\034\36329\005;\314\020\305\220\214\336e\320g\212"
  39      39053BCC 
  39      10C5908C 
ARM GAS  /tmp/ccdeFpUW.s 			page 3


  39      DE65D067 
  39      8A
  40 0135 3EA3BA49 		.ascii	">\243\272I\206\373'Q\276\2007\346\021ZJ>\227&\224N\374"
  40      86FB2751 
  40      BE8037E6 
  40      115A4A3E 
  40      9726944E 
  41 014a AD00E54E 		.ascii	"\255\000\345N\311\002~\217\254\273\221Y\377\310\314"
  41      C9027E8F 
  41      ACBB9159 
  41      FFC8CC
  42 0159 8F5CBA2E 		.ascii	"\217\\\272.\215x\210\341\206\352\310\205\250L\303\356"
  42      8D7888E1 
  42      86EAC885 
  42      A84CC3EE 
  43 0169 A16000AC 		.ascii	"\241`\000\254J)\217\340\227\306\350\270,\312+I\221\343"
  43      4A298FE0 
  43      97C6E8B8 
  43      2CCA2B49 
  43      91E3
  44 017b 563AEB24 		.ascii	"V:\353$\255\344Z\322\232I\333q{n\301\312\346\254t,c"
  44      ADE45AD2 
  44      9A49DB71 
  44      7B6EC1CA 
  44      E6AC742C 
  45 0190 E53612D6 		.ascii	"\3456\022\326z,3\225\200O\316\276\260d"
  45      7A2C3395 
  45      804FCEBE 
  45      B064
  46              		.text
  47              		.section	.gnu.lto_palWriteBus.fb597b97d8443ba3,"",%progbits
  48 0000 789CCD53 		.ascii	"x\234\315S=K\303P\024\2757\257i\233~wS\\\212\305E\301"
  48      3D4BC350 
  48      14BD37AF 
  48      699B7E77 
  48      535C8AC5 
  49 0016 FC082727 		.ascii	"\374\010''\007+\250[[j\033h\251\350\017h\374\002\021"
  49      072BA85B 
  49      5B6A1B68 
  49      A9E80F68 
  49      FC0211
  50 0029 87E224BA 		.ascii	"\207\342$\272Tp\020Q\024\027)\012-\016n\016n\342Tp\267"
  50      54701051 
  50      1417290A 
  50      2D0E6E0E 
  50      6EE25470 
  51 003e 7FA018EF 		.ascii	"\177\240\030\357}i\242U\207*\010}\220\223\227\363\336"
  51      7D69A255 
  51      872A087D 
  51      909397F3 
  51      DE
  52 004f 39F7E426 		.ascii	"9\367\344&O\001\005\276\216\021\272\352*\300\030?x\000"
  52      4F0105BE 
  52      8E11BAEA 
  52      2AC0183F 
  52      7800
  53 0061 69072A28 		.ascii	"i\007*(\010\005\"Q\010\025E`e\201\347\020\033\205#\323"
ARM GAS  /tmp/ccdeFpUW.s 			page 4


  53      08052251 
  53      08154560 
  53      6581E710 
  53      1B8523D3 
  54 0075 DC6B6DB5 		.ascii	"\334km\265\367\207wj\353U\363\315\262\320\340\245,\302"
  54      F787776A 
  54      EB55F3CD 
  54      B2D0E0A5 
  54      2CC2
  55 0087 3CCD3021 		.ascii	"<\3150!o\212\247\267\210-kv\356w\003\325\265m\323\262"
  55      6F8AA7B7 
  55      882D6B76 
  55      EE7703D5 
  55      B56DD3B2 
  56 009b 2A0697E8 		.ascii	"*\006\227\350Gd^\235\230Z\315\354X\2260\3203\300\232"
  56      47645E9D 
  56      985ACDEC 
  56      589630D0 
  56      33C09A
  57 00ae 3E9BF007 		.ascii	">\233\360\007M\265G\243\016p\017\376\257o\003\332\203"
  57      4DB547A3 
  57      0E700FFE 
  57      AF6F03DA 
  57      83
  58 00bf 12C285D2 		.ascii	"\022\302\205\322lY\326\331\365\361K\003\343q\304\022"
  58      6C59D6D9 
  58      F5F14B03 
  58      E371C412 
  59 00cf D219A2DF 		.ascii	"\322\031\242\337[\320\214\266\223\211\312\340e\360\021"
  59      5BD08CB6 
  59      9389CAE0 
  59      65F011
  60 00de 809F4123 		.ascii	"\200\237A#P\003\314\005\031B\014a^\210\360B\224\037"
  60      5003CC05 
  60      19420C61 
  60      5E88F042 
  60      941F
  61 00f0 63200380 		.ascii	"c \003\200\012\233\364\376\211R\267S4R]\244\263*\346"
  61      0A9BF4FE 
  61      8952B753 
  61      34525DA4 
  61      B32AE6
  62 0103 F8208907 		.ascii	"\370 \211\007X\177~j\017\245\361\222z\223Ge\002\306"
  62      587F7E6A 
  62      0FA5F192 
  62      7A934765 
  62      02C6
  63 0115 0DF41EC2 		.ascii	"\015\364\036\302\001e\366\345\0219\273_&\316\240\223"
  63      0165F6E5 
  63      1139BB5F 
  63      26CEA093 
  64 0125 9D34B7C2 		.ascii	"\2354\267\302Qx\362\354C\324\242\303\250\322C\373\331"
  64      5178F2EC 
  64      43D4A2C3 
  64      A8D243FB 
  64      D9
  65 0136 035D8F8D 		.ascii	"\003]\217\215\033\327\303+m\324^\033\237\264\011\374"
ARM GAS  /tmp/ccdeFpUW.s 			page 5


  65      1BD7C32B 
  65      6DD45E1B 
  65      9FB409FC 
  66 0146 6CA37CD8 		.ascii	"l\243|\330l\2736~\022\361&\210\331!_\335\025-\317J\332"
  66      6CBB367E 
  66      12F12688 
  66      D9215FDD 
  66      152DCF4A 
  67 015b 7CEE5201 		.ascii	"|\356R\001YV\353\255\031\374u\364\020\211\276u \334"
  67      5956EBAD 
  67      19FC75F4 
  67      1089BE75 
  67      20DC
  68 016d 5FF44F01 		.ascii	"_\364O\001#$\372\0220*\315#\222\255\273lL&\2172{7m\223"
  68      2324FA12 
  68      302ACD23 
  68      92ADBB6C 
  68      4C268F32 
  69 0185 13706A6E 		.ascii	"\023pjnR\201\2403\011\331\205\303\3649\271\260\267["
  69      5281A033 
  69      09D985C3 
  69      F439B9B0 
  69      B75B
  70 0197 5874EFF6 		.ascii	"Xt\357\366\237HV\000\217\260\326j$m\033g\244\370E9d"
  70      9F485600 
  70      8FB0D66A 
  70      246D1B67 
  70      A4F84539 
  71 01ac 522F944B 		.ascii	"R/\224K9=\267\224\323\247\012F\306\230\231\325\313\253"
  71      393DB794 
  71      D3A70A46 
  71      C69899D5 
  71      CBAB
  72 01be 7A215DD4 		.ascii	"z!]\324WW\262\372r\2728\231\205w\032\321-\345"
  72      5757B2FA 
  72      72BA3899 
  72      85771AD1 
  72      2DE5
  73              		.text
  74              		.section	.gnu.lto_palSetBusMode.fb597b97d8443ba3,"",%progbits
  75 0000 789CB591 		.ascii	"x\234\265\221\275J\003A\020\307gv\357#\211\026\332)"
  75      BD4A0341 
  75      10C76776 
  75      EF238916 
  75      DA29
  76 0012 36C160A3 		.ascii	"6\301`\243\340>\204\017`a\004\265K\216xY\310\0211\245"
  76      E03E840F 
  76      606104B5 
  76      4B8E7859 
  76      C81131A5 
  77 0026 4536D122 		.ascii	"E6\321\"\210E\260\022\265\210 h#\202\225\215\220\316"
  77      8845B012 
  77      B5882068 
  77      2382958D 
  77      90CE
  78 0038 2A886DAA 		.ascii	"*\210m\252 \330\346\001bp\235\275\344\224H\212 8p\263"
  78      20D8E601 
ARM GAS  /tmp/ccdeFpUW.s 			page 6


  78      62709DBD 
  78      E494488A 
  78      203870B3 
  79 004c B333F363 		.ascii	"\2633\363c\376;\307\200\301o[\240\357\232\322K\346b"
  79      FE3BC780 
  79      C16F5BA0 
  79      EF9AD24B 
  79      E662
  80 005e 0152880C 		.ascii	"\001R\210\0149y\216H)\2042\343X\33661\270\213p\245\324"
  80      39798E48 
  80      298432E3 
  80      58DE3631 
  80      B88B70A5 
  81 0073 69E7BD77 		.ascii	"i\347\275w6\177\334\250\326\325\247\326(M\311C\330\242"
  81      367FDCA8 
  81      D6D5A7D6 
  81      284DC943 
  81      D8A2
  82 0085 0893E1C1 		.ascii	"\010\223\341\301\254\321!\003\254\331~>I\324+5\245u"
  82      ACD12103 
  82      ACD97E3E 
  82      49D42B35 
  82      A575
  83 0097 599A1193 		.ascii	"Y\232\021\223@\352\341V\305\033\252\2575\227h\375\201"
  83      40EAE156 
  83      C51BAAAF 
  83      359768FD 
  83      81
  84 00a8 994C5C7D 		.ascii	"\231L\\}\204\261\377C[\200p\317\232\035\255/\237\372"
  84      84B1FF43 
  84      5B8070CF 
  84      9A1DAD2F 
  84      9FFA
  85 00ba 6F5D9C8D 		.ascii	"o]\234\215!\006H\373\246Upr\226E\016lr\266c\256.U\315"
  85      210648FB 
  85      A6557072 
  85      96450E6C 
  85      72B663AE 
  86 00d1 EFB2E188 		.ascii	"\357\262\341\210\344%\203\341C\310\322COU\276i\366\310"
  86      E42583E1 
  86      43C8D243 
  86      4F55BE69 
  86      F6C8
  87 00e3 5B506D3F 		.ascii	"[Pm?~\314e\360\206\244\373\310V`Y\242s\001\347$\303"
  87      7ECC65F0 
  87      86A4FBC8 
  87      566059A2 
  87      7301E724 
  88 00f8 F5118D9C 		.ascii	"\365\021\215\234X(\"\213\221\034bv\"\200\207@|<\200"
  88      5828228B 
  88      911C6276 
  88      22808740 
  88      7C3C80
  89 010b 63002B04 		.ascii	"c\000+\004\022\343\001\366\003tyD\330\276\331P\013\016"
  89      12E301F6 
  89      03747944 
  89      D8BED950 
ARM GAS  /tmp/ccdeFpUW.s 			page 7


  89      0B0E
  90 011d EFBE530E 		.ascii	"\357\276S\016\015\366\315\256_\300\031\344\000\016\240"
  90      0DF6CDAE 
  90      5FC019E4 
  90      000EA0
  91 012c A76A6A46 		.ascii	"\247jjF\342\2247\034L\317\011[]\211\323\000\257P\351"
  91      E294371C 
  91      4CCF095B 
  91      5D89D300 
  91      AF50E9
  92 013f 745351F7 		.ascii	"tSQ\367\300\322\246\323\014M\211|1\310\211\334nN\254"
  92      C0D2A6D3 
  92      0C4D897C 
  92      31C889DC 
  92      6E4EAC
  93 0152 E56556AE 		.ascii	"\345eV\256o\210bI\3443\005Q\332\367\304^\246\260\352"
  93      6F886249 
  93      E4330551 
  93      DAF7C45E 
  93      A6B0EA
  94 0165 C11753EC 		.ascii	"\301\027S\354\222\243"
  94      92A3
  95              		.text
  96              		.section	.gnu.lto_.symbol_nodes.fb597b97d8443ba3,"",%progbits
  97 0000 789C6362 		.ascii	"x\234cb`bpe\200\002\246\251\214\365\014\014\023\316"
  97      60627065 
  97      8002A6A9 
  97      8CF50C0C 
  97      13CE
  98 0012 3130D4D7 		.ascii	"10\324\327_\353`d\232\306X\317\210\304\235\316X\317"
  98      5FEB6064 
  98      9AC658CF 
  98      88C49DCE 
  98      58CF
  99 0024 84E032CE 		.ascii	"\204\3402\316b\254g\206p\033\032\030\231\231\230\031"
  99      62AC6786 
  99      701B1A18 
  99      99999819 
 100 0034 163FFCC7 		.ascii	"\026?\374\307\310\000\000\354=\025M"
 100      C80000EC 
 100      3D154D
 101              		.text
 102              		.section	.gnu.lto_.refs.fb597b97d8443ba3,"",%progbits
 103 0000 789C6362 		.ascii	"x\234cb`b`d\200\002\000\000F\000\006"
 103      60626064 
 103      80020000 
 103      460006
 104              		.text
 105              		.section	.gnu.lto_.decls.fb597b97d8443ba3,"",%progbits
 106 0000 789CB558 		.ascii	"x\234\265X{l\024E\030\237\331\273\203^{-\005\204\024"
 106      7B6C1445 
 106      189FD9BB 
 106      835E7B2D 
 106      058414
 107 0013 A3E15051 		.ascii	"\243\341PQB\220\223\"\240\376A\024Z-\261\330\346\012"
 107      42909322 
 107      A0FE4114 
ARM GAS  /tmp/ccdeFpUW.s 			page 8


 107      5A2DB1D8 
 107      E60A
 108 0025 01FF5AB7 		.ascii	"\001\377Z\267\355\225^l{Mo\253\361/\247\264V$\021\333"
 108      ED955E6C 
 108      7B4D6FAB 
 108      F12FA7B4 
 108      562411DB 
 109 0039 F2B0C696 		.ascii	"\362\260\306\226\266\324Z|\361*\345%\222\203`[*\366"
 109      B6D45A7C 
 109      F12AE525 
 109      9283605B 
 109      2AF6
 110 004b 08883112 		.ascii	"\010\2101\022\303\211\020R\301\010Z\022\212\226\363"
 110      C3891052 
 110      C1085A12 
 110      8A96F3
 111 005a 9BD9DDBB 		.ascii	"\233\331\335\273\335\355\355=\232\270\31177\263;\363"
 111      DDEDED3D 
 111      9AB8C937 
 111      37B33BF3 
 112 006a FB7EDF63 		.ascii	"\373~\337c^\307!\0165c\204\202\360t>\200\320\034\016"
 112      5EC7210E 
 112      35638482 
 112      F0743E80 
 112      D01C0E
 113 007d 21334268 		.ascii	"!3Bh9\012?\264\335\0012\0022\006b\305h\334C\277\247"
 113      390A3FB4 
 113      DD013202 
 113      320662C5 
 113      68DC43BF 
 114 0092 825840D2 		.ascii	"\202X@\322@l \235 \327A&\313\030\275 {A\366\200\034"
 114      406C209D 
 114      20D74126 
 114      CB18BD20 
 114      7B41F680 
 115 00a7 07390472 		.ascii	"\0079\004rS\376v\020\3444\310\015\220a\020,c\232@\246"
 115      53FE7610 
 115      E434C80D 
 115      9061102C 
 115      639A40A6 
 116 00bb 40E336FC 		.ascii	"@\3436\374\316\322\351\035\221u\251u\032\351\353\224"
 116      CED2E91D 
 116      9175A975 
 116      1AE9EB94 
 117 00cb 7551BD67 		.ascii	"uQ\275gd\335\026Y\357\260\254w\000\344\254\254{D\326"
 117      64DD1659 
 117      EFB0AC77 
 117      00E4ACAC 
 117      7B44D6
 118 00de FD203446 		.ascii	"\375 4F\341\367\236\316\336\261\010\366\306\322=\033"
 118      E1F79ECE 
 118      DEB108F6 
 118      C6D23D1B 
 119 00ee B092B184 		.ascii	"\260\222\261\204\253\326\313\251\374J\277\331\341\327"
 119      ABD6CBA9 
 119      FC4ABFD9 
 119      E1D7
ARM GAS  /tmp/ccdeFpUW.s 			page 9


 120 00fc 02324967 		.ascii	"\0022Ig\357l\264\223\264\373\002]Wn\341\217\210\257"
 120      EF6CB493 
 120      B4FB025D 
 120      576EE18F 
 120      88AF
 121 010e 8E40C808 		.ascii	"\216@\310\010F3\321v\002O{=!X\264\242M\204l\244\215"
 121      4633D176 
 121      024F7B3D 
 121      2158B4A2 
 121      4D846CA4 
 122 0123 9C01A0B5 		.ascii	"\234\001\240\265\036\0138\315\212\354\254b\2632fs\321"
 122      1E0B38CD 
 122      8AECAC62 
 122      B3326673 
 122      D1
 123 0134 27843404 		.ascii	"'\2044\004Z\307\272\347\023\222$\340Nl\005\006\002F"
 123      5AC7BAE7 
 123      139224E0 
 123      4E6C0506 
 123      0246
 124 0146 F3D16780 		.ascii	"\363\321g\200\323@\310\251e\021\002\214\342\207\276"
 124      D340C8A9 
 124      6511028C 
 124      E287BE
 125 0155 F4EEB727 		.ascii	"\364\356\267'\361F\240#\340n\006\276\025cP\360)\236"
 125      F146A023 
 125      E06E06BE 
 125      156350F0 
 125      299E
 126 0167 9F30D4E8 		.ascii	"\2370\324\350\340\351F\\\313\240>gP\203:(\001O\266\252"
 126      E0E9465C 
 126      CBA03E67 
 126      50833A28 
 126      014FB6AA 
 127 017b 59B2B6D2 		.ascii	"Y\262\266\322\201\342\261\317r\205&\371\024\364?w\217"
 127      81E2B1CF 
 127      728526F9 
 127      14F43F77 
 127      8F
 128 018c 640D1DB9 		.ascii	"d\015\035\271\013\317d5\023\2137JA\233\303>\230\206"
 128      0BCF6435 
 128      138B374A 
 128      419BC33E 
 128      9886
 129 019e 1A690CED 		.ascii	"\032i\014\355*o\274\246\214\267\251\034;t6\223\305l"
 129      2A6FBCA6 
 129      8CB7A91C 
 129      3B743693 
 129      C56C
 130 01b0 2F9E0628 		.ascii	"/\236\006(c:_\304B\241,\016\300Hi\014\303$\276;\375"
 130      633A5FC4 
 130      42A12C0E 
 130      C048690C 
 130      C324BE3B 
 131 01c5 366296DE 		.ascii	"6b\226\336#\015\232\346\231\203\332\201\255o\254\277"
 131      230D9AE6 
 131      9983DA81 
ARM GAS  /tmp/ccdeFpUW.s 			page 10


 131      AD6FACBF 
 132 01d5 6516693F 		.ascii	"e\026i?\205c\221\017p\212\336\005\252\214\353h31\366"
 132      8563910F 
 132      708ADE05 
 132      AA8CEB68 
 132      3331F6
 133 01e8 8718FB5A 		.ascii	"\207\030\373Z.&{-\014\245wTO\377\237!F\377hl\372u\265"
 133      2E267B2D 
 133      0CA57754 
 133      4FFF9F21 
 133      46FF686C 
 134 01ff BEE09044 		.ascii	"\276\340\220D\237\345_m\324\374\023\360n<7\256xs\250"
 134      9FE55F6D 
 134      D4FC13F0 
 134      6E3C37AE 
 134      7873A8
 135 0212 81594229 		.ascii	"\201YB)DB\222\253\322#w\320\322j\360\333\032\004\001"
 135      444292AB 
 135      D22377D0 
 135      D26AF0DB 
 135      1A0401
 136 0225 1F6709BE 		.ascii	"\037g\011\276#a0\273\006\254I\015\326\032\017X\2221"
 136      236130BB 
 136      06AC490D 
 136      D61A0F58 
 136      9231
 137 0237 B36D6AB0 		.ascii	"\263mj\260\256\204\301\264\314v\250\301\276\210\007"
 137      AE84C1B4 
 137      CC76A8C1 
 137      BE8807
 138 0246 2CDD9859 		.ascii	",\335\230Y\263\032lo\302`jf5\276\303\376AL\232l\323"
 138      B31A6C6F 
 138      C2606A66 
 138      35BEC3FE 
 138      414C9A6C 
 139 025b 51132135 		.ascii	"Q\023!5\244}\222QR \304\272\220\250]\004<\210\247k\223"
 139      A47D9251 
 139      5220C4BA 
 139      90A85D04 
 139      3C88A76B 
 140 0270 F4E30FD2 		.ascii	"\364\343\017\322h\222\322\367\261\347X\253_JRe\361\354"
 140      6892D2F7 
 140      B1E758AB 
 140      5F4A5265 
 140      F1EC
 141 0282 61C6D1B1 		.ascii	"a\306\321\261\023\310.P\336\353O!\233m\362\354j\177"
 141      13C82E50 
 141      DEEB4F21 
 141      9B6DF2EC 
 141      6A7F
 142 0294 7E7714E2 		.ascii	"~w\024\342~\375\354j\363sv\351ul\336\373\375-\031\244"
 142      7EFDEC6A 
 142      F37376E9 
 142      756CDEFB 
 142      FD2D19A4 
 143 02a8 FD249617 		.ascii	"\375$\226\027wRO\346\251t\245+\272\350\342\027\332'"
 143      77524FE6 
ARM GAS  /tmp/ccdeFpUW.s 			page 11


 143      A974A52B 
 143      BAE8E217 
 143      DA27
 144 02ba 0E2F600B 		.ascii	"\016/`\013\302yfh/\027q\227\210\003ht\360\253g\031\320"
 144      C2796668 
 144      2F177197 
 144      88036874 
 144      F0AB6719 
 145 02cf 45067482 		.ascii	"E\006t\202\323\357\021&\335\036a\322\316j\2235\\\011"
 145      D3EF1126 
 145      DD1E61D2 
 145      CE6A9335 
 145      5C09
 146 02e1 064D28B1 		.ascii	"\006M(\261\316\034:\303\024\372\303\371\247!\031+D\033"
 146      CE1C3AC3 
 146      14FAC3F9 
 146      A721192B 
 146      441B
 147 02f3 032DD776 		.ascii	"\003-\327v2\327)\236\370>a\274t]L8ta\242i\243\262\\"
 147      32D7299E 
 147      F83E61BC 
 147      745D4C38 
 147      7461A269 
 148 030a 325AC067 		.ascii	"2Z\300g\361\034(\207\240T)\270\030\317\244\31300\032"
 148      F11C2887 
 148      A05429B8 
 148      18CFA4CB 
 148      30301A
 149 031d 66F011F5 		.ascii	"f\360\021\365\014\3769a0\273\006\354\230\032\354r<`"
 149      0CFE3961 
 149      30BB06EC 
 149      981AEC72 
 149      3C60
 150 032f 766366C7 		.ascii	"vcf\307\325`W\023\006\3232;\241\006\033\216\007l^\264"
 150      D5605713 
 150      06D3323B 
 150      A1061B8E 
 150      076C5EB4 
 151 0343 A068E213 		.ascii	"\240h\342\023\336\015\005|\214mW_\263H\235`\245\217"
 151      DE0D057C 
 151      8C6D575F 
 151      B3489D60 
 151      A58F
 152 0355 95A75879 		.ascii	"\225\247Xy\232\225}\254\034`\345/\254\274\314\312_Y"
 152      9A957DAC 
 152      1C60E52F 
 152      ACBCCCCA 
 152      5F59
 153 0367 F99B3ABE 		.ascii	"\371\233:\276\306g2\337\205\035\017\321\325\254\027"
 153      C66732DF 
 153      851D0FD1 
 153      D5AC17
 154 0376 4E011CFA 		.ascii	"N\001\034\372C7\3274'\003i\2537Zm\256\003@\344Ee\334"
 154      4337D734 
 154      270369AB 
 154      375A6DAE 
 154      0340E445 
ARM GAS  /tmp/ccdeFpUW.s 			page 12


 155 038c 370EDD65 		.ascii	"7\016\335ez\016Ll\217\205)viK_\023\336ZK\006\236RN\274"
 155      7A0E4C6C 
 155      8F852976 
 155      694B5F13 
 155      DE5A4B06 
 156 03a4 C18411ED 		.ascii	"\301\204\021\355jD\337\276A\010l\"\207\342\253\267\345"
 156      6A44DFBE 
 156      41086C22 
 156      87E2ABB7 
 156      E5
 157 03b5 93EC4DA6 		.ascii	"\223\354M\246\277\316\244_\245,\272U\312\242]x,\326"
 157      BFCEA45F 
 157      A52CBA55 
 157      CAA25D78 
 157      2CD6
 158 03c7 702574F6 		.ascii	"p%t\366h4\305aE\244\035>rF\035PeT\017\313\250\203,7"
 158      6834C561 
 158      45A41D3E 
 158      72461D50 
 158      65540FCB 
 159 03df 86597923 		.ascii	"\206Yy#V\206P\210=\020\272\020\336\332\360b\012\367"
 159      56865088 
 159      3D10BA10 
 159      DEDAF062 
 159      0AF7
 160 03f1 4C9DC58F 		.ascii	"L\235\305\217\241NB\232\340>\3433\303}\306,\015\345"
 160      A14E429A 
 160      E03EE333 
 160      C37DC62C 
 160      0DE5
 161 0403 5027EBD6 		.ascii	"P'\353\326\201g\033\034\314d\005\217\243.\352\372o\256"
 161      81671B1C 
 161      CC64058F 
 161      A32EEAFA 
 161      6FAE
 162 0415 E6E74821 		.ascii	"\346\347H!EQF\311tnaNm\257t\241\362\335\251\377\016"
 162      455146C9 
 162      746E614E 
 162      6DAF74A1 
 162      F2DDA9FF 
 163 042a B67FF26F 		.ascii	"\266\177\362o0Xk\326^\247\004\274|\206\241\241w\264"
 163      30586BD6 
 163      5EA704BC 
 163      7C86A1A1 
 163      77B4
 164 043c 077A8958 		.ascii	"\007z\211X\250!1\322\273\240;\242\013\310\337\3059\322"
 164      A82131D2 
 164      BBA03BA2 
 164      0BC8DFC5 
 164      39D2
 165 044e 7001FF85 		.ascii	"p\001\377\205\351el$\272\365\362\260\303\256\034%\233"
 165      E9656C24 
 165      BAF5F2B0 
 165      C3AE1C25 
 165      9B
 166 045f 7B18B0F1 		.ascii	"{\030\260\3610\231\016s\032!\357\223w\32213\016\311"
 166      30990E73 
ARM GAS  /tmp/ccdeFpUW.s 			page 13


 166      1A21EF93 
 166      77D23133 
 166      0EC9
 167 0471 A3345970 		.ascii	"\2434Yp7\242\233\316\367\333\032j\002\301`\233=~\037"
 167      37A29BCE 
 167      F7DB1A6A 
 167      02C1609B 
 167      3D7E1F
 168 0484 DD8FE2A3 		.ascii	"\335\217\342\243\004\356\252\373\277\224\356\2525\034"
 168      04EEAAFB 
 168      BF94EEAA 
 168      351C
 169 0492 B5F5C8B8 		.ascii	"\265\365\310\270\231\323\215'r\011\324\305\346\244A"
 169      99D38D27 
 169      7209D4C5 
 169      E6A441
 170 04a1 7ADEFBC9 		.ascii	"z\336\373\311\024NO%@cq\005\250\207\006H\"\355g\350"
 170      144E4F25 
 170      40637105 
 170      A8870648 
 170      22ED67E8 
 171 04b5 C6C3682F 		.ascii	"\306\303h/\243\000\215\351\003T\307\215\013P\200\272"
 171      A3008DE9 
 171      0354C78D 
 171      0B5080BA 
 172 04c5 A9AF0637 		.ascii	"\251\257\0067\326\266\017\220[\324\304\370\243\264\231"
 172      D6B60F90 
 172      5BD4C4F8 
 172      A3B499
 173 04d4 D345A937 		.ascii	"\323E\2517B&\207\3322S\235\367~\320yO\241\272EK\365"
 173      422687DA 
 173      32539DF7 
 173      7ED0794F 
 173      A1BA454B 
 174 04e9 11D441CE 		.ascii	"\021\324A\316\235\013\\\273\322\2147\005H\003\271\037"
 174      9D0B5CBB 
 174      D28C3705 
 174      4803B91F 
 175 04f9 0CE2A9A8 		.ascii	"\014\342\251\250\201\335\374\232\323\344\224\010t\371"
 175      81DDFC9A 
 175      D3E49408 
 175      74F9
 176 0507 329AC329 		.ascii	"2\232\303)\221\244\360\305JJ\320\177)\270Pg\222\221"
 176      91A4F0C5 
 176      4A4AD07F 
 176      29B85067 
 176      9291
 177 0519 11B9AF80 		.ascii	"\021\271\257\200\2338\272\206m\225\030\263OR]\251\005"
 177      9B38BA86 
 177      6D9518B3 
 177      4F525DA9 
 177      05
 178 052a 31E5FEBB 		.ascii	"1\345\376\273)\322\037\036\014 \372PY\351zE\251\264"
 178      29D21F1E 
 178      0C20FA50 
 178      59E97A45 
 178      A9B4
ARM GAS  /tmp/ccdeFpUW.s 			page 14


 179 053c F285ED91 		.ascii	"\362\205\355\221zF\356%\340\355\334TVc\206\220\320\236"
 179      7A46EE25 
 179      E0EDDC54 
 179      56638690 
 179      D09E
 180 054e 69B31A06 		.ascii	"i\263\032\006j\207\212\215\315\032\256$k8+\275\300\262"
 180      6A878A8D 
 180      CD1AAE24 
 180      6B382BBD 
 180      C0B2
 181 0560 3FF56BA9 		.ascii	"?\365k\251\216\004l\254\262\355\002\246\177M\331Q\033"
 181      8E046CAC 
 181      B2ED02A6 
 181      7F4DD951 
 181      1B
 182 0571 3DF7B7F6 		.ascii	"=\367\267\366\021\273=\224~\035\352\364\223\002\350"
 182      11BB3D94 
 182      7E1DEAF4 
 182      9302E8
 183 0580 1BED7B8F 		.ascii	"\033\355{\217`8\232\327\320TS\033\334\0306X\367\347"
 183      60389AD7 
 183      D054531B 
 183      DC183658 
 183      F7E7
 184 0592 83815BC6 		.ascii	"\203\201[\306\375E\321\222\260[Z\015\334\222\022\246"
 184      FD45D192 
 184      B05B5A0D 
 184      DC9212A6 
 185 05a2 ADEA05D5 		.ascii	"\255\352\005\325\0179\335\"\253#\301\241z\263\332-\272"
 185      0F39DD22 
 185      AB23C1A1 
 185      7AB3DA2D 
 185      BA
 186 05b3 530D9D2F 		.ascii	"S\015\235/F\\\332\270\220V\331U?\366\223\244}d\023\011"
 186      465CDAB8 
 186      9056D955 
 186      3FF693A4 
 186      7D641309 
 187 05c7 06DF3670 		.ascii	"\006\3376pT\245\002\222\026\315Q\272^\002\336\225\260"
 187      54A50292 
 187      16CD51BA 
 187      5E02DE95 
 187      B0
 188 05d8 A33A0D1C 		.ascii	"\243:\015\034\225\252qT\247\336Q\252UKG\202C\3334\216"
 188      95AA7154 
 188      A7DE51AA 
 188      554B4782 
 188      43DB348E 
 189 05ec 428F3A4A 		.ascii	"B\217:J=\345.\207\253\304\345XY\352.t\347\0258<^G\251"
 189      3DE52E87 
 189      ABC4E558 
 189      59EA2E74 
 189      E715383C 
 190 0603 50E6F056 		.ascii	"P\346\360V\0259*\205\262\205E\3509\303>\225\236*\321"
 190      15392A85 
 190      B28545E8 
 190      39C33E95 
ARM GAS  /tmp/ccdeFpUW.s 			page 15


 190      9E2AD1
 191 0616 EB2858B3 		.ascii	"\353(X\263zq\246#77\313\361R\376\252\27472\3510\276"
 191      7A71A623 
 191      3737CBF1 
 191      52FEAABC 
 191      3732E930 
 192 062b ACAC7861 		.ascii	"\254\254xa)\262\271=\264O\271\340}\235\027'\275\364"
 192      29B2B93D 
 192      B44FB9E0 
 192      7D9D1727 
 192      BDF4
 193 063d CA5AFB4A 		.ascii	"\312Z\373J\364\260\243\332[\345pW\024\225U\027\273\034"
 193      F4B0A3DA 
 193      5BE57057 
 193      14955517 
 193      BB1C
 194 064f 15AE37CB 		.ascii	"\025\2567\313\334\205\016\257X\354\256\020aDR5\374."
 194      DC850EAF 
 194      58ECAE10 
 194      61445235 
 194      FC2E
 195 0661 CEE4C527 		.ascii	"\316\344\305'#u+\027\212J\335\025.\007_\354*\021\252"
 195      23752B17 
 195      8A4ADD15 
 195      2E075FEC 
 195      2A11AA
 196 0674 CB445E7C 		.ascii	"\313D^|\253\322\345\205a\311<\257\014|\302\220\256\002"
 196      ABD2E585 
 196      61C93CAF 
 196      0C7CC290 
 196      AE02
 197 0686 46CD2A45 		.ascii	"F\315*E\226Uy+\252\2756\257X\016\2436T\272=\274hY\235"
 197      9655792B 
 197      AABD36AF 
 197      580EA336 
 197      54BA3DBC 
 198 069d 9795ED9C 		.ascii	"\227\225\355\234\224\267\346\325\374l\347\344\274\202"
 198      94B7E6D5 
 198      FC6CE7E4 
 198      BC82
 199 06ab FCECEC2C 		.ascii	"\374\354\354,\247%\177m~\226\323\264\012$/\313\211\327"
 199      A7257F6D 
 199      7E96D3B4 
 199      0A242FCB 
 199      89D7
 200 06bd 31868B96 		.ascii	"1\206\213\226\362\242\254\223VM^\227h)*s\011U8\307\274"
 200      F2A2AC93 
 200      564D5E97 
 200      68292A73 
 200      095538C7 
 201 06d2 A2C0E934 		.ascii	"\242\300\3514\347\256|\331i~\341Eg.-rL+\234\316d\311"
 201      E7AE7CD9 
 201      697EE145 
 201      672E2D72 
 201      4C2B9CCE 
 202 06e8 17EE62F0 		.ascii	"\027\356b\360\204T1S\277\330(\006_\"x\305g\340\203\247"
 202      84543153 
ARM GAS  /tmp/ccdeFpUW.s 			page 16


 202      BFD82806 
 202      5F2278C5 
 202      67E083A7 
 203 06fc A404A092 		.ascii	"\244\004\240\222\201\241\323%\024\003?Sa\2657\005\232"
 203      81A1D325 
 203      14033F53 
 203      61B53705 
 203      9A
 204 070d EBAADCA2 		.ascii	"\353\252\334\242\013\332\346B\267\350Mr{\312=\305.^"
 204      0BDAE642 
 204      B7E84D72 
 204      7BCA3DC5 
 204      2E5E
 205 071f 4C852F05 		.ascii	"L\205/\005.\021\336\257\206\266\231\276\234\301\313"
 205      2E11DEAF 
 205      86B699BE 
 205      9CC1CB
 206 072e EEE70168 		.ascii	"\356\347\001hC\225\247\272\222\2765\027\225\012UI<_"
 206      4395A7BA 
 206      92BE3517 
 206      950A5549 
 206      3C5F
 207 0740 525D51C4 		.ascii	"R]Q\304\363\251Je\341\222eO/U\267\226,\322\264\226\376"
 207      F3A94A65 
 207      E192654F 
 207      2F55B796 
 207      2CD2B496 
 208 0755 07934787 		.ascii	"\007\223G\207\220"
 208      90
 209              		.text
 210              		.section	.gnu.lto_.symtab.fb597b97d8443ba3,"",%progbits
 211 0000 70616C52 		.ascii	"palReadBus\000\000\000\000\000\000\000\000\000\000\000"
 211      65616442 
 211      75730000 
 211      00000000 
 211      00000000 
 212 0015 00A10000 		.ascii	"\000\241\000\000\000palWriteBus\000\000\000\000\000"
 212      0070616C 
 212      57726974 
 212      65427573 
 212      00000000 
 213 002a 00000000 		.ascii	"\000\000\000\000\000\000\000\364\000\000\000palSetB"
 213      000000F4 
 213      00000070 
 213      616C5365 
 213      7442
 214 003c 75734D6F 		.ascii	"usMode\000\000\000\000\000\000\000\000\000\000\000\000"
 214      64650000 
 214      00000000 
 214      00000000 
 214      0000
 215 004e FD000000 		.ascii	"\375\000\000\000_pal_lld_setgroupmode\000\000\002\000"
 215      5F70616C 
 215      5F6C6C64 
 215      5F736574 
 215      67726F75 
 216 006b 00000000 		.ascii	"\000\000\000\000\000\000\000\000\011\001\000\000"
ARM GAS  /tmp/ccdeFpUW.s 			page 17


 216      00000000 
 216      09010000 
 217              		.text
 218              		.section	.gnu.lto_.opts,"",%progbits
 219 0000 272D6D63 		.ascii	"'-mcpu=cortex-m0' '-mno-thumb-interwork' '-mthumb' "
 219      70753D63 
 219      6F727465 
 219      782D6D30 
 219      2720272D 
 220 0033 272D6767 		.ascii	"'-ggdb' '-O0' '-fomit-frame-pointer' '-falign-funct"
 220      64622720 
 220      272D4F30 
 220      2720272D 
 220      666F6D69 
 221 0066 696F6E73 		.ascii	"ions=16' '-ffunction-sections' '-fdata-sections' '-"
 221      3D313627 
 221      20272D66 
 221      66756E63 
 221      74696F6E 
 222 0099 666E6F2D 		.ascii	"fno-common' '-flto'\000"
 222      636F6D6D 
 222      6F6E2720 
 222      272D666C 
 222      746F2700 
 223              		.text
 224              		.cfi_sections	.debug_frame
 225              		.section	.text.palReadBus,"ax",%progbits
 226              		.align	2
 227              		.p2align 4,,15
 228              		.global	palReadBus
 229              		.code	16
 230              		.thumb_func
 231              		.type	palReadBus, %function
 232              	palReadBus:
 233              	.LFB149:
 234              		.file 1 "/home/efe/ChibiOS/os/hal/src/pal.c"
 235              		.loc 1 65 0
 236              		.cfi_startproc
 237 0000 82B0     		sub	sp, sp, #8
 238              		.cfi_def_cfa_offset 8
 239 0002 0190     		str	r0, [sp, #4]
 240              		.loc 1 69 0
 241 0004 019B     		ldr	r3, [sp, #4]
 242 0006 1B68     		ldr	r3, [r3]
 243 0008 1A69     		ldr	r2, [r3, #16]
 244 000a 019B     		ldr	r3, [sp, #4]
 245 000c 9B68     		ldr	r3, [r3, #8]
 246 000e DA40     		lsr	r2, r2, r3
 247 0010 019B     		ldr	r3, [sp, #4]
 248 0012 5B68     		ldr	r3, [r3, #4]
 249 0014 1340     		and	r3, r2
 250              		.loc 1 70 0
 251 0016 181C     		mov	r0, r3
 252 0018 02B0     		add	sp, sp, #8
 253              		@ sp needed
 254 001a 7047     		bx	lr
 255              		.cfi_endproc
ARM GAS  /tmp/ccdeFpUW.s 			page 18


 256              	.LFE149:
 257              		.size	palReadBus, .-palReadBus
 258 001c C046C046 		.section	.text.palWriteBus,"ax",%progbits
 259              		.align	2
 260              		.p2align 4,,15
 261              		.global	palWriteBus
 262              		.code	16
 263              		.thumb_func
 264              		.type	palWriteBus, %function
 265              	palWriteBus:
 266              	.LFB150:
 267              		.loc 1 90 0
 268              		.cfi_startproc
 269 0000 10B5     		push	{r4, lr}
 270              		.cfi_def_cfa_offset 8
 271              		.cfi_offset 4, -8
 272              		.cfi_offset 14, -4
 273 0002 82B0     		sub	sp, sp, #8
 274              		.cfi_def_cfa_offset 16
 275 0004 0190     		str	r0, [sp, #4]
 276 0006 0091     		str	r1, [sp]
 277              		.loc 1 94 0
 278 0008 019B     		ldr	r3, [sp, #4]
 279 000a 1B68     		ldr	r3, [r3]
 280 000c 009A     		ldr	r2, [sp]
 281 000e D143     		mvn	r1, r2
 282 0010 019A     		ldr	r2, [sp, #4]
 283 0012 5268     		ldr	r2, [r2, #4]
 284 0014 1140     		and	r1, r2
 285 0016 019A     		ldr	r2, [sp, #4]
 286 0018 9268     		ldr	r2, [r2, #8]
 287 001a 1032     		add	r2, r2, #16
 288 001c 9140     		lsl	r1, r1, r2
 289 001e 019A     		ldr	r2, [sp, #4]
 290 0020 5268     		ldr	r2, [r2, #4]
 291 0022 0098     		ldr	r0, [sp]
 292 0024 1040     		and	r0, r2
 293 0026 019A     		ldr	r2, [sp, #4]
 294 0028 9268     		ldr	r2, [r2, #8]
 295 002a 041C     		mov	r4, r0
 296 002c 9440     		lsl	r4, r4, r2
 297 002e 221C     		mov	r2, r4
 298 0030 0A43     		orr	r2, r1
 299 0032 9A61     		str	r2, [r3, #24]
 300              		.loc 1 95 0
 301 0034 02B0     		add	sp, sp, #8
 302              		@ sp needed
 303 0036 10BD     		pop	{r4, pc}
 304              		.cfi_endproc
 305              	.LFE150:
 306              		.size	palWriteBus, .-palWriteBus
 307 0038 C046C046 		.section	.text.palSetBusMode,"ax",%progbits
 307      C046C046 
 308              		.align	2
 309              		.p2align 4,,15
 310              		.global	palSetBusMode
 311              		.code	16
ARM GAS  /tmp/ccdeFpUW.s 			page 19


 312              		.thumb_func
 313              		.type	palSetBusMode, %function
 314              	palSetBusMode:
 315              	.LFB151:
 316              		.loc 1 113 0
 317              		.cfi_startproc
 318 0000 00B5     		push	{lr}
 319              		.cfi_def_cfa_offset 4
 320              		.cfi_offset 14, -4
 321 0002 83B0     		sub	sp, sp, #12
 322              		.cfi_def_cfa_offset 16
 323 0004 0190     		str	r0, [sp, #4]
 324 0006 0091     		str	r1, [sp]
 325              		.loc 1 117 0
 326 0008 019B     		ldr	r3, [sp, #4]
 327 000a 1968     		ldr	r1, [r3]
 328 000c 019B     		ldr	r3, [sp, #4]
 329 000e 5A68     		ldr	r2, [r3, #4]
 330 0010 019B     		ldr	r3, [sp, #4]
 331 0012 9B68     		ldr	r3, [r3, #8]
 332 0014 9A40     		lsl	r2, r2, r3
 333 0016 009B     		ldr	r3, [sp]
 334 0018 081C     		mov	r0, r1
 335 001a 111C     		mov	r1, r2
 336 001c 1A1C     		mov	r2, r3
 337 001e FFF7FEFF 		bl	_pal_lld_setgroupmode
 338              		.loc 1 118 0
 339 0022 03B0     		add	sp, sp, #12
 340              		@ sp needed
 341 0024 00BD     		pop	{pc}
 342              		.cfi_endproc
 343              	.LFE151:
 344              		.size	palSetBusMode, .-palSetBusMode
 345 0026 C046C046 		.text
 345      C046C046 
 345      C046
 346              	.Letext0:
 347              		.file 2 "/usr/include/newlib/machine/_default_types.h"
 348              		.file 3 "/usr/include/newlib/stdint.h"
 349              		.file 4 "/home/efe/ChibiOS/os/rt/ports/ARMCMx/compilers/GCC/chtypes.h"
 350              		.file 5 "/home/efe/ChibiOS/os/rt/include/chsystypes.h"
 351              		.file 6 "/home/efe/ChibiOS/os/rt/include/chschd.h"
 352              		.file 7 "/home/efe/ChibiOS/os/rt/ports/ARMCMx/chcore.h"
 353              		.file 8 "/home/efe/ChibiOS/os/rt/ports/ARMCMx/chcore_v6m.h"
 354              		.file 9 "/home/efe/ChibiOS/os/rt/include/chsem.h"
 355              		.file 10 "/home/efe/ChibiOS/os/rt/include/chmtx.h"
 356              		.file 11 "/home/efe/ChibiOS/os/hal/ports/STM32/LLD/GPIOv2/pal_lld.h"
 357              		.file 12 "/home/efe/ChibiOS/os/hal/include/pal.h"