ARM GAS  /tmp/ccN6qImD.s 			page 1


   1              		.cpu cortex-m0
   2              		.fpu softvfp
   3              		.eabi_attribute 20, 1
   4              		.eabi_attribute 21, 1
   5              		.eabi_attribute 23, 3
   6              		.eabi_attribute 24, 1
   7              		.eabi_attribute 25, 1
   8              		.eabi_attribute 26, 1
   9              		.eabi_attribute 30, 6
  10              		.eabi_attribute 34, 0
  11              		.eabi_attribute 18, 4
  12              		.code	16
  13              		.file	"pal_lld.c"
  14              		.text
  15              	.Ltext0:
  16              		.section	.gnu.lto_.inline.6dae05882af8b8ba,"",%progbits
  17 0000 789C6362 		.ascii	"x\234cb`b\300\006\374\24143\003\203\240\000\003\003"
  17      6062C006 
  17      FCA13433 
  17      0383A000 
  17      0303
  18 0012 935CC32F 		.ascii	"\223\\\303/F\006\026\210bF\006!S\240\020\307\004?\230"
  18      46061688 
  18      62460621 
  18      53A010C7 
  18      043F98
  19 0025 08330F26 		.ascii	"\0103\017&\301\304p\200\301\036H\325l\270\301\016S\307"
  19      C1C47080 
  19      C11E48D5 
  19      6CB8C10E 
  19      53C7
  20 0037 00000A54 		.ascii	"\000\000\012T\006\237"
  20      069F
  21              		.text
  22              		.section	.gnu.lto_initgpio.6dae05882af8b8ba,"",%progbits
  23 0000 789C9D92 		.ascii	"x\234\235\222\277K\303@\024\200\337\313\357F\005\005"
  23      BF4BC340 
  23      1480DFCB 
  23      EF460505 
  24 0010 17074174 		.ascii	"\027\007At\024<\324M\334\024D\250T\260\202N\322jM\003"
  24      143CD44D 
  24      DC1444A8 
  24      54B0824E 
  24      D26A4D03 
  25 0024 958A8A6B 		.ascii	"\225\212\212kSq\020\221\022\212H\251\210\272\211\213"
  25      53711091 
  25      128A48A9 
  25      88BA898B 
  26 0034 AB637110 		.ascii	"\253cq\020\034\012u\023q\010\212\370/\350b\274K\256"
  26      1C0A7513 
  26      71088AF8 
  26      2FE862BC 
  26      4BAE
  27 0046 581D82DE 		.ascii	"X\035\202\336\203\274\274\343\362\335\367\302;\011$"
  27      83BCBCE3 
  27      F2DDF7C2 
  27      3B0924
ARM GAS  /tmp/ccN6qImD.s 			page 2


  28 0055 F81DDDF4 		.ascii	"\370\035\335\364\371P\000\306\331B\006\244_\240\204"
  28      F95000C6 
  28      D94206A4 
  28      5FA084
  29 0064 48170805 		.ascii	"H\027\010\005\011\013\213\254\004\275\037\316\035\247"
  29      090B8BAC 
  29      04BD1FCE 
  29      1DA7
  30 0072 ECBD9E9E 		.ascii	"\354\275\236\236\364\354\237\355\270\316\247\357\243"
  30      F4EC9FED 
  30      B8CEA7EF 
  30      A3
  31 007f CDB69611 		.ascii	"\315\266\226\021\026h\205}\301KR~\236\036b5\367\366"
  31      1668857D 
  31      C14B527E 
  31      9E1E6235 
  31      F7F6
  32 0091 C0748B7B 		.ascii	"\300t\213{\216\357\027\376\016\225E\240C\021\350H\004"
  32      8EEF17FE 
  32      0E9545A0 
  32      4311E848 
  32      04
  33 00a2 AA8840D5 		.ascii	"\252\210@\325\177AWR\315\363\375\247\2537\257\204]&"
  33      7F415752 
  33      CDF3FDA7 
  33      AB37AF84 
  33      5D26
  34 00b4 E21AD201 		.ascii	"\342\032\322\001RN\246\025*\254RY\322X\322Y2X\212Ap"
  34      524EA615 
  34      2AAC5259 
  34      D258D259 
  34      32588A41 
  35 00c9 34DDDB75 		.ascii	"4\335\333u\034\267/\220\320H\006y\236\015X\256\303\316"
  35      1CB72F90 
  35      D0480679 
  35      9E0D58AE 
  35      C3CE
  36 00db E3FB696F 		.ascii	"\343\373io\012/P\005\013\245A\270t:m\224\217\241J\333"
  36      0A2F5005 
  36      0BA541B8 
  36      743A6D94 
  36      8FA14ADB 
  37 00ef 502C44D6 		.ascii	"P,D\326\216\0324\221\306f;u\270\271k\230!\304\210\335"
  37      8E1A3491 
  37      C6663B75 
  37      B8B96B98 
  37      21C488DD 
  38 0103 A2336CA3 		.ascii	"\2423l\243\026B\272\2052\203\014\016\205\224\305t\314"
  38      1642BA85 
  38      32830C0E 
  38      8594C574 
  38      CC
  39 0114 56796EC8 		.ascii	"Vyn\310M\235\022\255\223Dt2\327)\241\356\272E\247F\353"
  39      4D9D12AD 
  39      93447432 
  39      D729A1EE 
  39      BA45A746 
ARM GAS  /tmp/ccN6qImD.s 			page 3


  40 0129 14119DCA 		.ascii	"\024\021\235\312uj\250{h\321i\321:MD\247s\235\026\352"
  40      756AA87B 
  40      68D169D1 
  40      3A4D44A7 
  40      739D16EA 
  41 013d DE5B747A 		.ascii	"\336[tz\264\316\020\321\305\270N\347\263{\371\326\031"
  41      B4CE10D1 
  41      C5B84EE7 
  41      B37BF9D6 
  41      19
  42 014e D13A5344 		.ascii	"\321:SD\327\306u\006\237]\213.\026\255k\027\321up\035"
  42      D7C67506 
  42      9F5D8B2E 
  42      16AD6B17 
  42      D175701D 
  43 0162 FDCB7B28 		.ascii	"\375\313{(z\245\201\220kF\222]]v\007\307H6\277\226!"
  43      7AA58190 
  43      6B46925D 
  43      5D7607C7 
  43      4836BF96 
  44 0177 99D50C99 		.ascii	"\231\325\014\231\310\332i;1G\362\233$\233\312\221\365"
  44      C8DA693B 
  44      3147F29B 
  44      249BCA91 
  44      F5
  45 0188 FCC6D626 		.ascii	"\374\306\326&\231K\316\214\216\220x|\222L\315N'\266"
  45      994BCE8C 
  45      8E90787C 
  45      924CCD4E 
  45      27B6
  46 019a 47C87A2A 		.ascii	"G\310z*\267\224\313\255\014-\303\027\011\336\035\200"
  46      B794CBAD 
  46      0C2DC317 
  46      09DE1D80 
  47              		.text
  48              		.section	.gnu.lto__pal_lld_init.6dae05882af8b8ba,"",%progbits
  49 0000 789CB592 		.ascii	"x\234\265\222\317K\033A\024\307\337\233\231Mvc\241\245"
  49      CF4B1B41 
  49      14C7DF9B 
  49      994D7663 
  49      A1A5
  50 0012 78A8F422 		.ascii	"x\250\364\"BO\205\016\330K)\275Y\020AQ0\005\355Eb\232"
  50      424F850E 
  50      D84B29BD 
  50      59104151 
  50      3005ED45 
  51 0028 260B9148 		.ascii	"&\013\221H\265^<\344\305\037\020\304\342\342I\332KJ"
  51      B55E3CE4 
  51      C51F10C4 
  51      E2E249DA 
  51      4B4A
  52 003a 2FB15084 		.ascii	"/\261P\204^T\360\020z\361$\305KO=\004\377\005{\222\326"
  52      5E54F010 
  52      7AF124C5 
  52      4B4F3D04 
  52      FF057B92 
  53 004f EDBCDD6C 		.ascii	"\355\274\335ll\255\207\215\320\007\373\346\015\357}"
ARM GAS  /tmp/ccN6qImD.s 			page 4


  53      6CAD878D 
  53      D007FBE6 
  53      0DEF7D
  54 005e BF9F9961 		.ascii	"\277\237\231a\005\010\270\034\335\346;P\000Ox#\001\315"
  54      0508B81C 
  54      DDE63B50 
  54      004F7823 
  54      01CD
  55 0070 040A44B3 		.ascii	"\004\012D\263A(\013,Or\011v\037\274'\332l\256\236n\365"
  55      41280B2C 
  55      4F720976 
  55      1FBC27DA 
  55      6CAE9E6E 
  56 0085 ACD5963C 		.ascii	"\254\325\226<:\367}t\271\225E\2300\025\366\006\213P"
  56      3AF77D74 
  56      B9954598 
  56      3015F606 
  56      8B50
  57 0097 7FBB8732 		.ascii	"\177\273\2072\372\\'\247F?}_^O#\377\237\246q|\370\346"
  57      FA5C27A7 
  57      463F7D5F 
  57      5E4F23FF 
  57      9FA6717C 
  58 00ad CF2BA998 		.ascii	"\317+\251\230\262o\207\353)\257R%\337/\307\027}\277"
  58      B26F87EB 
  58      29AF5225 
  58      DF2FC717 
  58      7DBF
  59 00bf 8EE8BC23 		.ascii	"\216\350\274#\321\216h4}\177}\367\307I\035o\247\020"
  59      D18E6834 
  59      7D7F7DF7 
  59      C7491D6F 
  59      A710
  60 00d1 CC830B4E 		.ascii	"\314\203\013N\322$\2518Y8\203\2200\225Jr\26299\020X"
  60      D224A938 
  60      59388390 
  60      30954A72 
  60      B2393910 
  61 00e6 83052B44 		.ascii	"\203\005+D^o\0001\221\016\3623\376)\344\021,\355m\235"
  61      5E6F0031 
  61      910EF233 
  61      FE29E411 
  61      2CED6D9D 
  62 00fa DEC9E036 		.ascii	"\336\311\3406Z\220Gd8P\255J\2543\315GQG\\\352|y\036"
  62      5A904764 
  62      3850AD4A 
  62      AC33CD47 
  62      51475CEA 
  63 0111 75E47DF8 		.ascii	"u\344}\370H+\225[.Z\357\340\255\231JD\323ALct\211#X"
  63      482B955B 
  63      2E5AEFE0 
  63      AD994A44 
  63      D3414C63 
  64 0129 DE97914A 		.ascii	"\336\227\221J\031!\017I\242=\021:\016\205\275+\354\360"
  64      19210F49 
  64      A23D113A 
  64      0E85BD2B 
ARM GAS  /tmp/ccN6qImD.s 			page 5


  64      ECF0
  65 013b 5FBB3CDF 		.ascii	"_\273<\337\314\034\360l\371\303\306\335\3104\261\010"
  65      CC1CF06C 
  65      F9C3C6DD 
  65      C834B108 
  66 014b 6764948A 		.ascii	"gd\224\212=<\242\327.&C\023;\217\026\2338-\223\366\241"
  66      3D3CA2D7 
  66      2E264313 
  66      3B8F169B 
  66      382D93F6 
  67 0160 00BEC26A 		.ascii	"\000\276\302j\243\345\000\300\006U\266He[3\254\352\""
  67      A3E500C0 
  67      0655B648 
  67      655B33AC 
  67      EA22
  68 0172 A2866280 		.ascii	"\242\206b\200\2137Z\330O7#j26UtH\255\206\324\344\005"
  68      8B375AD8 
  68      4F37236A 
  68      32365574 
  68      48AD86D4 
  69 0188 75BF4DB5 		.ascii	"u\277M\265cSe\207T/\244\332\027\324_m\252\023\233\252"
  69      63536587 
  69      542FA4DA 
  69      17D45F6D 
  69      AA139BAA 
  70 019c 3AA4D643 		.ascii	":\244\326C\252\023P\217\241\322\254\337\213$a\244y\234"
  70      AA13508F 
  70      A1D2ACDF 
  70      8B2461A4 
  70      799C
  71 01ae 5FF0B12E 		.ascii	"_\360\261.\224fr:\3672\247\007\012\356\264;:\256Ks\272"
  71      9466723A 
  71      F732A707 
  71      0AEEB43B 
  71      3AAE4B73 
  72 01c3 9029EAD9 		.ascii	"\220)\352\331\322\253\3719=\236\036y\330\257\207\207"
  72      D2ABF939 
  72      3D9E1E79 
  72      D8AF8787 
  73 01d3 9FEAC1B1 		.ascii	"\237\352\301\261\241\321\205~=\233)N\025\213/\036d\341"
  73      A1D1857E 
  73      3D9B294E 
  73      158B2F1E 
  73      64E1
  74 01e5 3775951B 		.ascii	"7u\225\033#"
  74      23
  75              		.text
  76              		.section	.gnu.lto__pal_lld_setgroupmode.6dae05882af8b8ba,"",%progbits
  77 0000 789CDD58 		.ascii	"x\234\335Xkh\223W\030>\347\273$MZ\255w[\257\265\336"
  77      6B689357 
  77      183EE7BB 
  77      244D5AAD 
  77      775BAFB5 
  78 0015 6F8DBDA8 		.ascii	"o\215\275\250U[\353e\260\011\016\005-\324?\323\330f"
  78      555BEB65 
  78      B0090E05 
  78      2DD43FD3 
ARM GAS  /tmp/ccN6qImD.s 			page 6


  78      D866
  79 0027 69B78686 		.ascii	"i\267\206\206\264\223m?\346W\32311\262\205\242\215\227"
  79      B4936D3F 
  79      E657D331 
  79      31B285A2 
  79      8D97
  80 0039 7A1B830D 		.ascii	"z\033\203\015\231\227)\332i\265V\331\017G'C\246h,\322"
  80      999729DA 
  80      69B556D9 
  80      0F472743 
  80      A6682CD2 
  81 004d 2AEA7E58 		.ascii	"*\352~X\004\007\323\201n\331\373\236\357\234/I[H\362"
  81      0407D381 
  81      6ED9FB9E 
  81      EF9C2F49 
  81      5B48F2
  82 0060 C1F6C380 		.ascii	"\301\366\303\200\357\311\367>\347y\317\363>\347|\371"
  82      EFC9F73E 
  82      E779CFF3 
  82      3EE77CF9 
  83 0070 BE2A1189 		.ascii	"\276*\021\211\364\377\270\340\337\027\243\011\371\030"
  83      F4FFB8E0 
  83      DF17A309 
  83      F918
  84 007e 2F320885 		.ascii	"/2\010\205\031T\2422DYR\010\321\2444\010\212\"\251\370"
  84      1954A232 
  84      44595208 
  84      D1A43408 
  84      8A22A9F8 
  85 0092 DD82DF55 		.ascii	"\335\202\337Uj\005\324\302\242\225\002L\323$\033\242"
  85      6A05D4C2 
  85      A295024C 
  85      D3241BA2 
  86 00a2 76446D34 		.ascii	"vDm4\0352vV!\235R(J\311vIVT\2135\315fO\247\3337a\216"
  86      1D327656 
  86      219D5228 
  86      4AC97649 
  86      56548B35 
  87 00be 14E69263 		.ascii	"\024\346\222c\232\326\334\373\371\331\007\362\376=\235"
  87      9AD6DCFB 
  87      F9D907F2 
  87      FE3D9D
  88 00cd 4D47B5D7 		.ascii	"MG\265\327\221\010\2455\010VRR\001\337h\016\033PE\354"
  88      9108A535 
  88      08565252 
  88      01DF680E 
  88      1B5045EC 
  89 00e1 4727761E 		.ascii	"G'v\036\350\332m\0176\356\324\"\221\355\311\223Z\315"
  89      E8DA6D0F 
  89      36EED422 
  89      91EDC993 
  89      5ACD
  90 00f3 900E9B21 		.ascii	"\220\016\233!\235\353\372*{\327\321\035A\355\037h+y"
  90      9DEBFA2A 
  90      7BD7D11D 
  90      41ED1F68 
  90      2B79
ARM GAS  /tmp/ccN6qImD.s 			page 7


  91 0105 5A7BE01B 		.ascii	"Z{\340\033\0234\355\340\343\365\327\265\246\316H\244"
  91      1334EDE0 
  91      E3F5D7B5 
  91      A6CE48A4 
  92 0115 2C594E50 		.ascii	",YNP\353y\024\345\310I\312\273\034h5#\357\325\243\324"
  92      EB7914E5 
  92      C849CABB 
  92      1C683523 
  92      EFD5A3D4 
  93 0129 E55D4959 		.ascii	"\345]IY^P;\363\235fc\007IN\276\245\233]\207\314\264"
  93      5E503BF3 
  93      9D666307 
  93      494EBEA5 
  93      9B5D87CC 
  94 013e B43F65C7 		.ascii	"\264?e\307\233\265\275&8gS\347t\336~\323Z\012v\336\011"
  94      9BB5BD26 
  94      386753E7 
  94      74DE7ED3 
  94      5A0A76DE 
  95 0153 C4DD4EB2 		.ascii	"\304\335N\262DJ\351\177w&\302\201\303f\014<b\302\214"
  95      444AE97F 
  95      7726C281 
  95      C3660C3C 
  95      62C28C
  96 0166 D4EFDC66 		.ascii	"\324\357\334f\355\202\2113\321\035\010\245\336RP\273"
  96      ED828933 
  96      D11D08A5 
  96      DE5250BB 
  97 0176 FC3FDD85 		.ascii	"\374?\335\205\367\3159\376\203\011\367\016\231\340\264"
  97      F7CD39FE 
  97      8309F70E 
  97      99E0B4
  98 0185 9B70BCC7 		.ascii	"\233p\274\307\\Kf\344\231\271s\333L\264\364\374\315"
  98      5C4B66E4 
  98      99B973DB 
  98      4CB4F4FC 
  98      CD
  99 0196 6B2914F8 		.ascii	"k)\024\3702[\213\266\244HduR?,\315\235\373\2722\214"
  99      325B8BB6 
  99      A4486475 
  99      523F2CCD 
  99      9DFBBA32 
 100 01ab B702A0AD 		.ascii	"\267\002\240\255I\222v \236\266>IZk<\255\"I\332\341"
 100      49927620 
 100      9EB63E49 
 100      5A6B3CAD 
 100      2249DAE1 
 101 01bf 78DA7B49 		.ascii	"x\332{I\322N\307\323*\223\244\265\005\366\3643\323\235"
 101      D24EC7D3 
 101      2A93A4B5 
 101      05F6F433 
 101      D39D
 102 01d1 1C53FBB3 		.ascii	"\034S\373\263\312\3309`y\223d\375\035\307\252O\222\265"
 102      CAD83960 
 102      799364FD 
 102      1DC7AA4F 
 102      92B5
ARM GAS  /tmp/ccN6qImD.s 			page 8


 103 01e3 D715CBDA 		.ascii	"\327\025\313\332\226\210uJ\352\354\215DZ\303}\017\003"
 103      9688754A 
 103      EAEC8D44 
 103      5AC37D0F 
 103      03
 104 01f4 74241C0E 		.ascii	"t$\034\016\017\205\267h'\355\242\271D\206\361\006\214"
 104      0F85B768 
 104      27EDA2B9 
 104      4486F106 
 104      8C
 105 0205 0A8CBFC2 		.ascii	"\012\214\277\302\250\302x\023F\013\214\267a\264R\017"
 105      A8C27813 
 105      460B8CB7 
 105      61B4520F 
 106 0215 8517647D 		.ascii	"\205\027d}\262\215\300\251\264sF:^dp\332\020\274\030"
 106      B28DC0A9 
 106      B473463A 
 106      5E6470DA 
 106      10BC18
 107 0228 CAB99978 		.ascii	"\312\271\231x1\014.~\203\213\341\274\320\010(DF\"2\012"
 107      310C2E7E 
 107      838BE1BC 
 107      D0082844 
 107      4622320A 
 108 023c C3680C63 		.ascii	"\303h\014c \310ca\302\035\230\220\205\231l\014\3430"
 108      20C86361 
 108      C21D9890 
 108      85996C0C 
 108      E330
 109 024e 3D1EC304 		.ascii	"=\036\303\004\300\356\0036\021\310\322$\304&c\310\301"
 109      C0EE0336 
 109      11C8D224 
 109      C42663C8 
 109      C1
 110 025f 3005432E 		.ascii	"0\005C.\206\251\030\246a\230\216a\006\220\316\001i&"
 110      86A918A6 
 110      61988E61 
 110      0690CE01 
 110      6926
 111 0271 56980517 		.ascii	"V\230\005\027a\270\230\215\310\034\014s1\314\3030\037"
 111      61B8988D 
 111      C81C0C73 
 111      31CCC330 
 111      1F
 112 0282 431ECE72 		.ascii	"C\036\316r`X\000S\273aj>\246\0130\024b(\302\260\020"
 112      60580053 
 112      BB616A3E 
 112      A60B3014 
 112      6228C2B0 
 113 0297 C3220C8B 		.ascii	"\303\"\014\2131\024cX\202a)\206e\030J0\224\242\267\313"
 113      31146358 
 113      82612986 
 113      65184A30 
 113      94A2B7CB 
 114 02ab B94365DC 		.ascii	"\271Ce\334\234\025\334\227\225\334\306U\334\022\370"
 114      9C15DC97 
 114      95DCC655 
ARM GAS  /tmp/ccN6qImD.s 			page 9


 114      DC12F8
 115 02ba A8A4099E 		.ascii	"\250\244\011\23679z^g\351\034\235\241[(fW\262?;6\262"
 115      37397A5E 
 115      67E91C9D 
 115      A15B2866 
 115      57B23F3B 
 116 02d0 588E7FE5 		.ascii	"X\216\177\345\3107\210\277\335\177\252e\202\223\366"
 116      C83788BF 
 116      DD7FAA65 
 116      8293F6
 117 02df 50154E6A 		.ascii	"P\025Nj\232\233Z\361\000\300\266\022\302\300\263-%\002"
 117      9A9B5AF1 
 117      00C0B612 
 117      C2C0B32D 
 117      2502
 118 02f1 B40950D1 		.ascii	"\264\011P\321\301\223~\237\200\354\200V\350/%\234\327"
 118      C1937E9F 
 118      80EC8056 
 118      E82F259C 
 118      D7
 119 0302 16E5A50B 		.ascii	"\026\345\245\013^\326\000^\006\240\214g\254\327\036"
 119      5ED6005E 
 119      06A08C67 
 119      ACD71E
 120 0311 E50D11BC 		.ascii	"\345\015\021\274-\003xC\001e<U\360\256Dy\231\202\247"
 120      2D037843 
 120      01653C55 
 120      F0AE4479 
 120      9982A7
 121 0324 650E200E 		.ascii	"e\016 \016\003\230\021\255\014\332\361\343\316\363T"
 121      039811AD 
 121      0CDAF1E3 
 121      CEF354
 122 0333 60C31130 		.ascii	"`\303\0210N~9>\270u\203\236\266L\026sF\272)e\265\321"
 122      4E7E393E 
 122      B875839E 
 122      B64C1673 
 122      46BA2965 
 123 0349 C4EBA4A9 		.ascii	"\304\353\244\251\2571\337\200*\364\347\201\370\204\011"
 123      AF31DF80 
 123      2AF4E781 
 123      F88409
 124 0358 75D31112 		.ascii	"u\323\021\022\204R\373\367=\325a\"\201\277\322\245\260"
 124      8452FBF7 
 124      3DD56122 
 124      81BFD2A5 
 124      B0
 125 0369 D74D57DA 		.ascii	"\327MW\332w?\257\015\023\031\214\223~\301\304r\373\255"
 125      773FAF0D 
 125      13198C93 
 125      7EC1C472 
 125      FBAD
 126 037b CD61A280 		.ascii	"\315a\242\200!\322\255MnZf\357\353i\010\023\025\032"
 126      21D2AD4D 
 126      6E5A66EF 
 126      EB690813 
 126      151A
ARM GAS  /tmp/ccN6qImD.s 			page 10


 127 038d 95FA105F 		.ascii	"\225\372\020_a\177\335\003\004\013\210\224vwCb\225\275"
 127      617FDD03 
 127      040B8894 
 127      76774362 
 127      95BD
 128 039f F5F91614 		.ascii	"\365\371\026\024\251\010\221/[\3361\016\303\035\266"
 128      A908912F 
 128      5BDE310E 
 128      C31DB6
 129 03ae E96116BB 		.ascii	"\351a\026\273Y\274\317\016\200.\025>n:\312M-L\260n\204"
 129      59BCCF0E 
 129      802E153E 
 129      6E3ACA4D 
 129      2D4CB06E 
 130 03c3 7F97FFBC 		.ascii	"\177\227\377\274\344\244\275\254\223\321\000\307l\364"
 130      E4A4BDAC 
 130      93D100C7 
 130      6CF4
 131 03d1 8E67FE0E 		.ascii	"\216g\376\016*\2601\0003\302\011\377\327Fr,3v\014\337"
 131      2AB03100 
 131      33C209FF 
 131      D746722C 
 131      33760CDF 
 132 03e5 8A572DC5 		.ascii	"\212W-\305\002\310\032\260\312\013\203\224\015p\374"
 132      02C81AB0 
 132      CA0B8394 
 132      0D70FC
 133 03f4 2A9F0968 		.ascii	"*\237\011h\034\240\372\"\262H\215g\273\226\211 \237"
 133      1CA0FA22 
 133      B2488D67 
 133      BB968920 
 133      9F
 134 0405 FD818026 		.ascii	"\375\201\200&\000\3126\343\311\325\216t\221d\313*\326"
 134      00CA36E3 
 134      C9D58E74 
 134      9164CB2A 
 134      D6
 135 0416 98FD28C7 		.ascii	"\230\375(\307\326\301\253k\367\366]\014\033u'\315%\307"
 135      D6C1AB6B 
 135      F7F65D0C 
 135      1B7527CD 
 135      25C7
 136 0428 B52698AB 		.ascii	"\265&\230\253\036$\007`\000\213'\"Ugn56\024\226\274"
 136      1E240760 
 136      008B2722 
 136      55676E35 
 136      361496BC 
 137 043c E43F6358 		.ascii	"\344?cX4\031\226\345\355\0367\2229P\016 \226\277\340"
 137      341996E5 
 137      ED1E3792 
 137      39500E20 
 137      96BFE0
 138 044f 7F62E4A7 		.ascii	"\177b\344\2470h,\346\257\375\034\344\022\331\272\215"
 138      30682CE6 
 138      AFFD1CE4 
 138      12D9BA8D 
 139 045f DAB2042B 		.ascii	"\332\262\004+\003[\310\267p\371wc\344\347&\220O\007"
ARM GAS  /tmp/ccN6qImD.s 			page 11


 139      035BC8B7 
 139      70F97763 
 139      E4E72690 
 139      4F07
 140 0471 973F7530 		.ascii	"\227?u0\371\323\240\034@\003\344OgP\252\362)\227?]\310"
 140      F9D3A01C 
 140      4003E44F 
 140      6750AAF2 
 140      29973F5D 
 141 0486 B732F9B0 		.ascii	"\2672\371\260q\247B\223D\351\031n\354*n\243g\262\215"
 141      71A74293 
 141      44E9196E 
 141      EC2A6EA3 
 141      67B28D
 142 0499 A608F6DF 		.ascii	"\246\010\366\337\350Y\2002\025\367\366\265?0\010\263"
 142      E8598032 
 142      15F7F6B5 
 142      3F3008B3 
 143 04a9 135820C5 		.ascii	"\023X \305Z\320at5\007\352q\013\242'\177.\224\003\210"
 143      5AD06174 
 143      3507EA71 
 143      0BA2277F 
 143      2E940388 
 144 04bd 5BF08791 		.ascii	"[\360\207\221\237\307 Y\267\340t\274\005\213\023\254"
 144      9FC72059 
 144      B7E074BC 
 144      058B13AC 
 145 04cd 0C6C7EF6 		.ascii	"\014l~\366\333By\242\340|qcH\342\360\177*\240<@\373"
 145      DB4279A2 
 145      E07C7163 
 145      48E2F07F 
 145      2AA03C40 
 146 04e2 79E2E0BF 		.ascii	"y\342\340\277\221\000\366\367d\001\240\272'wc<\311O"
 146      9100F6F7 
 146      6401A0BA 
 146      2777633C 
 146      C94F
 147 04f4 E0891CEB 		.ascii	"\340\211\034\353\311C\243\315\002\250\307=\271h$\013"
 147      C943A3CD 
 147      02A8C73D 
 147      B968240B 
 148 0504 A11C40DC 		.ascii	"\241\034@\334\223\027F\276\210AJ\212\236\310\334\223"
 148      931746BE 
 148      88414A8A 
 148      9EC8DC93 
 149 0514 225DF45F 		.ascii	"\"]\364_1\242\027&\020\255\304\212\216\352[\024\025"
 149      31A21726 
 149      10ADC48A 
 149      8EEA5B14 
 149      15
 150 0525 1D3DE08B 		.ascii	"\035=\340\213\241\034@\\\3643#_\314 5E\321\012\027]"
 150      A11C405C 
 150      F433235F 
 150      CC203545 
 150      D10A175D 
 151 0539 CC4F5F47 		.ascii	"\314O_GT\364\222\004\242\325\301E/\035L\3642(\007\320"
 151      54F49204 
ARM GAS  /tmp/ccN6qImD.s 			page 12


 151      A2D5C145 
 151      2F1D4CF4 
 151      322807D0 
 152 054d 00D1250C 		.ascii	"\000\321%\014\222R\024\255r\321%\342\006L\323\037\025"
 152      925214AD 
 152      72D125E2 
 152      064CD31F 
 152      15
 153 055e 27FD4F43 		.ascii	"'\375OC\343\304C\253\224?\317d\375y\366\323\357W_\006"
 153      E3C443AB 
 153      943FCF64 
 153      FD79F6D3 
 153      EF575F06 
 154 0572 320CB0DF 		.ascii	"2\014\260\337\023\015\337\035lP\244\234\332\365R'\374"
 154      130DDF1D 
 154      6C50A49C 
 154      DAF55227 
 154      FC
 155 0583 2F43C6BB 		.ascii	"/C\306\273\303r\270A\214R\014|\025\232(\30028)\261/"
 155      C372B841 
 155      8C520C7C 
 155      159A28C0 
 155      323829B1 
 156 0598 0827FC91 		.ascii	"\010'\374\221\320x\001\256\200\035\211\007\217\031U"
 156      D07801AE 
 156      801D8907 
 156      8F1955
 157 05a7 5742E3B1 		.ascii	"WB\343\261\330N\377\267\255Y\002\\%~\347\205\312r\374"
 157      D84EFFB7 
 157      AD59025C 
 157      257EE785 
 157      CA72FC
 158 05ba 9F57B98B 		.ascii	"\237W\271\2134B\257Ux\326n\222\306\336\327\217\251\361"
 158      3442AF55 
 158      78D66E92 
 158      C6DED78F 
 158      A9F1
 159 05cc E0E35DC0 		.ascii	"\340\343]\300|\254\267\324Q]\347q9\\\357\273\034\253"
 159      7CACB7D4 
 159      515DE771 
 159      395CEFBB 
 159      1CAB
 160 05de AB6BB6D6 		.ascii	"\253k\266\326\254\333\340\250\253wT;k\035\336:_C\275"
 160      ACDBE0A8 
 160      AB77543B 
 160      6B1DDE3A 
 160      5F43BD
 161 05f1 63C3C677 		.ascii	"c\303\306w\013\013\034k\327\276\345x{\375\232u\333\012"
 161      0B0B1C6B 
 161      D7BEE578 
 161      7BFD9A75 
 161      DB0A
 162 0603 1C5E67ED 		.ascii	"\034^g\355\346\332\332\252\274J\242n\255i\310[\240z"
 162      E6DADAAA 
 162      BC4AA26E 
 162      AD69C85B 
 162      A07A
ARM GAS  /tmp/ccN6qImD.s 			page 13


 163 0615 EAAA5C3E 		.ascii	"\352\252\\>K]\303'^\227\317ZW\357u\271\252|\252\367"
 163      4B5DC327 
 163      5E97CF5A 
 163      57EF75B9 
 163      AA7CAAF7 
 164 0629 236F954F 		.ascii	"#o\225Oq\3266\370d\230\225\206_<\316\372\017%O\276\344"
 164      71D636F8 
 164      64989586 
 164      5F3CCEFA 
 164      0F254FBE 
 165 063e 29903C45 		.ascii	")\220<E\377\002g\327\007\245"
 165      FF0267D7 
 165      07A5
 166              		.text
 167              		.section	.gnu.lto_.symbol_nodes.6dae05882af8b8ba,"",%progbits
 168 0000 789C6362 		.ascii	"x\234cb`b\360g\200\002\246\251\214\365\014\014\023\316"
 168      6062F067 
 168      8002A6A9 
 168      8CF50C0C 
 168      13CE
 169 0012 3130D4D7 		.ascii	"10\324\327_\351Hd\232\306X\317\010\345^\353`d\232\316"
 169      5FE94864 
 169      9AC658CF 
 169      08E55EEB 
 169      60649ACE 
 170 0026 58CF84E0 		.ascii	"X\317\204\3402320\034z\370\017L7\265\275\221\007\363"
 170      32333230 
 170      1C7AF80F 
 170      4C37B5BD 
 170      9107F3
 171 0039 A17453FB 		.ascii	"\241tS\373\033y\006\000\347\277\030Z"
 171      1B790600 
 171      E7BF185A 
 172              		.text
 173              		.section	.gnu.lto_.refs.6dae05882af8b8ba,"",%progbits
 174 0000 789C6362 		.ascii	"x\234cb`b`d\200\002\000\000F\000\006"
 174      60626064 
 174      80020000 
 174      460006
 175              		.text
 176              		.section	.gnu.lto_.decls.6dae05882af8b8ba,"",%progbits
 177 0000 789CAD59 		.ascii	"x\234\255Y}lS\327\025\277\367\371#1\270\024Q\201\330"
 177      7D6C53D7 
 177      15BFF7F9 
 177      2331B814 
 177      5181D8
 178 0013 4785BB7E 		.ascii	"G\205\273~\250\252\332\031\022\251\352\366G\325\304"
 178      A8AADA19 
 178      12A9EAF6 
 178      47D5C4
 179 0022 09042D34 		.ascii	"\011\004-4\3263h\355_\326k\354\020kNl\331\316\306\376"
 179      D63368ED 
 179      5FD66BEC 
 179      106B4E6C 
 179      D9CEC6FE 
 180 0036 BB3825DD 		.ascii	"\2738%\335\350\007!0\226B\226\004\232\214\246@\201\215"
 180      E8072130 
ARM GAS  /tmp/ccN6qImD.s 			page 14


 180      96429604 
 180      9A8CA640 
 180      818D
 181 0048 065A68FB 		.ascii	"\006Zh\373\350\012bD\252\267 \232\255\355\300E\320f"
 181      E80A6244 
 181      AAB7209A 
 181      ADEDC045 
 181      D066
 182 005a 1543146D 		.ascii	"\025C\024m\313\032\252x\347\336\367l\337\367\342\027"
 182      CB1AAA78 
 182      E7DEF76C 
 182      DFF7E217 
 183 006a BF17F1A4 		.ascii	"\277\027\361\244s\336\313\3639\277\363\273\037\347\334"
 183      73DECBF3 
 183      39BFF3BB 
 183      1FE7DC
 184 0079 FB6E0424 		.ascii	"\373n\004$\240^\214P\016\256\363\337Eh\277\200\220\035"
 184      A05E8C50 
 184      0EAEF3DF 
 184      4568BF80 
 184      901D
 185 008b 21F4242A 		.ascii	"!\364$*^6\220\275 S n\214f]\3647\027H\005\310\"j\003"
 185      5E3690BD 
 185      2053206E 
 185      8C665DF4 
 185      37174805 
 186 00a3 F203B0FB 		.ascii	"\362\003\260\373\007\334?\0039\0102\0142\244\376~\025"
 186      07DC3F03 
 186      3908320C 
 186      32A4FE7E 
 186      15
 187 00b4 E418C817 		.ascii	"\344\030\310\027 \243 \223 '@\276\0029\005r\035\344"
 187      20A32093 
 187      202740BE 
 187      02390572 
 187      1DE4
 188 00c6 22C80D90 		.ascii	"\"\310\015\220\011\220+ \007@\260\032\013(\242\177\203"
 188      09902B20 
 188      0740B01A 
 188      0B28A27F 
 188      83
 189 00d7 DCD2F1A0 		.ascii	"\334\322\361\240\374\356\002\271\037\027yTp\034\036"
 189      FCEE02B9 
 189      1F177954 
 189      701C1E
 190 00e6 80F7F520 		.ascii	"\200\367\365 \267\341y\032d5V8\355\003q\200Tc%\210\000"
 190      B7E1791A 
 190      64355638 
 190      ED037180 
 190      54632588 
 191 00fb 62077162 		.ascii	"b\007qb%\326\224\032\227\376\274@\327~\332\037\225\272"
 191      25D6941A 
 191      97FEBC40 
 191      D77EDA1F 
 191      95BA
 192 010d B6D3FE7B 		.ascii	"\266\323\376{\223k\367\335\024Km\323\204\332\366Q\265"
 192      936BF7DD 
ARM GAS  /tmp/ccN6qImD.s 			page 15


 192      144B6DD3 
 192      84DAF651 
 192      B5
 193 011e CDF97651 		.ascii	"\315\371vQ\034\352w/\334W\200|\017d\215.\326\012\324"
 193      1CEA772F 
 193      DC57807C 
 193      0F648D2E 
 193      D60AD4
 194 0131 4FE4BF64 		.ascii	"O\344\277d\207/\277\362\0352\230\226s\271\367\237B\313"
 194      872FBFF2 
 194      1D329896 
 194      73B9F79F 
 194      42CB
 195 0143 D06F085C 		.ascii	"\320o\010\\\203]\204\340\224\204\237\\\212\236\301\022"
 195      835D84E0 
 195      94849F5C 
 195      8A9EC112 
 196 0153 5EE4421E 		.ascii	"^\344B\036\366\340v1T\204$\274\017/SG\223\266\011-D"
 196      F6E07631 
 196      548424BC 
 196      0F2F5347 
 196      93B6092D 
 197 0168 5B094953 		.ascii	"[\011IS\307\206s\213\226\240\355\024\305s\016\232\240"
 197      C786738B 
 197      96A0ED14 
 197      C5730E9A 
 197      A0
 198 0179 FA67853C 		.ascii	"\372g\205<\300\243`\375 \032\"\244;{{\357\200\215\220"
 198      C0A360FD 
 198      201A22A4 
 198      3B7B7BEF 
 198      808D90
 199 018c 4A090FE3 		.ascii	"J\011\017\343%\000\263\011\243G\320\0108v\023\262\357"
 199      2500B309 
 199      A347D008 
 199      387613B2 
 199      EF
 200 019d 7E61F6CC 		.ascii	"~a\366\314@e\201)\263\021\000\223\360\353\370\021%\014"
 200      40658129 
 200      B3110093 
 200      F0EBF811 
 200      250C
 201 01af 916F7FE4 		.ascii	"\221o\177\344&v\345=R\177)q\335\207\006\311\363\235"
 201      2676E53D 
 201      527F2971 
 201      DD8706C9 
 201      F39D
 202 01c1 72EEA33E 		.ascii	"r\356\243>\350\216\017\260\013\375\212\220N\265A\250"
 202      E88E0FB0 
 202      0BFD8A90 
 202      4EB541A8 
 203 01d1 6437A8AD 		.ascii	"d7\250\255x{\353\231\3238\015\035\306\\\322s\272H\370"
 203      787BEB99 
 203      D3380D1D 
 203      C65CD273 
 203      BA48F8
 204 01e4 107E1074 		.ascii	"\020~\020t\205\253@\204\376Z\341*>\320\324\271\233\316"
ARM GAS  /tmp/ccN6qImD.s 			page 16


 204      85AB4084 
 204      FE5AE12A 
 204      3ED0D4B9 
 204      9BCE
 205 01f6 943730D6 		.ascii	"\22470\326\2605\001\2572\232\030\373p;\356\004F\022"
 205      B03501AF 
 205      329A18FB 
 205      703BEE04 
 205      4612
 206 0208 3E02AC04 		.ascii	">\002\254\004\364\271\016J\215X\270\314\020\262h.\240"
 206      F4B90E4A 
 206      8D58B8CC 
 206      10B2682E 
 206      A0
 207 0219 EB2C28ED 		.ascii	"\353,(\355\365RT\325G\345R\0154#\221\235\336\333\317"
 207      F55254D5 
 207      47E5520D 
 207      3423919D 
 207      DEDBCF
 208 022c 4642C207 		.ascii	"FB\302\007Y#nY\306\363hF\266'\343\356\226\362`\337\230"
 208      59236E59 
 208      C6F36846 
 208      B627E3EE 
 208      96F260DF 
 209 0241 01AB3424 		.ascii	"\001\2534$'\357\344\3016\013V\301\264\314v\361`/\230"
 209      27EFE4C1 
 209      360B56C1 
 209      B4CC76F1 
 209      602F98
 210 0254 015B6CCC 		.ascii	"\001[l\314\254\227\007{\3212\030\317l\263|<s\036\223"
 210      AC97077B 
 210      D13218CF 
 210      6CB37C3C 
 210      731E93
 211 0267 1EF73DA8 		.ascii	"\036\367=\250\207\220\315d\320i4\361\020b&dN\023\011"
 211      8790CD64 
 211      D06934F1 
 211      10622664 
 211      4E1309
 212 027a CBF81E6D 		.ascii	"\313\370\036mj\356\331\266\210\246&}_&5IZ\376]\246O"
 212      6AEED9B6 
 212      88A6267D 
 212      5F263549 
 212      5AFE5DA6 
 213 028f 9D106FB2 		.ascii	"\235\020o\262\306mc\215\243\276\363\230`\020\374\255"
 213      C66D638D 
 213      A3BEF398 
 213      6010FCAD 
 214 029f CC42B2D5 		.ascii	"\314B\262\325\255\326\224\301\247^\237\203\370\031}"
 214      ADD694C1 
 214      A75E9F83 
 214      F8197D
 215 02ae 4D19C808 		.ascii	"M\031\310\010\036\345uy\336G3}\313\311\340\351|} ]\344"
 215      1EE57579 
 215      DE47337D 
 215      CBC9E0E9 
 215      7C7D205D 
ARM GAS  /tmp/ccN6qImD.s 			page 17


 216 02c3 612ED6E2 		.ascii	"a.\326\342|,Z\360\012%\345\370\243\2540\236c\015\335"
 216      7C2C5AF0 
 216      0A25E5F8 
 216      A3AC309E 
 216      630DDD
 217 02d6 2E94AC04 		.ascii	".\224\254\004&\200&\306\016\375\210\001\2151\240\335"
 217      268026C6 
 217      0EFD8801 
 217      8D31A0DD 
 218 02e6 82BE0ED8 		.ascii	"\202\276\016\330tu\300\246Ml\233\253\370\220\313\331"
 218      7475C0A6 
 218      4D6C9BAB 
 218      F890CBD9 
 219 02f6 90356301 		.ascii	"\2205c\001\015\263\200g\212\363OC\262\334\020\245\263"
 219      0DB38067 
 219      8AF34F43 
 219      B2DC10A5 
 219      B3
 220 0307 D3D7FA59 		.ascii	"\323\327\372Y\327\345{b\3042\336b\335\230\010\350\360"
 220      D7E57B62 
 220      C432DE62 
 220      DD9808E8 
 220      F0
 221 0318 7CA70DD7 		.ascii	"|\247\015\327r\245\321\022\376\000\337\007\372C\320"
 221      72A5D112 
 221      FE00DF07 
 221      FA43D0
 222 0327 5C80A366 		.ascii	"\\\200\243f\222n\271A\243!\203O\360\031<j\031\314\243"
 222      926EB941 
 222      A321834F 
 222      F0193C6A 
 222      19CCA3
 223 033a 017B8707 		.ascii	"\001{\207\007;i\006\314c\314\354\024\017&[\006\3232"
 223      3B6906CC 
 223      63CCEC14 
 223      0F265B06 
 223      D332
 224 034c 7B8F073B 		.ascii	"{\217\007;c\006\354\341\271\006E3>\305=\200\204\337"
 224      6306ECE1 
 224      B9064533 
 224      3EC53D80 
 224      84DF
 225 035e 602BEE01 		.ascii	"`+\356\0016R\307\230\036e\372\004\323\3570}\212\351"
 225      3652C798 
 225      1E65FA04 
 225      D3EF307D 
 225      8AE9
 226 0370 F798BEC0 		.ascii	"\367\230\276\300\364E\246'\230\376;?\276F%b\010/\344"
 226      F445A627 
 226      98FE3B3F 
 226      BE462562 
 226      082FE4
 227 0383 736B8E7D 		.ascii	"sk\216}\021\314l\314\357`p\036\352\373(\237\270\362"
 227      11CC6CCC 
 227      EF60701E 
 227      EAFB289F 
 227      B8F2
ARM GAS  /tmp/ccN6qImD.s 			page 18


 228 0395 ABE3D853 		.ascii	"\253\343\330Sj\267\243\261\225\360%h[Y3j\230\325\027"
 228      6AB7A3B1 
 228      95F02568 
 228      5B59336A 
 228      98D517
 229 03a8 B04F336C 		.ascii	"\260O3lS\2245U\301.\353*\357\237\331he\347\267\264\003"
 229      53943555 
 229      C12EEB2A 
 229      EF9FD968 
 229      65E7B7B4 
 230 03bd DE2D65E8 		.ascii	"\336-e\350\025\260\214e0\217\006\354\277<\330\307f\300"
 230      15B08C65 
 230      308F06EC 
 230      BF3CD8C7 
 230      66C0
 231 03cf 8CD67500 		.ascii	"\214\326u\000\233\346\301.Y\006\3232\233\341\301\256"
 231      9BE6C12E 
 231      5906D332 
 231      9BE1C1AE 
 232 03df 9A01335A 		.ascii	"\232\0013Z\327\001\254g\234\003\233\264\014\246e\266"
 232      D701AC67 
 232      9C039BB4 
 232      0CA665B6 
 233 03ef 8B07FB97 		.ascii	"\213\007\373\227\031\260R\365\212K8%\325>g\251v\205"
 233      19B052F5 
 233      8A4B3825 
 233      D53E67A9 
 233      7685
 234 0401 25CD55A6 		.ascii	"%\315U\246\277`z\222\351\257\230\276\316\364\015m\311"
 234      BF607A92 
 234      E9AF98BE 
 234      CEF40D6D 
 234      C9
 235 0412 BC356B61 		.ascii	"\2745kaR&&\027\2418\203\321|b\030\245\355g\220\266|"
 235      52262617 
 235      A13883D1 
 235      7C6218A5 
 235      ED6790B6 
 236 0427 980DC545 		.ascii	"\230\015\305EN@[lZZ\017\240\327\010\351\311\016\017"
 236      4E405B6C 
 236      5A5A0FA0 
 236      D708E9C9 
 236      0E0F
 237 0439 FC1ED241 		.ascii	"\374\036\322APr^@\2570\253\275x\205\301\226\237Z\251"
 237      50725E40 
 237      AF30ABBD 
 237      7885C196 
 237      9F5AA9
 238 044c AE64CF59 		.ascii	"\256d\317Yw7V\242\012hg\031G\225\333Ch\230&\370I\342"
 238      773756A2 
 238      0A686719 
 238      4795DB43 
 238      689826F8 
 239 0462 5FCE3EC9 		.ascii	"_\316>\311\220\352\244\341\3755\326|0\321\217\273AY"
 239      90EAA4E1 
 239      FD35D67C 
 239      30D18FBB 
ARM GAS  /tmp/ccN6qImD.s 			page 19


 239      4159
 240 0474 FEBA6B0C 		.ascii	"\376\272k\014\366o\344\333\\\256\323n\341\343\356\177"
 240      F66FE4DB 
 240      5CAED36E 
 240      E1E3EE7F 
 241 0484 E53FEE74 		.ascii	"\345?\356tE\214T\3441\342\250\370}\367\317\375\364\373"
 241      458C54E4 
 241      31E2A8F8 
 241      7DF7CFFD 
 241      F4FB
 242 0496 AE4481D2 		.ascii	"\256D\201\322\232K\370\333\322uLkF\015g\364u\354\344"
 242      9A4BF8DB 
 242      D2754C6B 
 242      460D67F4 
 242      75ECE4
 243 04a9 38AB6333 		.ascii	"8\253c3&\352\030\221\377:\336\207\225:v\231}q\356a\003"
 243      26EA1891 
 243      FF3ADE87 
 243      953A7699 
 243      7D71EE61 
 244 04be 30539CF9 		.ascii	"0S\234\371\332\302Y~\013\3717\221\246\221\002\266\317"
 244      DAC2597E 
 244      0BF93791 
 244      A69102B6 
 244      CF
 245 04cf 1498D152 		.ascii	"\024\230\321R\015`79\260\021S`O\0303\353\015\024\301"
 245      0D603739 
 245      B0115360 
 245      4F1833EB 
 245      0D14C1
 246 04e2 8E9802F3 		.ascii	"\216\230\002\363\227`\306M0%\303s,\303\211@\363+\315"
 246      9760C64D 
 246      3025C373 
 246      2CC38940 
 246      F32BCD
 247 04f5 F4F34C77 		.ascii	"\364\363Lw\011\232|>n\323\347\363\214>\237g4\371\\\006"
 247      099A7C3E 
 247      6ED3E7F3 
 247      8C3E9F67 
 247      34F95C06 
 248 0509 D168A24E 		.ascii	"\321h\242N\027\263W\227\272\247K\247\356\226\033\223"
 248      17B35797 
 248      BAA74BA7 
 248      EE961B93 
 249 0519 F657896C 		.ascii	"\366W\211lW\\%\374\037H\033\011O\031\246\340\264&\005"
 249      575C25FC 
 249      1F481B09 
 249      4F19A6E0 
 249      B42605
 250 052c 5F265B16 		.ascii	"_&[\026\343B\016N\351s\360\327B\251\034\2349\357\356"
 250      E3420E4E 
 250      E973F0D7 
 250      42A91C9C 
 250      39EFEE
 251 053f DE9CCDE5 		.ascii	"\336\234\315\345\006<\346\023\360e\3018\001\225\343"
 251      063CE613 
 251      F065C138 
ARM GAS  /tmp/ccN6qImD.s 			page 20


 251      0195E3
 252 054e 92529EF9 		.ascii	"\222R\236\371\264\033>\364\004\333\364o\023h\225\311"
 252      B41B3EF4 
 252      04DBF46F 
 252      136895C9 
 253 055e CC1A8B21 		.ascii	"\314\032\213!M\3153\334\273\230>p\220s;\226\322$\334"
 253      4DCD33DC 
 253      BB983E70 
 253      90733B96 
 253      D224DC
 254 0571 21D0E5E4 		.ascii	"!\320\345\344\223Y\361\3502\243\211g\352\264\3012\213"
 254      9359F1E8 
 254      32A38967 
 254      EAB4C132 
 254      8B
 255 0582 DE655092 		.ascii	"\336eP\222\177\3138|y\2078\350&\325\315\322\223\352"
 255      7FCB387C 
 255      798738E8 
 255      26D5CDD2 
 255      93EA
 256 0594 DAE16FD4 		.ascii	"\332\341o\324I\245\364x\227\235\232\275$\030M*j\245"
 256      49A5F478 
 256      979D9ABD 
 256      24184D2A 
 256      6AA5
 257 05a6 FACADBC7 		.ascii	"\372\312\333\307\016*k\211\322y/\226q\245Vy\327\035"
 257      0E2A6B89 
 257      D2792F96 
 257      71A55679 
 257      D71D
 258 05b8 63EA32A4 		.ascii	"c\3522\244\264\271\273\214+\265*Le9\267\265s\020\023"
 258      B4B9BB8C 
 258      2BB52A4C 
 258      6539B7B5 
 258      731013
 259 05cb 67613253 		.ascii	"ga2S?M\377\354\326N\346\3020\310w\340p\253\334i\241"
 259      3F4DFFEC 
 259      D64EE6C2 
 259      30C877E0 
 259      70ABDC69 
 260 05e0 6CE32B9C 		.ascii	"l\343+\234:\255?\2752\371l\232\035j\015\011\264\252"
 260      3AAD3FBD 
 260      32F96C9A 
 260      1D6A0D09 
 260      B4AA
 261 05f2 9DB56B07 		.ascii	"\235\265k\007\243,\016e\270_\320\037\016^`\353\007}"
 261      A32C0E65 
 261      B85FD01F 
 261      0E5E60EB 
 261      077D
 262 0604 6FE270F0 		.ascii	"o\342p\360\302N\315\221\3248\243@}\347\261\017\006\274"
 262      C24ECD91 
 262      D438A340 
 262      7DE7B10F 
 262      06BC
 263 0616 EE8FB94F 		.ascii	"\356\217\271O\240\213\226\301<\032\260\036\036\354\023"
 263      A08B96C1 
ARM GAS  /tmp/ccN6qImD.s 			page 21


 263      3C1AB01E 
 263      1EEC13
 264 0625 3360739D 		.ascii	"3`s\235o\361`\227,\203i\231\355\342\301\2764\0036\327"
 264      6FF16097 
 264      2C836999 
 264      EDE2C1BE 
 264      340336D7 
 265 0639 F9160F76 		.ascii	"\371\026\017v\3232\230\226\331n\036l\312\014\330\034"
 265      D3329896 
 265      D96E1E6C 
 265      CA0CD81C 
 266 0649 DFED7D3C 		.ascii	"\337\355}<X\3162\230\226Y?\017\366\202\303\004\230\307"
 266      58CE3298 
 266      96593F0F 
 266      F682C304 
 266      98C7
 267 065b 98D9111E 		.ascii	"\230\331\021\036\354%\313`Zf\177\340\301\272\315\200"
 267      EC25CB60 
 267      5A667FE0 
 267      C1BACD80 
 268 066b 95FA6E57 		.ascii	"\225\372nW\301\216\361`\275\226\301\264\314Fy\260~3"
 268      C18EF160 
 268      BD96C1B4 
 268      CC4679B0 
 268      7E33
 269 067d 602B8D99 		.ascii	"`+\215\231\235\340\301\206,\203y\220\341\305W!\320\002"
 269      9DE0C186 
 269      2C837990 
 269      E1C55721 
 269      D002
 270 068f AD99236C 		.ascii	"\255\231#l\317s\200\351CL\037f\372(\323\177d\372-\246"
 270      CF7380E9 
 270      434C1F66 
 270      FA28D37F 
 270      64FA2DA6 
 271 06a3 8F33FD36 		.ascii	"\2173\3756\323'\231~\227\351\367\231>\315\364\237\314"
 271      D327997E 
 271      97E9F799 
 271      3ECDF49F 
 271      CC
 272 06b4 EC9D5E13 		.ascii	"\354\235^\023\012\273\0003\007\023w\340\033L\267\215"
 272      0ABB0033 
 272      071377E0 
 272      1B4CB78D 
 273 06c4 A1FF4232 		.ascii	"\241\377B2\"w\266H\316\203\006\200[\366\332\025W\332"
 273      2277B648 
 273      CE830680 
 273      5BF6DA15 
 273      57DA
 274 06d6 6EB05CFD 		.ascii	"n\260\\\375\330\333\032k\013{\303-a\257\2575\362\\\244"
 274      D8DB1A6B 
 274      0B7BC32D 
 274      61AFAF35 
 274      F25CA4
 275 06e9 29E08D25 		.ascii	")\340\215%\275\255R\324\033\217%RIo`\375\272\352*oc"
 275      BDAD52D4 
 275      1B8F2552 
ARM GAS  /tmp/ccN6qImD.s 			page 22


 275      496F60FD 
 275      BAEA2A6F 
 276 06fe 639D778D 		.ascii	"c\235w\215\177m\323\317\253\274q)\032\214FC?l\236\277"
 276      7F6DD3CF 
 276      ABBC7129 
 276      1A8C4643 
 276      3F6C9EBF 
 277 0712 6B2B7227 		.ascii	"k+r'Sm\325U\301\215\361H,\230r\256yz\203\307\207\356"
 277      536DD555 
 277      C18DF148 
 277      2C9872AE 
 277      797A83C7 
 278 0728 F5762413 		.ascii	"\365v$\023\336H{s\264#\024\366\266\207\177\021\215<"
 278      DE487B73 
 278      B42314F6 
 278      B6877F11 
 278      8D3C
 279 073a E74DA642 		.ascii	"\347M\246B\221\366\024xTv\300\035\\R\217\2252k\223\232"
 279      91F61478 
 279      5476C01D 
 279      5C528F95 
 279      326B939A 
 280 074e 5B23ED61 		.ascii	"[#\355ao0\024n\221:\242\251`\352\227\361p\022\334\026"
 280      6F30146E 
 280      913AA2A9 
 280      60EA97F1 
 280      7012DC16 
 281 0762 04837947 		.ascii	"\004\203yG\307\272\246\272z\321\331\264\376Y\177\275"
 281      C7BAA6BA 
 281      7AD1D9B4 
 281      FE597FBD 
 282 0772 58D114F0 		.ascii	"X\321\024\360\327\327\327\211\016\377\006\177\235h["
 282      D7D7D789 
 282      0EFF067F 
 282      9D685B
 283 0781 0BD25427 		.ascii	"\013\322T'\342\237\2620\253\036\017\246TG\372hK\206"
 283      E29FB230 
 283      AB1E0FA6 
 283      5447FA68 
 283      4B86
 284 0793 538EE668 		.ascii	"S\216\346hXJ\340\006{m@\024\355\215\276\237\210\366"
 284      584AE006 
 284      7B6D4014 
 284      ED8DBE9F 
 284      88F6
 285 07a5 9AD56223 		.ascii	"\232\325b#U\015\266ZQt\264\305B\341\2043F\343&*b\311"
 285      550DB65A 
 285      5174B4C5 
 285      42E18433 
 285      46E3262A 
 286 07bb 78381C4A 		.ascii	"x8\034J8\342\035\361P\302\026\013%\354RK\"JU\353\022"
 286      38E21DF1 
 286      50C2160B 
 286      25EC524B 
 286      224A55EB 
 287 07d0 AEE580DB 		.ascii	"\256\345\200\333\021\017\246*#\355\221\024}\341\240"
 287      110FA62A 
ARM GAS  /tmp/ccN6qImD.s 			page 23


 287      23ED9114 
 287      7DE1A0
 288 07df 2AEE6C8E 		.ascii	"*\356l\216\265\267D6:\3755uRJr\372k\225\233O\271\255"
 288      B5B74436 
 288      3AFD3575 
 288      524A72FA 
 288      6B959B4F 
 289 07f5 A63797BF 		.ascii	"\2467\227\277\246\321\307\254\356\012\252\235\032\244"
 289      A6D1C7AC 
 289      EE0AAA9D 
 289      1AA4
 290 0803 200BC01D 		.ascii	" \013\300\035\272>\022\012\246\334\312c\233\224\374"
 290      BA3E120A 
 290      A6DCCA63 
 290      9B94FC
 291 0812 198D10A3 		.ascii	"\031\215\020\243\374\202\251\245\005s\210\2751\021\353"
 291      FC82A9A5 
 291      057388BD 
 291      3111EB
 292 0821 88D3F776 		.ascii	"\210\323\367vji\247\246v\372\347\312\222\343\032\336"
 292      6A69A7A6 
 292      76FAE7CA 
 292      92E31ADE 
 293 0831 94F2FAD6 		.ascii	"\224\362\372\326\005\326\006`\\\275\254\021-+\253Wn"
 293      05D60660 
 293      5CBDAC11 
 293      2D2BAB57 
 293      6E
 294 0842 7A1C3A79 		.ascii	"z\034:y\241\350\363\005\327C\313\353\302-\202O\264\373"
 294      A1E8F305 
 294      D743CBEB 
 294      C22D824F 
 294      B4FB
 295 0854 56AF116D 		.ascii	"V\257\021m\276\265be\215\277\266J\014\254g\017\253\350"
 295      BEB56265 
 295      8DBFB64A 
 295      0CAC670F 
 295      ABE8
 296 0866 83B3A6A1 		.ascii	"\203\263\246\241\266\376i\261\202\376\240\336W\301\335"
 296      B6FE69B1 
 296      82FEA0DE 
 296      57C1DD
 297 0875 5E5BE703 		.ascii	"^[\347\003\217\000\274h\250\245v\016\012Q\305t\265\315"
 297      8F00BC68 
 297      A8A5760E 
 297      0A51C574 
 297      B5CD
 298 0887 2756FD1F 		.ascii	"'V\375\037\256!\260\254"
 298      AE21B0AC 
 299              		.text
 300              		.section	.gnu.lto_.symtab.6dae05882af8b8ba,"",%progbits
 301 0000 5F70616C 		.ascii	"_pal_lld_init\000\000\000\000\000\000\000\000\000\000"
 301      5F6C6C64 
 301      5F696E69 
 301      74000000 
 301      00000000 
 302 0017 0000F700 		.ascii	"\000\000\367\000\000\000_pal_lld_setgroupmode\000\000"
ARM GAS  /tmp/ccN6qImD.s 			page 24


 302      00005F70 
 302      616C5F6C 
 302      6C645F73 
 302      65746772 
 303 0034 00000000 		.ascii	"\000\000\000\000\000\000\000\000\000\000\014\001\000"
 303      00000000 
 303      00000C01 
 303      00
 304 0041 00       		.ascii	"\000"
 305              		.text
 306              		.section	.gnu.lto_.opts,"",%progbits
 307 0000 272D6D63 		.ascii	"'-mcpu=cortex-m0' '-mno-thumb-interwork' '-mthumb' "
 307      70753D63 
 307      6F727465 
 307      782D6D30 
 307      2720272D 
 308 0033 272D6767 		.ascii	"'-ggdb' '-O0' '-fomit-frame-pointer' '-falign-funct"
 308      64622720 
 308      272D4F30 
 308      2720272D 
 308      666F6D69 
 309 0066 696F6E73 		.ascii	"ions=16' '-ffunction-sections' '-fdata-sections' '-"
 309      3D313627 
 309      20272D66 
 309      66756E63 
 309      74696F6E 
 310 0099 666E6F2D 		.ascii	"fno-common' '-flto'\000"
 310      636F6D6D 
 310      6F6E2720 
 310      272D666C 
 310      746F2700 
 311              		.text
 312              		.cfi_sections	.debug_frame
 313              		.section	.text.initgpio,"ax",%progbits
 314              		.align	2
 315              		.p2align 4,,15
 316              		.code	16
 317              		.thumb_func
 318              		.type	initgpio, %function
 319              	initgpio:
 320              	.LFB149:
 321              		.file 1 "/home/efe/ChibiOS/os/hal/ports/STM32/LLD/GPIOv2/pal_lld.c"
 322              		.loc 1 61 0
 323              		.cfi_startproc
 324 0000 82B0     		sub	sp, sp, #8
 325              		.cfi_def_cfa_offset 8
 326 0002 0190     		str	r0, [sp, #4]
 327 0004 0091     		str	r1, [sp]
 328              		.loc 1 63 0
 329 0006 009B     		ldr	r3, [sp]
 330 0008 5A68     		ldr	r2, [r3, #4]
 331 000a 019B     		ldr	r3, [sp, #4]
 332 000c 5A60     		str	r2, [r3, #4]
 333              		.loc 1 64 0
 334 000e 009B     		ldr	r3, [sp]
 335 0010 9A68     		ldr	r2, [r3, #8]
 336 0012 019B     		ldr	r3, [sp, #4]
ARM GAS  /tmp/ccN6qImD.s 			page 25


 337 0014 9A60     		str	r2, [r3, #8]
 338              		.loc 1 65 0
 339 0016 009B     		ldr	r3, [sp]
 340 0018 DA68     		ldr	r2, [r3, #12]
 341 001a 019B     		ldr	r3, [sp, #4]
 342 001c DA60     		str	r2, [r3, #12]
 343              		.loc 1 66 0
 344 001e 009B     		ldr	r3, [sp]
 345 0020 1A69     		ldr	r2, [r3, #16]
 346 0022 019B     		ldr	r3, [sp, #4]
 347 0024 5A61     		str	r2, [r3, #20]
 348              		.loc 1 67 0
 349 0026 009B     		ldr	r3, [sp]
 350 0028 5A69     		ldr	r2, [r3, #20]
 351 002a 019B     		ldr	r3, [sp, #4]
 352 002c 1A62     		str	r2, [r3, #32]
 353              		.loc 1 68 0
 354 002e 009B     		ldr	r3, [sp]
 355 0030 9A69     		ldr	r2, [r3, #24]
 356 0032 019B     		ldr	r3, [sp, #4]
 357 0034 5A62     		str	r2, [r3, #36]
 358              		.loc 1 69 0
 359 0036 009B     		ldr	r3, [sp]
 360 0038 1A68     		ldr	r2, [r3]
 361 003a 019B     		ldr	r3, [sp, #4]
 362 003c 1A60     		str	r2, [r3]
 363              		.loc 1 70 0
 364 003e 02B0     		add	sp, sp, #8
 365              		@ sp needed
 366 0040 7047     		bx	lr
 367              		.cfi_endproc
 368              	.LFE149:
 369              		.size	initgpio, .-initgpio
 370 0042 C046C046 		.section	.text._pal_lld_init,"ax",%progbits
 370      C046C046 
 370      C046C046 
 370      C046
 371              		.align	2
 372              		.p2align 4,,15
 373              		.global	_pal_lld_init
 374              		.code	16
 375              		.thumb_func
 376              		.type	_pal_lld_init, %function
 377              	_pal_lld_init:
 378              	.LFB150:
 379              		.loc 1 88 0
 380              		.cfi_startproc
 381 0000 00B5     		push	{lr}
 382              		.cfi_def_cfa_offset 4
 383              		.cfi_offset 14, -4
 384 0002 83B0     		sub	sp, sp, #12
 385              		.cfi_def_cfa_offset 16
 386 0004 0190     		str	r0, [sp, #4]
 387              		.loc 1 100 0
 388 0006 124B     		ldr	r3, .L3
 389 0008 114A     		ldr	r2, .L3
 390 000a 5269     		ldr	r2, [r2, #20]
ARM GAS  /tmp/ccN6qImD.s 			page 26


 391 000c 9C21     		mov	r1, #156
 392 000e C903     		lsl	r1, r1, #15
 393 0010 0A43     		orr	r2, r1
 394 0012 5A61     		str	r2, [r3, #20]
 395              		.loc 1 112 0
 396 0014 019B     		ldr	r3, [sp, #4]
 397 0016 9022     		mov	r2, #144
 398 0018 D205     		lsl	r2, r2, #23
 399 001a 101C     		mov	r0, r2
 400 001c 191C     		mov	r1, r3
 401 001e FFF7FEFF 		bl	initgpio
 402              		.loc 1 115 0
 403 0022 019B     		ldr	r3, [sp, #4]
 404 0024 1C33     		add	r3, r3, #28
 405 0026 0B4A     		ldr	r2, .L3+4
 406 0028 101C     		mov	r0, r2
 407 002a 191C     		mov	r1, r3
 408 002c FFF7FEFF 		bl	initgpio
 409              		.loc 1 118 0
 410 0030 019B     		ldr	r3, [sp, #4]
 411 0032 3833     		add	r3, r3, #56
 412 0034 084A     		ldr	r2, .L3+8
 413 0036 101C     		mov	r0, r2
 414 0038 191C     		mov	r1, r3
 415 003a FFF7FEFF 		bl	initgpio
 416              		.loc 1 127 0
 417 003e 019B     		ldr	r3, [sp, #4]
 418 0040 5433     		add	r3, r3, #84
 419 0042 064A     		ldr	r2, .L3+12
 420 0044 101C     		mov	r0, r2
 421 0046 191C     		mov	r1, r3
 422 0048 FFF7FEFF 		bl	initgpio
 423              		.loc 1 144 0
 424 004c 03B0     		add	sp, sp, #12
 425              		@ sp needed
 426 004e 00BD     		pop	{pc}
 427              	.L4:
 428              		.align	2
 429              	.L3:
 430 0050 00100240 		.word	1073876992
 431 0054 00040048 		.word	1207960576
 432 0058 00080048 		.word	1207961600
 433 005c 00140048 		.word	1207964672
 434              		.cfi_endproc
 435              	.LFE150:
 436              		.size	_pal_lld_init, .-_pal_lld_init
 437              		.section	.text._pal_lld_setgroupmode,"ax",%progbits
 438              		.align	2
 439              		.p2align 4,,15
 440              		.global	_pal_lld_setgroupmode
 441              		.code	16
 442              		.thumb_func
 443              		.type	_pal_lld_setgroupmode, %function
 444              	_pal_lld_setgroupmode:
 445              	.LFB151:
 446              		.loc 1 161 0
 447              		.cfi_startproc
ARM GAS  /tmp/ccN6qImD.s 			page 27


 448 0000 8EB0     		sub	sp, sp, #56
 449              		.cfi_def_cfa_offset 56
 450 0002 0390     		str	r0, [sp, #12]
 451 0004 0291     		str	r1, [sp, #8]
 452 0006 0192     		str	r2, [sp, #4]
 453              		.loc 1 163 0
 454 0008 019A     		ldr	r2, [sp, #4]
 455 000a 0323     		mov	r3, #3
 456 000c 1340     		and	r3, r2
 457 000e 0D93     		str	r3, [sp, #52]
 458              		.loc 1 164 0
 459 0010 019A     		ldr	r2, [sp, #4]
 460 0012 0423     		mov	r3, #4
 461 0014 1340     		and	r3, r2
 462 0016 9B08     		lsr	r3, r3, #2
 463 0018 0C93     		str	r3, [sp, #48]
 464              		.loc 1 165 0
 465 001a 019A     		ldr	r2, [sp, #4]
 466 001c 1823     		mov	r3, #24
 467 001e 1340     		and	r3, r2
 468 0020 DB08     		lsr	r3, r3, #3
 469 0022 0B93     		str	r3, [sp, #44]
 470              		.loc 1 166 0
 471 0024 019A     		ldr	r2, [sp, #4]
 472 0026 6023     		mov	r3, #96
 473 0028 1340     		and	r3, r2
 474 002a 5B09     		lsr	r3, r3, #5
 475 002c 0A93     		str	r3, [sp, #40]
 476              		.loc 1 167 0
 477 002e 019A     		ldr	r2, [sp, #4]
 478 0030 F023     		mov	r3, #240
 479 0032 DB00     		lsl	r3, r3, #3
 480 0034 1340     		and	r3, r2
 481 0036 DB09     		lsr	r3, r3, #7
 482 0038 0893     		str	r3, [sp, #32]
 483              		.loc 1 168 0
 484 003a 0023     		mov	r3, #0
 485 003c 0993     		str	r3, [sp, #36]
 486              	.L11:
 487              		.loc 1 170 0
 488 003e 029A     		ldr	r2, [sp, #8]
 489 0040 0123     		mov	r3, #1
 490 0042 1340     		and	r3, r2
 491 0044 58D0     		beq	.L6
 492              	.LBB2:
 493              		.loc 1 173 0
 494 0046 099A     		ldr	r2, [sp, #36]
 495 0048 0723     		mov	r3, #7
 496 004a 1340     		and	r3, r2
 497 004c 9B00     		lsl	r3, r3, #2
 498 004e 089A     		ldr	r2, [sp, #32]
 499 0050 111C     		mov	r1, r2
 500 0052 9940     		lsl	r1, r1, r3
 501 0054 0B1C     		mov	r3, r1
 502 0056 0793     		str	r3, [sp, #28]
 503              		.loc 1 174 0
 504 0058 099A     		ldr	r2, [sp, #36]
ARM GAS  /tmp/ccN6qImD.s 			page 28


 505 005a 0723     		mov	r3, #7
 506 005c 1340     		and	r3, r2
 507 005e 9B00     		lsl	r3, r3, #2
 508 0060 0F22     		mov	r2, #15
 509 0062 111C     		mov	r1, r2
 510 0064 9940     		lsl	r1, r1, r3
 511 0066 0B1C     		mov	r3, r1
 512 0068 0693     		str	r3, [sp, #24]
 513              		.loc 1 175 0
 514 006a 099B     		ldr	r3, [sp, #36]
 515 006c 072B     		cmp	r3, #7
 516 006e 09D8     		bhi	.L7
 517              		.loc 1 176 0
 518 0070 039B     		ldr	r3, [sp, #12]
 519 0072 1B6A     		ldr	r3, [r3, #32]
 520 0074 069A     		ldr	r2, [sp, #24]
 521 0076 D243     		mvn	r2, r2
 522 0078 1A40     		and	r2, r3
 523 007a 079B     		ldr	r3, [sp, #28]
 524 007c 1A43     		orr	r2, r3
 525 007e 039B     		ldr	r3, [sp, #12]
 526 0080 1A62     		str	r2, [r3, #32]
 527 0082 08E0     		b	.L8
 528              	.L7:
 529              		.loc 1 178 0
 530 0084 039B     		ldr	r3, [sp, #12]
 531 0086 5B6A     		ldr	r3, [r3, #36]
 532 0088 069A     		ldr	r2, [sp, #24]
 533 008a D243     		mvn	r2, r2
 534 008c 1A40     		and	r2, r3
 535 008e 079B     		ldr	r3, [sp, #28]
 536 0090 1A43     		orr	r2, r3
 537 0092 039B     		ldr	r3, [sp, #12]
 538 0094 5A62     		str	r2, [r3, #36]
 539              	.L8:
 540              		.loc 1 179 0
 541 0096 099B     		ldr	r3, [sp, #36]
 542 0098 0122     		mov	r2, #1
 543 009a 111C     		mov	r1, r2
 544 009c 9940     		lsl	r1, r1, r3
 545 009e 0B1C     		mov	r3, r1
 546 00a0 0593     		str	r3, [sp, #20]
 547              		.loc 1 180 0
 548 00a2 039B     		ldr	r3, [sp, #12]
 549 00a4 5B68     		ldr	r3, [r3, #4]
 550 00a6 059A     		ldr	r2, [sp, #20]
 551 00a8 D243     		mvn	r2, r2
 552 00aa 1A40     		and	r2, r3
 553 00ac 0C9B     		ldr	r3, [sp, #48]
 554 00ae 1A43     		orr	r2, r3
 555 00b0 039B     		ldr	r3, [sp, #12]
 556 00b2 5A60     		str	r2, [r3, #4]
 557              		.loc 1 181 0
 558 00b4 099B     		ldr	r3, [sp, #36]
 559 00b6 5B00     		lsl	r3, r3, #1
 560 00b8 0322     		mov	r2, #3
 561 00ba 111C     		mov	r1, r2
ARM GAS  /tmp/ccN6qImD.s 			page 29


 562 00bc 9940     		lsl	r1, r1, r3
 563 00be 0B1C     		mov	r3, r1
 564 00c0 0493     		str	r3, [sp, #16]
 565              		.loc 1 182 0
 566 00c2 039B     		ldr	r3, [sp, #12]
 567 00c4 9B68     		ldr	r3, [r3, #8]
 568 00c6 049A     		ldr	r2, [sp, #16]
 569 00c8 D243     		mvn	r2, r2
 570 00ca 1A40     		and	r2, r3
 571 00cc 0B9B     		ldr	r3, [sp, #44]
 572 00ce 1A43     		orr	r2, r3
 573 00d0 039B     		ldr	r3, [sp, #12]
 574 00d2 9A60     		str	r2, [r3, #8]
 575              		.loc 1 183 0
 576 00d4 039B     		ldr	r3, [sp, #12]
 577 00d6 DB68     		ldr	r3, [r3, #12]
 578 00d8 049A     		ldr	r2, [sp, #16]
 579 00da D243     		mvn	r2, r2
 580 00dc 1A40     		and	r2, r3
 581 00de 0A9B     		ldr	r3, [sp, #40]
 582 00e0 1A43     		orr	r2, r3
 583 00e2 039B     		ldr	r3, [sp, #12]
 584 00e4 DA60     		str	r2, [r3, #12]
 585              		.loc 1 184 0
 586 00e6 039B     		ldr	r3, [sp, #12]
 587 00e8 1B68     		ldr	r3, [r3]
 588 00ea 049A     		ldr	r2, [sp, #16]
 589 00ec D243     		mvn	r2, r2
 590 00ee 1A40     		and	r2, r3
 591 00f0 0D9B     		ldr	r3, [sp, #52]
 592 00f2 1A43     		orr	r2, r3
 593 00f4 039B     		ldr	r3, [sp, #12]
 594 00f6 1A60     		str	r2, [r3]
 595              	.L6:
 596              	.LBE2:
 597              		.loc 1 186 0
 598 00f8 029B     		ldr	r3, [sp, #8]
 599 00fa 5B08     		lsr	r3, r3, #1
 600 00fc 0293     		str	r3, [sp, #8]
 601              		.loc 1 187 0
 602 00fe 029B     		ldr	r3, [sp, #8]
 603 0100 002B     		cmp	r3, #0
 604 0102 00D1     		bne	.L9
 605              		.loc 1 188 0
 606 0104 0FE0     		b	.L12
 607              	.L9:
 608              		.loc 1 189 0
 609 0106 0C9B     		ldr	r3, [sp, #48]
 610 0108 5B00     		lsl	r3, r3, #1
 611 010a 0C93     		str	r3, [sp, #48]
 612              		.loc 1 190 0
 613 010c 0B9B     		ldr	r3, [sp, #44]
 614 010e 9B00     		lsl	r3, r3, #2
 615 0110 0B93     		str	r3, [sp, #44]
 616              		.loc 1 191 0
 617 0112 0A9B     		ldr	r3, [sp, #40]
 618 0114 9B00     		lsl	r3, r3, #2
ARM GAS  /tmp/ccN6qImD.s 			page 30


 619 0116 0A93     		str	r3, [sp, #40]
 620              		.loc 1 192 0
 621 0118 0D9B     		ldr	r3, [sp, #52]
 622 011a 9B00     		lsl	r3, r3, #2
 623 011c 0D93     		str	r3, [sp, #52]
 624              		.loc 1 193 0
 625 011e 099B     		ldr	r3, [sp, #36]
 626 0120 0133     		add	r3, r3, #1
 627 0122 0993     		str	r3, [sp, #36]
 628              		.loc 1 194 0
 629 0124 8BE7     		b	.L11
 630              	.L12:
 631              		.loc 1 195 0
 632 0126 0EB0     		add	sp, sp, #56
 633              		@ sp needed
 634 0128 7047     		bx	lr
 635              		.cfi_endproc
 636              	.LFE151:
 637              		.size	_pal_lld_setgroupmode, .-_pal_lld_setgroupmode
 638 012a C046C046 		.text
 638      C046
 639              	.Letext0:
 640              		.file 2 "/usr/include/newlib/machine/_default_types.h"
 641              		.file 3 "/usr/include/newlib/stdint.h"
 642              		.file 4 "/home/efe/ChibiOS/os/rt/ports/ARMCMx/compilers/GCC/chtypes.h"
 643              		.file 5 "/home/efe/ChibiOS/os/rt/include/chsystypes.h"
 644              		.file 6 "/home/efe/ChibiOS/os/rt/include/chschd.h"
 645              		.file 7 "/home/efe/ChibiOS/os/ext/CMSIS/ST/stm32f030x6.h"
 646              		.file 8 "/home/efe/ChibiOS/os/rt/ports/ARMCMx/chcore.h"
 647              		.file 9 "/home/efe/ChibiOS/os/rt/ports/ARMCMx/chcore_v6m.h"
 648              		.file 10 "/home/efe/ChibiOS/os/rt/include/chsem.h"
 649              		.file 11 "/home/efe/ChibiOS/os/rt/include/chmtx.h"
 650              		.file 12 "/home/efe/ChibiOS/os/hal/ports/STM32/LLD/GPIOv2/pal_lld.h"