ARM GAS  /tmp/ccSKVCga.s 			page 1


   1              		.syntax unified
   2              		.cpu cortex-m4
   3              		.fpu softvfp
   4              		.eabi_attribute 20, 1
   5              		.eabi_attribute 21, 1
   6              		.eabi_attribute 23, 3
   7              		.eabi_attribute 24, 1
   8              		.eabi_attribute 25, 1
   9              		.eabi_attribute 26, 1
  10              		.eabi_attribute 30, 6
  11              		.eabi_attribute 34, 1
  12              		.eabi_attribute 18, 4
  13              		.thumb
  14              		.file	"serial.c"
  15              		.text
  16              	.Ltext0:
  17              		.cfi_sections	.debug_frame
  18              		.section	.text.port_lock,"ax",%progbits
  19              		.align	2
  20              		.p2align 4,,15
  21              		.thumb
  22              		.thumb_func
  23              		.type	port_lock, %function
  24              	port_lock:
  25              	.LFB127:
  26              		.file 1 "/home/efe/ChibiOS/os/rt/ports/ARMCMx/chcore_v7m.h"
  27              		.loc 1 456 0
  28              		.cfi_startproc
  29              		@ args = 0, pretend = 0, frame = 8
  30              		@ frame_needed = 0, uses_anonymous_args = 0
  31              		@ link register save eliminated.
  32 0000 82B0     		sub	sp, sp, #8
  33              		.cfi_def_cfa_offset 8
  34 0002 2023     		movs	r3, #32
  35 0004 0193     		str	r3, [sp, #4]
  36              	.LBB6:
  37              	.LBB7:
  38              		.file 2 "/home/efe/ChibiOS/os/ext/CMSIS/include/core_cmFunc.h"
  39              		.loc 2 548 0
  40 0006 019B     		ldr	r3, [sp, #4]
  41              	@ 548 "/home/efe/ChibiOS/os/ext/CMSIS/include/core_cmFunc.h" 1
  42 0008 83F31188 		MSR basepri, r3
  43              	@ 0 "" 2
  44              		.thumb
  45              	.LBE7:
  46              	.LBE6:
  47              		.loc 1 463 0
  48 000c 02B0     		add	sp, sp, #8
  49              		@ sp needed
  50 000e 7047     		bx	lr
  51              		.cfi_endproc
  52              	.LFE127:
  53              		.size	port_lock, .-port_lock
  54              		.section	.text.port_unlock,"ax",%progbits
  55              		.align	2
  56              		.p2align 4,,15
  57              		.thumb
ARM GAS  /tmp/ccSKVCga.s 			page 2


  58              		.thumb_func
  59              		.type	port_unlock, %function
  60              	port_unlock:
  61              	.LFB128:
  62              		.loc 1 470 0
  63              		.cfi_startproc
  64              		@ args = 0, pretend = 0, frame = 8
  65              		@ frame_needed = 0, uses_anonymous_args = 0
  66              		@ link register save eliminated.
  67 0000 82B0     		sub	sp, sp, #8
  68              		.cfi_def_cfa_offset 8
  69 0002 0023     		movs	r3, #0
  70 0004 0193     		str	r3, [sp, #4]
  71              	.LBB8:
  72              	.LBB9:
  73              		.loc 2 548 0
  74 0006 019B     		ldr	r3, [sp, #4]
  75              	@ 548 "/home/efe/ChibiOS/os/ext/CMSIS/include/core_cmFunc.h" 1
  76 0008 83F31188 		MSR basepri, r3
  77              	@ 0 "" 2
  78              		.thumb
  79              	.LBE9:
  80              	.LBE8:
  81              		.loc 1 477 0
  82 000c 02B0     		add	sp, sp, #8
  83              		@ sp needed
  84 000e 7047     		bx	lr
  85              		.cfi_endproc
  86              	.LFE128:
  87              		.size	port_unlock, .-port_unlock
  88              		.section	.text.chSysLock,"ax",%progbits
  89              		.align	2
  90              		.p2align 4,,15
  91              		.thumb
  92              		.thumb_func
  93              		.type	chSysLock, %function
  94              	chSysLock:
  95              	.LFB167:
  96              		.file 3 "/home/efe/ChibiOS/os/rt/include/chsys.h"
  97              		.loc 3 346 0
  98              		.cfi_startproc
  99              		@ args = 0, pretend = 0, frame = 0
 100              		@ frame_needed = 0, uses_anonymous_args = 0
 101 0000 08B5     		push	{r3, lr}
 102              		.cfi_def_cfa_offset 8
 103              		.cfi_offset 3, -8
 104              		.cfi_offset 14, -4
 105              		.loc 3 348 0
 106 0002 FFF7FEFF 		bl	port_lock
 107              		.loc 3 351 0
 108 0006 08BD     		pop	{r3, pc}
 109              		.cfi_endproc
 110              	.LFE167:
 111              		.size	chSysLock, .-chSysLock
 112 0008 AFF30080 		.section	.text.chSysUnlock,"ax",%progbits
 112      AFF30080 
 113              		.align	2
ARM GAS  /tmp/ccSKVCga.s 			page 3


 114              		.p2align 4,,15
 115              		.thumb
 116              		.thumb_func
 117              		.type	chSysUnlock, %function
 118              	chSysUnlock:
 119              	.LFB168:
 120              		.loc 3 358 0
 121              		.cfi_startproc
 122              		@ args = 0, pretend = 0, frame = 0
 123              		@ frame_needed = 0, uses_anonymous_args = 0
 124 0000 08B5     		push	{r3, lr}
 125              		.cfi_def_cfa_offset 8
 126              		.cfi_offset 3, -8
 127              		.cfi_offset 14, -4
 128              		.loc 3 371 0
 129 0002 FFF7FEFF 		bl	port_unlock
 130              		.loc 3 372 0
 131 0006 08BD     		pop	{r3, pc}
 132              		.cfi_endproc
 133              	.LFE168:
 134              		.size	chSysUnlock, .-chSysUnlock
 135 0008 AFF30080 		.section	.text.chEvtObjectInit,"ax",%progbits
 135      AFF30080 
 136              		.align	2
 137              		.p2align 4,,15
 138              		.thumb
 139              		.thumb_func
 140              		.type	chEvtObjectInit, %function
 141              	chEvtObjectInit:
 142              	.LFB215:
 143              		.file 4 "/home/efe/ChibiOS/os/rt/include/chevents.h"
 144              		.loc 4 170 0
 145              		.cfi_startproc
 146              		@ args = 0, pretend = 0, frame = 8
 147              		@ frame_needed = 0, uses_anonymous_args = 0
 148              		@ link register save eliminated.
 149 0000 82B0     		sub	sp, sp, #8
 150              		.cfi_def_cfa_offset 8
 151 0002 0190     		str	r0, [sp, #4]
 152              		.loc 4 172 0
 153 0004 019B     		ldr	r3, [sp, #4]
 154 0006 019A     		ldr	r2, [sp, #4]
 155 0008 1A60     		str	r2, [r3]
 156              		.loc 4 173 0
 157 000a 02B0     		add	sp, sp, #8
 158              		@ sp needed
 159 000c 7047     		bx	lr
 160              		.cfi_endproc
 161              	.LFE215:
 162              		.size	chEvtObjectInit, .-chEvtObjectInit
 163 000e 00BF     		.section	.text.chIQIsEmptyI,"ax",%progbits
 164              		.align	2
 165              		.p2align 4,,15
 166              		.thumb
 167              		.thumb_func
 168              		.type	chIQIsEmptyI, %function
 169              	chIQIsEmptyI:
ARM GAS  /tmp/ccSKVCga.s 			page 4


 170              	.LFB232:
 171              		.file 5 "/home/efe/ChibiOS/os/rt/include/chqueues.h"
 172              		.loc 5 303 0
 173              		.cfi_startproc
 174              		@ args = 0, pretend = 0, frame = 8
 175              		@ frame_needed = 0, uses_anonymous_args = 0
 176              		@ link register save eliminated.
 177 0000 82B0     		sub	sp, sp, #8
 178              		.cfi_def_cfa_offset 8
 179 0002 0190     		str	r0, [sp, #4]
 180              		.loc 5 307 0
 181 0004 019B     		ldr	r3, [sp, #4]
 182 0006 9B68     		ldr	r3, [r3, #8]
 183 0008 002B     		cmp	r3, #0
 184 000a 14BF     		ite	ne
 185 000c 0023     		movne	r3, #0
 186 000e 0123     		moveq	r3, #1
 187 0010 DBB2     		uxtb	r3, r3
 188              		.loc 5 308 0
 189 0012 1846     		mov	r0, r3
 190 0014 02B0     		add	sp, sp, #8
 191              		@ sp needed
 192 0016 7047     		bx	lr
 193              		.cfi_endproc
 194              	.LFE232:
 195              		.size	chIQIsEmptyI, .-chIQIsEmptyI
 196 0018 AFF30080 		.section	.text.osalSysLock,"ax",%progbits
 196      AFF30080 
 197              		.align	2
 198              		.p2align 4,,15
 199              		.thumb
 200              		.thumb_func
 201              		.type	osalSysLock, %function
 202              	osalSysLock:
 203              	.LFB244:
 204              		.file 6 "/home/efe/ChibiOS/os/hal/osal/rt/osal.h"
 205              		.loc 6 491 0
 206              		.cfi_startproc
 207              		@ args = 0, pretend = 0, frame = 0
 208              		@ frame_needed = 0, uses_anonymous_args = 0
 209 0000 08B5     		push	{r3, lr}
 210              		.cfi_def_cfa_offset 8
 211              		.cfi_offset 3, -8
 212              		.cfi_offset 14, -4
 213              		.loc 6 493 0
 214 0002 FFF7FEFF 		bl	chSysLock
 215              		.loc 6 494 0
 216 0006 08BD     		pop	{r3, pc}
 217              		.cfi_endproc
 218              	.LFE244:
 219              		.size	osalSysLock, .-osalSysLock
 220 0008 AFF30080 		.section	.text.osalSysUnlock,"ax",%progbits
 220      AFF30080 
 221              		.align	2
 222              		.p2align 4,,15
 223              		.thumb
 224              		.thumb_func
ARM GAS  /tmp/ccSKVCga.s 			page 5


 225              		.type	osalSysUnlock, %function
 226              	osalSysUnlock:
 227              	.LFB245:
 228              		.loc 6 502 0
 229              		.cfi_startproc
 230              		@ args = 0, pretend = 0, frame = 0
 231              		@ frame_needed = 0, uses_anonymous_args = 0
 232 0000 08B5     		push	{r3, lr}
 233              		.cfi_def_cfa_offset 8
 234              		.cfi_offset 3, -8
 235              		.cfi_offset 14, -4
 236              		.loc 6 504 0
 237 0002 FFF7FEFF 		bl	chSysUnlock
 238              		.loc 6 505 0
 239 0006 08BD     		pop	{r3, pc}
 240              		.cfi_endproc
 241              	.LFE245:
 242              		.size	osalSysUnlock, .-osalSysUnlock
 243 0008 AFF30080 		.section	.text.osalOsRescheduleS,"ax",%progbits
 243      AFF30080 
 244              		.align	2
 245              		.p2align 4,,15
 246              		.thumb
 247              		.thumb_func
 248              		.type	osalOsRescheduleS, %function
 249              	osalOsRescheduleS:
 250              	.LFB252:
 251              		.loc 6 598 0
 252              		.cfi_startproc
 253              		@ args = 0, pretend = 0, frame = 0
 254              		@ frame_needed = 0, uses_anonymous_args = 0
 255 0000 08B5     		push	{r3, lr}
 256              		.cfi_def_cfa_offset 8
 257              		.cfi_offset 3, -8
 258              		.cfi_offset 14, -4
 259              		.loc 6 600 0
 260 0002 FFF7FEFF 		bl	chSchRescheduleS
 261              		.loc 6 601 0
 262 0006 08BD     		pop	{r3, pc}
 263              		.cfi_endproc
 264              	.LFE252:
 265              		.size	osalOsRescheduleS, .-osalOsRescheduleS
 266 0008 AFF30080 		.section	.text.osalEventObjectInit,"ax",%progbits
 266      AFF30080 
 267              		.align	2
 268              		.p2align 4,,15
 269              		.thumb
 270              		.thumb_func
 271              		.type	osalEventObjectInit, %function
 272              	osalEventObjectInit:
 273              	.LFB265:
 274              		.loc 6 821 0
 275              		.cfi_startproc
 276              		@ args = 0, pretend = 0, frame = 8
 277              		@ frame_needed = 0, uses_anonymous_args = 0
 278 0000 00B5     		push	{lr}
 279              		.cfi_def_cfa_offset 4
ARM GAS  /tmp/ccSKVCga.s 			page 6


 280              		.cfi_offset 14, -4
 281 0002 83B0     		sub	sp, sp, #12
 282              		.cfi_def_cfa_offset 16
 283 0004 0190     		str	r0, [sp, #4]
 284              		.loc 6 823 0
 285 0006 0198     		ldr	r0, [sp, #4]
 286 0008 FFF7FEFF 		bl	chEvtObjectInit
 287              		.loc 6 824 0
 288 000c 03B0     		add	sp, sp, #12
 289              		@ sp needed
 290 000e 5DF804FB 		ldr	pc, [sp], #4
 291              		.cfi_endproc
 292              	.LFE265:
 293              		.size	osalEventObjectInit, .-osalEventObjectInit
 294 0012 00BFAFF3 		.section	.text.osalEventBroadcastFlagsI,"ax",%progbits
 294      0080AFF3 
 294      0080AFF3 
 294      0080
 295              		.align	2
 296              		.p2align 4,,15
 297              		.thumb
 298              		.thumb_func
 299              		.type	osalEventBroadcastFlagsI, %function
 300              	osalEventBroadcastFlagsI:
 301              	.LFB266:
 302              		.loc 6 842 0
 303              		.cfi_startproc
 304              		@ args = 0, pretend = 0, frame = 8
 305              		@ frame_needed = 0, uses_anonymous_args = 0
 306 0000 00B5     		push	{lr}
 307              		.cfi_def_cfa_offset 4
 308              		.cfi_offset 14, -4
 309 0002 83B0     		sub	sp, sp, #12
 310              		.cfi_def_cfa_offset 16
 311 0004 0190     		str	r0, [sp, #4]
 312 0006 0091     		str	r1, [sp]
 313              		.loc 6 844 0
 314 0008 0198     		ldr	r0, [sp, #4]
 315 000a 0099     		ldr	r1, [sp]
 316 000c FFF7FEFF 		bl	chEvtBroadcastFlagsI
 317              		.loc 6 845 0
 318 0010 03B0     		add	sp, sp, #12
 319              		@ sp needed
 320 0012 5DF804FB 		ldr	pc, [sp], #4
 321              		.cfi_endproc
 322              	.LFE266:
 323              		.size	osalEventBroadcastFlagsI, .-osalEventBroadcastFlagsI
 324 0016 00BFAFF3 		.section	.text.write,"ax",%progbits
 324      0080AFF3 
 324      0080
 325              		.align	2
 326              		.p2align 4,,15
 327              		.thumb
 328              		.thumb_func
 329              		.type	write, %function
 330              	write:
 331              	.LFB271:
ARM GAS  /tmp/ccSKVCga.s 			page 7


 332              		.file 7 "/home/efe/ChibiOS/os/hal/src/serial.c"
 333              		.loc 7 50 0
 334              		.cfi_startproc
 335              		@ args = 0, pretend = 0, frame = 16
 336              		@ frame_needed = 0, uses_anonymous_args = 0
 337 0000 00B5     		push	{lr}
 338              		.cfi_def_cfa_offset 4
 339              		.cfi_offset 14, -4
 340 0002 85B0     		sub	sp, sp, #20
 341              		.cfi_def_cfa_offset 24
 342 0004 0390     		str	r0, [sp, #12]
 343 0006 0291     		str	r1, [sp, #8]
 344 0008 0192     		str	r2, [sp, #4]
 345              		.loc 7 52 0
 346 000a 039B     		ldr	r3, [sp, #12]
 347 000c 3033     		adds	r3, r3, #48
 348 000e 1846     		mov	r0, r3
 349 0010 0299     		ldr	r1, [sp, #8]
 350 0012 019A     		ldr	r2, [sp, #4]
 351 0014 4FF0FF33 		mov	r3, #-1
 352 0018 FFF7FEFF 		bl	chOQWriteTimeout
 353 001c 0346     		mov	r3, r0
 354              		.loc 7 54 0
 355 001e 1846     		mov	r0, r3
 356 0020 05B0     		add	sp, sp, #20
 357              		@ sp needed
 358 0022 5DF804FB 		ldr	pc, [sp], #4
 359              		.cfi_endproc
 360              	.LFE271:
 361              		.size	write, .-write
 362 0026 00BFAFF3 		.section	.text.read,"ax",%progbits
 362      0080AFF3 
 362      0080
 363              		.align	2
 364              		.p2align 4,,15
 365              		.thumb
 366              		.thumb_func
 367              		.type	read, %function
 368              	read:
 369              	.LFB272:
 370              		.loc 7 56 0
 371              		.cfi_startproc
 372              		@ args = 0, pretend = 0, frame = 16
 373              		@ frame_needed = 0, uses_anonymous_args = 0
 374 0000 00B5     		push	{lr}
 375              		.cfi_def_cfa_offset 4
 376              		.cfi_offset 14, -4
 377 0002 85B0     		sub	sp, sp, #20
 378              		.cfi_def_cfa_offset 24
 379 0004 0390     		str	r0, [sp, #12]
 380 0006 0291     		str	r1, [sp, #8]
 381 0008 0192     		str	r2, [sp, #4]
 382              		.loc 7 58 0
 383 000a 039B     		ldr	r3, [sp, #12]
 384 000c 0C33     		adds	r3, r3, #12
 385 000e 1846     		mov	r0, r3
 386 0010 0299     		ldr	r1, [sp, #8]
ARM GAS  /tmp/ccSKVCga.s 			page 8


 387 0012 019A     		ldr	r2, [sp, #4]
 388 0014 4FF0FF33 		mov	r3, #-1
 389 0018 FFF7FEFF 		bl	chIQReadTimeout
 390 001c 0346     		mov	r3, r0
 391              		.loc 7 60 0
 392 001e 1846     		mov	r0, r3
 393 0020 05B0     		add	sp, sp, #20
 394              		@ sp needed
 395 0022 5DF804FB 		ldr	pc, [sp], #4
 396              		.cfi_endproc
 397              	.LFE272:
 398              		.size	read, .-read
 399              		.section	.text.put,"ax",%progbits
 400              		.align	2
 401              		.p2align 4,,15
 402              		.thumb
 403              		.thumb_func
 404              		.type	put, %function
 405              	put:
 406              	.LFB273:
 407              		.loc 7 62 0
 408              		.cfi_startproc
 409              		@ args = 0, pretend = 0, frame = 8
 410              		@ frame_needed = 0, uses_anonymous_args = 0
 411 0000 00B5     		push	{lr}
 412              		.cfi_def_cfa_offset 4
 413              		.cfi_offset 14, -4
 414 0002 83B0     		sub	sp, sp, #12
 415              		.cfi_def_cfa_offset 16
 416 0004 0190     		str	r0, [sp, #4]
 417 0006 0B46     		mov	r3, r1
 418 0008 8DF80330 		strb	r3, [sp, #3]
 419              		.loc 7 64 0
 420 000c 019B     		ldr	r3, [sp, #4]
 421 000e 03F13002 		add	r2, r3, #48
 422 0012 9DF80330 		ldrb	r3, [sp, #3]	@ zero_extendqisi2
 423 0016 1046     		mov	r0, r2
 424 0018 1946     		mov	r1, r3
 425 001a 4FF0FF32 		mov	r2, #-1
 426 001e FFF7FEFF 		bl	chOQPutTimeout
 427 0022 0346     		mov	r3, r0
 428              		.loc 7 65 0
 429 0024 1846     		mov	r0, r3
 430 0026 03B0     		add	sp, sp, #12
 431              		@ sp needed
 432 0028 5DF804FB 		ldr	pc, [sp], #4
 433              		.cfi_endproc
 434              	.LFE273:
 435              		.size	put, .-put
 436 002c AFF30080 		.section	.text.get,"ax",%progbits
 437              		.align	2
 438              		.p2align 4,,15
 439              		.thumb
 440              		.thumb_func
 441              		.type	get, %function
 442              	get:
 443              	.LFB274:
ARM GAS  /tmp/ccSKVCga.s 			page 9


 444              		.loc 7 67 0
 445              		.cfi_startproc
 446              		@ args = 0, pretend = 0, frame = 8
 447              		@ frame_needed = 0, uses_anonymous_args = 0
 448 0000 00B5     		push	{lr}
 449              		.cfi_def_cfa_offset 4
 450              		.cfi_offset 14, -4
 451 0002 83B0     		sub	sp, sp, #12
 452              		.cfi_def_cfa_offset 16
 453 0004 0190     		str	r0, [sp, #4]
 454              		.loc 7 69 0
 455 0006 019B     		ldr	r3, [sp, #4]
 456 0008 0C33     		adds	r3, r3, #12
 457 000a 1846     		mov	r0, r3
 458 000c 4FF0FF31 		mov	r1, #-1
 459 0010 FFF7FEFF 		bl	chIQGetTimeout
 460 0014 0346     		mov	r3, r0
 461              		.loc 7 70 0
 462 0016 1846     		mov	r0, r3
 463 0018 03B0     		add	sp, sp, #12
 464              		@ sp needed
 465 001a 5DF804FB 		ldr	pc, [sp], #4
 466              		.cfi_endproc
 467              	.LFE274:
 468              		.size	get, .-get
 469 001e 00BF     		.section	.text.putt,"ax",%progbits
 470              		.align	2
 471              		.p2align 4,,15
 472              		.thumb
 473              		.thumb_func
 474              		.type	putt, %function
 475              	putt:
 476              	.LFB275:
 477              		.loc 7 72 0
 478              		.cfi_startproc
 479              		@ args = 0, pretend = 0, frame = 16
 480              		@ frame_needed = 0, uses_anonymous_args = 0
 481 0000 00B5     		push	{lr}
 482              		.cfi_def_cfa_offset 4
 483              		.cfi_offset 14, -4
 484 0002 85B0     		sub	sp, sp, #20
 485              		.cfi_def_cfa_offset 24
 486 0004 0390     		str	r0, [sp, #12]
 487 0006 0B46     		mov	r3, r1
 488 0008 0192     		str	r2, [sp, #4]
 489 000a 8DF80B30 		strb	r3, [sp, #11]
 490              		.loc 7 74 0
 491 000e 039B     		ldr	r3, [sp, #12]
 492 0010 03F13002 		add	r2, r3, #48
 493 0014 9DF80B30 		ldrb	r3, [sp, #11]	@ zero_extendqisi2
 494 0018 1046     		mov	r0, r2
 495 001a 1946     		mov	r1, r3
 496 001c 019A     		ldr	r2, [sp, #4]
 497 001e FFF7FEFF 		bl	chOQPutTimeout
 498 0022 0346     		mov	r3, r0
 499              		.loc 7 75 0
 500 0024 1846     		mov	r0, r3
ARM GAS  /tmp/ccSKVCga.s 			page 10


 501 0026 05B0     		add	sp, sp, #20
 502              		@ sp needed
 503 0028 5DF804FB 		ldr	pc, [sp], #4
 504              		.cfi_endproc
 505              	.LFE275:
 506              		.size	putt, .-putt
 507 002c AFF30080 		.section	.text.gett,"ax",%progbits
 508              		.align	2
 509              		.p2align 4,,15
 510              		.thumb
 511              		.thumb_func
 512              		.type	gett, %function
 513              	gett:
 514              	.LFB276:
 515              		.loc 7 77 0
 516              		.cfi_startproc
 517              		@ args = 0, pretend = 0, frame = 8
 518              		@ frame_needed = 0, uses_anonymous_args = 0
 519 0000 00B5     		push	{lr}
 520              		.cfi_def_cfa_offset 4
 521              		.cfi_offset 14, -4
 522 0002 83B0     		sub	sp, sp, #12
 523              		.cfi_def_cfa_offset 16
 524 0004 0190     		str	r0, [sp, #4]
 525 0006 0091     		str	r1, [sp]
 526              		.loc 7 79 0
 527 0008 019B     		ldr	r3, [sp, #4]
 528 000a 0C33     		adds	r3, r3, #12
 529 000c 1846     		mov	r0, r3
 530 000e 0099     		ldr	r1, [sp]
 531 0010 FFF7FEFF 		bl	chIQGetTimeout
 532 0014 0346     		mov	r3, r0
 533              		.loc 7 80 0
 534 0016 1846     		mov	r0, r3
 535 0018 03B0     		add	sp, sp, #12
 536              		@ sp needed
 537 001a 5DF804FB 		ldr	pc, [sp], #4
 538              		.cfi_endproc
 539              	.LFE276:
 540              		.size	gett, .-gett
 541 001e 00BF     		.section	.text.writet,"ax",%progbits
 542              		.align	2
 543              		.p2align 4,,15
 544              		.thumb
 545              		.thumb_func
 546              		.type	writet, %function
 547              	writet:
 548              	.LFB277:
 549              		.loc 7 82 0
 550              		.cfi_startproc
 551              		@ args = 0, pretend = 0, frame = 16
 552              		@ frame_needed = 0, uses_anonymous_args = 0
 553 0000 00B5     		push	{lr}
 554              		.cfi_def_cfa_offset 4
 555              		.cfi_offset 14, -4
 556 0002 85B0     		sub	sp, sp, #20
 557              		.cfi_def_cfa_offset 24
ARM GAS  /tmp/ccSKVCga.s 			page 11


 558 0004 0390     		str	r0, [sp, #12]
 559 0006 0291     		str	r1, [sp, #8]
 560 0008 0192     		str	r2, [sp, #4]
 561 000a 0093     		str	r3, [sp]
 562              		.loc 7 84 0
 563 000c 039B     		ldr	r3, [sp, #12]
 564 000e 3033     		adds	r3, r3, #48
 565 0010 1846     		mov	r0, r3
 566 0012 0299     		ldr	r1, [sp, #8]
 567 0014 019A     		ldr	r2, [sp, #4]
 568 0016 009B     		ldr	r3, [sp]
 569 0018 FFF7FEFF 		bl	chOQWriteTimeout
 570 001c 0346     		mov	r3, r0
 571              		.loc 7 85 0
 572 001e 1846     		mov	r0, r3
 573 0020 05B0     		add	sp, sp, #20
 574              		@ sp needed
 575 0022 5DF804FB 		ldr	pc, [sp], #4
 576              		.cfi_endproc
 577              	.LFE277:
 578              		.size	writet, .-writet
 579 0026 00BFAFF3 		.section	.text.readt,"ax",%progbits
 579      0080AFF3 
 579      0080
 580              		.align	2
 581              		.p2align 4,,15
 582              		.thumb
 583              		.thumb_func
 584              		.type	readt, %function
 585              	readt:
 586              	.LFB278:
 587              		.loc 7 87 0
 588              		.cfi_startproc
 589              		@ args = 0, pretend = 0, frame = 16
 590              		@ frame_needed = 0, uses_anonymous_args = 0
 591 0000 00B5     		push	{lr}
 592              		.cfi_def_cfa_offset 4
 593              		.cfi_offset 14, -4
 594 0002 85B0     		sub	sp, sp, #20
 595              		.cfi_def_cfa_offset 24
 596 0004 0390     		str	r0, [sp, #12]
 597 0006 0291     		str	r1, [sp, #8]
 598 0008 0192     		str	r2, [sp, #4]
 599 000a 0093     		str	r3, [sp]
 600              		.loc 7 89 0
 601 000c 039B     		ldr	r3, [sp, #12]
 602 000e 0C33     		adds	r3, r3, #12
 603 0010 1846     		mov	r0, r3
 604 0012 0299     		ldr	r1, [sp, #8]
 605 0014 019A     		ldr	r2, [sp, #4]
 606 0016 009B     		ldr	r3, [sp]
 607 0018 FFF7FEFF 		bl	chIQReadTimeout
 608 001c 0346     		mov	r3, r0
 609              		.loc 7 90 0
 610 001e 1846     		mov	r0, r3
 611 0020 05B0     		add	sp, sp, #20
 612              		@ sp needed
ARM GAS  /tmp/ccSKVCga.s 			page 12


 613 0022 5DF804FB 		ldr	pc, [sp], #4
 614              		.cfi_endproc
 615              	.LFE278:
 616              		.size	readt, .-readt
 617 0026 00BFAFF3 		.section	.rodata.vmt,"a",%progbits
 617      0080AFF3 
 617      0080
 618              		.align	2
 619              		.type	vmt, %object
 620              		.size	vmt, 32
 621              	vmt:
 622 0000 00000000 		.word	write
 623 0004 00000000 		.word	read
 624 0008 00000000 		.word	put
 625 000c 00000000 		.word	get
 626 0010 00000000 		.word	putt
 627 0014 00000000 		.word	gett
 628 0018 00000000 		.word	writet
 629 001c 00000000 		.word	readt
 630              		.section	.text.sdInit,"ax",%progbits
 631              		.align	2
 632              		.p2align 4,,15
 633              		.global	sdInit
 634              		.thumb
 635              		.thumb_func
 636              		.type	sdInit, %function
 637              	sdInit:
 638              	.LFB279:
 639              		.loc 7 108 0
 640              		.cfi_startproc
 641              		@ args = 0, pretend = 0, frame = 0
 642              		@ frame_needed = 0, uses_anonymous_args = 0
 643 0000 08B5     		push	{r3, lr}
 644              		.cfi_def_cfa_offset 8
 645              		.cfi_offset 3, -8
 646              		.cfi_offset 14, -4
 647              		.loc 7 110 0
 648 0002 FFF7FEFF 		bl	sd_lld_init
 649              		.loc 7 111 0
 650 0006 08BD     		pop	{r3, pc}
 651              		.cfi_endproc
 652              	.LFE279:
 653              		.size	sdInit, .-sdInit
 654 0008 AFF30080 		.section	.text.sdObjectInit,"ax",%progbits
 654      AFF30080 
 655              		.align	2
 656              		.p2align 4,,15
 657              		.global	sdObjectInit
 658              		.thumb
 659              		.thumb_func
 660              		.type	sdObjectInit, %function
 661              	sdObjectInit:
 662              	.LFB280:
 663              		.loc 7 128 0
 664              		.cfi_startproc
 665              		@ args = 0, pretend = 0, frame = 16
 666              		@ frame_needed = 0, uses_anonymous_args = 0
ARM GAS  /tmp/ccSKVCga.s 			page 13


 667 0000 00B5     		push	{lr}
 668              		.cfi_def_cfa_offset 4
 669              		.cfi_offset 14, -4
 670 0002 87B0     		sub	sp, sp, #28
 671              		.cfi_def_cfa_offset 32
 672 0004 0590     		str	r0, [sp, #20]
 673 0006 0491     		str	r1, [sp, #16]
 674 0008 0392     		str	r2, [sp, #12]
 675              		.loc 7 130 0
 676 000a 059B     		ldr	r3, [sp, #20]
 677 000c 134A     		ldr	r2, .L31
 678 000e 1A60     		str	r2, [r3]
 679              		.loc 7 131 0
 680 0010 059B     		ldr	r3, [sp, #20]
 681 0012 0433     		adds	r3, r3, #4
 682 0014 1846     		mov	r0, r3
 683 0016 FFF7FEFF 		bl	osalEventObjectInit
 684              		.loc 7 132 0
 685 001a 059B     		ldr	r3, [sp, #20]
 686 001c 0122     		movs	r2, #1
 687 001e 1A72     		strb	r2, [r3, #8]
 688              		.loc 7 133 0
 689 0020 059B     		ldr	r3, [sp, #20]
 690 0022 03F10C02 		add	r2, r3, #12
 691 0026 059B     		ldr	r3, [sp, #20]
 692 0028 5433     		adds	r3, r3, #84
 693 002a 0599     		ldr	r1, [sp, #20]
 694 002c 0091     		str	r1, [sp]
 695 002e 1046     		mov	r0, r2
 696 0030 1946     		mov	r1, r3
 697 0032 4022     		movs	r2, #64
 698 0034 049B     		ldr	r3, [sp, #16]
 699 0036 FFF7FEFF 		bl	chIQObjectInit
 700              		.loc 7 134 0
 701 003a 059B     		ldr	r3, [sp, #20]
 702 003c 03F13002 		add	r2, r3, #48
 703 0040 059B     		ldr	r3, [sp, #20]
 704 0042 9433     		adds	r3, r3, #148
 705 0044 0599     		ldr	r1, [sp, #20]
 706 0046 0091     		str	r1, [sp]
 707 0048 1046     		mov	r0, r2
 708 004a 1946     		mov	r1, r3
 709 004c 4022     		movs	r2, #64
 710 004e 039B     		ldr	r3, [sp, #12]
 711 0050 FFF7FEFF 		bl	chOQObjectInit
 712              		.loc 7 135 0
 713 0054 07B0     		add	sp, sp, #28
 714              		@ sp needed
 715 0056 5DF804FB 		ldr	pc, [sp], #4
 716              	.L32:
 717 005a 00BF     		.align	2
 718              	.L31:
 719 005c 00000000 		.word	vmt
 720              		.cfi_endproc
 721              	.LFE280:
 722              		.size	sdObjectInit, .-sdObjectInit
 723              		.section	.text.sdStart,"ax",%progbits
ARM GAS  /tmp/ccSKVCga.s 			page 14


 724              		.align	2
 725              		.p2align 4,,15
 726              		.global	sdStart
 727              		.thumb
 728              		.thumb_func
 729              		.type	sdStart, %function
 730              	sdStart:
 731              	.LFB281:
 732              		.loc 7 147 0
 733              		.cfi_startproc
 734              		@ args = 0, pretend = 0, frame = 8
 735              		@ frame_needed = 0, uses_anonymous_args = 0
 736 0000 00B5     		push	{lr}
 737              		.cfi_def_cfa_offset 4
 738              		.cfi_offset 14, -4
 739 0002 83B0     		sub	sp, sp, #12
 740              		.cfi_def_cfa_offset 16
 741 0004 0190     		str	r0, [sp, #4]
 742 0006 0091     		str	r1, [sp]
 743              		.loc 7 151 0
 744 0008 FFF7FEFF 		bl	osalSysLock
 745              		.loc 7 154 0
 746 000c 0198     		ldr	r0, [sp, #4]
 747 000e 0099     		ldr	r1, [sp]
 748 0010 FFF7FEFF 		bl	sd_lld_start
 749              		.loc 7 155 0
 750 0014 019B     		ldr	r3, [sp, #4]
 751 0016 0222     		movs	r2, #2
 752 0018 1A72     		strb	r2, [r3, #8]
 753              		.loc 7 156 0
 754 001a FFF7FEFF 		bl	osalSysUnlock
 755              		.loc 7 157 0
 756 001e 03B0     		add	sp, sp, #12
 757              		@ sp needed
 758 0020 5DF804FB 		ldr	pc, [sp], #4
 759              		.cfi_endproc
 760              	.LFE281:
 761              		.size	sdStart, .-sdStart
 762 0024 AFF30080 		.section	.text.sdStop,"ax",%progbits
 762      AFF30080 
 762      AFF30080 
 763              		.align	2
 764              		.p2align 4,,15
 765              		.global	sdStop
 766              		.thumb
 767              		.thumb_func
 768              		.type	sdStop, %function
 769              	sdStop:
 770              	.LFB282:
 771              		.loc 7 168 0
 772              		.cfi_startproc
 773              		@ args = 0, pretend = 0, frame = 8
 774              		@ frame_needed = 0, uses_anonymous_args = 0
 775 0000 00B5     		push	{lr}
 776              		.cfi_def_cfa_offset 4
 777              		.cfi_offset 14, -4
 778 0002 83B0     		sub	sp, sp, #12
ARM GAS  /tmp/ccSKVCga.s 			page 15


 779              		.cfi_def_cfa_offset 16
 780 0004 0190     		str	r0, [sp, #4]
 781              		.loc 7 172 0
 782 0006 FFF7FEFF 		bl	osalSysLock
 783              		.loc 7 175 0
 784 000a 0198     		ldr	r0, [sp, #4]
 785 000c FFF7FEFF 		bl	sd_lld_stop
 786              		.loc 7 176 0
 787 0010 019B     		ldr	r3, [sp, #4]
 788 0012 0122     		movs	r2, #1
 789 0014 1A72     		strb	r2, [r3, #8]
 790              		.loc 7 177 0
 791 0016 019B     		ldr	r3, [sp, #4]
 792 0018 3033     		adds	r3, r3, #48
 793 001a 1846     		mov	r0, r3
 794 001c FFF7FEFF 		bl	chOQResetI
 795              		.loc 7 178 0
 796 0020 019B     		ldr	r3, [sp, #4]
 797 0022 0C33     		adds	r3, r3, #12
 798 0024 1846     		mov	r0, r3
 799 0026 FFF7FEFF 		bl	chIQResetI
 800              		.loc 7 179 0
 801 002a FFF7FEFF 		bl	osalOsRescheduleS
 802              		.loc 7 180 0
 803 002e FFF7FEFF 		bl	osalSysUnlock
 804              		.loc 7 181 0
 805 0032 03B0     		add	sp, sp, #12
 806              		@ sp needed
 807 0034 5DF804FB 		ldr	pc, [sp], #4
 808              		.cfi_endproc
 809              	.LFE282:
 810              		.size	sdStop, .-sdStop
 811 0038 AFF30080 		.section	.text.sdIncomingDataI,"ax",%progbits
 811      AFF30080 
 812              		.align	2
 813              		.p2align 4,,15
 814              		.global	sdIncomingDataI
 815              		.thumb
 816              		.thumb_func
 817              		.type	sdIncomingDataI, %function
 818              	sdIncomingDataI:
 819              	.LFB283:
 820              		.loc 7 199 0
 821              		.cfi_startproc
 822              		@ args = 0, pretend = 0, frame = 8
 823              		@ frame_needed = 0, uses_anonymous_args = 0
 824 0000 00B5     		push	{lr}
 825              		.cfi_def_cfa_offset 4
 826              		.cfi_offset 14, -4
 827 0002 83B0     		sub	sp, sp, #12
 828              		.cfi_def_cfa_offset 16
 829 0004 0190     		str	r0, [sp, #4]
 830 0006 0B46     		mov	r3, r1
 831 0008 8DF80330 		strb	r3, [sp, #3]
 832              		.loc 7 204 0
 833 000c 019B     		ldr	r3, [sp, #4]
 834 000e 0C33     		adds	r3, r3, #12
ARM GAS  /tmp/ccSKVCga.s 			page 16


 835 0010 1846     		mov	r0, r3
 836 0012 FFF7FEFF 		bl	chIQIsEmptyI
 837 0016 0346     		mov	r3, r0
 838 0018 002B     		cmp	r3, #0
 839 001a 05D0     		beq	.L36
 840              		.loc 7 205 0
 841 001c 019B     		ldr	r3, [sp, #4]
 842 001e 0433     		adds	r3, r3, #4
 843 0020 1846     		mov	r0, r3
 844 0022 0421     		movs	r1, #4
 845 0024 FFF7FEFF 		bl	osalEventBroadcastFlagsI
 846              	.L36:
 847              		.loc 7 206 0
 848 0028 019B     		ldr	r3, [sp, #4]
 849 002a 03F10C02 		add	r2, r3, #12
 850 002e 9DF80330 		ldrb	r3, [sp, #3]	@ zero_extendqisi2
 851 0032 1046     		mov	r0, r2
 852 0034 1946     		mov	r1, r3
 853 0036 FFF7FEFF 		bl	chIQPutI
 854 003a 0346     		mov	r3, r0
 855 003c 002B     		cmp	r3, #0
 856 003e 05DA     		bge	.L35
 857              		.loc 7 207 0
 858 0040 019B     		ldr	r3, [sp, #4]
 859 0042 0433     		adds	r3, r3, #4
 860 0044 1846     		mov	r0, r3
 861 0046 8021     		movs	r1, #128
 862 0048 FFF7FEFF 		bl	osalEventBroadcastFlagsI
 863              	.L35:
 864              		.loc 7 208 0
 865 004c 03B0     		add	sp, sp, #12
 866              		@ sp needed
 867 004e 5DF804FB 		ldr	pc, [sp], #4
 868              		.cfi_endproc
 869              	.LFE283:
 870              		.size	sdIncomingDataI, .-sdIncomingDataI
 871 0052 00BFAFF3 		.section	.text.sdRequestDataI,"ax",%progbits
 871      0080AFF3 
 871      0080AFF3 
 871      0080
 872              		.align	2
 873              		.p2align 4,,15
 874              		.global	sdRequestDataI
 875              		.thumb
 876              		.thumb_func
 877              		.type	sdRequestDataI, %function
 878              	sdRequestDataI:
 879              	.LFB284:
 880              		.loc 7 225 0
 881              		.cfi_startproc
 882              		@ args = 0, pretend = 0, frame = 16
 883              		@ frame_needed = 0, uses_anonymous_args = 0
 884 0000 00B5     		push	{lr}
 885              		.cfi_def_cfa_offset 4
 886              		.cfi_offset 14, -4
 887 0002 85B0     		sub	sp, sp, #20
 888              		.cfi_def_cfa_offset 24
ARM GAS  /tmp/ccSKVCga.s 			page 17


 889 0004 0190     		str	r0, [sp, #4]
 890              		.loc 7 231 0
 891 0006 019B     		ldr	r3, [sp, #4]
 892 0008 3033     		adds	r3, r3, #48
 893 000a 1846     		mov	r0, r3
 894 000c FFF7FEFF 		bl	chOQGetI
 895 0010 0390     		str	r0, [sp, #12]
 896              		.loc 7 232 0
 897 0012 039B     		ldr	r3, [sp, #12]
 898 0014 002B     		cmp	r3, #0
 899 0016 05DA     		bge	.L39
 900              		.loc 7 233 0
 901 0018 019B     		ldr	r3, [sp, #4]
 902 001a 0433     		adds	r3, r3, #4
 903 001c 1846     		mov	r0, r3
 904 001e 0821     		movs	r1, #8
 905 0020 FFF7FEFF 		bl	osalEventBroadcastFlagsI
 906              	.L39:
 907              		.loc 7 234 0
 908 0024 039B     		ldr	r3, [sp, #12]
 909              		.loc 7 235 0
 910 0026 1846     		mov	r0, r3
 911 0028 05B0     		add	sp, sp, #20
 912              		@ sp needed
 913 002a 5DF804FB 		ldr	pc, [sp], #4
 914              		.cfi_endproc
 915              	.LFE284:
 916              		.size	sdRequestDataI, .-sdRequestDataI
 917 002e 00BF     		.text
 918              	.Letext0:
 919              		.file 8 "/usr/lib/gcc/arm-none-eabi/4.8/include/stddef.h"
 920              		.file 9 "/usr/include/newlib/machine/_default_types.h"
 921              		.file 10 "/usr/include/newlib/stdint.h"
 922              		.file 11 "/home/efe/ChibiOS/os/rt/ports/ARMCMx/compilers/GCC/chtypes.h"
 923              		.file 12 "/home/efe/ChibiOS/os/rt/include/chsystypes.h"
 924              		.file 13 "/home/efe/ChibiOS/os/rt/include/chschd.h"
 925              		.file 14 "/home/efe/ChibiOS/os/ext/CMSIS/ST/stm32f407xx.h"
 926              		.file 15 "/home/efe/ChibiOS/os/rt/ports/ARMCMx/chcore.h"
 927              		.file 16 "/home/efe/ChibiOS/os/rt/include/chtm.h"
 928              		.file 17 "/home/efe/ChibiOS/os/rt/include/chsem.h"
 929              		.file 18 "/home/efe/ChibiOS/os/rt/include/chmtx.h"
 930              		.file 19 "/home/efe/ChibiOS/os/hal/include/serial.h"
 931              		.file 20 "/home/efe/ChibiOS/os/hal/ports/STM32/LLD/USARTv1/serial_lld.h"
 932              		.file 21 "/home/efe/ChibiOS/os/ext/CMSIS/include/core_cm4.h"
 933              		.section	.debug_info,"",%progbits
 934              	.Ldebug_info0:
 935 0000 B50F0000 		.4byte	0xfb5
 936 0004 0400     		.2byte	0x4
 937 0006 00000000 		.4byte	.Ldebug_abbrev0
 938 000a 04       		.byte	0x4
 939 000b 01       		.uleb128 0x1
 940 000c A2010000 		.4byte	.LASF172
 941 0010 01       		.byte	0x1
 942 0011 7A040000 		.4byte	.LASF173
 943 0015 00000000 		.4byte	.Ldebug_ranges0+0
 944 0019 00000000 		.4byte	0
 945 001d 00000000 		.4byte	.Ldebug_line0
ARM GAS  /tmp/ccSKVCga.s 			page 18


 946 0021 02       		.uleb128 0x2
 947 0022 04       		.byte	0x4
 948 0023 05       		.byte	0x5
 949 0024 696E7400 		.ascii	"int\000"
 950 0028 03       		.uleb128 0x3
 951 0029 15000000 		.4byte	.LASF2
 952 002d 08       		.byte	0x8
 953 002e D4       		.byte	0xd4
 954 002f 33000000 		.4byte	0x33
 955 0033 04       		.uleb128 0x4
 956 0034 04       		.byte	0x4
 957 0035 07       		.byte	0x7
 958 0036 D0020000 		.4byte	.LASF0
 959 003a 04       		.uleb128 0x4
 960 003b 01       		.byte	0x1
 961 003c 06       		.byte	0x6
 962 003d 13010000 		.4byte	.LASF1
 963 0041 03       		.uleb128 0x3
 964 0042 2C000000 		.4byte	.LASF3
 965 0046 09       		.byte	0x9
 966 0047 1D       		.byte	0x1d
 967 0048 4C000000 		.4byte	0x4c
 968 004c 04       		.uleb128 0x4
 969 004d 01       		.byte	0x1
 970 004e 08       		.byte	0x8
 971 004f 32050000 		.4byte	.LASF4
 972 0053 04       		.uleb128 0x4
 973 0054 02       		.byte	0x2
 974 0055 05       		.byte	0x5
 975 0056 67050000 		.4byte	.LASF5
 976 005a 03       		.uleb128 0x3
 977 005b 61060000 		.4byte	.LASF6
 978 005f 09       		.byte	0x9
 979 0060 2B       		.byte	0x2b
 980 0061 65000000 		.4byte	0x65
 981 0065 04       		.uleb128 0x4
 982 0066 02       		.byte	0x2
 983 0067 07       		.byte	0x7
 984 0068 48030000 		.4byte	.LASF7
 985 006c 03       		.uleb128 0x3
 986 006d 9F000000 		.4byte	.LASF8
 987 0071 09       		.byte	0x9
 988 0072 3F       		.byte	0x3f
 989 0073 77000000 		.4byte	0x77
 990 0077 04       		.uleb128 0x4
 991 0078 04       		.byte	0x4
 992 0079 05       		.byte	0x5
 993 007a 6B010000 		.4byte	.LASF9
 994 007e 03       		.uleb128 0x3
 995 007f 9A060000 		.4byte	.LASF10
 996 0083 09       		.byte	0x9
 997 0084 41       		.byte	0x41
 998 0085 89000000 		.4byte	0x89
 999 0089 04       		.uleb128 0x4
 1000 008a 04       		.byte	0x4
 1001 008b 07       		.byte	0x7
 1002 008c 26060000 		.4byte	.LASF11
ARM GAS  /tmp/ccSKVCga.s 			page 19


 1003 0090 04       		.uleb128 0x4
 1004 0091 08       		.byte	0x8
 1005 0092 05       		.byte	0x5
 1006 0093 05010000 		.4byte	.LASF12
 1007 0097 03       		.uleb128 0x3
 1008 0098 D0040000 		.4byte	.LASF13
 1009 009c 09       		.byte	0x9
 1010 009d 5B       		.byte	0x5b
 1011 009e A2000000 		.4byte	0xa2
 1012 00a2 04       		.uleb128 0x4
 1013 00a3 08       		.byte	0x8
 1014 00a4 07       		.byte	0x7
 1015 00a5 5B000000 		.4byte	.LASF14
 1016 00a9 03       		.uleb128 0x3
 1017 00aa 6E070000 		.4byte	.LASF15
 1018 00ae 0A       		.byte	0xa
 1019 00af 2A       		.byte	0x2a
 1020 00b0 41000000 		.4byte	0x41
 1021 00b4 03       		.uleb128 0x3
 1022 00b5 E5020000 		.4byte	.LASF16
 1023 00b9 0A       		.byte	0xa
 1024 00ba 36       		.byte	0x36
 1025 00bb 5A000000 		.4byte	0x5a
 1026 00bf 03       		.uleb128 0x3
 1027 00c0 2A050000 		.4byte	.LASF17
 1028 00c4 0A       		.byte	0xa
 1029 00c5 41       		.byte	0x41
 1030 00c6 6C000000 		.4byte	0x6c
 1031 00ca 03       		.uleb128 0x3
 1032 00cb E8050000 		.4byte	.LASF18
 1033 00cf 0A       		.byte	0xa
 1034 00d0 42       		.byte	0x42
 1035 00d1 7E000000 		.4byte	0x7e
 1036 00d5 03       		.uleb128 0x3
 1037 00d6 23000000 		.4byte	.LASF19
 1038 00da 0A       		.byte	0xa
 1039 00db 4E       		.byte	0x4e
 1040 00dc 97000000 		.4byte	0x97
 1041 00e0 05       		.uleb128 0x5
 1042 00e1 BF000000 		.4byte	0xbf
 1043 00e5 05       		.uleb128 0x5
 1044 00e6 CA000000 		.4byte	0xca
 1045 00ea 03       		.uleb128 0x3
 1046 00eb EE060000 		.4byte	.LASF20
 1047 00ef 0B       		.byte	0xb
 1048 00f0 45       		.byte	0x45
 1049 00f1 CA000000 		.4byte	0xca
 1050 00f5 03       		.uleb128 0x3
 1051 00f6 A5030000 		.4byte	.LASF21
 1052 00fa 0B       		.byte	0xb
 1053 00fb 48       		.byte	0x48
 1054 00fc A9000000 		.4byte	0xa9
 1055 0100 03       		.uleb128 0x3
 1056 0101 81010000 		.4byte	.LASF22
 1057 0105 0B       		.byte	0xb
 1058 0106 49       		.byte	0x49
 1059 0107 A9000000 		.4byte	0xa9
ARM GAS  /tmp/ccSKVCga.s 			page 20


 1060 010b 03       		.uleb128 0x3
 1061 010c 00000000 		.4byte	.LASF23
 1062 0110 0B       		.byte	0xb
 1063 0111 4A       		.byte	0x4a
 1064 0112 A9000000 		.4byte	0xa9
 1065 0116 03       		.uleb128 0x3
 1066 0117 04050000 		.4byte	.LASF24
 1067 011b 0B       		.byte	0xb
 1068 011c 4C       		.byte	0x4c
 1069 011d CA000000 		.4byte	0xca
 1070 0121 03       		.uleb128 0x3
 1071 0122 6F030000 		.4byte	.LASF25
 1072 0126 0B       		.byte	0xb
 1073 0127 4D       		.byte	0x4d
 1074 0128 BF000000 		.4byte	0xbf
 1075 012c 03       		.uleb128 0x3
 1076 012d BB030000 		.4byte	.LASF26
 1077 0131 0B       		.byte	0xb
 1078 0132 4F       		.byte	0x4f
 1079 0133 CA000000 		.4byte	0xca
 1080 0137 03       		.uleb128 0x3
 1081 0138 06070000 		.4byte	.LASF27
 1082 013c 0B       		.byte	0xb
 1083 013d 50       		.byte	0x50
 1084 013e CA000000 		.4byte	0xca
 1085 0142 03       		.uleb128 0x3
 1086 0143 C4020000 		.4byte	.LASF28
 1087 0147 0B       		.byte	0xb
 1088 0148 51       		.byte	0x51
 1089 0149 BF000000 		.4byte	0xbf
 1090 014d 03       		.uleb128 0x3
 1091 014e 7C060000 		.4byte	.LASF29
 1092 0152 0C       		.byte	0xc
 1093 0153 33       		.byte	0x33
 1094 0154 CA000000 		.4byte	0xca
 1095 0158 03       		.uleb128 0x3
 1096 0159 6C060000 		.4byte	.LASF30
 1097 015d 0C       		.byte	0xc
 1098 015e 3F       		.byte	0x3f
 1099 015f 63010000 		.4byte	0x163
 1100 0163 06       		.uleb128 0x6
 1101 0164 5B030000 		.4byte	.LASF50
 1102 0168 44       		.byte	0x44
 1103 0169 0D       		.byte	0xd
 1104 016a C2       		.byte	0xc2
 1105 016b 50020000 		.4byte	0x250
 1106 016f 07       		.uleb128 0x7
 1107 0170 7F050000 		.4byte	.LASF31
 1108 0174 0D       		.byte	0xd
 1109 0175 C3       		.byte	0xc3
 1110 0176 5B020000 		.4byte	0x25b
 1111 017a 00       		.byte	0
 1112 017b 07       		.uleb128 0x7
 1113 017c FD040000 		.4byte	.LASF32
 1114 0180 0D       		.byte	0xd
 1115 0181 C5       		.byte	0xc5
 1116 0182 5B020000 		.4byte	0x25b
ARM GAS  /tmp/ccSKVCga.s 			page 21


 1117 0186 04       		.byte	0x4
 1118 0187 07       		.uleb128 0x7
 1119 0188 48040000 		.4byte	.LASF33
 1120 018c 0D       		.byte	0xd
 1121 018d C7       		.byte	0xc7
 1122 018e 16010000 		.4byte	0x116
 1123 0192 08       		.byte	0x8
 1124 0193 07       		.uleb128 0x7
 1125 0194 C2070000 		.4byte	.LASF34
 1126 0198 0D       		.byte	0xd
 1127 0199 C8       		.byte	0xc8
 1128 019a FA040000 		.4byte	0x4fa
 1129 019e 0C       		.byte	0xc
 1130 019f 07       		.uleb128 0x7
 1131 01a0 5A020000 		.4byte	.LASF35
 1132 01a4 0D       		.byte	0xd
 1133 01a5 CA       		.byte	0xca
 1134 01a6 5B020000 		.4byte	0x25b
 1135 01aa 10       		.byte	0x10
 1136 01ab 07       		.uleb128 0x7
 1137 01ac 5B040000 		.4byte	.LASF36
 1138 01b0 0D       		.byte	0xd
 1139 01b1 CB       		.byte	0xcb
 1140 01b2 5B020000 		.4byte	0x25b
 1141 01b6 14       		.byte	0x14
 1142 01b7 07       		.uleb128 0x7
 1143 01b8 97050000 		.4byte	.LASF37
 1144 01bc 0D       		.byte	0xd
 1145 01bd D2       		.byte	0xd2
 1146 01be 79060000 		.4byte	0x679
 1147 01c2 18       		.byte	0x18
 1148 01c3 07       		.uleb128 0x7
 1149 01c4 55050000 		.4byte	.LASF38
 1150 01c8 0D       		.byte	0xd
 1151 01c9 DD       		.byte	0xdd
 1152 01ca 00010000 		.4byte	0x100
 1153 01ce 1C       		.byte	0x1c
 1154 01cf 07       		.uleb128 0x7
 1155 01d0 86050000 		.4byte	.LASF39
 1156 01d4 0D       		.byte	0xd
 1157 01d5 E1       		.byte	0xe1
 1158 01d6 F5000000 		.4byte	0xf5
 1159 01da 1D       		.byte	0x1d
 1160 01db 07       		.uleb128 0x7
 1161 01dc 8A010000 		.4byte	.LASF40
 1162 01e0 0D       		.byte	0xd
 1163 01e1 E6       		.byte	0xe6
 1164 01e2 0B010000 		.4byte	0x10b
 1165 01e6 1E       		.byte	0x1e
 1166 01e7 08       		.uleb128 0x8
 1167 01e8 705F7500 		.ascii	"p_u\000"
 1168 01ec 0D       		.byte	0xd
 1169 01ed 3101     		.2byte	0x131
 1170 01ef B4050000 		.4byte	0x5b4
 1171 01f3 20       		.byte	0x20
 1172 01f4 09       		.uleb128 0x9
 1173 01f5 FB030000 		.4byte	.LASF41
ARM GAS  /tmp/ccSKVCga.s 			page 22


 1174 01f9 0D       		.byte	0xd
 1175 01fa 3601     		.2byte	0x136
 1176 01fc 61020000 		.4byte	0x261
 1177 0200 24       		.byte	0x24
 1178 0201 09       		.uleb128 0x9
 1179 0202 14030000 		.4byte	.LASF42
 1180 0206 0D       		.byte	0xd
 1181 0207 3C01     		.2byte	0x13c
 1182 0209 85020000 		.4byte	0x285
 1183 020d 28       		.byte	0x28
 1184 020e 09       		.uleb128 0x9
 1185 020f A6070000 		.4byte	.LASF43
 1186 0213 0D       		.byte	0xd
 1187 0214 4001     		.2byte	0x140
 1188 0216 21010000 		.4byte	0x121
 1189 021a 30       		.byte	0x30
 1190 021b 09       		.uleb128 0x9
 1191 021c D3050000 		.4byte	.LASF44
 1192 0220 0D       		.byte	0xd
 1193 0221 4601     		.2byte	0x146
 1194 0223 2C010000 		.4byte	0x12c
 1195 0227 34       		.byte	0x34
 1196 0228 09       		.uleb128 0x9
 1197 0229 5D050000 		.4byte	.LASF45
 1198 022d 0D       		.byte	0xd
 1199 022e 4D01     		.2byte	0x14d
 1200 0230 73060000 		.4byte	0x673
 1201 0234 38       		.byte	0x38
 1202 0235 09       		.uleb128 0x9
 1203 0236 86060000 		.4byte	.LASF46
 1204 023a 0D       		.byte	0xd
 1205 023b 5101     		.2byte	0x151
 1206 023d 16010000 		.4byte	0x116
 1207 0241 3C       		.byte	0x3c
 1208 0242 09       		.uleb128 0x9
 1209 0243 24010000 		.4byte	.LASF47
 1210 0247 0D       		.byte	0xd
 1211 0248 5801     		.2byte	0x158
 1212 024a 38030000 		.4byte	0x338
 1213 024e 40       		.byte	0x40
 1214 024f 00       		.byte	0
 1215 0250 03       		.uleb128 0x3
 1216 0251 0E040000 		.4byte	.LASF48
 1217 0255 0C       		.byte	0xc
 1218 0256 44       		.byte	0x44
 1219 0257 5B020000 		.4byte	0x25b
 1220 025b 0A       		.uleb128 0xa
 1221 025c 04       		.byte	0x4
 1222 025d 58010000 		.4byte	0x158
 1223 0261 03       		.uleb128 0x3
 1224 0262 8B070000 		.4byte	.LASF49
 1225 0266 0C       		.byte	0xc
 1226 0267 49       		.byte	0x49
 1227 0268 6C020000 		.4byte	0x26c
 1228 026c 06       		.uleb128 0x6
 1229 026d 09060000 		.4byte	.LASF51
 1230 0271 04       		.byte	0x4
ARM GAS  /tmp/ccSKVCga.s 			page 23


 1231 0272 0D       		.byte	0xd
 1232 0273 B0       		.byte	0xb0
 1233 0274 85020000 		.4byte	0x285
 1234 0278 07       		.uleb128 0x7
 1235 0279 7F050000 		.4byte	.LASF31
 1236 027d 0D       		.byte	0xd
 1237 027e B1       		.byte	0xb1
 1238 027f 5B020000 		.4byte	0x25b
 1239 0283 00       		.byte	0
 1240 0284 00       		.byte	0
 1241 0285 03       		.uleb128 0x3
 1242 0286 B6050000 		.4byte	.LASF52
 1243 028a 0C       		.byte	0xc
 1244 028b 50       		.byte	0x50
 1245 028c 90020000 		.4byte	0x290
 1246 0290 06       		.uleb128 0x6
 1247 0291 D7000000 		.4byte	.LASF53
 1248 0295 08       		.byte	0x8
 1249 0296 0D       		.byte	0xd
 1250 0297 B7       		.byte	0xb7
 1251 0298 B5020000 		.4byte	0x2b5
 1252 029c 07       		.uleb128 0x7
 1253 029d 7F050000 		.4byte	.LASF31
 1254 02a1 0D       		.byte	0xd
 1255 02a2 B8       		.byte	0xb8
 1256 02a3 5B020000 		.4byte	0x25b
 1257 02a7 00       		.byte	0
 1258 02a8 07       		.uleb128 0x7
 1259 02a9 FD040000 		.4byte	.LASF32
 1260 02ad 0D       		.byte	0xd
 1261 02ae B9       		.byte	0xb9
 1262 02af 5B020000 		.4byte	0x25b
 1263 02b3 04       		.byte	0x4
 1264 02b4 00       		.byte	0
 1265 02b5 03       		.uleb128 0x3
 1266 02b6 08000000 		.4byte	.LASF54
 1267 02ba 0C       		.byte	0xc
 1268 02bb 57       		.byte	0x57
 1269 02bc C0020000 		.4byte	0x2c0
 1270 02c0 0B       		.uleb128 0xb
 1271 02c1 AD030000 		.4byte	.LASF55
 1272 02c5 1C       		.byte	0x1c
 1273 02c6 0D       		.byte	0xd
 1274 02c7 9001     		.2byte	0x190
 1275 02c9 1C030000 		.4byte	0x31c
 1276 02cd 09       		.uleb128 0x9
 1277 02ce F8050000 		.4byte	.LASF56
 1278 02d2 0D       		.byte	0xd
 1279 02d3 9101     		.2byte	0x191
 1280 02d5 85020000 		.4byte	0x285
 1281 02d9 00       		.byte	0
 1282 02da 09       		.uleb128 0x9
 1283 02db 71050000 		.4byte	.LASF57
 1284 02df 0D       		.byte	0xd
 1285 02e0 9201     		.2byte	0x192
 1286 02e2 16010000 		.4byte	0x116
 1287 02e6 08       		.byte	0x8
ARM GAS  /tmp/ccSKVCga.s 			page 24


 1288 02e7 09       		.uleb128 0x9
 1289 02e8 63040000 		.4byte	.LASF58
 1290 02ec 0D       		.byte	0xd
 1291 02ed 9401     		.2byte	0x194
 1292 02ef FA040000 		.4byte	0x4fa
 1293 02f3 0C       		.byte	0xc
 1294 02f4 09       		.uleb128 0x9
 1295 02f5 6A020000 		.4byte	.LASF59
 1296 02f9 0D       		.byte	0xd
 1297 02fa 9701     		.2byte	0x197
 1298 02fc 5B020000 		.4byte	0x25b
 1299 0300 10       		.byte	0x10
 1300 0301 09       		.uleb128 0x9
 1301 0302 B1040000 		.4byte	.LASF60
 1302 0306 0D       		.byte	0xd
 1303 0307 9801     		.2byte	0x198
 1304 0309 5B020000 		.4byte	0x25b
 1305 030d 14       		.byte	0x14
 1306 030e 09       		.uleb128 0x9
 1307 030f A7040000 		.4byte	.LASF61
 1308 0313 0D       		.byte	0xd
 1309 0314 9B01     		.2byte	0x19b
 1310 0316 5B020000 		.4byte	0x25b
 1311 031a 18       		.byte	0x18
 1312 031b 00       		.byte	0
 1313 031c 03       		.uleb128 0x3
 1314 031d 91060000 		.4byte	.LASF62
 1315 0321 0C       		.byte	0xc
 1316 0322 5C       		.byte	0x5c
 1317 0323 27030000 		.4byte	0x327
 1318 0327 0A       		.uleb128 0xa
 1319 0328 04       		.byte	0x4
 1320 0329 2D030000 		.4byte	0x32d
 1321 032d 0C       		.uleb128 0xc
 1322 032e 38030000 		.4byte	0x338
 1323 0332 0D       		.uleb128 0xd
 1324 0333 38030000 		.4byte	0x338
 1325 0337 00       		.byte	0
 1326 0338 0E       		.uleb128 0xe
 1327 0339 04       		.byte	0x4
 1328 033a 03       		.uleb128 0x3
 1329 033b ED040000 		.4byte	.LASF63
 1330 033f 0C       		.byte	0xc
 1331 0340 61       		.byte	0x61
 1332 0341 45030000 		.4byte	0x345
 1333 0345 0B       		.uleb128 0xb
 1334 0346 DD060000 		.4byte	.LASF64
 1335 034a 14       		.byte	0x14
 1336 034b 0D       		.byte	0xd
 1337 034c 6B01     		.2byte	0x16b
 1338 034e 94030000 		.4byte	0x394
 1339 0352 09       		.uleb128 0x9
 1340 0353 DD020000 		.4byte	.LASF65
 1341 0357 0D       		.byte	0xd
 1342 0358 6C01     		.2byte	0x16c
 1343 035a 8B060000 		.4byte	0x68b
 1344 035e 00       		.byte	0
ARM GAS  /tmp/ccSKVCga.s 			page 25


 1345 035f 09       		.uleb128 0x9
 1346 0360 7B020000 		.4byte	.LASF66
 1347 0364 0D       		.byte	0xd
 1348 0365 6D01     		.2byte	0x16d
 1349 0367 8B060000 		.4byte	0x68b
 1350 036b 04       		.byte	0x4
 1351 036c 09       		.uleb128 0x9
 1352 036d 00060000 		.4byte	.LASF67
 1353 0371 0D       		.byte	0xd
 1354 0372 6E01     		.2byte	0x16e
 1355 0374 4D010000 		.4byte	0x14d
 1356 0378 08       		.byte	0x8
 1357 0379 09       		.uleb128 0x9
 1358 037a C8070000 		.4byte	.LASF68
 1359 037e 0D       		.byte	0xd
 1360 037f 6F01     		.2byte	0x16f
 1361 0381 1C030000 		.4byte	0x31c
 1362 0385 0C       		.byte	0xc
 1363 0386 09       		.uleb128 0x9
 1364 0387 FF060000 		.4byte	.LASF69
 1365 038b 0D       		.byte	0xd
 1366 038c 7101     		.2byte	0x171
 1367 038e 38030000 		.4byte	0x338
 1368 0392 10       		.byte	0x10
 1369 0393 00       		.byte	0
 1370 0394 03       		.uleb128 0x3
 1371 0395 A9000000 		.4byte	.LASF70
 1372 0399 0C       		.byte	0xc
 1373 039a 66       		.byte	0x66
 1374 039b 9F030000 		.4byte	0x39f
 1375 039f 0B       		.uleb128 0xb
 1376 03a0 21040000 		.4byte	.LASF71
 1377 03a4 10       		.byte	0x10
 1378 03a5 0D       		.byte	0xd
 1379 03a6 7B01     		.2byte	0x17b
 1380 03a8 E1030000 		.4byte	0x3e1
 1381 03ac 09       		.uleb128 0x9
 1382 03ad DD020000 		.4byte	.LASF65
 1383 03b1 0D       		.byte	0xd
 1384 03b2 7C01     		.2byte	0x17c
 1385 03b4 8B060000 		.4byte	0x68b
 1386 03b8 00       		.byte	0
 1387 03b9 09       		.uleb128 0x9
 1388 03ba 7B020000 		.4byte	.LASF66
 1389 03be 0D       		.byte	0xd
 1390 03bf 7E01     		.2byte	0x17e
 1391 03c1 8B060000 		.4byte	0x68b
 1392 03c5 04       		.byte	0x4
 1393 03c6 09       		.uleb128 0x9
 1394 03c7 00060000 		.4byte	.LASF67
 1395 03cb 0D       		.byte	0xd
 1396 03cc 8001     		.2byte	0x180
 1397 03ce 4D010000 		.4byte	0x14d
 1398 03d2 08       		.byte	0x8
 1399 03d3 09       		.uleb128 0x9
 1400 03d4 4F040000 		.4byte	.LASF72
 1401 03d8 0D       		.byte	0xd
ARM GAS  /tmp/ccSKVCga.s 			page 26


 1402 03d9 8801     		.2byte	0x188
 1403 03db 4D010000 		.4byte	0x14d
 1404 03df 0C       		.byte	0xc
 1405 03e0 00       		.byte	0
 1406 03e1 03       		.uleb128 0x3
 1407 03e2 42000000 		.4byte	.LASF73
 1408 03e6 0C       		.byte	0xc
 1409 03e7 6B       		.byte	0x6b
 1410 03e8 EC030000 		.4byte	0x3ec
 1411 03ec 0B       		.uleb128 0xb
 1412 03ed 14050000 		.4byte	.LASF74
 1413 03f1 04       		.byte	0x4
 1414 03f2 0D       		.byte	0xd
 1415 03f3 A201     		.2byte	0x1a2
 1416 03f5 07040000 		.4byte	0x407
 1417 03f9 09       		.uleb128 0x9
 1418 03fa B3060000 		.4byte	.LASF75
 1419 03fe 0D       		.byte	0xd
 1420 03ff AA01     		.2byte	0x1aa
 1421 0401 91060000 		.4byte	0x691
 1422 0405 00       		.byte	0
 1423 0406 00       		.byte	0
 1424 0407 03       		.uleb128 0x3
 1425 0408 84030000 		.4byte	.LASF76
 1426 040c 0C       		.byte	0xc
 1427 040d 70       		.byte	0x70
 1428 040e 12040000 		.4byte	0x412
 1429 0412 0F       		.uleb128 0xf
 1430 0413 61010000 		.4byte	.LASF77
 1431 0417 5001     		.2byte	0x150
 1432 0419 0D       		.byte	0xd
 1433 041a C201     		.2byte	0x1c2
 1434 041c 6E040000 		.4byte	0x46e
 1435 0420 09       		.uleb128 0x9
 1436 0421 59070000 		.4byte	.LASF78
 1437 0425 0D       		.byte	0xd
 1438 0426 C601     		.2byte	0x1c6
 1439 0428 B5020000 		.4byte	0x2b5
 1440 042c 00       		.byte	0
 1441 042d 09       		.uleb128 0x9
 1442 042e 48010000 		.4byte	.LASF79
 1443 0432 0D       		.byte	0xd
 1444 0433 CA01     		.2byte	0x1ca
 1445 0435 94030000 		.4byte	0x394
 1446 0439 1C       		.byte	0x1c
 1447 043a 08       		.uleb128 0x8
 1448 043b 64626700 		.ascii	"dbg\000"
 1449 043f 0D       		.byte	0xd
 1450 0440 CE01     		.2byte	0x1ce
 1451 0442 E1030000 		.4byte	0x3e1
 1452 0446 2C       		.byte	0x2c
 1453 0447 09       		.uleb128 0x9
 1454 0448 94000000 		.4byte	.LASF80
 1455 044c 0D       		.byte	0xd
 1456 044d D201     		.2byte	0x1d2
 1457 044f 58010000 		.4byte	0x158
 1458 0453 30       		.byte	0x30
ARM GAS  /tmp/ccSKVCga.s 			page 27


 1459 0454 08       		.uleb128 0x8
 1460 0455 746D00   		.ascii	"tm\000"
 1461 0458 0D       		.byte	0xd
 1462 0459 D701     		.2byte	0x1d7
 1463 045b A9050000 		.4byte	0x5a9
 1464 045f 74       		.byte	0x74
 1465 0460 09       		.uleb128 0x9
 1466 0461 B5020000 		.4byte	.LASF81
 1467 0465 0D       		.byte	0xd
 1468 0466 E301     		.2byte	0x1e3
 1469 0468 96060000 		.4byte	0x696
 1470 046c 78       		.byte	0x78
 1471 046d 00       		.byte	0
 1472 046e 04       		.uleb128 0x4
 1473 046f 04       		.byte	0x4
 1474 0470 07       		.byte	0x7
 1475 0471 05040000 		.4byte	.LASF82
 1476 0475 10       		.uleb128 0x10
 1477 0476 1C       		.byte	0x1c
 1478 0477 0E       		.byte	0xe
 1479 0478 0903     		.2byte	0x309
 1480 047a D8040000 		.4byte	0x4d8
 1481 047e 08       		.uleb128 0x8
 1482 047f 535200   		.ascii	"SR\000"
 1483 0482 0E       		.byte	0xe
 1484 0483 0B03     		.2byte	0x30b
 1485 0485 E5000000 		.4byte	0xe5
 1486 0489 00       		.byte	0
 1487 048a 08       		.uleb128 0x8
 1488 048b 445200   		.ascii	"DR\000"
 1489 048e 0E       		.byte	0xe
 1490 048f 0C03     		.2byte	0x30c
 1491 0491 E5000000 		.4byte	0xe5
 1492 0495 04       		.byte	0x4
 1493 0496 08       		.uleb128 0x8
 1494 0497 42525200 		.ascii	"BRR\000"
 1495 049b 0E       		.byte	0xe
 1496 049c 0D03     		.2byte	0x30d
 1497 049e E5000000 		.4byte	0xe5
 1498 04a2 08       		.byte	0x8
 1499 04a3 08       		.uleb128 0x8
 1500 04a4 43523100 		.ascii	"CR1\000"
 1501 04a8 0E       		.byte	0xe
 1502 04a9 0E03     		.2byte	0x30e
 1503 04ab E5000000 		.4byte	0xe5
 1504 04af 0C       		.byte	0xc
 1505 04b0 08       		.uleb128 0x8
 1506 04b1 43523200 		.ascii	"CR2\000"
 1507 04b5 0E       		.byte	0xe
 1508 04b6 0F03     		.2byte	0x30f
 1509 04b8 E5000000 		.4byte	0xe5
 1510 04bc 10       		.byte	0x10
 1511 04bd 08       		.uleb128 0x8
 1512 04be 43523300 		.ascii	"CR3\000"
 1513 04c2 0E       		.byte	0xe
 1514 04c3 1003     		.2byte	0x310
 1515 04c5 E5000000 		.4byte	0xe5
ARM GAS  /tmp/ccSKVCga.s 			page 28


 1516 04c9 14       		.byte	0x14
 1517 04ca 09       		.uleb128 0x9
 1518 04cb 1F010000 		.4byte	.LASF83
 1519 04cf 0E       		.byte	0xe
 1520 04d0 1103     		.2byte	0x311
 1521 04d2 E5000000 		.4byte	0xe5
 1522 04d6 18       		.byte	0x18
 1523 04d7 00       		.byte	0
 1524 04d8 11       		.uleb128 0x11
 1525 04d9 90030000 		.4byte	.LASF84
 1526 04dd 0E       		.byte	0xe
 1527 04de 1203     		.2byte	0x312
 1528 04e0 75040000 		.4byte	0x475
 1529 04e4 03       		.uleb128 0x3
 1530 04e5 72020000 		.4byte	.LASF85
 1531 04e9 0F       		.byte	0xf
 1532 04ea 65       		.byte	0x65
 1533 04eb 38030000 		.4byte	0x338
 1534 04ef 03       		.uleb128 0x3
 1535 04f0 D7030000 		.4byte	.LASF86
 1536 04f4 0F       		.byte	0xf
 1537 04f5 6D       		.byte	0x6d
 1538 04f6 D5000000 		.4byte	0xd5
 1539 04fa 06       		.uleb128 0x6
 1540 04fb D5060000 		.4byte	.LASF87
 1541 04ff 04       		.byte	0x4
 1542 0500 0F       		.byte	0xf
 1543 0501 89       		.byte	0x89
 1544 0502 13050000 		.4byte	0x513
 1545 0506 12       		.uleb128 0x12
 1546 0507 72313300 		.ascii	"r13\000"
 1547 050b 0F       		.byte	0xf
 1548 050c 8A       		.byte	0x8a
 1549 050d 8E050000 		.4byte	0x58e
 1550 0511 00       		.byte	0
 1551 0512 00       		.byte	0
 1552 0513 06       		.uleb128 0x6
 1553 0514 36000000 		.4byte	.LASF88
 1554 0518 24       		.byte	0x24
 1555 0519 01       		.byte	0x1
 1556 051a FD       		.byte	0xfd
 1557 051b 8E050000 		.4byte	0x58e
 1558 051f 08       		.uleb128 0x8
 1559 0520 723400   		.ascii	"r4\000"
 1560 0523 01       		.byte	0x1
 1561 0524 1001     		.2byte	0x110
 1562 0526 E4040000 		.4byte	0x4e4
 1563 052a 00       		.byte	0
 1564 052b 08       		.uleb128 0x8
 1565 052c 723500   		.ascii	"r5\000"
 1566 052f 01       		.byte	0x1
 1567 0530 1101     		.2byte	0x111
 1568 0532 E4040000 		.4byte	0x4e4
 1569 0536 04       		.byte	0x4
 1570 0537 08       		.uleb128 0x8
 1571 0538 723600   		.ascii	"r6\000"
 1572 053b 01       		.byte	0x1
ARM GAS  /tmp/ccSKVCga.s 			page 29


 1573 053c 1201     		.2byte	0x112
 1574 053e E4040000 		.4byte	0x4e4
 1575 0542 08       		.byte	0x8
 1576 0543 08       		.uleb128 0x8
 1577 0544 723700   		.ascii	"r7\000"
 1578 0547 01       		.byte	0x1
 1579 0548 1301     		.2byte	0x113
 1580 054a E4040000 		.4byte	0x4e4
 1581 054e 0C       		.byte	0xc
 1582 054f 08       		.uleb128 0x8
 1583 0550 723800   		.ascii	"r8\000"
 1584 0553 01       		.byte	0x1
 1585 0554 1401     		.2byte	0x114
 1586 0556 E4040000 		.4byte	0x4e4
 1587 055a 10       		.byte	0x10
 1588 055b 08       		.uleb128 0x8
 1589 055c 723900   		.ascii	"r9\000"
 1590 055f 01       		.byte	0x1
 1591 0560 1501     		.2byte	0x115
 1592 0562 E4040000 		.4byte	0x4e4
 1593 0566 14       		.byte	0x14
 1594 0567 08       		.uleb128 0x8
 1595 0568 72313000 		.ascii	"r10\000"
 1596 056c 01       		.byte	0x1
 1597 056d 1601     		.2byte	0x116
 1598 056f E4040000 		.4byte	0x4e4
 1599 0573 18       		.byte	0x18
 1600 0574 08       		.uleb128 0x8
 1601 0575 72313100 		.ascii	"r11\000"
 1602 0579 01       		.byte	0x1
 1603 057a 1701     		.2byte	0x117
 1604 057c E4040000 		.4byte	0x4e4
 1605 0580 1C       		.byte	0x1c
 1606 0581 08       		.uleb128 0x8
 1607 0582 6C7200   		.ascii	"lr\000"
 1608 0585 01       		.byte	0x1
 1609 0586 1801     		.2byte	0x118
 1610 0588 E4040000 		.4byte	0x4e4
 1611 058c 20       		.byte	0x20
 1612 058d 00       		.byte	0
 1613 058e 0A       		.uleb128 0xa
 1614 058f 04       		.byte	0x4
 1615 0590 13050000 		.4byte	0x513
 1616 0594 13       		.uleb128 0x13
 1617 0595 04       		.byte	0x4
 1618 0596 10       		.byte	0x10
 1619 0597 38       		.byte	0x38
 1620 0598 A9050000 		.4byte	0x5a9
 1621 059c 07       		.uleb128 0x7
 1622 059d BD060000 		.4byte	.LASF89
 1623 05a1 10       		.byte	0x10
 1624 05a2 3C       		.byte	0x3c
 1625 05a3 EA000000 		.4byte	0xea
 1626 05a7 00       		.byte	0
 1627 05a8 00       		.byte	0
 1628 05a9 03       		.uleb128 0x3
 1629 05aa 69040000 		.4byte	.LASF90
ARM GAS  /tmp/ccSKVCga.s 			page 30


 1630 05ae 10       		.byte	0x10
 1631 05af 3D       		.byte	0x3d
 1632 05b0 94050000 		.4byte	0x594
 1633 05b4 14       		.uleb128 0x14
 1634 05b5 04       		.byte	0x4
 1635 05b6 0D       		.byte	0xd
 1636 05b7 FA       		.byte	0xfa
 1637 05b8 11060000 		.4byte	0x611
 1638 05bc 15       		.uleb128 0x15
 1639 05bd 1C000000 		.4byte	.LASF91
 1640 05c1 0D       		.byte	0xd
 1641 05c2 0101     		.2byte	0x101
 1642 05c4 21010000 		.4byte	0x121
 1643 05c8 15       		.uleb128 0x15
 1644 05c9 8B000000 		.4byte	.LASF92
 1645 05cd 0D       		.byte	0xd
 1646 05ce 0801     		.2byte	0x108
 1647 05d0 21010000 		.4byte	0x121
 1648 05d4 15       		.uleb128 0x15
 1649 05d5 84070000 		.4byte	.LASF93
 1650 05d9 0D       		.byte	0xd
 1651 05da 0F01     		.2byte	0x10f
 1652 05dc 38030000 		.4byte	0x338
 1653 05e0 15       		.uleb128 0x15
 1654 05e1 42040000 		.4byte	.LASF94
 1655 05e5 0D       		.byte	0xd
 1656 05e6 1601     		.2byte	0x116
 1657 05e8 11060000 		.4byte	0x611
 1658 05ec 15       		.uleb128 0x15
 1659 05ed 06030000 		.4byte	.LASF95
 1660 05f1 0D       		.byte	0xd
 1661 05f2 1E01     		.2byte	0x11e
 1662 05f4 3C060000 		.4byte	0x63c
 1663 05f8 15       		.uleb128 0x15
 1664 05f9 F1050000 		.4byte	.LASF96
 1665 05fd 0D       		.byte	0xd
 1666 05fe 2701     		.2byte	0x127
 1667 0600 73060000 		.4byte	0x673
 1668 0604 15       		.uleb128 0x15
 1669 0605 78050000 		.4byte	.LASF97
 1670 0609 0D       		.byte	0xd
 1671 060a 2F01     		.2byte	0x12f
 1672 060c 2C010000 		.4byte	0x12c
 1673 0610 00       		.byte	0
 1674 0611 0A       		.uleb128 0xa
 1675 0612 04       		.byte	0x4
 1676 0613 50020000 		.4byte	0x250
 1677 0617 06       		.uleb128 0x6
 1678 0618 C6050000 		.4byte	.LASF98
 1679 061c 0C       		.byte	0xc
 1680 061d 11       		.byte	0x11
 1681 061e 34       		.byte	0x34
 1682 061f 3C060000 		.4byte	0x63c
 1683 0623 07       		.uleb128 0x7
 1684 0624 62020000 		.4byte	.LASF99
 1685 0628 11       		.byte	0x11
 1686 0629 35       		.byte	0x35
ARM GAS  /tmp/ccSKVCga.s 			page 31


 1687 062a 85020000 		.4byte	0x285
 1688 062e 00       		.byte	0
 1689 062f 07       		.uleb128 0x7
 1690 0630 2C030000 		.4byte	.LASF100
 1691 0634 11       		.byte	0x11
 1692 0635 37       		.byte	0x37
 1693 0636 42010000 		.4byte	0x142
 1694 063a 08       		.byte	0x8
 1695 063b 00       		.byte	0
 1696 063c 0A       		.uleb128 0xa
 1697 063d 04       		.byte	0x4
 1698 063e 17060000 		.4byte	0x617
 1699 0642 06       		.uleb128 0x6
 1700 0643 32070000 		.4byte	.LASF101
 1701 0647 10       		.byte	0x10
 1702 0648 12       		.byte	0x12
 1703 0649 39       		.byte	0x39
 1704 064a 73060000 		.4byte	0x673
 1705 064e 07       		.uleb128 0x7
 1706 064f 40010000 		.4byte	.LASF102
 1707 0653 12       		.byte	0x12
 1708 0654 3A       		.byte	0x3a
 1709 0655 85020000 		.4byte	0x285
 1710 0659 00       		.byte	0
 1711 065a 07       		.uleb128 0x7
 1712 065b BA070000 		.4byte	.LASF103
 1713 065f 12       		.byte	0x12
 1714 0660 3C       		.byte	0x3c
 1715 0661 5B020000 		.4byte	0x25b
 1716 0665 08       		.byte	0x8
 1717 0666 07       		.uleb128 0x7
 1718 0667 75060000 		.4byte	.LASF104
 1719 066b 12       		.byte	0x12
 1720 066c 3E       		.byte	0x3e
 1721 066d B1060000 		.4byte	0x6b1
 1722 0671 0C       		.byte	0xc
 1723 0672 00       		.byte	0
 1724 0673 0A       		.uleb128 0xa
 1725 0674 04       		.byte	0x4
 1726 0675 42060000 		.4byte	0x642
 1727 0679 0A       		.uleb128 0xa
 1728 067a 04       		.byte	0x4
 1729 067b 7F060000 		.4byte	0x67f
 1730 067f 16       		.uleb128 0x16
 1731 0680 84060000 		.4byte	0x684
 1732 0684 04       		.uleb128 0x4
 1733 0685 01       		.byte	0x1
 1734 0686 08       		.byte	0x8
 1735 0687 3D060000 		.4byte	.LASF105
 1736 068b 0A       		.uleb128 0xa
 1737 068c 04       		.byte	0x4
 1738 068d 3A030000 		.4byte	0x33a
 1739 0691 05       		.uleb128 0x5
 1740 0692 79060000 		.4byte	0x679
 1741 0696 17       		.uleb128 0x17
 1742 0697 EF040000 		.4byte	0x4ef
 1743 069b A6060000 		.4byte	0x6a6
ARM GAS  /tmp/ccSKVCga.s 			page 32


 1744 069f 18       		.uleb128 0x18
 1745 06a0 6E040000 		.4byte	0x46e
 1746 06a4 1A       		.byte	0x1a
 1747 06a5 00       		.byte	0
 1748 06a6 03       		.uleb128 0x3
 1749 06a7 8F020000 		.4byte	.LASF106
 1750 06ab 12       		.byte	0x12
 1751 06ac 34       		.byte	0x34
 1752 06ad 42060000 		.4byte	0x642
 1753 06b1 0A       		.uleb128 0xa
 1754 06b2 04       		.byte	0x4
 1755 06b3 A6060000 		.4byte	0x6a6
 1756 06b7 03       		.uleb128 0x3
 1757 06b8 C4060000 		.4byte	.LASF107
 1758 06bc 04       		.byte	0x4
 1759 06bd 34       		.byte	0x34
 1760 06be C2060000 		.4byte	0x6c2
 1761 06c2 06       		.uleb128 0x6
 1762 06c3 D0070000 		.4byte	.LASF108
 1763 06c7 14       		.byte	0x14
 1764 06c8 04       		.byte	0x4
 1765 06c9 39       		.byte	0x39
 1766 06ca 0B070000 		.4byte	0x70b
 1767 06ce 07       		.uleb128 0x7
 1768 06cf 7C030000 		.4byte	.LASF109
 1769 06d3 04       		.byte	0x4
 1770 06d4 3A       		.byte	0x3a
 1771 06d5 0B070000 		.4byte	0x70b
 1772 06d9 00       		.byte	0
 1773 06da 07       		.uleb128 0x7
 1774 06db 40050000 		.4byte	.LASF110
 1775 06df 04       		.byte	0x4
 1776 06e0 3D       		.byte	0x3d
 1777 06e1 5B020000 		.4byte	0x25b
 1778 06e5 04       		.byte	0x4
 1779 06e6 07       		.uleb128 0x7
 1780 06e7 B9040000 		.4byte	.LASF111
 1781 06eb 04       		.byte	0x4
 1782 06ec 3F       		.byte	0x3f
 1783 06ed 2C010000 		.4byte	0x12c
 1784 06f1 08       		.byte	0x8
 1785 06f2 07       		.uleb128 0x7
 1786 06f3 4C050000 		.4byte	.LASF112
 1787 06f7 04       		.byte	0x4
 1788 06f8 41       		.byte	0x41
 1789 06f9 37010000 		.4byte	0x137
 1790 06fd 0C       		.byte	0xc
 1791 06fe 07       		.uleb128 0x7
 1792 06ff 65030000 		.4byte	.LASF113
 1793 0703 04       		.byte	0x4
 1794 0704 43       		.byte	0x43
 1795 0705 37010000 		.4byte	0x137
 1796 0709 10       		.byte	0x10
 1797 070a 00       		.byte	0
 1798 070b 0A       		.uleb128 0xa
 1799 070c 04       		.byte	0x4
 1800 070d B7060000 		.4byte	0x6b7
ARM GAS  /tmp/ccSKVCga.s 			page 33


 1801 0711 06       		.uleb128 0x6
 1802 0712 74010000 		.4byte	.LASF114
 1803 0716 04       		.byte	0x4
 1804 0717 04       		.byte	0x4
 1805 0718 4A       		.byte	0x4a
 1806 0719 2A070000 		.4byte	0x72a
 1807 071d 07       		.uleb128 0x7
 1808 071e 3B070000 		.4byte	.LASF115
 1809 0722 04       		.byte	0x4
 1810 0723 4B       		.byte	0x4b
 1811 0724 0B070000 		.4byte	0x70b
 1812 0728 00       		.byte	0
 1813 0729 00       		.byte	0
 1814 072a 03       		.uleb128 0x3
 1815 072b A6020000 		.4byte	.LASF116
 1816 072f 04       		.byte	0x4
 1817 0730 4E       		.byte	0x4e
 1818 0731 11070000 		.4byte	0x711
 1819 0735 03       		.uleb128 0x3
 1820 0736 CC000000 		.4byte	.LASF117
 1821 073a 05       		.byte	0x5
 1822 073b 3F       		.byte	0x3f
 1823 073c 40070000 		.4byte	0x740
 1824 0740 06       		.uleb128 0x6
 1825 0741 9D020000 		.4byte	.LASF118
 1826 0745 24       		.byte	0x24
 1827 0746 05       		.byte	0x5
 1828 0747 4D       		.byte	0x4d
 1829 0748 AD070000 		.4byte	0x7ad
 1830 074c 07       		.uleb128 0x7
 1831 074d FB000000 		.4byte	.LASF119
 1832 0751 05       		.byte	0x5
 1833 0752 4E       		.byte	0x4e
 1834 0753 85020000 		.4byte	0x285
 1835 0757 00       		.byte	0
 1836 0758 07       		.uleb128 0x7
 1837 0759 38040000 		.4byte	.LASF120
 1838 075d 05       		.byte	0x5
 1839 075e 4F       		.byte	0x4f
 1840 075f CF070000 		.4byte	0x7cf
 1841 0763 08       		.byte	0x8
 1842 0764 07       		.uleb128 0x7
 1843 0765 91010000 		.4byte	.LASF121
 1844 0769 05       		.byte	0x5
 1845 076a 50       		.byte	0x50
 1846 076b D4070000 		.4byte	0x7d4
 1847 076f 0C       		.byte	0xc
 1848 0770 07       		.uleb128 0x7
 1849 0771 2C070000 		.4byte	.LASF122
 1850 0775 05       		.byte	0x5
 1851 0776 51       		.byte	0x51
 1852 0777 D4070000 		.4byte	0x7d4
 1853 077b 10       		.byte	0x10
 1854 077c 07       		.uleb128 0x7
 1855 077d 9A010000 		.4byte	.LASF123
 1856 0781 05       		.byte	0x5
 1857 0782 53       		.byte	0x53
ARM GAS  /tmp/ccSKVCga.s 			page 34


 1858 0783 D4070000 		.4byte	0x7d4
 1859 0787 14       		.byte	0x14
 1860 0788 07       		.uleb128 0x7
 1861 0789 0C050000 		.4byte	.LASF124
 1862 078d 05       		.byte	0x5
 1863 078e 54       		.byte	0x54
 1864 078f D4070000 		.4byte	0x7d4
 1865 0793 18       		.byte	0x18
 1866 0794 07       		.uleb128 0x7
 1867 0795 50070000 		.4byte	.LASF125
 1868 0799 05       		.byte	0x5
 1869 079a 55       		.byte	0x55
 1870 079b AD070000 		.4byte	0x7ad
 1871 079f 1C       		.byte	0x1c
 1872 07a0 07       		.uleb128 0x7
 1873 07a1 B3070000 		.4byte	.LASF126
 1874 07a5 05       		.byte	0x5
 1875 07a6 56       		.byte	0x56
 1876 07a7 38030000 		.4byte	0x338
 1877 07ab 20       		.byte	0x20
 1878 07ac 00       		.byte	0
 1879 07ad 03       		.uleb128 0x3
 1880 07ae CD030000 		.4byte	.LASF127
 1881 07b2 05       		.byte	0x5
 1882 07b3 42       		.byte	0x42
 1883 07b4 B8070000 		.4byte	0x7b8
 1884 07b8 0A       		.uleb128 0xa
 1885 07b9 04       		.byte	0x4
 1886 07ba BE070000 		.4byte	0x7be
 1887 07be 0C       		.uleb128 0xc
 1888 07bf C9070000 		.4byte	0x7c9
 1889 07c3 0D       		.uleb128 0xd
 1890 07c4 C9070000 		.4byte	0x7c9
 1891 07c8 00       		.byte	0
 1892 07c9 0A       		.uleb128 0xa
 1893 07ca 04       		.byte	0x4
 1894 07cb 35070000 		.4byte	0x735
 1895 07cf 05       		.uleb128 0x5
 1896 07d0 28000000 		.4byte	0x28
 1897 07d4 0A       		.uleb128 0xa
 1898 07d5 04       		.byte	0x4
 1899 07d6 A9000000 		.4byte	0xa9
 1900 07da 03       		.uleb128 0x3
 1901 07db E8030000 		.4byte	.LASF128
 1902 07df 05       		.byte	0x5
 1903 07e0 64       		.byte	0x64
 1904 07e1 35070000 		.4byte	0x735
 1905 07e5 03       		.uleb128 0x3
 1906 07e6 13070000 		.4byte	.LASF129
 1907 07ea 05       		.byte	0x5
 1908 07eb 71       		.byte	0x71
 1909 07ec 35070000 		.4byte	0x735
 1910 07f0 19       		.uleb128 0x19
 1911 07f1 28000000 		.4byte	0x28
 1912 07f5 09080000 		.4byte	0x809
 1913 07f9 0D       		.uleb128 0xd
 1914 07fa 38030000 		.4byte	0x338
ARM GAS  /tmp/ccSKVCga.s 			page 35


 1915 07fe 0D       		.uleb128 0xd
 1916 07ff 09080000 		.4byte	0x809
 1917 0803 0D       		.uleb128 0xd
 1918 0804 28000000 		.4byte	0x28
 1919 0808 00       		.byte	0
 1920 0809 0A       		.uleb128 0xa
 1921 080a 04       		.byte	0x4
 1922 080b 0F080000 		.4byte	0x80f
 1923 080f 16       		.uleb128 0x16
 1924 0810 A9000000 		.4byte	0xa9
 1925 0814 0A       		.uleb128 0xa
 1926 0815 04       		.byte	0x4
 1927 0816 F0070000 		.4byte	0x7f0
 1928 081a 19       		.uleb128 0x19
 1929 081b 28000000 		.4byte	0x28
 1930 081f 33080000 		.4byte	0x833
 1931 0823 0D       		.uleb128 0xd
 1932 0824 38030000 		.4byte	0x338
 1933 0828 0D       		.uleb128 0xd
 1934 0829 D4070000 		.4byte	0x7d4
 1935 082d 0D       		.uleb128 0xd
 1936 082e 28000000 		.4byte	0x28
 1937 0832 00       		.byte	0
 1938 0833 0A       		.uleb128 0xa
 1939 0834 04       		.byte	0x4
 1940 0835 1A080000 		.4byte	0x81a
 1941 0839 19       		.uleb128 0x19
 1942 083a 21010000 		.4byte	0x121
 1943 083e 4D080000 		.4byte	0x84d
 1944 0842 0D       		.uleb128 0xd
 1945 0843 38030000 		.4byte	0x338
 1946 0847 0D       		.uleb128 0xd
 1947 0848 A9000000 		.4byte	0xa9
 1948 084c 00       		.byte	0
 1949 084d 0A       		.uleb128 0xa
 1950 084e 04       		.byte	0x4
 1951 084f 39080000 		.4byte	0x839
 1952 0853 19       		.uleb128 0x19
 1953 0854 21010000 		.4byte	0x121
 1954 0858 62080000 		.4byte	0x862
 1955 085c 0D       		.uleb128 0xd
 1956 085d 38030000 		.4byte	0x338
 1957 0861 00       		.byte	0
 1958 0862 0A       		.uleb128 0xa
 1959 0863 04       		.byte	0x4
 1960 0864 53080000 		.4byte	0x853
 1961 0868 19       		.uleb128 0x19
 1962 0869 21010000 		.4byte	0x121
 1963 086d 81080000 		.4byte	0x881
 1964 0871 0D       		.uleb128 0xd
 1965 0872 38030000 		.4byte	0x338
 1966 0876 0D       		.uleb128 0xd
 1967 0877 A9000000 		.4byte	0xa9
 1968 087b 0D       		.uleb128 0xd
 1969 087c 4D010000 		.4byte	0x14d
 1970 0880 00       		.byte	0
 1971 0881 0A       		.uleb128 0xa
ARM GAS  /tmp/ccSKVCga.s 			page 36


 1972 0882 04       		.byte	0x4
 1973 0883 68080000 		.4byte	0x868
 1974 0887 19       		.uleb128 0x19
 1975 0888 21010000 		.4byte	0x121
 1976 088c 9B080000 		.4byte	0x89b
 1977 0890 0D       		.uleb128 0xd
 1978 0891 38030000 		.4byte	0x338
 1979 0895 0D       		.uleb128 0xd
 1980 0896 4D010000 		.4byte	0x14d
 1981 089a 00       		.byte	0
 1982 089b 0A       		.uleb128 0xa
 1983 089c 04       		.byte	0x4
 1984 089d 87080000 		.4byte	0x887
 1985 08a1 19       		.uleb128 0x19
 1986 08a2 28000000 		.4byte	0x28
 1987 08a6 BF080000 		.4byte	0x8bf
 1988 08aa 0D       		.uleb128 0xd
 1989 08ab 38030000 		.4byte	0x338
 1990 08af 0D       		.uleb128 0xd
 1991 08b0 09080000 		.4byte	0x809
 1992 08b4 0D       		.uleb128 0xd
 1993 08b5 28000000 		.4byte	0x28
 1994 08b9 0D       		.uleb128 0xd
 1995 08ba 4D010000 		.4byte	0x14d
 1996 08be 00       		.byte	0
 1997 08bf 0A       		.uleb128 0xa
 1998 08c0 04       		.byte	0x4
 1999 08c1 A1080000 		.4byte	0x8a1
 2000 08c5 19       		.uleb128 0x19
 2001 08c6 28000000 		.4byte	0x28
 2002 08ca E3080000 		.4byte	0x8e3
 2003 08ce 0D       		.uleb128 0xd
 2004 08cf 38030000 		.4byte	0x338
 2005 08d3 0D       		.uleb128 0xd
 2006 08d4 D4070000 		.4byte	0x7d4
 2007 08d8 0D       		.uleb128 0xd
 2008 08d9 28000000 		.4byte	0x28
 2009 08dd 0D       		.uleb128 0xd
 2010 08de 4D010000 		.4byte	0x14d
 2011 08e2 00       		.byte	0
 2012 08e3 0A       		.uleb128 0xa
 2013 08e4 04       		.byte	0x4
 2014 08e5 C5080000 		.4byte	0x8c5
 2015 08e9 04       		.uleb128 0x4
 2016 08ea 01       		.byte	0x1
 2017 08eb 02       		.byte	0x2
 2018 08ec 24050000 		.4byte	.LASF130
 2019 08f0 1A       		.uleb128 0x1a
 2020 08f1 01       		.byte	0x1
 2021 08f2 13       		.byte	0x13
 2022 08f3 55       		.byte	0x55
 2023 08f4 0B090000 		.4byte	0x90b
 2024 08f8 1B       		.uleb128 0x1b
 2025 08f9 DE050000 		.4byte	.LASF131
 2026 08fd 00       		.sleb128 0
 2027 08fe 1B       		.uleb128 0x1b
 2028 08ff 52020000 		.4byte	.LASF132
ARM GAS  /tmp/ccSKVCga.s 			page 37


 2029 0903 01       		.sleb128 1
 2030 0904 1B       		.uleb128 0x1b
 2031 0905 F6060000 		.4byte	.LASF133
 2032 0909 02       		.sleb128 2
 2033 090a 00       		.byte	0
 2034 090b 03       		.uleb128 0x3
 2035 090c 22070000 		.4byte	.LASF134
 2036 0910 13       		.byte	0x13
 2037 0911 59       		.byte	0x59
 2038 0912 F0080000 		.4byte	0x8f0
 2039 0916 03       		.uleb128 0x3
 2040 0917 19060000 		.4byte	.LASF135
 2041 091b 13       		.byte	0x13
 2042 091c 5E       		.byte	0x5e
 2043 091d 21090000 		.4byte	0x921
 2044 0921 06       		.uleb128 0x6
 2045 0922 19060000 		.4byte	.LASF135
 2046 0926 D8       		.byte	0xd8
 2047 0927 13       		.byte	0x13
 2048 0928 78       		.byte	0x78
 2049 0929 8C090000 		.4byte	0x98c
 2050 092d 12       		.uleb128 0x12
 2051 092e 766D7400 		.ascii	"vmt\000"
 2052 0932 13       		.byte	0x13
 2053 0933 7A       		.byte	0x7a
 2054 0934 430A0000 		.4byte	0xa43
 2055 0938 00       		.byte	0
 2056 0939 07       		.uleb128 0x7
 2057 093a 32030000 		.4byte	.LASF136
 2058 093e 13       		.byte	0x13
 2059 093f 7B       		.byte	0x7b
 2060 0940 2A070000 		.4byte	0x72a
 2061 0944 04       		.byte	0x4
 2062 0945 07       		.uleb128 0x7
 2063 0946 5B010000 		.4byte	.LASF137
 2064 094a 13       		.byte	0x13
 2065 094b 7B       		.byte	0x7b
 2066 094c 0B090000 		.4byte	0x90b
 2067 0950 08       		.byte	0x8
 2068 0951 07       		.uleb128 0x7
 2069 0952 0D030000 		.4byte	.LASF138
 2070 0956 13       		.byte	0x13
 2071 0957 7B       		.byte	0x7b
 2072 0958 DA070000 		.4byte	0x7da
 2073 095c 0C       		.byte	0xc
 2074 095d 07       		.uleb128 0x7
 2075 095e 75030000 		.4byte	.LASF139
 2076 0962 13       		.byte	0x13
 2077 0963 7B       		.byte	0x7b
 2078 0964 E5070000 		.4byte	0x7e5
 2079 0968 30       		.byte	0x30
 2080 0969 12       		.uleb128 0x12
 2081 096a 696200   		.ascii	"ib\000"
 2082 096d 13       		.byte	0x13
 2083 096e 7B       		.byte	0x7b
 2084 096f 4E0A0000 		.4byte	0xa4e
 2085 0973 54       		.byte	0x54
ARM GAS  /tmp/ccSKVCga.s 			page 38


 2086 0974 12       		.uleb128 0x12
 2087 0975 6F6200   		.ascii	"ob\000"
 2088 0978 13       		.byte	0x13
 2089 0979 7B       		.byte	0x7b
 2090 097a 4E0A0000 		.4byte	0xa4e
 2091 097e 94       		.byte	0x94
 2092 097f 07       		.uleb128 0x7
 2093 0980 CA020000 		.4byte	.LASF140
 2094 0984 13       		.byte	0x13
 2095 0985 7B       		.byte	0x7b
 2096 0986 5E0A0000 		.4byte	0xa5e
 2097 098a D4       		.byte	0xd4
 2098 098b 00       		.byte	0
 2099 098c 10       		.uleb128 0x10
 2100 098d 0C       		.byte	0xc
 2101 098e 14       		.byte	0x14
 2102 098f 0A01     		.2byte	0x10a
 2103 0991 CA090000 		.4byte	0x9ca
 2104 0995 09       		.uleb128 0x9
 2105 0996 C7030000 		.4byte	.LASF141
 2106 099a 14       		.byte	0x14
 2107 099b 0E01     		.2byte	0x10e
 2108 099d CA000000 		.4byte	0xca
 2109 09a1 00       		.byte	0
 2110 09a2 08       		.uleb128 0x8
 2111 09a3 63723100 		.ascii	"cr1\000"
 2112 09a7 14       		.byte	0x14
 2113 09a8 1301     		.2byte	0x113
 2114 09aa B4000000 		.4byte	0xb4
 2115 09ae 04       		.byte	0x4
 2116 09af 08       		.uleb128 0x8
 2117 09b0 63723200 		.ascii	"cr2\000"
 2118 09b4 14       		.byte	0x14
 2119 09b5 1701     		.2byte	0x117
 2120 09b7 B4000000 		.4byte	0xb4
 2121 09bb 06       		.byte	0x6
 2122 09bc 08       		.uleb128 0x8
 2123 09bd 63723300 		.ascii	"cr3\000"
 2124 09c1 14       		.byte	0x14
 2125 09c2 1B01     		.2byte	0x11b
 2126 09c4 B4000000 		.4byte	0xb4
 2127 09c8 08       		.byte	0x8
 2128 09c9 00       		.byte	0
 2129 09ca 11       		.uleb128 0x11
 2130 09cb C3040000 		.4byte	.LASF142
 2131 09cf 14       		.byte	0x14
 2132 09d0 1C01     		.2byte	0x11c
 2133 09d2 8C090000 		.4byte	0x98c
 2134 09d6 06       		.uleb128 0x6
 2135 09d7 EE020000 		.4byte	.LASF143
 2136 09db 20       		.byte	0x20
 2137 09dc 13       		.byte	0x13
 2138 09dd 6D       		.byte	0x6d
 2139 09de 430A0000 		.4byte	0xa43
 2140 09e2 07       		.uleb128 0x7
 2141 09e3 E2030000 		.4byte	.LASF144
 2142 09e7 13       		.byte	0x13
ARM GAS  /tmp/ccSKVCga.s 			page 39


 2143 09e8 6E       		.byte	0x6e
 2144 09e9 14080000 		.4byte	0x814
 2145 09ed 00       		.byte	0
 2146 09ee 07       		.uleb128 0x7
 2147 09ef 38060000 		.4byte	.LASF145
 2148 09f3 13       		.byte	0x13
 2149 09f4 6E       		.byte	0x6e
 2150 09f5 33080000 		.4byte	0x833
 2151 09f9 04       		.byte	0x4
 2152 09fa 12       		.uleb128 0x12
 2153 09fb 70757400 		.ascii	"put\000"
 2154 09ff 13       		.byte	0x13
 2155 0a00 6E       		.byte	0x6e
 2156 0a01 4D080000 		.4byte	0x84d
 2157 0a05 08       		.byte	0x8
 2158 0a06 12       		.uleb128 0x12
 2159 0a07 67657400 		.ascii	"get\000"
 2160 0a0b 13       		.byte	0x13
 2161 0a0c 6E       		.byte	0x6e
 2162 0a0d 62080000 		.4byte	0x862
 2163 0a11 0C       		.byte	0xc
 2164 0a12 07       		.uleb128 0x7
 2165 0a13 F6030000 		.4byte	.LASF146
 2166 0a17 13       		.byte	0x13
 2167 0a18 6E       		.byte	0x6e
 2168 0a19 81080000 		.4byte	0x881
 2169 0a1d 10       		.byte	0x10
 2170 0a1e 07       		.uleb128 0x7
 2171 0a1f 27030000 		.4byte	.LASF147
 2172 0a23 13       		.byte	0x13
 2173 0a24 6E       		.byte	0x6e
 2174 0a25 9B080000 		.4byte	0x89b
 2175 0a29 14       		.byte	0x14
 2176 0a2a 07       		.uleb128 0x7
 2177 0a2b 9E030000 		.4byte	.LASF148
 2178 0a2f 13       		.byte	0x13
 2179 0a30 6E       		.byte	0x6e
 2180 0a31 BF080000 		.4byte	0x8bf
 2181 0a35 18       		.byte	0x18
 2182 0a36 07       		.uleb128 0x7
 2183 0a37 F5000000 		.4byte	.LASF149
 2184 0a3b 13       		.byte	0x13
 2185 0a3c 6E       		.byte	0x6e
 2186 0a3d E3080000 		.4byte	0x8e3
 2187 0a41 1C       		.byte	0x1c
 2188 0a42 00       		.byte	0
 2189 0a43 0A       		.uleb128 0xa
 2190 0a44 04       		.byte	0x4
 2191 0a45 490A0000 		.4byte	0xa49
 2192 0a49 16       		.uleb128 0x16
 2193 0a4a D6090000 		.4byte	0x9d6
 2194 0a4e 17       		.uleb128 0x17
 2195 0a4f A9000000 		.4byte	0xa9
 2196 0a53 5E0A0000 		.4byte	0xa5e
 2197 0a57 18       		.uleb128 0x18
 2198 0a58 6E040000 		.4byte	0x46e
 2199 0a5c 3F       		.byte	0x3f
ARM GAS  /tmp/ccSKVCga.s 			page 40


 2200 0a5d 00       		.byte	0
 2201 0a5e 0A       		.uleb128 0xa
 2202 0a5f 04       		.byte	0x4
 2203 0a60 D8040000 		.4byte	0x4d8
 2204 0a64 0A       		.uleb128 0xa
 2205 0a65 04       		.byte	0x4
 2206 0a66 DA070000 		.4byte	0x7da
 2207 0a6a 1C       		.uleb128 0x1c
 2208 0a6b A5060000 		.4byte	.LASF174
 2209 0a6f 02       		.byte	0x2
 2210 0a70 2202     		.2byte	0x222
 2211 0a72 03       		.byte	0x3
 2212 0a73 840A0000 		.4byte	0xa84
 2213 0a77 1D       		.uleb128 0x1d
 2214 0a78 97020000 		.4byte	.LASF175
 2215 0a7c 02       		.byte	0x2
 2216 0a7d 2202     		.2byte	0x222
 2217 0a7f CA000000 		.4byte	0xca
 2218 0a83 00       		.byte	0
 2219 0a84 1E       		.uleb128 0x1e
 2220 0a85 51000000 		.4byte	.LASF150
 2221 0a89 01       		.byte	0x1
 2222 0a8a C801     		.2byte	0x1c8
 2223 0a8c 00000000 		.4byte	.LFB127
 2224 0a90 10000000 		.4byte	.LFE127-.LFB127
 2225 0a94 01       		.uleb128 0x1
 2226 0a95 9C       		.byte	0x9c
 2227 0a96 B40A0000 		.4byte	0xab4
 2228 0a9a 1F       		.uleb128 0x1f
 2229 0a9b 6A0A0000 		.4byte	0xa6a
 2230 0a9f 06000000 		.4byte	.LBB6
 2231 0aa3 06000000 		.4byte	.LBE6-.LBB6
 2232 0aa7 01       		.byte	0x1
 2233 0aa8 CB01     		.2byte	0x1cb
 2234 0aaa 20       		.uleb128 0x20
 2235 0aab 770A0000 		.4byte	0xa77
 2236 0aaf 02       		.uleb128 0x2
 2237 0ab0 91       		.byte	0x91
 2238 0ab1 7C       		.sleb128 -4
 2239 0ab2 00       		.byte	0
 2240 0ab3 00       		.byte	0
 2241 0ab4 1E       		.uleb128 0x1e
 2242 0ab5 4F010000 		.4byte	.LASF151
 2243 0ab9 01       		.byte	0x1
 2244 0aba D601     		.2byte	0x1d6
 2245 0abc 00000000 		.4byte	.LFB128
 2246 0ac0 10000000 		.4byte	.LFE128-.LFB128
 2247 0ac4 01       		.uleb128 0x1
 2248 0ac5 9C       		.byte	0x9c
 2249 0ac6 E40A0000 		.4byte	0xae4
 2250 0aca 1F       		.uleb128 0x1f
 2251 0acb 6A0A0000 		.4byte	0xa6a
 2252 0acf 06000000 		.4byte	.LBB8
 2253 0ad3 06000000 		.4byte	.LBE8-.LBB8
 2254 0ad7 01       		.byte	0x1
 2255 0ad8 D901     		.2byte	0x1d9
 2256 0ada 20       		.uleb128 0x20
ARM GAS  /tmp/ccSKVCga.s 			page 41


 2257 0adb 770A0000 		.4byte	0xa77
 2258 0adf 02       		.uleb128 0x2
 2259 0ae0 91       		.byte	0x91
 2260 0ae1 7C       		.sleb128 -4
 2261 0ae2 00       		.byte	0
 2262 0ae3 00       		.byte	0
 2263 0ae4 21       		.uleb128 0x21
 2264 0ae5 9E050000 		.4byte	.LASF154
 2265 0ae9 03       		.byte	0x3
 2266 0aea 5A01     		.2byte	0x15a
 2267 0aec 00000000 		.4byte	.LFB167
 2268 0af0 08000000 		.4byte	.LFE167-.LFB167
 2269 0af4 01       		.uleb128 0x1
 2270 0af5 9C       		.byte	0x9c
 2271 0af6 22       		.uleb128 0x22
 2272 0af7 9A070000 		.4byte	.LASF152
 2273 0afb 03       		.byte	0x3
 2274 0afc 6601     		.2byte	0x166
 2275 0afe 00000000 		.4byte	.LFB168
 2276 0b02 08000000 		.4byte	.LFE168-.LFB168
 2277 0b06 01       		.uleb128 0x1
 2278 0b07 9C       		.byte	0x9c
 2279 0b08 160B0000 		.4byte	0xb16
 2280 0b0c 23       		.uleb128 0x23
 2281 0b0d 8E050000 		.4byte	.LASF168
 2282 0b11 260B0000 		.4byte	0xb26
 2283 0b15 00       		.byte	0
 2284 0b16 17       		.uleb128 0x17
 2285 0b17 84060000 		.4byte	0x684
 2286 0b1b 260B0000 		.4byte	0xb26
 2287 0b1f 18       		.uleb128 0x18
 2288 0b20 6E040000 		.4byte	0x46e
 2289 0b24 0B       		.byte	0xb
 2290 0b25 00       		.byte	0
 2291 0b26 16       		.uleb128 0x16
 2292 0b27 160B0000 		.4byte	0xb16
 2293 0b2b 24       		.uleb128 0x24
 2294 0b2c 38030000 		.4byte	.LASF153
 2295 0b30 04       		.byte	0x4
 2296 0b31 AA       		.byte	0xaa
 2297 0b32 00000000 		.4byte	.LFB215
 2298 0b36 0E000000 		.4byte	.LFE215-.LFB215
 2299 0b3a 01       		.uleb128 0x1
 2300 0b3b 9C       		.byte	0x9c
 2301 0b3c 4F0B0000 		.4byte	0xb4f
 2302 0b40 25       		.uleb128 0x25
 2303 0b41 65737000 		.ascii	"esp\000"
 2304 0b45 04       		.byte	0x4
 2305 0b46 AA       		.byte	0xaa
 2306 0b47 4F0B0000 		.4byte	0xb4f
 2307 0b4b 02       		.uleb128 0x2
 2308 0b4c 91       		.byte	0x91
 2309 0b4d 7C       		.sleb128 -4
 2310 0b4e 00       		.byte	0
 2311 0b4f 0A       		.uleb128 0xa
 2312 0b50 04       		.byte	0x4
 2313 0b51 2A070000 		.4byte	0x72a
ARM GAS  /tmp/ccSKVCga.s 			page 42


 2314 0b55 26       		.uleb128 0x26
 2315 0b56 43070000 		.4byte	.LASF161
 2316 0b5a 05       		.byte	0x5
 2317 0b5b 2F01     		.2byte	0x12f
 2318 0b5d E9080000 		.4byte	0x8e9
 2319 0b61 00000000 		.4byte	.LFB232
 2320 0b65 18000000 		.4byte	.LFE232-.LFB232
 2321 0b69 01       		.uleb128 0x1
 2322 0b6a 9C       		.byte	0x9c
 2323 0b6b 7F0B0000 		.4byte	0xb7f
 2324 0b6f 27       		.uleb128 0x27
 2325 0b70 69717000 		.ascii	"iqp\000"
 2326 0b74 05       		.byte	0x5
 2327 0b75 2F01     		.2byte	0x12f
 2328 0b77 640A0000 		.4byte	0xa64
 2329 0b7b 02       		.uleb128 0x2
 2330 0b7c 91       		.byte	0x91
 2331 0b7d 7C       		.sleb128 -4
 2332 0b7e 00       		.byte	0
 2333 0b7f 21       		.uleb128 0x21
 2334 0b80 83020000 		.4byte	.LASF155
 2335 0b84 06       		.byte	0x6
 2336 0b85 EB01     		.2byte	0x1eb
 2337 0b87 00000000 		.4byte	.LFB244
 2338 0b8b 08000000 		.4byte	.LFE244-.LFB244
 2339 0b8f 01       		.uleb128 0x1
 2340 0b90 9C       		.byte	0x9c
 2341 0b91 21       		.uleb128 0x21
 2342 0b92 A8050000 		.4byte	.LASF156
 2343 0b96 06       		.byte	0x6
 2344 0b97 F601     		.2byte	0x1f6
 2345 0b99 00000000 		.4byte	.LFB245
 2346 0b9d 08000000 		.4byte	.LFE245-.LFB245
 2347 0ba1 01       		.uleb128 0x1
 2348 0ba2 9C       		.byte	0x9c
 2349 0ba3 21       		.uleb128 0x21
 2350 0ba4 DB040000 		.4byte	.LASF157
 2351 0ba8 06       		.byte	0x6
 2352 0ba9 5602     		.2byte	0x256
 2353 0bab 00000000 		.4byte	.LFB252
 2354 0baf 08000000 		.4byte	.LFE252-.LFB252
 2355 0bb3 01       		.uleb128 0x1
 2356 0bb4 9C       		.byte	0x9c
 2357 0bb5 22       		.uleb128 0x22
 2358 0bb6 2C010000 		.4byte	.LASF158
 2359 0bba 06       		.byte	0x6
 2360 0bbb 3503     		.2byte	0x335
 2361 0bbd 00000000 		.4byte	.LFB265
 2362 0bc1 12000000 		.4byte	.LFE265-.LFB265
 2363 0bc5 01       		.uleb128 0x1
 2364 0bc6 9C       		.byte	0x9c
 2365 0bc7 DB0B0000 		.4byte	0xbdb
 2366 0bcb 27       		.uleb128 0x27
 2367 0bcc 65737000 		.ascii	"esp\000"
 2368 0bd0 06       		.byte	0x6
 2369 0bd1 3503     		.2byte	0x335
 2370 0bd3 4F0B0000 		.4byte	0xb4f
ARM GAS  /tmp/ccSKVCga.s 			page 43


 2371 0bd7 02       		.uleb128 0x2
 2372 0bd8 91       		.byte	0x91
 2373 0bd9 74       		.sleb128 -12
 2374 0bda 00       		.byte	0
 2375 0bdb 22       		.uleb128 0x22
 2376 0bdc 72000000 		.4byte	.LASF159
 2377 0be0 06       		.byte	0x6
 2378 0be1 4903     		.2byte	0x349
 2379 0be3 00000000 		.4byte	.LFB266
 2380 0be7 16000000 		.4byte	.LFE266-.LFB266
 2381 0beb 01       		.uleb128 0x1
 2382 0bec 9C       		.byte	0x9c
 2383 0bed 100C0000 		.4byte	0xc10
 2384 0bf1 27       		.uleb128 0x27
 2385 0bf2 65737000 		.ascii	"esp\000"
 2386 0bf6 06       		.byte	0x6
 2387 0bf7 4903     		.2byte	0x349
 2388 0bf9 4F0B0000 		.4byte	0xb4f
 2389 0bfd 02       		.uleb128 0x2
 2390 0bfe 91       		.byte	0x91
 2391 0bff 74       		.sleb128 -12
 2392 0c00 28       		.uleb128 0x28
 2393 0c01 76070000 		.4byte	.LASF160
 2394 0c05 06       		.byte	0x6
 2395 0c06 4A03     		.2byte	0x34a
 2396 0c08 37010000 		.4byte	0x137
 2397 0c0c 02       		.uleb128 0x2
 2398 0c0d 91       		.byte	0x91
 2399 0c0e 70       		.sleb128 -16
 2400 0c0f 00       		.byte	0
 2401 0c10 29       		.uleb128 0x29
 2402 0c11 E2030000 		.4byte	.LASF144
 2403 0c15 07       		.byte	0x7
 2404 0c16 32       		.byte	0x32
 2405 0c17 28000000 		.4byte	0x28
 2406 0c1b 00000000 		.4byte	.LFB271
 2407 0c1f 26000000 		.4byte	.LFE271-.LFB271
 2408 0c23 01       		.uleb128 0x1
 2409 0c24 9C       		.byte	0x9c
 2410 0c25 500C0000 		.4byte	0xc50
 2411 0c29 25       		.uleb128 0x25
 2412 0c2a 697000   		.ascii	"ip\000"
 2413 0c2d 07       		.byte	0x7
 2414 0c2e 32       		.byte	0x32
 2415 0c2f 38030000 		.4byte	0x338
 2416 0c33 02       		.uleb128 0x2
 2417 0c34 91       		.byte	0x91
 2418 0c35 74       		.sleb128 -12
 2419 0c36 25       		.uleb128 0x25
 2420 0c37 627000   		.ascii	"bp\000"
 2421 0c3a 07       		.byte	0x7
 2422 0c3b 32       		.byte	0x32
 2423 0c3c 09080000 		.4byte	0x809
 2424 0c40 02       		.uleb128 0x2
 2425 0c41 91       		.byte	0x91
 2426 0c42 70       		.sleb128 -16
 2427 0c43 25       		.uleb128 0x25
ARM GAS  /tmp/ccSKVCga.s 			page 44


 2428 0c44 6E00     		.ascii	"n\000"
 2429 0c46 07       		.byte	0x7
 2430 0c47 32       		.byte	0x32
 2431 0c48 28000000 		.4byte	0x28
 2432 0c4c 02       		.uleb128 0x2
 2433 0c4d 91       		.byte	0x91
 2434 0c4e 6C       		.sleb128 -20
 2435 0c4f 00       		.byte	0
 2436 0c50 29       		.uleb128 0x29
 2437 0c51 38060000 		.4byte	.LASF145
 2438 0c55 07       		.byte	0x7
 2439 0c56 38       		.byte	0x38
 2440 0c57 28000000 		.4byte	0x28
 2441 0c5b 00000000 		.4byte	.LFB272
 2442 0c5f 26000000 		.4byte	.LFE272-.LFB272
 2443 0c63 01       		.uleb128 0x1
 2444 0c64 9C       		.byte	0x9c
 2445 0c65 900C0000 		.4byte	0xc90
 2446 0c69 25       		.uleb128 0x25
 2447 0c6a 697000   		.ascii	"ip\000"
 2448 0c6d 07       		.byte	0x7
 2449 0c6e 38       		.byte	0x38
 2450 0c6f 38030000 		.4byte	0x338
 2451 0c73 02       		.uleb128 0x2
 2452 0c74 91       		.byte	0x91
 2453 0c75 74       		.sleb128 -12
 2454 0c76 25       		.uleb128 0x25
 2455 0c77 627000   		.ascii	"bp\000"
 2456 0c7a 07       		.byte	0x7
 2457 0c7b 38       		.byte	0x38
 2458 0c7c D4070000 		.4byte	0x7d4
 2459 0c80 02       		.uleb128 0x2
 2460 0c81 91       		.byte	0x91
 2461 0c82 70       		.sleb128 -16
 2462 0c83 25       		.uleb128 0x25
 2463 0c84 6E00     		.ascii	"n\000"
 2464 0c86 07       		.byte	0x7
 2465 0c87 38       		.byte	0x38
 2466 0c88 28000000 		.4byte	0x28
 2467 0c8c 02       		.uleb128 0x2
 2468 0c8d 91       		.byte	0x91
 2469 0c8e 6C       		.sleb128 -20
 2470 0c8f 00       		.byte	0
 2471 0c90 2A       		.uleb128 0x2a
 2472 0c91 70757400 		.ascii	"put\000"
 2473 0c95 07       		.byte	0x7
 2474 0c96 3E       		.byte	0x3e
 2475 0c97 21010000 		.4byte	0x121
 2476 0c9b 00000000 		.4byte	.LFB273
 2477 0c9f 2C000000 		.4byte	.LFE273-.LFB273
 2478 0ca3 01       		.uleb128 0x1
 2479 0ca4 9C       		.byte	0x9c
 2480 0ca5 C30C0000 		.4byte	0xcc3
 2481 0ca9 25       		.uleb128 0x25
 2482 0caa 697000   		.ascii	"ip\000"
 2483 0cad 07       		.byte	0x7
 2484 0cae 3E       		.byte	0x3e
ARM GAS  /tmp/ccSKVCga.s 			page 45


 2485 0caf 38030000 		.4byte	0x338
 2486 0cb3 02       		.uleb128 0x2
 2487 0cb4 91       		.byte	0x91
 2488 0cb5 74       		.sleb128 -12
 2489 0cb6 25       		.uleb128 0x25
 2490 0cb7 6200     		.ascii	"b\000"
 2491 0cb9 07       		.byte	0x7
 2492 0cba 3E       		.byte	0x3e
 2493 0cbb A9000000 		.4byte	0xa9
 2494 0cbf 02       		.uleb128 0x2
 2495 0cc0 91       		.byte	0x91
 2496 0cc1 73       		.sleb128 -13
 2497 0cc2 00       		.byte	0
 2498 0cc3 2A       		.uleb128 0x2a
 2499 0cc4 67657400 		.ascii	"get\000"
 2500 0cc8 07       		.byte	0x7
 2501 0cc9 43       		.byte	0x43
 2502 0cca 21010000 		.4byte	0x121
 2503 0cce 00000000 		.4byte	.LFB274
 2504 0cd2 1E000000 		.4byte	.LFE274-.LFB274
 2505 0cd6 01       		.uleb128 0x1
 2506 0cd7 9C       		.byte	0x9c
 2507 0cd8 EA0C0000 		.4byte	0xcea
 2508 0cdc 25       		.uleb128 0x25
 2509 0cdd 697000   		.ascii	"ip\000"
 2510 0ce0 07       		.byte	0x7
 2511 0ce1 43       		.byte	0x43
 2512 0ce2 38030000 		.4byte	0x338
 2513 0ce6 02       		.uleb128 0x2
 2514 0ce7 91       		.byte	0x91
 2515 0ce8 74       		.sleb128 -12
 2516 0ce9 00       		.byte	0
 2517 0cea 29       		.uleb128 0x29
 2518 0ceb F6030000 		.4byte	.LASF146
 2519 0cef 07       		.byte	0x7
 2520 0cf0 48       		.byte	0x48
 2521 0cf1 21010000 		.4byte	0x121
 2522 0cf5 00000000 		.4byte	.LFB275
 2523 0cf9 2C000000 		.4byte	.LFE275-.LFB275
 2524 0cfd 01       		.uleb128 0x1
 2525 0cfe 9C       		.byte	0x9c
 2526 0cff 2B0D0000 		.4byte	0xd2b
 2527 0d03 25       		.uleb128 0x25
 2528 0d04 697000   		.ascii	"ip\000"
 2529 0d07 07       		.byte	0x7
 2530 0d08 48       		.byte	0x48
 2531 0d09 38030000 		.4byte	0x338
 2532 0d0d 02       		.uleb128 0x2
 2533 0d0e 91       		.byte	0x91
 2534 0d0f 74       		.sleb128 -12
 2535 0d10 25       		.uleb128 0x25
 2536 0d11 6200     		.ascii	"b\000"
 2537 0d13 07       		.byte	0x7
 2538 0d14 48       		.byte	0x48
 2539 0d15 A9000000 		.4byte	0xa9
 2540 0d19 02       		.uleb128 0x2
 2541 0d1a 91       		.byte	0x91
ARM GAS  /tmp/ccSKVCga.s 			page 46


 2542 0d1b 73       		.sleb128 -13
 2543 0d1c 2B       		.uleb128 0x2b
 2544 0d1d 1F030000 		.4byte	.LASF162
 2545 0d21 07       		.byte	0x7
 2546 0d22 48       		.byte	0x48
 2547 0d23 4D010000 		.4byte	0x14d
 2548 0d27 02       		.uleb128 0x2
 2549 0d28 91       		.byte	0x91
 2550 0d29 6C       		.sleb128 -20
 2551 0d2a 00       		.byte	0
 2552 0d2b 29       		.uleb128 0x29
 2553 0d2c 27030000 		.4byte	.LASF147
 2554 0d30 07       		.byte	0x7
 2555 0d31 4D       		.byte	0x4d
 2556 0d32 21010000 		.4byte	0x121
 2557 0d36 00000000 		.4byte	.LFB276
 2558 0d3a 1E000000 		.4byte	.LFE276-.LFB276
 2559 0d3e 01       		.uleb128 0x1
 2560 0d3f 9C       		.byte	0x9c
 2561 0d40 600D0000 		.4byte	0xd60
 2562 0d44 25       		.uleb128 0x25
 2563 0d45 697000   		.ascii	"ip\000"
 2564 0d48 07       		.byte	0x7
 2565 0d49 4D       		.byte	0x4d
 2566 0d4a 38030000 		.4byte	0x338
 2567 0d4e 02       		.uleb128 0x2
 2568 0d4f 91       		.byte	0x91
 2569 0d50 74       		.sleb128 -12
 2570 0d51 2B       		.uleb128 0x2b
 2571 0d52 1F030000 		.4byte	.LASF162
 2572 0d56 07       		.byte	0x7
 2573 0d57 4D       		.byte	0x4d
 2574 0d58 4D010000 		.4byte	0x14d
 2575 0d5c 02       		.uleb128 0x2
 2576 0d5d 91       		.byte	0x91
 2577 0d5e 70       		.sleb128 -16
 2578 0d5f 00       		.byte	0
 2579 0d60 29       		.uleb128 0x29
 2580 0d61 9E030000 		.4byte	.LASF148
 2581 0d65 07       		.byte	0x7
 2582 0d66 52       		.byte	0x52
 2583 0d67 28000000 		.4byte	0x28
 2584 0d6b 00000000 		.4byte	.LFB277
 2585 0d6f 26000000 		.4byte	.LFE277-.LFB277
 2586 0d73 01       		.uleb128 0x1
 2587 0d74 9C       		.byte	0x9c
 2588 0d75 AE0D0000 		.4byte	0xdae
 2589 0d79 25       		.uleb128 0x25
 2590 0d7a 697000   		.ascii	"ip\000"
 2591 0d7d 07       		.byte	0x7
 2592 0d7e 52       		.byte	0x52
 2593 0d7f 38030000 		.4byte	0x338
 2594 0d83 02       		.uleb128 0x2
 2595 0d84 91       		.byte	0x91
 2596 0d85 74       		.sleb128 -12
 2597 0d86 25       		.uleb128 0x25
 2598 0d87 627000   		.ascii	"bp\000"
ARM GAS  /tmp/ccSKVCga.s 			page 47


 2599 0d8a 07       		.byte	0x7
 2600 0d8b 52       		.byte	0x52
 2601 0d8c 09080000 		.4byte	0x809
 2602 0d90 02       		.uleb128 0x2
 2603 0d91 91       		.byte	0x91
 2604 0d92 70       		.sleb128 -16
 2605 0d93 25       		.uleb128 0x25
 2606 0d94 6E00     		.ascii	"n\000"
 2607 0d96 07       		.byte	0x7
 2608 0d97 52       		.byte	0x52
 2609 0d98 28000000 		.4byte	0x28
 2610 0d9c 02       		.uleb128 0x2
 2611 0d9d 91       		.byte	0x91
 2612 0d9e 6C       		.sleb128 -20
 2613 0d9f 2B       		.uleb128 0x2b
 2614 0da0 1F030000 		.4byte	.LASF162
 2615 0da4 07       		.byte	0x7
 2616 0da5 52       		.byte	0x52
 2617 0da6 4D010000 		.4byte	0x14d
 2618 0daa 02       		.uleb128 0x2
 2619 0dab 91       		.byte	0x91
 2620 0dac 68       		.sleb128 -24
 2621 0dad 00       		.byte	0
 2622 0dae 29       		.uleb128 0x29
 2623 0daf F5000000 		.4byte	.LASF149
 2624 0db3 07       		.byte	0x7
 2625 0db4 57       		.byte	0x57
 2626 0db5 28000000 		.4byte	0x28
 2627 0db9 00000000 		.4byte	.LFB278
 2628 0dbd 26000000 		.4byte	.LFE278-.LFB278
 2629 0dc1 01       		.uleb128 0x1
 2630 0dc2 9C       		.byte	0x9c
 2631 0dc3 FC0D0000 		.4byte	0xdfc
 2632 0dc7 25       		.uleb128 0x25
 2633 0dc8 697000   		.ascii	"ip\000"
 2634 0dcb 07       		.byte	0x7
 2635 0dcc 57       		.byte	0x57
 2636 0dcd 38030000 		.4byte	0x338
 2637 0dd1 02       		.uleb128 0x2
 2638 0dd2 91       		.byte	0x91
 2639 0dd3 74       		.sleb128 -12
 2640 0dd4 25       		.uleb128 0x25
 2641 0dd5 627000   		.ascii	"bp\000"
 2642 0dd8 07       		.byte	0x7
 2643 0dd9 57       		.byte	0x57
 2644 0dda D4070000 		.4byte	0x7d4
 2645 0dde 02       		.uleb128 0x2
 2646 0ddf 91       		.byte	0x91
 2647 0de0 70       		.sleb128 -16
 2648 0de1 25       		.uleb128 0x25
 2649 0de2 6E00     		.ascii	"n\000"
 2650 0de4 07       		.byte	0x7
 2651 0de5 57       		.byte	0x57
 2652 0de6 28000000 		.4byte	0x28
 2653 0dea 02       		.uleb128 0x2
 2654 0deb 91       		.byte	0x91
 2655 0dec 6C       		.sleb128 -20
ARM GAS  /tmp/ccSKVCga.s 			page 48


 2656 0ded 2B       		.uleb128 0x2b
 2657 0dee 1F030000 		.4byte	.LASF162
 2658 0df2 07       		.byte	0x7
 2659 0df3 57       		.byte	0x57
 2660 0df4 4D010000 		.4byte	0x14d
 2661 0df8 02       		.uleb128 0x2
 2662 0df9 91       		.byte	0x91
 2663 0dfa 68       		.sleb128 -24
 2664 0dfb 00       		.byte	0
 2665 0dfc 2C       		.uleb128 0x2c
 2666 0dfd AC070000 		.4byte	.LASF176
 2667 0e01 07       		.byte	0x7
 2668 0e02 6C       		.byte	0x6c
 2669 0e03 00000000 		.4byte	.LFB279
 2670 0e07 08000000 		.4byte	.LFE279-.LFB279
 2671 0e0b 01       		.uleb128 0x1
 2672 0e0c 9C       		.byte	0x9c
 2673 0e0d 2D       		.uleb128 0x2d
 2674 0e0e E8000000 		.4byte	.LASF165
 2675 0e12 07       		.byte	0x7
 2676 0e13 80       		.byte	0x80
 2677 0e14 00000000 		.4byte	.LFB280
 2678 0e18 60000000 		.4byte	.LFE280-.LFB280
 2679 0e1c 01       		.uleb128 0x1
 2680 0e1d 9C       		.byte	0x9c
 2681 0e1e 4D0E0000 		.4byte	0xe4d
 2682 0e22 25       		.uleb128 0x25
 2683 0e23 73647000 		.ascii	"sdp\000"
 2684 0e27 07       		.byte	0x7
 2685 0e28 80       		.byte	0x80
 2686 0e29 4D0E0000 		.4byte	0xe4d
 2687 0e2d 02       		.uleb128 0x2
 2688 0e2e 91       		.byte	0x91
 2689 0e2f 74       		.sleb128 -12
 2690 0e30 2B       		.uleb128 0x2b
 2691 0e31 FE020000 		.4byte	.LASF163
 2692 0e35 07       		.byte	0x7
 2693 0e36 80       		.byte	0x80
 2694 0e37 AD070000 		.4byte	0x7ad
 2695 0e3b 02       		.uleb128 0x2
 2696 0e3c 91       		.byte	0x91
 2697 0e3d 70       		.sleb128 -16
 2698 0e3e 2B       		.uleb128 0x2b
 2699 0e3f 7C070000 		.4byte	.LASF164
 2700 0e43 07       		.byte	0x7
 2701 0e44 80       		.byte	0x80
 2702 0e45 AD070000 		.4byte	0x7ad
 2703 0e49 02       		.uleb128 0x2
 2704 0e4a 91       		.byte	0x91
 2705 0e4b 6C       		.sleb128 -20
 2706 0e4c 00       		.byte	0
 2707 0e4d 0A       		.uleb128 0xa
 2708 0e4e 04       		.byte	0x4
 2709 0e4f 16090000 		.4byte	0x916
 2710 0e53 2D       		.uleb128 0x2d
 2711 0e54 59060000 		.4byte	.LASF166
 2712 0e58 07       		.byte	0x7
ARM GAS  /tmp/ccSKVCga.s 			page 49


 2713 0e59 93       		.byte	0x93
 2714 0e5a 00000000 		.4byte	.LFB281
 2715 0e5e 24000000 		.4byte	.LFE281-.LFB281
 2716 0e62 01       		.uleb128 0x1
 2717 0e63 9C       		.byte	0x9c
 2718 0e64 8E0E0000 		.4byte	0xe8e
 2719 0e68 25       		.uleb128 0x25
 2720 0e69 73647000 		.ascii	"sdp\000"
 2721 0e6d 07       		.byte	0x7
 2722 0e6e 93       		.byte	0x93
 2723 0e6f 4D0E0000 		.4byte	0xe4d
 2724 0e73 02       		.uleb128 0x2
 2725 0e74 91       		.byte	0x91
 2726 0e75 74       		.sleb128 -12
 2727 0e76 2B       		.uleb128 0x2b
 2728 0e77 52060000 		.4byte	.LASF167
 2729 0e7b 07       		.byte	0x7
 2730 0e7c 93       		.byte	0x93
 2731 0e7d 8E0E0000 		.4byte	0xe8e
 2732 0e81 02       		.uleb128 0x2
 2733 0e82 91       		.byte	0x91
 2734 0e83 70       		.sleb128 -16
 2735 0e84 23       		.uleb128 0x23
 2736 0e85 8E050000 		.4byte	.LASF168
 2737 0e89 A90E0000 		.4byte	0xea9
 2738 0e8d 00       		.byte	0
 2739 0e8e 0A       		.uleb128 0xa
 2740 0e8f 04       		.byte	0x4
 2741 0e90 940E0000 		.4byte	0xe94
 2742 0e94 16       		.uleb128 0x16
 2743 0e95 CA090000 		.4byte	0x9ca
 2744 0e99 17       		.uleb128 0x17
 2745 0e9a 84060000 		.4byte	0x684
 2746 0e9e A90E0000 		.4byte	0xea9
 2747 0ea2 18       		.uleb128 0x18
 2748 0ea3 6E040000 		.4byte	0x46e
 2749 0ea7 07       		.byte	0x7
 2750 0ea8 00       		.byte	0
 2751 0ea9 16       		.uleb128 0x16
 2752 0eaa 990E0000 		.4byte	0xe99
 2753 0eae 2D       		.uleb128 0x2d
 2754 0eaf A0040000 		.4byte	.LASF169
 2755 0eb3 07       		.byte	0x7
 2756 0eb4 A8       		.byte	0xa8
 2757 0eb5 00000000 		.4byte	.LFB282
 2758 0eb9 38000000 		.4byte	.LFE282-.LFB282
 2759 0ebd 01       		.uleb128 0x1
 2760 0ebe 9C       		.byte	0x9c
 2761 0ebf DB0E0000 		.4byte	0xedb
 2762 0ec3 25       		.uleb128 0x25
 2763 0ec4 73647000 		.ascii	"sdp\000"
 2764 0ec8 07       		.byte	0x7
 2765 0ec9 A8       		.byte	0xa8
 2766 0eca 4D0E0000 		.4byte	0xe4d
 2767 0ece 02       		.uleb128 0x2
 2768 0ecf 91       		.byte	0x91
 2769 0ed0 74       		.sleb128 -12
ARM GAS  /tmp/ccSKVCga.s 			page 50


 2770 0ed1 23       		.uleb128 0x23
 2771 0ed2 8E050000 		.4byte	.LASF168
 2772 0ed6 EB0E0000 		.4byte	0xeeb
 2773 0eda 00       		.byte	0
 2774 0edb 17       		.uleb128 0x17
 2775 0edc 84060000 		.4byte	0x684
 2776 0ee0 EB0E0000 		.4byte	0xeeb
 2777 0ee4 18       		.uleb128 0x18
 2778 0ee5 6E040000 		.4byte	0x46e
 2779 0ee9 06       		.byte	0x6
 2780 0eea 00       		.byte	0
 2781 0eeb 16       		.uleb128 0x16
 2782 0eec DB0E0000 		.4byte	0xedb
 2783 0ef0 2D       		.uleb128 0x2d
 2784 0ef1 42060000 		.4byte	.LASF170
 2785 0ef5 07       		.byte	0x7
 2786 0ef6 C7       		.byte	0xc7
 2787 0ef7 00000000 		.4byte	.LFB283
 2788 0efb 52000000 		.4byte	.LFE283-.LFB283
 2789 0eff 01       		.uleb128 0x1
 2790 0f00 9C       		.byte	0x9c
 2791 0f01 290F0000 		.4byte	0xf29
 2792 0f05 25       		.uleb128 0x25
 2793 0f06 73647000 		.ascii	"sdp\000"
 2794 0f0a 07       		.byte	0x7
 2795 0f0b C7       		.byte	0xc7
 2796 0f0c 4D0E0000 		.4byte	0xe4d
 2797 0f10 02       		.uleb128 0x2
 2798 0f11 91       		.byte	0x91
 2799 0f12 74       		.sleb128 -12
 2800 0f13 25       		.uleb128 0x25
 2801 0f14 6200     		.ascii	"b\000"
 2802 0f16 07       		.byte	0x7
 2803 0f17 C7       		.byte	0xc7
 2804 0f18 A9000000 		.4byte	0xa9
 2805 0f1c 02       		.uleb128 0x2
 2806 0f1d 91       		.byte	0x91
 2807 0f1e 73       		.sleb128 -13
 2808 0f1f 23       		.uleb128 0x23
 2809 0f20 8E050000 		.4byte	.LASF168
 2810 0f24 390F0000 		.4byte	0xf39
 2811 0f28 00       		.byte	0
 2812 0f29 17       		.uleb128 0x17
 2813 0f2a 84060000 		.4byte	0x684
 2814 0f2e 390F0000 		.4byte	0xf39
 2815 0f32 18       		.uleb128 0x18
 2816 0f33 6E040000 		.4byte	0x46e
 2817 0f37 0F       		.byte	0xf
 2818 0f38 00       		.byte	0
 2819 0f39 16       		.uleb128 0x16
 2820 0f3a 290F0000 		.4byte	0xf29
 2821 0f3e 2E       		.uleb128 0x2e
 2822 0f3f 5F070000 		.4byte	.LASF177
 2823 0f43 07       		.byte	0x7
 2824 0f44 E1       		.byte	0xe1
 2825 0f45 21010000 		.4byte	0x121
 2826 0f49 00000000 		.4byte	.LFB284
ARM GAS  /tmp/ccSKVCga.s 			page 51


 2827 0f4d 2E000000 		.4byte	.LFE284-.LFB284
 2828 0f51 01       		.uleb128 0x1
 2829 0f52 9C       		.byte	0x9c
 2830 0f53 7B0F0000 		.4byte	0xf7b
 2831 0f57 25       		.uleb128 0x25
 2832 0f58 73647000 		.ascii	"sdp\000"
 2833 0f5c 07       		.byte	0x7
 2834 0f5d E1       		.byte	0xe1
 2835 0f5e 4D0E0000 		.4byte	0xe4d
 2836 0f62 02       		.uleb128 0x2
 2837 0f63 91       		.byte	0x91
 2838 0f64 6C       		.sleb128 -20
 2839 0f65 2F       		.uleb128 0x2f
 2840 0f66 6200     		.ascii	"b\000"
 2841 0f68 07       		.byte	0x7
 2842 0f69 E2       		.byte	0xe2
 2843 0f6a 21010000 		.4byte	0x121
 2844 0f6e 02       		.uleb128 0x2
 2845 0f6f 91       		.byte	0x91
 2846 0f70 74       		.sleb128 -12
 2847 0f71 23       		.uleb128 0x23
 2848 0f72 8E050000 		.4byte	.LASF168
 2849 0f76 8B0F0000 		.4byte	0xf8b
 2850 0f7a 00       		.byte	0
 2851 0f7b 17       		.uleb128 0x17
 2852 0f7c 84060000 		.4byte	0x684
 2853 0f80 8B0F0000 		.4byte	0xf8b
 2854 0f84 18       		.uleb128 0x18
 2855 0f85 6E040000 		.4byte	0x46e
 2856 0f89 0E       		.byte	0xe
 2857 0f8a 00       		.byte	0
 2858 0f8b 16       		.uleb128 0x16
 2859 0f8c 7B0F0000 		.4byte	0xf7b
 2860 0f90 2F       		.uleb128 0x2f
 2861 0f91 766D7400 		.ascii	"vmt\000"
 2862 0f95 07       		.byte	0x7
 2863 0f96 5C       		.byte	0x5c
 2864 0f97 490A0000 		.4byte	0xa49
 2865 0f9b 05       		.uleb128 0x5
 2866 0f9c 03       		.byte	0x3
 2867 0f9d 00000000 		.4byte	vmt
 2868 0fa1 30       		.uleb128 0x30
 2869 0fa2 BF000000 		.4byte	.LASF171
 2870 0fa6 15       		.byte	0x15
 2871 0fa7 FA06     		.2byte	0x6fa
 2872 0fa9 E0000000 		.4byte	0xe0
 2873 0fad 31       		.uleb128 0x31
 2874 0fae 636800   		.ascii	"ch\000"
 2875 0fb1 0D       		.byte	0xd
 2876 0fb2 0902     		.2byte	0x209
 2877 0fb4 07040000 		.4byte	0x407
 2878 0fb8 00       		.byte	0
 2879              		.section	.debug_abbrev,"",%progbits
 2880              	.Ldebug_abbrev0:
 2881 0000 01       		.uleb128 0x1
 2882 0001 11       		.uleb128 0x11
 2883 0002 01       		.byte	0x1
ARM GAS  /tmp/ccSKVCga.s 			page 52


 2884 0003 25       		.uleb128 0x25
 2885 0004 0E       		.uleb128 0xe
 2886 0005 13       		.uleb128 0x13
 2887 0006 0B       		.uleb128 0xb
 2888 0007 03       		.uleb128 0x3
 2889 0008 0E       		.uleb128 0xe
 2890 0009 55       		.uleb128 0x55
 2891 000a 17       		.uleb128 0x17
 2892 000b 11       		.uleb128 0x11
 2893 000c 01       		.uleb128 0x1
 2894 000d 10       		.uleb128 0x10
 2895 000e 17       		.uleb128 0x17
 2896 000f 00       		.byte	0
 2897 0010 00       		.byte	0
 2898 0011 02       		.uleb128 0x2
 2899 0012 24       		.uleb128 0x24
 2900 0013 00       		.byte	0
 2901 0014 0B       		.uleb128 0xb
 2902 0015 0B       		.uleb128 0xb
 2903 0016 3E       		.uleb128 0x3e
 2904 0017 0B       		.uleb128 0xb
 2905 0018 03       		.uleb128 0x3
 2906 0019 08       		.uleb128 0x8
 2907 001a 00       		.byte	0
 2908 001b 00       		.byte	0
 2909 001c 03       		.uleb128 0x3
 2910 001d 16       		.uleb128 0x16
 2911 001e 00       		.byte	0
 2912 001f 03       		.uleb128 0x3
 2913 0020 0E       		.uleb128 0xe
 2914 0021 3A       		.uleb128 0x3a
 2915 0022 0B       		.uleb128 0xb
 2916 0023 3B       		.uleb128 0x3b
 2917 0024 0B       		.uleb128 0xb
 2918 0025 49       		.uleb128 0x49
 2919 0026 13       		.uleb128 0x13
 2920 0027 00       		.byte	0
 2921 0028 00       		.byte	0
 2922 0029 04       		.uleb128 0x4
 2923 002a 24       		.uleb128 0x24
 2924 002b 00       		.byte	0
 2925 002c 0B       		.uleb128 0xb
 2926 002d 0B       		.uleb128 0xb
 2927 002e 3E       		.uleb128 0x3e
 2928 002f 0B       		.uleb128 0xb
 2929 0030 03       		.uleb128 0x3
 2930 0031 0E       		.uleb128 0xe
 2931 0032 00       		.byte	0
 2932 0033 00       		.byte	0
 2933 0034 05       		.uleb128 0x5
 2934 0035 35       		.uleb128 0x35
 2935 0036 00       		.byte	0
 2936 0037 49       		.uleb128 0x49
 2937 0038 13       		.uleb128 0x13
 2938 0039 00       		.byte	0
 2939 003a 00       		.byte	0
 2940 003b 06       		.uleb128 0x6
ARM GAS  /tmp/ccSKVCga.s 			page 53


 2941 003c 13       		.uleb128 0x13
 2942 003d 01       		.byte	0x1
 2943 003e 03       		.uleb128 0x3
 2944 003f 0E       		.uleb128 0xe
 2945 0040 0B       		.uleb128 0xb
 2946 0041 0B       		.uleb128 0xb
 2947 0042 3A       		.uleb128 0x3a
 2948 0043 0B       		.uleb128 0xb
 2949 0044 3B       		.uleb128 0x3b
 2950 0045 0B       		.uleb128 0xb
 2951 0046 01       		.uleb128 0x1
 2952 0047 13       		.uleb128 0x13
 2953 0048 00       		.byte	0
 2954 0049 00       		.byte	0
 2955 004a 07       		.uleb128 0x7
 2956 004b 0D       		.uleb128 0xd
 2957 004c 00       		.byte	0
 2958 004d 03       		.uleb128 0x3
 2959 004e 0E       		.uleb128 0xe
 2960 004f 3A       		.uleb128 0x3a
 2961 0050 0B       		.uleb128 0xb
 2962 0051 3B       		.uleb128 0x3b
 2963 0052 0B       		.uleb128 0xb
 2964 0053 49       		.uleb128 0x49
 2965 0054 13       		.uleb128 0x13
 2966 0055 38       		.uleb128 0x38
 2967 0056 0B       		.uleb128 0xb
 2968 0057 00       		.byte	0
 2969 0058 00       		.byte	0
 2970 0059 08       		.uleb128 0x8
 2971 005a 0D       		.uleb128 0xd
 2972 005b 00       		.byte	0
 2973 005c 03       		.uleb128 0x3
 2974 005d 08       		.uleb128 0x8
 2975 005e 3A       		.uleb128 0x3a
 2976 005f 0B       		.uleb128 0xb
 2977 0060 3B       		.uleb128 0x3b
 2978 0061 05       		.uleb128 0x5
 2979 0062 49       		.uleb128 0x49
 2980 0063 13       		.uleb128 0x13
 2981 0064 38       		.uleb128 0x38
 2982 0065 0B       		.uleb128 0xb
 2983 0066 00       		.byte	0
 2984 0067 00       		.byte	0
 2985 0068 09       		.uleb128 0x9
 2986 0069 0D       		.uleb128 0xd
 2987 006a 00       		.byte	0
 2988 006b 03       		.uleb128 0x3
 2989 006c 0E       		.uleb128 0xe
 2990 006d 3A       		.uleb128 0x3a
 2991 006e 0B       		.uleb128 0xb
 2992 006f 3B       		.uleb128 0x3b
 2993 0070 05       		.uleb128 0x5
 2994 0071 49       		.uleb128 0x49
 2995 0072 13       		.uleb128 0x13
 2996 0073 38       		.uleb128 0x38
 2997 0074 0B       		.uleb128 0xb
ARM GAS  /tmp/ccSKVCga.s 			page 54


 2998 0075 00       		.byte	0
 2999 0076 00       		.byte	0
 3000 0077 0A       		.uleb128 0xa
 3001 0078 0F       		.uleb128 0xf
 3002 0079 00       		.byte	0
 3003 007a 0B       		.uleb128 0xb
 3004 007b 0B       		.uleb128 0xb
 3005 007c 49       		.uleb128 0x49
 3006 007d 13       		.uleb128 0x13
 3007 007e 00       		.byte	0
 3008 007f 00       		.byte	0
 3009 0080 0B       		.uleb128 0xb
 3010 0081 13       		.uleb128 0x13
 3011 0082 01       		.byte	0x1
 3012 0083 03       		.uleb128 0x3
 3013 0084 0E       		.uleb128 0xe
 3014 0085 0B       		.uleb128 0xb
 3015 0086 0B       		.uleb128 0xb
 3016 0087 3A       		.uleb128 0x3a
 3017 0088 0B       		.uleb128 0xb
 3018 0089 3B       		.uleb128 0x3b
 3019 008a 05       		.uleb128 0x5
 3020 008b 01       		.uleb128 0x1
 3021 008c 13       		.uleb128 0x13
 3022 008d 00       		.byte	0
 3023 008e 00       		.byte	0
 3024 008f 0C       		.uleb128 0xc
 3025 0090 15       		.uleb128 0x15
 3026 0091 01       		.byte	0x1
 3027 0092 27       		.uleb128 0x27
 3028 0093 19       		.uleb128 0x19
 3029 0094 01       		.uleb128 0x1
 3030 0095 13       		.uleb128 0x13
 3031 0096 00       		.byte	0
 3032 0097 00       		.byte	0
 3033 0098 0D       		.uleb128 0xd
 3034 0099 05       		.uleb128 0x5
 3035 009a 00       		.byte	0
 3036 009b 49       		.uleb128 0x49
 3037 009c 13       		.uleb128 0x13
 3038 009d 00       		.byte	0
 3039 009e 00       		.byte	0
 3040 009f 0E       		.uleb128 0xe
 3041 00a0 0F       		.uleb128 0xf
 3042 00a1 00       		.byte	0
 3043 00a2 0B       		.uleb128 0xb
 3044 00a3 0B       		.uleb128 0xb
 3045 00a4 00       		.byte	0
 3046 00a5 00       		.byte	0
 3047 00a6 0F       		.uleb128 0xf
 3048 00a7 13       		.uleb128 0x13
 3049 00a8 01       		.byte	0x1
 3050 00a9 03       		.uleb128 0x3
 3051 00aa 0E       		.uleb128 0xe
 3052 00ab 0B       		.uleb128 0xb
 3053 00ac 05       		.uleb128 0x5
 3054 00ad 3A       		.uleb128 0x3a
ARM GAS  /tmp/ccSKVCga.s 			page 55


 3055 00ae 0B       		.uleb128 0xb
 3056 00af 3B       		.uleb128 0x3b
 3057 00b0 05       		.uleb128 0x5
 3058 00b1 01       		.uleb128 0x1
 3059 00b2 13       		.uleb128 0x13
 3060 00b3 00       		.byte	0
 3061 00b4 00       		.byte	0
 3062 00b5 10       		.uleb128 0x10
 3063 00b6 13       		.uleb128 0x13
 3064 00b7 01       		.byte	0x1
 3065 00b8 0B       		.uleb128 0xb
 3066 00b9 0B       		.uleb128 0xb
 3067 00ba 3A       		.uleb128 0x3a
 3068 00bb 0B       		.uleb128 0xb
 3069 00bc 3B       		.uleb128 0x3b
 3070 00bd 05       		.uleb128 0x5
 3071 00be 01       		.uleb128 0x1
 3072 00bf 13       		.uleb128 0x13
 3073 00c0 00       		.byte	0
 3074 00c1 00       		.byte	0
 3075 00c2 11       		.uleb128 0x11
 3076 00c3 16       		.uleb128 0x16
 3077 00c4 00       		.byte	0
 3078 00c5 03       		.uleb128 0x3
 3079 00c6 0E       		.uleb128 0xe
 3080 00c7 3A       		.uleb128 0x3a
 3081 00c8 0B       		.uleb128 0xb
 3082 00c9 3B       		.uleb128 0x3b
 3083 00ca 05       		.uleb128 0x5
 3084 00cb 49       		.uleb128 0x49
 3085 00cc 13       		.uleb128 0x13
 3086 00cd 00       		.byte	0
 3087 00ce 00       		.byte	0
 3088 00cf 12       		.uleb128 0x12
 3089 00d0 0D       		.uleb128 0xd
 3090 00d1 00       		.byte	0
 3091 00d2 03       		.uleb128 0x3
 3092 00d3 08       		.uleb128 0x8
 3093 00d4 3A       		.uleb128 0x3a
 3094 00d5 0B       		.uleb128 0xb
 3095 00d6 3B       		.uleb128 0x3b
 3096 00d7 0B       		.uleb128 0xb
 3097 00d8 49       		.uleb128 0x49
 3098 00d9 13       		.uleb128 0x13
 3099 00da 38       		.uleb128 0x38
 3100 00db 0B       		.uleb128 0xb
 3101 00dc 00       		.byte	0
 3102 00dd 00       		.byte	0
 3103 00de 13       		.uleb128 0x13
 3104 00df 13       		.uleb128 0x13
 3105 00e0 01       		.byte	0x1
 3106 00e1 0B       		.uleb128 0xb
 3107 00e2 0B       		.uleb128 0xb
 3108 00e3 3A       		.uleb128 0x3a
 3109 00e4 0B       		.uleb128 0xb
 3110 00e5 3B       		.uleb128 0x3b
 3111 00e6 0B       		.uleb128 0xb
ARM GAS  /tmp/ccSKVCga.s 			page 56


 3112 00e7 01       		.uleb128 0x1
 3113 00e8 13       		.uleb128 0x13
 3114 00e9 00       		.byte	0
 3115 00ea 00       		.byte	0
 3116 00eb 14       		.uleb128 0x14
 3117 00ec 17       		.uleb128 0x17
 3118 00ed 01       		.byte	0x1
 3119 00ee 0B       		.uleb128 0xb
 3120 00ef 0B       		.uleb128 0xb
 3121 00f0 3A       		.uleb128 0x3a
 3122 00f1 0B       		.uleb128 0xb
 3123 00f2 3B       		.uleb128 0x3b
 3124 00f3 0B       		.uleb128 0xb
 3125 00f4 01       		.uleb128 0x1
 3126 00f5 13       		.uleb128 0x13
 3127 00f6 00       		.byte	0
 3128 00f7 00       		.byte	0
 3129 00f8 15       		.uleb128 0x15
 3130 00f9 0D       		.uleb128 0xd
 3131 00fa 00       		.byte	0
 3132 00fb 03       		.uleb128 0x3
 3133 00fc 0E       		.uleb128 0xe
 3134 00fd 3A       		.uleb128 0x3a
 3135 00fe 0B       		.uleb128 0xb
 3136 00ff 3B       		.uleb128 0x3b
 3137 0100 05       		.uleb128 0x5
 3138 0101 49       		.uleb128 0x49
 3139 0102 13       		.uleb128 0x13
 3140 0103 00       		.byte	0
 3141 0104 00       		.byte	0
 3142 0105 16       		.uleb128 0x16
 3143 0106 26       		.uleb128 0x26
 3144 0107 00       		.byte	0
 3145 0108 49       		.uleb128 0x49
 3146 0109 13       		.uleb128 0x13
 3147 010a 00       		.byte	0
 3148 010b 00       		.byte	0
 3149 010c 17       		.uleb128 0x17
 3150 010d 01       		.uleb128 0x1
 3151 010e 01       		.byte	0x1
 3152 010f 49       		.uleb128 0x49
 3153 0110 13       		.uleb128 0x13
 3154 0111 01       		.uleb128 0x1
 3155 0112 13       		.uleb128 0x13
 3156 0113 00       		.byte	0
 3157 0114 00       		.byte	0
 3158 0115 18       		.uleb128 0x18
 3159 0116 21       		.uleb128 0x21
 3160 0117 00       		.byte	0
 3161 0118 49       		.uleb128 0x49
 3162 0119 13       		.uleb128 0x13
 3163 011a 2F       		.uleb128 0x2f
 3164 011b 0B       		.uleb128 0xb
 3165 011c 00       		.byte	0
 3166 011d 00       		.byte	0
 3167 011e 19       		.uleb128 0x19
 3168 011f 15       		.uleb128 0x15
ARM GAS  /tmp/ccSKVCga.s 			page 57


 3169 0120 01       		.byte	0x1
 3170 0121 27       		.uleb128 0x27
 3171 0122 19       		.uleb128 0x19
 3172 0123 49       		.uleb128 0x49
 3173 0124 13       		.uleb128 0x13
 3174 0125 01       		.uleb128 0x1
 3175 0126 13       		.uleb128 0x13
 3176 0127 00       		.byte	0
 3177 0128 00       		.byte	0
 3178 0129 1A       		.uleb128 0x1a
 3179 012a 04       		.uleb128 0x4
 3180 012b 01       		.byte	0x1
 3181 012c 0B       		.uleb128 0xb
 3182 012d 0B       		.uleb128 0xb
 3183 012e 3A       		.uleb128 0x3a
 3184 012f 0B       		.uleb128 0xb
 3185 0130 3B       		.uleb128 0x3b
 3186 0131 0B       		.uleb128 0xb
 3187 0132 01       		.uleb128 0x1
 3188 0133 13       		.uleb128 0x13
 3189 0134 00       		.byte	0
 3190 0135 00       		.byte	0
 3191 0136 1B       		.uleb128 0x1b
 3192 0137 28       		.uleb128 0x28
 3193 0138 00       		.byte	0
 3194 0139 03       		.uleb128 0x3
 3195 013a 0E       		.uleb128 0xe
 3196 013b 1C       		.uleb128 0x1c
 3197 013c 0D       		.uleb128 0xd
 3198 013d 00       		.byte	0
 3199 013e 00       		.byte	0
 3200 013f 1C       		.uleb128 0x1c
 3201 0140 2E       		.uleb128 0x2e
 3202 0141 01       		.byte	0x1
 3203 0142 03       		.uleb128 0x3
 3204 0143 0E       		.uleb128 0xe
 3205 0144 3A       		.uleb128 0x3a
 3206 0145 0B       		.uleb128 0xb
 3207 0146 3B       		.uleb128 0x3b
 3208 0147 05       		.uleb128 0x5
 3209 0148 27       		.uleb128 0x27
 3210 0149 19       		.uleb128 0x19
 3211 014a 20       		.uleb128 0x20
 3212 014b 0B       		.uleb128 0xb
 3213 014c 01       		.uleb128 0x1
 3214 014d 13       		.uleb128 0x13
 3215 014e 00       		.byte	0
 3216 014f 00       		.byte	0
 3217 0150 1D       		.uleb128 0x1d
 3218 0151 05       		.uleb128 0x5
 3219 0152 00       		.byte	0
 3220 0153 03       		.uleb128 0x3
 3221 0154 0E       		.uleb128 0xe
 3222 0155 3A       		.uleb128 0x3a
 3223 0156 0B       		.uleb128 0xb
 3224 0157 3B       		.uleb128 0x3b
 3225 0158 05       		.uleb128 0x5
ARM GAS  /tmp/ccSKVCga.s 			page 58


 3226 0159 49       		.uleb128 0x49
 3227 015a 13       		.uleb128 0x13
 3228 015b 00       		.byte	0
 3229 015c 00       		.byte	0
 3230 015d 1E       		.uleb128 0x1e
 3231 015e 2E       		.uleb128 0x2e
 3232 015f 01       		.byte	0x1
 3233 0160 03       		.uleb128 0x3
 3234 0161 0E       		.uleb128 0xe
 3235 0162 3A       		.uleb128 0x3a
 3236 0163 0B       		.uleb128 0xb
 3237 0164 3B       		.uleb128 0x3b
 3238 0165 05       		.uleb128 0x5
 3239 0166 27       		.uleb128 0x27
 3240 0167 19       		.uleb128 0x19
 3241 0168 11       		.uleb128 0x11
 3242 0169 01       		.uleb128 0x1
 3243 016a 12       		.uleb128 0x12
 3244 016b 06       		.uleb128 0x6
 3245 016c 40       		.uleb128 0x40
 3246 016d 18       		.uleb128 0x18
 3247 016e 9742     		.uleb128 0x2117
 3248 0170 19       		.uleb128 0x19
 3249 0171 01       		.uleb128 0x1
 3250 0172 13       		.uleb128 0x13
 3251 0173 00       		.byte	0
 3252 0174 00       		.byte	0
 3253 0175 1F       		.uleb128 0x1f
 3254 0176 1D       		.uleb128 0x1d
 3255 0177 01       		.byte	0x1
 3256 0178 31       		.uleb128 0x31
 3257 0179 13       		.uleb128 0x13
 3258 017a 11       		.uleb128 0x11
 3259 017b 01       		.uleb128 0x1
 3260 017c 12       		.uleb128 0x12
 3261 017d 06       		.uleb128 0x6
 3262 017e 58       		.uleb128 0x58
 3263 017f 0B       		.uleb128 0xb
 3264 0180 59       		.uleb128 0x59
 3265 0181 05       		.uleb128 0x5
 3266 0182 00       		.byte	0
 3267 0183 00       		.byte	0
 3268 0184 20       		.uleb128 0x20
 3269 0185 05       		.uleb128 0x5
 3270 0186 00       		.byte	0
 3271 0187 31       		.uleb128 0x31
 3272 0188 13       		.uleb128 0x13
 3273 0189 02       		.uleb128 0x2
 3274 018a 18       		.uleb128 0x18
 3275 018b 00       		.byte	0
 3276 018c 00       		.byte	0
 3277 018d 21       		.uleb128 0x21
 3278 018e 2E       		.uleb128 0x2e
 3279 018f 00       		.byte	0
 3280 0190 03       		.uleb128 0x3
 3281 0191 0E       		.uleb128 0xe
 3282 0192 3A       		.uleb128 0x3a
ARM GAS  /tmp/ccSKVCga.s 			page 59


 3283 0193 0B       		.uleb128 0xb
 3284 0194 3B       		.uleb128 0x3b
 3285 0195 05       		.uleb128 0x5
 3286 0196 27       		.uleb128 0x27
 3287 0197 19       		.uleb128 0x19
 3288 0198 11       		.uleb128 0x11
 3289 0199 01       		.uleb128 0x1
 3290 019a 12       		.uleb128 0x12
 3291 019b 06       		.uleb128 0x6
 3292 019c 40       		.uleb128 0x40
 3293 019d 18       		.uleb128 0x18
 3294 019e 9642     		.uleb128 0x2116
 3295 01a0 19       		.uleb128 0x19
 3296 01a1 00       		.byte	0
 3297 01a2 00       		.byte	0
 3298 01a3 22       		.uleb128 0x22
 3299 01a4 2E       		.uleb128 0x2e
 3300 01a5 01       		.byte	0x1
 3301 01a6 03       		.uleb128 0x3
 3302 01a7 0E       		.uleb128 0xe
 3303 01a8 3A       		.uleb128 0x3a
 3304 01a9 0B       		.uleb128 0xb
 3305 01aa 3B       		.uleb128 0x3b
 3306 01ab 05       		.uleb128 0x5
 3307 01ac 27       		.uleb128 0x27
 3308 01ad 19       		.uleb128 0x19
 3309 01ae 11       		.uleb128 0x11
 3310 01af 01       		.uleb128 0x1
 3311 01b0 12       		.uleb128 0x12
 3312 01b1 06       		.uleb128 0x6
 3313 01b2 40       		.uleb128 0x40
 3314 01b3 18       		.uleb128 0x18
 3315 01b4 9642     		.uleb128 0x2116
 3316 01b6 19       		.uleb128 0x19
 3317 01b7 01       		.uleb128 0x1
 3318 01b8 13       		.uleb128 0x13
 3319 01b9 00       		.byte	0
 3320 01ba 00       		.byte	0
 3321 01bb 23       		.uleb128 0x23
 3322 01bc 34       		.uleb128 0x34
 3323 01bd 00       		.byte	0
 3324 01be 03       		.uleb128 0x3
 3325 01bf 0E       		.uleb128 0xe
 3326 01c0 49       		.uleb128 0x49
 3327 01c1 13       		.uleb128 0x13
 3328 01c2 34       		.uleb128 0x34
 3329 01c3 19       		.uleb128 0x19
 3330 01c4 00       		.byte	0
 3331 01c5 00       		.byte	0
 3332 01c6 24       		.uleb128 0x24
 3333 01c7 2E       		.uleb128 0x2e
 3334 01c8 01       		.byte	0x1
 3335 01c9 03       		.uleb128 0x3
 3336 01ca 0E       		.uleb128 0xe
 3337 01cb 3A       		.uleb128 0x3a
 3338 01cc 0B       		.uleb128 0xb
 3339 01cd 3B       		.uleb128 0x3b
ARM GAS  /tmp/ccSKVCga.s 			page 60


 3340 01ce 0B       		.uleb128 0xb
 3341 01cf 27       		.uleb128 0x27
 3342 01d0 19       		.uleb128 0x19
 3343 01d1 11       		.uleb128 0x11
 3344 01d2 01       		.uleb128 0x1
 3345 01d3 12       		.uleb128 0x12
 3346 01d4 06       		.uleb128 0x6
 3347 01d5 40       		.uleb128 0x40
 3348 01d6 18       		.uleb128 0x18
 3349 01d7 9742     		.uleb128 0x2117
 3350 01d9 19       		.uleb128 0x19
 3351 01da 01       		.uleb128 0x1
 3352 01db 13       		.uleb128 0x13
 3353 01dc 00       		.byte	0
 3354 01dd 00       		.byte	0
 3355 01de 25       		.uleb128 0x25
 3356 01df 05       		.uleb128 0x5
 3357 01e0 00       		.byte	0
 3358 01e1 03       		.uleb128 0x3
 3359 01e2 08       		.uleb128 0x8
 3360 01e3 3A       		.uleb128 0x3a
 3361 01e4 0B       		.uleb128 0xb
 3362 01e5 3B       		.uleb128 0x3b
 3363 01e6 0B       		.uleb128 0xb
 3364 01e7 49       		.uleb128 0x49
 3365 01e8 13       		.uleb128 0x13
 3366 01e9 02       		.uleb128 0x2
 3367 01ea 18       		.uleb128 0x18
 3368 01eb 00       		.byte	0
 3369 01ec 00       		.byte	0
 3370 01ed 26       		.uleb128 0x26
 3371 01ee 2E       		.uleb128 0x2e
 3372 01ef 01       		.byte	0x1
 3373 01f0 03       		.uleb128 0x3
 3374 01f1 0E       		.uleb128 0xe
 3375 01f2 3A       		.uleb128 0x3a
 3376 01f3 0B       		.uleb128 0xb
 3377 01f4 3B       		.uleb128 0x3b
 3378 01f5 05       		.uleb128 0x5
 3379 01f6 27       		.uleb128 0x27
 3380 01f7 19       		.uleb128 0x19
 3381 01f8 49       		.uleb128 0x49
 3382 01f9 13       		.uleb128 0x13
 3383 01fa 11       		.uleb128 0x11
 3384 01fb 01       		.uleb128 0x1
 3385 01fc 12       		.uleb128 0x12
 3386 01fd 06       		.uleb128 0x6
 3387 01fe 40       		.uleb128 0x40
 3388 01ff 18       		.uleb128 0x18
 3389 0200 9742     		.uleb128 0x2117
 3390 0202 19       		.uleb128 0x19
 3391 0203 01       		.uleb128 0x1
 3392 0204 13       		.uleb128 0x13
 3393 0205 00       		.byte	0
 3394 0206 00       		.byte	0
 3395 0207 27       		.uleb128 0x27
 3396 0208 05       		.uleb128 0x5
ARM GAS  /tmp/ccSKVCga.s 			page 61


 3397 0209 00       		.byte	0
 3398 020a 03       		.uleb128 0x3
 3399 020b 08       		.uleb128 0x8
 3400 020c 3A       		.uleb128 0x3a
 3401 020d 0B       		.uleb128 0xb
 3402 020e 3B       		.uleb128 0x3b
 3403 020f 05       		.uleb128 0x5
 3404 0210 49       		.uleb128 0x49
 3405 0211 13       		.uleb128 0x13
 3406 0212 02       		.uleb128 0x2
 3407 0213 18       		.uleb128 0x18
 3408 0214 00       		.byte	0
 3409 0215 00       		.byte	0
 3410 0216 28       		.uleb128 0x28
 3411 0217 05       		.uleb128 0x5
 3412 0218 00       		.byte	0
 3413 0219 03       		.uleb128 0x3
 3414 021a 0E       		.uleb128 0xe
 3415 021b 3A       		.uleb128 0x3a
 3416 021c 0B       		.uleb128 0xb
 3417 021d 3B       		.uleb128 0x3b
 3418 021e 05       		.uleb128 0x5
 3419 021f 49       		.uleb128 0x49
 3420 0220 13       		.uleb128 0x13
 3421 0221 02       		.uleb128 0x2
 3422 0222 18       		.uleb128 0x18
 3423 0223 00       		.byte	0
 3424 0224 00       		.byte	0
 3425 0225 29       		.uleb128 0x29
 3426 0226 2E       		.uleb128 0x2e
 3427 0227 01       		.byte	0x1
 3428 0228 03       		.uleb128 0x3
 3429 0229 0E       		.uleb128 0xe
 3430 022a 3A       		.uleb128 0x3a
 3431 022b 0B       		.uleb128 0xb
 3432 022c 3B       		.uleb128 0x3b
 3433 022d 0B       		.uleb128 0xb
 3434 022e 27       		.uleb128 0x27
 3435 022f 19       		.uleb128 0x19
 3436 0230 49       		.uleb128 0x49
 3437 0231 13       		.uleb128 0x13
 3438 0232 11       		.uleb128 0x11
 3439 0233 01       		.uleb128 0x1
 3440 0234 12       		.uleb128 0x12
 3441 0235 06       		.uleb128 0x6
 3442 0236 40       		.uleb128 0x40
 3443 0237 18       		.uleb128 0x18
 3444 0238 9642     		.uleb128 0x2116
 3445 023a 19       		.uleb128 0x19
 3446 023b 01       		.uleb128 0x1
 3447 023c 13       		.uleb128 0x13
 3448 023d 00       		.byte	0
 3449 023e 00       		.byte	0
 3450 023f 2A       		.uleb128 0x2a
 3451 0240 2E       		.uleb128 0x2e
 3452 0241 01       		.byte	0x1
 3453 0242 03       		.uleb128 0x3
ARM GAS  /tmp/ccSKVCga.s 			page 62


 3454 0243 08       		.uleb128 0x8
 3455 0244 3A       		.uleb128 0x3a
 3456 0245 0B       		.uleb128 0xb
 3457 0246 3B       		.uleb128 0x3b
 3458 0247 0B       		.uleb128 0xb
 3459 0248 27       		.uleb128 0x27
 3460 0249 19       		.uleb128 0x19
 3461 024a 49       		.uleb128 0x49
 3462 024b 13       		.uleb128 0x13
 3463 024c 11       		.uleb128 0x11
 3464 024d 01       		.uleb128 0x1
 3465 024e 12       		.uleb128 0x12
 3466 024f 06       		.uleb128 0x6
 3467 0250 40       		.uleb128 0x40
 3468 0251 18       		.uleb128 0x18
 3469 0252 9642     		.uleb128 0x2116
 3470 0254 19       		.uleb128 0x19
 3471 0255 01       		.uleb128 0x1
 3472 0256 13       		.uleb128 0x13
 3473 0257 00       		.byte	0
 3474 0258 00       		.byte	0
 3475 0259 2B       		.uleb128 0x2b
 3476 025a 05       		.uleb128 0x5
 3477 025b 00       		.byte	0
 3478 025c 03       		.uleb128 0x3
 3479 025d 0E       		.uleb128 0xe
 3480 025e 3A       		.uleb128 0x3a
 3481 025f 0B       		.uleb128 0xb
 3482 0260 3B       		.uleb128 0x3b
 3483 0261 0B       		.uleb128 0xb
 3484 0262 49       		.uleb128 0x49
 3485 0263 13       		.uleb128 0x13
 3486 0264 02       		.uleb128 0x2
 3487 0265 18       		.uleb128 0x18
 3488 0266 00       		.byte	0
 3489 0267 00       		.byte	0
 3490 0268 2C       		.uleb128 0x2c
 3491 0269 2E       		.uleb128 0x2e
 3492 026a 00       		.byte	0
 3493 026b 3F       		.uleb128 0x3f
 3494 026c 19       		.uleb128 0x19
 3495 026d 03       		.uleb128 0x3
 3496 026e 0E       		.uleb128 0xe
 3497 026f 3A       		.uleb128 0x3a
 3498 0270 0B       		.uleb128 0xb
 3499 0271 3B       		.uleb128 0x3b
 3500 0272 0B       		.uleb128 0xb
 3501 0273 27       		.uleb128 0x27
 3502 0274 19       		.uleb128 0x19
 3503 0275 11       		.uleb128 0x11
 3504 0276 01       		.uleb128 0x1
 3505 0277 12       		.uleb128 0x12
 3506 0278 06       		.uleb128 0x6
 3507 0279 40       		.uleb128 0x40
 3508 027a 18       		.uleb128 0x18
 3509 027b 9642     		.uleb128 0x2116
 3510 027d 19       		.uleb128 0x19
ARM GAS  /tmp/ccSKVCga.s 			page 63


 3511 027e 00       		.byte	0
 3512 027f 00       		.byte	0
 3513 0280 2D       		.uleb128 0x2d
 3514 0281 2E       		.uleb128 0x2e
 3515 0282 01       		.byte	0x1
 3516 0283 3F       		.uleb128 0x3f
 3517 0284 19       		.uleb128 0x19
 3518 0285 03       		.uleb128 0x3
 3519 0286 0E       		.uleb128 0xe
 3520 0287 3A       		.uleb128 0x3a
 3521 0288 0B       		.uleb128 0xb
 3522 0289 3B       		.uleb128 0x3b
 3523 028a 0B       		.uleb128 0xb
 3524 028b 27       		.uleb128 0x27
 3525 028c 19       		.uleb128 0x19
 3526 028d 11       		.uleb128 0x11
 3527 028e 01       		.uleb128 0x1
 3528 028f 12       		.uleb128 0x12
 3529 0290 06       		.uleb128 0x6
 3530 0291 40       		.uleb128 0x40
 3531 0292 18       		.uleb128 0x18
 3532 0293 9642     		.uleb128 0x2116
 3533 0295 19       		.uleb128 0x19
 3534 0296 01       		.uleb128 0x1
 3535 0297 13       		.uleb128 0x13
 3536 0298 00       		.byte	0
 3537 0299 00       		.byte	0
 3538 029a 2E       		.uleb128 0x2e
 3539 029b 2E       		.uleb128 0x2e
 3540 029c 01       		.byte	0x1
 3541 029d 3F       		.uleb128 0x3f
 3542 029e 19       		.uleb128 0x19
 3543 029f 03       		.uleb128 0x3
 3544 02a0 0E       		.uleb128 0xe
 3545 02a1 3A       		.uleb128 0x3a
 3546 02a2 0B       		.uleb128 0xb
 3547 02a3 3B       		.uleb128 0x3b
 3548 02a4 0B       		.uleb128 0xb
 3549 02a5 27       		.uleb128 0x27
 3550 02a6 19       		.uleb128 0x19
 3551 02a7 49       		.uleb128 0x49
 3552 02a8 13       		.uleb128 0x13
 3553 02a9 11       		.uleb128 0x11
 3554 02aa 01       		.uleb128 0x1
 3555 02ab 12       		.uleb128 0x12
 3556 02ac 06       		.uleb128 0x6
 3557 02ad 40       		.uleb128 0x40
 3558 02ae 18       		.uleb128 0x18
 3559 02af 9642     		.uleb128 0x2116
 3560 02b1 19       		.uleb128 0x19
 3561 02b2 01       		.uleb128 0x1
 3562 02b3 13       		.uleb128 0x13
 3563 02b4 00       		.byte	0
 3564 02b5 00       		.byte	0
 3565 02b6 2F       		.uleb128 0x2f
 3566 02b7 34       		.uleb128 0x34
 3567 02b8 00       		.byte	0
ARM GAS  /tmp/ccSKVCga.s 			page 64


 3568 02b9 03       		.uleb128 0x3
 3569 02ba 08       		.uleb128 0x8
 3570 02bb 3A       		.uleb128 0x3a
 3571 02bc 0B       		.uleb128 0xb
 3572 02bd 3B       		.uleb128 0x3b
 3573 02be 0B       		.uleb128 0xb
 3574 02bf 49       		.uleb128 0x49
 3575 02c0 13       		.uleb128 0x13
 3576 02c1 02       		.uleb128 0x2
 3577 02c2 18       		.uleb128 0x18
 3578 02c3 00       		.byte	0
 3579 02c4 00       		.byte	0
 3580 02c5 30       		.uleb128 0x30
 3581 02c6 34       		.uleb128 0x34
 3582 02c7 00       		.byte	0
 3583 02c8 03       		.uleb128 0x3
 3584 02c9 0E       		.uleb128 0xe
 3585 02ca 3A       		.uleb128 0x3a
 3586 02cb 0B       		.uleb128 0xb
 3587 02cc 3B       		.uleb128 0x3b
 3588 02cd 05       		.uleb128 0x5
 3589 02ce 49       		.uleb128 0x49
 3590 02cf 13       		.uleb128 0x13
 3591 02d0 3F       		.uleb128 0x3f
 3592 02d1 19       		.uleb128 0x19
 3593 02d2 3C       		.uleb128 0x3c
 3594 02d3 19       		.uleb128 0x19
 3595 02d4 00       		.byte	0
 3596 02d5 00       		.byte	0
 3597 02d6 31       		.uleb128 0x31
 3598 02d7 34       		.uleb128 0x34
 3599 02d8 00       		.byte	0
 3600 02d9 03       		.uleb128 0x3
 3601 02da 08       		.uleb128 0x8
 3602 02db 3A       		.uleb128 0x3a
 3603 02dc 0B       		.uleb128 0xb
 3604 02dd 3B       		.uleb128 0x3b
 3605 02de 05       		.uleb128 0x5
 3606 02df 49       		.uleb128 0x49
 3607 02e0 13       		.uleb128 0x13
 3608 02e1 3F       		.uleb128 0x3f
 3609 02e2 19       		.uleb128 0x19
 3610 02e3 3C       		.uleb128 0x3c
 3611 02e4 19       		.uleb128 0x19
 3612 02e5 00       		.byte	0
 3613 02e6 00       		.byte	0
 3614 02e7 00       		.byte	0
 3615              		.section	.debug_aranges,"",%progbits
 3616 0000 DC000000 		.4byte	0xdc
 3617 0004 0200     		.2byte	0x2
 3618 0006 00000000 		.4byte	.Ldebug_info0
 3619 000a 04       		.byte	0x4
 3620 000b 00       		.byte	0
 3621 000c 0000     		.2byte	0
 3622 000e 0000     		.2byte	0
 3623 0010 00000000 		.4byte	.LFB127
 3624 0014 10000000 		.4byte	.LFE127-.LFB127
ARM GAS  /tmp/ccSKVCga.s 			page 65


 3625 0018 00000000 		.4byte	.LFB128
 3626 001c 10000000 		.4byte	.LFE128-.LFB128
 3627 0020 00000000 		.4byte	.LFB167
 3628 0024 08000000 		.4byte	.LFE167-.LFB167
 3629 0028 00000000 		.4byte	.LFB168
 3630 002c 08000000 		.4byte	.LFE168-.LFB168
 3631 0030 00000000 		.4byte	.LFB215
 3632 0034 0E000000 		.4byte	.LFE215-.LFB215
 3633 0038 00000000 		.4byte	.LFB232
 3634 003c 18000000 		.4byte	.LFE232-.LFB232
 3635 0040 00000000 		.4byte	.LFB244
 3636 0044 08000000 		.4byte	.LFE244-.LFB244
 3637 0048 00000000 		.4byte	.LFB245
 3638 004c 08000000 		.4byte	.LFE245-.LFB245
 3639 0050 00000000 		.4byte	.LFB252
 3640 0054 08000000 		.4byte	.LFE252-.LFB252
 3641 0058 00000000 		.4byte	.LFB265
 3642 005c 12000000 		.4byte	.LFE265-.LFB265
 3643 0060 00000000 		.4byte	.LFB266
 3644 0064 16000000 		.4byte	.LFE266-.LFB266
 3645 0068 00000000 		.4byte	.LFB271
 3646 006c 26000000 		.4byte	.LFE271-.LFB271
 3647 0070 00000000 		.4byte	.LFB272
 3648 0074 26000000 		.4byte	.LFE272-.LFB272
 3649 0078 00000000 		.4byte	.LFB273
 3650 007c 2C000000 		.4byte	.LFE273-.LFB273
 3651 0080 00000000 		.4byte	.LFB274
 3652 0084 1E000000 		.4byte	.LFE274-.LFB274
 3653 0088 00000000 		.4byte	.LFB275
 3654 008c 2C000000 		.4byte	.LFE275-.LFB275
 3655 0090 00000000 		.4byte	.LFB276
 3656 0094 1E000000 		.4byte	.LFE276-.LFB276
 3657 0098 00000000 		.4byte	.LFB277
 3658 009c 26000000 		.4byte	.LFE277-.LFB277
 3659 00a0 00000000 		.4byte	.LFB278
 3660 00a4 26000000 		.4byte	.LFE278-.LFB278
 3661 00a8 00000000 		.4byte	.LFB279
 3662 00ac 08000000 		.4byte	.LFE279-.LFB279
 3663 00b0 00000000 		.4byte	.LFB280
 3664 00b4 60000000 		.4byte	.LFE280-.LFB280
 3665 00b8 00000000 		.4byte	.LFB281
 3666 00bc 24000000 		.4byte	.LFE281-.LFB281
 3667 00c0 00000000 		.4byte	.LFB282
 3668 00c4 38000000 		.4byte	.LFE282-.LFB282
 3669 00c8 00000000 		.4byte	.LFB283
 3670 00cc 52000000 		.4byte	.LFE283-.LFB283
 3671 00d0 00000000 		.4byte	.LFB284
 3672 00d4 2E000000 		.4byte	.LFE284-.LFB284
 3673 00d8 00000000 		.4byte	0
 3674 00dc 00000000 		.4byte	0
 3675              		.section	.debug_ranges,"",%progbits
 3676              	.Ldebug_ranges0:
 3677 0000 00000000 		.4byte	.LFB127
 3678 0004 10000000 		.4byte	.LFE127
 3679 0008 00000000 		.4byte	.LFB128
 3680 000c 10000000 		.4byte	.LFE128
 3681 0010 00000000 		.4byte	.LFB167
ARM GAS  /tmp/ccSKVCga.s 			page 66


 3682 0014 08000000 		.4byte	.LFE167
 3683 0018 00000000 		.4byte	.LFB168
 3684 001c 08000000 		.4byte	.LFE168
 3685 0020 00000000 		.4byte	.LFB215
 3686 0024 0E000000 		.4byte	.LFE215
 3687 0028 00000000 		.4byte	.LFB232
 3688 002c 18000000 		.4byte	.LFE232
 3689 0030 00000000 		.4byte	.LFB244
 3690 0034 08000000 		.4byte	.LFE244
 3691 0038 00000000 		.4byte	.LFB245
 3692 003c 08000000 		.4byte	.LFE245
 3693 0040 00000000 		.4byte	.LFB252
 3694 0044 08000000 		.4byte	.LFE252
 3695 0048 00000000 		.4byte	.LFB265
 3696 004c 12000000 		.4byte	.LFE265
 3697 0050 00000000 		.4byte	.LFB266
 3698 0054 16000000 		.4byte	.LFE266
 3699 0058 00000000 		.4byte	.LFB271
 3700 005c 26000000 		.4byte	.LFE271
 3701 0060 00000000 		.4byte	.LFB272
 3702 0064 26000000 		.4byte	.LFE272
 3703 0068 00000000 		.4byte	.LFB273
 3704 006c 2C000000 		.4byte	.LFE273
 3705 0070 00000000 		.4byte	.LFB274
 3706 0074 1E000000 		.4byte	.LFE274
 3707 0078 00000000 		.4byte	.LFB275
 3708 007c 2C000000 		.4byte	.LFE275
 3709 0080 00000000 		.4byte	.LFB276
 3710 0084 1E000000 		.4byte	.LFE276
 3711 0088 00000000 		.4byte	.LFB277
 3712 008c 26000000 		.4byte	.LFE277
 3713 0090 00000000 		.4byte	.LFB278
 3714 0094 26000000 		.4byte	.LFE278
 3715 0098 00000000 		.4byte	.LFB279
 3716 009c 08000000 		.4byte	.LFE279
 3717 00a0 00000000 		.4byte	.LFB280
 3718 00a4 60000000 		.4byte	.LFE280
 3719 00a8 00000000 		.4byte	.LFB281
 3720 00ac 24000000 		.4byte	.LFE281
 3721 00b0 00000000 		.4byte	.LFB282
 3722 00b4 38000000 		.4byte	.LFE282
 3723 00b8 00000000 		.4byte	.LFB283
 3724 00bc 52000000 		.4byte	.LFE283
 3725 00c0 00000000 		.4byte	.LFB284
 3726 00c4 2E000000 		.4byte	.LFE284
 3727 00c8 00000000 		.4byte	0
 3728 00cc 00000000 		.4byte	0
 3729              		.section	.debug_line,"",%progbits
 3730              	.Ldebug_line0:
 3731 0000 F1040000 		.section	.debug_str,"MS",%progbits,1
 3731      0200D502 
 3731      00000201 
 3731      FB0E0D00 
 3731      01010101 
 3732              	.LASF23:
 3733 0000 74726566 		.ascii	"trefs_t\000"
 3733      735F7400 
ARM GAS  /tmp/ccSKVCga.s 			page 67


 3734              	.LASF54:
 3735 0008 72656164 		.ascii	"ready_list_t\000"
 3735      795F6C69 
 3735      73745F74 
 3735      00
 3736              	.LASF2:
 3737 0015 73697A65 		.ascii	"size_t\000"
 3737      5F7400
 3738              	.LASF91:
 3739 001c 7264796D 		.ascii	"rdymsg\000"
 3739      736700
 3740              	.LASF19:
 3741 0023 75696E74 		.ascii	"uint64_t\000"
 3741      36345F74 
 3741      00
 3742              	.LASF3:
 3743 002c 5F5F7569 		.ascii	"__uint8_t\000"
 3743      6E74385F 
 3743      7400
 3744              	.LASF88:
 3745 0036 706F7274 		.ascii	"port_intctx\000"
 3745      5F696E74 
 3745      63747800 
 3746              	.LASF73:
 3747 0042 73797374 		.ascii	"system_debug_t\000"
 3747      656D5F64 
 3747      65627567 
 3747      5F7400
 3748              	.LASF150:
 3749 0051 706F7274 		.ascii	"port_lock\000"
 3749      5F6C6F63 
 3749      6B00
 3750              	.LASF14:
 3751 005b 6C6F6E67 		.ascii	"long long unsigned int\000"
 3751      206C6F6E 
 3751      6720756E 
 3751      7369676E 
 3751      65642069 
 3752              	.LASF159:
 3753 0072 6F73616C 		.ascii	"osalEventBroadcastFlagsI\000"
 3753      4576656E 
 3753      7442726F 
 3753      61646361 
 3753      7374466C 
 3754              	.LASF92:
 3755 008b 65786974 		.ascii	"exitcode\000"
 3755      636F6465 
 3755      00
 3756              	.LASF80:
 3757 0094 6D61696E 		.ascii	"mainthread\000"
 3757      74687265 
 3757      616400
 3758              	.LASF8:
 3759 009f 5F5F696E 		.ascii	"__int32_t\000"
 3759      7433325F 
 3759      7400
 3760              	.LASF70:
ARM GAS  /tmp/ccSKVCga.s 			page 68


 3761 00a9 76697274 		.ascii	"virtual_timers_list_t\000"
 3761      75616C5F 
 3761      74696D65 
 3761      72735F6C 
 3761      6973745F 
 3762              	.LASF171:
 3763 00bf 49544D5F 		.ascii	"ITM_RxBuffer\000"
 3763      52784275 
 3763      66666572 
 3763      00
 3764              	.LASF117:
 3765 00cc 696F5F71 		.ascii	"io_queue_t\000"
 3765      75657565 
 3765      5F7400
 3766              	.LASF53:
 3767 00d7 63685F74 		.ascii	"ch_threads_queue\000"
 3767      68726561 
 3767      64735F71 
 3767      75657565 
 3767      00
 3768              	.LASF165:
 3769 00e8 73644F62 		.ascii	"sdObjectInit\000"
 3769      6A656374 
 3769      496E6974 
 3769      00
 3770              	.LASF149:
 3771 00f5 72656164 		.ascii	"readt\000"
 3771      7400
 3772              	.LASF119:
 3773 00fb 715F7761 		.ascii	"q_waiting\000"
 3773      6974696E 
 3773      6700
 3774              	.LASF12:
 3775 0105 6C6F6E67 		.ascii	"long long int\000"
 3775      206C6F6E 
 3775      6720696E 
 3775      7400
 3776              	.LASF1:
 3777 0113 7369676E 		.ascii	"signed char\000"
 3777      65642063 
 3777      68617200 
 3778              	.LASF83:
 3779 011f 47545052 		.ascii	"GTPR\000"
 3779      00
 3780              	.LASF47:
 3781 0124 705F6D70 		.ascii	"p_mpool\000"
 3781      6F6F6C00 
 3782              	.LASF158:
 3783 012c 6F73616C 		.ascii	"osalEventObjectInit\000"
 3783      4576656E 
 3783      744F626A 
 3783      65637449 
 3783      6E697400 
 3784              	.LASF102:
 3785 0140 6D5F7175 		.ascii	"m_queue\000"
 3785      65756500 
 3786              	.LASF79:
ARM GAS  /tmp/ccSKVCga.s 			page 69


 3787 0148 76746C69 		.ascii	"vtlist\000"
 3787      737400
 3788              	.LASF151:
 3789 014f 706F7274 		.ascii	"port_unlock\000"
 3789      5F756E6C 
 3789      6F636B00 
 3790              	.LASF137:
 3791 015b 73746174 		.ascii	"state\000"
 3791      6500
 3792              	.LASF77:
 3793 0161 63685F73 		.ascii	"ch_system\000"
 3793      79737465 
 3793      6D00
 3794              	.LASF9:
 3795 016b 6C6F6E67 		.ascii	"long int\000"
 3795      20696E74 
 3795      00
 3796              	.LASF114:
 3797 0174 6576656E 		.ascii	"event_source\000"
 3797      745F736F 
 3797      75726365 
 3797      00
 3798              	.LASF22:
 3799 0181 74737461 		.ascii	"tstate_t\000"
 3799      74655F74 
 3799      00
 3800              	.LASF40:
 3801 018a 705F7265 		.ascii	"p_refs\000"
 3801      667300
 3802              	.LASF121:
 3803 0191 715F6275 		.ascii	"q_buffer\000"
 3803      66666572 
 3803      00
 3804              	.LASF123:
 3805 019a 715F7772 		.ascii	"q_wrptr\000"
 3805      70747200 
 3806              	.LASF172:
 3807 01a2 474E5520 		.ascii	"GNU C 4.8.4 20141219 (release) -mcpu=cortex-m4 -mno"
 3807      4320342E 
 3807      382E3420 
 3807      32303134 
 3807      31323139 
 3808 01d5 2D746875 		.ascii	"-thumb-interwork -mthumb -ggdb -O0 -fomit-frame-poi"
 3808      6D622D69 
 3808      6E746572 
 3808      776F726B 
 3808      202D6D74 
 3809 0208 6E746572 		.ascii	"nter -falign-functions=16 -ffunction-sections -fdat"
 3809      202D6661 
 3809      6C69676E 
 3809      2D66756E 
 3809      6374696F 
 3810 023b 612D7365 		.ascii	"a-sections -fno-common\000"
 3810      6374696F 
 3810      6E73202D 
 3810      666E6F2D 
 3810      636F6D6D 
ARM GAS  /tmp/ccSKVCga.s 			page 70


 3811              	.LASF132:
 3812 0252 53445F53 		.ascii	"SD_STOP\000"
 3812      544F5000 
 3813              	.LASF35:
 3814 025a 705F6E65 		.ascii	"p_newer\000"
 3814      77657200 
 3815              	.LASF99:
 3816 0262 735F7175 		.ascii	"s_queue\000"
 3816      65756500 
 3817              	.LASF59:
 3818 026a 725F6E65 		.ascii	"r_newer\000"
 3818      77657200 
 3819              	.LASF85:
 3820 0272 72656761 		.ascii	"regarm_t\000"
 3820      726D5F74 
 3820      00
 3821              	.LASF66:
 3822 027b 76745F70 		.ascii	"vt_prev\000"
 3822      72657600 
 3823              	.LASF155:
 3824 0283 6F73616C 		.ascii	"osalSysLock\000"
 3824      5379734C 
 3824      6F636B00 
 3825              	.LASF106:
 3826 028f 6D757465 		.ascii	"mutex_t\000"
 3826      785F7400 
 3827              	.LASF175:
 3828 0297 76616C75 		.ascii	"value\000"
 3828      6500
 3829              	.LASF118:
 3830 029d 696F5F71 		.ascii	"io_queue\000"
 3830      75657565 
 3830      00
 3831              	.LASF116:
 3832 02a6 6576656E 		.ascii	"event_source_t\000"
 3832      745F736F 
 3832      75726365 
 3832      5F7400
 3833              	.LASF81:
 3834 02b5 69646C65 		.ascii	"idle_thread_wa\000"
 3834      5F746872 
 3834      6561645F 
 3834      776100
 3835              	.LASF28:
 3836 02c4 636E745F 		.ascii	"cnt_t\000"
 3836      7400
 3837              	.LASF140:
 3838 02ca 75736172 		.ascii	"usart\000"
 3838      7400
 3839              	.LASF0:
 3840 02d0 756E7369 		.ascii	"unsigned int\000"
 3840      676E6564 
 3840      20696E74 
 3840      00
 3841              	.LASF65:
 3842 02dd 76745F6E 		.ascii	"vt_next\000"
 3842      65787400 
ARM GAS  /tmp/ccSKVCga.s 			page 71


 3843              	.LASF16:
 3844 02e5 75696E74 		.ascii	"uint16_t\000"
 3844      31365F74 
 3844      00
 3845              	.LASF143:
 3846 02ee 53657269 		.ascii	"SerialDriverVMT\000"
 3846      616C4472 
 3846      69766572 
 3846      564D5400 
 3847              	.LASF163:
 3848 02fe 696E6F74 		.ascii	"inotify\000"
 3848      69667900 
 3849              	.LASF95:
 3850 0306 77747365 		.ascii	"wtsemp\000"
 3850      6D7000
 3851              	.LASF138:
 3852 030d 69717565 		.ascii	"iqueue\000"
 3852      756500
 3853              	.LASF42:
 3854 0314 705F6D73 		.ascii	"p_msgqueue\000"
 3854      67717565 
 3854      756500
 3855              	.LASF162:
 3856 031f 74696D65 		.ascii	"timeout\000"
 3856      6F757400 
 3857              	.LASF147:
 3858 0327 67657474 		.ascii	"gett\000"
 3858      00
 3859              	.LASF100:
 3860 032c 735F636E 		.ascii	"s_cnt\000"
 3860      7400
 3861              	.LASF136:
 3862 0332 6576656E 		.ascii	"event\000"
 3862      7400
 3863              	.LASF153:
 3864 0338 63684576 		.ascii	"chEvtObjectInit\000"
 3864      744F626A 
 3864      65637449 
 3864      6E697400 
 3865              	.LASF7:
 3866 0348 73686F72 		.ascii	"short unsigned int\000"
 3866      7420756E 
 3866      7369676E 
 3866      65642069 
 3866      6E7400
 3867              	.LASF50:
 3868 035b 63685F74 		.ascii	"ch_thread\000"
 3868      68726561 
 3868      6400
 3869              	.LASF113:
 3870 0365 656C5F77 		.ascii	"el_wflags\000"
 3870      666C6167 
 3870      7300
 3871              	.LASF25:
 3872 036f 6D73675F 		.ascii	"msg_t\000"
 3872      7400
 3873              	.LASF139:
ARM GAS  /tmp/ccSKVCga.s 			page 72


 3874 0375 6F717565 		.ascii	"oqueue\000"
 3874      756500
 3875              	.LASF109:
 3876 037c 656C5F6E 		.ascii	"el_next\000"
 3876      65787400 
 3877              	.LASF76:
 3878 0384 63685F73 		.ascii	"ch_system_t\000"
 3878      79737465 
 3878      6D5F7400 
 3879              	.LASF84:
 3880 0390 55534152 		.ascii	"USART_TypeDef\000"
 3880      545F5479 
 3880      70654465 
 3880      6600
 3881              	.LASF148:
 3882 039e 77726974 		.ascii	"writet\000"
 3882      657400
 3883              	.LASF21:
 3884 03a5 746D6F64 		.ascii	"tmode_t\000"
 3884      655F7400 
 3885              	.LASF55:
 3886 03ad 63685F72 		.ascii	"ch_ready_list\000"
 3886      65616479 
 3886      5F6C6973 
 3886      7400
 3887              	.LASF26:
 3888 03bb 6576656E 		.ascii	"eventmask_t\000"
 3888      746D6173 
 3888      6B5F7400 
 3889              	.LASF141:
 3890 03c7 73706565 		.ascii	"speed\000"
 3890      6400
 3891              	.LASF127:
 3892 03cd 716E6F74 		.ascii	"qnotify_t\000"
 3892      6966795F 
 3892      7400
 3893              	.LASF86:
 3894 03d7 73746B61 		.ascii	"stkalign_t\000"
 3894      6C69676E 
 3894      5F7400
 3895              	.LASF144:
 3896 03e2 77726974 		.ascii	"write\000"
 3896      6500
 3897              	.LASF128:
 3898 03e8 696E7075 		.ascii	"input_queue_t\000"
 3898      745F7175 
 3898      6575655F 
 3898      7400
 3899              	.LASF146:
 3900 03f6 70757474 		.ascii	"putt\000"
 3900      00
 3901              	.LASF41:
 3902 03fb 705F7761 		.ascii	"p_waiting\000"
 3902      6974696E 
 3902      6700
 3903              	.LASF82:
 3904 0405 73697A65 		.ascii	"sizetype\000"
ARM GAS  /tmp/ccSKVCga.s 			page 73


 3904      74797065 
 3904      00
 3905              	.LASF48:
 3906 040e 74687265 		.ascii	"thread_reference_t\000"
 3906      61645F72 
 3906      65666572 
 3906      656E6365 
 3906      5F7400
 3907              	.LASF71:
 3908 0421 63685F76 		.ascii	"ch_virtual_timers_list\000"
 3908      69727475 
 3908      616C5F74 
 3908      696D6572 
 3908      735F6C69 
 3909              	.LASF120:
 3910 0438 715F636F 		.ascii	"q_counter\000"
 3910      756E7465 
 3910      7200
 3911              	.LASF94:
 3912 0442 77747472 		.ascii	"wttrp\000"
 3912      7000
 3913              	.LASF33:
 3914 0448 705F7072 		.ascii	"p_prio\000"
 3914      696F00
 3915              	.LASF72:
 3916 044f 76745F6C 		.ascii	"vt_lasttime\000"
 3916      61737474 
 3916      696D6500 
 3917              	.LASF36:
 3918 045b 705F6F6C 		.ascii	"p_older\000"
 3918      64657200 
 3919              	.LASF58:
 3920 0463 725F6374 		.ascii	"r_ctx\000"
 3920      7800
 3921              	.LASF90:
 3922 0469 746D5F63 		.ascii	"tm_calibration_t\000"
 3922      616C6962 
 3922      72617469 
 3922      6F6E5F74 
 3922      00
 3923              	.LASF173:
 3924 047a 2F686F6D 		.ascii	"/home/efe/ChibiOS/os/hal/src/serial.c\000"
 3924      652F6566 
 3924      652F4368 
 3924      6962694F 
 3924      532F6F73 
 3925              	.LASF169:
 3926 04a0 73645374 		.ascii	"sdStop\000"
 3926      6F7000
 3927              	.LASF61:
 3928 04a7 725F6375 		.ascii	"r_current\000"
 3928      7272656E 
 3928      7400
 3929              	.LASF60:
 3930 04b1 725F6F6C 		.ascii	"r_older\000"
 3930      64657200 
 3931              	.LASF111:
ARM GAS  /tmp/ccSKVCga.s 			page 74


 3932 04b9 656C5F65 		.ascii	"el_events\000"
 3932      76656E74 
 3932      7300
 3933              	.LASF142:
 3934 04c3 53657269 		.ascii	"SerialConfig\000"
 3934      616C436F 
 3934      6E666967 
 3934      00
 3935              	.LASF13:
 3936 04d0 5F5F7569 		.ascii	"__uint64_t\000"
 3936      6E743634 
 3936      5F7400
 3937              	.LASF157:
 3938 04db 6F73616C 		.ascii	"osalOsRescheduleS\000"
 3938      4F735265 
 3938      73636865 
 3938      64756C65 
 3938      5300
 3939              	.LASF63:
 3940 04ed 76697274 		.ascii	"virtual_timer_t\000"
 3940      75616C5F 
 3940      74696D65 
 3940      725F7400 
 3941              	.LASF32:
 3942 04fd 705F7072 		.ascii	"p_prev\000"
 3942      657600
 3943              	.LASF24:
 3944 0504 74707269 		.ascii	"tprio_t\000"
 3944      6F5F7400 
 3945              	.LASF124:
 3946 050c 715F7264 		.ascii	"q_rdptr\000"
 3946      70747200 
 3947              	.LASF74:
 3948 0514 63685F73 		.ascii	"ch_system_debug\000"
 3948      79737465 
 3948      6D5F6465 
 3948      62756700 
 3949              	.LASF130:
 3950 0524 5F426F6F 		.ascii	"_Bool\000"
 3950      6C00
 3951              	.LASF17:
 3952 052a 696E7433 		.ascii	"int32_t\000"
 3952      325F7400 
 3953              	.LASF4:
 3954 0532 756E7369 		.ascii	"unsigned char\000"
 3954      676E6564 
 3954      20636861 
 3954      7200
 3955              	.LASF110:
 3956 0540 656C5F6C 		.ascii	"el_listener\000"
 3956      69737465 
 3956      6E657200 
 3957              	.LASF112:
 3958 054c 656C5F66 		.ascii	"el_flags\000"
 3958      6C616773 
 3958      00
 3959              	.LASF38:
ARM GAS  /tmp/ccSKVCga.s 			page 75


 3960 0555 705F7374 		.ascii	"p_state\000"
 3960      61746500 
 3961              	.LASF45:
 3962 055d 705F6D74 		.ascii	"p_mtxlist\000"
 3962      786C6973 
 3962      7400
 3963              	.LASF5:
 3964 0567 73686F72 		.ascii	"short int\000"
 3964      7420696E 
 3964      7400
 3965              	.LASF57:
 3966 0571 725F7072 		.ascii	"r_prio\000"
 3966      696F00
 3967              	.LASF97:
 3968 0578 65776D61 		.ascii	"ewmask\000"
 3968      736B00
 3969              	.LASF31:
 3970 057f 705F6E65 		.ascii	"p_next\000"
 3970      787400
 3971              	.LASF39:
 3972 0586 705F666C 		.ascii	"p_flags\000"
 3972      61677300 
 3973              	.LASF168:
 3974 058e 5F5F6675 		.ascii	"__func__\000"
 3974      6E635F5F 
 3974      00
 3975              	.LASF37:
 3976 0597 705F6E61 		.ascii	"p_name\000"
 3976      6D6500
 3977              	.LASF154:
 3978 059e 63685379 		.ascii	"chSysLock\000"
 3978      734C6F63 
 3978      6B00
 3979              	.LASF156:
 3980 05a8 6F73616C 		.ascii	"osalSysUnlock\000"
 3980      53797355 
 3980      6E6C6F63 
 3980      6B00
 3981              	.LASF52:
 3982 05b6 74687265 		.ascii	"threads_queue_t\000"
 3982      6164735F 
 3982      71756575 
 3982      655F7400 
 3983              	.LASF98:
 3984 05c6 63685F73 		.ascii	"ch_semaphore\000"
 3984      656D6170 
 3984      686F7265 
 3984      00
 3985              	.LASF44:
 3986 05d3 705F6570 		.ascii	"p_epending\000"
 3986      656E6469 
 3986      6E6700
 3987              	.LASF131:
 3988 05de 53445F55 		.ascii	"SD_UNINIT\000"
 3988      4E494E49 
 3988      5400
 3989              	.LASF18:
ARM GAS  /tmp/ccSKVCga.s 			page 76


 3990 05e8 75696E74 		.ascii	"uint32_t\000"
 3990      33325F74 
 3990      00
 3991              	.LASF96:
 3992 05f1 77746D74 		.ascii	"wtmtxp\000"
 3992      787000
 3993              	.LASF56:
 3994 05f8 725F7175 		.ascii	"r_queue\000"
 3994      65756500 
 3995              	.LASF67:
 3996 0600 76745F64 		.ascii	"vt_delta\000"
 3996      656C7461 
 3996      00
 3997              	.LASF51:
 3998 0609 63685F74 		.ascii	"ch_threads_list\000"
 3998      68726561 
 3998      64735F6C 
 3998      69737400 
 3999              	.LASF135:
 4000 0619 53657269 		.ascii	"SerialDriver\000"
 4000      616C4472 
 4000      69766572 
 4000      00
 4001              	.LASF11:
 4002 0626 6C6F6E67 		.ascii	"long unsigned int\000"
 4002      20756E73 
 4002      69676E65 
 4002      6420696E 
 4002      7400
 4003              	.LASF145:
 4004 0638 72656164 		.ascii	"read\000"
 4004      00
 4005              	.LASF105:
 4006 063d 63686172 		.ascii	"char\000"
 4006      00
 4007              	.LASF170:
 4008 0642 7364496E 		.ascii	"sdIncomingDataI\000"
 4008      636F6D69 
 4008      6E674461 
 4008      74614900 
 4009              	.LASF167:
 4010 0652 636F6E66 		.ascii	"config\000"
 4010      696700
 4011              	.LASF166:
 4012 0659 73645374 		.ascii	"sdStart\000"
 4012      61727400 
 4013              	.LASF6:
 4014 0661 5F5F7569 		.ascii	"__uint16_t\000"
 4014      6E743136 
 4014      5F7400
 4015              	.LASF30:
 4016 066c 74687265 		.ascii	"thread_t\000"
 4016      61645F74 
 4016      00
 4017              	.LASF104:
 4018 0675 6D5F6E65 		.ascii	"m_next\000"
 4018      787400
ARM GAS  /tmp/ccSKVCga.s 			page 77


 4019              	.LASF29:
 4020 067c 73797374 		.ascii	"systime_t\000"
 4020      696D655F 
 4020      7400
 4021              	.LASF46:
 4022 0686 705F7265 		.ascii	"p_realprio\000"
 4022      616C7072 
 4022      696F00
 4023              	.LASF62:
 4024 0691 76746675 		.ascii	"vtfunc_t\000"
 4024      6E635F74 
 4024      00
 4025              	.LASF10:
 4026 069a 5F5F7569 		.ascii	"__uint32_t\000"
 4026      6E743332 
 4026      5F7400
 4027              	.LASF174:
 4028 06a5 5F5F7365 		.ascii	"__set_BASEPRI\000"
 4028      745F4241 
 4028      53455052 
 4028      4900
 4029              	.LASF75:
 4030 06b3 70616E69 		.ascii	"panic_msg\000"
 4030      635F6D73 
 4030      6700
 4031              	.LASF89:
 4032 06bd 6F666673 		.ascii	"offset\000"
 4032      657400
 4033              	.LASF107:
 4034 06c4 6576656E 		.ascii	"event_listener_t\000"
 4034      745F6C69 
 4034      7374656E 
 4034      65725F74 
 4034      00
 4035              	.LASF87:
 4036 06d5 636F6E74 		.ascii	"context\000"
 4036      65787400 
 4037              	.LASF64:
 4038 06dd 63685F76 		.ascii	"ch_virtual_timer\000"
 4038      69727475 
 4038      616C5F74 
 4038      696D6572 
 4038      00
 4039              	.LASF20:
 4040 06ee 7274636E 		.ascii	"rtcnt_t\000"
 4040      745F7400 
 4041              	.LASF133:
 4042 06f6 53445F52 		.ascii	"SD_READY\000"
 4042      45414459 
 4042      00
 4043              	.LASF69:
 4044 06ff 76745F70 		.ascii	"vt_par\000"
 4044      617200
 4045              	.LASF27:
 4046 0706 6576656E 		.ascii	"eventflags_t\000"
 4046      74666C61 
 4046      67735F74 
ARM GAS  /tmp/ccSKVCga.s 			page 78


 4046      00
 4047              	.LASF129:
 4048 0713 6F757470 		.ascii	"output_queue_t\000"
 4048      75745F71 
 4048      75657565 
 4048      5F7400
 4049              	.LASF134:
 4050 0722 73647374 		.ascii	"sdstate_t\000"
 4050      6174655F 
 4050      7400
 4051              	.LASF122:
 4052 072c 715F746F 		.ascii	"q_top\000"
 4052      7000
 4053              	.LASF101:
 4054 0732 63685F6D 		.ascii	"ch_mutex\000"
 4054      75746578 
 4054      00
 4055              	.LASF115:
 4056 073b 65735F6E 		.ascii	"es_next\000"
 4056      65787400 
 4057              	.LASF161:
 4058 0743 63684951 		.ascii	"chIQIsEmptyI\000"
 4058      4973456D 
 4058      70747949 
 4058      00
 4059              	.LASF125:
 4060 0750 715F6E6F 		.ascii	"q_notify\000"
 4060      74696679 
 4060      00
 4061              	.LASF78:
 4062 0759 726C6973 		.ascii	"rlist\000"
 4062      7400
 4063              	.LASF177:
 4064 075f 73645265 		.ascii	"sdRequestDataI\000"
 4064      71756573 
 4064      74446174 
 4064      614900
 4065              	.LASF15:
 4066 076e 75696E74 		.ascii	"uint8_t\000"
 4066      385F7400 
 4067              	.LASF160:
 4068 0776 666C6167 		.ascii	"flags\000"
 4068      7300
 4069              	.LASF164:
 4070 077c 6F6E6F74 		.ascii	"onotify\000"
 4070      69667900 
 4071              	.LASF93:
 4072 0784 77746F62 		.ascii	"wtobjp\000"
 4072      6A7000
 4073              	.LASF49:
 4074 078b 74687265 		.ascii	"threads_list_t\000"
 4074      6164735F 
 4074      6C697374 
 4074      5F7400
 4075              	.LASF152:
 4076 079a 63685379 		.ascii	"chSysUnlock\000"
 4076      73556E6C 
ARM GAS  /tmp/ccSKVCga.s 			page 79


 4076      6F636B00 
 4077              	.LASF43:
 4078 07a6 705F6D73 		.ascii	"p_msg\000"
 4078      6700
 4079              	.LASF176:
 4080 07ac 7364496E 		.ascii	"sdInit\000"
 4080      697400
 4081              	.LASF126:
 4082 07b3 715F6C69 		.ascii	"q_link\000"
 4082      6E6B00
 4083              	.LASF103:
 4084 07ba 6D5F6F77 		.ascii	"m_owner\000"
 4084      6E657200 
 4085              	.LASF34:
 4086 07c2 705F6374 		.ascii	"p_ctx\000"
 4086      7800
 4087              	.LASF68:
 4088 07c8 76745F66 		.ascii	"vt_func\000"
 4088      756E6300 
 4089              	.LASF108:
 4090 07d0 6576656E 		.ascii	"event_listener\000"
 4090      745F6C69 
 4090      7374656E 
 4090      657200
 4091              		.ident	"GCC: (4.8.4-1+11-1) 4.8.4 20141219 (release)"
ARM GAS  /tmp/ccSKVCga.s 			page 80


DEFINED SYMBOLS
                            *ABS*:0000000000000000 serial.c
     /tmp/ccSKVCga.s:19     .text.port_lock:0000000000000000 $t
     /tmp/ccSKVCga.s:24     .text.port_lock:0000000000000000 port_lock
     /tmp/ccSKVCga.s:55     .text.port_unlock:0000000000000000 $t
     /tmp/ccSKVCga.s:60     .text.port_unlock:0000000000000000 port_unlock
     /tmp/ccSKVCga.s:89     .text.chSysLock:0000000000000000 $t
     /tmp/ccSKVCga.s:94     .text.chSysLock:0000000000000000 chSysLock
     /tmp/ccSKVCga.s:113    .text.chSysUnlock:0000000000000000 $t
     /tmp/ccSKVCga.s:118    .text.chSysUnlock:0000000000000000 chSysUnlock
     /tmp/ccSKVCga.s:136    .text.chEvtObjectInit:0000000000000000 $t
     /tmp/ccSKVCga.s:141    .text.chEvtObjectInit:0000000000000000 chEvtObjectInit
     /tmp/ccSKVCga.s:164    .text.chIQIsEmptyI:0000000000000000 $t
     /tmp/ccSKVCga.s:169    .text.chIQIsEmptyI:0000000000000000 chIQIsEmptyI
     /tmp/ccSKVCga.s:197    .text.osalSysLock:0000000000000000 $t
     /tmp/ccSKVCga.s:202    .text.osalSysLock:0000000000000000 osalSysLock
     /tmp/ccSKVCga.s:221    .text.osalSysUnlock:0000000000000000 $t
     /tmp/ccSKVCga.s:226    .text.osalSysUnlock:0000000000000000 osalSysUnlock
     /tmp/ccSKVCga.s:244    .text.osalOsRescheduleS:0000000000000000 $t
     /tmp/ccSKVCga.s:249    .text.osalOsRescheduleS:0000000000000000 osalOsRescheduleS
     /tmp/ccSKVCga.s:267    .text.osalEventObjectInit:0000000000000000 $t
     /tmp/ccSKVCga.s:272    .text.osalEventObjectInit:0000000000000000 osalEventObjectInit
     /tmp/ccSKVCga.s:295    .text.osalEventBroadcastFlagsI:0000000000000000 $t
     /tmp/ccSKVCga.s:300    .text.osalEventBroadcastFlagsI:0000000000000000 osalEventBroadcastFlagsI
     /tmp/ccSKVCga.s:325    .text.write:0000000000000000 $t
     /tmp/ccSKVCga.s:330    .text.write:0000000000000000 write
     /tmp/ccSKVCga.s:363    .text.read:0000000000000000 $t
     /tmp/ccSKVCga.s:368    .text.read:0000000000000000 read
     /tmp/ccSKVCga.s:400    .text.put:0000000000000000 $t
     /tmp/ccSKVCga.s:405    .text.put:0000000000000000 put
     /tmp/ccSKVCga.s:437    .text.get:0000000000000000 $t
     /tmp/ccSKVCga.s:442    .text.get:0000000000000000 get
     /tmp/ccSKVCga.s:470    .text.putt:0000000000000000 $t
     /tmp/ccSKVCga.s:475    .text.putt:0000000000000000 putt
     /tmp/ccSKVCga.s:508    .text.gett:0000000000000000 $t
     /tmp/ccSKVCga.s:513    .text.gett:0000000000000000 gett
     /tmp/ccSKVCga.s:542    .text.writet:0000000000000000 $t
     /tmp/ccSKVCga.s:547    .text.writet:0000000000000000 writet
     /tmp/ccSKVCga.s:580    .text.readt:0000000000000000 $t
     /tmp/ccSKVCga.s:585    .text.readt:0000000000000000 readt
     /tmp/ccSKVCga.s:618    .rodata.vmt:0000000000000000 $d
     /tmp/ccSKVCga.s:621    .rodata.vmt:0000000000000000 vmt
     /tmp/ccSKVCga.s:631    .text.sdInit:0000000000000000 $t
     /tmp/ccSKVCga.s:637    .text.sdInit:0000000000000000 sdInit
     /tmp/ccSKVCga.s:655    .text.sdObjectInit:0000000000000000 $t
     /tmp/ccSKVCga.s:661    .text.sdObjectInit:0000000000000000 sdObjectInit
     /tmp/ccSKVCga.s:719    .text.sdObjectInit:000000000000005c $d
     /tmp/ccSKVCga.s:724    .text.sdStart:0000000000000000 $t
     /tmp/ccSKVCga.s:730    .text.sdStart:0000000000000000 sdStart
     /tmp/ccSKVCga.s:763    .text.sdStop:0000000000000000 $t
     /tmp/ccSKVCga.s:769    .text.sdStop:0000000000000000 sdStop
     /tmp/ccSKVCga.s:812    .text.sdIncomingDataI:0000000000000000 $t
     /tmp/ccSKVCga.s:818    .text.sdIncomingDataI:0000000000000000 sdIncomingDataI
     /tmp/ccSKVCga.s:872    .text.sdRequestDataI:0000000000000000 $t
     /tmp/ccSKVCga.s:878    .text.sdRequestDataI:0000000000000000 sdRequestDataI
                     .debug_frame:0000000000000010 $d

ARM GAS  /tmp/ccSKVCga.s 			page 81


UNDEFINED SYMBOLS
chSchRescheduleS
chEvtBroadcastFlagsI
chOQWriteTimeout
chIQReadTimeout
chOQPutTimeout
chIQGetTimeout
sd_lld_init
chIQObjectInit
chOQObjectInit
sd_lld_start
sd_lld_stop
chOQResetI
chIQResetI
chIQPutI
chOQGetI
