ARM GAS  /tmp/ccqDZySP.s 			page 1


   1              		.syntax unified
   2              		.cpu cortex-m4
   3              		.fpu softvfp
   4              		.eabi_attribute 20, 1
   5              		.eabi_attribute 21, 1
   6              		.eabi_attribute 23, 3
   7              		.eabi_attribute 24, 1
   8              		.eabi_attribute 25, 1
   9              		.eabi_attribute 26, 1
  10              		.eabi_attribute 30, 6
  11              		.eabi_attribute 34, 1
  12              		.eabi_attribute 18, 4
  13              		.thumb
  14              		.file	"st.c"
  15              		.text
  16              	.Ltext0:
  17              		.cfi_sections	.debug_frame
  18              		.section	.text.st_lld_start_alarm,"ax",%progbits
  19              		.align	2
  20              		.p2align 4,,15
  21              		.thumb
  22              		.thumb_func
  23              		.type	st_lld_start_alarm, %function
  24              	st_lld_start_alarm:
  25              	.LFB137:
  26              		.file 1 "/home/efe/ChibiOS/os/hal/ports/STM32/LLD/TIMv1/st_lld.h"
  27              		.loc 1 153 0
  28              		.cfi_startproc
  29              		@ args = 0, pretend = 0, frame = 8
  30              		@ frame_needed = 0, uses_anonymous_args = 0
  31              		@ link register save eliminated.
  32 0000 82B0     		sub	sp, sp, #8
  33              		.cfi_def_cfa_offset 8
  34 0002 0190     		str	r0, [sp, #4]
  35              		.loc 1 155 0
  36 0004 4FF08043 		mov	r3, #1073741824
  37 0008 019A     		ldr	r2, [sp, #4]
  38 000a 5A63     		str	r2, [r3, #52]
  39              		.loc 1 156 0
  40 000c 4FF08043 		mov	r3, #1073741824
  41 0010 0022     		movs	r2, #0
  42 0012 1A61     		str	r2, [r3, #16]
  43              		.loc 1 157 0
  44 0014 4FF08043 		mov	r3, #1073741824
  45 0018 0222     		movs	r2, #2
  46 001a DA60     		str	r2, [r3, #12]
  47              		.loc 1 158 0
  48 001c 02B0     		add	sp, sp, #8
  49              		@ sp needed
  50 001e 7047     		bx	lr
  51              		.cfi_endproc
  52              	.LFE137:
  53              		.size	st_lld_start_alarm, .-st_lld_start_alarm
  54              		.section	.text.st_lld_stop_alarm,"ax",%progbits
  55              		.align	2
  56              		.p2align 4,,15
  57              		.thumb
ARM GAS  /tmp/ccqDZySP.s 			page 2


  58              		.thumb_func
  59              		.type	st_lld_stop_alarm, %function
  60              	st_lld_stop_alarm:
  61              	.LFB138:
  62              		.loc 1 165 0
  63              		.cfi_startproc
  64              		@ args = 0, pretend = 0, frame = 0
  65              		@ frame_needed = 0, uses_anonymous_args = 0
  66              		@ link register save eliminated.
  67              		.loc 1 167 0
  68 0000 4FF08043 		mov	r3, #1073741824
  69 0004 0022     		movs	r2, #0
  70 0006 DA60     		str	r2, [r3, #12]
  71              		.loc 1 168 0
  72 0008 7047     		bx	lr
  73              		.cfi_endproc
  74              	.LFE138:
  75              		.size	st_lld_stop_alarm, .-st_lld_stop_alarm
  76 000a 00BFAFF3 		.section	.text.st_lld_set_alarm,"ax",%progbits
  76      0080
  77              		.align	2
  78              		.p2align 4,,15
  79              		.thumb
  80              		.thumb_func
  81              		.type	st_lld_set_alarm, %function
  82              	st_lld_set_alarm:
  83              	.LFB139:
  84              		.loc 1 177 0
  85              		.cfi_startproc
  86              		@ args = 0, pretend = 0, frame = 8
  87              		@ frame_needed = 0, uses_anonymous_args = 0
  88              		@ link register save eliminated.
  89 0000 82B0     		sub	sp, sp, #8
  90              		.cfi_def_cfa_offset 8
  91 0002 0190     		str	r0, [sp, #4]
  92              		.loc 1 179 0
  93 0004 4FF08043 		mov	r3, #1073741824
  94 0008 019A     		ldr	r2, [sp, #4]
  95 000a 5A63     		str	r2, [r3, #52]
  96              		.loc 1 180 0
  97 000c 02B0     		add	sp, sp, #8
  98              		@ sp needed
  99 000e 7047     		bx	lr
 100              		.cfi_endproc
 101              	.LFE139:
 102              		.size	st_lld_set_alarm, .-st_lld_set_alarm
 103              		.section	.text.st_lld_get_alarm,"ax",%progbits
 104              		.align	2
 105              		.p2align 4,,15
 106              		.thumb
 107              		.thumb_func
 108              		.type	st_lld_get_alarm, %function
 109              	st_lld_get_alarm:
 110              	.LFB140:
 111              		.loc 1 189 0
 112              		.cfi_startproc
 113              		@ args = 0, pretend = 0, frame = 0
ARM GAS  /tmp/ccqDZySP.s 			page 3


 114              		@ frame_needed = 0, uses_anonymous_args = 0
 115              		@ link register save eliminated.
 116              		.loc 1 191 0
 117 0000 4FF08043 		mov	r3, #1073741824
 118 0004 5B6B     		ldr	r3, [r3, #52]
 119              		.loc 1 192 0
 120 0006 1846     		mov	r0, r3
 121 0008 7047     		bx	lr
 122              		.cfi_endproc
 123              	.LFE140:
 124              		.size	st_lld_get_alarm, .-st_lld_get_alarm
 125 000a 00BFAFF3 		.section	.text.stInit,"ax",%progbits
 125      0080
 126              		.align	2
 127              		.p2align 4,,15
 128              		.global	stInit
 129              		.thumb
 130              		.thumb_func
 131              		.type	stInit, %function
 132              	stInit:
 133              	.LFB271:
 134              		.file 2 "/home/efe/ChibiOS/os/hal/src/st.c"
 135              		.loc 2 60 0
 136              		.cfi_startproc
 137              		@ args = 0, pretend = 0, frame = 0
 138              		@ frame_needed = 0, uses_anonymous_args = 0
 139 0000 08B5     		push	{r3, lr}
 140              		.cfi_def_cfa_offset 8
 141              		.cfi_offset 3, -8
 142              		.cfi_offset 14, -4
 143              		.loc 2 62 0
 144 0002 FFF7FEFF 		bl	st_lld_init
 145              		.loc 2 63 0
 146 0006 08BD     		pop	{r3, pc}
 147              		.cfi_endproc
 148              	.LFE271:
 149              		.size	stInit, .-stInit
 150 0008 AFF30080 		.section	.text.stStartAlarm,"ax",%progbits
 150      AFF30080 
 151              		.align	2
 152              		.p2align 4,,15
 153              		.global	stStartAlarm
 154              		.thumb
 155              		.thumb_func
 156              		.type	stStartAlarm, %function
 157              	stStartAlarm:
 158              	.LFB272:
 159              		.loc 2 77 0
 160              		.cfi_startproc
 161              		@ args = 0, pretend = 0, frame = 8
 162              		@ frame_needed = 0, uses_anonymous_args = 0
 163 0000 00B5     		push	{lr}
 164              		.cfi_def_cfa_offset 4
 165              		.cfi_offset 14, -4
 166 0002 83B0     		sub	sp, sp, #12
 167              		.cfi_def_cfa_offset 16
 168 0004 0190     		str	r0, [sp, #4]
ARM GAS  /tmp/ccqDZySP.s 			page 4


 169              		.loc 2 81 0
 170 0006 0198     		ldr	r0, [sp, #4]
 171 0008 FFF7FEFF 		bl	st_lld_start_alarm
 172              		.loc 2 82 0
 173 000c 03B0     		add	sp, sp, #12
 174              		@ sp needed
 175 000e 5DF804FB 		ldr	pc, [sp], #4
 176              		.cfi_endproc
 177              	.LFE272:
 178              		.size	stStartAlarm, .-stStartAlarm
 179 0012 00BFAFF3 		.section	.text.stStopAlarm,"ax",%progbits
 179      0080AFF3 
 179      0080AFF3 
 179      0080
 180              		.align	2
 181              		.p2align 4,,15
 182              		.global	stStopAlarm
 183              		.thumb
 184              		.thumb_func
 185              		.type	stStopAlarm, %function
 186              	stStopAlarm:
 187              	.LFB273:
 188              		.loc 2 91 0
 189              		.cfi_startproc
 190              		@ args = 0, pretend = 0, frame = 0
 191              		@ frame_needed = 0, uses_anonymous_args = 0
 192 0000 08B5     		push	{r3, lr}
 193              		.cfi_def_cfa_offset 8
 194              		.cfi_offset 3, -8
 195              		.cfi_offset 14, -4
 196              		.loc 2 93 0
 197 0002 FFF7FEFF 		bl	st_lld_stop_alarm
 198              		.loc 2 94 0
 199 0006 08BD     		pop	{r3, pc}
 200              		.cfi_endproc
 201              	.LFE273:
 202              		.size	stStopAlarm, .-stStopAlarm
 203 0008 AFF30080 		.section	.text.stSetAlarm,"ax",%progbits
 203      AFF30080 
 204              		.align	2
 205              		.p2align 4,,15
 206              		.global	stSetAlarm
 207              		.thumb
 208              		.thumb_func
 209              		.type	stSetAlarm, %function
 210              	stSetAlarm:
 211              	.LFB274:
 212              		.loc 2 105 0
 213              		.cfi_startproc
 214              		@ args = 0, pretend = 0, frame = 8
 215              		@ frame_needed = 0, uses_anonymous_args = 0
 216 0000 00B5     		push	{lr}
 217              		.cfi_def_cfa_offset 4
 218              		.cfi_offset 14, -4
 219 0002 83B0     		sub	sp, sp, #12
 220              		.cfi_def_cfa_offset 16
 221 0004 0190     		str	r0, [sp, #4]
ARM GAS  /tmp/ccqDZySP.s 			page 5


 222              		.loc 2 109 0
 223 0006 0198     		ldr	r0, [sp, #4]
 224 0008 FFF7FEFF 		bl	st_lld_set_alarm
 225              		.loc 2 110 0
 226 000c 03B0     		add	sp, sp, #12
 227              		@ sp needed
 228 000e 5DF804FB 		ldr	pc, [sp], #4
 229              		.cfi_endproc
 230              	.LFE274:
 231              		.size	stSetAlarm, .-stSetAlarm
 232 0012 00BFAFF3 		.section	.text.stGetAlarm,"ax",%progbits
 232      0080AFF3 
 232      0080AFF3 
 232      0080
 233              		.align	2
 234              		.p2align 4,,15
 235              		.global	stGetAlarm
 236              		.thumb
 237              		.thumb_func
 238              		.type	stGetAlarm, %function
 239              	stGetAlarm:
 240              	.LFB275:
 241              		.loc 2 121 0
 242              		.cfi_startproc
 243              		@ args = 0, pretend = 0, frame = 0
 244              		@ frame_needed = 0, uses_anonymous_args = 0
 245 0000 08B5     		push	{r3, lr}
 246              		.cfi_def_cfa_offset 8
 247              		.cfi_offset 3, -8
 248              		.cfi_offset 14, -4
 249              		.loc 2 125 0
 250 0002 FFF7FEFF 		bl	st_lld_get_alarm
 251 0006 0346     		mov	r3, r0
 252              		.loc 2 126 0
 253 0008 1846     		mov	r0, r3
 254 000a 08BD     		pop	{r3, pc}
 255              		.cfi_endproc
 256              	.LFE275:
 257              		.size	stGetAlarm, .-stGetAlarm
 258              		.text
 259              	.Letext0:
 260              		.file 3 "/usr/include/newlib/machine/_default_types.h"
 261              		.file 4 "/usr/include/newlib/stdint.h"
 262              		.file 5 "/home/efe/ChibiOS/os/rt/ports/ARMCMx/compilers/GCC/chtypes.h"
 263              		.file 6 "/home/efe/ChibiOS/os/rt/include/chsystypes.h"
 264              		.file 7 "/home/efe/ChibiOS/os/rt/include/chschd.h"
 265              		.file 8 "/home/efe/ChibiOS/os/rt/ports/ARMCMx/chcore.h"
 266              		.file 9 "/home/efe/ChibiOS/os/rt/ports/ARMCMx/chcore_v7m.h"
 267              		.file 10 "/home/efe/ChibiOS/os/hal/ports/STM32/LLD/TIMv1/stm32_tim.h"
 268              		.file 11 "/home/efe/ChibiOS/os/rt/include/chtm.h"
 269              		.file 12 "/home/efe/ChibiOS/os/rt/include/chsem.h"
 270              		.file 13 "/home/efe/ChibiOS/os/rt/include/chmtx.h"
 271              		.file 14 "/home/efe/ChibiOS/os/ext/CMSIS/include/core_cm4.h"
 272              		.section	.debug_info,"",%progbits
 273              	.Ldebug_info0:
 274 0000 B5080000 		.4byte	0x8b5
 275 0004 0400     		.2byte	0x4
ARM GAS  /tmp/ccqDZySP.s 			page 6


 276 0006 00000000 		.4byte	.Ldebug_abbrev0
 277 000a 04       		.byte	0x4
 278 000b 01       		.uleb128 0x1
 279 000c 1C010000 		.4byte	.LASF122
 280 0010 01       		.byte	0x1
 281 0011 26050000 		.4byte	.LASF123
 282 0015 00000000 		.4byte	.Ldebug_ranges0+0
 283 0019 00000000 		.4byte	0
 284 001d 00000000 		.4byte	.Ldebug_line0
 285 0021 02       		.uleb128 0x2
 286 0022 04       		.byte	0x4
 287 0023 05       		.byte	0x5
 288 0024 696E7400 		.ascii	"int\000"
 289 0028 03       		.uleb128 0x3
 290 0029 04       		.byte	0x4
 291 002a 07       		.byte	0x7
 292 002b 2D020000 		.4byte	.LASF0
 293 002f 03       		.uleb128 0x3
 294 0030 01       		.byte	0x1
 295 0031 06       		.byte	0x6
 296 0032 CA000000 		.4byte	.LASF1
 297 0036 04       		.uleb128 0x4
 298 0037 28000000 		.4byte	.LASF5
 299 003b 03       		.byte	0x3
 300 003c 1D       		.byte	0x1d
 301 003d 41000000 		.4byte	0x41
 302 0041 03       		.uleb128 0x3
 303 0042 01       		.byte	0x1
 304 0043 08       		.byte	0x8
 305 0044 9F030000 		.4byte	.LASF2
 306 0048 03       		.uleb128 0x3
 307 0049 02       		.byte	0x2
 308 004a 05       		.byte	0x5
 309 004b B7030000 		.4byte	.LASF3
 310 004f 03       		.uleb128 0x3
 311 0050 02       		.byte	0x2
 312 0051 07       		.byte	0x7
 313 0052 DC010000 		.4byte	.LASF4
 314 0056 04       		.uleb128 0x4
 315 0057 A1020000 		.4byte	.LASF6
 316 005b 03       		.byte	0x3
 317 005c 3F       		.byte	0x3f
 318 005d 61000000 		.4byte	0x61
 319 0061 03       		.uleb128 0x3
 320 0062 04       		.byte	0x4
 321 0063 05       		.byte	0x5
 322 0064 EF000000 		.4byte	.LASF7
 323 0068 04       		.uleb128 0x4
 324 0069 BE040000 		.4byte	.LASF8
 325 006d 03       		.byte	0x3
 326 006e 41       		.byte	0x41
 327 006f 73000000 		.4byte	0x73
 328 0073 03       		.uleb128 0x3
 329 0074 04       		.byte	0x4
 330 0075 07       		.byte	0x7
 331 0076 5F040000 		.4byte	.LASF9
 332 007a 03       		.uleb128 0x3
ARM GAS  /tmp/ccqDZySP.s 			page 7


 333 007b 08       		.byte	0x8
 334 007c 05       		.byte	0x5
 335 007d 0E010000 		.4byte	.LASF10
 336 0081 04       		.uleb128 0x4
 337 0082 4F030000 		.4byte	.LASF11
 338 0086 03       		.byte	0x3
 339 0087 5B       		.byte	0x5b
 340 0088 8C000000 		.4byte	0x8c
 341 008c 03       		.uleb128 0x3
 342 008d 08       		.byte	0x8
 343 008e 07       		.byte	0x7
 344 008f 4D000000 		.4byte	.LASF12
 345 0093 04       		.uleb128 0x4
 346 0094 DE030000 		.4byte	.LASF13
 347 0098 04       		.byte	0x4
 348 0099 2A       		.byte	0x2a
 349 009a 36000000 		.4byte	0x36
 350 009e 04       		.uleb128 0x4
 351 009f 97030000 		.4byte	.LASF14
 352 00a3 04       		.byte	0x4
 353 00a4 41       		.byte	0x41
 354 00a5 56000000 		.4byte	0x56
 355 00a9 04       		.uleb128 0x4
 356 00aa 2E040000 		.4byte	.LASF15
 357 00ae 04       		.byte	0x4
 358 00af 42       		.byte	0x42
 359 00b0 68000000 		.4byte	0x68
 360 00b4 04       		.uleb128 0x4
 361 00b5 1F000000 		.4byte	.LASF16
 362 00b9 04       		.byte	0x4
 363 00ba 4E       		.byte	0x4e
 364 00bb 81000000 		.4byte	0x81
 365 00bf 05       		.uleb128 0x5
 366 00c0 9E000000 		.4byte	0x9e
 367 00c4 05       		.uleb128 0x5
 368 00c5 A9000000 		.4byte	0xa9
 369 00c9 04       		.uleb128 0x4
 370 00ca F5040000 		.4byte	.LASF17
 371 00ce 05       		.byte	0x5
 372 00cf 45       		.byte	0x45
 373 00d0 A9000000 		.4byte	0xa9
 374 00d4 04       		.uleb128 0x4
 375 00d5 F8000000 		.4byte	.LASF18
 376 00d9 05       		.byte	0x5
 377 00da 48       		.byte	0x48
 378 00db 93000000 		.4byte	0x93
 379 00df 04       		.uleb128 0x4
 380 00e0 00010000 		.4byte	.LASF19
 381 00e4 05       		.byte	0x5
 382 00e5 49       		.byte	0x49
 383 00e6 93000000 		.4byte	0x93
 384 00ea 04       		.uleb128 0x4
 385 00eb 5A030000 		.4byte	.LASF20
 386 00ef 05       		.byte	0x5
 387 00f0 4A       		.byte	0x4a
 388 00f1 93000000 		.4byte	0x93
 389 00f5 04       		.uleb128 0x4
ARM GAS  /tmp/ccqDZySP.s 			page 8


 390 00f6 79030000 		.4byte	.LASF21
 391 00fa 05       		.byte	0x5
 392 00fb 4C       		.byte	0x4c
 393 00fc A9000000 		.4byte	0xa9
 394 0100 04       		.uleb128 0x4
 395 0101 69020000 		.4byte	.LASF22
 396 0105 05       		.byte	0x5
 397 0106 4D       		.byte	0x4d
 398 0107 9E000000 		.4byte	0x9e
 399 010b 04       		.uleb128 0x4
 400 010c 95020000 		.4byte	.LASF23
 401 0110 05       		.byte	0x5
 402 0111 4F       		.byte	0x4f
 403 0112 A9000000 		.4byte	0xa9
 404 0116 04       		.uleb128 0x4
 405 0117 27020000 		.4byte	.LASF24
 406 011b 05       		.byte	0x5
 407 011c 51       		.byte	0x51
 408 011d 9E000000 		.4byte	0x9e
 409 0121 04       		.uleb128 0x4
 410 0122 A0040000 		.4byte	.LASF25
 411 0126 06       		.byte	0x6
 412 0127 33       		.byte	0x33
 413 0128 A9000000 		.4byte	0xa9
 414 012c 04       		.uleb128 0x4
 415 012d 90040000 		.4byte	.LASF26
 416 0131 06       		.byte	0x6
 417 0132 3F       		.byte	0x3f
 418 0133 37010000 		.4byte	0x137
 419 0137 06       		.uleb128 0x6
 420 0138 5F020000 		.4byte	.LASF46
 421 013c 44       		.byte	0x44
 422 013d 07       		.byte	0x7
 423 013e C2       		.byte	0xc2
 424 013f 24020000 		.4byte	0x224
 425 0143 07       		.uleb128 0x7
 426 0144 D7030000 		.4byte	.LASF27
 427 0148 07       		.byte	0x7
 428 0149 C3       		.byte	0xc3
 429 014a 2F020000 		.4byte	0x22f
 430 014e 00       		.byte	0
 431 014f 07       		.uleb128 0x7
 432 0150 72030000 		.4byte	.LASF28
 433 0154 07       		.byte	0x7
 434 0155 C5       		.byte	0xc5
 435 0156 2F020000 		.4byte	0x22f
 436 015a 04       		.byte	0x4
 437 015b 07       		.uleb128 0x7
 438 015c B1000000 		.4byte	.LASF29
 439 0160 07       		.byte	0x7
 440 0161 C7       		.byte	0xc7
 441 0162 F5000000 		.4byte	0xf5
 442 0166 08       		.byte	0x8
 443 0167 07       		.uleb128 0x7
 444 0168 B1050000 		.4byte	.LASF30
 445 016c 07       		.byte	0x7
 446 016d C8       		.byte	0xc8
ARM GAS  /tmp/ccqDZySP.s 			page 9


 447 016e 7F040000 		.4byte	0x47f
 448 0172 0C       		.byte	0xc
 449 0173 07       		.uleb128 0x7
 450 0174 CC010000 		.4byte	.LASF31
 451 0178 07       		.byte	0x7
 452 0179 CA       		.byte	0xca
 453 017a 2F020000 		.4byte	0x22f
 454 017e 10       		.byte	0x10
 455 017f 07       		.uleb128 0x7
 456 0180 12030000 		.4byte	.LASF32
 457 0184 07       		.byte	0x7
 458 0185 CB       		.byte	0xcb
 459 0186 2F020000 		.4byte	0x22f
 460 018a 14       		.byte	0x14
 461 018b 07       		.uleb128 0x7
 462 018c 72050000 		.4byte	.LASF33
 463 0190 07       		.byte	0x7
 464 0191 D2       		.byte	0xd2
 465 0192 20070000 		.4byte	0x720
 466 0196 18       		.byte	0x18
 467 0197 07       		.uleb128 0x7
 468 0198 C1030000 		.4byte	.LASF34
 469 019c 07       		.byte	0x7
 470 019d DD       		.byte	0xdd
 471 019e DF000000 		.4byte	0xdf
 472 01a2 1C       		.byte	0x1c
 473 01a3 07       		.uleb128 0x7
 474 01a4 90050000 		.4byte	.LASF35
 475 01a8 07       		.byte	0x7
 476 01a9 E1       		.byte	0xe1
 477 01aa D4000000 		.4byte	0xd4
 478 01ae 1D       		.byte	0x1d
 479 01af 07       		.uleb128 0x7
 480 01b0 48050000 		.4byte	.LASF36
 481 01b4 07       		.byte	0x7
 482 01b5 E6       		.byte	0xe6
 483 01b6 EA000000 		.4byte	0xea
 484 01ba 1E       		.byte	0x1e
 485 01bb 08       		.uleb128 0x8
 486 01bc 705F7500 		.ascii	"p_u\000"
 487 01c0 07       		.byte	0x7
 488 01c1 3101     		.2byte	0x131
 489 01c3 5B060000 		.4byte	0x65b
 490 01c7 20       		.byte	0x20
 491 01c8 09       		.uleb128 0x9
 492 01c9 C9020000 		.4byte	.LASF37
 493 01cd 07       		.byte	0x7
 494 01ce 3601     		.2byte	0x136
 495 01d0 35020000 		.4byte	0x235
 496 01d4 24       		.byte	0x24
 497 01d5 09       		.uleb128 0x9
 498 01d6 49020000 		.4byte	.LASF38
 499 01da 07       		.byte	0x7
 500 01db 3C01     		.2byte	0x13c
 501 01dd 59020000 		.4byte	0x259
 502 01e1 28       		.byte	0x28
 503 01e2 09       		.uleb128 0x9
ARM GAS  /tmp/ccqDZySP.s 			page 10


 504 01e3 EF040000 		.4byte	.LASF39
 505 01e7 07       		.byte	0x7
 506 01e8 4001     		.2byte	0x140
 507 01ea 00010000 		.4byte	0x100
 508 01ee 30       		.byte	0x30
 509 01ef 09       		.uleb128 0x9
 510 01f0 23040000 		.4byte	.LASF40
 511 01f4 07       		.byte	0x7
 512 01f5 4601     		.2byte	0x146
 513 01f7 0B010000 		.4byte	0x10b
 514 01fb 34       		.byte	0x34
 515 01fc 09       		.uleb128 0x9
 516 01fd AD030000 		.4byte	.LASF41
 517 0201 07       		.byte	0x7
 518 0202 4D01     		.2byte	0x14d
 519 0204 1A070000 		.4byte	0x71a
 520 0208 38       		.byte	0x38
 521 0209 09       		.uleb128 0x9
 522 020a AA040000 		.4byte	.LASF42
 523 020e 07       		.byte	0x7
 524 020f 5101     		.2byte	0x151
 525 0211 F5000000 		.4byte	0xf5
 526 0215 3C       		.byte	0x3c
 527 0216 09       		.uleb128 0x9
 528 0217 F7010000 		.4byte	.LASF43
 529 021b 07       		.byte	0x7
 530 021c 5801     		.2byte	0x158
 531 021e 0C030000 		.4byte	0x30c
 532 0222 40       		.byte	0x40
 533 0223 00       		.byte	0
 534 0224 04       		.uleb128 0x4
 535 0225 DC020000 		.4byte	.LASF44
 536 0229 06       		.byte	0x6
 537 022a 44       		.byte	0x44
 538 022b 2F020000 		.4byte	0x22f
 539 022f 0A       		.uleb128 0xa
 540 0230 04       		.byte	0x4
 541 0231 2C010000 		.4byte	0x12c
 542 0235 04       		.uleb128 0x4
 543 0236 79050000 		.4byte	.LASF45
 544 023a 06       		.byte	0x6
 545 023b 49       		.byte	0x49
 546 023c 40020000 		.4byte	0x240
 547 0240 06       		.uleb128 0x6
 548 0241 4F040000 		.4byte	.LASF47
 549 0245 04       		.byte	0x4
 550 0246 07       		.byte	0x7
 551 0247 B0       		.byte	0xb0
 552 0248 59020000 		.4byte	0x259
 553 024c 07       		.uleb128 0x7
 554 024d D7030000 		.4byte	.LASF27
 555 0251 07       		.byte	0x7
 556 0252 B1       		.byte	0xb1
 557 0253 2F020000 		.4byte	0x22f
 558 0257 00       		.byte	0
 559 0258 00       		.byte	0
 560 0259 04       		.uleb128 0x4
ARM GAS  /tmp/ccqDZySP.s 			page 11


 561 025a 16050000 		.4byte	.LASF48
 562 025e 06       		.byte	0x6
 563 025f 50       		.byte	0x50
 564 0260 64020000 		.4byte	0x264
 565 0264 06       		.uleb128 0x6
 566 0265 A0000000 		.4byte	.LASF49
 567 0269 08       		.byte	0x8
 568 026a 07       		.byte	0x7
 569 026b B7       		.byte	0xb7
 570 026c 89020000 		.4byte	0x289
 571 0270 07       		.uleb128 0x7
 572 0271 D7030000 		.4byte	.LASF27
 573 0275 07       		.byte	0x7
 574 0276 B8       		.byte	0xb8
 575 0277 2F020000 		.4byte	0x22f
 576 027b 00       		.byte	0
 577 027c 07       		.uleb128 0x7
 578 027d 72030000 		.4byte	.LASF28
 579 0281 07       		.byte	0x7
 580 0282 B9       		.byte	0xb9
 581 0283 2F020000 		.4byte	0x22f
 582 0287 04       		.byte	0x4
 583 0288 00       		.byte	0
 584 0289 04       		.uleb128 0x4
 585 028a 00000000 		.4byte	.LASF50
 586 028e 06       		.byte	0x6
 587 028f 57       		.byte	0x57
 588 0290 94020000 		.4byte	0x294
 589 0294 0B       		.uleb128 0xb
 590 0295 87020000 		.4byte	.LASF51
 591 0299 1C       		.byte	0x1c
 592 029a 07       		.byte	0x7
 593 029b 9001     		.2byte	0x190
 594 029d F0020000 		.4byte	0x2f0
 595 02a1 09       		.uleb128 0x9
 596 02a2 3E040000 		.4byte	.LASF52
 597 02a6 07       		.byte	0x7
 598 02a7 9101     		.2byte	0x191
 599 02a9 59020000 		.4byte	0x259
 600 02ad 00       		.byte	0
 601 02ae 09       		.uleb128 0x9
 602 02af C9030000 		.4byte	.LASF53
 603 02b3 07       		.byte	0x7
 604 02b4 9201     		.2byte	0x192
 605 02b6 F5000000 		.4byte	0xf5
 606 02ba 08       		.byte	0x8
 607 02bb 09       		.uleb128 0x9
 608 02bc 21030000 		.4byte	.LASF54
 609 02c0 07       		.byte	0x7
 610 02c1 9401     		.2byte	0x194
 611 02c3 7F040000 		.4byte	0x47f
 612 02c7 0C       		.byte	0xc
 613 02c8 09       		.uleb128 0x9
 614 02c9 EF010000 		.4byte	.LASF55
 615 02cd 07       		.byte	0x7
 616 02ce 9701     		.2byte	0x197
 617 02d0 2F020000 		.4byte	0x22f
ARM GAS  /tmp/ccqDZySP.s 			page 12


 618 02d4 10       		.byte	0x10
 619 02d5 09       		.uleb128 0x9
 620 02d6 47030000 		.4byte	.LASF56
 621 02da 07       		.byte	0x7
 622 02db 9801     		.2byte	0x198
 623 02dd 2F020000 		.4byte	0x22f
 624 02e1 14       		.byte	0x14
 625 02e2 09       		.uleb128 0x9
 626 02e3 3D030000 		.4byte	.LASF57
 627 02e7 07       		.byte	0x7
 628 02e8 9B01     		.2byte	0x19b
 629 02ea 2F020000 		.4byte	0x22f
 630 02ee 18       		.byte	0x18
 631 02ef 00       		.byte	0
 632 02f0 04       		.uleb128 0x4
 633 02f1 B5040000 		.4byte	.LASF58
 634 02f5 06       		.byte	0x6
 635 02f6 5C       		.byte	0x5c
 636 02f7 FB020000 		.4byte	0x2fb
 637 02fb 0A       		.uleb128 0xa
 638 02fc 04       		.byte	0x4
 639 02fd 01030000 		.4byte	0x301
 640 0301 0C       		.uleb128 0xc
 641 0302 0C030000 		.4byte	0x30c
 642 0306 0D       		.uleb128 0xd
 643 0307 0C030000 		.4byte	0x30c
 644 030b 00       		.byte	0
 645 030c 0E       		.uleb128 0xe
 646 030d 04       		.byte	0x4
 647 030e 04       		.uleb128 0x4
 648 030f 62030000 		.4byte	.LASF59
 649 0313 06       		.byte	0x6
 650 0314 61       		.byte	0x61
 651 0315 19030000 		.4byte	0x319
 652 0319 0B       		.uleb128 0xb
 653 031a EF030000 		.4byte	.LASF60
 654 031e 14       		.byte	0x14
 655 031f 07       		.byte	0x7
 656 0320 6B01     		.2byte	0x16b
 657 0322 68030000 		.4byte	0x368
 658 0326 09       		.uleb128 0x9
 659 0327 3A020000 		.4byte	.LASF61
 660 032b 07       		.byte	0x7
 661 032c 6C01     		.2byte	0x16c
 662 032e 32070000 		.4byte	0x732
 663 0332 00       		.byte	0
 664 0333 09       		.uleb128 0x9
 665 0334 08020000 		.4byte	.LASF62
 666 0338 07       		.byte	0x7
 667 0339 6D01     		.2byte	0x16d
 668 033b 32070000 		.4byte	0x732
 669 033f 04       		.byte	0x4
 670 0340 09       		.uleb128 0x9
 671 0341 46040000 		.4byte	.LASF63
 672 0345 07       		.byte	0x7
 673 0346 6E01     		.2byte	0x16e
 674 0348 21010000 		.4byte	0x121
ARM GAS  /tmp/ccqDZySP.s 			page 13


 675 034c 08       		.byte	0x8
 676 034d 09       		.uleb128 0x9
 677 034e B7050000 		.4byte	.LASF64
 678 0352 07       		.byte	0x7
 679 0353 6F01     		.2byte	0x16f
 680 0355 F0020000 		.4byte	0x2f0
 681 0359 0C       		.byte	0xc
 682 035a 09       		.uleb128 0x9
 683 035b 0F050000 		.4byte	.LASF65
 684 035f 07       		.byte	0x7
 685 0360 7101     		.2byte	0x171
 686 0362 0C030000 		.4byte	0x30c
 687 0366 10       		.byte	0x10
 688 0367 00       		.byte	0
 689 0368 04       		.uleb128 0x4
 690 0369 78000000 		.4byte	.LASF66
 691 036d 06       		.byte	0x6
 692 036e 66       		.byte	0x66
 693 036f 73030000 		.4byte	0x373
 694 0373 0B       		.uleb128 0xb
 695 0374 EF020000 		.4byte	.LASF67
 696 0378 10       		.byte	0x10
 697 0379 07       		.byte	0x7
 698 037a 7B01     		.2byte	0x17b
 699 037c B5030000 		.4byte	0x3b5
 700 0380 09       		.uleb128 0x9
 701 0381 3A020000 		.4byte	.LASF61
 702 0385 07       		.byte	0x7
 703 0386 7C01     		.2byte	0x17c
 704 0388 32070000 		.4byte	0x732
 705 038c 00       		.byte	0
 706 038d 09       		.uleb128 0x9
 707 038e 08020000 		.4byte	.LASF62
 708 0392 07       		.byte	0x7
 709 0393 7E01     		.2byte	0x17e
 710 0395 32070000 		.4byte	0x732
 711 0399 04       		.byte	0x4
 712 039a 09       		.uleb128 0x9
 713 039b 46040000 		.4byte	.LASF63
 714 039f 07       		.byte	0x7
 715 03a0 8001     		.2byte	0x180
 716 03a2 21010000 		.4byte	0x121
 717 03a6 08       		.byte	0x8
 718 03a7 09       		.uleb128 0x9
 719 03a8 06030000 		.4byte	.LASF68
 720 03ac 07       		.byte	0x7
 721 03ad 8801     		.2byte	0x188
 722 03af 21010000 		.4byte	0x121
 723 03b3 0C       		.byte	0xc
 724 03b4 00       		.byte	0
 725 03b5 04       		.uleb128 0x4
 726 03b6 3E000000 		.4byte	.LASF69
 727 03ba 06       		.byte	0x6
 728 03bb 6B       		.byte	0x6b
 729 03bc C0030000 		.4byte	0x3c0
 730 03c0 0B       		.uleb128 0xb
 731 03c1 81030000 		.4byte	.LASF70
ARM GAS  /tmp/ccqDZySP.s 			page 14


 732 03c5 04       		.byte	0x4
 733 03c6 07       		.byte	0x7
 734 03c7 A201     		.2byte	0x1a2
 735 03c9 DB030000 		.4byte	0x3db
 736 03cd 09       		.uleb128 0x9
 737 03ce C9040000 		.4byte	.LASF71
 738 03d2 07       		.byte	0x7
 739 03d3 AA01     		.2byte	0x1aa
 740 03d5 38070000 		.4byte	0x738
 741 03d9 00       		.byte	0
 742 03da 00       		.byte	0
 743 03db 04       		.uleb128 0x4
 744 03dc 6F020000 		.4byte	.LASF72
 745 03e0 06       		.byte	0x6
 746 03e1 70       		.byte	0x70
 747 03e2 E6030000 		.4byte	0x3e6
 748 03e6 0F       		.uleb128 0xf
 749 03e7 E5000000 		.4byte	.LASF73
 750 03eb 5001     		.2byte	0x150
 751 03ed 07       		.byte	0x7
 752 03ee C201     		.2byte	0x1c2
 753 03f0 42040000 		.4byte	0x442
 754 03f4 09       		.uleb128 0x9
 755 03f5 4F050000 		.4byte	.LASF74
 756 03f9 07       		.byte	0x7
 757 03fa C601     		.2byte	0x1c6
 758 03fc 89020000 		.4byte	0x289
 759 0400 00       		.byte	0
 760 0401 09       		.uleb128 0x9
 761 0402 DE000000 		.4byte	.LASF75
 762 0406 07       		.byte	0x7
 763 0407 CA01     		.2byte	0x1ca
 764 0409 68030000 		.4byte	0x368
 765 040d 1C       		.byte	0x1c
 766 040e 08       		.uleb128 0x8
 767 040f 64626700 		.ascii	"dbg\000"
 768 0413 07       		.byte	0x7
 769 0414 CE01     		.2byte	0x1ce
 770 0416 B5030000 		.4byte	0x3b5
 771 041a 2C       		.byte	0x2c
 772 041b 09       		.uleb128 0x9
 773 041c 6D000000 		.4byte	.LASF76
 774 0420 07       		.byte	0x7
 775 0421 D201     		.2byte	0x1d2
 776 0423 2C010000 		.4byte	0x12c
 777 0427 30       		.byte	0x30
 778 0428 08       		.uleb128 0x8
 779 0429 746D00   		.ascii	"tm\000"
 780 042c 07       		.byte	0x7
 781 042d D701     		.2byte	0x1d7
 782 042f 50060000 		.4byte	0x650
 783 0433 74       		.byte	0x74
 784 0434 09       		.uleb128 0x9
 785 0435 18020000 		.4byte	.LASF77
 786 0439 07       		.byte	0x7
 787 043a E301     		.2byte	0x1e3
 788 043c 3D070000 		.4byte	0x73d
ARM GAS  /tmp/ccqDZySP.s 			page 15


 789 0440 78       		.byte	0x78
 790 0441 00       		.byte	0
 791 0442 03       		.uleb128 0x3
 792 0443 04       		.byte	0x4
 793 0444 07       		.byte	0x7
 794 0445 D3020000 		.4byte	.LASF78
 795 0449 10       		.uleb128 0x10
 796 044a A9000000 		.4byte	0xa9
 797 044e 59040000 		.4byte	0x459
 798 0452 11       		.uleb128 0x11
 799 0453 42040000 		.4byte	0x442
 800 0457 01       		.byte	0x1
 801 0458 00       		.byte	0
 802 0459 10       		.uleb128 0x10
 803 045a A9000000 		.4byte	0xa9
 804 045e 69040000 		.4byte	0x469
 805 0462 11       		.uleb128 0x11
 806 0463 42040000 		.4byte	0x442
 807 0467 03       		.byte	0x3
 808 0468 00       		.byte	0
 809 0469 04       		.uleb128 0x4
 810 046a FF010000 		.4byte	.LASF79
 811 046e 08       		.byte	0x8
 812 046f 65       		.byte	0x65
 813 0470 0C030000 		.4byte	0x30c
 814 0474 04       		.uleb128 0x4
 815 0475 BE020000 		.4byte	.LASF80
 816 0479 08       		.byte	0x8
 817 047a 6D       		.byte	0x6d
 818 047b B4000000 		.4byte	0xb4
 819 047f 06       		.uleb128 0x6
 820 0480 E7040000 		.4byte	.LASF81
 821 0484 04       		.byte	0x4
 822 0485 08       		.byte	0x8
 823 0486 89       		.byte	0x89
 824 0487 98040000 		.4byte	0x498
 825 048b 12       		.uleb128 0x12
 826 048c 72313300 		.ascii	"r13\000"
 827 0490 08       		.byte	0x8
 828 0491 8A       		.byte	0x8a
 829 0492 13050000 		.4byte	0x513
 830 0496 00       		.byte	0
 831 0497 00       		.byte	0
 832 0498 06       		.uleb128 0x6
 833 0499 32000000 		.4byte	.LASF82
 834 049d 24       		.byte	0x24
 835 049e 09       		.byte	0x9
 836 049f FD       		.byte	0xfd
 837 04a0 13050000 		.4byte	0x513
 838 04a4 08       		.uleb128 0x8
 839 04a5 723400   		.ascii	"r4\000"
 840 04a8 09       		.byte	0x9
 841 04a9 1001     		.2byte	0x110
 842 04ab 69040000 		.4byte	0x469
 843 04af 00       		.byte	0
 844 04b0 08       		.uleb128 0x8
 845 04b1 723500   		.ascii	"r5\000"
ARM GAS  /tmp/ccqDZySP.s 			page 16


 846 04b4 09       		.byte	0x9
 847 04b5 1101     		.2byte	0x111
 848 04b7 69040000 		.4byte	0x469
 849 04bb 04       		.byte	0x4
 850 04bc 08       		.uleb128 0x8
 851 04bd 723600   		.ascii	"r6\000"
 852 04c0 09       		.byte	0x9
 853 04c1 1201     		.2byte	0x112
 854 04c3 69040000 		.4byte	0x469
 855 04c7 08       		.byte	0x8
 856 04c8 08       		.uleb128 0x8
 857 04c9 723700   		.ascii	"r7\000"
 858 04cc 09       		.byte	0x9
 859 04cd 1301     		.2byte	0x113
 860 04cf 69040000 		.4byte	0x469
 861 04d3 0C       		.byte	0xc
 862 04d4 08       		.uleb128 0x8
 863 04d5 723800   		.ascii	"r8\000"
 864 04d8 09       		.byte	0x9
 865 04d9 1401     		.2byte	0x114
 866 04db 69040000 		.4byte	0x469
 867 04df 10       		.byte	0x10
 868 04e0 08       		.uleb128 0x8
 869 04e1 723900   		.ascii	"r9\000"
 870 04e4 09       		.byte	0x9
 871 04e5 1501     		.2byte	0x115
 872 04e7 69040000 		.4byte	0x469
 873 04eb 14       		.byte	0x14
 874 04ec 08       		.uleb128 0x8
 875 04ed 72313000 		.ascii	"r10\000"
 876 04f1 09       		.byte	0x9
 877 04f2 1601     		.2byte	0x116
 878 04f4 69040000 		.4byte	0x469
 879 04f8 18       		.byte	0x18
 880 04f9 08       		.uleb128 0x8
 881 04fa 72313100 		.ascii	"r11\000"
 882 04fe 09       		.byte	0x9
 883 04ff 1701     		.2byte	0x117
 884 0501 69040000 		.4byte	0x469
 885 0505 1C       		.byte	0x1c
 886 0506 08       		.uleb128 0x8
 887 0507 6C7200   		.ascii	"lr\000"
 888 050a 09       		.byte	0x9
 889 050b 1801     		.2byte	0x118
 890 050d 69040000 		.4byte	0x469
 891 0511 20       		.byte	0x20
 892 0512 00       		.byte	0
 893 0513 0A       		.uleb128 0xa
 894 0514 04       		.byte	0x4
 895 0515 98040000 		.4byte	0x498
 896 0519 13       		.uleb128 0x13
 897 051a 60       		.byte	0x60
 898 051b 0A       		.byte	0xa
 899 051c A101     		.2byte	0x1a1
 900 051e 25060000 		.4byte	0x625
 901 0522 08       		.uleb128 0x8
 902 0523 43523100 		.ascii	"CR1\000"
ARM GAS  /tmp/ccqDZySP.s 			page 17


 903 0527 0A       		.byte	0xa
 904 0528 A201     		.2byte	0x1a2
 905 052a C4000000 		.4byte	0xc4
 906 052e 00       		.byte	0
 907 052f 08       		.uleb128 0x8
 908 0530 43523200 		.ascii	"CR2\000"
 909 0534 0A       		.byte	0xa
 910 0535 A301     		.2byte	0x1a3
 911 0537 C4000000 		.4byte	0xc4
 912 053b 04       		.byte	0x4
 913 053c 09       		.uleb128 0x9
 914 053d 5A020000 		.4byte	.LASF83
 915 0541 0A       		.byte	0xa
 916 0542 A401     		.2byte	0x1a4
 917 0544 C4000000 		.4byte	0xc4
 918 0548 08       		.byte	0x8
 919 0549 09       		.uleb128 0x9
 920 054a 0D000000 		.4byte	.LASF84
 921 054e 0A       		.byte	0xa
 922 054f A501     		.2byte	0x1a5
 923 0551 C4000000 		.4byte	0xc4
 924 0555 0C       		.byte	0xc
 925 0556 08       		.uleb128 0x8
 926 0557 535200   		.ascii	"SR\000"
 927 055a 0A       		.byte	0xa
 928 055b A601     		.2byte	0x1a6
 929 055d C4000000 		.4byte	0xc4
 930 0561 10       		.byte	0x10
 931 0562 08       		.uleb128 0x8
 932 0563 45475200 		.ascii	"EGR\000"
 933 0567 0A       		.byte	0xa
 934 0568 A701     		.2byte	0x1a7
 935 056a C4000000 		.4byte	0xc4
 936 056e 14       		.byte	0x14
 937 056f 09       		.uleb128 0x9
 938 0570 B8000000 		.4byte	.LASF85
 939 0574 0A       		.byte	0xa
 940 0575 A801     		.2byte	0x1a8
 941 0577 C4000000 		.4byte	0xc4
 942 057b 18       		.byte	0x18
 943 057c 09       		.uleb128 0x9
 944 057d BE000000 		.4byte	.LASF86
 945 0581 0A       		.byte	0xa
 946 0582 A901     		.2byte	0x1a9
 947 0584 C4000000 		.4byte	0xc4
 948 0588 1C       		.byte	0x1c
 949 0589 09       		.uleb128 0x9
 950 058a 09010000 		.4byte	.LASF87
 951 058e 0A       		.byte	0xa
 952 058f AA01     		.2byte	0x1aa
 953 0591 C4000000 		.4byte	0xc4
 954 0595 20       		.byte	0x20
 955 0596 08       		.uleb128 0x8
 956 0597 434E5400 		.ascii	"CNT\000"
 957 059b 0A       		.byte	0xa
 958 059c AB01     		.2byte	0x1ab
 959 059e C4000000 		.4byte	0xc4
ARM GAS  /tmp/ccqDZySP.s 			page 18


 960 05a2 24       		.byte	0x24
 961 05a3 08       		.uleb128 0x8
 962 05a4 50534300 		.ascii	"PSC\000"
 963 05a8 0A       		.byte	0xa
 964 05a9 AC01     		.2byte	0x1ac
 965 05ab C4000000 		.4byte	0xc4
 966 05af 28       		.byte	0x28
 967 05b0 08       		.uleb128 0x8
 968 05b1 41525200 		.ascii	"ARR\000"
 969 05b5 0A       		.byte	0xa
 970 05b6 AD01     		.2byte	0x1ad
 971 05b8 C4000000 		.4byte	0xc4
 972 05bc 2C       		.byte	0x2c
 973 05bd 08       		.uleb128 0x8
 974 05be 52435200 		.ascii	"RCR\000"
 975 05c2 0A       		.byte	0xa
 976 05c3 AE01     		.2byte	0x1ae
 977 05c5 C4000000 		.4byte	0xc4
 978 05c9 30       		.byte	0x30
 979 05ca 08       		.uleb128 0x8
 980 05cb 43435200 		.ascii	"CCR\000"
 981 05cf 0A       		.byte	0xa
 982 05d0 AF01     		.2byte	0x1af
 983 05d2 25060000 		.4byte	0x625
 984 05d6 34       		.byte	0x34
 985 05d7 09       		.uleb128 0x9
 986 05d8 9B000000 		.4byte	.LASF88
 987 05dc 0A       		.byte	0xa
 988 05dd B001     		.2byte	0x1b0
 989 05df C4000000 		.4byte	0xc4
 990 05e3 44       		.byte	0x44
 991 05e4 08       		.uleb128 0x8
 992 05e5 44435200 		.ascii	"DCR\000"
 993 05e9 0A       		.byte	0xa
 994 05ea B101     		.2byte	0x1b1
 995 05ec C4000000 		.4byte	0xc4
 996 05f0 48       		.byte	0x48
 997 05f1 09       		.uleb128 0x9
 998 05f2 8B040000 		.4byte	.LASF89
 999 05f6 0A       		.byte	0xa
 1000 05f7 B201     		.2byte	0x1b2
 1001 05f9 C4000000 		.4byte	0xc4
 1002 05fd 4C       		.byte	0x4c
 1003 05fe 08       		.uleb128 0x8
 1004 05ff 4F5200   		.ascii	"OR\000"
 1005 0602 0A       		.byte	0xa
 1006 0603 B301     		.2byte	0x1b3
 1007 0605 C4000000 		.4byte	0xc4
 1008 0609 50       		.byte	0x50
 1009 060a 09       		.uleb128 0x9
 1010 060b C4000000 		.4byte	.LASF90
 1011 060f 0A       		.byte	0xa
 1012 0610 B401     		.2byte	0x1b4
 1013 0612 C4000000 		.4byte	0xc4
 1014 0616 54       		.byte	0x54
 1015 0617 09       		.uleb128 0x9
 1016 0618 1E040000 		.4byte	.LASF91
ARM GAS  /tmp/ccqDZySP.s 			page 19


 1017 061c 0A       		.byte	0xa
 1018 061d B501     		.2byte	0x1b5
 1019 061f 2A060000 		.4byte	0x62a
 1020 0623 58       		.byte	0x58
 1021 0624 00       		.byte	0
 1022 0625 05       		.uleb128 0x5
 1023 0626 59040000 		.4byte	0x459
 1024 062a 05       		.uleb128 0x5
 1025 062b 49040000 		.4byte	0x449
 1026 062f 14       		.uleb128 0x14
 1027 0630 7B020000 		.4byte	.LASF92
 1028 0634 0A       		.byte	0xa
 1029 0635 B601     		.2byte	0x1b6
 1030 0637 19050000 		.4byte	0x519
 1031 063b 15       		.uleb128 0x15
 1032 063c 04       		.byte	0x4
 1033 063d 0B       		.byte	0xb
 1034 063e 38       		.byte	0x38
 1035 063f 50060000 		.4byte	0x650
 1036 0643 07       		.uleb128 0x7
 1037 0644 D3040000 		.4byte	.LASF93
 1038 0648 0B       		.byte	0xb
 1039 0649 3C       		.byte	0x3c
 1040 064a C9000000 		.4byte	0xc9
 1041 064e 00       		.byte	0
 1042 064f 00       		.byte	0
 1043 0650 04       		.uleb128 0x4
 1044 0651 27030000 		.4byte	.LASF94
 1045 0655 0B       		.byte	0xb
 1046 0656 3D       		.byte	0x3d
 1047 0657 3B060000 		.4byte	0x63b
 1048 065b 16       		.uleb128 0x16
 1049 065c 04       		.byte	0x4
 1050 065d 07       		.byte	0x7
 1051 065e FA       		.byte	0xfa
 1052 065f B8060000 		.4byte	0x6b8
 1053 0663 17       		.uleb128 0x17
 1054 0664 18000000 		.4byte	.LASF95
 1055 0668 07       		.byte	0x7
 1056 0669 0101     		.2byte	0x101
 1057 066b 00010000 		.4byte	0x100
 1058 066f 17       		.uleb128 0x17
 1059 0670 64000000 		.4byte	.LASF96
 1060 0674 07       		.byte	0x7
 1061 0675 0801     		.2byte	0x108
 1062 0677 00010000 		.4byte	0x100
 1063 067b 17       		.uleb128 0x17
 1064 067c 6B050000 		.4byte	.LASF97
 1065 0680 07       		.byte	0x7
 1066 0681 0F01     		.2byte	0x10f
 1067 0683 0C030000 		.4byte	0x30c
 1068 0687 17       		.uleb128 0x17
 1069 0688 12000000 		.4byte	.LASF98
 1070 068c 07       		.byte	0x7
 1071 068d 1601     		.2byte	0x116
 1072 068f B8060000 		.4byte	0x6b8
 1073 0693 17       		.uleb128 0x17
ARM GAS  /tmp/ccqDZySP.s 			page 20


 1074 0694 42020000 		.4byte	.LASF99
 1075 0698 07       		.byte	0x7
 1076 0699 1E01     		.2byte	0x11e
 1077 069b E3060000 		.4byte	0x6e3
 1078 069f 17       		.uleb128 0x17
 1079 06a0 37040000 		.4byte	.LASF100
 1080 06a4 07       		.byte	0x7
 1081 06a5 2701     		.2byte	0x127
 1082 06a7 1A070000 		.4byte	0x71a
 1083 06ab 17       		.uleb128 0x17
 1084 06ac D0030000 		.4byte	.LASF101
 1085 06b0 07       		.byte	0x7
 1086 06b1 2F01     		.2byte	0x12f
 1087 06b3 0B010000 		.4byte	0x10b
 1088 06b7 00       		.byte	0
 1089 06b8 0A       		.uleb128 0xa
 1090 06b9 04       		.byte	0x4
 1091 06ba 24020000 		.4byte	0x224
 1092 06be 06       		.uleb128 0x6
 1093 06bf 11040000 		.4byte	.LASF102
 1094 06c3 0C       		.byte	0xc
 1095 06c4 0C       		.byte	0xc
 1096 06c5 34       		.byte	0x34
 1097 06c6 E3060000 		.4byte	0x6e3
 1098 06ca 07       		.uleb128 0x7
 1099 06cb D4010000 		.4byte	.LASF103
 1100 06cf 0C       		.byte	0xc
 1101 06d0 35       		.byte	0x35
 1102 06d1 59020000 		.4byte	0x259
 1103 06d5 00       		.byte	0
 1104 06d6 07       		.uleb128 0x7
 1105 06d7 54020000 		.4byte	.LASF104
 1106 06db 0C       		.byte	0xc
 1107 06dc 37       		.byte	0x37
 1108 06dd 16010000 		.4byte	0x116
 1109 06e1 08       		.byte	0x8
 1110 06e2 00       		.byte	0
 1111 06e3 0A       		.uleb128 0xa
 1112 06e4 04       		.byte	0x4
 1113 06e5 BE060000 		.4byte	0x6be
 1114 06e9 06       		.uleb128 0x6
 1115 06ea 82040000 		.4byte	.LASF105
 1116 06ee 10       		.byte	0x10
 1117 06ef 0D       		.byte	0xd
 1118 06f0 39       		.byte	0x39
 1119 06f1 1A070000 		.4byte	0x71a
 1120 06f5 07       		.uleb128 0x7
 1121 06f6 D6000000 		.4byte	.LASF106
 1122 06fa 0D       		.byte	0xd
 1123 06fb 3A       		.byte	0x3a
 1124 06fc 59020000 		.4byte	0x259
 1125 0700 00       		.byte	0
 1126 0701 07       		.uleb128 0x7
 1127 0702 A9050000 		.4byte	.LASF107
 1128 0706 0D       		.byte	0xd
 1129 0707 3C       		.byte	0x3c
 1130 0708 2F020000 		.4byte	0x22f
ARM GAS  /tmp/ccqDZySP.s 			page 21


 1131 070c 08       		.byte	0x8
 1132 070d 07       		.uleb128 0x7
 1133 070e 99040000 		.4byte	.LASF108
 1134 0712 0D       		.byte	0xd
 1135 0713 3E       		.byte	0x3e
 1136 0714 58070000 		.4byte	0x758
 1137 0718 0C       		.byte	0xc
 1138 0719 00       		.byte	0
 1139 071a 0A       		.uleb128 0xa
 1140 071b 04       		.byte	0x4
 1141 071c E9060000 		.4byte	0x6e9
 1142 0720 0A       		.uleb128 0xa
 1143 0721 04       		.byte	0x4
 1144 0722 26070000 		.4byte	0x726
 1145 0726 18       		.uleb128 0x18
 1146 0727 2B070000 		.4byte	0x72b
 1147 072b 03       		.uleb128 0x3
 1148 072c 01       		.byte	0x1
 1149 072d 08       		.byte	0x8
 1150 072e 7D040000 		.4byte	.LASF109
 1151 0732 0A       		.uleb128 0xa
 1152 0733 04       		.byte	0x4
 1153 0734 0E030000 		.4byte	0x30e
 1154 0738 05       		.uleb128 0x5
 1155 0739 20070000 		.4byte	0x720
 1156 073d 10       		.uleb128 0x10
 1157 073e 74040000 		.4byte	0x474
 1158 0742 4D070000 		.4byte	0x74d
 1159 0746 11       		.uleb128 0x11
 1160 0747 42040000 		.4byte	0x442
 1161 074b 1A       		.byte	0x1a
 1162 074c 00       		.byte	0
 1163 074d 04       		.uleb128 0x4
 1164 074e 10020000 		.4byte	.LASF110
 1165 0752 0D       		.byte	0xd
 1166 0753 34       		.byte	0x34
 1167 0754 E9060000 		.4byte	0x6e9
 1168 0758 0A       		.uleb128 0xa
 1169 0759 04       		.byte	0x4
 1170 075a 4D070000 		.4byte	0x74d
 1171 075e 03       		.uleb128 0x3
 1172 075f 01       		.byte	0x1
 1173 0760 02       		.byte	0x2
 1174 0761 91030000 		.4byte	.LASF111
 1175 0765 19       		.uleb128 0x19
 1176 0766 AB020000 		.4byte	.LASF112
 1177 076a 01       		.byte	0x1
 1178 076b 99       		.byte	0x99
 1179 076c 00000000 		.4byte	.LFB137
 1180 0770 20000000 		.4byte	.LFE137-.LFB137
 1181 0774 01       		.uleb128 0x1
 1182 0775 9C       		.byte	0x9c
 1183 0776 89070000 		.4byte	0x789
 1184 077a 1A       		.uleb128 0x1a
 1185 077b 38030000 		.4byte	.LASF114
 1186 077f 01       		.byte	0x1
 1187 0780 99       		.byte	0x99
ARM GAS  /tmp/ccqDZySP.s 			page 22


 1188 0781 21010000 		.4byte	0x121
 1189 0785 02       		.uleb128 0x2
 1190 0786 91       		.byte	0x91
 1191 0787 7C       		.sleb128 -4
 1192 0788 00       		.byte	0
 1193 0789 1B       		.uleb128 0x1b
 1194 078a FD040000 		.4byte	.LASF124
 1195 078e 01       		.byte	0x1
 1196 078f A5       		.byte	0xa5
 1197 0790 00000000 		.4byte	.LFB138
 1198 0794 0A000000 		.4byte	.LFE138-.LFB138
 1199 0798 01       		.uleb128 0x1
 1200 0799 9C       		.byte	0x9c
 1201 079a 19       		.uleb128 0x19
 1202 079b 98050000 		.4byte	.LASF113
 1203 079f 01       		.byte	0x1
 1204 07a0 B1       		.byte	0xb1
 1205 07a1 00000000 		.4byte	.LFB139
 1206 07a5 10000000 		.4byte	.LFE139-.LFB139
 1207 07a9 01       		.uleb128 0x1
 1208 07aa 9C       		.byte	0x9c
 1209 07ab BE070000 		.4byte	0x7be
 1210 07af 1A       		.uleb128 0x1a
 1211 07b0 38030000 		.4byte	.LASF114
 1212 07b4 01       		.byte	0x1
 1213 07b5 B1       		.byte	0xb1
 1214 07b6 21010000 		.4byte	0x121
 1215 07ba 02       		.uleb128 0x2
 1216 07bb 91       		.byte	0x91
 1217 07bc 7C       		.sleb128 -4
 1218 07bd 00       		.byte	0
 1219 07be 1C       		.uleb128 0x1c
 1220 07bf 00040000 		.4byte	.LASF125
 1221 07c3 01       		.byte	0x1
 1222 07c4 BD       		.byte	0xbd
 1223 07c5 21010000 		.4byte	0x121
 1224 07c9 00000000 		.4byte	.LFB140
 1225 07cd 0A000000 		.4byte	.LFE140-.LFB140
 1226 07d1 01       		.uleb128 0x1
 1227 07d2 9C       		.byte	0x9c
 1228 07d3 1D       		.uleb128 0x1d
 1229 07d4 1A030000 		.4byte	.LASF116
 1230 07d8 02       		.byte	0x2
 1231 07d9 3C       		.byte	0x3c
 1232 07da 00000000 		.4byte	.LFB271
 1233 07de 08000000 		.4byte	.LFE271-.LFB271
 1234 07e2 01       		.uleb128 0x1
 1235 07e3 9C       		.byte	0x9c
 1236 07e4 1E       		.uleb128 0x1e
 1237 07e5 DA040000 		.4byte	.LASF118
 1238 07e9 02       		.byte	0x2
 1239 07ea 4D       		.byte	0x4d
 1240 07eb 00000000 		.4byte	.LFB272
 1241 07ef 12000000 		.4byte	.LFE272-.LFB272
 1242 07f3 01       		.uleb128 0x1
 1243 07f4 9C       		.byte	0x9c
 1244 07f5 11080000 		.4byte	0x811
ARM GAS  /tmp/ccqDZySP.s 			page 23


 1245 07f9 1A       		.uleb128 0x1a
 1246 07fa 88050000 		.4byte	.LASF115
 1247 07fe 02       		.byte	0x2
 1248 07ff 4D       		.byte	0x4d
 1249 0800 21010000 		.4byte	0x121
 1250 0804 02       		.uleb128 0x2
 1251 0805 91       		.byte	0x91
 1252 0806 74       		.sleb128 -12
 1253 0807 1F       		.uleb128 0x1f
 1254 0808 E6030000 		.4byte	.LASF120
 1255 080c 21080000 		.4byte	0x821
 1256 0810 00       		.byte	0
 1257 0811 10       		.uleb128 0x10
 1258 0812 2B070000 		.4byte	0x72b
 1259 0816 21080000 		.4byte	0x821
 1260 081a 11       		.uleb128 0x11
 1261 081b 42040000 		.4byte	0x442
 1262 081f 0C       		.byte	0xc
 1263 0820 00       		.byte	0
 1264 0821 18       		.uleb128 0x18
 1265 0822 11080000 		.4byte	0x811
 1266 0826 1D       		.uleb128 0x1d
 1267 0827 71040000 		.4byte	.LASF117
 1268 082b 02       		.byte	0x2
 1269 082c 5B       		.byte	0x5b
 1270 082d 00000000 		.4byte	.LFB273
 1271 0831 08000000 		.4byte	.LFE273-.LFB273
 1272 0835 01       		.uleb128 0x1
 1273 0836 9C       		.byte	0x9c
 1274 0837 1E       		.uleb128 0x1e
 1275 0838 55050000 		.4byte	.LASF119
 1276 083c 02       		.byte	0x2
 1277 083d 69       		.byte	0x69
 1278 083e 00000000 		.4byte	.LFB274
 1279 0842 12000000 		.4byte	.LFE274-.LFB274
 1280 0846 01       		.uleb128 0x1
 1281 0847 9C       		.byte	0x9c
 1282 0848 64080000 		.4byte	0x864
 1283 084c 1A       		.uleb128 0x1a
 1284 084d 88050000 		.4byte	.LASF115
 1285 0851 02       		.byte	0x2
 1286 0852 69       		.byte	0x69
 1287 0853 21010000 		.4byte	0x121
 1288 0857 02       		.uleb128 0x2
 1289 0858 91       		.byte	0x91
 1290 0859 74       		.sleb128 -12
 1291 085a 1F       		.uleb128 0x1f
 1292 085b E6030000 		.4byte	.LASF120
 1293 085f 74080000 		.4byte	0x874
 1294 0863 00       		.byte	0
 1295 0864 10       		.uleb128 0x10
 1296 0865 2B070000 		.4byte	0x72b
 1297 0869 74080000 		.4byte	0x874
 1298 086d 11       		.uleb128 0x11
 1299 086e 42040000 		.4byte	0x442
 1300 0872 0A       		.byte	0xa
 1301 0873 00       		.byte	0
ARM GAS  /tmp/ccqDZySP.s 			page 24


 1302 0874 18       		.uleb128 0x18
 1303 0875 64080000 		.4byte	0x864
 1304 0879 20       		.uleb128 0x20
 1305 087a 60050000 		.4byte	.LASF126
 1306 087e 02       		.byte	0x2
 1307 087f 79       		.byte	0x79
 1308 0880 21010000 		.4byte	0x121
 1309 0884 00000000 		.4byte	.LFB275
 1310 0888 0C000000 		.4byte	.LFE275-.LFB275
 1311 088c 01       		.uleb128 0x1
 1312 088d 9C       		.byte	0x9c
 1313 088e 9C080000 		.4byte	0x89c
 1314 0892 1F       		.uleb128 0x1f
 1315 0893 E6030000 		.4byte	.LASF120
 1316 0897 9C080000 		.4byte	0x89c
 1317 089b 00       		.byte	0
 1318 089c 18       		.uleb128 0x18
 1319 089d 64080000 		.4byte	0x864
 1320 08a1 21       		.uleb128 0x21
 1321 08a2 8E000000 		.4byte	.LASF121
 1322 08a6 0E       		.byte	0xe
 1323 08a7 FA06     		.2byte	0x6fa
 1324 08a9 BF000000 		.4byte	0xbf
 1325 08ad 22       		.uleb128 0x22
 1326 08ae 636800   		.ascii	"ch\000"
 1327 08b1 07       		.byte	0x7
 1328 08b2 0902     		.2byte	0x209
 1329 08b4 DB030000 		.4byte	0x3db
 1330 08b8 00       		.byte	0
 1331              		.section	.debug_abbrev,"",%progbits
 1332              	.Ldebug_abbrev0:
 1333 0000 01       		.uleb128 0x1
 1334 0001 11       		.uleb128 0x11
 1335 0002 01       		.byte	0x1
 1336 0003 25       		.uleb128 0x25
 1337 0004 0E       		.uleb128 0xe
 1338 0005 13       		.uleb128 0x13
 1339 0006 0B       		.uleb128 0xb
 1340 0007 03       		.uleb128 0x3
 1341 0008 0E       		.uleb128 0xe
 1342 0009 55       		.uleb128 0x55
 1343 000a 17       		.uleb128 0x17
 1344 000b 11       		.uleb128 0x11
 1345 000c 01       		.uleb128 0x1
 1346 000d 10       		.uleb128 0x10
 1347 000e 17       		.uleb128 0x17
 1348 000f 00       		.byte	0
 1349 0010 00       		.byte	0
 1350 0011 02       		.uleb128 0x2
 1351 0012 24       		.uleb128 0x24
 1352 0013 00       		.byte	0
 1353 0014 0B       		.uleb128 0xb
 1354 0015 0B       		.uleb128 0xb
 1355 0016 3E       		.uleb128 0x3e
 1356 0017 0B       		.uleb128 0xb
 1357 0018 03       		.uleb128 0x3
 1358 0019 08       		.uleb128 0x8
ARM GAS  /tmp/ccqDZySP.s 			page 25


 1359 001a 00       		.byte	0
 1360 001b 00       		.byte	0
 1361 001c 03       		.uleb128 0x3
 1362 001d 24       		.uleb128 0x24
 1363 001e 00       		.byte	0
 1364 001f 0B       		.uleb128 0xb
 1365 0020 0B       		.uleb128 0xb
 1366 0021 3E       		.uleb128 0x3e
 1367 0022 0B       		.uleb128 0xb
 1368 0023 03       		.uleb128 0x3
 1369 0024 0E       		.uleb128 0xe
 1370 0025 00       		.byte	0
 1371 0026 00       		.byte	0
 1372 0027 04       		.uleb128 0x4
 1373 0028 16       		.uleb128 0x16
 1374 0029 00       		.byte	0
 1375 002a 03       		.uleb128 0x3
 1376 002b 0E       		.uleb128 0xe
 1377 002c 3A       		.uleb128 0x3a
 1378 002d 0B       		.uleb128 0xb
 1379 002e 3B       		.uleb128 0x3b
 1380 002f 0B       		.uleb128 0xb
 1381 0030 49       		.uleb128 0x49
 1382 0031 13       		.uleb128 0x13
 1383 0032 00       		.byte	0
 1384 0033 00       		.byte	0
 1385 0034 05       		.uleb128 0x5
 1386 0035 35       		.uleb128 0x35
 1387 0036 00       		.byte	0
 1388 0037 49       		.uleb128 0x49
 1389 0038 13       		.uleb128 0x13
 1390 0039 00       		.byte	0
 1391 003a 00       		.byte	0
 1392 003b 06       		.uleb128 0x6
 1393 003c 13       		.uleb128 0x13
 1394 003d 01       		.byte	0x1
 1395 003e 03       		.uleb128 0x3
 1396 003f 0E       		.uleb128 0xe
 1397 0040 0B       		.uleb128 0xb
 1398 0041 0B       		.uleb128 0xb
 1399 0042 3A       		.uleb128 0x3a
 1400 0043 0B       		.uleb128 0xb
 1401 0044 3B       		.uleb128 0x3b
 1402 0045 0B       		.uleb128 0xb
 1403 0046 01       		.uleb128 0x1
 1404 0047 13       		.uleb128 0x13
 1405 0048 00       		.byte	0
 1406 0049 00       		.byte	0
 1407 004a 07       		.uleb128 0x7
 1408 004b 0D       		.uleb128 0xd
 1409 004c 00       		.byte	0
 1410 004d 03       		.uleb128 0x3
 1411 004e 0E       		.uleb128 0xe
 1412 004f 3A       		.uleb128 0x3a
 1413 0050 0B       		.uleb128 0xb
 1414 0051 3B       		.uleb128 0x3b
 1415 0052 0B       		.uleb128 0xb
ARM GAS  /tmp/ccqDZySP.s 			page 26


 1416 0053 49       		.uleb128 0x49
 1417 0054 13       		.uleb128 0x13
 1418 0055 38       		.uleb128 0x38
 1419 0056 0B       		.uleb128 0xb
 1420 0057 00       		.byte	0
 1421 0058 00       		.byte	0
 1422 0059 08       		.uleb128 0x8
 1423 005a 0D       		.uleb128 0xd
 1424 005b 00       		.byte	0
 1425 005c 03       		.uleb128 0x3
 1426 005d 08       		.uleb128 0x8
 1427 005e 3A       		.uleb128 0x3a
 1428 005f 0B       		.uleb128 0xb
 1429 0060 3B       		.uleb128 0x3b
 1430 0061 05       		.uleb128 0x5
 1431 0062 49       		.uleb128 0x49
 1432 0063 13       		.uleb128 0x13
 1433 0064 38       		.uleb128 0x38
 1434 0065 0B       		.uleb128 0xb
 1435 0066 00       		.byte	0
 1436 0067 00       		.byte	0
 1437 0068 09       		.uleb128 0x9
 1438 0069 0D       		.uleb128 0xd
 1439 006a 00       		.byte	0
 1440 006b 03       		.uleb128 0x3
 1441 006c 0E       		.uleb128 0xe
 1442 006d 3A       		.uleb128 0x3a
 1443 006e 0B       		.uleb128 0xb
 1444 006f 3B       		.uleb128 0x3b
 1445 0070 05       		.uleb128 0x5
 1446 0071 49       		.uleb128 0x49
 1447 0072 13       		.uleb128 0x13
 1448 0073 38       		.uleb128 0x38
 1449 0074 0B       		.uleb128 0xb
 1450 0075 00       		.byte	0
 1451 0076 00       		.byte	0
 1452 0077 0A       		.uleb128 0xa
 1453 0078 0F       		.uleb128 0xf
 1454 0079 00       		.byte	0
 1455 007a 0B       		.uleb128 0xb
 1456 007b 0B       		.uleb128 0xb
 1457 007c 49       		.uleb128 0x49
 1458 007d 13       		.uleb128 0x13
 1459 007e 00       		.byte	0
 1460 007f 00       		.byte	0
 1461 0080 0B       		.uleb128 0xb
 1462 0081 13       		.uleb128 0x13
 1463 0082 01       		.byte	0x1
 1464 0083 03       		.uleb128 0x3
 1465 0084 0E       		.uleb128 0xe
 1466 0085 0B       		.uleb128 0xb
 1467 0086 0B       		.uleb128 0xb
 1468 0087 3A       		.uleb128 0x3a
 1469 0088 0B       		.uleb128 0xb
 1470 0089 3B       		.uleb128 0x3b
 1471 008a 05       		.uleb128 0x5
 1472 008b 01       		.uleb128 0x1
ARM GAS  /tmp/ccqDZySP.s 			page 27


 1473 008c 13       		.uleb128 0x13
 1474 008d 00       		.byte	0
 1475 008e 00       		.byte	0
 1476 008f 0C       		.uleb128 0xc
 1477 0090 15       		.uleb128 0x15
 1478 0091 01       		.byte	0x1
 1479 0092 27       		.uleb128 0x27
 1480 0093 19       		.uleb128 0x19
 1481 0094 01       		.uleb128 0x1
 1482 0095 13       		.uleb128 0x13
 1483 0096 00       		.byte	0
 1484 0097 00       		.byte	0
 1485 0098 0D       		.uleb128 0xd
 1486 0099 05       		.uleb128 0x5
 1487 009a 00       		.byte	0
 1488 009b 49       		.uleb128 0x49
 1489 009c 13       		.uleb128 0x13
 1490 009d 00       		.byte	0
 1491 009e 00       		.byte	0
 1492 009f 0E       		.uleb128 0xe
 1493 00a0 0F       		.uleb128 0xf
 1494 00a1 00       		.byte	0
 1495 00a2 0B       		.uleb128 0xb
 1496 00a3 0B       		.uleb128 0xb
 1497 00a4 00       		.byte	0
 1498 00a5 00       		.byte	0
 1499 00a6 0F       		.uleb128 0xf
 1500 00a7 13       		.uleb128 0x13
 1501 00a8 01       		.byte	0x1
 1502 00a9 03       		.uleb128 0x3
 1503 00aa 0E       		.uleb128 0xe
 1504 00ab 0B       		.uleb128 0xb
 1505 00ac 05       		.uleb128 0x5
 1506 00ad 3A       		.uleb128 0x3a
 1507 00ae 0B       		.uleb128 0xb
 1508 00af 3B       		.uleb128 0x3b
 1509 00b0 05       		.uleb128 0x5
 1510 00b1 01       		.uleb128 0x1
 1511 00b2 13       		.uleb128 0x13
 1512 00b3 00       		.byte	0
 1513 00b4 00       		.byte	0
 1514 00b5 10       		.uleb128 0x10
 1515 00b6 01       		.uleb128 0x1
 1516 00b7 01       		.byte	0x1
 1517 00b8 49       		.uleb128 0x49
 1518 00b9 13       		.uleb128 0x13
 1519 00ba 01       		.uleb128 0x1
 1520 00bb 13       		.uleb128 0x13
 1521 00bc 00       		.byte	0
 1522 00bd 00       		.byte	0
 1523 00be 11       		.uleb128 0x11
 1524 00bf 21       		.uleb128 0x21
 1525 00c0 00       		.byte	0
 1526 00c1 49       		.uleb128 0x49
 1527 00c2 13       		.uleb128 0x13
 1528 00c3 2F       		.uleb128 0x2f
 1529 00c4 0B       		.uleb128 0xb
ARM GAS  /tmp/ccqDZySP.s 			page 28


 1530 00c5 00       		.byte	0
 1531 00c6 00       		.byte	0
 1532 00c7 12       		.uleb128 0x12
 1533 00c8 0D       		.uleb128 0xd
 1534 00c9 00       		.byte	0
 1535 00ca 03       		.uleb128 0x3
 1536 00cb 08       		.uleb128 0x8
 1537 00cc 3A       		.uleb128 0x3a
 1538 00cd 0B       		.uleb128 0xb
 1539 00ce 3B       		.uleb128 0x3b
 1540 00cf 0B       		.uleb128 0xb
 1541 00d0 49       		.uleb128 0x49
 1542 00d1 13       		.uleb128 0x13
 1543 00d2 38       		.uleb128 0x38
 1544 00d3 0B       		.uleb128 0xb
 1545 00d4 00       		.byte	0
 1546 00d5 00       		.byte	0
 1547 00d6 13       		.uleb128 0x13
 1548 00d7 13       		.uleb128 0x13
 1549 00d8 01       		.byte	0x1
 1550 00d9 0B       		.uleb128 0xb
 1551 00da 0B       		.uleb128 0xb
 1552 00db 3A       		.uleb128 0x3a
 1553 00dc 0B       		.uleb128 0xb
 1554 00dd 3B       		.uleb128 0x3b
 1555 00de 05       		.uleb128 0x5
 1556 00df 01       		.uleb128 0x1
 1557 00e0 13       		.uleb128 0x13
 1558 00e1 00       		.byte	0
 1559 00e2 00       		.byte	0
 1560 00e3 14       		.uleb128 0x14
 1561 00e4 16       		.uleb128 0x16
 1562 00e5 00       		.byte	0
 1563 00e6 03       		.uleb128 0x3
 1564 00e7 0E       		.uleb128 0xe
 1565 00e8 3A       		.uleb128 0x3a
 1566 00e9 0B       		.uleb128 0xb
 1567 00ea 3B       		.uleb128 0x3b
 1568 00eb 05       		.uleb128 0x5
 1569 00ec 49       		.uleb128 0x49
 1570 00ed 13       		.uleb128 0x13
 1571 00ee 00       		.byte	0
 1572 00ef 00       		.byte	0
 1573 00f0 15       		.uleb128 0x15
 1574 00f1 13       		.uleb128 0x13
 1575 00f2 01       		.byte	0x1
 1576 00f3 0B       		.uleb128 0xb
 1577 00f4 0B       		.uleb128 0xb
 1578 00f5 3A       		.uleb128 0x3a
 1579 00f6 0B       		.uleb128 0xb
 1580 00f7 3B       		.uleb128 0x3b
 1581 00f8 0B       		.uleb128 0xb
 1582 00f9 01       		.uleb128 0x1
 1583 00fa 13       		.uleb128 0x13
 1584 00fb 00       		.byte	0
 1585 00fc 00       		.byte	0
 1586 00fd 16       		.uleb128 0x16
ARM GAS  /tmp/ccqDZySP.s 			page 29


 1587 00fe 17       		.uleb128 0x17
 1588 00ff 01       		.byte	0x1
 1589 0100 0B       		.uleb128 0xb
 1590 0101 0B       		.uleb128 0xb
 1591 0102 3A       		.uleb128 0x3a
 1592 0103 0B       		.uleb128 0xb
 1593 0104 3B       		.uleb128 0x3b
 1594 0105 0B       		.uleb128 0xb
 1595 0106 01       		.uleb128 0x1
 1596 0107 13       		.uleb128 0x13
 1597 0108 00       		.byte	0
 1598 0109 00       		.byte	0
 1599 010a 17       		.uleb128 0x17
 1600 010b 0D       		.uleb128 0xd
 1601 010c 00       		.byte	0
 1602 010d 03       		.uleb128 0x3
 1603 010e 0E       		.uleb128 0xe
 1604 010f 3A       		.uleb128 0x3a
 1605 0110 0B       		.uleb128 0xb
 1606 0111 3B       		.uleb128 0x3b
 1607 0112 05       		.uleb128 0x5
 1608 0113 49       		.uleb128 0x49
 1609 0114 13       		.uleb128 0x13
 1610 0115 00       		.byte	0
 1611 0116 00       		.byte	0
 1612 0117 18       		.uleb128 0x18
 1613 0118 26       		.uleb128 0x26
 1614 0119 00       		.byte	0
 1615 011a 49       		.uleb128 0x49
 1616 011b 13       		.uleb128 0x13
 1617 011c 00       		.byte	0
 1618 011d 00       		.byte	0
 1619 011e 19       		.uleb128 0x19
 1620 011f 2E       		.uleb128 0x2e
 1621 0120 01       		.byte	0x1
 1622 0121 03       		.uleb128 0x3
 1623 0122 0E       		.uleb128 0xe
 1624 0123 3A       		.uleb128 0x3a
 1625 0124 0B       		.uleb128 0xb
 1626 0125 3B       		.uleb128 0x3b
 1627 0126 0B       		.uleb128 0xb
 1628 0127 27       		.uleb128 0x27
 1629 0128 19       		.uleb128 0x19
 1630 0129 11       		.uleb128 0x11
 1631 012a 01       		.uleb128 0x1
 1632 012b 12       		.uleb128 0x12
 1633 012c 06       		.uleb128 0x6
 1634 012d 40       		.uleb128 0x40
 1635 012e 18       		.uleb128 0x18
 1636 012f 9742     		.uleb128 0x2117
 1637 0131 19       		.uleb128 0x19
 1638 0132 01       		.uleb128 0x1
 1639 0133 13       		.uleb128 0x13
 1640 0134 00       		.byte	0
 1641 0135 00       		.byte	0
 1642 0136 1A       		.uleb128 0x1a
 1643 0137 05       		.uleb128 0x5
ARM GAS  /tmp/ccqDZySP.s 			page 30


 1644 0138 00       		.byte	0
 1645 0139 03       		.uleb128 0x3
 1646 013a 0E       		.uleb128 0xe
 1647 013b 3A       		.uleb128 0x3a
 1648 013c 0B       		.uleb128 0xb
 1649 013d 3B       		.uleb128 0x3b
 1650 013e 0B       		.uleb128 0xb
 1651 013f 49       		.uleb128 0x49
 1652 0140 13       		.uleb128 0x13
 1653 0141 02       		.uleb128 0x2
 1654 0142 18       		.uleb128 0x18
 1655 0143 00       		.byte	0
 1656 0144 00       		.byte	0
 1657 0145 1B       		.uleb128 0x1b
 1658 0146 2E       		.uleb128 0x2e
 1659 0147 00       		.byte	0
 1660 0148 03       		.uleb128 0x3
 1661 0149 0E       		.uleb128 0xe
 1662 014a 3A       		.uleb128 0x3a
 1663 014b 0B       		.uleb128 0xb
 1664 014c 3B       		.uleb128 0x3b
 1665 014d 0B       		.uleb128 0xb
 1666 014e 27       		.uleb128 0x27
 1667 014f 19       		.uleb128 0x19
 1668 0150 11       		.uleb128 0x11
 1669 0151 01       		.uleb128 0x1
 1670 0152 12       		.uleb128 0x12
 1671 0153 06       		.uleb128 0x6
 1672 0154 40       		.uleb128 0x40
 1673 0155 18       		.uleb128 0x18
 1674 0156 9742     		.uleb128 0x2117
 1675 0158 19       		.uleb128 0x19
 1676 0159 00       		.byte	0
 1677 015a 00       		.byte	0
 1678 015b 1C       		.uleb128 0x1c
 1679 015c 2E       		.uleb128 0x2e
 1680 015d 00       		.byte	0
 1681 015e 03       		.uleb128 0x3
 1682 015f 0E       		.uleb128 0xe
 1683 0160 3A       		.uleb128 0x3a
 1684 0161 0B       		.uleb128 0xb
 1685 0162 3B       		.uleb128 0x3b
 1686 0163 0B       		.uleb128 0xb
 1687 0164 27       		.uleb128 0x27
 1688 0165 19       		.uleb128 0x19
 1689 0166 49       		.uleb128 0x49
 1690 0167 13       		.uleb128 0x13
 1691 0168 11       		.uleb128 0x11
 1692 0169 01       		.uleb128 0x1
 1693 016a 12       		.uleb128 0x12
 1694 016b 06       		.uleb128 0x6
 1695 016c 40       		.uleb128 0x40
 1696 016d 18       		.uleb128 0x18
 1697 016e 9742     		.uleb128 0x2117
 1698 0170 19       		.uleb128 0x19
 1699 0171 00       		.byte	0
 1700 0172 00       		.byte	0
ARM GAS  /tmp/ccqDZySP.s 			page 31


 1701 0173 1D       		.uleb128 0x1d
 1702 0174 2E       		.uleb128 0x2e
 1703 0175 00       		.byte	0
 1704 0176 3F       		.uleb128 0x3f
 1705 0177 19       		.uleb128 0x19
 1706 0178 03       		.uleb128 0x3
 1707 0179 0E       		.uleb128 0xe
 1708 017a 3A       		.uleb128 0x3a
 1709 017b 0B       		.uleb128 0xb
 1710 017c 3B       		.uleb128 0x3b
 1711 017d 0B       		.uleb128 0xb
 1712 017e 27       		.uleb128 0x27
 1713 017f 19       		.uleb128 0x19
 1714 0180 11       		.uleb128 0x11
 1715 0181 01       		.uleb128 0x1
 1716 0182 12       		.uleb128 0x12
 1717 0183 06       		.uleb128 0x6
 1718 0184 40       		.uleb128 0x40
 1719 0185 18       		.uleb128 0x18
 1720 0186 9642     		.uleb128 0x2116
 1721 0188 19       		.uleb128 0x19
 1722 0189 00       		.byte	0
 1723 018a 00       		.byte	0
 1724 018b 1E       		.uleb128 0x1e
 1725 018c 2E       		.uleb128 0x2e
 1726 018d 01       		.byte	0x1
 1727 018e 3F       		.uleb128 0x3f
 1728 018f 19       		.uleb128 0x19
 1729 0190 03       		.uleb128 0x3
 1730 0191 0E       		.uleb128 0xe
 1731 0192 3A       		.uleb128 0x3a
 1732 0193 0B       		.uleb128 0xb
 1733 0194 3B       		.uleb128 0x3b
 1734 0195 0B       		.uleb128 0xb
 1735 0196 27       		.uleb128 0x27
 1736 0197 19       		.uleb128 0x19
 1737 0198 11       		.uleb128 0x11
 1738 0199 01       		.uleb128 0x1
 1739 019a 12       		.uleb128 0x12
 1740 019b 06       		.uleb128 0x6
 1741 019c 40       		.uleb128 0x40
 1742 019d 18       		.uleb128 0x18
 1743 019e 9642     		.uleb128 0x2116
 1744 01a0 19       		.uleb128 0x19
 1745 01a1 01       		.uleb128 0x1
 1746 01a2 13       		.uleb128 0x13
 1747 01a3 00       		.byte	0
 1748 01a4 00       		.byte	0
 1749 01a5 1F       		.uleb128 0x1f
 1750 01a6 34       		.uleb128 0x34
 1751 01a7 00       		.byte	0
 1752 01a8 03       		.uleb128 0x3
 1753 01a9 0E       		.uleb128 0xe
 1754 01aa 49       		.uleb128 0x49
 1755 01ab 13       		.uleb128 0x13
 1756 01ac 34       		.uleb128 0x34
 1757 01ad 19       		.uleb128 0x19
ARM GAS  /tmp/ccqDZySP.s 			page 32


 1758 01ae 00       		.byte	0
 1759 01af 00       		.byte	0
 1760 01b0 20       		.uleb128 0x20
 1761 01b1 2E       		.uleb128 0x2e
 1762 01b2 01       		.byte	0x1
 1763 01b3 3F       		.uleb128 0x3f
 1764 01b4 19       		.uleb128 0x19
 1765 01b5 03       		.uleb128 0x3
 1766 01b6 0E       		.uleb128 0xe
 1767 01b7 3A       		.uleb128 0x3a
 1768 01b8 0B       		.uleb128 0xb
 1769 01b9 3B       		.uleb128 0x3b
 1770 01ba 0B       		.uleb128 0xb
 1771 01bb 27       		.uleb128 0x27
 1772 01bc 19       		.uleb128 0x19
 1773 01bd 49       		.uleb128 0x49
 1774 01be 13       		.uleb128 0x13
 1775 01bf 11       		.uleb128 0x11
 1776 01c0 01       		.uleb128 0x1
 1777 01c1 12       		.uleb128 0x12
 1778 01c2 06       		.uleb128 0x6
 1779 01c3 40       		.uleb128 0x40
 1780 01c4 18       		.uleb128 0x18
 1781 01c5 9642     		.uleb128 0x2116
 1782 01c7 19       		.uleb128 0x19
 1783 01c8 01       		.uleb128 0x1
 1784 01c9 13       		.uleb128 0x13
 1785 01ca 00       		.byte	0
 1786 01cb 00       		.byte	0
 1787 01cc 21       		.uleb128 0x21
 1788 01cd 34       		.uleb128 0x34
 1789 01ce 00       		.byte	0
 1790 01cf 03       		.uleb128 0x3
 1791 01d0 0E       		.uleb128 0xe
 1792 01d1 3A       		.uleb128 0x3a
 1793 01d2 0B       		.uleb128 0xb
 1794 01d3 3B       		.uleb128 0x3b
 1795 01d4 05       		.uleb128 0x5
 1796 01d5 49       		.uleb128 0x49
 1797 01d6 13       		.uleb128 0x13
 1798 01d7 3F       		.uleb128 0x3f
 1799 01d8 19       		.uleb128 0x19
 1800 01d9 3C       		.uleb128 0x3c
 1801 01da 19       		.uleb128 0x19
 1802 01db 00       		.byte	0
 1803 01dc 00       		.byte	0
 1804 01dd 22       		.uleb128 0x22
 1805 01de 34       		.uleb128 0x34
 1806 01df 00       		.byte	0
 1807 01e0 03       		.uleb128 0x3
 1808 01e1 08       		.uleb128 0x8
 1809 01e2 3A       		.uleb128 0x3a
 1810 01e3 0B       		.uleb128 0xb
 1811 01e4 3B       		.uleb128 0x3b
 1812 01e5 05       		.uleb128 0x5
 1813 01e6 49       		.uleb128 0x49
 1814 01e7 13       		.uleb128 0x13
ARM GAS  /tmp/ccqDZySP.s 			page 33


 1815 01e8 3F       		.uleb128 0x3f
 1816 01e9 19       		.uleb128 0x19
 1817 01ea 3C       		.uleb128 0x3c
 1818 01eb 19       		.uleb128 0x19
 1819 01ec 00       		.byte	0
 1820 01ed 00       		.byte	0
 1821 01ee 00       		.byte	0
 1822              		.section	.debug_aranges,"",%progbits
 1823 0000 5C000000 		.4byte	0x5c
 1824 0004 0200     		.2byte	0x2
 1825 0006 00000000 		.4byte	.Ldebug_info0
 1826 000a 04       		.byte	0x4
 1827 000b 00       		.byte	0
 1828 000c 0000     		.2byte	0
 1829 000e 0000     		.2byte	0
 1830 0010 00000000 		.4byte	.LFB137
 1831 0014 20000000 		.4byte	.LFE137-.LFB137
 1832 0018 00000000 		.4byte	.LFB138
 1833 001c 0A000000 		.4byte	.LFE138-.LFB138
 1834 0020 00000000 		.4byte	.LFB139
 1835 0024 10000000 		.4byte	.LFE139-.LFB139
 1836 0028 00000000 		.4byte	.LFB140
 1837 002c 0A000000 		.4byte	.LFE140-.LFB140
 1838 0030 00000000 		.4byte	.LFB271
 1839 0034 08000000 		.4byte	.LFE271-.LFB271
 1840 0038 00000000 		.4byte	.LFB272
 1841 003c 12000000 		.4byte	.LFE272-.LFB272
 1842 0040 00000000 		.4byte	.LFB273
 1843 0044 08000000 		.4byte	.LFE273-.LFB273
 1844 0048 00000000 		.4byte	.LFB274
 1845 004c 12000000 		.4byte	.LFE274-.LFB274
 1846 0050 00000000 		.4byte	.LFB275
 1847 0054 0C000000 		.4byte	.LFE275-.LFB275
 1848 0058 00000000 		.4byte	0
 1849 005c 00000000 		.4byte	0
 1850              		.section	.debug_ranges,"",%progbits
 1851              	.Ldebug_ranges0:
 1852 0000 00000000 		.4byte	.LFB137
 1853 0004 20000000 		.4byte	.LFE137
 1854 0008 00000000 		.4byte	.LFB138
 1855 000c 0A000000 		.4byte	.LFE138
 1856 0010 00000000 		.4byte	.LFB139
 1857 0014 10000000 		.4byte	.LFE139
 1858 0018 00000000 		.4byte	.LFB140
 1859 001c 0A000000 		.4byte	.LFE140
 1860 0020 00000000 		.4byte	.LFB271
 1861 0024 08000000 		.4byte	.LFE271
 1862 0028 00000000 		.4byte	.LFB272
 1863 002c 12000000 		.4byte	.LFE272
 1864 0030 00000000 		.4byte	.LFB273
 1865 0034 08000000 		.4byte	.LFE273
 1866 0038 00000000 		.4byte	.LFB274
 1867 003c 12000000 		.4byte	.LFE274
 1868 0040 00000000 		.4byte	.LFB275
 1869 0044 0C000000 		.4byte	.LFE275
 1870 0048 00000000 		.4byte	0
 1871 004c 00000000 		.4byte	0
ARM GAS  /tmp/ccqDZySP.s 			page 34


 1872              		.section	.debug_line,"",%progbits
 1873              	.Ldebug_line0:
 1874 0000 97020000 		.section	.debug_str,"MS",%progbits,1
 1874      0200E401 
 1874      00000201 
 1874      FB0E0D00 
 1874      01010101 
 1875              	.LASF50:
 1876 0000 72656164 		.ascii	"ready_list_t\000"
 1876      795F6C69 
 1876      73745F74 
 1876      00
 1877              	.LASF84:
 1878 000d 44494552 		.ascii	"DIER\000"
 1878      00
 1879              	.LASF98:
 1880 0012 77747472 		.ascii	"wttrp\000"
 1880      7000
 1881              	.LASF95:
 1882 0018 7264796D 		.ascii	"rdymsg\000"
 1882      736700
 1883              	.LASF16:
 1884 001f 75696E74 		.ascii	"uint64_t\000"
 1884      36345F74 
 1884      00
 1885              	.LASF5:
 1886 0028 5F5F7569 		.ascii	"__uint8_t\000"
 1886      6E74385F 
 1886      7400
 1887              	.LASF82:
 1888 0032 706F7274 		.ascii	"port_intctx\000"
 1888      5F696E74 
 1888      63747800 
 1889              	.LASF69:
 1890 003e 73797374 		.ascii	"system_debug_t\000"
 1890      656D5F64 
 1890      65627567 
 1890      5F7400
 1891              	.LASF12:
 1892 004d 6C6F6E67 		.ascii	"long long unsigned int\000"
 1892      206C6F6E 
 1892      6720756E 
 1892      7369676E 
 1892      65642069 
 1893              	.LASF96:
 1894 0064 65786974 		.ascii	"exitcode\000"
 1894      636F6465 
 1894      00
 1895              	.LASF76:
 1896 006d 6D61696E 		.ascii	"mainthread\000"
 1896      74687265 
 1896      616400
 1897              	.LASF66:
 1898 0078 76697274 		.ascii	"virtual_timers_list_t\000"
 1898      75616C5F 
 1898      74696D65 
 1898      72735F6C 
ARM GAS  /tmp/ccqDZySP.s 			page 35


 1898      6973745F 
 1899              	.LASF121:
 1900 008e 49544D5F 		.ascii	"ITM_RxBuffer\000"
 1900      52784275 
 1900      66666572 
 1900      00
 1901              	.LASF88:
 1902 009b 42445452 		.ascii	"BDTR\000"
 1902      00
 1903              	.LASF49:
 1904 00a0 63685F74 		.ascii	"ch_threads_queue\000"
 1904      68726561 
 1904      64735F71 
 1904      75657565 
 1904      00
 1905              	.LASF29:
 1906 00b1 705F7072 		.ascii	"p_prio\000"
 1906      696F00
 1907              	.LASF85:
 1908 00b8 43434D52 		.ascii	"CCMR1\000"
 1908      3100
 1909              	.LASF86:
 1910 00be 43434D52 		.ascii	"CCMR2\000"
 1910      3200
 1911              	.LASF90:
 1912 00c4 43434D52 		.ascii	"CCMR3\000"
 1912      3300
 1913              	.LASF1:
 1914 00ca 7369676E 		.ascii	"signed char\000"
 1914      65642063 
 1914      68617200 
 1915              	.LASF106:
 1916 00d6 6D5F7175 		.ascii	"m_queue\000"
 1916      65756500 
 1917              	.LASF75:
 1918 00de 76746C69 		.ascii	"vtlist\000"
 1918      737400
 1919              	.LASF73:
 1920 00e5 63685F73 		.ascii	"ch_system\000"
 1920      79737465 
 1920      6D00
 1921              	.LASF7:
 1922 00ef 6C6F6E67 		.ascii	"long int\000"
 1922      20696E74 
 1922      00
 1923              	.LASF18:
 1924 00f8 746D6F64 		.ascii	"tmode_t\000"
 1924      655F7400 
 1925              	.LASF19:
 1926 0100 74737461 		.ascii	"tstate_t\000"
 1926      74655F74 
 1926      00
 1927              	.LASF87:
 1928 0109 43434552 		.ascii	"CCER\000"
 1928      00
 1929              	.LASF10:
 1930 010e 6C6F6E67 		.ascii	"long long int\000"
ARM GAS  /tmp/ccqDZySP.s 			page 36


 1930      206C6F6E 
 1930      6720696E 
 1930      7400
 1931              	.LASF122:
 1932 011c 474E5520 		.ascii	"GNU C 4.8.4 20141219 (release) -mcpu=cortex-m4 -mno"
 1932      4320342E 
 1932      382E3420 
 1932      32303134 
 1932      31323139 
 1933 014f 2D746875 		.ascii	"-thumb-interwork -mthumb -ggdb -O0 -fomit-frame-poi"
 1933      6D622D69 
 1933      6E746572 
 1933      776F726B 
 1933      202D6D74 
 1934 0182 6E746572 		.ascii	"nter -falign-functions=16 -ffunction-sections -fdat"
 1934      202D6661 
 1934      6C69676E 
 1934      2D66756E 
 1934      6374696F 
 1935 01b5 612D7365 		.ascii	"a-sections -fno-common\000"
 1935      6374696F 
 1935      6E73202D 
 1935      666E6F2D 
 1935      636F6D6D 
 1936              	.LASF31:
 1937 01cc 705F6E65 		.ascii	"p_newer\000"
 1937      77657200 
 1938              	.LASF103:
 1939 01d4 735F7175 		.ascii	"s_queue\000"
 1939      65756500 
 1940              	.LASF4:
 1941 01dc 73686F72 		.ascii	"short unsigned int\000"
 1941      7420756E 
 1941      7369676E 
 1941      65642069 
 1941      6E7400
 1942              	.LASF55:
 1943 01ef 725F6E65 		.ascii	"r_newer\000"
 1943      77657200 
 1944              	.LASF43:
 1945 01f7 705F6D70 		.ascii	"p_mpool\000"
 1945      6F6F6C00 
 1946              	.LASF79:
 1947 01ff 72656761 		.ascii	"regarm_t\000"
 1947      726D5F74 
 1947      00
 1948              	.LASF62:
 1949 0208 76745F70 		.ascii	"vt_prev\000"
 1949      72657600 
 1950              	.LASF110:
 1951 0210 6D757465 		.ascii	"mutex_t\000"
 1951      785F7400 
 1952              	.LASF77:
 1953 0218 69646C65 		.ascii	"idle_thread_wa\000"
 1953      5F746872 
 1953      6561645F 
 1953      776100
ARM GAS  /tmp/ccqDZySP.s 			page 37


 1954              	.LASF24:
 1955 0227 636E745F 		.ascii	"cnt_t\000"
 1955      7400
 1956              	.LASF0:
 1957 022d 756E7369 		.ascii	"unsigned int\000"
 1957      676E6564 
 1957      20696E74 
 1957      00
 1958              	.LASF61:
 1959 023a 76745F6E 		.ascii	"vt_next\000"
 1959      65787400 
 1960              	.LASF99:
 1961 0242 77747365 		.ascii	"wtsemp\000"
 1961      6D7000
 1962              	.LASF38:
 1963 0249 705F6D73 		.ascii	"p_msgqueue\000"
 1963      67717565 
 1963      756500
 1964              	.LASF104:
 1965 0254 735F636E 		.ascii	"s_cnt\000"
 1965      7400
 1966              	.LASF83:
 1967 025a 534D4352 		.ascii	"SMCR\000"
 1967      00
 1968              	.LASF46:
 1969 025f 63685F74 		.ascii	"ch_thread\000"
 1969      68726561 
 1969      6400
 1970              	.LASF22:
 1971 0269 6D73675F 		.ascii	"msg_t\000"
 1971      7400
 1972              	.LASF72:
 1973 026f 63685F73 		.ascii	"ch_system_t\000"
 1973      79737465 
 1973      6D5F7400 
 1974              	.LASF92:
 1975 027b 73746D33 		.ascii	"stm32_tim_t\000"
 1975      325F7469 
 1975      6D5F7400 
 1976              	.LASF51:
 1977 0287 63685F72 		.ascii	"ch_ready_list\000"
 1977      65616479 
 1977      5F6C6973 
 1977      7400
 1978              	.LASF23:
 1979 0295 6576656E 		.ascii	"eventmask_t\000"
 1979      746D6173 
 1979      6B5F7400 
 1980              	.LASF6:
 1981 02a1 5F5F696E 		.ascii	"__int32_t\000"
 1981      7433325F 
 1981      7400
 1982              	.LASF112:
 1983 02ab 73745F6C 		.ascii	"st_lld_start_alarm\000"
 1983      6C645F73 
 1983      74617274 
 1983      5F616C61 
ARM GAS  /tmp/ccqDZySP.s 			page 38


 1983      726D00
 1984              	.LASF80:
 1985 02be 73746B61 		.ascii	"stkalign_t\000"
 1985      6C69676E 
 1985      5F7400
 1986              	.LASF37:
 1987 02c9 705F7761 		.ascii	"p_waiting\000"
 1987      6974696E 
 1987      6700
 1988              	.LASF78:
 1989 02d3 73697A65 		.ascii	"sizetype\000"
 1989      74797065 
 1989      00
 1990              	.LASF44:
 1991 02dc 74687265 		.ascii	"thread_reference_t\000"
 1991      61645F72 
 1991      65666572 
 1991      656E6365 
 1991      5F7400
 1992              	.LASF67:
 1993 02ef 63685F76 		.ascii	"ch_virtual_timers_list\000"
 1993      69727475 
 1993      616C5F74 
 1993      696D6572 
 1993      735F6C69 
 1994              	.LASF68:
 1995 0306 76745F6C 		.ascii	"vt_lasttime\000"
 1995      61737474 
 1995      696D6500 
 1996              	.LASF32:
 1997 0312 705F6F6C 		.ascii	"p_older\000"
 1997      64657200 
 1998              	.LASF116:
 1999 031a 7374496E 		.ascii	"stInit\000"
 1999      697400
 2000              	.LASF54:
 2001 0321 725F6374 		.ascii	"r_ctx\000"
 2001      7800
 2002              	.LASF94:
 2003 0327 746D5F63 		.ascii	"tm_calibration_t\000"
 2003      616C6962 
 2003      72617469 
 2003      6F6E5F74 
 2003      00
 2004              	.LASF114:
 2005 0338 74696D65 		.ascii	"time\000"
 2005      00
 2006              	.LASF57:
 2007 033d 725F6375 		.ascii	"r_current\000"
 2007      7272656E 
 2007      7400
 2008              	.LASF56:
 2009 0347 725F6F6C 		.ascii	"r_older\000"
 2009      64657200 
 2010              	.LASF11:
 2011 034f 5F5F7569 		.ascii	"__uint64_t\000"
 2011      6E743634 
ARM GAS  /tmp/ccqDZySP.s 			page 39


 2011      5F7400
 2012              	.LASF20:
 2013 035a 74726566 		.ascii	"trefs_t\000"
 2013      735F7400 
 2014              	.LASF59:
 2015 0362 76697274 		.ascii	"virtual_timer_t\000"
 2015      75616C5F 
 2015      74696D65 
 2015      725F7400 
 2016              	.LASF28:
 2017 0372 705F7072 		.ascii	"p_prev\000"
 2017      657600
 2018              	.LASF21:
 2019 0379 74707269 		.ascii	"tprio_t\000"
 2019      6F5F7400 
 2020              	.LASF70:
 2021 0381 63685F73 		.ascii	"ch_system_debug\000"
 2021      79737465 
 2021      6D5F6465 
 2021      62756700 
 2022              	.LASF111:
 2023 0391 5F426F6F 		.ascii	"_Bool\000"
 2023      6C00
 2024              	.LASF14:
 2025 0397 696E7433 		.ascii	"int32_t\000"
 2025      325F7400 
 2026              	.LASF2:
 2027 039f 756E7369 		.ascii	"unsigned char\000"
 2027      676E6564 
 2027      20636861 
 2027      7200
 2028              	.LASF41:
 2029 03ad 705F6D74 		.ascii	"p_mtxlist\000"
 2029      786C6973 
 2029      7400
 2030              	.LASF3:
 2031 03b7 73686F72 		.ascii	"short int\000"
 2031      7420696E 
 2031      7400
 2032              	.LASF34:
 2033 03c1 705F7374 		.ascii	"p_state\000"
 2033      61746500 
 2034              	.LASF53:
 2035 03c9 725F7072 		.ascii	"r_prio\000"
 2035      696F00
 2036              	.LASF101:
 2037 03d0 65776D61 		.ascii	"ewmask\000"
 2037      736B00
 2038              	.LASF27:
 2039 03d7 705F6E65 		.ascii	"p_next\000"
 2039      787400
 2040              	.LASF13:
 2041 03de 75696E74 		.ascii	"uint8_t\000"
 2041      385F7400 
 2042              	.LASF120:
 2043 03e6 5F5F6675 		.ascii	"__func__\000"
 2043      6E635F5F 
ARM GAS  /tmp/ccqDZySP.s 			page 40


 2043      00
 2044              	.LASF60:
 2045 03ef 63685F76 		.ascii	"ch_virtual_timer\000"
 2045      69727475 
 2045      616C5F74 
 2045      696D6572 
 2045      00
 2046              	.LASF125:
 2047 0400 73745F6C 		.ascii	"st_lld_get_alarm\000"
 2047      6C645F67 
 2047      65745F61 
 2047      6C61726D 
 2047      00
 2048              	.LASF102:
 2049 0411 63685F73 		.ascii	"ch_semaphore\000"
 2049      656D6170 
 2049      686F7265 
 2049      00
 2050              	.LASF91:
 2051 041e 43435852 		.ascii	"CCXR\000"
 2051      00
 2052              	.LASF40:
 2053 0423 705F6570 		.ascii	"p_epending\000"
 2053      656E6469 
 2053      6E6700
 2054              	.LASF15:
 2055 042e 75696E74 		.ascii	"uint32_t\000"
 2055      33325F74 
 2055      00
 2056              	.LASF100:
 2057 0437 77746D74 		.ascii	"wtmtxp\000"
 2057      787000
 2058              	.LASF52:
 2059 043e 725F7175 		.ascii	"r_queue\000"
 2059      65756500 
 2060              	.LASF63:
 2061 0446 76745F64 		.ascii	"vt_delta\000"
 2061      656C7461 
 2061      00
 2062              	.LASF47:
 2063 044f 63685F74 		.ascii	"ch_threads_list\000"
 2063      68726561 
 2063      64735F6C 
 2063      69737400 
 2064              	.LASF9:
 2065 045f 6C6F6E67 		.ascii	"long unsigned int\000"
 2065      20756E73 
 2065      69676E65 
 2065      6420696E 
 2065      7400
 2066              	.LASF117:
 2067 0471 73745374 		.ascii	"stStopAlarm\000"
 2067      6F70416C 
 2067      61726D00 
 2068              	.LASF109:
 2069 047d 63686172 		.ascii	"char\000"
 2069      00
ARM GAS  /tmp/ccqDZySP.s 			page 41


 2070              	.LASF105:
 2071 0482 63685F6D 		.ascii	"ch_mutex\000"
 2071      75746578 
 2071      00
 2072              	.LASF89:
 2073 048b 444D4152 		.ascii	"DMAR\000"
 2073      00
 2074              	.LASF26:
 2075 0490 74687265 		.ascii	"thread_t\000"
 2075      61645F74 
 2075      00
 2076              	.LASF108:
 2077 0499 6D5F6E65 		.ascii	"m_next\000"
 2077      787400
 2078              	.LASF25:
 2079 04a0 73797374 		.ascii	"systime_t\000"
 2079      696D655F 
 2079      7400
 2080              	.LASF42:
 2081 04aa 705F7265 		.ascii	"p_realprio\000"
 2081      616C7072 
 2081      696F00
 2082              	.LASF58:
 2083 04b5 76746675 		.ascii	"vtfunc_t\000"
 2083      6E635F74 
 2083      00
 2084              	.LASF8:
 2085 04be 5F5F7569 		.ascii	"__uint32_t\000"
 2085      6E743332 
 2085      5F7400
 2086              	.LASF71:
 2087 04c9 70616E69 		.ascii	"panic_msg\000"
 2087      635F6D73 
 2087      6700
 2088              	.LASF93:
 2089 04d3 6F666673 		.ascii	"offset\000"
 2089      657400
 2090              	.LASF118:
 2091 04da 73745374 		.ascii	"stStartAlarm\000"
 2091      61727441 
 2091      6C61726D 
 2091      00
 2092              	.LASF81:
 2093 04e7 636F6E74 		.ascii	"context\000"
 2093      65787400 
 2094              	.LASF39:
 2095 04ef 705F6D73 		.ascii	"p_msg\000"
 2095      6700
 2096              	.LASF17:
 2097 04f5 7274636E 		.ascii	"rtcnt_t\000"
 2097      745F7400 
 2098              	.LASF124:
 2099 04fd 73745F6C 		.ascii	"st_lld_stop_alarm\000"
 2099      6C645F73 
 2099      746F705F 
 2099      616C6172 
 2099      6D00
ARM GAS  /tmp/ccqDZySP.s 			page 42


 2100              	.LASF65:
 2101 050f 76745F70 		.ascii	"vt_par\000"
 2101      617200
 2102              	.LASF48:
 2103 0516 74687265 		.ascii	"threads_queue_t\000"
 2103      6164735F 
 2103      71756575 
 2103      655F7400 
 2104              	.LASF123:
 2105 0526 2F686F6D 		.ascii	"/home/efe/ChibiOS/os/hal/src/st.c\000"
 2105      652F6566 
 2105      652F4368 
 2105      6962694F 
 2105      532F6F73 
 2106              	.LASF36:
 2107 0548 705F7265 		.ascii	"p_refs\000"
 2107      667300
 2108              	.LASF74:
 2109 054f 726C6973 		.ascii	"rlist\000"
 2109      7400
 2110              	.LASF119:
 2111 0555 73745365 		.ascii	"stSetAlarm\000"
 2111      74416C61 
 2111      726D00
 2112              	.LASF126:
 2113 0560 73744765 		.ascii	"stGetAlarm\000"
 2113      74416C61 
 2113      726D00
 2114              	.LASF97:
 2115 056b 77746F62 		.ascii	"wtobjp\000"
 2115      6A7000
 2116              	.LASF33:
 2117 0572 705F6E61 		.ascii	"p_name\000"
 2117      6D6500
 2118              	.LASF45:
 2119 0579 74687265 		.ascii	"threads_list_t\000"
 2119      6164735F 
 2119      6C697374 
 2119      5F7400
 2120              	.LASF115:
 2121 0588 61627374 		.ascii	"abstime\000"
 2121      696D6500 
 2122              	.LASF35:
 2123 0590 705F666C 		.ascii	"p_flags\000"
 2123      61677300 
 2124              	.LASF113:
 2125 0598 73745F6C 		.ascii	"st_lld_set_alarm\000"
 2125      6C645F73 
 2125      65745F61 
 2125      6C61726D 
 2125      00
 2126              	.LASF107:
 2127 05a9 6D5F6F77 		.ascii	"m_owner\000"
 2127      6E657200 
 2128              	.LASF30:
 2129 05b1 705F6374 		.ascii	"p_ctx\000"
 2129      7800
ARM GAS  /tmp/ccqDZySP.s 			page 43


 2130              	.LASF64:
 2131 05b7 76745F66 		.ascii	"vt_func\000"
 2131      756E6300 
 2132              		.ident	"GCC: (4.8.4-1+11-1) 4.8.4 20141219 (release)"
ARM GAS  /tmp/ccqDZySP.s 			page 44


DEFINED SYMBOLS
                            *ABS*:0000000000000000 st.c
     /tmp/ccqDZySP.s:19     .text.st_lld_start_alarm:0000000000000000 $t
     /tmp/ccqDZySP.s:24     .text.st_lld_start_alarm:0000000000000000 st_lld_start_alarm
     /tmp/ccqDZySP.s:55     .text.st_lld_stop_alarm:0000000000000000 $t
     /tmp/ccqDZySP.s:60     .text.st_lld_stop_alarm:0000000000000000 st_lld_stop_alarm
     /tmp/ccqDZySP.s:77     .text.st_lld_set_alarm:0000000000000000 $t
     /tmp/ccqDZySP.s:82     .text.st_lld_set_alarm:0000000000000000 st_lld_set_alarm
     /tmp/ccqDZySP.s:104    .text.st_lld_get_alarm:0000000000000000 $t
     /tmp/ccqDZySP.s:109    .text.st_lld_get_alarm:0000000000000000 st_lld_get_alarm
     /tmp/ccqDZySP.s:126    .text.stInit:0000000000000000 $t
     /tmp/ccqDZySP.s:132    .text.stInit:0000000000000000 stInit
     /tmp/ccqDZySP.s:151    .text.stStartAlarm:0000000000000000 $t
     /tmp/ccqDZySP.s:157    .text.stStartAlarm:0000000000000000 stStartAlarm
     /tmp/ccqDZySP.s:180    .text.stStopAlarm:0000000000000000 $t
     /tmp/ccqDZySP.s:186    .text.stStopAlarm:0000000000000000 stStopAlarm
     /tmp/ccqDZySP.s:204    .text.stSetAlarm:0000000000000000 $t
     /tmp/ccqDZySP.s:210    .text.stSetAlarm:0000000000000000 stSetAlarm
     /tmp/ccqDZySP.s:233    .text.stGetAlarm:0000000000000000 $t
     /tmp/ccqDZySP.s:239    .text.stGetAlarm:0000000000000000 stGetAlarm
                     .debug_frame:0000000000000010 $d

UNDEFINED SYMBOLS
st_lld_init
