ARM GAS  /tmp/ccM4pwwM.s 			page 1


   1              		.cpu cortex-m0
   2              		.fpu softvfp
   3              		.eabi_attribute 20, 1
   4              		.eabi_attribute 21, 1
   5              		.eabi_attribute 23, 3
   6              		.eabi_attribute 24, 1
   7              		.eabi_attribute 25, 1
   8              		.eabi_attribute 26, 1
   9              		.eabi_attribute 30, 6
  10              		.eabi_attribute 34, 0
  11              		.eabi_attribute 18, 4
  12              		.code	16
  13              		.file	"st.c"
  14              		.text
  15              	.Ltext0:
  16              		.section	.gnu.lto_.inline.b7e33e2b66cd1952,"",%progbits
  17 0000 789C6362 		.ascii	"x\234cb`b\300\006\366BiN\006\0066V\006\006&\216\011"
  17      6062C006 
  17      F642694E 
  17      06063656 
  17      0606268E 
  18 0015 7E0C2C10 		.ascii	"~\014,\020\265\214\014,\314@\021\226\017z0\021&\014"
  18      B58C0C2C 
  18      CC401196 
  18      0F7A3011 
  18      260C
  19 0027 11660C11 		.ascii	"\021f\014\021\026\006\026\036\240\010\323\002y\2709"
  19      1606161E 
  19      A008D302 
  19      79B839
  20 0036 5C408295 		.ascii	"\\@\202\225\201\225\027U\230\211\033H\260aW\315\216"
  20      81951755 
  20      98891B48 
  20      B06157CD 
  20      8E
  21 0047 5D350776 		.ascii	"]5\007va\006\000mN\011\373"
  21      6106006D 
  21      4E09FB
  22              		.text
  23              		.section	.gnu.lto_st_lld_start_alarm.b7e33e2b66cd1952,"",%progbits
  24 0000 789C6362 		.ascii	"x\234cb`b@\007\"@\\\016\024\266\002q\230\031\030\201"
  24      60624007 
  24      22405C0E 
  24      14B60271 
  24      98191881 
  25 0014 4C462646 		.ascii	"LF&FF \207\221\241\236\211\261>\022\304d`QbX\330\320"
  25      46208791 
  25      A19E89B1 
  25      3E12C464 
  25      60516258 
  26 002a 30E9C1D3 		.ascii	"0\351\301\323u?\031gN9\320\262\240\341\317\377\377\214"
  26      753F1967 
  26      4E39D0B2 
  26      A0E1CFFF 
  26      FF8C
  27 003c 8C9920C9 		.ascii	"\214\231 \311dF\206\010 \213Q\001L1\261\240\232\017"
  27      64468608 
ARM GAS  /tmp/ccM4pwwM.s 			page 2


  27      208B5101 
  27      4C31B1A0 
  27      9A0F
  28 004e D1D8F0F5 		.ascii	"\321\330\360\365I\300\211\206\226\003\377\377\333g2"
  28      49C08986 
  28      9603FFFF 
  28      DB6732
  29 005d 3213A7E7 		.ascii	"2\023\247\347\300\317S\375\222]\013\232&4\374\003\332"
  29      C0CF53FD 
  29      925D0B9A 
  29      2634FC03 
  29      DA
  30 006e 45B45507 		.ascii	"E\264U\007~\235\352\341\232\320\330\321\360\377\177"
  30      7E9DEAE1 
  30      9AD0D8D1 
  30      F0FF7F
  31 007d 3D119AD6 		.ascii	"=\021\232\3263\035x\360\377\377\234\353{\036\357c\024"
  31      331D78F0 
  31      FFFF9CEB 
  31      7B1EEF63 
  31      14
  32 008e 62636400 		.ascii	"bcd\000jab\314e\004\006\005\320\241, .+\003\330\030"
  32      6A6162CC 
  32      65040605 
  32      D0A12C20 
  32      2E2B03D8 
  33 00a3 20DDD2D0 		.ascii	" \335\322\3200A\001l \020\204\200\311PP\2001\237eh\332"
  33      3041016C 
  33      20108480 
  33      C9505080 
  33      319F6568 
  34 00b8 F1031834 		.ascii	"\361\003\0304\211\214K\031Y\031\322\031\031A614t44\200"
  34      898C4B19 
  34      5919D219 
  34      19413631 
  34      34743434 
  35 00cd 6C03CABE 		.ascii	"l\003\312\276k~\005\227dN\007\3519\313p\350\344\004"
  35      6B7E0597 
  35      644E07E9 
  35      39CB70E8 
  35      E404
  36 00df 3E88982E 		.ascii	">\210\230.\303\232\206\226\306\206\310LF\026m\206U "
  36      C39A8696 
  36      C686C84C 
  36      46166D86 
  36      5520
  37 00f1 26309458 		.ascii	"&0\224Xg3\314\002\232\302\0063\015\014\222\2404H\204"
  37      6733CC02 
  37      9AC20633 
  37      0D0C92A0 
  37      344884
  38 0104 1DEE8774 		.ascii	"\035\356\207tP\220\202\334\320\261\036n\013\013\232"
  38      509082DC 
  38      D0B11E6E 
  38      0B0B9A
  39 0113 130EED80 		.ascii	"\023\016\355\200\331\206\260\202\005n\005\013\262\025"
  39      D986B082 
ARM GAS  /tmp/ccM4pwwM.s 			page 3


  39      056E050B 
  39      B215
  40 0121 8C702BC0 		.ascii	"\214p+\300a\0052x\005\302`V\222\014fE6\230\011a0\210"
  40      61053278 
  40      05C26056 
  40      920C6645 
  40      36980961 
  41 0137 7991A1F1 		.ascii	"y\221\241\361\301>U\210^\030\010\001\331\016\222\264"
  41      C13E5588 
  41      5E180801 
  41      D90E92B4 
  42 0147 D0CFC8CF 		.ascii	"\320\317\310\317M\325OMK\325w\316\310L\312\364\017\326"
  42      4DD54F4D 
  42      4BD577CE 
  42      C84CCAF4 
  42      0FD6
  43 0159 CF2FD6CF 		.ascii	"\317/\326\317H\314\321/\310/*)\326\017\016\36156\322"
  43      48CCD12F 
  43      C82F2A29 
  43      D60F0EF1 
  43      3536D2
  44 016c F7F171D1 		.ascii	"\367\361q\321\017\361\364-3\324/.\211\317\311I\321\313"
  44      0FF1F42D 
  44      33D42F2E 
  44      89CFC949 
  44      D1CB
  45 017e 60000093 		.ascii	"`\000\000\223t\240o"
  45      74A06F
  46              		.text
  47              		.section	.gnu.lto_st_lld_stop_alarm.b7e33e2b66cd1952,"",%progbits
  48 0000 789C6362 		.ascii	"x\234cb`b@\007\"@\374\034\210\255@\034f\006F\240\012"
  48      60624007 
  48      2240FC1C 
  48      88AD401C 
  48      660646A0 
  49 0015 46264646 		.ascii	"F&FF \207\221\241\236\211\261>\022\304d`TbX\330\320"
  49      208791A1 
  49      9E89B13E 
  49      12C46460 
  49      546258D8 
  50 002a 30E9C1D3 		.ascii	"0\351\301\323\315?\031gN9\320\262\240\341\317\377\377"
  50      CD3F1967 
  50      4E39D0B2 
  50      A0E1CFFF 
  50      FF
  51 003b 8C8C9920 		.ascii	"\214\214\231 \311dF\206\010 \213Q\001L1\261\240\232"
  51      C9644686 
  51      08208B51 
  51      014C31B1 
  51      A09A
  52 004d BF9EE9C0 		.ascii	"\277\236\351\300\203\377\377\357\334\374\360\350\006"
  52      83FFFFEF 
  52      DCFCF0E8 
  52      06
  53 005a A3101323 		.ascii	"\243\020\023#\003X\013\003+CKC\303\004\005\260f \010"
  53      03580B03 
  53      2B434B43 
ARM GAS  /tmp/ccM4pwwM.s 			page 4


  53      C30405B0 
  53      662008
  54 006d 0193A120 		.ascii	"\001\223\241 \313\231\31724\355\370\001\264&\221q\021"
  54      CB99CF32 
  54      34EDF801 
  54      B4269171 
  54      11
  55 007e 232B433A 		.ascii	"#+C:##\310T\206\206\216\206\006\220\311g\031\016\355"
  55      2323C854 
  55      86868E86 
  55      0690C967 
  55      190EED
  56 0091 B8C00D91 		.ascii	"\270\300\015\221\323fX\325\320\322\330`\237\311\310"
  56      D36658D5 
  56      D0D2D860 
  56      9FC9C8
  57 00a0 3C9B6116 		.ascii	"<\233a\026P\025\013L5\030$Ai\220\0103\210q\221\241\361"
  57      50150B4C 
  57      35182441 
  57      69900833 
  57      887191A1 
  58 00b5 C10D5588 		.ascii	"\301\015U\210^\030\010\001y\025\024*\026\372\031\371"
  58      5E180801 
  58      7915142A 
  58      16FA19F9 
  59 00c5 B9A9FAA9 		.ascii	"\271\251\372\251i\251\372\316\031\231I\231\376\301\372"
  59      69A9FACE 
  59      19994999 
  59      FEC1FA
  60 00d4 F9C5FA19 		.ascii	"\371\305\372\031\2119\372\005\371E%\305\372\301!\276"
  60      8939FA05 
  60      F94525C5 
  60      FAC121BE 
  61 00e4 C646FA3E 		.ascii	"\306F\372>>.\372!\236\276e\206\372\305%\36199)z\031"
  61      3E2EFA21 
  61      9EBE6586 
  61      FAC525F1 
  61      3939297A 
  62 00f9 0C0032B4 		.ascii	"\014\0002\264I\253"
  62      49AB
  63              		.text
  64              		.section	.gnu.lto_st_lld_set_alarm.b7e33e2b66cd1952,"",%progbits
  65 0000 789C6362 		.ascii	"x\234cb`b@\007\"@\354\317\310\300`\005\342030\002U0"
  65      60624007 
  65      2240ECCF 
  65      C8C06005 
  65      E2303330 
  66 0017 32310205 		.ascii	"21\002\005\030\030\031\352\231\030\353#AL\006&%\206"
  66      181819EA 
  66      9918EB23 
  66      414C0626 
  66      2586
  67 0029 850D0D93 		.ascii	"\205\015\015\223\036<\335\365\223q\346\224\003-\013"
  67      1E3CDDF5 
  67      9371E694 
  67      032D0B
  68 0038 1AFEFCFF 		.ascii	"\032\376\374\377\317\310\230\011\222Lfd\210\000\262"
ARM GAS  /tmp/ccM4pwwM.s 			page 5


  68      CFC89809 
  68      924C6664 
  68      8800B2
  69 0047 1815C014 		.ascii	"\030\025\300\024\023\013\252\371\020\215\015_\237\004"
  69      130BAAF9 
  69      108D0D5F 
  69      9F04
  70 0055 9C686839 		.ascii	"\234hh9\360\377\277}&#3!=\353\231\016<\370\377\177\316"
  70      F0FFBF7D 
  70      26233321 
  70      3DEB990E 
  70      3CF8FF7F 
  71 006a DD2D8FDF 		.ascii	"\335-\217\3370\012\26102\000\255ab\314e\004:\017\254"
  71      300AB130 
  71      3200AD61 
  71      62CC6504 
  71      3A0FAC
  72 007d 998195A1 		.ascii	"\231\201\225\241\245\241a\202\002\330\030 \010\001\223"
  72      A5A16182 
  72      02D81820 
  72      080193
  73 008c A120A733 		.ascii	"\241 \2473\237eh\332\361\003\350\310D\306\305\214\254"
  73      9F6568DA 
  73      F103E8C8 
  73      44C6C58C 
  73      AC
  74 009d 0CE98C8C 		.ascii	"\014\351\214\214 \363\031\032:\032\032@v\000e\3375\277"
  74      20F3191A 
  74      3A1A1A40 
  74      760065DF 
  74      35BF
  75 00af 824B32A7 		.ascii	"\202K2\247\203\364\234e8tr\002\037DL\227aMCKcCd&#\213"
  75      83F49C65 
  75      38747202 
  75      1F444C97 
  75      614D434B 
  76 00c9 36C32A10 		.ascii	"6\303*\020\023\350^\326\331\014\263\200\246\260\301"
  76      13E85ED6 
  76      D90CB380 
  76      A6B0C1
  77 00d8 4C038324 		.ascii	"L\003\203$(\015\022a\207\273<\035\344\276\213\014\215"
  77      280D1261 
  77      87BB3C1D 
  77      E4BE8B0C 
  77      8D
  78 00e9 0FDEA842 		.ascii	"\017\336\250B\014\204\201\020P\220\202B\337B?#?7U?5"
  78      0C848110 
  78      50908242 
  78      DF423F23 
  78      3F37553F 
  79 00fe 2D55DF39 		.ascii	"-U\3379#3)\323?X?\277X?#1G\277 \277\250\244X?8\304\327"
  79      233329D3 
  79      3F583FBF 
  79      583F2331 
  79      47BF20BF 
  80 0119 D848DFC7 		.ascii	"\330H\337\307\307E?\304\323\267\314P\277\270$>''E/\203"
  80      C7453FC4 
ARM GAS  /tmp/ccM4pwwM.s 			page 6


  80      D3B7CC50 
  80      BFB8243E 
  80      2727452F 
  81 012e 0100B48E 		.ascii	"\001\000\264\216_v"
  81      5F76
  82              		.text
  83              		.section	.gnu.lto_st_lld_get_alarm.b7e33e2b66cd1952,"",%progbits
  84 0000 789C6362 		.ascii	"x\234cb`b@\007\322@<\211\221\201\301\012\304aa`\004"
  84      60624007 
  84      D2403C89 
  84      9181C10A 
  84      C4616160 
  85 0015 AA606462 		.ascii	"\252`dbd\006\222\314\214@a\006F\206z&f\306\372H\020"
  85      640692CC 
  85      8C406106 
  85      46867A26 
  85      66C6FA48 
  86 002a 9B815989 		.ascii	"\233\201Y\211aaC\303\254\007O\367\317\224\350Z\3208"
  86      616143C3 
  86      AC074FF7 
  86      CF94E85A 
  86      D038
  87 003c A1E1DFFF 		.ascii	"\241\341\337\377\377\214\231 \251dF\206\010 \213Q\000"
  87      FF8C9920 
  87      A9644686 
  87      08208B51 
  87      00
  88 004d 4C31A1D9 		.ascii	"L1\241\331\003\3266\251a\362\323\200\023\015-\007\376"
  88      03D636A9 
  88      61F2D380 
  88      130D2D07 
  88      FE
  89 005e FFB7CF04 		.ascii	"\377\267\317\004\331\000\323\243\000\321\303\202U\317"
  89      D900D3A3 
  89      00D1C382 
  89      55CF
  90 006c 5C243D2C 		.ascii	"\\$=,\204\364\254g:\360\340\377\377;\367\027<\356`\024"
  90      84F4AC67 
  90      3AF0E0FF 
  90      FF3BF717 
  90      3CEE6014 
  91 0080 66616400 		.ascii	"fad\000Z\303\004$X\230\031\300\216d`ehih\230\240\000"
  91      5AC30424 
  91      589819C0 
  91      8E646065 
  91      68696898 
  92 0096 36060842 		.ascii	"6\006\010B\300d(\310\317\314g\031\232v\374\330\177\222"
  92      C06428C8 
  92      CFCC6719 
  92      9A76FCD8 
  92      7F92
  93 00a8 25917109 		.ascii	"%\221q\011#+C:##\310|\346\206\216\206\006\220\035g\031"
  93      232B433A 
  93      2323C87C 
  93      E6868E86 
  93      06901D67 
  94 00bd 0EDDB920 		.ascii	"\016\335\271 \014\223c\322eX\323\320\002\224g\325fX"
ARM GAS  /tmp/ccM4pwwM.s 			page 7


  94      0C9363D2 
  94      6558D3D0 
  94      029467D5 
  94      6658
  95 00cf D5D0D2D8 		.ascii	"\325\320\322\3300\031\310f\233\3150\013H\261\303\264"
  95      3019C866 
  95      9BCD300B 
  95      48B1C3B4 
  96 00df 821D94C4 		.ascii	"\202\035\224\304\010q\030H\204\003\311\241@\333\336"
  96      08711848 
  96      8403C9A1 
  96      40DBDE
  97 00ee 35F3C1CC 		.ascii	"5\363\301\314cNg\204\006X(H\037\363i\206F\240\342\024"
  97      634E6784 
  97      06582848 
  97      1FF36986 
  97      46A0E214 
  98 0102 90DE8B0C 		.ascii	"\220\336\213\014\214pU\020%!\240h\001)\267\320\317\310"
  98      8C705510 
  98      2521A068 
  98      0129B7D0 
  98      CFC8
  99 0114 CF4DD54F 		.ascii	"\317M\325OMK\325w\316\310L\312\364\017\326\317/\326"
  99      4D4BD577 
  99      CEC84CCA 
  99      F40FD6CF 
  99      2FD6
 100 0126 CF48CCD1 		.ascii	"\317H\314\321/\310/*)\326\017\016\36156\322\367\361"
 100      2FC82F2A 
 100      29D60F0E 
 100      F13536D2 
 100      F7F1
 101 0138 71D10FF1 		.ascii	"q\321\017\361\364-3\324/.\211\317\311I\321\313`\000"
 101      F42D33D4 
 101      2F2E89CF 
 101      C949D1CB 
 101      6000
 102 014a 00776168 		.ascii	"\000wahm"
 102      6D
 103              		.text
 104              		.section	.gnu.lto_stInit.b7e33e2b66cd1952,"",%progbits
 105 0000 789C6362 		.ascii	"x\234cb`b@\007\"@\\\014\304* \0163\003#P\005#\023##"
 105      60624007 
 105      22405C0C 
 105      C42A200E 
 105      33032350 
 106 0019 90C3C850 		.ascii	"\220\303\310P\317\304X\037\311\010V\266\236\351\300"
 106      CFC4581F 
 106      C90856B6 
 106      9EE9C0
 107 0028 83FFFFD7 		.ascii	"\203\377\377\327\375X\373\260\036,\311\312\320\322\320"
 107      FD58FBB0 
 107      1E2CC9CA 
 107      D0D2D0
 108 0037 30418181 		.ascii	"0A\201\201!\031,\037\002&CA\272\231\31734?\370g\223"
 108      21192C1F 
 108      02264341 
ARM GAS  /tmp/ccM4pwwM.s 			page 8


 108      BA99CF33 
 108      343FF867 
 109 004c C8B89091 		.ascii	"\310\270\220\221\025(V\315\360\253\241\243A \223\021"
 109      152856CD 
 109      F0ABA1A3 
 109      41209311 
 110 005c A8126254 		.ascii	"\250\022bT&\210\276\310\320\370\340?\023L\021\004\204"
 110      2688BEC8 
 110      D0F8E03F 
 110      134C1104 
 110      84
 111 006d 8024402E 		.ascii	"\200$@.T\322\317\310\317M\325OMK\325w\316\310L\312\364"
 111      54D2CFC8 
 111      CF4DD54F 
 111      4D4BD577 
 111      CEC84CCA 
 112 0082 0FD6CF2F 		.ascii	"\017\326\317/\326\317H\314\321/.J\326/.\321Kf\000\000"
 112      D6CF48CC 
 112      D12F2E4A 
 112      D62F2ED1 
 112      4B660000 
 113 0096 295B2654 		.ascii	")[&T"
 114              		.text
 115              		.section	.gnu.lto_stStartAlarm.b7e33e2b66cd1952,"",%progbits
 116 0000 789C6362 		.ascii	"x\234cb`b@\007\322@|\000\210U@\034\026\006F\240\012"
 116      60624007 
 116      D2407C00 
 116      8855401C 
 116      160646A0 
 117 0015 46264666 		.ascii	"F&Ff \311\314\310\010\024bd\250gbf\254\217\004\261\031"
 117      20C9CCC8 
 117      08146264 
 117      A8676266 
 117      AC8F04B1 
 118 002a 98941816 		.ascii	"\230\224\030\02664Lz\360\364\371\014\361\256\007\015"
 118      36344C7A 
 118      F0F4F90C 
 118      F1AE070D 
 119 003a 131AFEFD 		.ascii	"\023\032\376\375\377\317\230\011\222Jfd\210\000\262"
 119      FFCF9809 
 119      924A6664 
 119      8800B2
 120 0049 1839C014 		.ascii	"\0309\300\024\023#\252%\271\214\014\353\231\016<\370"
 120      1323AA25 
 120      B98C0CEB 
 120      990E3CF8 
 121 0059 FFFFCEE6 		.ascii	"\377\377\316\346\035\217V1\012212\346\202Mgehih\230"
 121      1D8F5631 
 121      0A323132 
 121      E6824D67 
 121      65686968 
 122 006e A0900B35 		.ascii	"\240\220\0135\002\010B\240$\320\035\314\241 w0\237g"
 122      020842A0 
 122      24D01DCC 
 122      A1207730 
 122      9F67
 123 0080 6879B072 		.ascii	"hy\260r1w\"\343\"FV\240T5\303\257\206\216\006\201LF"
ARM GAS  /tmp/ccM4pwwM.s 			page 9


 123      317722E3 
 123      224656A0 
 123      5435C3AF 
 123      868E0681 
 124 0096 E6644688 		.ascii	"\346dF\2105\351\214@+Y\030\030.24>X\245\014S\007\001"
 124      35E98C40 
 124      2B591818 
 124      2E32343E 
 124      58A50C53 
 125 00ac 21203520 		.ascii	"! 5 _+\351g\344\347\246\352\247\246\245\352;gd&e\372"
 125      5F2BE967 
 125      E4E7A6EA 
 125      A7A6A5EA 
 125      3B676426 
 126 00c2 07EBE717 		.ascii	"\007\353\347\027\353g$\346\350\027\027%\353\027\227"
 126      EB6724E6 
 126      E8171725 
 126      EB1797
 127 00d1 E8253300 		.ascii	"\350%3\000\000\22386\362"
 127      00933836 
 127      F2
 128              		.text
 129              		.section	.gnu.lto_stStopAlarm.b7e33e2b66cd1952,"",%progbits
 130 0000 789C6362 		.ascii	"x\234cb`b@\007\"@\\\006\304* \0163\003#P\005#\023##"
 130      60624007 
 130      22405C06 
 130      C42A200E 
 130      33032350 
 131 0019 90C3C850 		.ascii	"\220\303\310P\317\304X\037\311\010V\266\236\351\300"
 131      CFC4581F 
 131      C90856B6 
 131      9EE9C0
 132 0028 83FFFFD7 		.ascii	"\203\377\377\327}k\233\363\206q6\023H\214\225\241\245"
 132      7D6B9BF3 
 132      86713613 
 132      488C95A1 
 132      A5
 133 0039 A1618202 		.ascii	"\241a\202\002\003C2XE\010\230\014\005\351g>\317\320"
 133      03433258 
 133      4508980C 
 133      05E9673E 
 133      CFD0
 134 004b FC606F33 		.ascii	"\374`o3w\"\343BFV\240`5\303\257\206\216\006\201LF\240"
 134      7722E342 
 134      4656A060 
 134      35C3AF86 
 134      8E06814C 
 135 0061 52886999 		.ascii	"R\210i\231 \372\"C\343\203}\3120E\020\020\002\222\000"
 135      20FA2243 
 135      E3837DCA 
 135      30451010 
 135      029200
 136 0074 3952493F 		.ascii	"9RI?#?7U?5-U\3379#3)\323?X?\277X?#1G\277\270(Y\277\270"
 136      233F3755 
 136      3F352D55 
 136      DF392333 
 136      29D33F58 
ARM GAS  /tmp/ccM4pwwM.s 			page 10


 137 0095 442F9901 		.ascii	"D/\231\001\000\240\260&\344"
 137      00A0B026 
 137      E4
 138              		.text
 139              		.section	.gnu.lto_stSetAlarm.b7e33e2b66cd1952,"",%progbits
 140 0000 789C6362 		.ascii	"x\234cb`b@\007\322@\374\005\210U@\034\026\006F\240\012"
 140      60624007 
 140      D240FC05 
 140      8855401C 
 140      160646A0 
 141 0015 46264666 		.ascii	"F&Ff \311\314\310\010\024bd\250gbf\254\217\004\261\031"
 141      20C9CCC8 
 141      08146264 
 141      A8676266 
 141      AC8F04B1 
 142 002a 98951816 		.ascii	"\230\225\030\02664Lz\360\364\333\014\361\256\007\015"
 142      36344C7A 
 142      F0F4DB0C 
 142      F1AE070D 
 143 003a 131AFEFD 		.ascii	"\023\032\376\375\377\317\230\011\222Jfd\210\000\262"
 143      FFCF9809 
 143      924A6664 
 143      8800B2
 144 0049 1839C014 		.ascii	"\0309\300\024\023#\252%\020m\015\353V40/h\370\363\377"
 144      1323AA25 
 144      106D0DEB 
 144      5634302F 
 144      68F8F3FF 
 145 005d 3F33117A 		.ascii	"?3\021zr\031\031\3263\035x\360\377\377\234\335\033\036"
 145      721919D6 
 145      331D78F0 
 145      FFFF9CDD 
 145      1B1E
 146 006f DD631464 		.ascii	"\335c\024dbd\314\005\273\210\225\241\245\241a\202B."
 146      6264CC05 
 146      BB8895A1 
 146      A5A16182 
 146      422E
 147 0081 D4082008 		.ascii	"\324\010 \010\201\222@\2673\207\202\334\316|\236\241"
 147      819240B7 
 147      338782DC 
 147      CE7C9EA1 
 148 0091 E5C1DDC7 		.ascii	"\345\301\335\307\\\211\214\213\031Y\201R\325\014\277"
 148      5C898C8B 
 148      19598152 
 148      D50CBF
 149 00a0 1A3A1A04 		.ascii	"\032:\032\0042\031\231\223\031!\326\2443\002\255da`"
 149      32199993 
 149      1921D6A4 
 149      3302AD64 
 149      6160
 150 00b2 B8C8D0F8 		.ascii	"\270\310\320\370\340\2362L\035\004\204\200\324\200B"
 150      E09E324C 
 150      1D048480 
 150      D48042
 151 00c1 4A493F23 		.ascii	"JI?#?7U?5-U\3379#3)\323?X?\277X?#1G\277\270(Y\277\270"
 151      3F37553F 
ARM GAS  /tmp/ccM4pwwM.s 			page 11


 151      352D55DF 
 151      39233329 
 151      D33F583F 
 152 00e1 442F9901 		.ascii	"D/\231\001\000d\303B\376"
 152      0064C342 
 152      FE
 153              		.text
 154              		.section	.gnu.lto_stGetAlarm.b7e33e2b66cd1952,"",%progbits
 155 0000 789C8D50 		.ascii	"x\234\215P=K\003A\020\235\267{\201\220*V\266rX\273\265"
 155      3D4B0341 
 155      109DB77B 
 155      81902A56 
 155      B67258BB 
 156 0015 B53FC0C2 		.ascii	"\265?\300\302\004\264\214\347\351-x\004<;\213\033QP"
 156      04B48CE7 
 156      E92D7804 
 156      3C3B8B1B 
 156      5150
 157 0027 C4225889 		.ascii	"\304\"X\211X(XX\351O0\275\205\361\037\234\205\275u0"
 157      58285858 
 157      E94F30BD 
 157      85F11F9C 
 157      85BD7530 
 158 003b B7CEDE45 		.ascii	"\267\316\336E\213\253\034\330\371\340\2757\037\253H"
 158      8BAB1CD8 
 158      F9E0BD37 
 158      1FAB48
 159 004a 51D34279 		.ascii	"Q\323By\253 Z\366E\213 \014(h\361\032\201\370\000\002"
 159      AB205AF6 
 159      458B200C 
 159      2868F11A 
 159      81F80002 
 160 005e 1228573A 		.ascii	"\022(W:@\276\345\013\012B\272g\276*>\313\353\305\213"
 160      40BEE50B 
 160      0A42BA67 
 160      BE2A3ECB 
 160      EBC58B
 161 0071 82475C3A 		.ascii	"\202G\\:\007\353\241\010\264)\031\332UPh\316\3622~z"
 161      07EBA108 
 161      B42919DA 
 161      555068CE 
 161      F2327E7A 
 162 0085 647DC7DF 		.ascii	"d}\307\337\316\351\377jn\306\323\263\313\316\204\317"
 162      CEE9FF6A 
 162      6EC6D3B3 
 162      CBCE84CF 
 163 0095 D9B9DCFA 		.ascii	"\331\271\334\372\355~E\335Z\324\270+\005=\253q\341\334"
 163      ED7E45DD 
 163      5AD4B82B 
 163      053DAB71 
 163      E1DC
 164 00a7 EDCBD747 		.ascii	"\355\313\327G\211\005iZ\251\344\300S\346\321R:\237+"
 164      8905695A 
 164      A9E4C053 
 164      E6D1523A 
 164      9F2B
 165 00b9 D69B7BE9 		.ascii	"\326\233{\351\240\373\236\243\337\350\244\230E\003<"
ARM GAS  /tmp/ccM4pwwM.s 			page 12


 165      A0FB9EA3 
 165      DFE8A498 
 165      45033C
 166 00c8 A0457BC0 		.ascii	"\240E{\300\021Men\327\"\210P\357f\005\250\254\357\177"
 166      114D656E 
 166      D7228850 
 166      EF6605A8 
 166      ACEF7F
 167 00db 48BFD271 		.ascii	"H\277\322q\233h\307\203\357\204?]M\351\371\304o\027"
 167      9B68C783 
 167      EF843F5D 
 167      4DE9F9C4 
 167      6F17
 168 00ed 9A6498C6 		.ascii	"\232d\230\306&\336\215\315Zb\267\355\372\206\031f&\031"
 168      26DE8DCD 
 168      5A62B7ED 
 168      FA861966 
 168      2619
 169 00ff EC9BEC20 		.ascii	"\354\233\354 2\331\341JD?x\327N\360"
 169      32D9E14A 
 169      443F78D7 
 169      4EF0
 170              		.text
 171              		.section	.gnu.lto_.symbol_nodes.b7e33e2b66cd1952,"",%progbits
 172 0000 789C4DC7 		.ascii	"x\234M\307\271\015\203P\024D\321\231\367Y\253\001\334"
 172      B90D8350 
 172      1444D199 
 172      F759AB01 
 172      DC
 173 0011 912B1904 		.ascii	"\221+\031\004\011!\011k+\356\301\241cW\202,\363\221"
 173      0921096B 
 173      2BEEC1A1 
 173      6357822C 
 173      F391
 174 0023 7837B93A 		.ascii	"x7\271:\006\303\013WV\011\030\337\2004\015O\253E\247"
 174      06C30B57 
 174      560918DF 
 174      80340D4F 
 174      AB45A7
 175 0036 46E6F450 		.ascii	"F\346\364Pp\232\250\344\342g\240\315T\352\270P\231\343"
 175      709AA8E4 
 175      E267A0CD 
 175      54EAB850 
 175      99E3
 176 0048 4AE58E1B 		.ascii	"J\345\216\033U\334\344N\225\221m\313\220\224\350\277"
 176      55DCE44E 
 176      95916DCB 
 176      9094E8BF 
 177 0058 07430A74 		.ascii	"\007C\012t\377g\214\317-\276\010\347\361\003(0;Z"
 177      FF678CCF 
 177      2DBE08E7 
 177      F1032830 
 177      3B5A
 178              		.text
 179              		.section	.gnu.lto_.refs.b7e33e2b66cd1952,"",%progbits
 180 0000 789C6362 		.ascii	"x\234cb`b`d\200\002\000\000F\000\006"
 180      60626064 
ARM GAS  /tmp/ccM4pwwM.s 			page 13


 180      80020000 
 180      460006
 181              		.text
 182              		.section	.gnu.lto_.decls.b7e33e2b66cd1952,"",%progbits
 183 0000 789CB558 		.ascii	"x\234\265X}l\024E\024\237\331;\332\353\007\245\324h"
 183      7D6C1445 
 183      149FD93B 
 183      DAEB07A5 
 183      D468
 184 0012 EA1F8413 		.ascii	"\352\037\204\023\305\020\242\234\005\305\257\204\200"
 184      C510A29C 
 184      05C5AF84 
 184      80
 185 001f 070112AB 		.ascii	"\007\001\022\253\344\012I\023\3778\226r\330K\256\037"
 185      E40A4913 
 185      FF389672 
 185      D84BAE1F 
 186 002f F6B61AFE 		.ascii	"\366\266\032\376rZ\312G0j\005\253m\025h\021b\211\001"
 186      725ACA47 
 186      306A05AB 
 186      6D156811 
 186      628901
 187 0042 9B820769 		.ascii	"\233\202\007iM\331\"Rk\203\324\326\240mcr~4\306\030"
 187      4DD92252 
 187      6B83D4D6 
 187      A06D6372 
 187      7E34C618 
 188 0056 63946083 		.ascii	"c\224`\203\240\347\233\331\331\333\335\351n\3313q\223"
 188      A0E79BD9 
 188      D9DBDDE9 
 188      6ED93371 
 188      93
 189 0067 F7FA76EE 		.ascii	"\367\372v\356\275\337\374\336\233\267\263\263\225\220"
 189      BDDFFCDE 
 189      9BB7B3B3 
 189      9590
 190 0075 84BA2484 		.ascii	"\204\272$\204Rp\335}'B{\300\316E\010\255B\306E\357;"
 190      5270DD7D 
 190      27427BC0 
 190      CE4508AD 
 190      42C645EF 
 191 008a 417A4012 		.ascii	"Az@\022 \275 \375 \003 \227@\206@.\203\214\240\231\027"
 191      20BD20FD 
 191      20032097 
 191      4086402E 
 191      838CA099 
 192 009f 8DF3818C 		.ascii	"\215\363\201\214\202\024\200\344\203d\203\214\203\374"
 192      821480E4 
 192      8364838C 
 192      83FC
 193 00ad 053206E2 		.ascii	"\0052\006\342\005\361\200\334\000\371\011d\012\004\363"
 193      05F180DC 
 193      00F90964 
 193      0A04F3
 194 00bc 58FAF743 		.ascii	"X\372\367C\001\223\362\230#`\216s,l\212\357\261\341"
 194      0193F298 
 194      23608E73 
ARM GAS  /tmp/ccM4pwwM.s 			page 14


 194      2C6C8AEF 
 194      B1E1
 195 00ce 9370C907 		.ascii	"\223p\311\007s>\230\307\320\277\347\004,Z\207\034\220"
 195      733E98C7 
 195      D0BFE704 
 195      2C5A871C 
 195      90
 196 00df 6326AC51 		.ascii	"c&\254Q\027x\275\374\357\\l\305\2435\225(\026\214\237"
 196      1778BDFC 
 196      EF5C6CC5 
 196      A3359528 
 196      168C9F
 197 00f2 E663121F 		.ascii	"\346c\022\037\267\253\355\000\257\303<l\314_\004\366"
 197      B7ABED00 
 197      AFC33C6C 
 197      CC5F04F6 
 198 0102 51532CF5 		.ascii	"QS,\365\351\344\366\035\360\333'\002\306%\2079\351\270"
 198      E9E4F61D 
 198      F0DB2702 
 198      C6258739 
 198      E9B8
 199 0114 5DFD865C 		.ascii	"]\375\206\\\314I}\022\334^\000\277\015\013\030\264W"
 199      CC497D12 
 199      DC5E00BF 
 199      0D0B18B4 
 199      57
 200 0125 B2040C5A 		.ascii	"\262\004\014Z\303Ep\337g\302\241~\275\334\276\027~["
 200      C34570DF 
 200      67C2A17E 
 200      BDDCBE17 
 200      7E5B
 201 0137 2CD46B21 		.ascii	",\324k!:L\324\221\344\361S\337ImDm\"\320\302\004\373"
 201      3A4CD491 
 201      E4F153DF 
 201      496D446D 
 201      22D0C204 
 202 014c EF422D04 		.ascii	"\357B-\004\256\216=\204`E\306\253\356D\345X\306\005"
 202      AE8E3D84 
 202      6045C6AB 
 202      EE44E558 
 202      C605
 203 015e 39C8CF8C 		.ascii	"9\310\317\214\374\034\266\036\010\311\370(\276\213Y"
 203      FC1CB61E 
 203      08C9F828 
 203      BE8B59
 204 016d 1E36032C 		.ascii	"\0366\003,\345>B\032\011\331C\226t\001-\036U\250GQ\237"
 204      E53E421A 
 204      09D94396 
 204      74012D1E 
 204      55A84751 
 205 0182 C5E81821 		.ascii	"\305\350\030!\315\311\351\217\306$B|2>\206\351x\024"
 205      CDC9E98F 
 205      C624427C 
 205      323E86E9 
 205      7814
 206 0194 A3A5E804 		.ascii	"\243\245\350\004\314\331L\310\367O\010$Qf\320\327\367"
 206      CCD94CC8 
ARM GAS  /tmp/ccM4pwwM.s 			page 15


 206      F74F0824 
 206      5166D0D7 
 206      F7
 207 01a5 9E7D8041 		.ascii	"\236}\200Aw1\350V\214\201\350\373xi\306@\007\207O>\316"
 207      7731E856 
 207      8C81E8FB 
 207      7869C640 
 207      07874F3E 
 208 01ba 803E6040 		.ascii	"\200>`@W\004 \031{r\314\014\331\275\356@\321\330\317"
 208      57042019 
 208      7B72CC0C 
 208      D9BDEE40 
 208      D1D8CF
 209 01cd DC48A53C 		.ascii	"\334H\245<\350\177t\226\361\026#DB\023\002\325\373\320"
 209      E87F7496 
 209      F1162344 
 209      421302D5 
 209      FBD0
 210 01df 7B841C80 		.ascii	"{\204\034\200e\036\312j%\252\244W\375W\346\326\211\027"
 210      651ECA6A 
 210      25AAA457 
 210      FD57E6D6 
 210      8917
 211 01f1 DA5641F3 		.ascii	"\332VA\363\202\353~t\234\266\3038\331T\314\232\001\361"
 211      82EB7E74 
 211      9CB6C338 
 211      D954CC9A 
 211      01F1
 212 0203 200BC353 		.ascii	" \013\303SX\232\331Xj\373p~sC2\225:\322Q\350\276\251"
 212      589AD958 
 212      6AFB707E 
 212      73433295 
 212      3AD251E8 
 213 0219 4EF3A632 		.ascii	"N\363\2462\222\222\320\037BFiV\244\213x\322\254zDVg"
 213      9292D01F 
 213      42466956 
 213      A48B78D2 
 213      AC7A4456 
 214 022e 6C598D1A 		.ascii	"lY\215\032\254\264\026\226P\223dW1r^^\242\225A\306\335"
 214      ACB41696 
 214      50936457 
 214      31725E5E 
 214      A29541C6 
 215 0243 0025E3C4 		.ascii	"\000%\343\304\177)VB\244u\326\226\326\315\341w\357&"
 215      7F295642 
 215      A475D696 
 215      D6CDE177 
 215      EF26
 216 0255 1D8D6A2A 		.ascii	"\035\215j*u^\365#\241^\024\336\251`}6\005k\221l\013"
 216      755EF523 
 216      A15E14DE 
 216      A9607D36 
 216      056B916C 
 217 026a D648BABB 		.ascii	"\326H\272\273\310\034\235\255\214{\035\362\341x\037"
 217      C81C9DAD 
 217      8C7B1DF2 
 217      E1781F
ARM GAS  /tmp/ccM4pwwM.s 			page 16


 218 0279 CF24DAA1 		.ascii	"\317$\332\241&\017\035\354\3172\266\013\276b\022\032"
 218      260F1DEC 
 218      CF32B60B 
 218      BE62121A 
 219 0289 B29F5258 		.ascii	"\262\237RX\243~\261\030\347g\316\221\034Q{/\3615\362"
 219      A37EB118 
 219      E767CE91 
 219      1C517B2F 
 219      F135F2
 220 029c EB4B3462 		.ascii	"\353K4b\277D7\267.\321\373\371[\3461\340r\211^%\273"
 220      BF4437B7 
 220      2ED1FBF9 
 220      5BE631E0 
 220      72895E25 
 221 02b1 0B719AD6 		.ascii	"\013q\232\326\200H\353\202-\255?M\264\264\254\247\\"
 221      8048EB82 
 221      2DAD3F4D 
 221      B4B4ACA7 
 221      5C
 222 02c2 657D4984 		.ascii	"e}I\204\037\264\205\357\031\024\263\376\335>\353\351"
 222      1FB485EF 
 222      1914B3FE 
 222      DD3EEBE9 
 223 02d2 ADE9C6BC 		.ascii	"\255\351\306\274\310\032s\350?e=$\322\372\334\226\326"
 223      C81A73E8 
 223      3F653D24 
 223      D2FADC96 
 223      D6
 224 02e3 B5C157F5 		.ascii	"\265\301W\365\316\\\315\373MB\267\334u\330\345\331;"
 224      CE5CCDFB 
 224      4D42B7DC 
 224      75D8E5D9 
 224      3B
 225 02f4 EC0B9B09 		.ascii	"\354\013\233\011\233\223S\377\250\270\215\\\240\035"
 225      9B9353FF 
 225      A8B88D5C 
 225      A01D
 226 0302 F672BABF 		.ascii	"\366r\272\277\366z\304\0115\210/\255\020yh?e\001\017"
 226      F67AC409 
 226      35882FAD 
 226      1079683F 
 226      65010F
 227 0315 CE86CF0A 		.ascii	"\316\206\317\012\212\320\0334k\377g\306VO\262t\032["
 227      8AD01B34 
 227      6BFF67C6 
 227      564FB274 
 227      1A5B
 228 0327 517AAFFF 		.ascii	"Qz\257\377\272}z%\333\353\307p\021\335\353\205\251n"
 228      BA7D7A25 
 228      DBEBC770 
 228      11DDEB85 
 228      A96E
 229 0339 0B43795C 		.ascii	"\013Cy\\\205P-\210\201\022\365\340d>\361j\343\310\206"
 229      85502D88 
 229      8112F5E0 
 229      643EF16A 
 229      E3C886
ARM GAS  /tmp/ccM4pwwM.s 			page 17


 230 034c 39BFEE41 		.ascii	"9\277\356A\035\244i\227\3322I\237\376\013\230\275\237"
 230      1DA46997 
 230      DA32499F 
 230      FE0B98BD 
 230      9F
 231 035d 7671FAC8 		.ascii	"vq\372\310\366\231O\277\350>\035\300\360&\303\374\225"
 231      F6994FBF 
 231      E83E1DC0 
 231      F026C3FC 
 231      95
 232 036e 365B888C 		.ascii	"6[\210\214'\360b\320\331\326\027Iv\216a\320\363\353"
 232      27F062D0 
 232      D9D61749 
 232      768E61D0 
 232      F3EB
 233 0380 3CBA754C 		.ascii	"<\272uLzl\337\230.\030\035\034\276\370\006\336\005\214"
 233      7A6CDF98 
 233      2E181D1C 
 233      BEF806DE 
 233      058C
 234 0392 64FC2D7B 		.ascii	"d\374-{\"\177\364\210\357\314l\341\235y{B\031\272K\350"
 234      227FF488 
 234      EFCC6CE1 
 234      9D797B42 
 234      19BA4BE8 
 235 03a6 373629AD 		.ascii	"76)\255\272\035Unj\027w\260\254D\362\352\304\024\333"
 235      BA1D556E 
 235      6A1777B0 
 235      AC44F2EA 
 235      C414DB
 236 03b9 DEE0E91D 		.ascii	"\336\340\351\035gY\\\313\030\320oY\332\326\311\374f"
 236      67595CCB 
 236      18D06F59 
 236      DAD6C9FC 
 236      66
 237 03ca 59079B76 		.ascii	"Y\007\233v\003\346sd\247\266\233\301ne\014fe\366\256"
 237      03E67364 
 237      A7B69BC1 
 237      6E650C66 
 237      65F6AE
 238 03dd 19ACC1EB 		.ascii	"\031\254\301\353\002\254\320\231\331a3XS\306`Vf\335"
 238      02ACD099 
 238      D9613358 
 238      53C66056 
 238      66DD
 239 03ef 66B07D6E 		.ascii	"f\260}n\300\212\235\231\365\230\301^\313\030\314\312"
 239      C08A9D99 
 239      F598C15E 
 239      CB18CCCA 
 240 03ff EC8C19EC 		.ascii	"\354\214\031\354M7`~gf\0113X[\306`Vf\347\314`\207\334"
 240      4D37607E 
 240      67660933 
 240      585BC660 
 240      5666E7CC 
 241 0416 802D7166 		.ascii	"\200-qf\326k\006\353\314\030\314\312\354c3\330q7`\017"
 241      D66B06EB 
 241      CC18CCCA 
ARM GAS  /tmp/ccM4pwwM.s 			page 18


 241      EC6333D8 
 241      7137600F 
 242 042a 39316B50 		.ascii	"91kP\373\237k\226\347\243f\276!k\250\372\246\214\255"
 242      FB9F6B96 
 242      E7A366BE 
 242      216BA8FA 
 242      A68CAD
 243 043d AD65769B 		.ascii	"\255ev\233tv\223\361M<\237Yl\257#|\257c\036N\207\256"
 243      747693F1 
 243      4D3C9F59 
 243      6CAF237C 
 243      AF631E4E 
 244 0453 5BDA6BD5 		.ascii	"[\332k\325x\374\271a>\272\033^\220\366\0111m+\013\273"
 244      78FCB961 
 244      3EBA1B5E 
 244      90F60931 
 244      6D2B0BBB 
 245 0467 BCAD451C 		.ascii	"\274\255E\0341\027\361\244\233\"\256v\006\0335\203\365"
 245      3117F1A4 
 245      9B22AE76 
 245      061B3583 
 245      F5
 246 0478 B801DBE0 		.ascii	"\270\001\333\340\334+_\231\301\022\031\203Y\231]5\203"
 246      DC2B5F99 
 246      C1121983 
 246      59995D35 
 246      83
 247 0489 F5B901DB 		.ascii	"\365\271\001\333\344\314\354\0333X\177\306`ff\015\352"
 247      E4CCEC1B 
 247      33587FC6 
 247      6066660D 
 247      EA
 248 049a 84D1781D 		.ascii	"\204\321x\035\253\205\316[m\335m-n\223\216n2\336/e\332"
 248      AB85CE5B 
 248      6DDD6D2D 
 248      6E938E6E 
 248      32DE2F65 
 249 04af 78AF48F6 		.ascii	"x\257H\366\215g\376j6\274 \355\213b\332\026\022\334"
 249      8D67FE6A 
 249      36BC20ED 
 249      8B62DA16 
 249      12DC
 250 04c1 2CB7A9A1 		.ascii	",\267\251\241\335e>\346\310\370kv\250\370\006\337\003"
 250      DD653EE6 
 250      C8F86B76 
 250      A8F806DF 
 250      03
 251 04d2 FA3BA67F 		.ascii	"\372;\246\177`z\212\351\237\230\376\231\351_\230\376"
 251      607A8AE9 
 251      9F98FE99 
 251      E95F98FE 
 252 04e2 95E9DF98 		.ascii	"\225\351\337\230\376\235\351kL_gz\232\351\033L\377\303"
 252      FE9DE96B 
 252      4C5F677A 
 252      9AE91B4C 
 252      FFC3
 253 04f4 3491A86E 		.ascii	"4\221\250nd\272\211\351=L\357\003\235\276\234\0125\212"
ARM GAS  /tmp/ccM4pwwM.s 			page 19


 253      64BA89E9 
 253      3D4CEF03 
 253      9DBE9C0A 
 253      358A
 254 0506 F374173F 		.ascii	"\363t\027?:\002\305M\356\376>\247\321\233>\374\366\232"
 254      3A02C54D 
 254      EEFE3EA7 
 254      D19B3EFC 
 254      F69A
 255 0518 0FBF9653 		.ascii	"\017\277\226S\243v\342t\302}MJ\343\372\320^\032\225"
 255      A376E274 
 255      C27D4D4A 
 255      E3FAD05E 
 255      1A95
 256 052a DC4D1AF0 		.ascii	"\334M\032\360\013i&>\363\222hgA\350\006\370\354~]\362"
 256      0B69263E 
 256      F3926867 
 256      41E806F8 
 256      EC7E5DF2 
 257 053e D1EF24AF 		.ascii	"\321\357$\257\335?8\0304u\320S\322l\335\3023(\036\235"
 257      DD3F3818 
 257      3475D053 
 257      D26CDDC2 
 257      33281E9D 
 258 0552 85E20183 		.ascii	"\205\342\001\203\342\"\324IFF\222\207\306\256\22444"
 258      E222D449 
 258      46469287 
 258      C6AE9434 
 258      34
 259 0563 AB0D1DE4 		.ascii	"\253\015\035\344V*\205\261\2761\266\026\360\323]\362"
 259      562A85B1 
 259      BE31B616 
 259      F0D35DF2 
 260 0573 B85ADC5A 		.ascii	"\270Z\334Zp\273\024\322\316\244\270\330\336W\306oI\264"
 260      70BB14D2 
 260      CEA4B8D8 
 260      DE57C66F 
 260      49B4
 261 0585 27DE3675 		.ascii	"'\3366u\251f\353V\012\323\246\274\342\\\204\331C\371"
 261      A966EB56 
 261      0AD3A6BC 
 261      E25C84D9 
 261      43F9
 262 0597 A495FAA4 		.ascii	"\244\225\372\244s\231\257\221\217\346i\357%\343\266"
 262      7399AF91 
 262      8FE669EF 
 262      25E3B6
 263 05a6 8C1FB776 		.ascii	"\214\037\267v\207\307-\337\302\271\335x\334\276\362"
 263      87C72DDF 
 263      C2B9DD78 
 263      DCBEF2
 264 05b5 0A5FA102 		.ascii	"\012_\241\002\011\370N\345\271\3138\027\353\013\244"
 264      09F84EE5 
 264      B9CB3817 
 264      EB0BA4
 265 05c4 260689AF 		.ascii	"&\006\211\257\233\354\243_<\346dZ\214d\312u\234\274"
 265      9BECA35F 
ARM GAS  /tmp/ccM4pwwM.s 			page 20


 265      3CE6645A 
 265      8C64CA75 
 265      9CBC
 266 05d6 D95216BC 		.ascii	"\331R\026\274d|$\343\224;\034R\316\265\244\254{\201"
 266      647C24E3 
 266      943B1C52 
 266      CEB5A4AC 
 266      7B81
 267 05e8 F98E247C 		.ascii	"\371\216$|\202\012$$\364\213%e\241\223\373f\351\344"
 267      820A2424 
 267      F48B2565 
 267      A193FB66 
 267      E9E4
 268 05fa A36227AB 		.ascii	"\243b'\253\177\032\205\222\361aHN\237\377\362,\363\337"
 268      7F1A8592 
 268      F161484E 
 268      9FFFF22C 
 268      F3DF
 269 060c B0CCAF6D 		.ascii	"\260\314\257m\007\352\337\203\304\357Oo\007\227-\337"
 269      07EADF83 
 269      C4EF4F6F 
 269      07972DDF 
 270 061c C28F052A 		.ascii	"\302\217\005*k\252\"\201\310\216H X\031\335\026}\266"
 270      6BAA2281 
 270      C88E4820 
 270      5819DD16 
 270      7DB6
 271 062e 2C50130F 		.ascii	",P\023\017T\312\261@mM\235\022\017\224m.]\261<\360\364"
 271      54CAB140 
 271      6D4D9D12 
 271      0F946D2E 
 271      5DB13CF0 
 272 0643 D36B039B 		.ascii	"\323k\003\2337\226\276X\022\210+\341Xl\373\262J\364"
 272      3796BE58 
 272      12882BE1 
 272      586CFBB2 
 272      4AF4
 273 0655 A06D609D 		.ascii	"\240m`\235\022\210VW\304\352\267G\002\025\225\361\235"
 273      12885657 
 273      C4EAB747 
 273      021595F1 
 273      9D
 274 0666 7165676D 		.ascii	"qegm$\016\3369\324\216VE\302J\326\372g\266\370\203h"
 274      240EDE39 
 274      D48E5645 
 274      C24AD6FA 
 274      67B6F883 
 275 067b 41A03E5E 		.ascii	"A\240>^\227\366\255\216\274\024\213n\003\360\355\321"
 275      97F6AD8E 
 275      BC148B6E 
 275      03F0EDD1 
 276 068b 6A05DC7D 		.ascii	"j\005\334}\365\360\267deXy\320\316\255J\256\250\214"
 276      F5F0B764 
 276      655879D0 
 276      CEAD4AAE 
 276      A88C
 277 069d 564702E1 		.ascii	"VG\002\341\355\221\035r}L\011\353\263\344\206\303z`"
ARM GAS  /tmp/ccM4pwwM.s 			page 21


 277      ED911D72 
 277      7D4C09EB 
 277      B3E486C3 
 277      7A60
 278 06af 9146341C 		.ascii	"\221F4\034W\344:%,\307\344\272*/%0?=^S\253\015\027\352"
 278      57E43A25 
 278      2CC7E4BA 
 278      2A2F2530 
 278      3F3D5E53 
 279 06c7 2311C53A 		.ascii	"#\021\305:\360\274>\260\310\261F\361\272\012 \275\254"
 279      F0BC3EB0 
 279      C8B146F1 
 279      BA0A20BD 
 279      AC
 280 06d8 0265C595 		.ascii	"\002e\305\225\215\325Q%?\256\224\321\011\327\320\260"
 280      8DD55125 
 280      3FAE94D1 
 280      09D7D0B0 
 281 06e8 6C791BCB 		.ascii	"ly\033\3139\217\016\326\324\262\261\\\260#\212n\256"
 281      398F0ED6 
 281      D4B2B15C 
 281      B0238A6E 
 281      AE
 282 06f9 E7661E9F 		.ascii	"\347f\036\2371\012\020Of\274 U+\226\207a\036\310?/}"
 282      310A104F 
 282      66BC2055 
 282      2B968761 
 282      1EC83F2F 
 283 070e 13565809 		.ascii	"\023VX\011\351\015/\0125=\301P\011\310roYi0\344]\273"
 283      E90D2F0A 
 283      353DC150 
 283      09C8726F 
 283      596930E4 
 284 0724 715D482A 		.ascii	"q]H*\013y\326\255\017\315\011\006KC%L/\367\006\203\353"
 284      0B79D6AD 
 284      0FCD0906 
 284      4B43254C 
 284      2FF70683 
 285 0739 429EE033 		.ascii	"B\236\3403\233=\233\312\202\2365\241\220'\024\204{\010"
 285      9B3D9BCA 
 285      829E35A1 
 285      90271484 
 285      7B08
 286 074b 786AEDE6 		.ascii	"xj\355\346\220g-\215,]\023\222\236\325\242V\200\177"
 286      90672D8D 
 286      2C5D1392 
 286      9ED5A256 
 286      807F
 287 075d 79684EF8 		.ascii	"yhN\370\251\232\232\230\267\242R\256\363\205\303;\352"
 287      A99A9A98 
 287      B7A252AE 
 287      F385C33B 
 287      EA
 288 076e AB2BC2E1 		.ascii	"\253+\302\341\271\272\261\354\221G\037~\334|\367\310"
 288      B9BAB1EC 
 288      91471F7E 
 288      DC7CF7C8 
ARM GAS  /tmp/ccM4pwwM.s 			page 22


 289 077e 4AF3DDCA 		.ascii	"J\363\335\312\207\376\005GQ\351\037"
 289      87FE0547 
 289      51E91F
 290              		.text
 291              		.section	.gnu.lto_.symtab.b7e33e2b66cd1952,"",%progbits
 292 0000 7374496E 		.ascii	"stInit\000\000\000\000\000\000\000\000\000\000\000\000"
 292      69740000 
 292      00000000 
 292      00000000 
 292      0000
 293 0012 BE000000 		.ascii	"\276\000\000\000stStartAlarm\000\000\000\000\000\000"
 293      73745374 
 293      61727441 
 293      6C61726D 
 293      00000000 
 294 0028 00000000 		.ascii	"\000\000\000\000\000\000\301\000\000\000stStopAlarm"
 294      0000C100 
 294      00007374 
 294      53746F70 
 294      416C6172 
 295 003d 00000000 		.ascii	"\000\000\000\000\000\000\000\000\000\000\000\000\306"
 295      00000000 
 295      00000000 
 295      C6
 296 004a 00000073 		.ascii	"\000\000\000stSetAlarm\000\000\000\000\000\000\000\000"
 296      74536574 
 296      416C6172 
 296      6D000000 
 296      00000000 
 297 005f 00000000 		.ascii	"\000\000\000\000\311\000\000\000stGetAlarm\000\000\000"
 297      C9000000 
 297      73744765 
 297      74416C61 
 297      726D0000 
 298 0074 00000000 		.ascii	"\000\000\000\000\000\000\000\000\000\315\000\000\000"
 298      00000000 
 298      00CD0000 
 298      00
 299 0081 73745F6C 		.ascii	"st_lld_init\000\000\002\000\000\000\000\000\000\000"
 299      6C645F69 
 299      6E697400 
 299      00020000 
 299      00000000 
 300 0096 0000D000 		.ascii	"\000\000\320\000\000\000"
 300      0000
 301              		.text
 302              		.section	.gnu.lto_.opts,"",%progbits
 303 0000 272D6D63 		.ascii	"'-mcpu=cortex-m0' '-mno-thumb-interwork' '-mthumb' "
 303      70753D63 
 303      6F727465 
 303      782D6D30 
 303      2720272D 
 304 0033 272D6767 		.ascii	"'-ggdb' '-O0' '-fomit-frame-pointer' '-falign-funct"
 304      64622720 
 304      272D4F30 
 304      2720272D 
 304      666F6D69 
ARM GAS  /tmp/ccM4pwwM.s 			page 23


 305 0066 696F6E73 		.ascii	"ions=16' '-ffunction-sections' '-fdata-sections' '-"
 305      3D313627 
 305      20272D66 
 305      66756E63 
 305      74696F6E 
 306 0099 666E6F2D 		.ascii	"fno-common' '-flto'\000"
 306      636F6D6D 
 306      6F6E2720 
 306      272D666C 
 306      746F2700 
 307              		.text
 308              		.cfi_sections	.debug_frame
 309              		.section	.text.st_lld_start_alarm,"ax",%progbits
 310              		.align	2
 311              		.p2align 4,,15
 312              		.code	16
 313              		.thumb_func
 314              		.type	st_lld_start_alarm, %function
 315              	st_lld_start_alarm:
 316              	.LFB47:
 317              		.file 1 "/home/efe/ChibiOS/os/hal/ports/STM32/LLD/TIMv1/st_lld.h"
 318              		.loc 1 153 0
 319              		.cfi_startproc
 320 0000 82B0     		sub	sp, sp, #8
 321              		.cfi_def_cfa_offset 8
 322 0002 021C     		mov	r2, r0
 323 0004 6B46     		mov	r3, sp
 324 0006 0633     		add	r3, r3, #6
 325 0008 1A80     		strh	r2, [r3]
 326              		.loc 1 155 0
 327 000a 064B     		ldr	r3, .L2
 328 000c 6A46     		mov	r2, sp
 329 000e 0632     		add	r2, r2, #6
 330 0010 1288     		ldrh	r2, [r2]
 331 0012 5A63     		str	r2, [r3, #52]
 332              		.loc 1 156 0
 333 0014 034B     		ldr	r3, .L2
 334 0016 0022     		mov	r2, #0
 335 0018 1A61     		str	r2, [r3, #16]
 336              		.loc 1 157 0
 337 001a 024B     		ldr	r3, .L2
 338 001c 0222     		mov	r2, #2
 339 001e DA60     		str	r2, [r3, #12]
 340              		.loc 1 158 0
 341 0020 02B0     		add	sp, sp, #8
 342              		@ sp needed
 343 0022 7047     		bx	lr
 344              	.L3:
 345              		.align	2
 346              	.L2:
 347 0024 00040040 		.word	1073742848
 348              		.cfi_endproc
 349              	.LFE47:
 350              		.size	st_lld_start_alarm, .-st_lld_start_alarm
 351 0028 C046C046 		.section	.text.st_lld_stop_alarm,"ax",%progbits
 351      C046C046 
 352              		.align	2
ARM GAS  /tmp/ccM4pwwM.s 			page 24


 353              		.p2align 4,,15
 354              		.code	16
 355              		.thumb_func
 356              		.type	st_lld_stop_alarm, %function
 357              	st_lld_stop_alarm:
 358              	.LFB48:
 359              		.loc 1 165 0
 360              		.cfi_startproc
 361              		.loc 1 167 0
 362 0000 014B     		ldr	r3, .L5
 363 0002 0022     		mov	r2, #0
 364 0004 DA60     		str	r2, [r3, #12]
 365              		.loc 1 168 0
 366              		@ sp needed
 367 0006 7047     		bx	lr
 368              	.L6:
 369              		.align	2
 370              	.L5:
 371 0008 00040040 		.word	1073742848
 372              		.cfi_endproc
 373              	.LFE48:
 374              		.size	st_lld_stop_alarm, .-st_lld_stop_alarm
 375 000c C046C046 		.section	.text.st_lld_set_alarm,"ax",%progbits
 376              		.align	2
 377              		.p2align 4,,15
 378              		.code	16
 379              		.thumb_func
 380              		.type	st_lld_set_alarm, %function
 381              	st_lld_set_alarm:
 382              	.LFB49:
 383              		.loc 1 177 0
 384              		.cfi_startproc
 385 0000 82B0     		sub	sp, sp, #8
 386              		.cfi_def_cfa_offset 8
 387 0002 021C     		mov	r2, r0
 388 0004 6B46     		mov	r3, sp
 389 0006 0633     		add	r3, r3, #6
 390 0008 1A80     		strh	r2, [r3]
 391              		.loc 1 179 0
 392 000a 034B     		ldr	r3, .L8
 393 000c 6A46     		mov	r2, sp
 394 000e 0632     		add	r2, r2, #6
 395 0010 1288     		ldrh	r2, [r2]
 396 0012 5A63     		str	r2, [r3, #52]
 397              		.loc 1 180 0
 398 0014 02B0     		add	sp, sp, #8
 399              		@ sp needed
 400 0016 7047     		bx	lr
 401              	.L9:
 402              		.align	2
 403              	.L8:
 404 0018 00040040 		.word	1073742848
 405              		.cfi_endproc
 406              	.LFE49:
 407              		.size	st_lld_set_alarm, .-st_lld_set_alarm
 408 001c C046C046 		.section	.text.st_lld_get_alarm,"ax",%progbits
 409              		.align	2
ARM GAS  /tmp/ccM4pwwM.s 			page 25


 410              		.p2align 4,,15
 411              		.code	16
 412              		.thumb_func
 413              		.type	st_lld_get_alarm, %function
 414              	st_lld_get_alarm:
 415              	.LFB50:
 416              		.loc 1 189 0
 417              		.cfi_startproc
 418              		.loc 1 191 0
 419 0000 024B     		ldr	r3, .L12
 420 0002 5B6B     		ldr	r3, [r3, #52]
 421 0004 9BB2     		uxth	r3, r3
 422              		.loc 1 192 0
 423 0006 181C     		mov	r0, r3
 424              		@ sp needed
 425 0008 7047     		bx	lr
 426              	.L13:
 427 000a C046     		.align	2
 428              	.L12:
 429 000c 00040040 		.word	1073742848
 430              		.cfi_endproc
 431              	.LFE50:
 432              		.size	st_lld_get_alarm, .-st_lld_get_alarm
 433              		.section	.text.stInit,"ax",%progbits
 434              		.align	2
 435              		.p2align 4,,15
 436              		.global	stInit
 437              		.code	16
 438              		.thumb_func
 439              		.type	stInit, %function
 440              	stInit:
 441              	.LFB149:
 442              		.file 2 "/home/efe/ChibiOS/os/hal/src/st.c"
 443              		.loc 2 60 0
 444              		.cfi_startproc
 445 0000 08B5     		push	{r3, lr}
 446              		.cfi_def_cfa_offset 8
 447              		.cfi_offset 3, -8
 448              		.cfi_offset 14, -4
 449              		.loc 2 62 0
 450 0002 FFF7FEFF 		bl	st_lld_init
 451              		.loc 2 63 0
 452              		@ sp needed
 453 0006 08BD     		pop	{r3, pc}
 454              		.cfi_endproc
 455              	.LFE149:
 456              		.size	stInit, .-stInit
 457 0008 C046C046 		.section	.text.stStartAlarm,"ax",%progbits
 457      C046C046 
 458              		.align	2
 459              		.p2align 4,,15
 460              		.global	stStartAlarm
 461              		.code	16
 462              		.thumb_func
 463              		.type	stStartAlarm, %function
 464              	stStartAlarm:
 465              	.LFB150:
ARM GAS  /tmp/ccM4pwwM.s 			page 26


 466              		.loc 2 77 0
 467              		.cfi_startproc
 468 0000 00B5     		push	{lr}
 469              		.cfi_def_cfa_offset 4
 470              		.cfi_offset 14, -4
 471 0002 83B0     		sub	sp, sp, #12
 472              		.cfi_def_cfa_offset 16
 473 0004 021C     		mov	r2, r0
 474 0006 6B46     		mov	r3, sp
 475 0008 0633     		add	r3, r3, #6
 476 000a 1A80     		strh	r2, [r3]
 477              		.loc 2 81 0
 478 000c 6B46     		mov	r3, sp
 479 000e 0633     		add	r3, r3, #6
 480 0010 1B88     		ldrh	r3, [r3]
 481 0012 181C     		mov	r0, r3
 482 0014 FFF7FEFF 		bl	st_lld_start_alarm
 483              		.loc 2 82 0
 484 0018 03B0     		add	sp, sp, #12
 485              		@ sp needed
 486 001a 00BD     		pop	{pc}
 487              		.cfi_endproc
 488              	.LFE150:
 489              		.size	stStartAlarm, .-stStartAlarm
 490 001c C046C046 		.section	.text.stStopAlarm,"ax",%progbits
 491              		.align	2
 492              		.p2align 4,,15
 493              		.global	stStopAlarm
 494              		.code	16
 495              		.thumb_func
 496              		.type	stStopAlarm, %function
 497              	stStopAlarm:
 498              	.LFB151:
 499              		.loc 2 91 0
 500              		.cfi_startproc
 501 0000 08B5     		push	{r3, lr}
 502              		.cfi_def_cfa_offset 8
 503              		.cfi_offset 3, -8
 504              		.cfi_offset 14, -4
 505              		.loc 2 93 0
 506 0002 FFF7FEFF 		bl	st_lld_stop_alarm
 507              		.loc 2 94 0
 508              		@ sp needed
 509 0006 08BD     		pop	{r3, pc}
 510              		.cfi_endproc
 511              	.LFE151:
 512              		.size	stStopAlarm, .-stStopAlarm
 513 0008 C046C046 		.section	.text.stSetAlarm,"ax",%progbits
 513      C046C046 
 514              		.align	2
 515              		.p2align 4,,15
 516              		.global	stSetAlarm
 517              		.code	16
 518              		.thumb_func
 519              		.type	stSetAlarm, %function
 520              	stSetAlarm:
 521              	.LFB152:
ARM GAS  /tmp/ccM4pwwM.s 			page 27


 522              		.loc 2 105 0
 523              		.cfi_startproc
 524 0000 00B5     		push	{lr}
 525              		.cfi_def_cfa_offset 4
 526              		.cfi_offset 14, -4
 527 0002 83B0     		sub	sp, sp, #12
 528              		.cfi_def_cfa_offset 16
 529 0004 021C     		mov	r2, r0
 530 0006 6B46     		mov	r3, sp
 531 0008 0633     		add	r3, r3, #6
 532 000a 1A80     		strh	r2, [r3]
 533              		.loc 2 109 0
 534 000c 6B46     		mov	r3, sp
 535 000e 0633     		add	r3, r3, #6
 536 0010 1B88     		ldrh	r3, [r3]
 537 0012 181C     		mov	r0, r3
 538 0014 FFF7FEFF 		bl	st_lld_set_alarm
 539              		.loc 2 110 0
 540 0018 03B0     		add	sp, sp, #12
 541              		@ sp needed
 542 001a 00BD     		pop	{pc}
 543              		.cfi_endproc
 544              	.LFE152:
 545              		.size	stSetAlarm, .-stSetAlarm
 546 001c C046C046 		.section	.text.stGetAlarm,"ax",%progbits
 547              		.align	2
 548              		.p2align 4,,15
 549              		.global	stGetAlarm
 550              		.code	16
 551              		.thumb_func
 552              		.type	stGetAlarm, %function
 553              	stGetAlarm:
 554              	.LFB153:
 555              		.loc 2 121 0
 556              		.cfi_startproc
 557 0000 08B5     		push	{r3, lr}
 558              		.cfi_def_cfa_offset 8
 559              		.cfi_offset 3, -8
 560              		.cfi_offset 14, -4
 561              		.loc 2 125 0
 562 0002 FFF7FEFF 		bl	st_lld_get_alarm
 563 0006 031C     		mov	r3, r0
 564              		.loc 2 126 0
 565 0008 181C     		mov	r0, r3
 566              		@ sp needed
 567 000a 08BD     		pop	{r3, pc}
 568              		.cfi_endproc
 569              	.LFE153:
 570              		.size	stGetAlarm, .-stGetAlarm
 571 000c C046C046 		.text
 572              	.Letext0:
 573              		.file 3 "/usr/include/newlib/machine/_default_types.h"
 574              		.file 4 "/usr/include/newlib/stdint.h"
 575              		.file 5 "/home/efe/ChibiOS/os/rt/ports/ARMCMx/compilers/GCC/chtypes.h"
 576              		.file 6 "/home/efe/ChibiOS/os/rt/include/chsystypes.h"
 577              		.file 7 "/home/efe/ChibiOS/os/rt/include/chschd.h"
 578              		.file 8 "/home/efe/ChibiOS/os/rt/ports/ARMCMx/chcore.h"
ARM GAS  /tmp/ccM4pwwM.s 			page 28


 579              		.file 9 "/home/efe/ChibiOS/os/rt/ports/ARMCMx/chcore_v6m.h"
 580              		.file 10 "/home/efe/ChibiOS/os/hal/ports/STM32/LLD/TIMv1/stm32_tim.h"
 581              		.file 11 "/home/efe/ChibiOS/os/rt/include/chsem.h"
 582              		.file 12 "/home/efe/ChibiOS/os/rt/include/chmtx.h"
 583              		.section	.debug_info,"",%progbits
 584              	.Ldebug_info0:
 585 0000 18080000 		.4byte	0x818
 586 0004 0400     		.2byte	0x4
 587 0006 00000000 		.4byte	.Ldebug_abbrev0
 588 000a 04       		.byte	0x4
 589 000b 01       		.uleb128 0x1
 590 000c C5020000 		.4byte	.LASF114
 591 0010 01       		.byte	0x1
 592 0011 65050000 		.4byte	.LASF115
 593 0015 00000000 		.4byte	.Ldebug_ranges0+0
 594 0019 00000000 		.4byte	0
 595 001d 00000000 		.4byte	.Ldebug_line0
 596 0021 02       		.uleb128 0x2
 597 0022 04       		.byte	0x4
 598 0023 05       		.byte	0x5
 599 0024 696E7400 		.ascii	"int\000"
 600 0028 03       		.uleb128 0x3
 601 0029 04       		.byte	0x4
 602 002a 07       		.byte	0x7
 603 002b 73000000 		.4byte	.LASF0
 604 002f 03       		.uleb128 0x3
 605 0030 01       		.byte	0x1
 606 0031 06       		.byte	0x6
 607 0032 1C050000 		.4byte	.LASF1
 608 0036 04       		.uleb128 0x4
 609 0037 60040000 		.4byte	.LASF4
 610 003b 03       		.byte	0x3
 611 003c 1D       		.byte	0x1d
 612 003d 41000000 		.4byte	0x41
 613 0041 03       		.uleb128 0x3
 614 0042 01       		.byte	0x1
 615 0043 08       		.byte	0x8
 616 0044 A9040000 		.4byte	.LASF2
 617 0048 03       		.uleb128 0x3
 618 0049 02       		.byte	0x2
 619 004a 05       		.byte	0x5
 620 004b CF030000 		.4byte	.LASF3
 621 004f 04       		.uleb128 0x4
 622 0050 7C010000 		.4byte	.LASF5
 623 0054 03       		.byte	0x3
 624 0055 2B       		.byte	0x2b
 625 0056 5A000000 		.4byte	0x5a
 626 005a 03       		.uleb128 0x3
 627 005b 02       		.byte	0x2
 628 005c 07       		.byte	0x7
 629 005d 28050000 		.4byte	.LASF6
 630 0061 04       		.uleb128 0x4
 631 0062 8F000000 		.4byte	.LASF7
 632 0066 03       		.byte	0x3
 633 0067 3F       		.byte	0x3f
 634 0068 6C000000 		.4byte	0x6c
 635 006c 03       		.uleb128 0x3
ARM GAS  /tmp/ccM4pwwM.s 			page 29


 636 006d 04       		.byte	0x4
 637 006e 05       		.byte	0x5
 638 006f F9030000 		.4byte	.LASF8
 639 0073 04       		.uleb128 0x4
 640 0074 B7040000 		.4byte	.LASF9
 641 0078 03       		.byte	0x3
 642 0079 41       		.byte	0x41
 643 007a 7E000000 		.4byte	0x7e
 644 007e 03       		.uleb128 0x3
 645 007f 04       		.byte	0x4
 646 0080 07       		.byte	0x7
 647 0081 7A040000 		.4byte	.LASF10
 648 0085 03       		.uleb128 0x3
 649 0086 08       		.byte	0x8
 650 0087 05       		.byte	0x5
 651 0088 81020000 		.4byte	.LASF11
 652 008c 04       		.uleb128 0x4
 653 008d DC010000 		.4byte	.LASF12
 654 0091 03       		.byte	0x3
 655 0092 5B       		.byte	0x5b
 656 0093 97000000 		.4byte	0x97
 657 0097 03       		.uleb128 0x3
 658 0098 08       		.byte	0x8
 659 0099 07       		.byte	0x7
 660 009a 65010000 		.4byte	.LASF13
 661 009e 04       		.uleb128 0x4
 662 009f 51020000 		.4byte	.LASF14
 663 00a3 04       		.byte	0x4
 664 00a4 2A       		.byte	0x2a
 665 00a5 36000000 		.4byte	0x36
 666 00a9 04       		.uleb128 0x4
 667 00aa B6030000 		.4byte	.LASF15
 668 00ae 04       		.byte	0x4
 669 00af 36       		.byte	0x36
 670 00b0 4F000000 		.4byte	0x4f
 671 00b4 04       		.uleb128 0x4
 672 00b5 99040000 		.4byte	.LASF16
 673 00b9 04       		.byte	0x4
 674 00ba 41       		.byte	0x41
 675 00bb 61000000 		.4byte	0x61
 676 00bf 04       		.uleb128 0x4
 677 00c0 F9000000 		.4byte	.LASF17
 678 00c4 04       		.byte	0x4
 679 00c5 42       		.byte	0x42
 680 00c6 73000000 		.4byte	0x73
 681 00ca 04       		.uleb128 0x4
 682 00cb 3D040000 		.4byte	.LASF18
 683 00cf 04       		.byte	0x4
 684 00d0 4E       		.byte	0x4e
 685 00d1 8C000000 		.4byte	0x8c
 686 00d5 04       		.uleb128 0x4
 687 00d6 8D030000 		.4byte	.LASF19
 688 00da 05       		.byte	0x5
 689 00db 3C       		.byte	0x3c
 690 00dc 9E000000 		.4byte	0x9e
 691 00e0 04       		.uleb128 0x4
 692 00e1 31020000 		.4byte	.LASF20
ARM GAS  /tmp/ccM4pwwM.s 			page 30


 693 00e5 05       		.byte	0x5
 694 00e6 3D       		.byte	0x3d
 695 00e7 9E000000 		.4byte	0x9e
 696 00eb 04       		.uleb128 0x4
 697 00ec 3A010000 		.4byte	.LASF21
 698 00f0 05       		.byte	0x5
 699 00f1 40       		.byte	0x40
 700 00f2 BF000000 		.4byte	0xbf
 701 00f6 04       		.uleb128 0x4
 702 00f7 9F020000 		.4byte	.LASF22
 703 00fb 05       		.byte	0x5
 704 00fc 41       		.byte	0x41
 705 00fd B4000000 		.4byte	0xb4
 706 0101 04       		.uleb128 0x4
 707 0102 87010000 		.4byte	.LASF23
 708 0106 05       		.byte	0x5
 709 0107 45       		.byte	0x45
 710 0108 B4000000 		.4byte	0xb4
 711 010c 04       		.uleb128 0x4
 712 010d 59000000 		.4byte	.LASF24
 713 0111 06       		.byte	0x6
 714 0112 35       		.byte	0x35
 715 0113 A9000000 		.4byte	0xa9
 716 0117 04       		.uleb128 0x4
 717 0118 B1010000 		.4byte	.LASF25
 718 011c 06       		.byte	0x6
 719 011d 3F       		.byte	0x3f
 720 011e 22010000 		.4byte	0x122
 721 0122 05       		.uleb128 0x5
 722 0123 68020000 		.4byte	.LASF40
 723 0127 30       		.byte	0x30
 724 0128 07       		.byte	0x7
 725 0129 C2       		.byte	0xc2
 726 012a CF010000 		.4byte	0x1cf
 727 012e 06       		.uleb128 0x6
 728 012f 2A040000 		.4byte	.LASF26
 729 0133 07       		.byte	0x7
 730 0134 C3       		.byte	0xc3
 731 0135 DA010000 		.4byte	0x1da
 732 0139 00       		.byte	0
 733 013a 06       		.uleb128 0x6
 734 013b 6A040000 		.4byte	.LASF27
 735 013f 07       		.byte	0x7
 736 0140 C5       		.byte	0xc5
 737 0141 DA010000 		.4byte	0x1da
 738 0145 04       		.byte	0x4
 739 0146 06       		.uleb128 0x6
 740 0147 52000000 		.4byte	.LASF28
 741 014b 07       		.byte	0x7
 742 014c C7       		.byte	0xc7
 743 014d EB000000 		.4byte	0xeb
 744 0151 08       		.byte	0x8
 745 0152 06       		.uleb128 0x6
 746 0153 46040000 		.4byte	.LASF29
 747 0157 07       		.byte	0x7
 748 0158 C8       		.byte	0xc8
 749 0159 23040000 		.4byte	0x423
ARM GAS  /tmp/ccM4pwwM.s 			page 31


 750 015d 0C       		.byte	0xc
 751 015e 06       		.uleb128 0x6
 752 015f 92010000 		.4byte	.LASF30
 753 0163 07       		.byte	0x7
 754 0164 CA       		.byte	0xca
 755 0165 DA010000 		.4byte	0x1da
 756 0169 10       		.byte	0x10
 757 016a 06       		.uleb128 0x6
 758 016b 41020000 		.4byte	.LASF31
 759 016f 07       		.byte	0x7
 760 0170 CB       		.byte	0xcb
 761 0171 DA010000 		.4byte	0x1da
 762 0175 14       		.byte	0x14
 763 0176 06       		.uleb128 0x6
 764 0177 EC010000 		.4byte	.LASF32
 765 017b 07       		.byte	0x7
 766 017c D2       		.byte	0xd2
 767 017d 8F060000 		.4byte	0x68f
 768 0181 18       		.byte	0x18
 769 0182 06       		.uleb128 0x6
 770 0183 49020000 		.4byte	.LASF33
 771 0187 07       		.byte	0x7
 772 0188 DD       		.byte	0xdd
 773 0189 E0000000 		.4byte	0xe0
 774 018d 1C       		.byte	0x1c
 775 018e 06       		.uleb128 0x6
 776 018f AD020000 		.4byte	.LASF34
 777 0193 07       		.byte	0x7
 778 0194 E1       		.byte	0xe1
 779 0195 D5000000 		.4byte	0xd5
 780 0199 1D       		.byte	0x1d
 781 019a 07       		.uleb128 0x7
 782 019b 705F7500 		.ascii	"p_u\000"
 783 019f 07       		.byte	0x7
 784 01a0 3101     		.2byte	0x131
 785 01a2 D6050000 		.4byte	0x5d6
 786 01a6 20       		.byte	0x20
 787 01a7 08       		.uleb128 0x8
 788 01a8 20000000 		.4byte	.LASF35
 789 01ac 07       		.byte	0x7
 790 01ad 3601     		.2byte	0x136
 791 01af E0010000 		.4byte	0x1e0
 792 01b3 24       		.byte	0x24
 793 01b4 08       		.uleb128 0x8
 794 01b5 59020000 		.4byte	.LASF36
 795 01b9 07       		.byte	0x7
 796 01ba 4D01     		.2byte	0x14d
 797 01bc 89060000 		.4byte	0x689
 798 01c0 28       		.byte	0x28
 799 01c1 08       		.uleb128 0x8
 800 01c2 C4030000 		.4byte	.LASF37
 801 01c6 07       		.byte	0x7
 802 01c7 5101     		.2byte	0x151
 803 01c9 EB000000 		.4byte	0xeb
 804 01cd 2C       		.byte	0x2c
 805 01ce 00       		.byte	0
 806 01cf 04       		.uleb128 0x4
ARM GAS  /tmp/ccM4pwwM.s 			page 32


 807 01d0 01020000 		.4byte	.LASF38
 808 01d4 06       		.byte	0x6
 809 01d5 44       		.byte	0x44
 810 01d6 DA010000 		.4byte	0x1da
 811 01da 09       		.uleb128 0x9
 812 01db 04       		.byte	0x4
 813 01dc 17010000 		.4byte	0x117
 814 01e0 04       		.uleb128 0x4
 815 01e1 80000000 		.4byte	.LASF39
 816 01e5 06       		.byte	0x6
 817 01e6 49       		.byte	0x49
 818 01e7 EB010000 		.4byte	0x1eb
 819 01eb 05       		.uleb128 0x5
 820 01ec 00000000 		.4byte	.LASF41
 821 01f0 04       		.byte	0x4
 822 01f1 07       		.byte	0x7
 823 01f2 B0       		.byte	0xb0
 824 01f3 04020000 		.4byte	0x204
 825 01f7 06       		.uleb128 0x6
 826 01f8 2A040000 		.4byte	.LASF26
 827 01fc 07       		.byte	0x7
 828 01fd B1       		.byte	0xb1
 829 01fe DA010000 		.4byte	0x1da
 830 0202 00       		.byte	0
 831 0203 00       		.byte	0
 832 0204 04       		.uleb128 0x4
 833 0205 10000000 		.4byte	.LASF42
 834 0209 06       		.byte	0x6
 835 020a 50       		.byte	0x50
 836 020b 0F020000 		.4byte	0x20f
 837 020f 05       		.uleb128 0x5
 838 0210 C4000000 		.4byte	.LASF43
 839 0214 08       		.byte	0x8
 840 0215 07       		.byte	0x7
 841 0216 B7       		.byte	0xb7
 842 0217 34020000 		.4byte	0x234
 843 021b 06       		.uleb128 0x6
 844 021c 2A040000 		.4byte	.LASF26
 845 0220 07       		.byte	0x7
 846 0221 B8       		.byte	0xb8
 847 0222 DA010000 		.4byte	0x1da
 848 0226 00       		.byte	0
 849 0227 06       		.uleb128 0x6
 850 0228 6A040000 		.4byte	.LASF27
 851 022c 07       		.byte	0x7
 852 022d B9       		.byte	0xb9
 853 022e DA010000 		.4byte	0x1da
 854 0232 04       		.byte	0x4
 855 0233 00       		.byte	0
 856 0234 04       		.uleb128 0x4
 857 0235 8C040000 		.4byte	.LASF44
 858 0239 06       		.byte	0x6
 859 023a 57       		.byte	0x57
 860 023b 3F020000 		.4byte	0x23f
 861 023f 0A       		.uleb128 0xa
 862 0240 A7000000 		.4byte	.LASF45
 863 0244 1C       		.byte	0x1c
ARM GAS  /tmp/ccM4pwwM.s 			page 33


 864 0245 07       		.byte	0x7
 865 0246 9001     		.2byte	0x190
 866 0248 9B020000 		.4byte	0x29b
 867 024c 08       		.uleb128 0x8
 868 024d 8F020000 		.4byte	.LASF46
 869 0251 07       		.byte	0x7
 870 0252 9101     		.2byte	0x191
 871 0254 04020000 		.4byte	0x204
 872 0258 00       		.byte	0
 873 0259 08       		.uleb128 0x8
 874 025a 0D010000 		.4byte	.LASF47
 875 025e 07       		.byte	0x7
 876 025f 9201     		.2byte	0x192
 877 0261 EB000000 		.4byte	0xeb
 878 0265 08       		.byte	0x8
 879 0266 08       		.uleb128 0x8
 880 0267 3B050000 		.4byte	.LASF48
 881 026b 07       		.byte	0x7
 882 026c 9401     		.2byte	0x194
 883 026e 23040000 		.4byte	0x423
 884 0272 0C       		.byte	0xc
 885 0273 08       		.uleb128 0x8
 886 0274 97020000 		.4byte	.LASF49
 887 0278 07       		.byte	0x7
 888 0279 9701     		.2byte	0x197
 889 027b DA010000 		.4byte	0x1da
 890 027f 10       		.byte	0x10
 891 0280 08       		.uleb128 0x8
 892 0281 7B030000 		.4byte	.LASF50
 893 0285 07       		.byte	0x7
 894 0286 9801     		.2byte	0x198
 895 0288 DA010000 		.4byte	0x1da
 896 028c 14       		.byte	0x14
 897 028d 08       		.uleb128 0x8
 898 028e E7030000 		.4byte	.LASF51
 899 0292 07       		.byte	0x7
 900 0293 9B01     		.2byte	0x19b
 901 0295 DA010000 		.4byte	0x1da
 902 0299 18       		.byte	0x18
 903 029a 00       		.byte	0
 904 029b 04       		.uleb128 0x4
 905 029c DA000000 		.4byte	.LASF52
 906 02a0 06       		.byte	0x6
 907 02a1 5C       		.byte	0x5c
 908 02a2 A6020000 		.4byte	0x2a6
 909 02a6 09       		.uleb128 0x9
 910 02a7 04       		.byte	0x4
 911 02a8 AC020000 		.4byte	0x2ac
 912 02ac 0B       		.uleb128 0xb
 913 02ad B7020000 		.4byte	0x2b7
 914 02b1 0C       		.uleb128 0xc
 915 02b2 B7020000 		.4byte	0x2b7
 916 02b6 00       		.byte	0
 917 02b7 0D       		.uleb128 0xd
 918 02b8 04       		.byte	0x4
 919 02b9 04       		.uleb128 0x4
 920 02ba B5020000 		.4byte	.LASF53
ARM GAS  /tmp/ccM4pwwM.s 			page 34


 921 02be 06       		.byte	0x6
 922 02bf 61       		.byte	0x61
 923 02c0 C4020000 		.4byte	0x2c4
 924 02c4 0A       		.uleb128 0xa
 925 02c5 42010000 		.4byte	.LASF54
 926 02c9 14       		.byte	0x14
 927 02ca 07       		.byte	0x7
 928 02cb 6B01     		.2byte	0x16b
 929 02cd 13030000 		.4byte	0x313
 930 02d1 08       		.uleb128 0x8
 931 02d2 E9040000 		.4byte	.LASF55
 932 02d6 07       		.byte	0x7
 933 02d7 6C01     		.2byte	0x16c
 934 02d9 A1060000 		.4byte	0x6a1
 935 02dd 00       		.byte	0
 936 02de 08       		.uleb128 0x8
 937 02df 54050000 		.4byte	.LASF56
 938 02e3 07       		.byte	0x7
 939 02e4 6D01     		.2byte	0x16d
 940 02e6 A1060000 		.4byte	0x6a1
 941 02ea 04       		.byte	0x4
 942 02eb 08       		.uleb128 0x8
 943 02ec F8010000 		.4byte	.LASF57
 944 02f0 07       		.byte	0x7
 945 02f1 6E01     		.2byte	0x16e
 946 02f3 0C010000 		.4byte	0x10c
 947 02f7 08       		.byte	0x8
 948 02f8 08       		.uleb128 0x8
 949 02f9 4C050000 		.4byte	.LASF58
 950 02fd 07       		.byte	0x7
 951 02fe 6F01     		.2byte	0x16f
 952 0300 9B020000 		.4byte	0x29b
 953 0304 0C       		.byte	0xc
 954 0305 08       		.uleb128 0x8
 955 0306 19010000 		.4byte	.LASF59
 956 030a 07       		.byte	0x7
 957 030b 7101     		.2byte	0x171
 958 030d B7020000 		.4byte	0x2b7
 959 0311 10       		.byte	0x10
 960 0312 00       		.byte	0
 961 0313 04       		.uleb128 0x4
 962 0314 C2040000 		.4byte	.LASF60
 963 0318 06       		.byte	0x6
 964 0319 66       		.byte	0x66
 965 031a 1E030000 		.4byte	0x31e
 966 031e 0A       		.uleb128 0xa
 967 031f 9A010000 		.4byte	.LASF61
 968 0323 0C       		.byte	0xc
 969 0324 07       		.byte	0x7
 970 0325 7B01     		.2byte	0x17b
 971 0327 60030000 		.4byte	0x360
 972 032b 08       		.uleb128 0x8
 973 032c E9040000 		.4byte	.LASF55
 974 0330 07       		.byte	0x7
 975 0331 7C01     		.2byte	0x17c
 976 0333 A1060000 		.4byte	0x6a1
 977 0337 00       		.byte	0
ARM GAS  /tmp/ccM4pwwM.s 			page 35


 978 0338 08       		.uleb128 0x8
 979 0339 54050000 		.4byte	.LASF56
 980 033d 07       		.byte	0x7
 981 033e 7E01     		.2byte	0x17e
 982 0340 A1060000 		.4byte	0x6a1
 983 0344 04       		.byte	0x4
 984 0345 08       		.uleb128 0x8
 985 0346 F8010000 		.4byte	.LASF57
 986 034a 07       		.byte	0x7
 987 034b 8001     		.2byte	0x180
 988 034d 0C010000 		.4byte	0x10c
 989 0351 08       		.byte	0x8
 990 0352 08       		.uleb128 0x8
 991 0353 14020000 		.4byte	.LASF62
 992 0357 07       		.byte	0x7
 993 0358 8801     		.2byte	0x188
 994 035a 0C010000 		.4byte	0x10c
 995 035e 0A       		.byte	0xa
 996 035f 00       		.byte	0
 997 0360 04       		.uleb128 0x4
 998 0361 72020000 		.4byte	.LASF63
 999 0365 06       		.byte	0x6
 1000 0366 6B       		.byte	0x6b
 1001 0367 6B030000 		.4byte	0x36b
 1002 036b 0A       		.uleb128 0xa
 1003 036c E9000000 		.4byte	.LASF64
 1004 0370 04       		.byte	0x4
 1005 0371 07       		.byte	0x7
 1006 0372 A201     		.2byte	0x1a2
 1007 0374 86030000 		.4byte	0x386
 1008 0378 08       		.uleb128 0x8
 1009 0379 83030000 		.4byte	.LASF65
 1010 037d 07       		.byte	0x7
 1011 037e AA01     		.2byte	0x1aa
 1012 0380 A7060000 		.4byte	0x6a7
 1013 0384 00       		.byte	0
 1014 0385 00       		.byte	0
 1015 0386 04       		.uleb128 0x4
 1016 0387 F1040000 		.4byte	.LASF66
 1017 038b 06       		.byte	0x6
 1018 038c 70       		.byte	0x70
 1019 038d 91030000 		.4byte	0x391
 1020 0391 0E       		.uleb128 0xe
 1021 0392 20040000 		.4byte	.LASF67
 1022 0396 2801     		.2byte	0x128
 1023 0398 07       		.byte	0x7
 1024 0399 C201     		.2byte	0x1c2
 1025 039b E1030000 		.4byte	0x3e1
 1026 039f 08       		.uleb128 0x8
 1027 03a0 4C040000 		.4byte	.LASF68
 1028 03a4 07       		.byte	0x7
 1029 03a5 C601     		.2byte	0x1c6
 1030 03a7 34020000 		.4byte	0x234
 1031 03ab 00       		.byte	0
 1032 03ac 08       		.uleb128 0x8
 1033 03ad A0000000 		.4byte	.LASF69
 1034 03b1 07       		.byte	0x7
ARM GAS  /tmp/ccM4pwwM.s 			page 36


 1035 03b2 CA01     		.2byte	0x1ca
 1036 03b4 13030000 		.4byte	0x313
 1037 03b8 1C       		.byte	0x1c
 1038 03b9 07       		.uleb128 0x7
 1039 03ba 64626700 		.ascii	"dbg\000"
 1040 03be 07       		.byte	0x7
 1041 03bf CE01     		.2byte	0x1ce
 1042 03c1 60030000 		.4byte	0x360
 1043 03c5 28       		.byte	0x28
 1044 03c6 08       		.uleb128 0x8
 1045 03c7 A3030000 		.4byte	.LASF70
 1046 03cb 07       		.byte	0x7
 1047 03cc D201     		.2byte	0x1d2
 1048 03ce 17010000 		.4byte	0x117
 1049 03d2 2C       		.byte	0x2c
 1050 03d3 08       		.uleb128 0x8
 1051 03d4 B5000000 		.4byte	.LASF71
 1052 03d8 07       		.byte	0x7
 1053 03d9 E301     		.2byte	0x1e3
 1054 03db AC060000 		.4byte	0x6ac
 1055 03df 60       		.byte	0x60
 1056 03e0 00       		.byte	0
 1057 03e1 03       		.uleb128 0x3
 1058 03e2 04       		.byte	0x4
 1059 03e3 07       		.byte	0x7
 1060 03e4 71040000 		.4byte	.LASF72
 1061 03e8 0F       		.uleb128 0xf
 1062 03e9 BF000000 		.4byte	0xbf
 1063 03ed 10       		.uleb128 0x10
 1064 03ee BF000000 		.4byte	0xbf
 1065 03f2 FD030000 		.4byte	0x3fd
 1066 03f6 11       		.uleb128 0x11
 1067 03f7 E1030000 		.4byte	0x3e1
 1068 03fb 01       		.byte	0x1
 1069 03fc 00       		.byte	0
 1070 03fd 10       		.uleb128 0x10
 1071 03fe BF000000 		.4byte	0xbf
 1072 0402 0D040000 		.4byte	0x40d
 1073 0406 11       		.uleb128 0x11
 1074 0407 E1030000 		.4byte	0x3e1
 1075 040b 03       		.byte	0x3
 1076 040c 00       		.byte	0
 1077 040d 04       		.uleb128 0x4
 1078 040e 36000000 		.4byte	.LASF73
 1079 0412 08       		.byte	0x8
 1080 0413 65       		.byte	0x65
 1081 0414 B7020000 		.4byte	0x2b7
 1082 0418 04       		.uleb128 0x4
 1083 0419 41050000 		.4byte	.LASF74
 1084 041d 08       		.byte	0x8
 1085 041e 6D       		.byte	0x6d
 1086 041f CA000000 		.4byte	0xca
 1087 0423 05       		.uleb128 0x5
 1088 0424 A5020000 		.4byte	.LASF75
 1089 0428 04       		.byte	0x4
 1090 0429 08       		.byte	0x8
 1091 042a 89       		.byte	0x89
ARM GAS  /tmp/ccM4pwwM.s 			page 37


 1092 042b 3C040000 		.4byte	0x43c
 1093 042f 12       		.uleb128 0x12
 1094 0430 72313300 		.ascii	"r13\000"
 1095 0434 08       		.byte	0x8
 1096 0435 8A       		.byte	0x8a
 1097 0436 AE040000 		.4byte	0x4ae
 1098 043a 00       		.byte	0
 1099 043b 00       		.byte	0
 1100 043c 05       		.uleb128 0x5
 1101 043d 02040000 		.4byte	.LASF76
 1102 0441 24       		.byte	0x24
 1103 0442 09       		.byte	0x9
 1104 0443 A4       		.byte	0xa4
 1105 0444 AE040000 		.4byte	0x4ae
 1106 0448 12       		.uleb128 0x12
 1107 0449 723800   		.ascii	"r8\000"
 1108 044c 09       		.byte	0x9
 1109 044d A5       		.byte	0xa5
 1110 044e 0D040000 		.4byte	0x40d
 1111 0452 00       		.byte	0
 1112 0453 12       		.uleb128 0x12
 1113 0454 723900   		.ascii	"r9\000"
 1114 0457 09       		.byte	0x9
 1115 0458 A6       		.byte	0xa6
 1116 0459 0D040000 		.4byte	0x40d
 1117 045d 04       		.byte	0x4
 1118 045e 12       		.uleb128 0x12
 1119 045f 72313000 		.ascii	"r10\000"
 1120 0463 09       		.byte	0x9
 1121 0464 A7       		.byte	0xa7
 1122 0465 0D040000 		.4byte	0x40d
 1123 0469 08       		.byte	0x8
 1124 046a 12       		.uleb128 0x12
 1125 046b 72313100 		.ascii	"r11\000"
 1126 046f 09       		.byte	0x9
 1127 0470 A8       		.byte	0xa8
 1128 0471 0D040000 		.4byte	0x40d
 1129 0475 0C       		.byte	0xc
 1130 0476 12       		.uleb128 0x12
 1131 0477 723400   		.ascii	"r4\000"
 1132 047a 09       		.byte	0x9
 1133 047b A9       		.byte	0xa9
 1134 047c 0D040000 		.4byte	0x40d
 1135 0480 10       		.byte	0x10
 1136 0481 12       		.uleb128 0x12
 1137 0482 723500   		.ascii	"r5\000"
 1138 0485 09       		.byte	0x9
 1139 0486 AA       		.byte	0xaa
 1140 0487 0D040000 		.4byte	0x40d
 1141 048b 14       		.byte	0x14
 1142 048c 12       		.uleb128 0x12
 1143 048d 723600   		.ascii	"r6\000"
 1144 0490 09       		.byte	0x9
 1145 0491 AB       		.byte	0xab
 1146 0492 0D040000 		.4byte	0x40d
 1147 0496 18       		.byte	0x18
 1148 0497 12       		.uleb128 0x12
ARM GAS  /tmp/ccM4pwwM.s 			page 38


 1149 0498 723700   		.ascii	"r7\000"
 1150 049b 09       		.byte	0x9
 1151 049c AC       		.byte	0xac
 1152 049d 0D040000 		.4byte	0x40d
 1153 04a1 1C       		.byte	0x1c
 1154 04a2 12       		.uleb128 0x12
 1155 04a3 6C7200   		.ascii	"lr\000"
 1156 04a6 09       		.byte	0x9
 1157 04a7 AD       		.byte	0xad
 1158 04a8 0D040000 		.4byte	0x40d
 1159 04ac 20       		.byte	0x20
 1160 04ad 00       		.byte	0
 1161 04ae 09       		.uleb128 0x9
 1162 04af 04       		.byte	0x4
 1163 04b0 3C040000 		.4byte	0x43c
 1164 04b4 13       		.uleb128 0x13
 1165 04b5 60       		.byte	0x60
 1166 04b6 0A       		.byte	0xa
 1167 04b7 A101     		.2byte	0x1a1
 1168 04b9 C0050000 		.4byte	0x5c0
 1169 04bd 07       		.uleb128 0x7
 1170 04be 43523100 		.ascii	"CR1\000"
 1171 04c2 0A       		.byte	0xa
 1172 04c3 A201     		.2byte	0x1a2
 1173 04c5 E8030000 		.4byte	0x3e8
 1174 04c9 00       		.byte	0
 1175 04ca 07       		.uleb128 0x7
 1176 04cb 43523200 		.ascii	"CR2\000"
 1177 04cf 0A       		.byte	0xa
 1178 04d0 A301     		.2byte	0x1a3
 1179 04d2 E8030000 		.4byte	0x3e8
 1180 04d6 04       		.byte	0x4
 1181 04d7 08       		.uleb128 0x8
 1182 04d8 63020000 		.4byte	.LASF77
 1183 04dc 0A       		.byte	0xa
 1184 04dd A401     		.2byte	0x1a4
 1185 04df E8030000 		.4byte	0x3e8
 1186 04e3 08       		.byte	0x8
 1187 04e4 08       		.uleb128 0x8
 1188 04e5 E7010000 		.4byte	.LASF78
 1189 04e9 0A       		.byte	0xa
 1190 04ea A501     		.2byte	0x1a5
 1191 04ec E8030000 		.4byte	0x3e8
 1192 04f0 0C       		.byte	0xc
 1193 04f1 07       		.uleb128 0x7
 1194 04f2 535200   		.ascii	"SR\000"
 1195 04f5 0A       		.byte	0xa
 1196 04f6 A601     		.2byte	0x1a6
 1197 04f8 E8030000 		.4byte	0x3e8
 1198 04fc 10       		.byte	0x10
 1199 04fd 07       		.uleb128 0x7
 1200 04fe 45475200 		.ascii	"EGR\000"
 1201 0502 0A       		.byte	0xa
 1202 0503 A701     		.2byte	0x1a7
 1203 0505 E8030000 		.4byte	0x3e8
 1204 0509 14       		.byte	0x14
 1205 050a 08       		.uleb128 0x8
ARM GAS  /tmp/ccM4pwwM.s 			page 39


 1206 050b 53010000 		.4byte	.LASF79
 1207 050f 0A       		.byte	0xa
 1208 0510 A801     		.2byte	0x1a8
 1209 0512 E8030000 		.4byte	0x3e8
 1210 0516 18       		.byte	0x18
 1211 0517 08       		.uleb128 0x8
 1212 0518 59010000 		.4byte	.LASF80
 1213 051c 0A       		.byte	0xa
 1214 051d A901     		.2byte	0x1a9
 1215 051f E8030000 		.4byte	0x3e8
 1216 0523 1C       		.byte	0x1c
 1217 0524 08       		.uleb128 0x8
 1218 0525 F3010000 		.4byte	.LASF81
 1219 0529 0A       		.byte	0xa
 1220 052a AA01     		.2byte	0x1aa
 1221 052c E8030000 		.4byte	0x3e8
 1222 0530 20       		.byte	0x20
 1223 0531 07       		.uleb128 0x7
 1224 0532 434E5400 		.ascii	"CNT\000"
 1225 0536 0A       		.byte	0xa
 1226 0537 AB01     		.2byte	0x1ab
 1227 0539 E8030000 		.4byte	0x3e8
 1228 053d 24       		.byte	0x24
 1229 053e 07       		.uleb128 0x7
 1230 053f 50534300 		.ascii	"PSC\000"
 1231 0543 0A       		.byte	0xa
 1232 0544 AC01     		.2byte	0x1ac
 1233 0546 E8030000 		.4byte	0x3e8
 1234 054a 28       		.byte	0x28
 1235 054b 07       		.uleb128 0x7
 1236 054c 41525200 		.ascii	"ARR\000"
 1237 0550 0A       		.byte	0xa
 1238 0551 AD01     		.2byte	0x1ad
 1239 0553 E8030000 		.4byte	0x3e8
 1240 0557 2C       		.byte	0x2c
 1241 0558 07       		.uleb128 0x7
 1242 0559 52435200 		.ascii	"RCR\000"
 1243 055d 0A       		.byte	0xa
 1244 055e AE01     		.2byte	0x1ae
 1245 0560 E8030000 		.4byte	0x3e8
 1246 0564 30       		.byte	0x30
 1247 0565 07       		.uleb128 0x7
 1248 0566 43435200 		.ascii	"CCR\000"
 1249 056a 0A       		.byte	0xa
 1250 056b AF01     		.2byte	0x1af
 1251 056d C0050000 		.4byte	0x5c0
 1252 0571 34       		.byte	0x34
 1253 0572 08       		.uleb128 0x8
 1254 0573 14010000 		.4byte	.LASF82
 1255 0577 0A       		.byte	0xa
 1256 0578 B001     		.2byte	0x1b0
 1257 057a E8030000 		.4byte	0x3e8
 1258 057e 44       		.byte	0x44
 1259 057f 07       		.uleb128 0x7
 1260 0580 44435200 		.ascii	"DCR\000"
 1261 0584 0A       		.byte	0xa
 1262 0585 B101     		.2byte	0x1b1
ARM GAS  /tmp/ccM4pwwM.s 			page 40


 1263 0587 E8030000 		.4byte	0x3e8
 1264 058b 48       		.byte	0x48
 1265 058c 08       		.uleb128 0x8
 1266 058d D5000000 		.4byte	.LASF83
 1267 0591 0A       		.byte	0xa
 1268 0592 B201     		.2byte	0x1b2
 1269 0594 E8030000 		.4byte	0x3e8
 1270 0598 4C       		.byte	0x4c
 1271 0599 07       		.uleb128 0x7
 1272 059a 4F5200   		.ascii	"OR\000"
 1273 059d 0A       		.byte	0xa
 1274 059e B301     		.2byte	0x1b3
 1275 05a0 E8030000 		.4byte	0x3e8
 1276 05a4 50       		.byte	0x50
 1277 05a5 08       		.uleb128 0x8
 1278 05a6 5F010000 		.4byte	.LASF84
 1279 05aa 0A       		.byte	0xa
 1280 05ab B401     		.2byte	0x1b4
 1281 05ad E8030000 		.4byte	0x3e8
 1282 05b1 54       		.byte	0x54
 1283 05b2 08       		.uleb128 0x8
 1284 05b3 BF030000 		.4byte	.LASF85
 1285 05b7 0A       		.byte	0xa
 1286 05b8 B501     		.2byte	0x1b5
 1287 05ba C5050000 		.4byte	0x5c5
 1288 05be 58       		.byte	0x58
 1289 05bf 00       		.byte	0
 1290 05c0 0F       		.uleb128 0xf
 1291 05c1 FD030000 		.4byte	0x3fd
 1292 05c5 0F       		.uleb128 0xf
 1293 05c6 ED030000 		.4byte	0x3ed
 1294 05ca 14       		.uleb128 0x14
 1295 05cb C1010000 		.4byte	.LASF86
 1296 05cf 0A       		.byte	0xa
 1297 05d0 B601     		.2byte	0x1b6
 1298 05d2 B4040000 		.4byte	0x4b4
 1299 05d6 15       		.uleb128 0x15
 1300 05d7 04       		.byte	0x4
 1301 05d8 07       		.byte	0x7
 1302 05d9 FA       		.byte	0xfa
 1303 05da 27060000 		.4byte	0x627
 1304 05de 16       		.uleb128 0x16
 1305 05df BA010000 		.4byte	.LASF87
 1306 05e3 07       		.byte	0x7
 1307 05e4 0101     		.2byte	0x101
 1308 05e6 F6000000 		.4byte	0xf6
 1309 05ea 16       		.uleb128 0x16
 1310 05eb 5C050000 		.4byte	.LASF88
 1311 05ef 07       		.byte	0x7
 1312 05f0 0801     		.2byte	0x108
 1313 05f2 F6000000 		.4byte	0xf6
 1314 05f6 16       		.uleb128 0x16
 1315 05f7 99000000 		.4byte	.LASF89
 1316 05fb 07       		.byte	0x7
 1317 05fc 0F01     		.2byte	0x10f
 1318 05fe B7020000 		.4byte	0x2b7
 1319 0602 16       		.uleb128 0x16
ARM GAS  /tmp/ccM4pwwM.s 			page 41


 1320 0603 04050000 		.4byte	.LASF90
 1321 0607 07       		.byte	0x7
 1322 0608 1601     		.2byte	0x116
 1323 060a 27060000 		.4byte	0x627
 1324 060e 16       		.uleb128 0x16
 1325 060f FD040000 		.4byte	.LASF91
 1326 0613 07       		.byte	0x7
 1327 0614 1E01     		.2byte	0x11e
 1328 0616 52060000 		.4byte	0x652
 1329 061a 16       		.uleb128 0x16
 1330 061b 2A000000 		.4byte	.LASF92
 1331 061f 07       		.byte	0x7
 1332 0620 2701     		.2byte	0x127
 1333 0622 89060000 		.4byte	0x689
 1334 0626 00       		.byte	0
 1335 0627 09       		.uleb128 0x9
 1336 0628 04       		.byte	0x4
 1337 0629 CF010000 		.4byte	0x1cf
 1338 062d 05       		.uleb128 0x5
 1339 062e 2D010000 		.4byte	.LASF93
 1340 0632 0C       		.byte	0xc
 1341 0633 0B       		.byte	0xb
 1342 0634 34       		.byte	0x34
 1343 0635 52060000 		.4byte	0x652
 1344 0639 06       		.uleb128 0x6
 1345 063a 6B000000 		.4byte	.LASF94
 1346 063e 0B       		.byte	0xb
 1347 063f 35       		.byte	0x35
 1348 0640 04020000 		.4byte	0x204
 1349 0644 00       		.byte	0
 1350 0645 06       		.uleb128 0x6
 1351 0646 E3000000 		.4byte	.LASF95
 1352 064a 0B       		.byte	0xb
 1353 064b 37       		.byte	0x37
 1354 064c 01010000 		.4byte	0x101
 1355 0650 08       		.byte	0x8
 1356 0651 00       		.byte	0
 1357 0652 09       		.uleb128 0x9
 1358 0653 04       		.byte	0x4
 1359 0654 2D060000 		.4byte	0x62d
 1360 0658 05       		.uleb128 0x5
 1361 0659 D3010000 		.4byte	.LASF96
 1362 065d 10       		.byte	0x10
 1363 065e 0C       		.byte	0xc
 1364 065f 39       		.byte	0x39
 1365 0660 89060000 		.4byte	0x689
 1366 0664 06       		.uleb128 0x6
 1367 0665 F1030000 		.4byte	.LASF97
 1368 0669 0C       		.byte	0xc
 1369 066a 3A       		.byte	0x3a
 1370 066b 04020000 		.4byte	0x204
 1371 066f 00       		.byte	0
 1372 0670 06       		.uleb128 0x6
 1373 0671 63000000 		.4byte	.LASF98
 1374 0675 0C       		.byte	0xc
 1375 0676 3C       		.byte	0x3c
 1376 0677 DA010000 		.4byte	0x1da
ARM GAS  /tmp/ccM4pwwM.s 			page 42


 1377 067b 08       		.byte	0x8
 1378 067c 06       		.uleb128 0x6
 1379 067d 0A050000 		.4byte	.LASF99
 1380 0681 0C       		.byte	0xc
 1381 0682 3E       		.byte	0x3e
 1382 0683 C7060000 		.4byte	0x6c7
 1383 0687 0C       		.byte	0xc
 1384 0688 00       		.byte	0
 1385 0689 09       		.uleb128 0x9
 1386 068a 04       		.byte	0x4
 1387 068b 58060000 		.4byte	0x658
 1388 068f 09       		.uleb128 0x9
 1389 0690 04       		.byte	0x4
 1390 0691 95060000 		.4byte	0x695
 1391 0695 17       		.uleb128 0x17
 1392 0696 9A060000 		.4byte	0x69a
 1393 069a 03       		.uleb128 0x3
 1394 069b 01       		.byte	0x1
 1395 069c 08       		.byte	0x8
 1396 069d 31000000 		.4byte	.LASF100
 1397 06a1 09       		.uleb128 0x9
 1398 06a2 04       		.byte	0x4
 1399 06a3 B9020000 		.4byte	0x2b9
 1400 06a7 0F       		.uleb128 0xf
 1401 06a8 8F060000 		.4byte	0x68f
 1402 06ac 10       		.uleb128 0x10
 1403 06ad 18040000 		.4byte	0x418
 1404 06b1 BC060000 		.4byte	0x6bc
 1405 06b5 11       		.uleb128 0x11
 1406 06b6 E1030000 		.4byte	0x3e1
 1407 06ba 18       		.byte	0x18
 1408 06bb 00       		.byte	0
 1409 06bc 04       		.uleb128 0x4
 1410 06bd A1040000 		.4byte	.LASF101
 1411 06c1 0C       		.byte	0xc
 1412 06c2 34       		.byte	0x34
 1413 06c3 58060000 		.4byte	0x658
 1414 06c7 09       		.uleb128 0x9
 1415 06c8 04       		.byte	0x4
 1416 06c9 BC060000 		.4byte	0x6bc
 1417 06cd 03       		.uleb128 0x3
 1418 06ce 01       		.byte	0x1
 1419 06cf 02       		.byte	0x2
 1420 06d0 CD010000 		.4byte	.LASF102
 1421 06d4 18       		.uleb128 0x18
 1422 06d5 3F000000 		.4byte	.LASF103
 1423 06d9 01       		.byte	0x1
 1424 06da 99       		.byte	0x99
 1425 06db 00000000 		.4byte	.LFB47
 1426 06df 28000000 		.4byte	.LFE47-.LFB47
 1427 06e3 01       		.uleb128 0x1
 1428 06e4 9C       		.byte	0x9c
 1429 06e5 F8060000 		.4byte	0x6f8
 1430 06e9 19       		.uleb128 0x19
 1431 06ea 8D010000 		.4byte	.LASF105
 1432 06ee 01       		.byte	0x1
 1433 06ef 99       		.byte	0x99
ARM GAS  /tmp/ccM4pwwM.s 			page 43


 1434 06f0 0C010000 		.4byte	0x10c
 1435 06f4 02       		.uleb128 0x2
 1436 06f5 91       		.byte	0x91
 1437 06f6 7E       		.sleb128 -2
 1438 06f7 00       		.byte	0
 1439 06f8 1A       		.uleb128 0x1a
 1440 06f9 0E040000 		.4byte	.LASF116
 1441 06fd 01       		.byte	0x1
 1442 06fe A5       		.byte	0xa5
 1443 06ff 00000000 		.4byte	.LFB48
 1444 0703 0C000000 		.4byte	.LFE48-.LFB48
 1445 0707 01       		.uleb128 0x1
 1446 0708 9C       		.byte	0x9c
 1447 0709 18       		.uleb128 0x18
 1448 070a D8040000 		.4byte	.LASF104
 1449 070e 01       		.byte	0x1
 1450 070f B1       		.byte	0xb1
 1451 0710 00000000 		.4byte	.LFB49
 1452 0714 1C000000 		.4byte	.LFE49-.LFB49
 1453 0718 01       		.uleb128 0x1
 1454 0719 9C       		.byte	0x9c
 1455 071a 2D070000 		.4byte	0x72d
 1456 071e 19       		.uleb128 0x19
 1457 071f 8D010000 		.4byte	.LASF105
 1458 0723 01       		.byte	0x1
 1459 0724 B1       		.byte	0xb1
 1460 0725 0C010000 		.4byte	0x10c
 1461 0729 02       		.uleb128 0x2
 1462 072a 91       		.byte	0x91
 1463 072b 7E       		.sleb128 -2
 1464 072c 00       		.byte	0
 1465 072d 1B       		.uleb128 0x1b
 1466 072e 20020000 		.4byte	.LASF117
 1467 0732 01       		.byte	0x1
 1468 0733 BD       		.byte	0xbd
 1469 0734 0C010000 		.4byte	0x10c
 1470 0738 00000000 		.4byte	.LFB50
 1471 073c 10000000 		.4byte	.LFE50-.LFB50
 1472 0740 01       		.uleb128 0x1
 1473 0741 9C       		.byte	0x9c
 1474 0742 1C       		.uleb128 0x1c
 1475 0743 3A020000 		.4byte	.LASF107
 1476 0747 02       		.byte	0x2
 1477 0748 3C       		.byte	0x3c
 1478 0749 00000000 		.4byte	.LFB149
 1479 074d 08000000 		.4byte	.LFE149-.LFB149
 1480 0751 01       		.uleb128 0x1
 1481 0752 9C       		.byte	0x9c
 1482 0753 1D       		.uleb128 0x1d
 1483 0754 20010000 		.4byte	.LASF109
 1484 0758 02       		.byte	0x2
 1485 0759 4D       		.byte	0x4d
 1486 075a 00000000 		.4byte	.LFB150
 1487 075e 1C000000 		.4byte	.LFE150-.LFB150
 1488 0762 01       		.uleb128 0x1
 1489 0763 9C       		.byte	0x9c
 1490 0764 80070000 		.4byte	0x780
ARM GAS  /tmp/ccM4pwwM.s 			page 44


 1491 0768 19       		.uleb128 0x19
 1492 0769 AE030000 		.4byte	.LASF106
 1493 076d 02       		.byte	0x2
 1494 076e 4D       		.byte	0x4d
 1495 076f 0C010000 		.4byte	0x10c
 1496 0773 02       		.uleb128 0x2
 1497 0774 91       		.byte	0x91
 1498 0775 76       		.sleb128 -10
 1499 0776 1E       		.uleb128 0x1e
 1500 0777 95030000 		.4byte	.LASF111
 1501 077b 90070000 		.4byte	0x790
 1502 077f 00       		.byte	0
 1503 0780 10       		.uleb128 0x10
 1504 0781 9A060000 		.4byte	0x69a
 1505 0785 90070000 		.4byte	0x790
 1506 0789 11       		.uleb128 0x11
 1507 078a E1030000 		.4byte	0x3e1
 1508 078e 0C       		.byte	0xc
 1509 078f 00       		.byte	0
 1510 0790 17       		.uleb128 0x17
 1511 0791 80070000 		.4byte	0x780
 1512 0795 1C       		.uleb128 0x1c
 1513 0796 31040000 		.4byte	.LASF108
 1514 079a 02       		.byte	0x2
 1515 079b 5B       		.byte	0x5b
 1516 079c 00000000 		.4byte	.LFB151
 1517 07a0 08000000 		.4byte	.LFE151-.LFB151
 1518 07a4 01       		.uleb128 0x1
 1519 07a5 9C       		.byte	0x9c
 1520 07a6 1D       		.uleb128 0x1d
 1521 07a7 02010000 		.4byte	.LASF110
 1522 07ab 02       		.byte	0x2
 1523 07ac 69       		.byte	0x69
 1524 07ad 00000000 		.4byte	.LFB152
 1525 07b1 1C000000 		.4byte	.LFE152-.LFB152
 1526 07b5 01       		.uleb128 0x1
 1527 07b6 9C       		.byte	0x9c
 1528 07b7 D3070000 		.4byte	0x7d3
 1529 07bb 19       		.uleb128 0x19
 1530 07bc AE030000 		.4byte	.LASF106
 1531 07c0 02       		.byte	0x2
 1532 07c1 69       		.byte	0x69
 1533 07c2 0C010000 		.4byte	0x10c
 1534 07c6 02       		.uleb128 0x2
 1535 07c7 91       		.byte	0x91
 1536 07c8 76       		.sleb128 -10
 1537 07c9 1E       		.uleb128 0x1e
 1538 07ca D9030000 		.4byte	.LASF112
 1539 07ce E3070000 		.4byte	0x7e3
 1540 07d2 00       		.byte	0
 1541 07d3 10       		.uleb128 0x10
 1542 07d4 9A060000 		.4byte	0x69a
 1543 07d8 E3070000 		.4byte	0x7e3
 1544 07dc 11       		.uleb128 0x11
 1545 07dd E1030000 		.4byte	0x3e1
 1546 07e1 0A       		.byte	0xa
 1547 07e2 00       		.byte	0
ARM GAS  /tmp/ccM4pwwM.s 			page 45


 1548 07e3 17       		.uleb128 0x17
 1549 07e4 D3070000 		.4byte	0x7d3
 1550 07e8 1F       		.uleb128 0x1f
 1551 07e9 11050000 		.4byte	.LASF118
 1552 07ed 02       		.byte	0x2
 1553 07ee 79       		.byte	0x79
 1554 07ef 0C010000 		.4byte	0x10c
 1555 07f3 00000000 		.4byte	.LFB153
 1556 07f7 0C000000 		.4byte	.LFE153-.LFB153
 1557 07fb 01       		.uleb128 0x1
 1558 07fc 9C       		.byte	0x9c
 1559 07fd 0B080000 		.4byte	0x80b
 1560 0801 1E       		.uleb128 0x1e
 1561 0802 52040000 		.4byte	.LASF113
 1562 0806 0B080000 		.4byte	0x80b
 1563 080a 00       		.byte	0
 1564 080b 17       		.uleb128 0x17
 1565 080c D3070000 		.4byte	0x7d3
 1566 0810 20       		.uleb128 0x20
 1567 0811 636800   		.ascii	"ch\000"
 1568 0814 07       		.byte	0x7
 1569 0815 0902     		.2byte	0x209
 1570 0817 86030000 		.4byte	0x386
 1571 081b 00       		.byte	0
 1572              		.section	.debug_abbrev,"",%progbits
 1573              	.Ldebug_abbrev0:
 1574 0000 01       		.uleb128 0x1
 1575 0001 11       		.uleb128 0x11
 1576 0002 01       		.byte	0x1
 1577 0003 25       		.uleb128 0x25
 1578 0004 0E       		.uleb128 0xe
 1579 0005 13       		.uleb128 0x13
 1580 0006 0B       		.uleb128 0xb
 1581 0007 03       		.uleb128 0x3
 1582 0008 0E       		.uleb128 0xe
 1583 0009 55       		.uleb128 0x55
 1584 000a 17       		.uleb128 0x17
 1585 000b 11       		.uleb128 0x11
 1586 000c 01       		.uleb128 0x1
 1587 000d 10       		.uleb128 0x10
 1588 000e 17       		.uleb128 0x17
 1589 000f 00       		.byte	0
 1590 0010 00       		.byte	0
 1591 0011 02       		.uleb128 0x2
 1592 0012 24       		.uleb128 0x24
 1593 0013 00       		.byte	0
 1594 0014 0B       		.uleb128 0xb
 1595 0015 0B       		.uleb128 0xb
 1596 0016 3E       		.uleb128 0x3e
 1597 0017 0B       		.uleb128 0xb
 1598 0018 03       		.uleb128 0x3
 1599 0019 08       		.uleb128 0x8
 1600 001a 00       		.byte	0
 1601 001b 00       		.byte	0
 1602 001c 03       		.uleb128 0x3
 1603 001d 24       		.uleb128 0x24
 1604 001e 00       		.byte	0
ARM GAS  /tmp/ccM4pwwM.s 			page 46


 1605 001f 0B       		.uleb128 0xb
 1606 0020 0B       		.uleb128 0xb
 1607 0021 3E       		.uleb128 0x3e
 1608 0022 0B       		.uleb128 0xb
 1609 0023 03       		.uleb128 0x3
 1610 0024 0E       		.uleb128 0xe
 1611 0025 00       		.byte	0
 1612 0026 00       		.byte	0
 1613 0027 04       		.uleb128 0x4
 1614 0028 16       		.uleb128 0x16
 1615 0029 00       		.byte	0
 1616 002a 03       		.uleb128 0x3
 1617 002b 0E       		.uleb128 0xe
 1618 002c 3A       		.uleb128 0x3a
 1619 002d 0B       		.uleb128 0xb
 1620 002e 3B       		.uleb128 0x3b
 1621 002f 0B       		.uleb128 0xb
 1622 0030 49       		.uleb128 0x49
 1623 0031 13       		.uleb128 0x13
 1624 0032 00       		.byte	0
 1625 0033 00       		.byte	0
 1626 0034 05       		.uleb128 0x5
 1627 0035 13       		.uleb128 0x13
 1628 0036 01       		.byte	0x1
 1629 0037 03       		.uleb128 0x3
 1630 0038 0E       		.uleb128 0xe
 1631 0039 0B       		.uleb128 0xb
 1632 003a 0B       		.uleb128 0xb
 1633 003b 3A       		.uleb128 0x3a
 1634 003c 0B       		.uleb128 0xb
 1635 003d 3B       		.uleb128 0x3b
 1636 003e 0B       		.uleb128 0xb
 1637 003f 01       		.uleb128 0x1
 1638 0040 13       		.uleb128 0x13
 1639 0041 00       		.byte	0
 1640 0042 00       		.byte	0
 1641 0043 06       		.uleb128 0x6
 1642 0044 0D       		.uleb128 0xd
 1643 0045 00       		.byte	0
 1644 0046 03       		.uleb128 0x3
 1645 0047 0E       		.uleb128 0xe
 1646 0048 3A       		.uleb128 0x3a
 1647 0049 0B       		.uleb128 0xb
 1648 004a 3B       		.uleb128 0x3b
 1649 004b 0B       		.uleb128 0xb
 1650 004c 49       		.uleb128 0x49
 1651 004d 13       		.uleb128 0x13
 1652 004e 38       		.uleb128 0x38
 1653 004f 0B       		.uleb128 0xb
 1654 0050 00       		.byte	0
 1655 0051 00       		.byte	0
 1656 0052 07       		.uleb128 0x7
 1657 0053 0D       		.uleb128 0xd
 1658 0054 00       		.byte	0
 1659 0055 03       		.uleb128 0x3
 1660 0056 08       		.uleb128 0x8
 1661 0057 3A       		.uleb128 0x3a
ARM GAS  /tmp/ccM4pwwM.s 			page 47


 1662 0058 0B       		.uleb128 0xb
 1663 0059 3B       		.uleb128 0x3b
 1664 005a 05       		.uleb128 0x5
 1665 005b 49       		.uleb128 0x49
 1666 005c 13       		.uleb128 0x13
 1667 005d 38       		.uleb128 0x38
 1668 005e 0B       		.uleb128 0xb
 1669 005f 00       		.byte	0
 1670 0060 00       		.byte	0
 1671 0061 08       		.uleb128 0x8
 1672 0062 0D       		.uleb128 0xd
 1673 0063 00       		.byte	0
 1674 0064 03       		.uleb128 0x3
 1675 0065 0E       		.uleb128 0xe
 1676 0066 3A       		.uleb128 0x3a
 1677 0067 0B       		.uleb128 0xb
 1678 0068 3B       		.uleb128 0x3b
 1679 0069 05       		.uleb128 0x5
 1680 006a 49       		.uleb128 0x49
 1681 006b 13       		.uleb128 0x13
 1682 006c 38       		.uleb128 0x38
 1683 006d 0B       		.uleb128 0xb
 1684 006e 00       		.byte	0
 1685 006f 00       		.byte	0
 1686 0070 09       		.uleb128 0x9
 1687 0071 0F       		.uleb128 0xf
 1688 0072 00       		.byte	0
 1689 0073 0B       		.uleb128 0xb
 1690 0074 0B       		.uleb128 0xb
 1691 0075 49       		.uleb128 0x49
 1692 0076 13       		.uleb128 0x13
 1693 0077 00       		.byte	0
 1694 0078 00       		.byte	0
 1695 0079 0A       		.uleb128 0xa
 1696 007a 13       		.uleb128 0x13
 1697 007b 01       		.byte	0x1
 1698 007c 03       		.uleb128 0x3
 1699 007d 0E       		.uleb128 0xe
 1700 007e 0B       		.uleb128 0xb
 1701 007f 0B       		.uleb128 0xb
 1702 0080 3A       		.uleb128 0x3a
 1703 0081 0B       		.uleb128 0xb
 1704 0082 3B       		.uleb128 0x3b
 1705 0083 05       		.uleb128 0x5
 1706 0084 01       		.uleb128 0x1
 1707 0085 13       		.uleb128 0x13
 1708 0086 00       		.byte	0
 1709 0087 00       		.byte	0
 1710 0088 0B       		.uleb128 0xb
 1711 0089 15       		.uleb128 0x15
 1712 008a 01       		.byte	0x1
 1713 008b 27       		.uleb128 0x27
 1714 008c 19       		.uleb128 0x19
 1715 008d 01       		.uleb128 0x1
 1716 008e 13       		.uleb128 0x13
 1717 008f 00       		.byte	0
 1718 0090 00       		.byte	0
ARM GAS  /tmp/ccM4pwwM.s 			page 48


 1719 0091 0C       		.uleb128 0xc
 1720 0092 05       		.uleb128 0x5
 1721 0093 00       		.byte	0
 1722 0094 49       		.uleb128 0x49
 1723 0095 13       		.uleb128 0x13
 1724 0096 00       		.byte	0
 1725 0097 00       		.byte	0
 1726 0098 0D       		.uleb128 0xd
 1727 0099 0F       		.uleb128 0xf
 1728 009a 00       		.byte	0
 1729 009b 0B       		.uleb128 0xb
 1730 009c 0B       		.uleb128 0xb
 1731 009d 00       		.byte	0
 1732 009e 00       		.byte	0
 1733 009f 0E       		.uleb128 0xe
 1734 00a0 13       		.uleb128 0x13
 1735 00a1 01       		.byte	0x1
 1736 00a2 03       		.uleb128 0x3
 1737 00a3 0E       		.uleb128 0xe
 1738 00a4 0B       		.uleb128 0xb
 1739 00a5 05       		.uleb128 0x5
 1740 00a6 3A       		.uleb128 0x3a
 1741 00a7 0B       		.uleb128 0xb
 1742 00a8 3B       		.uleb128 0x3b
 1743 00a9 05       		.uleb128 0x5
 1744 00aa 01       		.uleb128 0x1
 1745 00ab 13       		.uleb128 0x13
 1746 00ac 00       		.byte	0
 1747 00ad 00       		.byte	0
 1748 00ae 0F       		.uleb128 0xf
 1749 00af 35       		.uleb128 0x35
 1750 00b0 00       		.byte	0
 1751 00b1 49       		.uleb128 0x49
 1752 00b2 13       		.uleb128 0x13
 1753 00b3 00       		.byte	0
 1754 00b4 00       		.byte	0
 1755 00b5 10       		.uleb128 0x10
 1756 00b6 01       		.uleb128 0x1
 1757 00b7 01       		.byte	0x1
 1758 00b8 49       		.uleb128 0x49
 1759 00b9 13       		.uleb128 0x13
 1760 00ba 01       		.uleb128 0x1
 1761 00bb 13       		.uleb128 0x13
 1762 00bc 00       		.byte	0
 1763 00bd 00       		.byte	0
 1764 00be 11       		.uleb128 0x11
 1765 00bf 21       		.uleb128 0x21
 1766 00c0 00       		.byte	0
 1767 00c1 49       		.uleb128 0x49
 1768 00c2 13       		.uleb128 0x13
 1769 00c3 2F       		.uleb128 0x2f
 1770 00c4 0B       		.uleb128 0xb
 1771 00c5 00       		.byte	0
 1772 00c6 00       		.byte	0
 1773 00c7 12       		.uleb128 0x12
 1774 00c8 0D       		.uleb128 0xd
 1775 00c9 00       		.byte	0
ARM GAS  /tmp/ccM4pwwM.s 			page 49


 1776 00ca 03       		.uleb128 0x3
 1777 00cb 08       		.uleb128 0x8
 1778 00cc 3A       		.uleb128 0x3a
 1779 00cd 0B       		.uleb128 0xb
 1780 00ce 3B       		.uleb128 0x3b
 1781 00cf 0B       		.uleb128 0xb
 1782 00d0 49       		.uleb128 0x49
 1783 00d1 13       		.uleb128 0x13
 1784 00d2 38       		.uleb128 0x38
 1785 00d3 0B       		.uleb128 0xb
 1786 00d4 00       		.byte	0
 1787 00d5 00       		.byte	0
 1788 00d6 13       		.uleb128 0x13
 1789 00d7 13       		.uleb128 0x13
 1790 00d8 01       		.byte	0x1
 1791 00d9 0B       		.uleb128 0xb
 1792 00da 0B       		.uleb128 0xb
 1793 00db 3A       		.uleb128 0x3a
 1794 00dc 0B       		.uleb128 0xb
 1795 00dd 3B       		.uleb128 0x3b
 1796 00de 05       		.uleb128 0x5
 1797 00df 01       		.uleb128 0x1
 1798 00e0 13       		.uleb128 0x13
 1799 00e1 00       		.byte	0
 1800 00e2 00       		.byte	0
 1801 00e3 14       		.uleb128 0x14
 1802 00e4 16       		.uleb128 0x16
 1803 00e5 00       		.byte	0
 1804 00e6 03       		.uleb128 0x3
 1805 00e7 0E       		.uleb128 0xe
 1806 00e8 3A       		.uleb128 0x3a
 1807 00e9 0B       		.uleb128 0xb
 1808 00ea 3B       		.uleb128 0x3b
 1809 00eb 05       		.uleb128 0x5
 1810 00ec 49       		.uleb128 0x49
 1811 00ed 13       		.uleb128 0x13
 1812 00ee 00       		.byte	0
 1813 00ef 00       		.byte	0
 1814 00f0 15       		.uleb128 0x15
 1815 00f1 17       		.uleb128 0x17
 1816 00f2 01       		.byte	0x1
 1817 00f3 0B       		.uleb128 0xb
 1818 00f4 0B       		.uleb128 0xb
 1819 00f5 3A       		.uleb128 0x3a
 1820 00f6 0B       		.uleb128 0xb
 1821 00f7 3B       		.uleb128 0x3b
 1822 00f8 0B       		.uleb128 0xb
 1823 00f9 01       		.uleb128 0x1
 1824 00fa 13       		.uleb128 0x13
 1825 00fb 00       		.byte	0
 1826 00fc 00       		.byte	0
 1827 00fd 16       		.uleb128 0x16
 1828 00fe 0D       		.uleb128 0xd
 1829 00ff 00       		.byte	0
 1830 0100 03       		.uleb128 0x3
 1831 0101 0E       		.uleb128 0xe
 1832 0102 3A       		.uleb128 0x3a
ARM GAS  /tmp/ccM4pwwM.s 			page 50


 1833 0103 0B       		.uleb128 0xb
 1834 0104 3B       		.uleb128 0x3b
 1835 0105 05       		.uleb128 0x5
 1836 0106 49       		.uleb128 0x49
 1837 0107 13       		.uleb128 0x13
 1838 0108 00       		.byte	0
 1839 0109 00       		.byte	0
 1840 010a 17       		.uleb128 0x17
 1841 010b 26       		.uleb128 0x26
 1842 010c 00       		.byte	0
 1843 010d 49       		.uleb128 0x49
 1844 010e 13       		.uleb128 0x13
 1845 010f 00       		.byte	0
 1846 0110 00       		.byte	0
 1847 0111 18       		.uleb128 0x18
 1848 0112 2E       		.uleb128 0x2e
 1849 0113 01       		.byte	0x1
 1850 0114 03       		.uleb128 0x3
 1851 0115 0E       		.uleb128 0xe
 1852 0116 3A       		.uleb128 0x3a
 1853 0117 0B       		.uleb128 0xb
 1854 0118 3B       		.uleb128 0x3b
 1855 0119 0B       		.uleb128 0xb
 1856 011a 27       		.uleb128 0x27
 1857 011b 19       		.uleb128 0x19
 1858 011c 11       		.uleb128 0x11
 1859 011d 01       		.uleb128 0x1
 1860 011e 12       		.uleb128 0x12
 1861 011f 06       		.uleb128 0x6
 1862 0120 40       		.uleb128 0x40
 1863 0121 18       		.uleb128 0x18
 1864 0122 9742     		.uleb128 0x2117
 1865 0124 19       		.uleb128 0x19
 1866 0125 01       		.uleb128 0x1
 1867 0126 13       		.uleb128 0x13
 1868 0127 00       		.byte	0
 1869 0128 00       		.byte	0
 1870 0129 19       		.uleb128 0x19
 1871 012a 05       		.uleb128 0x5
 1872 012b 00       		.byte	0
 1873 012c 03       		.uleb128 0x3
 1874 012d 0E       		.uleb128 0xe
 1875 012e 3A       		.uleb128 0x3a
 1876 012f 0B       		.uleb128 0xb
 1877 0130 3B       		.uleb128 0x3b
 1878 0131 0B       		.uleb128 0xb
 1879 0132 49       		.uleb128 0x49
 1880 0133 13       		.uleb128 0x13
 1881 0134 02       		.uleb128 0x2
 1882 0135 18       		.uleb128 0x18
 1883 0136 00       		.byte	0
 1884 0137 00       		.byte	0
 1885 0138 1A       		.uleb128 0x1a
 1886 0139 2E       		.uleb128 0x2e
 1887 013a 00       		.byte	0
 1888 013b 03       		.uleb128 0x3
 1889 013c 0E       		.uleb128 0xe
ARM GAS  /tmp/ccM4pwwM.s 			page 51


 1890 013d 3A       		.uleb128 0x3a
 1891 013e 0B       		.uleb128 0xb
 1892 013f 3B       		.uleb128 0x3b
 1893 0140 0B       		.uleb128 0xb
 1894 0141 27       		.uleb128 0x27
 1895 0142 19       		.uleb128 0x19
 1896 0143 11       		.uleb128 0x11
 1897 0144 01       		.uleb128 0x1
 1898 0145 12       		.uleb128 0x12
 1899 0146 06       		.uleb128 0x6
 1900 0147 40       		.uleb128 0x40
 1901 0148 18       		.uleb128 0x18
 1902 0149 9742     		.uleb128 0x2117
 1903 014b 19       		.uleb128 0x19
 1904 014c 00       		.byte	0
 1905 014d 00       		.byte	0
 1906 014e 1B       		.uleb128 0x1b
 1907 014f 2E       		.uleb128 0x2e
 1908 0150 00       		.byte	0
 1909 0151 03       		.uleb128 0x3
 1910 0152 0E       		.uleb128 0xe
 1911 0153 3A       		.uleb128 0x3a
 1912 0154 0B       		.uleb128 0xb
 1913 0155 3B       		.uleb128 0x3b
 1914 0156 0B       		.uleb128 0xb
 1915 0157 27       		.uleb128 0x27
 1916 0158 19       		.uleb128 0x19
 1917 0159 49       		.uleb128 0x49
 1918 015a 13       		.uleb128 0x13
 1919 015b 11       		.uleb128 0x11
 1920 015c 01       		.uleb128 0x1
 1921 015d 12       		.uleb128 0x12
 1922 015e 06       		.uleb128 0x6
 1923 015f 40       		.uleb128 0x40
 1924 0160 18       		.uleb128 0x18
 1925 0161 9742     		.uleb128 0x2117
 1926 0163 19       		.uleb128 0x19
 1927 0164 00       		.byte	0
 1928 0165 00       		.byte	0
 1929 0166 1C       		.uleb128 0x1c
 1930 0167 2E       		.uleb128 0x2e
 1931 0168 00       		.byte	0
 1932 0169 3F       		.uleb128 0x3f
 1933 016a 19       		.uleb128 0x19
 1934 016b 03       		.uleb128 0x3
 1935 016c 0E       		.uleb128 0xe
 1936 016d 3A       		.uleb128 0x3a
 1937 016e 0B       		.uleb128 0xb
 1938 016f 3B       		.uleb128 0x3b
 1939 0170 0B       		.uleb128 0xb
 1940 0171 27       		.uleb128 0x27
 1941 0172 19       		.uleb128 0x19
 1942 0173 11       		.uleb128 0x11
 1943 0174 01       		.uleb128 0x1
 1944 0175 12       		.uleb128 0x12
 1945 0176 06       		.uleb128 0x6
 1946 0177 40       		.uleb128 0x40
ARM GAS  /tmp/ccM4pwwM.s 			page 52


 1947 0178 18       		.uleb128 0x18
 1948 0179 9642     		.uleb128 0x2116
 1949 017b 19       		.uleb128 0x19
 1950 017c 00       		.byte	0
 1951 017d 00       		.byte	0
 1952 017e 1D       		.uleb128 0x1d
 1953 017f 2E       		.uleb128 0x2e
 1954 0180 01       		.byte	0x1
 1955 0181 3F       		.uleb128 0x3f
 1956 0182 19       		.uleb128 0x19
 1957 0183 03       		.uleb128 0x3
 1958 0184 0E       		.uleb128 0xe
 1959 0185 3A       		.uleb128 0x3a
 1960 0186 0B       		.uleb128 0xb
 1961 0187 3B       		.uleb128 0x3b
 1962 0188 0B       		.uleb128 0xb
 1963 0189 27       		.uleb128 0x27
 1964 018a 19       		.uleb128 0x19
 1965 018b 11       		.uleb128 0x11
 1966 018c 01       		.uleb128 0x1
 1967 018d 12       		.uleb128 0x12
 1968 018e 06       		.uleb128 0x6
 1969 018f 40       		.uleb128 0x40
 1970 0190 18       		.uleb128 0x18
 1971 0191 9642     		.uleb128 0x2116
 1972 0193 19       		.uleb128 0x19
 1973 0194 01       		.uleb128 0x1
 1974 0195 13       		.uleb128 0x13
 1975 0196 00       		.byte	0
 1976 0197 00       		.byte	0
 1977 0198 1E       		.uleb128 0x1e
 1978 0199 34       		.uleb128 0x34
 1979 019a 00       		.byte	0
 1980 019b 03       		.uleb128 0x3
 1981 019c 0E       		.uleb128 0xe
 1982 019d 49       		.uleb128 0x49
 1983 019e 13       		.uleb128 0x13
 1984 019f 34       		.uleb128 0x34
 1985 01a0 19       		.uleb128 0x19
 1986 01a1 00       		.byte	0
 1987 01a2 00       		.byte	0
 1988 01a3 1F       		.uleb128 0x1f
 1989 01a4 2E       		.uleb128 0x2e
 1990 01a5 01       		.byte	0x1
 1991 01a6 3F       		.uleb128 0x3f
 1992 01a7 19       		.uleb128 0x19
 1993 01a8 03       		.uleb128 0x3
 1994 01a9 0E       		.uleb128 0xe
 1995 01aa 3A       		.uleb128 0x3a
 1996 01ab 0B       		.uleb128 0xb
 1997 01ac 3B       		.uleb128 0x3b
 1998 01ad 0B       		.uleb128 0xb
 1999 01ae 27       		.uleb128 0x27
 2000 01af 19       		.uleb128 0x19
 2001 01b0 49       		.uleb128 0x49
 2002 01b1 13       		.uleb128 0x13
 2003 01b2 11       		.uleb128 0x11
ARM GAS  /tmp/ccM4pwwM.s 			page 53


 2004 01b3 01       		.uleb128 0x1
 2005 01b4 12       		.uleb128 0x12
 2006 01b5 06       		.uleb128 0x6
 2007 01b6 40       		.uleb128 0x40
 2008 01b7 18       		.uleb128 0x18
 2009 01b8 9642     		.uleb128 0x2116
 2010 01ba 19       		.uleb128 0x19
 2011 01bb 01       		.uleb128 0x1
 2012 01bc 13       		.uleb128 0x13
 2013 01bd 00       		.byte	0
 2014 01be 00       		.byte	0
 2015 01bf 20       		.uleb128 0x20
 2016 01c0 34       		.uleb128 0x34
 2017 01c1 00       		.byte	0
 2018 01c2 03       		.uleb128 0x3
 2019 01c3 08       		.uleb128 0x8
 2020 01c4 3A       		.uleb128 0x3a
 2021 01c5 0B       		.uleb128 0xb
 2022 01c6 3B       		.uleb128 0x3b
 2023 01c7 05       		.uleb128 0x5
 2024 01c8 49       		.uleb128 0x49
 2025 01c9 13       		.uleb128 0x13
 2026 01ca 3F       		.uleb128 0x3f
 2027 01cb 19       		.uleb128 0x19
 2028 01cc 3C       		.uleb128 0x3c
 2029 01cd 19       		.uleb128 0x19
 2030 01ce 00       		.byte	0
 2031 01cf 00       		.byte	0
 2032 01d0 00       		.byte	0
 2033              		.section	.debug_aranges,"",%progbits
 2034 0000 5C000000 		.4byte	0x5c
 2035 0004 0200     		.2byte	0x2
 2036 0006 00000000 		.4byte	.Ldebug_info0
 2037 000a 04       		.byte	0x4
 2038 000b 00       		.byte	0
 2039 000c 0000     		.2byte	0
 2040 000e 0000     		.2byte	0
 2041 0010 00000000 		.4byte	.LFB47
 2042 0014 28000000 		.4byte	.LFE47-.LFB47
 2043 0018 00000000 		.4byte	.LFB48
 2044 001c 0C000000 		.4byte	.LFE48-.LFB48
 2045 0020 00000000 		.4byte	.LFB49
 2046 0024 1C000000 		.4byte	.LFE49-.LFB49
 2047 0028 00000000 		.4byte	.LFB50
 2048 002c 10000000 		.4byte	.LFE50-.LFB50
 2049 0030 00000000 		.4byte	.LFB149
 2050 0034 08000000 		.4byte	.LFE149-.LFB149
 2051 0038 00000000 		.4byte	.LFB150
 2052 003c 1C000000 		.4byte	.LFE150-.LFB150
 2053 0040 00000000 		.4byte	.LFB151
 2054 0044 08000000 		.4byte	.LFE151-.LFB151
 2055 0048 00000000 		.4byte	.LFB152
 2056 004c 1C000000 		.4byte	.LFE152-.LFB152
 2057 0050 00000000 		.4byte	.LFB153
 2058 0054 0C000000 		.4byte	.LFE153-.LFB153
 2059 0058 00000000 		.4byte	0
 2060 005c 00000000 		.4byte	0
ARM GAS  /tmp/ccM4pwwM.s 			page 54


 2061              		.section	.debug_ranges,"",%progbits
 2062              	.Ldebug_ranges0:
 2063 0000 00000000 		.4byte	.LFB47
 2064 0004 28000000 		.4byte	.LFE47
 2065 0008 00000000 		.4byte	.LFB48
 2066 000c 0C000000 		.4byte	.LFE48
 2067 0010 00000000 		.4byte	.LFB49
 2068 0014 1C000000 		.4byte	.LFE49
 2069 0018 00000000 		.4byte	.LFB50
 2070 001c 10000000 		.4byte	.LFE50
 2071 0020 00000000 		.4byte	.LFB149
 2072 0024 08000000 		.4byte	.LFE149
 2073 0028 00000000 		.4byte	.LFB150
 2074 002c 1C000000 		.4byte	.LFE150
 2075 0030 00000000 		.4byte	.LFB151
 2076 0034 08000000 		.4byte	.LFE151
 2077 0038 00000000 		.4byte	.LFB152
 2078 003c 1C000000 		.4byte	.LFE152
 2079 0040 00000000 		.4byte	.LFB153
 2080 0044 0C000000 		.4byte	.LFE153
 2081 0048 00000000 		.4byte	0
 2082 004c 00000000 		.4byte	0
 2083              		.section	.debug_line,"",%progbits
 2084              	.Ldebug_line0:
 2085 0000 58020000 		.section	.debug_str,"MS",%progbits,1
 2085      0200A501 
 2085      00000201 
 2085      FB0E0D00 
 2085      01010101 
 2086              	.LASF41:
 2087 0000 63685F74 		.ascii	"ch_threads_list\000"
 2087      68726561 
 2087      64735F6C 
 2087      69737400 
 2088              	.LASF42:
 2089 0010 74687265 		.ascii	"threads_queue_t\000"
 2089      6164735F 
 2089      71756575 
 2089      655F7400 
 2090              	.LASF35:
 2091 0020 705F7761 		.ascii	"p_waiting\000"
 2091      6974696E 
 2091      6700
 2092              	.LASF92:
 2093 002a 77746D74 		.ascii	"wtmtxp\000"
 2093      787000
 2094              	.LASF100:
 2095 0031 63686172 		.ascii	"char\000"
 2095      00
 2096              	.LASF73:
 2097 0036 72656761 		.ascii	"regarm_t\000"
 2097      726D5F74 
 2097      00
 2098              	.LASF103:
 2099 003f 73745F6C 		.ascii	"st_lld_start_alarm\000"
 2099      6C645F73 
 2099      74617274 
ARM GAS  /tmp/ccM4pwwM.s 			page 55


 2099      5F616C61 
 2099      726D00
 2100              	.LASF28:
 2101 0052 705F7072 		.ascii	"p_prio\000"
 2101      696F00
 2102              	.LASF24:
 2103 0059 73797374 		.ascii	"systime_t\000"
 2103      696D655F 
 2103      7400
 2104              	.LASF98:
 2105 0063 6D5F6F77 		.ascii	"m_owner\000"
 2105      6E657200 
 2106              	.LASF94:
 2107 006b 735F7175 		.ascii	"s_queue\000"
 2107      65756500 
 2108              	.LASF0:
 2109 0073 756E7369 		.ascii	"unsigned int\000"
 2109      676E6564 
 2109      20696E74 
 2109      00
 2110              	.LASF39:
 2111 0080 74687265 		.ascii	"threads_list_t\000"
 2111      6164735F 
 2111      6C697374 
 2111      5F7400
 2112              	.LASF7:
 2113 008f 5F5F696E 		.ascii	"__int32_t\000"
 2113      7433325F 
 2113      7400
 2114              	.LASF89:
 2115 0099 77746F62 		.ascii	"wtobjp\000"
 2115      6A7000
 2116              	.LASF69:
 2117 00a0 76746C69 		.ascii	"vtlist\000"
 2117      737400
 2118              	.LASF45:
 2119 00a7 63685F72 		.ascii	"ch_ready_list\000"
 2119      65616479 
 2119      5F6C6973 
 2119      7400
 2120              	.LASF71:
 2121 00b5 69646C65 		.ascii	"idle_thread_wa\000"
 2121      5F746872 
 2121      6561645F 
 2121      776100
 2122              	.LASF43:
 2123 00c4 63685F74 		.ascii	"ch_threads_queue\000"
 2123      68726561 
 2123      64735F71 
 2123      75657565 
 2123      00
 2124              	.LASF83:
 2125 00d5 444D4152 		.ascii	"DMAR\000"
 2125      00
 2126              	.LASF52:
 2127 00da 76746675 		.ascii	"vtfunc_t\000"
 2127      6E635F74 
ARM GAS  /tmp/ccM4pwwM.s 			page 56


 2127      00
 2128              	.LASF95:
 2129 00e3 735F636E 		.ascii	"s_cnt\000"
 2129      7400
 2130              	.LASF64:
 2131 00e9 63685F73 		.ascii	"ch_system_debug\000"
 2131      79737465 
 2131      6D5F6465 
 2131      62756700 
 2132              	.LASF17:
 2133 00f9 75696E74 		.ascii	"uint32_t\000"
 2133      33325F74 
 2133      00
 2134              	.LASF110:
 2135 0102 73745365 		.ascii	"stSetAlarm\000"
 2135      74416C61 
 2135      726D00
 2136              	.LASF47:
 2137 010d 725F7072 		.ascii	"r_prio\000"
 2137      696F00
 2138              	.LASF82:
 2139 0114 42445452 		.ascii	"BDTR\000"
 2139      00
 2140              	.LASF59:
 2141 0119 76745F70 		.ascii	"vt_par\000"
 2141      617200
 2142              	.LASF109:
 2143 0120 73745374 		.ascii	"stStartAlarm\000"
 2143      61727441 
 2143      6C61726D 
 2143      00
 2144              	.LASF93:
 2145 012d 63685F73 		.ascii	"ch_semaphore\000"
 2145      656D6170 
 2145      686F7265 
 2145      00
 2146              	.LASF21:
 2147 013a 74707269 		.ascii	"tprio_t\000"
 2147      6F5F7400 
 2148              	.LASF54:
 2149 0142 63685F76 		.ascii	"ch_virtual_timer\000"
 2149      69727475 
 2149      616C5F74 
 2149      696D6572 
 2149      00
 2150              	.LASF79:
 2151 0153 43434D52 		.ascii	"CCMR1\000"
 2151      3100
 2152              	.LASF80:
 2153 0159 43434D52 		.ascii	"CCMR2\000"
 2153      3200
 2154              	.LASF84:
 2155 015f 43434D52 		.ascii	"CCMR3\000"
 2155      3300
 2156              	.LASF13:
 2157 0165 6C6F6E67 		.ascii	"long long unsigned int\000"
 2157      206C6F6E 
ARM GAS  /tmp/ccM4pwwM.s 			page 57


 2157      6720756E 
 2157      7369676E 
 2157      65642069 
 2158              	.LASF5:
 2159 017c 5F5F7569 		.ascii	"__uint16_t\000"
 2159      6E743136 
 2159      5F7400
 2160              	.LASF23:
 2161 0187 636E745F 		.ascii	"cnt_t\000"
 2161      7400
 2162              	.LASF105:
 2163 018d 74696D65 		.ascii	"time\000"
 2163      00
 2164              	.LASF30:
 2165 0192 705F6E65 		.ascii	"p_newer\000"
 2165      77657200 
 2166              	.LASF61:
 2167 019a 63685F76 		.ascii	"ch_virtual_timers_list\000"
 2167      69727475 
 2167      616C5F74 
 2167      696D6572 
 2167      735F6C69 
 2168              	.LASF25:
 2169 01b1 74687265 		.ascii	"thread_t\000"
 2169      61645F74 
 2169      00
 2170              	.LASF87:
 2171 01ba 7264796D 		.ascii	"rdymsg\000"
 2171      736700
 2172              	.LASF86:
 2173 01c1 73746D33 		.ascii	"stm32_tim_t\000"
 2173      325F7469 
 2173      6D5F7400 
 2174              	.LASF102:
 2175 01cd 5F426F6F 		.ascii	"_Bool\000"
 2175      6C00
 2176              	.LASF96:
 2177 01d3 63685F6D 		.ascii	"ch_mutex\000"
 2177      75746578 
 2177      00
 2178              	.LASF12:
 2179 01dc 5F5F7569 		.ascii	"__uint64_t\000"
 2179      6E743634 
 2179      5F7400
 2180              	.LASF78:
 2181 01e7 44494552 		.ascii	"DIER\000"
 2181      00
 2182              	.LASF32:
 2183 01ec 705F6E61 		.ascii	"p_name\000"
 2183      6D6500
 2184              	.LASF81:
 2185 01f3 43434552 		.ascii	"CCER\000"
 2185      00
 2186              	.LASF57:
 2187 01f8 76745F64 		.ascii	"vt_delta\000"
 2187      656C7461 
 2187      00
ARM GAS  /tmp/ccM4pwwM.s 			page 58


 2188              	.LASF38:
 2189 0201 74687265 		.ascii	"thread_reference_t\000"
 2189      61645F72 
 2189      65666572 
 2189      656E6365 
 2189      5F7400
 2190              	.LASF62:
 2191 0214 76745F6C 		.ascii	"vt_lasttime\000"
 2191      61737474 
 2191      696D6500 
 2192              	.LASF117:
 2193 0220 73745F6C 		.ascii	"st_lld_get_alarm\000"
 2193      6C645F67 
 2193      65745F61 
 2193      6C61726D 
 2193      00
 2194              	.LASF20:
 2195 0231 74737461 		.ascii	"tstate_t\000"
 2195      74655F74 
 2195      00
 2196              	.LASF107:
 2197 023a 7374496E 		.ascii	"stInit\000"
 2197      697400
 2198              	.LASF31:
 2199 0241 705F6F6C 		.ascii	"p_older\000"
 2199      64657200 
 2200              	.LASF33:
 2201 0249 705F7374 		.ascii	"p_state\000"
 2201      61746500 
 2202              	.LASF14:
 2203 0251 75696E74 		.ascii	"uint8_t\000"
 2203      385F7400 
 2204              	.LASF36:
 2205 0259 705F6D74 		.ascii	"p_mtxlist\000"
 2205      786C6973 
 2205      7400
 2206              	.LASF77:
 2207 0263 534D4352 		.ascii	"SMCR\000"
 2207      00
 2208              	.LASF40:
 2209 0268 63685F74 		.ascii	"ch_thread\000"
 2209      68726561 
 2209      6400
 2210              	.LASF63:
 2211 0272 73797374 		.ascii	"system_debug_t\000"
 2211      656D5F64 
 2211      65627567 
 2211      5F7400
 2212              	.LASF11:
 2213 0281 6C6F6E67 		.ascii	"long long int\000"
 2213      206C6F6E 
 2213      6720696E 
 2213      7400
 2214              	.LASF46:
 2215 028f 725F7175 		.ascii	"r_queue\000"
 2215      65756500 
 2216              	.LASF49:
ARM GAS  /tmp/ccM4pwwM.s 			page 59


 2217 0297 725F6E65 		.ascii	"r_newer\000"
 2217      77657200 
 2218              	.LASF22:
 2219 029f 6D73675F 		.ascii	"msg_t\000"
 2219      7400
 2220              	.LASF75:
 2221 02a5 636F6E74 		.ascii	"context\000"
 2221      65787400 
 2222              	.LASF34:
 2223 02ad 705F666C 		.ascii	"p_flags\000"
 2223      61677300 
 2224              	.LASF53:
 2225 02b5 76697274 		.ascii	"virtual_timer_t\000"
 2225      75616C5F 
 2225      74696D65 
 2225      725F7400 
 2226              	.LASF114:
 2227 02c5 474E5520 		.ascii	"GNU C 4.8.4 20141219 (release) -mcpu=cortex-m0 -mno"
 2227      4320342E 
 2227      382E3420 
 2227      32303134 
 2227      31323139 
 2228 02f8 2D746875 		.ascii	"-thumb-interwork -mthumb -ggdb -O0 -fomit-frame-poi"
 2228      6D622D69 
 2228      6E746572 
 2228      776F726B 
 2228      202D6D74 
 2229 032b 6E746572 		.ascii	"nter -falign-functions=16 -ffunction-sections -fdat"
 2229      202D6661 
 2229      6C69676E 
 2229      2D66756E 
 2229      6374696F 
 2230 035e 612D7365 		.ascii	"a-sections -fno-common -flto\000"
 2230      6374696F 
 2230      6E73202D 
 2230      666E6F2D 
 2230      636F6D6D 
 2231              	.LASF50:
 2232 037b 725F6F6C 		.ascii	"r_older\000"
 2232      64657200 
 2233              	.LASF65:
 2234 0383 70616E69 		.ascii	"panic_msg\000"
 2234      635F6D73 
 2234      6700
 2235              	.LASF19:
 2236 038d 746D6F64 		.ascii	"tmode_t\000"
 2236      655F7400 
 2237              	.LASF111:
 2238 0395 5F5F6675 		.ascii	"__func__.5749\000"
 2238      6E635F5F 
 2238      2E353734 
 2238      3900
 2239              	.LASF70:
 2240 03a3 6D61696E 		.ascii	"mainthread\000"
 2240      74687265 
 2240      616400
 2241              	.LASF106:
ARM GAS  /tmp/ccM4pwwM.s 			page 60


 2242 03ae 61627374 		.ascii	"abstime\000"
 2242      696D6500 
 2243              	.LASF15:
 2244 03b6 75696E74 		.ascii	"uint16_t\000"
 2244      31365F74 
 2244      00
 2245              	.LASF85:
 2246 03bf 43435852 		.ascii	"CCXR\000"
 2246      00
 2247              	.LASF37:
 2248 03c4 705F7265 		.ascii	"p_realprio\000"
 2248      616C7072 
 2248      696F00
 2249              	.LASF3:
 2250 03cf 73686F72 		.ascii	"short int\000"
 2250      7420696E 
 2250      7400
 2251              	.LASF112:
 2252 03d9 5F5F6675 		.ascii	"__func__.5756\000"
 2252      6E635F5F 
 2252      2E353735 
 2252      3600
 2253              	.LASF51:
 2254 03e7 725F6375 		.ascii	"r_current\000"
 2254      7272656E 
 2254      7400
 2255              	.LASF97:
 2256 03f1 6D5F7175 		.ascii	"m_queue\000"
 2256      65756500 
 2257              	.LASF8:
 2258 03f9 6C6F6E67 		.ascii	"long int\000"
 2258      20696E74 
 2258      00
 2259              	.LASF76:
 2260 0402 706F7274 		.ascii	"port_intctx\000"
 2260      5F696E74 
 2260      63747800 
 2261              	.LASF116:
 2262 040e 73745F6C 		.ascii	"st_lld_stop_alarm\000"
 2262      6C645F73 
 2262      746F705F 
 2262      616C6172 
 2262      6D00
 2263              	.LASF67:
 2264 0420 63685F73 		.ascii	"ch_system\000"
 2264      79737465 
 2264      6D00
 2265              	.LASF26:
 2266 042a 705F6E65 		.ascii	"p_next\000"
 2266      787400
 2267              	.LASF108:
 2268 0431 73745374 		.ascii	"stStopAlarm\000"
 2268      6F70416C 
 2268      61726D00 
 2269              	.LASF18:
 2270 043d 75696E74 		.ascii	"uint64_t\000"
 2270      36345F74 
ARM GAS  /tmp/ccM4pwwM.s 			page 61


 2270      00
 2271              	.LASF29:
 2272 0446 705F6374 		.ascii	"p_ctx\000"
 2272      7800
 2273              	.LASF68:
 2274 044c 726C6973 		.ascii	"rlist\000"
 2274      7400
 2275              	.LASF113:
 2276 0452 5F5F6675 		.ascii	"__func__.5760\000"
 2276      6E635F5F 
 2276      2E353736 
 2276      3000
 2277              	.LASF4:
 2278 0460 5F5F7569 		.ascii	"__uint8_t\000"
 2278      6E74385F 
 2278      7400
 2279              	.LASF27:
 2280 046a 705F7072 		.ascii	"p_prev\000"
 2280      657600
 2281              	.LASF72:
 2282 0471 73697A65 		.ascii	"sizetype\000"
 2282      74797065 
 2282      00
 2283              	.LASF10:
 2284 047a 6C6F6E67 		.ascii	"long unsigned int\000"
 2284      20756E73 
 2284      69676E65 
 2284      6420696E 
 2284      7400
 2285              	.LASF44:
 2286 048c 72656164 		.ascii	"ready_list_t\000"
 2286      795F6C69 
 2286      73745F74 
 2286      00
 2287              	.LASF16:
 2288 0499 696E7433 		.ascii	"int32_t\000"
 2288      325F7400 
 2289              	.LASF101:
 2290 04a1 6D757465 		.ascii	"mutex_t\000"
 2290      785F7400 
 2291              	.LASF2:
 2292 04a9 756E7369 		.ascii	"unsigned char\000"
 2292      676E6564 
 2292      20636861 
 2292      7200
 2293              	.LASF9:
 2294 04b7 5F5F7569 		.ascii	"__uint32_t\000"
 2294      6E743332 
 2294      5F7400
 2295              	.LASF60:
 2296 04c2 76697274 		.ascii	"virtual_timers_list_t\000"
 2296      75616C5F 
 2296      74696D65 
 2296      72735F6C 
 2296      6973745F 
 2297              	.LASF104:
 2298 04d8 73745F6C 		.ascii	"st_lld_set_alarm\000"
ARM GAS  /tmp/ccM4pwwM.s 			page 62


 2298      6C645F73 
 2298      65745F61 
 2298      6C61726D 
 2298      00
 2299              	.LASF55:
 2300 04e9 76745F6E 		.ascii	"vt_next\000"
 2300      65787400 
 2301              	.LASF66:
 2302 04f1 63685F73 		.ascii	"ch_system_t\000"
 2302      79737465 
 2302      6D5F7400 
 2303              	.LASF91:
 2304 04fd 77747365 		.ascii	"wtsemp\000"
 2304      6D7000
 2305              	.LASF90:
 2306 0504 77747472 		.ascii	"wttrp\000"
 2306      7000
 2307              	.LASF99:
 2308 050a 6D5F6E65 		.ascii	"m_next\000"
 2308      787400
 2309              	.LASF118:
 2310 0511 73744765 		.ascii	"stGetAlarm\000"
 2310      74416C61 
 2310      726D00
 2311              	.LASF1:
 2312 051c 7369676E 		.ascii	"signed char\000"
 2312      65642063 
 2312      68617200 
 2313              	.LASF6:
 2314 0528 73686F72 		.ascii	"short unsigned int\000"
 2314      7420756E 
 2314      7369676E 
 2314      65642069 
 2314      6E7400
 2315              	.LASF48:
 2316 053b 725F6374 		.ascii	"r_ctx\000"
 2316      7800
 2317              	.LASF74:
 2318 0541 73746B61 		.ascii	"stkalign_t\000"
 2318      6C69676E 
 2318      5F7400
 2319              	.LASF58:
 2320 054c 76745F66 		.ascii	"vt_func\000"
 2320      756E6300 
 2321              	.LASF56:
 2322 0554 76745F70 		.ascii	"vt_prev\000"
 2322      72657600 
 2323              	.LASF88:
 2324 055c 65786974 		.ascii	"exitcode\000"
 2324      636F6465 
 2324      00
 2325              	.LASF115:
 2326 0565 2F686F6D 		.ascii	"/home/efe/ChibiOS/os/hal/src/st.c\000"
 2326      652F6566 
 2326      652F4368 
 2326      6962694F 
 2326      532F6F73 
ARM GAS  /tmp/ccM4pwwM.s 			page 63


 2327              		.comm	__gnu_lto_v1,1,1
 2328              		.ident	"GCC: (4.8.4-1+11-1) 4.8.4 20141219 (release)"
ARM GAS  /tmp/ccM4pwwM.s 			page 64


DEFINED SYMBOLS
                            *ABS*:0000000000000000 st.c
     /tmp/ccM4pwwM.s:310    .text.st_lld_start_alarm:0000000000000000 $t
     /tmp/ccM4pwwM.s:315    .text.st_lld_start_alarm:0000000000000000 st_lld_start_alarm
     /tmp/ccM4pwwM.s:347    .text.st_lld_start_alarm:0000000000000024 $d
     /tmp/ccM4pwwM.s:352    .text.st_lld_stop_alarm:0000000000000000 $t
     /tmp/ccM4pwwM.s:357    .text.st_lld_stop_alarm:0000000000000000 st_lld_stop_alarm
     /tmp/ccM4pwwM.s:371    .text.st_lld_stop_alarm:0000000000000008 $d
     /tmp/ccM4pwwM.s:376    .text.st_lld_set_alarm:0000000000000000 $t
     /tmp/ccM4pwwM.s:381    .text.st_lld_set_alarm:0000000000000000 st_lld_set_alarm
     /tmp/ccM4pwwM.s:404    .text.st_lld_set_alarm:0000000000000018 $d
     /tmp/ccM4pwwM.s:409    .text.st_lld_get_alarm:0000000000000000 $t
     /tmp/ccM4pwwM.s:414    .text.st_lld_get_alarm:0000000000000000 st_lld_get_alarm
     /tmp/ccM4pwwM.s:429    .text.st_lld_get_alarm:000000000000000c $d
     /tmp/ccM4pwwM.s:434    .text.stInit:0000000000000000 $t
     /tmp/ccM4pwwM.s:440    .text.stInit:0000000000000000 stInit
     /tmp/ccM4pwwM.s:458    .text.stStartAlarm:0000000000000000 $t
     /tmp/ccM4pwwM.s:464    .text.stStartAlarm:0000000000000000 stStartAlarm
     /tmp/ccM4pwwM.s:491    .text.stStopAlarm:0000000000000000 $t
     /tmp/ccM4pwwM.s:497    .text.stStopAlarm:0000000000000000 stStopAlarm
     /tmp/ccM4pwwM.s:514    .text.stSetAlarm:0000000000000000 $t
     /tmp/ccM4pwwM.s:520    .text.stSetAlarm:0000000000000000 stSetAlarm
     /tmp/ccM4pwwM.s:547    .text.stGetAlarm:0000000000000000 $t
     /tmp/ccM4pwwM.s:553    .text.stGetAlarm:0000000000000000 stGetAlarm
                            *COM*:0000000000000001 __gnu_lto_v1
                     .debug_frame:0000000000000010 $d
     /tmp/ccM4pwwM.s:351    .text.st_lld_start_alarm:0000000000000028 $t
     /tmp/ccM4pwwM.s:375    .text.st_lld_stop_alarm:000000000000000c $t
     /tmp/ccM4pwwM.s:408    .text.st_lld_set_alarm:000000000000001c $t

UNDEFINED SYMBOLS
st_lld_init
