ARM GAS  /tmp/cc8RgEkc.s 			page 1


   1              		.cpu cortex-m0
   2              		.fpu softvfp
   3              		.eabi_attribute 20, 1
   4              		.eabi_attribute 21, 1
   5              		.eabi_attribute 23, 3
   6              		.eabi_attribute 24, 1
   7              		.eabi_attribute 25, 1
   8              		.eabi_attribute 26, 1
   9              		.eabi_attribute 30, 6
  10              		.eabi_attribute 34, 0
  11              		.eabi_attribute 18, 4
  12              		.code	16
  13              		.file	"st.c"
  14              		.text
  15              	.Ltext0:
  16              		.section	.gnu.lto_.inline.99893d4a66e277d1,"",%progbits
  17 0000 789C6362 		.ascii	"x\234cb`b\300\006\366BiN\006\0066V\006\006&\216\011"
  17      6062C006 
  17      F642694E 
  17      06063656 
  17      0606268E 
  18 0015 7E0C2C10 		.ascii	"~\014,\020\265\214\014,\314@\021\226\017z0\021&\014"
  18      B58C0C2C 
  18      CC401196 
  18      0F7A3011 
  18      260C
  19 0027 11660C11 		.ascii	"\021f\014\021\026\006\026\036\240\010\323\002y\2709"
  19      1606161E 
  19      A008D302 
  19      79B839
  20 0036 5C408295 		.ascii	"\\@\202\225\201\225\027U\230\211\033H\260aW\315\216"
  20      81951755 
  20      98891B48 
  20      B06157CD 
  20      8E
  21 0047 5D350776 		.ascii	"]5\007va\006\000mN\011\373"
  21      6106006D 
  21      4E09FB
  22              		.text
  23              		.section	.gnu.lto_st_lld_start_alarm.99893d4a66e277d1,"",%progbits
  24 0000 789C6362 		.ascii	"x\234cb`b@\007\"@\\\016\024\266\002q\230\031\030\201"
  24      60624007 
  24      22405C0E 
  24      14B60271 
  24      98191881 
  25 0014 4C462646 		.ascii	"LF&FF \207\221\241\236\211\261>\022\304d`QbX\330\320"
  25      46208791 
  25      A19E89B1 
  25      3E12C464 
  25      60516258 
  26 002a 30E9C1D3 		.ascii	"0\351\301\323u?\031gN9\320\262\240\341\317\377\377\214"
  26      753F1967 
  26      4E39D0B2 
  26      A0E1CFFF 
  26      FF8C
  27 003c 8C9920C9 		.ascii	"\214\231 \311dF\206\010 \213Q\001L1\261\240\232\017"
  27      64468608 
ARM GAS  /tmp/cc8RgEkc.s 			page 2


  27      208B5101 
  27      4C31B1A0 
  27      9A0F
  28 004e D1D8F0F5 		.ascii	"\321\330\360\365I\300\211\206\226\003\377\377\333g2"
  28      49C08986 
  28      9603FFFF 
  28      DB6732
  29 005d 3213A7E7 		.ascii	"2\023\247\347\300\317S\375\222]\013\232&4\374\003\332"
  29      C0CF53FD 
  29      925D0B9A 
  29      2634FC03 
  29      DA
  30 006e 45B45507 		.ascii	"E\264U\007~\235\352\341\232\320\330\321\360\377\177"
  30      7E9DEAE1 
  30      9AD0D8D1 
  30      F0FF7F
  31 007d 3D119AD6 		.ascii	"=\021\232\3263\035x\360\377\377\234\353{\036\357c\024"
  31      331D78F0 
  31      FFFF9CEB 
  31      7B1EEF63 
  31      14
  32 008e 62636400 		.ascii	"bcd\000jab\314e\004\006\005\320\241, .+\003\330\030"
  32      6A6162CC 
  32      65040605 
  32      D0A12C20 
  32      2E2B03D8 
  33 00a3 20DDD2D0 		.ascii	" \335\322\3200A\001l \020\204\200\311PP\2001\237eh\332"
  33      3041016C 
  33      20108480 
  33      C9505080 
  33      319F6568 
  34 00b8 F1031834 		.ascii	"\361\003\0304\211\214K\031Y\031\322\031\031A614t44\200"
  34      898C4B19 
  34      5919D219 
  34      19413631 
  34      34743434 
  35 00cd 6C03CABE 		.ascii	"l\003\312\276k~\005\227dN\007\3519\313p\350\344\004"
  35      6B7E0597 
  35      644E07E9 
  35      39CB70E8 
  35      E404
  36 00df 3E88982E 		.ascii	">\210\230.\303\232\206\226\306\206\310LF\026m\206U "
  36      C39A8696 
  36      C686C84C 
  36      46166D86 
  36      5520
  37 00f1 26309458 		.ascii	"&0\224Xg3\314\002\232\302\0063\015\014\222\2404H\204"
  37      6733CC02 
  37      9AC20633 
  37      0D0C92A0 
  37      344884
  38 0104 1DEE8774 		.ascii	"\035\356\207tP\220\202\334\320\261\036n\013\013\232"
  38      509082DC 
  38      D0B11E6E 
  38      0B0B9A
  39 0113 130EED80 		.ascii	"\023\016\355\200\331\206\260\202\005n\005\013\262\025"
  39      D986B082 
ARM GAS  /tmp/cc8RgEkc.s 			page 3


  39      056E050B 
  39      B215
  40 0121 8C702BC0 		.ascii	"\214p+\300a\0052x\005\302`V\222\014fE6\230\011a0\210"
  40      61053278 
  40      05C26056 
  40      920C6645 
  40      36980961 
  41 0137 7991A1F1 		.ascii	"y\221\241\361\301>U\210^\030\010\001\331\016\222\264"
  41      C13E5588 
  41      5E180801 
  41      D90E92B4 
  42 0147 D0CFC8CF 		.ascii	"\320\317\310\317M\325OMK\325w\316\310L\312\364\017\326"
  42      4DD54F4D 
  42      4BD577CE 
  42      C84CCAF4 
  42      0FD6
  43 0159 CF2FD6CF 		.ascii	"\317/\326\317H\314\321/\310/*)\326\017\016\36156\322"
  43      48CCD12F 
  43      C82F2A29 
  43      D60F0EF1 
  43      3536D2
  44 016c F7F171D1 		.ascii	"\367\361q\321\017\361\364-3\324/.\211\317\311I\321\313"
  44      0FF1F42D 
  44      33D42F2E 
  44      89CFC949 
  44      D1CB
  45 017e 60000093 		.ascii	"`\000\000\223t\240o"
  45      74A06F
  46              		.text
  47              		.section	.gnu.lto_st_lld_stop_alarm.99893d4a66e277d1,"",%progbits
  48 0000 789C6362 		.ascii	"x\234cb`b@\007\"@\374\034\210\255@\034f\006F\240\012"
  48      60624007 
  48      2240FC1C 
  48      88AD401C 
  48      660646A0 
  49 0015 46264646 		.ascii	"F&FF \207\221\241\236\211\261>\022\304d`TbX\330\320"
  49      208791A1 
  49      9E89B13E 
  49      12C46460 
  49      546258D8 
  50 002a 30E9C1D3 		.ascii	"0\351\301\323\315?\031gN9\320\262\240\341\317\377\377"
  50      CD3F1967 
  50      4E39D0B2 
  50      A0E1CFFF 
  50      FF
  51 003b 8C8C9920 		.ascii	"\214\214\231 \311dF\206\010 \213Q\001L1\261\240\232"
  51      C9644686 
  51      08208B51 
  51      014C31B1 
  51      A09A
  52 004d BF9EE9C0 		.ascii	"\277\236\351\300\203\377\377\357\334\374\360\350\006"
  52      83FFFFEF 
  52      DCFCF0E8 
  52      06
  53 005a A3101323 		.ascii	"\243\020\023#\003X\013\003+CKC\303\004\005\260f \010"
  53      03580B03 
  53      2B434B43 
ARM GAS  /tmp/cc8RgEkc.s 			page 4


  53      C30405B0 
  53      662008
  54 006d 0193A120 		.ascii	"\001\223\241 \313\231\31724\355\370\001\264&\221q\021"
  54      CB99CF32 
  54      34EDF801 
  54      B4269171 
  54      11
  55 007e 232B433A 		.ascii	"#+C:##\310T\206\206\216\206\006\220\311g\031\016\355"
  55      2323C854 
  55      86868E86 
  55      0690C967 
  55      190EED
  56 0091 B8C00D91 		.ascii	"\270\300\015\221\323fX\325\320\322\330`\237\311\310"
  56      D36658D5 
  56      D0D2D860 
  56      9FC9C8
  57 00a0 3C9B6116 		.ascii	"<\233a\026P\025\013L5\030$Ai\220\0103\210q\221\241\361"
  57      50150B4C 
  57      35182441 
  57      69900833 
  57      887191A1 
  58 00b5 C10D5588 		.ascii	"\301\015U\210^\030\010\001y\025\024*\026\372\031\371"
  58      5E180801 
  58      7915142A 
  58      16FA19F9 
  59 00c5 B9A9FAA9 		.ascii	"\271\251\372\251i\251\372\316\031\231I\231\376\301\372"
  59      69A9FACE 
  59      19994999 
  59      FEC1FA
  60 00d4 F9C5FA19 		.ascii	"\371\305\372\031\2119\372\005\371E%\305\372\301!\276"
  60      8939FA05 
  60      F94525C5 
  60      FAC121BE 
  61 00e4 C646FA3E 		.ascii	"\306F\372>>.\372!\236\276e\206\372\305%\36199)z\031"
  61      3E2EFA21 
  61      9EBE6586 
  61      FAC525F1 
  61      3939297A 
  62 00f9 0C0032B4 		.ascii	"\014\0002\264I\253"
  62      49AB
  63              		.text
  64              		.section	.gnu.lto_st_lld_set_alarm.99893d4a66e277d1,"",%progbits
  65 0000 789C6362 		.ascii	"x\234cb`b@\007\"@\354\317\310\300`\005\342030\002U0"
  65      60624007 
  65      2240ECCF 
  65      C8C06005 
  65      E2303330 
  66 0017 32310205 		.ascii	"21\002\005\030\030\031\352\231\030\353#AL\006&%\206"
  66      181819EA 
  66      9918EB23 
  66      414C0626 
  66      2586
  67 0029 850D0D93 		.ascii	"\205\015\015\223\036<\335\365\223q\346\224\003-\013"
  67      1E3CDDF5 
  67      9371E694 
  67      032D0B
  68 0038 1AFEFCFF 		.ascii	"\032\376\374\377\317\310\230\011\222Lfd\210\000\262"
ARM GAS  /tmp/cc8RgEkc.s 			page 5


  68      CFC89809 
  68      924C6664 
  68      8800B2
  69 0047 1815C014 		.ascii	"\030\025\300\024\023\013\252\371\020\215\015_\237\004"
  69      130BAAF9 
  69      108D0D5F 
  69      9F04
  70 0055 9C686839 		.ascii	"\234hh9\360\377\277}&#3!=\353\231\016<\370\377\177\316"
  70      F0FFBF7D 
  70      26233321 
  70      3DEB990E 
  70      3CF8FF7F 
  71 006a DD2D8FDF 		.ascii	"\335-\217\3370\012\26102\000\255ab\314e\004:\017\254"
  71      300AB130 
  71      3200AD61 
  71      62CC6504 
  71      3A0FAC
  72 007d 998195A1 		.ascii	"\231\201\225\241\245\241a\202\002\330\030 \010\001\223"
  72      A5A16182 
  72      02D81820 
  72      080193
  73 008c A120A733 		.ascii	"\241 \2473\237eh\332\361\003\350\310D\306\305\214\254"
  73      9F6568DA 
  73      F103E8C8 
  73      44C6C58C 
  73      AC
  74 009d 0CE98C8C 		.ascii	"\014\351\214\214 \363\031\032:\032\032@v\000e\3375\277"
  74      20F3191A 
  74      3A1A1A40 
  74      760065DF 
  74      35BF
  75 00af 824B32A7 		.ascii	"\202K2\247\203\364\234e8tr\002\037DL\227aMCKcCd&#\213"
  75      83F49C65 
  75      38747202 
  75      1F444C97 
  75      614D434B 
  76 00c9 36C32A10 		.ascii	"6\303*\020\023\350^\326\331\014\263\200\246\260\301"
  76      13E85ED6 
  76      D90CB380 
  76      A6B0C1
  77 00d8 4C038324 		.ascii	"L\003\203$(\015\022a\207\273<\035\344\276\213\014\215"
  77      280D1261 
  77      87BB3C1D 
  77      E4BE8B0C 
  77      8D
  78 00e9 0FDEA842 		.ascii	"\017\336\250B\014\204\201\020P\220\202B\337B?#?7U?5"
  78      0C848110 
  78      50908242 
  78      DF423F23 
  78      3F37553F 
  79 00fe 2D55DF39 		.ascii	"-U\3379#3)\323?X?\277X?#1G\277 \277\250\244X?8\304\327"
  79      233329D3 
  79      3F583FBF 
  79      583F2331 
  79      47BF20BF 
  80 0119 D848DFC7 		.ascii	"\330H\337\307\307E?\304\323\267\314P\277\270$>''E/\203"
  80      C7453FC4 
ARM GAS  /tmp/cc8RgEkc.s 			page 6


  80      D3B7CC50 
  80      BFB8243E 
  80      2727452F 
  81 012e 0100B48E 		.ascii	"\001\000\264\216_v"
  81      5F76
  82              		.text
  83              		.section	.gnu.lto_st_lld_get_alarm.99893d4a66e277d1,"",%progbits
  84 0000 789C6362 		.ascii	"x\234cb`b@\007\322@<\211\221\201\301\012\304aa`\004"
  84      60624007 
  84      D2403C89 
  84      9181C10A 
  84      C4616160 
  85 0015 AA606462 		.ascii	"\252`dbd\006\222\314\214@a\006F\206z&f\306\372H\020"
  85      640692CC 
  85      8C406106 
  85      46867A26 
  85      66C6FA48 
  86 002a 9B815989 		.ascii	"\233\201Y\211aaC\303\254\007O\367\317\224\350Z\3208"
  86      616143C3 
  86      AC074FF7 
  86      CF94E85A 
  86      D038
  87 003c A1E1DFFF 		.ascii	"\241\341\337\377\377\214\231 \251dF\206\010 \213Q\000"
  87      FF8C9920 
  87      A9644686 
  87      08208B51 
  87      00
  88 004d 4C31A1D9 		.ascii	"L1\241\331\003\3266\251a\362\323\200\023\015-\007\376"
  88      03D636A9 
  88      61F2D380 
  88      130D2D07 
  88      FE
  89 005e FFB7CF04 		.ascii	"\377\267\317\004\331\000\323\243\000\321\303\202U\317"
  89      D900D3A3 
  89      00D1C382 
  89      55CF
  90 006c 5C243D2C 		.ascii	"\\$=,\204\364\254g:\360\340\377\377;\367\027<\356`\024"
  90      84F4AC67 
  90      3AF0E0FF 
  90      FF3BF717 
  90      3CEE6014 
  91 0080 66616400 		.ascii	"fad\000Z\303\004$X\230\031\300\216d`ehih\230\240\000"
  91      5AC30424 
  91      589819C0 
  91      8E646065 
  91      68696898 
  92 0096 36060842 		.ascii	"6\006\010B\300d(\310\317\314g\031\232v\374\330\177\222"
  92      C06428C8 
  92      CFCC6719 
  92      9A76FCD8 
  92      7F92
  93 00a8 25917109 		.ascii	"%\221q\011#+C:##\310|\346\206\216\206\006\220\035g\031"
  93      232B433A 
  93      2323C87C 
  93      E6868E86 
  93      06901D67 
  94 00bd 0EDDB920 		.ascii	"\016\335\271 \014\223c\322eX\323\320\002\224g\325fX"
ARM GAS  /tmp/cc8RgEkc.s 			page 7


  94      0C9363D2 
  94      6558D3D0 
  94      029467D5 
  94      6658
  95 00cf D5D0D2D8 		.ascii	"\325\320\322\3300\031\310f\233\3150\013H\261\303\264"
  95      3019C866 
  95      9BCD300B 
  95      48B1C3B4 
  96 00df 821D94C4 		.ascii	"\202\035\224\304\010q\030H\204\003\311\241@\333\336"
  96      08711848 
  96      8403C9A1 
  96      40DBDE
  97 00ee 35F3C1CC 		.ascii	"5\363\301\314cNg\204\006X(H\037\363i\206F\240\342\024"
  97      634E6784 
  97      06582848 
  97      1FF36986 
  97      46A0E214 
  98 0102 90DE8B0C 		.ascii	"\220\336\213\014\214pU\020%!\240h\001)\267\320\317\310"
  98      8C705510 
  98      2521A068 
  98      0129B7D0 
  98      CFC8
  99 0114 CF4DD54F 		.ascii	"\317M\325OMK\325w\316\310L\312\364\017\326\317/\326"
  99      4D4BD577 
  99      CEC84CCA 
  99      F40FD6CF 
  99      2FD6
 100 0126 CF48CCD1 		.ascii	"\317H\314\321/\310/*)\326\017\016\36156\322\367\361"
 100      2FC82F2A 
 100      29D60F0E 
 100      F13536D2 
 100      F7F1
 101 0138 71D10FF1 		.ascii	"q\321\017\361\364-3\324/.\211\317\311I\321\313`\000"
 101      F42D33D4 
 101      2F2E89CF 
 101      C949D1CB 
 101      6000
 102 014a 00776168 		.ascii	"\000wahm"
 102      6D
 103              		.text
 104              		.section	.gnu.lto_stInit.99893d4a66e277d1,"",%progbits
 105 0000 789C6362 		.ascii	"x\234cb`b@\007\"@\\\014\304* \0163\003#P\005#\023##"
 105      60624007 
 105      22405C0C 
 105      C42A200E 
 105      33032350 
 106 0019 90C3C850 		.ascii	"\220\303\310P\317\304X\037\311\010V\266\236\351\300"
 106      CFC4581F 
 106      C90856B6 
 106      9EE9C0
 107 0028 83FFFFD7 		.ascii	"\203\377\377\327\375X\373\260\036,\311\312\320\322\320"
 107      FD58FBB0 
 107      1E2CC9CA 
 107      D0D2D0
 108 0037 30418181 		.ascii	"0A\201\201!\031,\037\002&CA\272\231\31734?\370g\223"
 108      21192C1F 
 108      02264341 
ARM GAS  /tmp/cc8RgEkc.s 			page 8


 108      BA99CF33 
 108      343FF867 
 109 004c C8B89091 		.ascii	"\310\270\220\221\025(V\315\360\253\241\243A \223\021"
 109      152856CD 
 109      F0ABA1A3 
 109      41209311 
 110 005c A8126254 		.ascii	"\250\022bT&\210\276\310\320\370\340?\023L\021\004\204"
 110      2688BEC8 
 110      D0F8E03F 
 110      134C1104 
 110      84
 111 006d 8024402E 		.ascii	"\200$@.T\322\317\310\317M\325OMK\325w\316\310L\312\364"
 111      54D2CFC8 
 111      CF4DD54F 
 111      4D4BD577 
 111      CEC84CCA 
 112 0082 0FD6CF2F 		.ascii	"\017\326\317/\326\317H\314\321/.J\326/.\321Kf\000\000"
 112      D6CF48CC 
 112      D12F2E4A 
 112      D62F2ED1 
 112      4B660000 
 113 0096 295B2654 		.ascii	")[&T"
 114              		.text
 115              		.section	.gnu.lto_stStartAlarm.99893d4a66e277d1,"",%progbits
 116 0000 789C6362 		.ascii	"x\234cb`b@\007\322@|\000\210U@\034\026\006F\240\012"
 116      60624007 
 116      D2407C00 
 116      8855401C 
 116      160646A0 
 117 0015 46264666 		.ascii	"F&Ff \311\314\310\010\024bd\250gbf\254\217\004\261\031"
 117      20C9CCC8 
 117      08146264 
 117      A8676266 
 117      AC8F04B1 
 118 002a 98941816 		.ascii	"\230\224\030\02664Lz\360\364\371\014\361\256\007\015"
 118      36344C7A 
 118      F0F4F90C 
 118      F1AE070D 
 119 003a 131AFEFD 		.ascii	"\023\032\376\375\377\317\230\011\222Jfd\210\000\262"
 119      FFCF9809 
 119      924A6664 
 119      8800B2
 120 0049 1839C014 		.ascii	"\0309\300\024\023#\252%\271\214\014\353\231\016<\370"
 120      1323AA25 
 120      B98C0CEB 
 120      990E3CF8 
 121 0059 FFFFCEE6 		.ascii	"\377\377\316\346\035\217V1\012212\346\202Mgehih\230"
 121      1D8F5631 
 121      0A323132 
 121      E6824D67 
 121      65686968 
 122 006e A0900B35 		.ascii	"\240\220\0135\002\010B\240$\320\035\314\241 w0\237g"
 122      020842A0 
 122      24D01DCC 
 122      A1207730 
 122      9F67
 123 0080 6879B072 		.ascii	"hy\260r1w\"\343\"FV\240T5\303\257\206\216\006\201LF"
ARM GAS  /tmp/cc8RgEkc.s 			page 9


 123      317722E3 
 123      224656A0 
 123      5435C3AF 
 123      868E0681 
 124 0096 E6644688 		.ascii	"\346dF\2105\351\214@+Y\030\030.24>X\245\014S\007\001"
 124      35E98C40 
 124      2B591818 
 124      2E32343E 
 124      58A50C53 
 125 00ac 21203520 		.ascii	"! 5 _+\351g\344\347\246\352\247\246\245\352;gd&e\372"
 125      5F2BE967 
 125      E4E7A6EA 
 125      A7A6A5EA 
 125      3B676426 
 126 00c2 07EBE717 		.ascii	"\007\353\347\027\353g$\346\350\027\027%\353\027\227"
 126      EB6724E6 
 126      E8171725 
 126      EB1797
 127 00d1 E8253300 		.ascii	"\350%3\000\000\22386\362"
 127      00933836 
 127      F2
 128              		.text
 129              		.section	.gnu.lto_stStopAlarm.99893d4a66e277d1,"",%progbits
 130 0000 789C6362 		.ascii	"x\234cb`b@\007\"@\\\006\304* \0163\003#P\005#\023##"
 130      60624007 
 130      22405C06 
 130      C42A200E 
 130      33032350 
 131 0019 90C3C850 		.ascii	"\220\303\310P\317\304X\037\311\010V\266\236\351\300"
 131      CFC4581F 
 131      C90856B6 
 131      9EE9C0
 132 0028 83FFFFD7 		.ascii	"\203\377\377\327}k\233\363\206q6\023H\214\225\241\245"
 132      7D6B9BF3 
 132      86713613 
 132      488C95A1 
 132      A5
 133 0039 A1618202 		.ascii	"\241a\202\002\003C2XE\010\230\014\005\351g>\317\320"
 133      03433258 
 133      4508980C 
 133      05E9673E 
 133      CFD0
 134 004b FC606F33 		.ascii	"\374`o3w\"\343BFV\240`5\303\257\206\216\006\201LF\240"
 134      7722E342 
 134      4656A060 
 134      35C3AF86 
 134      8E06814C 
 135 0061 52886999 		.ascii	"R\210i\231 \372\"C\343\203}\3120E\020\020\002\222\000"
 135      20FA2243 
 135      E3837DCA 
 135      30451010 
 135      029200
 136 0074 3952493F 		.ascii	"9RI?#?7U?5-U\3379#3)\323?X?\277X?#1G\277\270(Y\277\270"
 136      233F3755 
 136      3F352D55 
 136      DF392333 
 136      29D33F58 
ARM GAS  /tmp/cc8RgEkc.s 			page 10


 137 0095 442F9901 		.ascii	"D/\231\001\000\240\260&\344"
 137      00A0B026 
 137      E4
 138              		.text
 139              		.section	.gnu.lto_stSetAlarm.99893d4a66e277d1,"",%progbits
 140 0000 789C6362 		.ascii	"x\234cb`b@\007\322@\374\005\210U@\034\026\006F\240\012"
 140      60624007 
 140      D240FC05 
 140      8855401C 
 140      160646A0 
 141 0015 46264666 		.ascii	"F&Ff \311\314\310\010\024bd\250gbf\254\217\004\261\031"
 141      20C9CCC8 
 141      08146264 
 141      A8676266 
 141      AC8F04B1 
 142 002a 98951816 		.ascii	"\230\225\030\02664Lz\360\364\333\014\361\256\007\015"
 142      36344C7A 
 142      F0F4DB0C 
 142      F1AE070D 
 143 003a 131AFEFD 		.ascii	"\023\032\376\375\377\317\230\011\222Jfd\210\000\262"
 143      FFCF9809 
 143      924A6664 
 143      8800B2
 144 0049 1839C014 		.ascii	"\0309\300\024\023#\252%\020m\015\353V40/h\370\363\377"
 144      1323AA25 
 144      106D0DEB 
 144      5634302F 
 144      68F8F3FF 
 145 005d 3F33117A 		.ascii	"?3\021zr\031\031\3263\035x\360\377\377\234\335\033\036"
 145      721919D6 
 145      331D78F0 
 145      FFFF9CDD 
 145      1B1E
 146 006f DD631464 		.ascii	"\335c\024dbd\314\005\273\210\225\241\245\241a\202B."
 146      6264CC05 
 146      BB8895A1 
 146      A5A16182 
 146      422E
 147 0081 D4082008 		.ascii	"\324\010 \010\201\222@\2673\207\202\334\316|\236\241"
 147      819240B7 
 147      338782DC 
 147      CE7C9EA1 
 148 0091 E5C1DDC7 		.ascii	"\345\301\335\307\\\211\214\213\031Y\201R\325\014\277"
 148      5C898C8B 
 148      19598152 
 148      D50CBF
 149 00a0 1A3A1A04 		.ascii	"\032:\032\0042\031\231\223\031!\326\2443\002\255da`"
 149      32199993 
 149      1921D6A4 
 149      3302AD64 
 149      6160
 150 00b2 B8C8D0F8 		.ascii	"\270\310\320\370\340\2362L\035\004\204\200\324\200B"
 150      E09E324C 
 150      1D048480 
 150      D48042
 151 00c1 4A493F23 		.ascii	"JI?#?7U?5-U\3379#3)\323?X?\277X?#1G\277\270(Y\277\270"
 151      3F37553F 
ARM GAS  /tmp/cc8RgEkc.s 			page 11


 151      352D55DF 
 151      39233329 
 151      D33F583F 
 152 00e1 442F9901 		.ascii	"D/\231\001\000d\303B\376"
 152      0064C342 
 152      FE
 153              		.text
 154              		.section	.gnu.lto_stGetAlarm.99893d4a66e277d1,"",%progbits
 155 0000 789C8D50 		.ascii	"x\234\215P=K\003A\020\235\267{\201\220*V\266rX\273\265"
 155      3D4B0341 
 155      109DB77B 
 155      81902A56 
 155      B67258BB 
 156 0015 B53FC0C2 		.ascii	"\265?\300\302\004\264\214\347\351-x\004<;\213\033QP"
 156      04B48CE7 
 156      E92D7804 
 156      3C3B8B1B 
 156      5150
 157 0027 C4225889 		.ascii	"\304\"X\211X(XX\351O0\275\205\361\037\234\205\275u0"
 157      58285858 
 157      E94F30BD 
 157      85F11F9C 
 157      85BD7530 
 158 003b B7CEDE45 		.ascii	"\267\316\336E\213\253\034\330\371\340\2757\037\253H"
 158      8BAB1CD8 
 158      F9E0BD37 
 158      1FAB48
 159 004a 51D34279 		.ascii	"Q\323By\253 Z\366E\213 \014(h\361\032\201\370\000\002"
 159      AB205AF6 
 159      458B200C 
 159      2868F11A 
 159      81F80002 
 160 005e 1228573A 		.ascii	"\022(W:@\276\345\013\012B\272g\276*>\313\353\305\213"
 160      40BEE50B 
 160      0A42BA67 
 160      BE2A3ECB 
 160      EBC58B
 161 0071 82475C3A 		.ascii	"\202G\\:\007\353\241\010\264)\031\332UPh\316\3622~z"
 161      07EBA108 
 161      B42919DA 
 161      555068CE 
 161      F2327E7A 
 162 0085 647DC7DF 		.ascii	"d}\307\337\316\351\377jn\306\323\263\313\316\204\317"
 162      CEE9FF6A 
 162      6EC6D3B3 
 162      CBCE84CF 
 163 0095 D9B9DCFA 		.ascii	"\331\271\334\372\355~E\335Z\324\270+\005=\253q\341\334"
 163      ED7E45DD 
 163      5AD4B82B 
 163      053DAB71 
 163      E1DC
 164 00a7 EDCBD747 		.ascii	"\355\313\327G\211\005iZ\251\344\300S\346\321R:\237+"
 164      8905695A 
 164      A9E4C053 
 164      E6D1523A 
 164      9F2B
 165 00b9 D69B7BE9 		.ascii	"\326\233{\351\240\373\236\243\337\350\244\230E\003<"
ARM GAS  /tmp/cc8RgEkc.s 			page 12


 165      A0FB9EA3 
 165      DFE8A498 
 165      45033C
 166 00c8 A0457BC0 		.ascii	"\240E{\300\021Men\327\"\210P\357f\005\250\254\357\177"
 166      114D656E 
 166      D7228850 
 166      EF6605A8 
 166      ACEF7F
 167 00db 48BFD271 		.ascii	"H\277\322q\233h\307\203\357\204?]M\351\371\304o\027"
 167      9B68C783 
 167      EF843F5D 
 167      4DE9F9C4 
 167      6F17
 168 00ed 9A6498C6 		.ascii	"\232d\230\306&\336\215\315Zb\267\355\372\206\031f&\031"
 168      26DE8DCD 
 168      5A62B7ED 
 168      FA861966 
 168      2619
 169 00ff EC9BEC20 		.ascii	"\354\233\354 2\331\341JD?x\327N\360"
 169      32D9E14A 
 169      443F78D7 
 169      4EF0
 170              		.text
 171              		.section	.gnu.lto_.symbol_nodes.99893d4a66e277d1,"",%progbits
 172 0000 789C4DC7 		.ascii	"x\234M\307\271\015\203P\024D\321\231\367Y\253\001\334"
 172      B90D8350 
 172      1444D199 
 172      F759AB01 
 172      DC
 173 0011 912B1904 		.ascii	"\221+\031\004\011!\011k+\356\301\241cW\202,\363\221"
 173      0921096B 
 173      2BEEC1A1 
 173      6357822C 
 173      F391
 174 0023 7837B93A 		.ascii	"x7\271:\006\303\013WV\011\030\337\2004\015O\253E\247"
 174      06C30B57 
 174      560918DF 
 174      80340D4F 
 174      AB45A7
 175 0036 46E6F450 		.ascii	"F\346\364Pp\232\250\344\342g\240\315T\352\270P\231\343"
 175      709AA8E4 
 175      E267A0CD 
 175      54EAB850 
 175      99E3
 176 0048 4AE58E1B 		.ascii	"J\345\216\033U\334\344N\225\221m\313\220\224\350\277"
 176      55DCE44E 
 176      95916DCB 
 176      9094E8BF 
 177 0058 07430A74 		.ascii	"\007C\012t\377g\214\317-\276\010\347\361\003(0;Z"
 177      FF678CCF 
 177      2DBE08E7 
 177      F1032830 
 177      3B5A
 178              		.text
 179              		.section	.gnu.lto_.refs.99893d4a66e277d1,"",%progbits
 180 0000 789C6362 		.ascii	"x\234cb`b`d\200\002\000\000F\000\006"
 180      60626064 
ARM GAS  /tmp/cc8RgEkc.s 			page 13


 180      80020000 
 180      460006
 181              		.text
 182              		.section	.gnu.lto_.decls.99893d4a66e277d1,"",%progbits
 183 0000 789CB558 		.ascii	"x\234\265X}l\024E\024\237\331\273\266\327\017j\301h"
 183      7D6C1445 
 183      149FD9BB 
 183      B6D70F6A 
 183      C168
 184 0012 EA1FC413 		.ascii	"\352\037\304\023\3054D8Z\002\361#!\205+A\022\253\344"
 184      C5344438 
 184      5A02F123 
 184      21852B41 
 184      12ABE4
 185 0025 0A09897F 		.ascii	"\012\011\211\177\034K{\330K\372\201\275\255\306\277"
 185      1C4B7BD8 
 185      4BFA81BD 
 185      ADC6BF
 186 0034 9C96521A 		.ascii	"\234\226R\032\214ZE\264\255\002m\245\261\306\200M\301"
 186      8C5A45B4 
 186      AD026DA5 
 186      B1C6804D 
 186      C1
 187 0045 425A52B6 		.ascii	"BZR\266\210\224\332 \265\030\2246$\347Gc\2141F\2116"
 187      8894DA20 
 187      B5189436 
 187      24E74763 
 187      8C314689 
 188 005a 48F57C33 		.ascii	"H\365|3;{\273;\335-{&n\362^\337\316\275\367\233\337"
 188      3B7BBB3B 
 188      DD2D7B26 
 188      6EF25EDF 
 188      CEBDF79B 
 189 006f 7BF37676 		.ascii	"{\363vv\266\022\222P\257\204P\002\256\373\356A\250\031"
 189      B6129250 
 189      AF845002 
 189      AEFBEE41 
 189      A819
 190 0081 EC2C84D0 		.ascii	"\354,\204\320zd\\\364\276\013\244\037d\000d\020d\030"
 190      7A645CF4 
 190      BE0BA41F 
 190      64006410 
 190      6418
 191 0093 6404E422 		.ascii	"d\004\344\"\310\030\310e\220\0114\377\242q>\220I\220"
 191      C818C865 
 191      900934FF 
 191      A2713E90 
 191      4990
 192 00a5 5C901C90 		.ascii	"\\\220\034\220\014\220\353 \177\201\\\005\361\202x@"
 192      0C90EB20 
 192      7F815C05 
 192      F1827840 
 193 00b5 6E81FC08 		.ascii	"n\201\374\0102\003\202y,\375\373\261\200Iy\244\011\230"
 193      32038279 
 193      2CFDFBB1 
 193      804979A4 
 193      0998
ARM GAS  /tmp/cc8RgEkc.s 			page 14


 194 00c7 D7391636 		.ascii	"\3279\0266\305\367\333\360\031p\311\007s>\230\307\320"
 194      C5F7DBF0 
 194      1970C907 
 194      733E98C7 
 194      D0
 195 00d8 BF67042C 		.ascii	"\277g\004,Z\207L\220c&\254I\027x\203\374\357\"l\305"
 195      5A874C90 
 195      6326AC49 
 195      177883FC 
 195      EF226CC5 
 196 00ec A3359528 		.ascii	"\2435\225(\026\214\237\344c\022\037\267\253\355\010"
 196      168C9FE4 
 196      63121FB7 
 196      ABED08
 197 00fb AFC35DD8 		.ascii	"\257\303]\330\230\177\011\330\335\246X\352\323\305\355"
 197      987F09D8 
 197      DDA658EA 
 197      D3C5ED
 198 010a BBE1B74F 		.ascii	"\273\341\267O\005\214\213\016s\322q\273\372\215\271"
 198      058C8B0E 
 198      73D271BB 
 198      FA8DB9
 199 0119 9893FA0C 		.ascii	"\230\223\372\014p{)\3746.`\320^I\0270h\015\227\301\375"
 199      707B29FC 
 199      362E60D0 
 199      5E491730 
 199      680D97C1 
 200 012e 900987FA 		.ascii	"\220\011\207\372\015r\373A\370m\271P\257\373\321\021"
 200      0D72FB41 
 200      F86DB950 
 200      AFFBD111 
 201 013e A24EC47B 		.ascii	"\242N\304{N|+\265\023\265\211@\013\023\354\277\027\035"
 201      4E7C2BB5 
 201      13B58940 
 201      0B13ECBF 
 201      171D
 202 0150 22707536 		.ascii	"\"pu6\023\202\025\031\257\277\007\355\3002\316\315D"
 202      13821519 
 202      AFBF07ED 
 202      C032CECD 
 202      44
 203 0161 7E66E464 		.ascii	"~f\344d\262\365@H\306\335\370^fy\330\014\260\224-\204"
 203      B2F54048 
 203      C6DDF85E 
 203      6679D80C 
 203      B0942D84 
 204 0175 3412D24C 		.ascii	"4\022\322L\012z\201\026\217\312\323\243\250\317rt\214"
 204      0A7A8116 
 204      8FCAD3A3 
 204      A8CF7274 
 204      8C
 205 0186 90D6F8EC 		.ascii	"\220\326\370\354'W%B|2>\206\351x\024\243\025\350C\230"
 205      27572542 
 205      7C323E86 
 205      E97814A3 
 205      15E84398 
 206 019a B39590EF 		.ascii	"\263\225\220\357\036\027H\242\324\240\377\330\177\372"
ARM GAS  /tmp/cc8RgEkc.s 			page 15


 206      1E1748A2 
 206      D4A0FFD8 
 206      7FFA
 207 01a8 1106DDCB 		.ascii	"\021\006\335\313\240\3330\006\242\037\340\025)\003\035"
 207      A0DB3006 
 207      A21FE015 
 207      29031D
 208 01b7 1C3FFE18 		.ascii	"\034?\376\030\003\372\210\001]\021\200d\354\31143d\367"
 208      03FA8801 
 208      5D118064 
 208      ECC93433 
 208      64F7
 209 01c9 BA034563 		.ascii	"\272\003Ec?s#\221\360\240\377\321Y\306\333\215\020\011"
 209      3F732391 
 209      F0A0FFD1 
 209      59C6DB8D 
 209      1009
 210 01db 4D09541F 		.ascii	"M\011T\037B\357\023\362&,\363Xz\033Q%\275\352\2770\267"
 210      42EF13F2 
 210      262CF358 
 210      7A1B5125 
 210      BDEABF30 
 211 01f0 2E7CBF6D 		.ascii	".|\277m\0254/\270\036F=\264\035\256\223\255\371\254"
 211      15342FB8 
 211      1E463DB4 
 211      1DAE93AD 
 211      F9AC
 212 0202 19100FB2 		.ascii	"\031\020\017\2620<\201\245\371\215\245v\214\347\264"
 212      303C81A5 
 212      F98DA576 
 212      8CE7B4
 213 0211 36C41389 		.ascii	"6\304\023\211\243\235y\356\233\352$o*#)\011\375.d\224"
 213      A39D79EE 
 213      9BEA246F 
 213      2A232909 
 213      FD2E6494 
 214 0225 64457A89 		.ascii	"dEz\211'\311\252_du\312\226\325\244\301Jka\0115Iv\025"
 214      27C9AA5F 
 214      6475CA96 
 214      D5A4C14A 
 214      6B610935 
 215 023c 23E7E402 		.ascii	"#\347\344\002\255\0142\356\003(\031\017\374\227b\015"
 215      AD0C32EE 
 215      0328190F 
 215      FC97620D 
 216 024c 88B44EDB 		.ascii	"\210\264N\333\322\272=\376\336}\244\263QM$\316\251~"
 216      D2BA3DFE 
 216      DE7DA4B3 
 216      514D24CE 
 216      A97E
 217 025e 24D48BC2 		.ascii	"$\324\213\302;\025l\310\246`\207$\333\2025\222\276^"
 217      3B156CC8 
 217      A6608724 
 217      DB823592 
 217      BE5E
 218 0270 92A6B395 		.ascii	"\222\246\263\225\361\240C>\034\357\354|\242\235j\374"
 218      F1A0433E 
ARM GAS  /tmp/cc8RgEkc.s 			page 16


 218      1CEFEC7C 
 218      A29D6AFC 
 219 0280 F0C1E174 		.ascii	"\360\301\341tc\273\340+&\2411\373)\2055\032\026\213"
 219      63BBE02B 
 219      26A131FB 
 219      2985351A 
 219      168B
 220 0292 716EFE1C 		.ascii	"qn\376\034\361\011u\360\"_#\277\276D\023\366Kt{g\201"
 220      F10975F0 
 220      225F23BF 
 220      BE4413F6 
 220      4B747B67 
 221 02a7 DECF3798 		.ascii	"\336\3177\230\307\210\313%z\225\354\313\303IZ#\"\255"
 221      C788CB25 
 221      7A95ECCB 
 221      C3495A23 
 221      22AD
 222 02b9 F3B6B4FE 		.ascii	"\363\266\264\3764\321\322\262\236q\225\365E\021~\324"
 222      34D1D2B2 
 222      9E7195F5 
 222      45117ED4 
 223 02c9 16BE7F54 		.ascii	"\026\276\177T\314\3727\373\254gw&\033\363\002k\314\261"
 223      CCFA37FB 
 223      AC677726 
 223      1BF3026B 
 223      CCB1
 224 02db FF94F598 		.ascii	"\377\224\365\230H\353s[Z7G_\325;\263\230\367\233\204"
 224      48EB735B 
 224      5A37475F 
 224      D53BB398 
 224      F79B84
 225 02ee E6DC75D8 		.ascii	"\346\334u\330\345\205;\354\013\233\011[\3433\377\250"
 225      E5853BEC 
 225      0B9B095B 
 225      E333FFA8 
 226 02fe B89D9CA7 		.ascii	"\270\235\234\247\035\366r\262\277\366{\304\0115\210"
 226      1DF672B2 
 226      BFF67BC4 
 226      093588
 227 030d 2FAD10D9 		.ascii	"/\255\020\331\350\000e\001\017\316\223\227r\227\240"
 227      E8006501 
 227      0FCE9397 
 227      7297A0
 228 031c 3768D6FE 		.ascii	"7h\326\376K\306VO\322u\032;Qr\257\377\272cv\035\333"
 228      4BC6564F 
 228      D2751A3B 
 228      5172AFFF 
 228      BA63761D 
 229 0331 EBAFE225 		.ascii	"\353\257\342%t\257\027\246\272#\014\345q\015B\265 \006"
 229      74AF17A6 
 229      BA230CE5 
 229      710D42B5 
 229      2006
 230 0343 4AD483D3 		.ascii	"J\324\203\3239\304\253\215#\033\346\374z\000u\222\246"
 230      39C4AB8D 
 230      231BE6FC 
 230      7A007592 
ARM GAS  /tmp/cc8RgEkc.s 			page 17


 230      A6
 231 0354 BDEAA169 		.ascii	"\275\352\241i\372\364\237\307\354\375\264\227\323G\266"
 231      FAF49FC7 
 231      ECFDB497 
 231      D347B6
 232 0363 CF7CF245 		.ascii	"\317|\362E\367\331\010\2067\031\346\257\264\205Bd<\205"
 232      F7D90886 
 232      3719E6AF 
 232      B4854264 
 232      3C85
 233 0375 9783CEB0 		.ascii	"\227\203\316\260\276H22\015\203\236_\357\242[\307\264"
 233      BE483232 
 233      0D839E5F 
 233      EFA25BC7 
 233      B4
 234 0386 C7F68DE9 		.ascii	"\307\366\215\351\202\321\301\361\013o\340\275\300H\306"
 234      82D1C1F1 
 234      0B6FE0BD 
 234      C048C6
 235 0395 37D813F9 		.ascii	"7\330\023\371\203G|gf\010\357\314;\023J\321]B\277\262"
 235      83477C67 
 235      6608EFCC 
 235      3B134AD1 
 235      5D42BFB2 
 236 03a9 4969D5ED 		.ascii	"Ii\325\355\250rS\273\270\203e%\342\327\246f\330\366"
 236      A87253BB 
 236      B8836525 
 236      E2D7A666 
 236      D8F6
 237 03bb 064FEF75 		.ascii	"\006O\357u\226\305\315\224\001\375\226\245m\233\316"
 237      96C5CD94 
 237      01FD96A5 
 237      6D9BCE
 238 03ca 699575B0 		.ascii	"i\225u\260Y7`>Gvj\207\031l.e0+\263\367\314`\015^\027"
 238      5937603E 
 238      47766A87 
 238      196C2E65 
 238      302BB3F7 
 239 03e3 6079CECC 		.ascii	"`y\316\314\216\230\301\232R\006\2632\3533\203\265\270"
 239      8E98C19A 
 239      5206B332 
 239      EB3383B5 
 239      B8
 240 03f4 01CB7766 		.ascii	"\001\313wf\326o\006{-e0+\263Sf\260\267\334\200\371\235"
 240      D66F067B 
 240      2D65302B 
 240      B35366B0 
 240      B7DC80F9 
 241 0409 990D98C1 		.ascii	"\231\015\230\301\332S\006\2632;c\006;\354\006\254\300"
 241      DA5306B3 
 241      323B6306 
 241      3BEC06AC 
 241      C0
 242 041a 99D9A019 		.ascii	"\231\331\240\031\254+e0+\263\263f\260\0367`\253\235"
 242      AC2B6530 
 242      2BB3B366 
 242      B01E3760 
ARM GAS  /tmp/cc8RgEkc.s 			page 18


 242      AB9D
 243 042c 9835A8C3 		.ascii	"\2305\250\303\317\266\312\213Q+\337\2205T}S\306\326"
 243      CFB6CA8B 
 243      512BDF90 
 243      35547D53 
 243      C6D6
 244 043e D632BB4D 		.ascii	"\3262\273M;\273\311\3706^\314,\266\327\021\276\3271"
 244      3BBBC9F8 
 244      365ECC2C 
 244      B6D711BE 
 244      D731
 245 0450 0FA743D7 		.ascii	"\017\247C\327\234\366Z5\036\177n\230\217\356\206\027"
 245      9CF65A35 
 245      1E7F6E98 
 245      8FEE8617 
 246 0460 A4FDA198 		.ascii	"\244\375\241\230\266\225\205]\336\326\"N\230\213x\334"
 246      B695855D 
 246      DED6224E 
 246      988B78DC 
 247 0470 4D118B9D 		.ascii	"M\021\213\235\301&\315`\375n\300\236t\356\225\257\314"
 247      C126CD60 
 247      FD6EC09E 
 247      74EE95AF 
 247      CC
 248 0481 60032983 		.ascii	"`\003)\203Y\231]3\203\015\271\001\333\352\314\354\033"
 248      59995D33 
 248      830DB901 
 248      DBEACCEC 
 248      1B
 249 0492 33D870CA 		.ascii	"3\330p\312`ff\015\352\224\321x\235\305B\347\025[w[\213"
 249      6066660D 
 249      EA94D178 
 249      9DC542E7 
 249      155B775B 
 250 04a7 DBB4A39B 		.ascii	"\333\264\243\233\214\017H\2516\336+\222}\343\231\277"
 250      8C0F48A9 
 250      36DE2B92 
 250      7DE399BF 
 251 04b7 9A0D2F48 		.ascii	"\232\015/H\373\202\230\266\205\0047w\330\324\320\356"
 251      FB8298B6 
 251      85043777 
 251      D8D4D0EE 
 252 04c7 321F7364 		.ascii	"2\037sd\3745;T|\203\037\000\375-\323\3373=\303\364\217"
 252      FC353B54 
 252      7C831F00 
 252      FD2DD3DF 
 252      333DC3F4 
 253 04dc 4CFFC4F4 		.ascii	"L\377\304\364\317L\377\302\364\257L\377\306\364M\246"
 253      CF4CFFC2 
 253      F4AF4CFF 
 253      C6F44DA6 
 254 04ec FF607A96 		.ascii	"\377`z\226\351[L\377\3034\221\250nd\272\211\351f\246"
 254      E95B4CFF 
 254      C33491A8 
 254      6E64BA89 
 254      E966A6
 255 04ff 5B40272F 		.ascii	"[@'/\247BM\342l\335\305\217\216Bq\343\373\276\313l\364"
ARM GAS  /tmp/cc8RgEkc.s 			page 19


 255      A7424DE2 
 255      6CDDC58F 
 255      8E4271E3 
 255      FBBECB6C 
 256 0514 260FBF83 		.ascii	"&\017\277\203\346\303\257\345\324\250\2358\235p_\223"
 256      E6C3AFE5 
 256      D4A89D38 
 256      9D705F93 
 257 0524 92B83EB4 		.ascii	"\222\270>\264\237F\305\367\221\006\374|\222\211\317"
 257      9F46C5F7 
 257      9106FC7C 
 257      9289CF
 258 0533 BC24DA59 		.ascii	"\274$\332Y\020\272\001>\273_\227|\364;\311k\367\017"
 258      10BA013E 
 258      BB5F977C 
 258      F43BC96B 
 258      F70F
 259 0545 0E064D1D 		.ascii	"\016\006M\035\364\2244[\267\360<\212\335\013P|\323\240"
 259      F494345B 
 259      B7F03C8A 
 259      DD0B507C 
 259      D3A0
 260 0557 B80C7591 		.ascii	"\270\014u\221\211\211\370\341\253W\012\033Z\325\206"
 260      8989F8E1 
 260      AB570A1B 
 260      5AD586
 261 0566 4E329748 		.ascii	"N2\227H`\254o\214m\271\374t\027\357Q\363\333r\357\224"
 261      60AC6F8C 
 261      6DB9FC74 
 261      17EF51F3 
 261      DB72EF94 
 262 057a 42D299E4 		.ascii	"B\322\231\344\347\333\373\312\370m\211\366\304;\246"
 262      E7DBFBCA 
 262      F86D89F6 
 262      C43BA6
 263 0589 2ED56CDD 		.ascii	".\325l\335J`\332\224W\234\213\260p(\237\264R\237t\021"
 263      4A60DA94 
 263      579C8BB0 
 263      70289FB4 
 263      529F7411 
 264 059d F335F2D1 		.ascii	"\3635\362\321<\355\275d\334\236\362\343\326\341\360"
 264      3CEDBD64 
 264      DC9EF2E3 
 264      D6E1F0
 265 05ac B8E55838 		.ascii	"\270\345X8w\030\217\333W^\341+T \001\337\251<w\031g"
 265      77188FDB 
 265      575EE12B 
 265      542001DF 
 265      A93C7719 
 266 05c1 617D81D4 		.ascii	"a}\201\324\201Q\342\353#-\364\213\307\234\314!#\231"
 266      8151E2EB 
 266      232DF48B 
 266      C79CCC21 
 266      2399
 267 05d3 1D3A4EF6 		.ascii	"\035:N\366B)\013^2>\232r\312\235\016)gYR\326\275\300"
 267      42290B5E 
 267      323E9A72 
ARM GAS  /tmp/cc8RgEkc.s 			page 20


 267      CA9D0E29 
 267      675952D6 
 268 05e9 7C57123E 		.ascii	"|W\022>A\005\022\022\372\331\222\262\320\311C\013tr"
 268      41051212 
 268      FAD992B2 
 268      D0C9430B 
 268      7472
 269 05fb B7D8C9EA 		.ascii	"\267\330\311\352\237F\241d|\004\222\323\347\277\274"
 269      9F46A164 
 269      7C0492D3 
 269      E7BFBC
 270 060a C0FCB72C 		.ascii	"\300\374\267,\363k\333\201\372\367(\361\373\223\333"
 270      F36BDB81 
 270      FAF728F1 
 270      FB93DB
 271 0619 C165CBB7 		.ascii	"\301e\313\267\360\243\201\312\332\352H \262;\022\010"
 271      F0A381CA 
 271      DAEA4820 
 271      B23B1208 
 272 0629 56467745 		.ascii	"VFwE\237)\013\324\306\002\225rU`Om\235\022\013\224m"
 272      9F290BD4 
 272      C6029572 
 272      55604F6D 
 272      9D120B94 
 273 063e 2B5D5314 		.ascii	"+]S\024x\352\251\222\300\266-\245/\024\006bJ\270\252"
 273      78EAA992 
 273      C0B62DA5 
 273      2F140662 
 273      4AB8AA
 274 0651 AA625525 		.ascii	"\252bU%Zi\033X\247\004\2425\345U\365\025\221@ye\354"
 274      5A691B58 
 274      A704A235 
 274      E555F515 
 274      91407965 
 275 0666 A598F2D2 		.ascii	"\245\230\362\322\236H\014\2743\251\035\255\216\204\225"
 275      9E480CBC 
 275      33A91DAD 
 275      8E8495
 276 0675 F4CD4F6F 		.ascii	"\364\315Oo\367\007\321\322@}\254.\351[\023y\261*\272"
 276      F707D1D2 
 276      407DAC2E 
 276      E95B1379 
 276      B12ABA
 277 0688 0BC02BA2 		.ascii	"\013\300+\2425\012\270\373\352\341o\341\272\260\262"
 277      350AB8FB 
 277      EAE16FE1 
 277      BAB0B2
 278 0697 D2CEAD5A 		.ascii	"\322\316\255Z.\257\214\326D\002\341\212\310n\271\276"
 278      2EAF8CD6 
 278      4402E18A 
 278      C86EB9BE 
 279 06a7 4A09EBB3 		.ascii	"J\011\353\263d\205\303z\340\022\215h8\246\310uJX\256"
 279      6485C37A 
 279      E0128D68 
 279      38A6C875 
 279      4A58AE
 280 06ba 92EBAABD 		.ascii	"\222\353\252\275\224\300\342\344x\355\036m8O\037\211"
ARM GAS  /tmp/cc8RgEkc.s 			page 21


 280      94C0E2E4 
 280      78ED1E6D 
 280      384F1F89 
 281 06ca 28D681E7 		.ascii	"(\326\201\347\364\201e\2165\212\325\225\003\351U\345"
 281      F481658E 
 281      358AD595 
 281      03E955E5 
 282 06da 283DA66C 		.ascii	"(=\246l\251\211*91\245\214N\270\201\206e\310\273X\316"
 282      A9892A39 
 282      31A58C4E 
 282      B8818665 
 282      C8BB58CE 
 283 06ee D974B076 		.ascii	"\331t\260v\017\033\313\002;\242\350\346fnf\363\031\243"
 283      0F1BCB02 
 283      3BA2E8E6 
 283      666E66F3 
 283      19A3
 284 0700 00F144CA 		.ascii	"\000\361D\312\013R\275\246(\014\363@\376\331\311\233"
 284      0B52BDA6 
 284      280CF340 
 284      FED9C99B 
 285 0710 B0C24A48 		.ascii	"\260\302JHoxQ\250\351\011\206\012A\212\274e\245\301"
 285      6F7851A8 
 285      E909860A 
 285      418ABC65 
 285      A5C1
 286 0722 90B764CB 		.ascii	"\220\267d\313\246\220T\026\362l\332\034J\013\006KC\205"
 286      A6905416 
 286      F26CDA1C 
 286      4A0B064B 
 286      4385
 287 0734 4C177983 		.ascii	"L\027y\203\301M!O\360\351m\236\255eA\317\206P\310\023"
 287      C14D214F 
 287      F0E96D9E 
 287      AD6541CF 
 287      8650C813 
 288 0748 0AC23D04 		.ascii	"\012\302=\004l,\331\026\362\224\320\310\322\015!\351"
 288      6C2CD916 
 288      F294D0C8 
 288      D20D21E9 
 289 0758 192D6A0D 		.ascii	"\031-j\015\370\357\010\245\2057\326\326Vy\313+\345:"
 289      F8EF08A5 
 289      8537D6D6 
 289      5679CB2B 
 289      E53A
 290 076a 5F38BCBB 		.ascii	"_8\274\273\276\246<\034^\244\033\253\326>\272z\255\371"
 290      BEA63C1C 
 290      5EA41BAB 
 290      D63EBA7A 
 290      ADF9
 291 077c AEB0C872 		.ascii	"\256\260\310r\267\356_F\030\351\023"
 291      B7EE5F46 
 291      18E913
 292              		.text
 293              		.section	.gnu.lto_.symtab.99893d4a66e277d1,"",%progbits
 294 0000 7374496E 		.ascii	"stInit\000\000\000\000\000\000\000\000\000\000\000\000"
 294      69740000 
ARM GAS  /tmp/cc8RgEkc.s 			page 22


 294      00000000 
 294      00000000 
 294      0000
 295 0012 BE000000 		.ascii	"\276\000\000\000stStartAlarm\000\000\000\000\000\000"
 295      73745374 
 295      61727441 
 295      6C61726D 
 295      00000000 
 296 0028 00000000 		.ascii	"\000\000\000\000\000\000\301\000\000\000stStopAlarm"
 296      0000C100 
 296      00007374 
 296      53746F70 
 296      416C6172 
 297 003d 00000000 		.ascii	"\000\000\000\000\000\000\000\000\000\000\000\000\306"
 297      00000000 
 297      00000000 
 297      C6
 298 004a 00000073 		.ascii	"\000\000\000stSetAlarm\000\000\000\000\000\000\000\000"
 298      74536574 
 298      416C6172 
 298      6D000000 
 298      00000000 
 299 005f 00000000 		.ascii	"\000\000\000\000\311\000\000\000stGetAlarm\000\000\000"
 299      C9000000 
 299      73744765 
 299      74416C61 
 299      726D0000 
 300 0074 00000000 		.ascii	"\000\000\000\000\000\000\000\000\000\315\000\000\000"
 300      00000000 
 300      00CD0000 
 300      00
 301 0081 73745F6C 		.ascii	"st_lld_init\000\000\002\000\000\000\000\000\000\000"
 301      6C645F69 
 301      6E697400 
 301      00020000 
 301      00000000 
 302 0096 0000D000 		.ascii	"\000\000\320\000\000\000"
 302      0000
 303              		.text
 304              		.section	.gnu.lto_.opts,"",%progbits
 305 0000 272D6D63 		.ascii	"'-mcpu=cortex-m0' '-mno-thumb-interwork' '-mthumb' "
 305      70753D63 
 305      6F727465 
 305      782D6D30 
 305      2720272D 
 306 0033 272D6767 		.ascii	"'-ggdb' '-O0' '-fomit-frame-pointer' '-falign-funct"
 306      64622720 
 306      272D4F30 
 306      2720272D 
 306      666F6D69 
 307 0066 696F6E73 		.ascii	"ions=16' '-ffunction-sections' '-fdata-sections' '-"
 307      3D313627 
 307      20272D66 
 307      66756E63 
 307      74696F6E 
 308 0099 666E6F2D 		.ascii	"fno-common' '-flto'\000"
 308      636F6D6D 
ARM GAS  /tmp/cc8RgEkc.s 			page 23


 308      6F6E2720 
 308      272D666C 
 308      746F2700 
 309              		.text
 310              		.cfi_sections	.debug_frame
 311              		.section	.text.st_lld_start_alarm,"ax",%progbits
 312              		.align	2
 313              		.p2align 4,,15
 314              		.code	16
 315              		.thumb_func
 316              		.type	st_lld_start_alarm, %function
 317              	st_lld_start_alarm:
 318              	.LFB47:
 319              		.file 1 "/home/efe/ChibiOS/os/hal/ports/STM32/LLD/TIMv1/st_lld.h"
 320              		.loc 1 153 0
 321              		.cfi_startproc
 322 0000 82B0     		sub	sp, sp, #8
 323              		.cfi_def_cfa_offset 8
 324 0002 021C     		mov	r2, r0
 325 0004 6B46     		mov	r3, sp
 326 0006 0633     		add	r3, r3, #6
 327 0008 1A80     		strh	r2, [r3]
 328              		.loc 1 155 0
 329 000a 064B     		ldr	r3, .L2
 330 000c 6A46     		mov	r2, sp
 331 000e 0632     		add	r2, r2, #6
 332 0010 1288     		ldrh	r2, [r2]
 333 0012 5A63     		str	r2, [r3, #52]
 334              		.loc 1 156 0
 335 0014 034B     		ldr	r3, .L2
 336 0016 0022     		mov	r2, #0
 337 0018 1A61     		str	r2, [r3, #16]
 338              		.loc 1 157 0
 339 001a 024B     		ldr	r3, .L2
 340 001c 0222     		mov	r2, #2
 341 001e DA60     		str	r2, [r3, #12]
 342              		.loc 1 158 0
 343 0020 02B0     		add	sp, sp, #8
 344              		@ sp needed
 345 0022 7047     		bx	lr
 346              	.L3:
 347              		.align	2
 348              	.L2:
 349 0024 00040040 		.word	1073742848
 350              		.cfi_endproc
 351              	.LFE47:
 352              		.size	st_lld_start_alarm, .-st_lld_start_alarm
 353 0028 C046C046 		.section	.text.st_lld_stop_alarm,"ax",%progbits
 353      C046C046 
 354              		.align	2
 355              		.p2align 4,,15
 356              		.code	16
 357              		.thumb_func
 358              		.type	st_lld_stop_alarm, %function
 359              	st_lld_stop_alarm:
 360              	.LFB48:
 361              		.loc 1 165 0
ARM GAS  /tmp/cc8RgEkc.s 			page 24


 362              		.cfi_startproc
 363              		.loc 1 167 0
 364 0000 014B     		ldr	r3, .L5
 365 0002 0022     		mov	r2, #0
 366 0004 DA60     		str	r2, [r3, #12]
 367              		.loc 1 168 0
 368              		@ sp needed
 369 0006 7047     		bx	lr
 370              	.L6:
 371              		.align	2
 372              	.L5:
 373 0008 00040040 		.word	1073742848
 374              		.cfi_endproc
 375              	.LFE48:
 376              		.size	st_lld_stop_alarm, .-st_lld_stop_alarm
 377 000c C046C046 		.section	.text.st_lld_set_alarm,"ax",%progbits
 378              		.align	2
 379              		.p2align 4,,15
 380              		.code	16
 381              		.thumb_func
 382              		.type	st_lld_set_alarm, %function
 383              	st_lld_set_alarm:
 384              	.LFB49:
 385              		.loc 1 177 0
 386              		.cfi_startproc
 387 0000 82B0     		sub	sp, sp, #8
 388              		.cfi_def_cfa_offset 8
 389 0002 021C     		mov	r2, r0
 390 0004 6B46     		mov	r3, sp
 391 0006 0633     		add	r3, r3, #6
 392 0008 1A80     		strh	r2, [r3]
 393              		.loc 1 179 0
 394 000a 034B     		ldr	r3, .L8
 395 000c 6A46     		mov	r2, sp
 396 000e 0632     		add	r2, r2, #6
 397 0010 1288     		ldrh	r2, [r2]
 398 0012 5A63     		str	r2, [r3, #52]
 399              		.loc 1 180 0
 400 0014 02B0     		add	sp, sp, #8
 401              		@ sp needed
 402 0016 7047     		bx	lr
 403              	.L9:
 404              		.align	2
 405              	.L8:
 406 0018 00040040 		.word	1073742848
 407              		.cfi_endproc
 408              	.LFE49:
 409              		.size	st_lld_set_alarm, .-st_lld_set_alarm
 410 001c C046C046 		.section	.text.st_lld_get_alarm,"ax",%progbits
 411              		.align	2
 412              		.p2align 4,,15
 413              		.code	16
 414              		.thumb_func
 415              		.type	st_lld_get_alarm, %function
 416              	st_lld_get_alarm:
 417              	.LFB50:
 418              		.loc 1 189 0
ARM GAS  /tmp/cc8RgEkc.s 			page 25


 419              		.cfi_startproc
 420              		.loc 1 191 0
 421 0000 024B     		ldr	r3, .L12
 422 0002 5B6B     		ldr	r3, [r3, #52]
 423 0004 9BB2     		uxth	r3, r3
 424              		.loc 1 192 0
 425 0006 181C     		mov	r0, r3
 426              		@ sp needed
 427 0008 7047     		bx	lr
 428              	.L13:
 429 000a C046     		.align	2
 430              	.L12:
 431 000c 00040040 		.word	1073742848
 432              		.cfi_endproc
 433              	.LFE50:
 434              		.size	st_lld_get_alarm, .-st_lld_get_alarm
 435              		.section	.text.stInit,"ax",%progbits
 436              		.align	2
 437              		.p2align 4,,15
 438              		.global	stInit
 439              		.code	16
 440              		.thumb_func
 441              		.type	stInit, %function
 442              	stInit:
 443              	.LFB149:
 444              		.file 2 "/home/efe/ChibiOS/os/hal/src/st.c"
 445              		.loc 2 60 0
 446              		.cfi_startproc
 447 0000 08B5     		push	{r3, lr}
 448              		.cfi_def_cfa_offset 8
 449              		.cfi_offset 3, -8
 450              		.cfi_offset 14, -4
 451              		.loc 2 62 0
 452 0002 FFF7FEFF 		bl	st_lld_init
 453              		.loc 2 63 0
 454              		@ sp needed
 455 0006 08BD     		pop	{r3, pc}
 456              		.cfi_endproc
 457              	.LFE149:
 458              		.size	stInit, .-stInit
 459 0008 C046C046 		.section	.text.stStartAlarm,"ax",%progbits
 459      C046C046 
 460              		.align	2
 461              		.p2align 4,,15
 462              		.global	stStartAlarm
 463              		.code	16
 464              		.thumb_func
 465              		.type	stStartAlarm, %function
 466              	stStartAlarm:
 467              	.LFB150:
 468              		.loc 2 77 0
 469              		.cfi_startproc
 470 0000 00B5     		push	{lr}
 471              		.cfi_def_cfa_offset 4
 472              		.cfi_offset 14, -4
 473 0002 83B0     		sub	sp, sp, #12
 474              		.cfi_def_cfa_offset 16
ARM GAS  /tmp/cc8RgEkc.s 			page 26


 475 0004 021C     		mov	r2, r0
 476 0006 6B46     		mov	r3, sp
 477 0008 0633     		add	r3, r3, #6
 478 000a 1A80     		strh	r2, [r3]
 479              		.loc 2 81 0
 480 000c 6B46     		mov	r3, sp
 481 000e 0633     		add	r3, r3, #6
 482 0010 1B88     		ldrh	r3, [r3]
 483 0012 181C     		mov	r0, r3
 484 0014 FFF7FEFF 		bl	st_lld_start_alarm
 485              		.loc 2 82 0
 486 0018 03B0     		add	sp, sp, #12
 487              		@ sp needed
 488 001a 00BD     		pop	{pc}
 489              		.cfi_endproc
 490              	.LFE150:
 491              		.size	stStartAlarm, .-stStartAlarm
 492 001c C046C046 		.section	.text.stStopAlarm,"ax",%progbits
 493              		.align	2
 494              		.p2align 4,,15
 495              		.global	stStopAlarm
 496              		.code	16
 497              		.thumb_func
 498              		.type	stStopAlarm, %function
 499              	stStopAlarm:
 500              	.LFB151:
 501              		.loc 2 91 0
 502              		.cfi_startproc
 503 0000 08B5     		push	{r3, lr}
 504              		.cfi_def_cfa_offset 8
 505              		.cfi_offset 3, -8
 506              		.cfi_offset 14, -4
 507              		.loc 2 93 0
 508 0002 FFF7FEFF 		bl	st_lld_stop_alarm
 509              		.loc 2 94 0
 510              		@ sp needed
 511 0006 08BD     		pop	{r3, pc}
 512              		.cfi_endproc
 513              	.LFE151:
 514              		.size	stStopAlarm, .-stStopAlarm
 515 0008 C046C046 		.section	.text.stSetAlarm,"ax",%progbits
 515      C046C046 
 516              		.align	2
 517              		.p2align 4,,15
 518              		.global	stSetAlarm
 519              		.code	16
 520              		.thumb_func
 521              		.type	stSetAlarm, %function
 522              	stSetAlarm:
 523              	.LFB152:
 524              		.loc 2 105 0
 525              		.cfi_startproc
 526 0000 00B5     		push	{lr}
 527              		.cfi_def_cfa_offset 4
 528              		.cfi_offset 14, -4
 529 0002 83B0     		sub	sp, sp, #12
 530              		.cfi_def_cfa_offset 16
ARM GAS  /tmp/cc8RgEkc.s 			page 27


 531 0004 021C     		mov	r2, r0
 532 0006 6B46     		mov	r3, sp
 533 0008 0633     		add	r3, r3, #6
 534 000a 1A80     		strh	r2, [r3]
 535              		.loc 2 109 0
 536 000c 6B46     		mov	r3, sp
 537 000e 0633     		add	r3, r3, #6
 538 0010 1B88     		ldrh	r3, [r3]
 539 0012 181C     		mov	r0, r3
 540 0014 FFF7FEFF 		bl	st_lld_set_alarm
 541              		.loc 2 110 0
 542 0018 03B0     		add	sp, sp, #12
 543              		@ sp needed
 544 001a 00BD     		pop	{pc}
 545              		.cfi_endproc
 546              	.LFE152:
 547              		.size	stSetAlarm, .-stSetAlarm
 548 001c C046C046 		.section	.text.stGetAlarm,"ax",%progbits
 549              		.align	2
 550              		.p2align 4,,15
 551              		.global	stGetAlarm
 552              		.code	16
 553              		.thumb_func
 554              		.type	stGetAlarm, %function
 555              	stGetAlarm:
 556              	.LFB153:
 557              		.loc 2 121 0
 558              		.cfi_startproc
 559 0000 08B5     		push	{r3, lr}
 560              		.cfi_def_cfa_offset 8
 561              		.cfi_offset 3, -8
 562              		.cfi_offset 14, -4
 563              		.loc 2 125 0
 564 0002 FFF7FEFF 		bl	st_lld_get_alarm
 565 0006 031C     		mov	r3, r0
 566              		.loc 2 126 0
 567 0008 181C     		mov	r0, r3
 568              		@ sp needed
 569 000a 08BD     		pop	{r3, pc}
 570              		.cfi_endproc
 571              	.LFE153:
 572              		.size	stGetAlarm, .-stGetAlarm
 573 000c C046C046 		.text
 574              	.Letext0:
 575              		.file 3 "/usr/include/newlib/machine/_default_types.h"
 576              		.file 4 "/usr/include/newlib/stdint.h"
 577              		.file 5 "/home/efe/ChibiOS/os/rt/ports/ARMCMx/compilers/GCC/chtypes.h"
 578              		.file 6 "/home/efe/ChibiOS/os/rt/include/chsystypes.h"
 579              		.file 7 "/home/efe/ChibiOS/os/rt/include/chschd.h"
 580              		.file 8 "/home/efe/ChibiOS/os/rt/ports/ARMCMx/chcore.h"
 581              		.file 9 "/home/efe/ChibiOS/os/rt/ports/ARMCMx/chcore_v6m.h"
 582              		.file 10 "/home/efe/ChibiOS/os/hal/ports/STM32/LLD/TIMv1/stm32_tim.h"
 583              		.file 11 "/home/efe/ChibiOS/os/rt/include/chsem.h"
 584              		.file 12 "/home/efe/ChibiOS/os/rt/include/chmtx.h"