ARM GAS  /tmp/cco8gVfz.s 			page 1


   1              		.cpu cortex-m0
   2              		.fpu softvfp
   3              		.eabi_attribute 20, 1
   4              		.eabi_attribute 21, 1
   5              		.eabi_attribute 23, 3
   6              		.eabi_attribute 24, 1
   7              		.eabi_attribute 25, 1
   8              		.eabi_attribute 26, 1
   9              		.eabi_attribute 30, 6
  10              		.eabi_attribute 34, 0
  11              		.eabi_attribute 18, 4
  12              		.code	16
  13              		.file	"st_lld.c"
  14              		.text
  15              	.Ltext0:
  16              		.section	.gnu.lto_.inline.45ef43fd1ec63e9e,"",%progbits
  17 0000 789C6362 		.ascii	"x\234cb`b\300\006\270\030!47\003\003\0133\003\003\023"
  17      6062C006 
  17      B8182134 
  17      3703030B 
  17      33030313 
  18 0014 CB073D06 		.ascii	"\313\007=\006\026\210ZF\014\021&\006\026\036 \311\264"
  18      16885A46 
  18      0C112606 
  18      161E20C9 
  18      B4
  19 0025 401EAE86 		.ascii	"@\036\256\206\013H0c\027f\301.\314\212]\230\015\273"
  19      0B483063 
  19      1766C12E 
  19      CC8A5D98 
  19      0DBB
  20 0037 303B7661 		.ascii	"0;va\016\354\302\234\014\274\006@a\236\015\271p's\303"
  20      0EECC29C 
  20      0CBC0640 
  20      619E0DB9 
  20      702773C3 
  21 004b E41004C4 		.ascii	"\344\020\004\304\343\014\"2@i\271\206_\2140\265\314"
  21      E30C2232 
  21      4069B986 
  21      5F8C30B5 
  21      CC
  22 005c 3C201200 		.ascii	"< \022\000\262\206\014l"
  22      B2860C6C 
  23              		.text
  24              		.section	.gnu.lto_port_lock.45ef43fd1ec63e9e,"",%progbits
  25 0000 789C6362 		.ascii	"x\234cb`b@\007\"@<\035\210\253A\034f\006F\240\012F&"
  25      60624007 
  25      22403C1D 
  25      88AB411C 
  25      660646A0 
  26 0017 46462087 		.ascii	"FF \207\221\241\236\211\261>\222\021\254l=\323\201\007"
  26      91A19E89 
  26      B13E9211 
  26      AC6C3DD3 
  26      8107
  27 0029 FFFFAFDB 		.ascii	"\377\377\257\3332m\331\035\306\233L 1V\206\226\206\206"
  27      326DD91D 
ARM GAS  /tmp/cco8gVfz.s 			page 2


  27      C69B4C20 
  27      31568696 
  27      8686
  28 003b 090A0C0C 		.ascii	"\011\012\014\014\311`\025!`2\024\244\237\371\034C\343"
  28      C9601521 
  28      603214A4 
  28      9FF91C43 
  28      E3
  29 004c C7B71FAE 		.ascii	"\307\267\037\2561\302\225\200\031\015\007\272\317\265"
  29      31C29580 
  29      190D07BA 
  29      CFB5
  30 005a B2323024 		.ascii	"\26220$2.\004\312$3B\014\006Z\223\315\014q\227\034C"
  30      322E04CA 
  30      2433420C 
  30      065A93CD 
  30      0C71971C 
  31 006f C9DC8619 		.ascii	"\311\334\206\031\016\231P\011\206\213\014\215\017\346"
  31      0E995009 
  31      868B0C8D 
  31      0FE6
  32 007d 6A4394C3 		.ascii	"jC\224\303@\010H\033H\265\221~F~n\252~jZ\252\276sFf"
  32      4008481B 
  32      48B5917E 
  32      467E6EAA 
  32      7E6A5AAA 
  33 0095 52A67FB0 		.ascii	"R\246\177\260~~\261~Q\211~A~QI\261\276c\220\257\263"
  33      7E7EB17E 
  33      51897E41 
  33      7E5149B1 
  33      BE6390AF 
  34 00aa 6F857E72 		.ascii	"o\205~rFr~Qj|\231Y\256^\006\203)V-\251\025%\372\316"
  34      46727E51 
  34      6A7C9959 
  34      AE5E0683 
  34      29562DA9 
  35 00c2 BEC19EC1 		.ascii	"\276\301\236\301\372\231y\3119\245)\251\372`-\311\271"
  35      FA9979C9 
  35      39A529A9 
  35      FA602DC9 
  35      B9
  36 00d3 6EA579C9 		.ascii	"n\245y\311@]\034\311\005\305\231)\012\231\014\354\271"
  36      405D1CC9 
  36      05C59929 
  36      0A990CEC 
  36      B9
  37 00e4 A9B9F945 		.ascii	"\251\271\371E\225\014\000?\304L\322"
  37      950C003F 
  37      C44CD2
  38              		.text
  39              		.section	.gnu.lto_port_unlock.45ef43fd1ec63e9e,"",%progbits
  40 0000 789C6362 		.ascii	"x\234cb`b@\007\"@<\035\210\253A\034f\006F\240\012F&"
  40      60624007 
  40      22403C1D 
  40      88AB411C 
  40      660646A0 
  41 0017 46462087 		.ascii	"FF \207\221\241\236\211\261>\222\021\254l=\323\201\007"
ARM GAS  /tmp/cco8gVfz.s 			page 3


  41      91A19E89 
  41      B13E9211 
  41      AC6C3DD3 
  41      8107
  42 0029 FFFFAFBB 		.ascii	"\377\377\257\2736m\371\033\306[L 1V\206\226\206\206"
  42      366DF91B 
  42      C65B4C20 
  42      31568696 
  42      8686
  43 003b 090A0C0C 		.ascii	"\011\012\014\014\311`\025!`2\024\244\237\371\034C\343"
  43      C9601521 
  43      603214A4 
  43      9FF91C43 
  43      E3
  44 004c C7B7BBAE 		.ascii	"\307\267\273\2561\302\225\200\031\015\007N_\373\312"
  44      31C29580 
  44      190D074E 
  44      5FFBCA
  45 005b CCC090C8 		.ascii	"\314\300\220\310\270\020(\223\314\0101\030hM63\304]"
  45      B8102893 
  45      CC083118 
  45      684D3633 
  45      C45D
  46 006d 720C2573 		.ascii	"r\014%s\033f8dB%\030.24>X\247\015Q\016\003! m \325F"
  46      1B663864 
  46      4225182E 
  46      32343E58 
  46      A70D510E 
  47 0088 FA19F9B9 		.ascii	"\372\031\371\271\251\372\251i\251\372\316\031\231I\231"
  47      A9FAA969 
  47      A9FACE19 
  47      994999
  48 0097 FEC1FAF9 		.ascii	"\376\301\372\371\305\372E%\372\005\371E%\305\372\216"
  48      C5FA4525 
  48      FA05F945 
  48      25C5FA8E 
  49 00a7 41BECEBE 		.ascii	"A\276\316\276\025\372\311\031\311\371E\251\361ef\271"
  49      15FAC919 
  49      C9F945A9 
  49      F16566B9 
  50 00b7 7A190CA6 		.ascii	"z\031\014\246X\265\244V\224\350;\373\006{\006\353g\346"
  50      58B5A456 
  50      94E83BFB 
  50      067B06EB 
  50      67E6
  51 00c9 25E794A6 		.ascii	"%\347\224\246\244\352\203\265$\347\272\225\346%\003"
  51      A4EA83B5 
  51      24E7BA95 
  51      E62503
  52 00d8 75712417 		.ascii	"uq$\027\024g\246*d2\260\347\246\346\346\027U2\000\000"
  52      1467A62A 
  52      6432B0E7 
  52      A6E6E617 
  52      55320000 
  53 00ec DC484D98 		.ascii	"\334HM\230"
  54              		.text
  55              		.section	.gnu.lto_port_lock_from_isr.45ef43fd1ec63e9e,"",%progbits
ARM GAS  /tmp/cco8gVfz.s 			page 4


  56 0000 789C6362 		.ascii	"x\234cb`b@\007\"@\\\006\304& \0163\003#P\005#\023##"
  56      60624007 
  56      22405C06 
  56      C426200E 
  56      33032350 
  57 0019 90C3C850 		.ascii	"\220\303\310P\317\304X\037\311\010V\266\236\351\300"
  57      CFC4581F 
  57      C90856B6 
  57      9EE9C0
  58 0028 83FFFFD7 		.ascii	"\203\377\377\327\375\272\266\256\207\361\016\023H\214"
  58      FDBAB6AE 
  58      87F10E13 
  58      488C
  59 0036 95A1A5A1 		.ascii	"\225\241\245\241a\202\002\003C2XE\010\230\014\005\351"
  59      61820203 
  59      43325845 
  59      08980C05 
  59      E9
  60 0047 673ECFD0 		.ascii	"g>\317\320\374`\1777{\"\343BFV\240`5\303\257\206\216"
  60      FC607F37 
  60      7B22E342 
  60      4656A060 
  60      35C3AF86 
  61 005c 06814C46 		.ascii	"\006\201LF\240R\210i\231 \372\"C\343\203\023\3320E\020"
  61      A0528869 
  61      9920FA22 
  61      43E38313 
  61      DA304510 
  62 0070 10029200 		.ascii	"\020\002\222\0009\322H?#?7U?5-U\3379#3)\323?X?\277X"
  62      39D2483F 
  62      233F3755 
  62      3F352D55 
  62      DF392333 
  63 008b BFA844BF 		.ascii	"\277\250D\277 \277\250\244X\3371\310\327\331\267B?9"
  63      20BFA8A4 
  63      58DF31C8 
  63      D7D9B742 
  63      3F39
  64 009d 2339BF28 		.ascii	"#9\277(5\276\314,W/\203\001\000\210\376-%"
  64      35BECC2C 
  64      572F8301 
  64      0088FE2D 
  64      25
  65              		.text
  66              		.section	.gnu.lto_port_unlock_from_isr.45ef43fd1ec63e9e,"",%progbits
  67 0000 789C6362 		.ascii	"x\234cb`b@\007\"@\\\006\304& \0163\003#P\005#\023##"
  67      60624007 
  67      22405C06 
  67      C426200E 
  67      33032350 
  68 0019 90C3C850 		.ascii	"\220\303\310P\317\304X\037\311\010V\266\236\351\300"
  68      CFC4581F 
  68      C90856B6 
  68      9EE9C0
  69 0028 83FFFFD7 		.ascii	"\203\377\377\327\315\273\276~\015\343]&\220\030+CKC"
  69      CDBBBE7E 
  69      0DE35D26 
ARM GAS  /tmp/cco8gVfz.s 			page 5


  69      90182B43 
  69      4B43
  70 003a C3040506 		.ascii	"\303\004\005\006\206d\260\212\0200\031\012\322\317|"
  70      8664B08A 
  70      1030190A 
  70      D2CF7C
  71 0049 9EA1F9C1 		.ascii	"\236\241\371\301\315\323\354\211\214\013\031Y\201\202"
  71      CDD3EC89 
  71      8C0B1959 
  71      8182
  72 0057 D50CBF1A 		.ascii	"\325\014\277\032:\032\0042\031\201J!\246e\202\350\213"
  72      3A1A0432 
  72      19814A21 
  72      A66582E8 
  72      8B
  73 0068 0C8D0F6E 		.ascii	"\014\215\017ni\303\024A@\010H\002\344H#\375\214\374"
  73      69C31441 
  73      40084802 
  73      E44823FD 
  73      8CFC
  74 007a DC54FDD4 		.ascii	"\334T\375\324\264T}\347\214\314\244L\377`\375\374b\375"
  74      B4547DE7 
  74      8CCCA44C 
  74      FF60FDFC 
  74      62FD
  75 008c A212FD82 		.ascii	"\242\022\375\202\374\242\222b}\307 _g\337\012\375\344"
  75      FCA29262 
  75      7DC7205F 
  75      67DF0AFD 
  75      E4
  76 009d 8CE4FCA2 		.ascii	"\214\344\374\242\324\3702\263\\\275\014\006\000\223"
  76      D4F832B3 
  76      5CBD0C06 
  76      0093
  77 00ab 062D58   		.ascii	"\006-X"
  78              		.text
  79              		.section	.gnu.lto_chSysLockFromISR.45ef43fd1ec63e9e,"",%progbits
  80 0000 789C6362 		.ascii	"x\234cb`b@\007\"@\\\006\304Z \0163\003#P\005#\023##"
  80      60624007 
  80      22405C06 
  80      C45A200E 
  80      33032350 
  81 0019 90C3C850 		.ascii	"\220\303\310P\317\304X\037\311\010V\266\236\351\300"
  81      CFC4581F 
  81      C90856B6 
  81      9EE9C0
  82 0028 83FFFFD7 		.ascii	"\203\377\377\327M\271\265\366\017\343\013&\220\030+"
  82      4DB9B5F6 
  82      0FE30B26 
  82      90182B
  83 0037 434B43C3 		.ascii	"CKC\303\004\005\006\206d\260\212\0200\031\012\322\317"
  83      04050686 
  83      64B08A10 
  83      30190AD2 
  83      CF
  84 0048 7C9EA1F9 		.ascii	"|\236\241\371A\317Z\356D\306\205\214\254@\301j\206_"
  84      41CF5AEE 
ARM GAS  /tmp/cco8gVfz.s 			page 6


  84      44C6858C 
  84      AC40C16A 
  84      865F
  85 005a 0D1D0D02 		.ascii	"\015\035\015\002\231\214@\245\020\3232A\364E\206\306"
  85      998C40A5 
  85      10D33241 
  85      F44586C6 
  86 006a 07FDBA30 		.ascii	"\007\375\2720E\020\020\002\222\0009RC?#?7U?5-U\3379"
  86      45101002 
  86      92003952 
  86      433F233F 
  86      37553F35 
  87 0082 233329D3 		.ascii	"#3)\323?X?\277X\277\250D?3/9\2474%U?9\243\270\262X/"
  87      3F583FBF 
  87      58BFA844 
  87      3F332F39 
  87      A7342555 
  88 009d 830100C5 		.ascii	"\203\001\000\305\202)\271"
  88      8229B9
  89              		.text
  90              		.section	.gnu.lto_chSysUnlockFromISR.45ef43fd1ec63e9e,"",%progbits
  91 0000 789C6362 		.ascii	"x\234cb`b@\007\"@\\\006\304Z \0163\003#P\005#\023##"
  91      60624007 
  91      22405C06 
  91      C45A200E 
  91      33032350 
  92 0019 90C3C850 		.ascii	"\220\303\310P\317\304X\037\311\010V\266\236\351\300"
  92      CFC4581F 
  92      C90856B6 
  92      9EE9C0
  93 0028 83FFFFD7 		.ascii	"\203\377\377\327\335\271\265n\017\343k&\220\030+CKC"
  93      DDB9B56E 
  93      0FE36B26 
  93      90182B43 
  93      4B43
  94 003a C3040506 		.ascii	"\303\004\005\006\206d\260\212\0200\031\012\322\317|"
  94      8664B08A 
  94      1030190A 
  94      D2CF7C
  95 0049 9EA1F9C1 		.ascii	"\236\241\371\301\256\267\334\211\214\013\031Y\201\202"
  95      AEB7DC89 
  95      8C0B1959 
  95      8182
  96 0057 D50CBF1A 		.ascii	"\325\014\277\032:\032\0042\031\201J!\246e\202\350\213"
  96      3A1A0432 
  96      19814A21 
  96      A66582E8 
  96      8B
  97 0068 0C8D0F76 		.ascii	"\014\215\017v\353\302\024A@\010H\002\344H\015\375\214"
  97      EBC21441 
  97      40084802 
  97      E4480DFD 
  97      8C
  98 0079 FCDC54FD 		.ascii	"\374\334T\375\324\264T}\347\214\314\244L\377`\375\374"
  98      D4B4547D 
  98      E78CCCA4 
  98      4CFF60FD 
ARM GAS  /tmp/cco8gVfz.s 			page 7


  98      FC
  99 008a 62FDA212 		.ascii	"b\375\242\022\375\314\274\344\234\322\224T\375\344\214"
  99      FDCCBCE4 
  99      9CD29454 
  99      FDE48C
 100 0099 E2CA62BD 		.ascii	"\342\312b\275\014\006\000\004\340*_"
 100      0C060004 
 100      E02A5F
 101              		.text
 102              		.section	.gnu.lto_osalSysLockFromISR.45ef43fd1ec63e9e,"",%progbits
 103 0000 789C6362 		.ascii	"x\234cb`b@\007\"@\\\011\304Z \0163\003#P\005#\023##"
 103      60624007 
 103      22405C09 
 103      C45A200E 
 103      33032350 
 104 0019 90C3C850 		.ascii	"\220\303\310P\317\304X\037\311\010V\266\236\351\300"
 104      CFC4581F 
 104      C90856B6 
 104      9EE9C0
 105 0028 83FFFFD7 		.ascii	"\203\377\377\327Mz\364\342(c\317F\026\220 +CKC\303\004"
 105      4D7AF4E2 
 105      2863CF46 
 105      1690202B 
 105      434B43C3 
 106 003d 05068664 		.ascii	"\005\006\206d\260\222\0200\031\0122\200\371<C\363\203"
 106      B0921030 
 106      190A3280 
 106      F93C43F3 
 106      83
 107 004e EE8D6B18 		.ascii	"\356\215k\030\023\031\0272\262\002E\253\031~5t4\010"
 107      13191732 
 107      B20245AB 
 107      197E3574 
 107      3408
 108 0060 643202D5 		.ascii	"d2\002\325B\314\313\004\321\027\031\032\037\000\015"
 108      42CCCB04 
 108      D117191A 
 108      1F000D
 109 006f 83A98280 		.ascii	"\203\251\202\200\020\220\014\310\235\032\372\031\371"
 109      10900CC8 
 109      9D1AFA19 
 109      F9
 110 007c B9A9FAA9 		.ascii	"\271\251\372\251i\251\372\316\031\231I\231\376\301\372"
 110      69A9FACE 
 110      19994999 
 110      FEC1FA
 111 008b F9C5FA19 		.ascii	"\371\305\372\031\2119@\012H\024\225\200i\275\014\006"
 111      8939400A 
 111      48149580 
 111      69BD0C06 
 112 009b 0097612A 		.ascii	"\000\227a*\373"
 112      FB
 113              		.text
 114              		.section	.gnu.lto_osalSysUnlockFromISR.45ef43fd1ec63e9e,"",%progbits
 115 0000 789C6362 		.ascii	"x\234cb`b@\007\"@\\\011\304Z \0163\003#P\005#\023##"
 115      60624007 
 115      22405C09 
ARM GAS  /tmp/cco8gVfz.s 			page 8


 115      C45A200E 
 115      33032350 
 116 0019 90C3C850 		.ascii	"\220\303\310P\317\304X\037\311\010V\266\236\351\300"
 116      CFC4581F 
 116      C90856B6 
 116      9EE9C0
 117 0028 83FFFFD7 		.ascii	"\203\377\377\327\355x\364\343(\343\374\215, AV\206\226"
 117      ED78F4E3 
 117      28E3FC8D 
 117      2C204156 
 117      8696
 118 003a 8686090A 		.ascii	"\206\206\011\012\014\014\311`%!`2\024d\000\363y\206"
 118      0C0CC960 
 118      25216032 
 118      146400F3 
 118      7986
 119 004c E607F336 		.ascii	"\346\007\3636naLd\\\310\310\012\024\255f\370\325\320"
 119      6E614C64 
 119      5CC8C80A 
 119      14AD66F8 
 119      D5D0
 120 005e D12090C9 		.ascii	"\321 \220\311\010T\0131/\023D_dh|\0004\014\246\012\002"
 120      08540B31 
 120      2F13445F 
 120      64687C00 
 120      340CA60A 
 121 0073 42403220 		.ascii	"B@2 wj\350g\344\347\246\352\247\246\245\352;gd&e\372"
 121      776AE867 
 121      E4E7A6EA 
 121      A7A6A5EA 
 121      3B676426 
 122 0089 07EBE717 		.ascii	"\007\353\347\027\353g$\346\000) QT\002\246\3652\030"
 122      EB6724E6 
 122      00292051 
 122      5402A6F5 
 122      3218
 123 009b 00D1762B 		.ascii	"\000\321v+r"
 123      72
 124              		.text
 125              		.section	.gnu.lto_osalOsTimerHandlerI.45ef43fd1ec63e9e,"",%progbits
 126 0000 789C6362 		.ascii	"x\234cb`b@\007\"@\\\011\304Z \0163\003#P\005#\023##"
 126      60624007 
 126      22405C09 
 126      C45A200E 
 126      33032350 
 127 0019 90C3C850 		.ascii	"\220\303\310P\317\304X\037\311\010V\266\236\351\300"
 127      CFC4581F 
 127      C90856B6 
 127      9EE9C0
 128 0028 83FFFFD7 		.ascii	"\203\377\377\327\315{\366\341(\343\254\315, AV\206\226"
 128      CD7BF6E1 
 128      28E3ACCD 
 128      2C204156 
 128      8696
 129 003a 8686090A 		.ascii	"\206\206\011\012\014\014\311`%!`2\024d\000\363y\206"
 129      0C0CC960 
 129      25216032 
ARM GAS  /tmp/cco8gVfz.s 			page 9


 129      146400F3 
 129      7986
 130 004c E6073337 		.ascii	"\346\00737oaLd\\\310\310\012\024\255f\370\325\320\321"
 130      6F614C64 
 130      5CC8C80A 
 130      14AD66F8 
 130      D5D0D1
 131 005f 2090C908 		.ascii	" \220\311\010T\0131/\023D_dh|\0004\014\246\012\002B"
 131      540B312F 
 131      13445F64 
 131      687C0034 
 131      0CA60A02 
 132 0074 40322077 		.ascii	"@2 wj\350g\344\347\246\352\247\246\245\352;gd&e\372"
 132      6AE867E4 
 132      E7A6EAA7 
 132      A6A5EA3B 
 132      67642665 
 133 0089 07EBE717 		.ascii	"\007\353\347\027\353g$\346\000) QT\002\246\3652\030"
 133      EB6724E6 
 133      00292051 
 133      5402A6F5 
 133      3218
 134 009b 00BC4F2B 		.ascii	"\000\274O+K"
 134      4B
 135              		.text
 136              		.section	.gnu.lto_Vector80.45ef43fd1ec63e9e,"",%progbits
 137 0000 789C8D52 		.ascii	"x\234\215R=h\024A\024~of6\311\031c\002Vv!\215\202\340"
 137      3D681441 
 137      147E6F66 
 137      36C91963 
 137      02567621 
 138 0017 A0368285 		.ascii	"\2406\202\205H\322\010\011\012w\201hs\\6\347\335\300"
 138      48D20809 
 138      0A778168 
 138      735C36E7 
 138      DDC0
 139 0029 C9492EA4 		.ascii	"\311I.\244\261\310\\n!\301*H\032\265\211\205Dl\004\253"
 139      B1C85C6E 
 139      21C12A48 
 139      1AB58985 
 139      446C04AB 
 140 003d 409A2510 		.ascii	"@\232%\020H\212\343\024\033;7 \212`!\330\304\\\310\370"
 140      488AE314 
 140      1B3B3720 
 140      8A6021D8 
 140      C45CC8F8 
 141 0051 66367B5E 		.ascii	"f6{^~\300{\260o~\276\357\233\371\366\275a\300\340x\\"
 141      7EC07BB0 
 141      6F7EBEEF 
 141      9BF9F6BD 
 141      61C0E078 
 142 0066 A2EF3607 		.ascii	"\242\3576\007\030\261\013\017\220\030\310\030mh&(\011"
 142      18B10B0F 
 142      9018C818 
 142      6D682628 
 142      09
 143 0077 8E34A040 		.ascii	"\2164\240@$\030a\216q\201s\367\321\221\207\340\225\326"
ARM GAS  /tmp/cco8gVfz.s 			page 10


 143      2418618E 
 143      718173F7 
 143      D19187E0 
 143      95D6
 144 0089 CFA2CDE6 		.ascii	"\317\242\315\346\016{\276\034\006+z\337\030DeA\037a"
 144      0E7BBE1C 
 144      062B7ADF 
 144      18446541 
 144      1F61
 145 009b 826638E8 		.ascii	"\202f8\350\006{R{\304B\375\376\215N9\021W\310;\324\374"
 145      067B527B 
 145      C442FDFE 
 145      8D4E3911 
 145      57C83BD4 
 146 00b0 FE7A6F4B 		.ascii	"\376zoK\007\2411\267:\326\204_\032\313\027\236\256\314"
 146      07A131B7 
 146      3AD6845F 
 146      1ACB179E 
 146      AECC
 147 00c2 2FE903F2 		.ascii	"/\351\003\362\327\261\275\360Sc\033\351\306\352/c\372"
 147      D7B1BDF0 
 147      53631BE9 
 147      C6EA2F63 
 147      FA
 148 00d3 150A0637 		.ascii	"\025\012\0067\361?\302w,\214\214\331o\356\356\030<\337"
 148      F13FC277 
 148      2C8C8CD9 
 148      6FEEEE18 
 148      3CDF
 149 00e5 8590C3D7 		.ascii	"\205\220\303\3278D5\247;9%.l\362@\305\345\203@\353\245"
 149      384435A7 
 149      3B39252E 
 149      6CF240C5 
 149      E58340EB 
 150 00fa C198E32C 		.ascii	"\301\230\343,Qd\\\036\267]\340\015\010\242\037\205\034"
 150      51645C1E 
 150      B75DE00D 
 150      08A21F85 
 150      1C
 151 010b AEA20705 		.ascii	"\256\242\007\005\304'\260\247\027\365\200B\317w\315"
 151      C427B0A7 
 151      17F58042 
 151      CF77CD
 152 011a 0067A10B 		.ascii	"\000g\241\013\350\270n\200:\314\257}\246F$tfA \201\266"
 152      E8B86E80 
 152      3ACCAF7D 
 152      A6462474 
 152      66412081 
 153 012f 1EEBB0F1 		.ascii	"\036\353\260\361 A\370ex\253\003B{^\302\013\032R\011"
 153      2041F865 
 153      78AB0342 
 153      7B5EC20B 
 153      1A5209
 154 0142 D9C52426 		.ascii	"\331\305$&?S\207\332z\355\033&2AJK\343\366\011mA\360"
 154      3F5387DA 
 154      7AED1B26 
 154      32414A4B 
ARM GAS  /tmp/cco8gVfz.s 			page 11


 154      E3F6096D 
 155 0158 B3DAD782 		.ascii	"\263\332\327\202\334~{!\306\355\222[O\273\315\355\226"
 155      DC7E7B21 
 155      C6ED925B 
 155      4FBBCDED 
 155      96
 156 0169 27EFB8A7 		.ascii	"'\357\270\247\265\017\2751\346,Uu\272\335\224w\322\224"
 156      B50FBD31 
 156      E62C5575 
 156      BADD9477 
 156      D294
 157 017b DDE9B193 		.ascii	"\335\351\261\223\006\324\242?\337\017\305\000\255\322"
 157      06D4A23F 
 157      DF0FC500 
 157      ADD2
 158 0189 9CF1317E 		.ascii	"\234\3611~\341\012{c\326\336\302\271\323X\374(\253\271"
 158      E10A7B63 
 158      D6DEC2B9 
 158      D358FC28 
 158      ABB9
 159 019b 7A2A4BFC 		.ascii	"z*K\374c\305\177%\016\333rP8A?\353\2735\330V)\354\003"
 159      63C57F25 
 159      0EDB7250 
 159      38413FEB 
 159      BB35D856 
 160 01b2 F808D5C8 		.ascii	"\370\010\325\310\\Lxqdl\347\254\303\033\262X~\224\227"
 160      5C4C7871 
 160      646CE7AC 
 160      C31BB258 
 160      7E9497
 161 01c5 F9877939 		.ascii	"\371\207y9\\T\223\352nZ\226+\262\230+\311\307\345\351"
 161      5C5493EA 
 161      6E5A962B 
 161      B2982BC9 
 161      C7E5E9
 162 01d8 998A4C67 		.ascii	"\231\212Lg\306\256_\223\243\243#2sgl\366\252\254\314"
 162      C6AE5F93 
 162      A3A32332 
 162      73676CF6 
 162      AAACCC
 163 01eb 644BA5A9 		.ascii	"dK\245\251+>\244\262\225\334l~*[\232\376\013\000\315"
 163      2B3EA4B2 
 163      95DC6C7E 
 163      2A5B9AFE 
 163      0B00CD
 164 01fe D28F     		.ascii	"\322\217"
 165              		.text
 166              		.section	.gnu.lto_st_lld_init.45ef43fd1ec63e9e,"",%progbits
 167 0000 789CB594 		.ascii	"x\234\265\224Ah\023A\024\206\337\354\354n\222M\262Y"
 167      41681341 
 167      1486DFEC 
 167      EC6E924D 
 167      B259
 168 0012 A1173D15 		.ascii	"\241\027=\025\301\203\210.\352\245\364\322\203^\012"
 168      C183882E 
 168      EAA5F4D2 
 168      835E0A
ARM GAS  /tmp/cco8gVfz.s 			page 12


 169 0021 2D1E1AC1 		.ascii	"-\036\032\301z\2216\306&\020\211\230\322\213B&\265\205"
 169      7A9136C6 
 169      26108998 
 169      D28B4226 
 169      B585
 170 0033 2082416F 		.ascii	" \202Ao\365\022\017BH\305\252\247\010\202\305\223\036"
 170      F5120F42 
 170      48C5AAA7 
 170      0882C593 
 170      1E
 171 0044 8AD89337 		.ascii	"\212\330\2237\323[\274\211\210\224P\\\347ewv7I\205\354"
 171      D35BBC89 
 171      8894505C 
 171      E7657776 
 171      374985EC 
 172 0058 4207F2EF 		.ascii	"B\007\362\357N\336\373\277\367f\222\031\011$\030\034"
 172      4EDEFBBF 
 172      F7669219 
 172      0924181C 
 173 0068 63FC733F 		.ascii	"c\374s?\0120\211\023\012\204g\020\211\020>!P\226Hy\036"
 173      0A308913 
 173      0A846710 
 173      89103E21 
 173      50964879 
 174 007d 5FC13809 		.ascii	"_\3018\011\317\031{\322~\321\3348\376\260\276Zc\177"
 174      CF197BD2 
 174      7ED1DC38 
 174      FEB0BE5A 
 174      637F
 175 008f 2D8BE431 		.ascii	"-\213\3441\224!p\215\277\221\361\336C\222\373\351\266"
 175      9421708D 
 175      BF91F1DE 
 175      4392FBE9 
 175      B6
 176 00a0 8DBD6DB0 		.ascii	"\215\275m\260X\235\035X\026\015\347\241G\347\331\376"
 176      589D1D58 
 176      160DE7A1 
 176      47E7D9FE 
 177 00b0 B6FB48AB 		.ascii	"\266\373H\253U\252\314\262\312y\"\207(\024\306s\224"
 177      55AACCB2 
 177      CA792287 
 177      2814C673 
 177      94
 178 00c1 0BFABEFB 		.ascii	"\013\372\276\373\330\377\033)#\332~\372\367aT\323\257"
 178      D8FF1B29 
 178      23DA7EFA 
 178      F76154D3 
 178      AF
 179 00d2 30A6DF61 		.ascii	"0\246\337aL\177\302\230\366\303\230\272aL\007\201L["
 179      4C7FC298 
 179      F6C398BA 
 179      614C0781 
 179      4C5B
 180 00e4 D276DBB2 		.ascii	"\322v\333\262\336?\335\333\353\220\261c\004\370\251"
 180      DE3FDDDB 
 180      EB90B163 
 180      04F8A9
ARM GAS  /tmp/cco8gVfz.s 			page 13


 181 00f3 90502817 		.ascii	"\220P(\027*\243(\\d\025%\202\323(J\214\213\242\241\304"
 181      2AA3285C 
 181      64152582 
 181      D3284A8C 
 181      8BA2A1C4 
 182 0107 51122849 		.ascii	"Q\022(I\024\035%\205b@\257:(\260\306Xm\274\327\007\037"
 182      141D2585 
 182      6240AF3A 
 182      28B0C658 
 182      6DBCD707 
 183 011c E99E5EC5 		.ascii	"\351\236^\305\303Mw`\265\325j\236X ox\346\022!\330\037"
 183      C34D7760 
 183      B5D56A9E 
 183      58206F78 
 183      E61221D8 
 184 0131 B07A9561 		.ascii	"\260z\225a\217<8!\"\322@\344\343u\021\241g\240\311\326"
 184      8F3C3821 
 184      22D240E4 
 184      E37511A1 
 184      67A0C9D6 
 185 0145 2A469EA8 		.ascii	"*F\236\250\317`\203gEDvo,\022\261\316\035x\360\216\012"
 185      CF608367 
 185      4544766F 
 185      2C12B1CE 
 185      1D78F08E 
 186 015a 97CC8D98 		.ascii	"\227\314\215\230D%\0337m\007\016a\221a\326\022\0363"
 186      44251B37 
 186      6D070E61 
 186      9161D612 
 186      1E33
 187 016c 6CBDBA29 		.ascii	"l\275\272)\011\240\202i2{\275>\324\272:\020\361Z\217"
 187      09A08269 
 187      327BBD3E 
 187      D4BA3A10 
 187      F15A8F
 188 017f 0C968B8A 		.ascii	"\014\226\213\212l\247\0349\254u\236\024\031\241\365"
 188      6CA71C39 
 188      AC759E14 
 188      19A1F5
 189 018e A8E8A98F 		.ascii	"\250\350\251\217\305\355v\353\373\233]\"\2101\314SX"
 189      C5ED76EB 
 189      FB9B5D22 
 189      8831CC53 
 189      58
 190 019f 95890E5B 		.ascii	"\225\211\016[5\335\017eS.5&\262\035\252}\207\3437\352"
 190      35DD0F65 
 190      532E3526 
 190      B21DAA7D 
 190      87E337EA 
 191 01b3 8753E0EC 		.ascii	"\207S\340\354\312+wW\264@d\315O\246\036\231\3378\016"
 191      CA2B7757 
 191      B44064CD 
 191      4FA61E99 
 191      DF380E
 192 01c6 BAE1A1E3 		.ascii	"\272\341\241\343\201\320q?Z\366\320\340\200?y\340\304"
 192      81D0713F 
 192      5AF6D0E0 
ARM GAS  /tmp/cco8gVfz.s 			page 14


 192      803F79E0 
 192      C4
 193 01d7 7FC167E1 		.ascii	"\177\301g\341%\202\347\271\317\253\241\2715\022\376"
 193      2582E7B9 
 193      CFABA1B9 
 193      3512FE
 194 01e6 1A8A5B23 		.ascii	"\032\212[#\356\236\264\276\212\035\257b2\320R\222\376"
 194      EE9EB4BE 
 194      8A1DAF62 
 194      32D05292 
 194      FE
 195 01f7 32EA30B8 		.ascii	"2\3520\270\272\345\202\365@`\335\017\216\014\203\033"
 195      BAE582F5 
 195      4060DD0F 
 195      8E0C831B 
 196 0207 1E381508 		.ascii	"\0368\025\010\234\362\203\243.\230\022\261\371\036\330"
 196      9CF283A3 
 196      2E9812B1 
 196      F91ED8
 197 0216 080436FC 		.ascii	"\010\0046\374\340X?\370\013\254\267?\377\320l3\300="
 197      E0583FF8 
 197      0BACB73F 
 197      FFD06C33 
 197      C03D
 198 0228 E8722A3F 		.ascii	"\350r*?\036\211\214s\02403i\330\017\274\360t\200\257"
 198      1E898C73 
 198      14303369 
 198      D80FBCF0 
 198      7480AF
 199 023b 5069774E 		.ascii	"PiwN\013\213=\322\230\216\177\363\0113W\274\2355\263"
 199      0B8B3DD2 
 199      988E7FF3 
 199      093357BC 
 199      9D35B3
 200 024e B7B2E6A5 		.ascii	"\267\262\346\245\\~1\177e\316,\226\314\334B\301\274"
 200      5C7E317F 
 200      65CE2C96 
 200      CCDC42C1 
 200      BC
 201 025f 53BCBB5C 		.ascii	"S\274\273\\2\347\322\263\027/\23033\227\315\364\364"
 201      32E7D2B3 
 201      172F9833 
 201      3397CDF4 
 201      F4
 202 0270 ECCA79B3 		.ascii	"\354\312y\263\264|\243P\270y.\003\377\000\231\347\352"
 202      B47CA350 
 202      B8792E03 
 202      FF0099E7 
 202      EA
 203 0281 1C       		.ascii	"\034"
 204              		.text
 205              		.section	.gnu.lto_.symbol_nodes.45ef43fd1ec63e9e,"",%progbits
 206 0000 789C4DC7 		.ascii	"x\234M\307\271\015\302@\024E\321\367g\274o-8c\251\203"
 206      B90DC240 
 206      1445D1F7 
 206      67BC6F2D 
 206      3863A983 
ARM GAS  /tmp/cco8gVfz.s 			page 15


 207 0014 4AA8E419 		.ascii	"J\250\344\031#!G\210\304l!\2558\201\204\220\030\210"
 207      23214788 
 207      C46C21AD 
 207      38818490 
 207      1888
 208 0026 DD021632 		.ascii	"\335\002\0262c\341\271\311\325QPX\010LjB`w\007\310\272"
 208      63E1B9C9 
 208      D5515058 
 208      084C6A42 
 208      607707C8 
 209 003b 5AAA29C5 		.ascii	"Z\252)\305\322\214\312\322\234\332\322\025t,\336@\327"
 209      D28CCAD2 
 209      9CDAD215 
 209      742CDE40 
 209      D7
 210 004c E207F42C 		.ascii	"\342\007\364,v\240oq%\014,\326\302p\340\243\022\265"
 210      76A06F71 
 210      250C2CD6 
 210      C270E0A3 
 210      12B5
 211 005e 174623E5 		.ascii	"\027F#\345$\214\015\213B\344(LF\035\204\351\250\263"
 211      248C0D8B 
 211      42E4284C 
 211      461D84E9 
 211      A8B3
 212 0070 30FB4B2B 		.ascii	"0\373K+\240|v\242\265\230;\312\334\325\346\236c\356"
 212      A07C76A2 
 212      B5983BCA 
 212      DCD5E69E 
 212      63EE
 213 0082 BBE6418C 		.ascii	"\273\346A\214u\3770\035\356\341\375\352\037\240\334"
 213      75FF301D 
 213      EEE1FDEA 
 213      1FA0DC
 214 0091 B4B90E7D 		.ascii	"\264\271\016}\\~O\320\364\21724\3336\307\027\236 e\255"
 214      5C7E4FD0 
 214      F48F3234 
 214      DB36C717 
 214      9E2065AD 
 215              		.text
 216              		.section	.gnu.lto_.refs.45ef43fd1ec63e9e,"",%progbits
 217 0000 789C6362 		.ascii	"x\234cb`b`d\200\002\000\000F\000\006"
 217      60626064 
 217      80020000 
 217      460006
 218              		.text
 219              		.section	.gnu.lto_.decls.45ef43fd1ec63e9e,"",%progbits
 220 0000 789C9D98 		.ascii	"x\234\235\230}l\024\307\025\300g\366\316\037\027;\206"
 220      7D6C14C7 
 220      15C067F6 
 220      CE1F173B 
 220      86
 221 0011 3869E4AA 		.ascii	"8i\344\252J1\225RE\221\312\371\243AH\225R\354\263\215"
 221      4A319552 
 221      4591CAF9 
 221      A3414895 
 221      52ECB38D 
ARM GAS  /tmp/cco8gVfz.s 			page 16


 222 0025 AD628CF6 		.ascii	"\255b\214\366LK\351\037\327\345\274\216O\275\017zw&"
 222      4C4BE91F 
 222      D7E5BC8E 
 222      4FBD0F7A 
 222      7726
 223 0037 F057D7B1 		.ascii	"\360W\327\261[\222\246\251\034\002\324\241\3245\204"
 223      5B92A6A9 
 223      1C02D4A1 
 223      D43584
 224 0046 8F38716A 		.ascii	"\2178qj\352`\260k\027\016\002\306\304%\206@]\276\232"
 224      EA60B06B 
 224      170E02C6 
 224      C4258640 
 224      5DBE9A
 225 0059 B82625A4 		.ascii	"\270&%\244*\037nK\"\240\315\365\315\334\356\335\354"
 225      2A1F6E4B 
 225      22A0CDF5 
 225      CDDCEEDD 
 225      EC
 226 006a DEEE7937 		.ascii	"\336\356y7#\2757{\263o~\357\275\331\267\263cs\210C\271"
 226      23BD377B 
 226      B36F7EEF 
 226      BDD9B7B3 
 226      63738843 
 227 007f 3684E2D0 		.ascii	"6\204\342\320\026|\005\241\305v\204\362\021BO\243T\233"
 227      167C05A1 
 227      C57684F2 
 227      11424FA3 
 227      549B
 228 0091 07B21364 		.ascii	"\007\262\023d/H/H\037H?\310\000\310 \310\020\310\010"
 228      2F482F48 
 228      1F483FC8 
 228      00C820C8 
 228      10C808
 229 00a4 C86190A3 		.ascii	"\310a\220\243 \307A\306@N\203\274\207\322\033aa\220"
 229      20C741C6 
 229      404E83BC 
 229      87D21B61 
 229      6190
 230 00b6 8BF26F4E 		.ascii	"\213\362oN\036\373@\307v\257\216-\031\273\252c\333+"
 230      1EFB40C7 
 230      76AF8E2D 
 230      19BBAA63 
 230      DB2B
 231 00c8 DFFF1864 		.ascii	"\337\377\030d\027c\337+\363\265\255\317\300\276O\366"
 231      1763DF2B 
 231      F3B5ADCF 
 231      C0BE4FF6 
 232 00d8 A16DFD06 		.ascii	"\241m\375\006\366\375\262\017m\0330\260\037\220}h\333"
 232      F6FDB20F 
 232      6D1B30B0 
 232      1F907D68 
 232      DB
 233 00e9 A081FDA0 		.ascii	"\240\201\375\240\354C\333\206\014\354\207d\037\3326"
 233      EC43DB86 
 233      0CEC8764 
 233      1FDA36
ARM GAS  /tmp/cco8gVfz.s 			page 17


 234 00f8 62604FC6 		.ascii	"b`O\306\217\353\330\223\347Y\000r]\356I]\344\200\234"
 234      8FEBD893 
 234      E7590072 
 234      5DEE495D 
 234      E4809C
 235 010b 02790C1E 		.ascii	"\002y\014\036J\026\364_\205\376\026\364\2370\334b\030"
 235      4A16F45F 
 235      85FE16F4 
 235      9F30DC62 
 235      18
 236 011c 3B8912CF 		.ascii	";\211\022\317\3553\220l\231uZ\316eD\216qL\307'\251\037"
 236      ED33906C 
 236      99755ACE 
 236      65448E71 
 236      4CC727A9 
 237 0131 526F0BB1 		.ascii	"Ro\013\261\332g%N\304A|}\015\256]8\341\363\001\350\241"
 237      DA67254E 
 237      C4417C7D 
 237      0DAE5D38 
 237      E1F301E8 
 238 0146 645103F4 		.ascii	"dQ\003\364g\241\237$c O\301\357\357\200\330H\234 \367"
 238      67A19F24 
 238      63204FC1 
 238      EFEF80D8 
 238      489C20F7 
 239 015a 61CC01FD 		.ascii	"a\314\001\375\035\350gA\356\202\334\224\363'>\365\352"
 239      1DE86741 
 239      EE82DC94 
 239      F3273EF5 
 239      EA
 240 016b 7401EA96 		.ascii	"t\001\352\226bg\246O\\\233\341^\225b\035\022\274\"\022"
 240      6267A64F 
 240      5C9BE15E 
 240      95621D12 
 240      BC2212
 241 017e 2E7E146D 		.ascii	".~\024m\225\240\365\374L\222pT\300O\177\011\255\306"
 241      95A0F5FC 
 241      4C927054 
 241      C04F7F09 
 241      ADC6
 242 0190 022E70A0 		.ascii	"\002.p\240bz\221\357\240\361 $\340]\370Q\371j\225MY"
 242      627A91EF 
 242      A0F12024 
 242      E05DF851 
 242      F96A954D 
 243 01a5 6D88EB49 		.ascii	"m\210\353I\324\013\363;%if\201\216S\204\276\216\366"
 243      D40BF33B 
 243      25696681 
 243      8E5384BE 
 243      8EF6
 244 01b7 1007D2EB 		.ascii	"\020\007\322\353\222\215\342\011`'V\331\012\3705\314"
 244      928DE209 
 244      602756D9 
 244      0AF835CC 
 245 01c7 A5871A9B 		.ascii	"\245\207\032\233\232\312\357l\233\216\307\177\3333?"
 245      9ACAEF6C 
 245      9B8EC77F 
ARM GAS  /tmp/cco8gVfz.s 			page 18


 245      DB333F
 246 01d6 E19E4335 		.ascii	"\341\236C5\030\254w\343'3\342\367j\361\373t\361\367"
 246      18AC77E3 
 246      2733E2F7 
 246      6AF1FB74 
 246      F1F7
 247 01e8 D2F1BC19 		.ascii	"\322\361\274\031|\257\026\377\206.\276\373/ix\321\014"
 247      7CAF16FF 
 247      862EBEFB 
 247      2F6978D1 
 247      0C
 248 01f9 BE4F8B7F 		.ascii	"\276O\213\177K\017?\375\237M'\262\231\347\250\270x\015"
 248      4B0F3FFD 
 248      9F4D27B2 
 248      99E7A8B8 
 248      780D
 249 020b 9BF1D1AF 		.ascii	"\233\361\321\257\365\261_7\205+\227\322R8`\212?\240"
 249      F5B15F37 
 249      852B97D2 
 249      5238608A 
 249      3FA0
 250 021d E5BFAD9B 		.ascii	"\345\277\255\233C\367{\307\213tr\270m\312\307\240\326"
 250      43F77BC7 
 250      8B7472B8 
 250      6DCAC7A0 
 250      D6
 251 022e C741DD1C 		.ascii	"\307A\335\034\206f\306\261\264Y\372o<\336\336\301!\305"
 251      8666C6B1 
 251      B459FA6F 
 251      3CDEDEC1 
 251      21C5
 252 0240 453B67C6 		.ascii	"E;g\306\305\220\326\305\260\376\223\276\246\347\242"
 252      C590D6C5 
 252      B0FE93BE 
 252      A6E7A2
 253 024f CB948B11 		.ascii	"\313\224\213\021\255\213\321t\027=\261\351\341s\267"
 253      AD8BD174 
 253      173DB1E9 
 253      E173B7
 254 025e 1E4EAD54 		.ascii	"\036N\255T\322\307\337M\3718\254\365qD\317G\354\320"
 254      D2C7DF4D 
 254      F938ACF5 
 254      7144CF47 
 254      ECD0
 255 0270 E609250D 		.ascii	"\346\011%\015{\322\303MS\036\216j=\034K\3670\3359}g"
 255      7BD2C34D 
 255      531E8E6A 
 255      3D1C4BF7 
 255      30DD397D 
 256 0285 D3950EFC 		.ascii	"\323\225\016\374r{\317\270t;\036\237\227\364q/\315G"
 256      727BCFB8 
 256      743B1E9F 
 256      97F4712F 
 256      CD47
 257 0297 02724217 		.ascii	"\002rB\027\262{\337\273\370y\032\246\015\231\337\275"
 257      B27BDFBB 
 257      F8791AA6 
ARM GAS  /tmp/cco8gVfz.s 			page 19


 257      0D99DFBD 
 258 02a7 4ECABB97 		.ascii	"N\312\273\227\215\356\221(\017\375\\\222\236#\023k\307"
 258      8DEE9128 
 258      0FFD5C92 
 258      9E23136B 
 258      C7
 259 02b8 0B0C273E 		.ascii	"\013\014'>\216v\303\3266=r\351\332,n\003\027\002>\205"
 259      8E76C3D6 
 259      363D72E9 
 259      DA2C6E03 
 259      17023E85 
 260 02cc F300306A 		.ascii	"\363\0000jS\007,\340o\347\251C\207\337\214Aj\313Dd\327"
 260      53072CE0 
 260      6FE7A943 
 260      87DF8C41 
 260      6ACB4464 
 261 02e1 3C61D3CF 		.ascii	"<a\323\317\367O\352|\277\207m/\331\225\254g\273'\333"
 261      F74FEA7C 
 261      BF876D2F 
 261      D995AC67 
 261      BB27DB
 262 02f4 98A5339F 		.ascii	"\230\2453\237\370\244:q\007z>\2258\312\230\365\314\231"
 262      F8A43A71 
 262      077A3E95 
 262      38CA98F5 
 262      CC99
 263 0306 A23E4982 		.ascii	"\242>I\2027\377,v\300\3447\355\352\250\315\223.^\035"
 263      37FF2C76 
 263      C0E437ED 
 263      EAA8CD93 
 263      2E5E1D
 264 0319 2F1AA6A4 		.ascii	"/\032\246\244\363\2244c\327._\216C\275\022\360[1 8z"
 264      F3943463 
 264      D72E5F8E 
 264      43BD12F0 
 264      5B312038 
 265 032e 5BBE2047 		.ascii	"[\276 G\273y\310\252\271\234}\"\227\364'r\303\256\377"
 265      BB79C8AA 
 265      B99C7D22 
 265      97F42772 
 265      C3AEFF
 266 0341 442EA89F 		.ascii	"D.\250\237\310C\250\223\254zqW\201\234\374\364\036\251"
 266      C843A893 
 266      AC7A7157 
 266      819CFCF4 
 266      1EA9
 267 0353 A828997B 		.ascii	"\250(\231{\256\222;Vr'\337EN\300\227h\332\237\3331\322"
 267      AE923B56 
 267      7227DF45 
 267      4EC09768 
 267      DA9FDB31 
 268 0368 6D090324 		.ascii	"m\011\003$\007\235\270V\256\3428\211_\242\340s\344Y"
 268      079DB856 
 268      AEE23889 
 268      5FA2E073 
 268      E459
 269 037a 17F143A9 		.ascii	"\027\361C\251'!%\213\031,\214\212\341\257\214\237|G"
ARM GAS  /tmp/cco8gVfz.s 			page 20


 269      2721258B 
 269      192C8C8A 
 269      E1AF8C9F 
 269      7C47
 270 038c EA225B8E 		.ascii	"\352\"[\216D\336\227\177\365\217\333k\356\016H\322\013"
 270      44DE977F 
 270      F58FDB6B 
 270      EE0E48D2 
 270      0B
 271 039d D2E7F19F 		.ascii	"\322\347\361\237\264u,T^\324\341,v\231\350\232r\350"
 271      B4752C54 
 271      5ED4E12C 
 271      7699E89A 
 271      72E8
 272 03af 6456322D 		.ascii	"dV2-\275\255\341\003\355\326\360\241\356\036zP\371\030"
 272      BDADE103 
 272      EDD6F0A1 
 272      EE1E7A50 
 272      F918
 273 03c1 C73AED8A 		.ascii	"\307:\355\212\273?\247\273\023\360\337R\323\365\334"
 273      BB3FA7BB 
 273      13F0DF52 
 273      D3F5DC
 274 03d0 5DD5BAFB 		.ascii	"]\325\272\373H\355N\363\342\023GF\213\3651\316\323\235"
 274      48ED4EF3 
 274      E2134746 
 274      8BF531CE 
 274      D39D
 275 03e2 55885EA6 		.ascii	"U\210^\246U\300T\275\224\255L\376!J\226\375\326[\267"
 275      55C054BD 
 275      94AD4CFE 
 275      214A96FD 
 275      D65BB7
 276 03f5 83ED74D7 		.ascii	"\203\355t\327\370\004\027B\360\335\331\352\"\233\223"
 276      F8041742 
 276      F0DDD9EA 
 276      229B93
 277 0404 4382F827 		.ascii	"C\202\370'LMLJ\024T\354\225\313\371\222=1\216tjVn\013"
 277      4C4D4C4A 
 277      1454EC95 
 277      CBF9923D 
 277      318E746A 
 278 041b 518FD4D1 		.ascii	"Q\217\324\321\036\333zy\307\227\245\236c\230VH{\306"
 278      1EDB7A79 
 278      C797A59E 
 278      63985648 
 278      7BC6
 279 042d 7755C0EF 		.ascii	"wU\300\357\343\307M\275K\034z\203fBB\320#%\213K\251"
 279      E3C74DBD 
 279      4B1C7A83 
 279      664242D0 
 279      23258B4B 
 280 0442 B4028726 		.ascii	"\264\002\207&\254m\227\363;\005\001\337\242\257\305"
 280      AC6D97F3 
 280      3B0501DF 
 280      A2AFC5
 281 0451 EF2CC38A 		.ascii	"\357,\303\212U\260.\0266`\006\226k\034\331v\026v\310"
ARM GAS  /tmp/cco8gVfz.s 			page 21


 281      55B02E16 
 281      36600696 
 281      6B1CD976 
 281      1676C8
 282 0464 324C1DD9 		.ascii	"2L\035\331\016\0266j\0066\3378\262n\026v\3042L\035\331"
 282      0E16366A 
 282      0636DF38 
 282      B26E1676 
 282      C4324C1D 
 283 0479 7E16F68E 		.ascii	"~\026\366\216\031X\221qd\003,\354\224e\230:\262\003"
 283      19589171 
 283      64032CEC 
 283      9465983A 
 283      B203
 284 048b 2C6CD20C 		.ascii	",l\322\014\254\3308\262\203,\354\274e\230:\262!\026"
 284      ACD838B2 
 284      832CECBC 
 284      65983AB2 
 284      2116
 285 049d 76C10CEC 		.ascii	"v\301\014\354\011\343\310\376\300\302\256X\206\251#"
 285      09E3C8FE 
 285      C0C2AE58 
 285      86A923
 286 04ac 1B6561D3 		.ascii	"\033ea\323f`%F\221\265\305\016\377\240SP\276sd\207$"
 286      66602546 
 286      91B5C50E 
 286      FFA05350 
 286      BE736487 
 287 04c1 546577C2 		.ascii	"Tew\302\352\322b\315\316\032\233\011\370E\316\352\207"
 287      EAD262CD 
 287      CE1A9B09 
 287      F845CEEA 
 287      87
 288 04d2 EA179CFE 		.ascii	"\352\027\234\376\207*\365\321f\255 \355\217\264i\253"
 288      872AF5D1 
 288      66AD20ED 
 288      8FB469AB 
 289 04e2 A3D0CB5B 		.ascii	"\243\320\313[\275\210g\330E\274nf\021\227\032\303\336"
 289      BD8867D8 
 289      45BC6E66 
 289      11971AC3 
 289      DE
 290 04f3 676137CC 		.ascii	"ga7\314\300j\215k\345<\013\233\265\014SG6\305\302>5"
 290      C06A8D6B 
 290      E53C0B9B 
 290      B50C5347 
 290      36C5C23E 
 291 0508 035B691C 		.ascii	"\003[i\034\331\005\026v\3272\214\215\254-v)Ux=K5\225"
 291      D9051676 
 291      D7328C8D 
 291      AC2D7629 
 291      55783D4B 
 292 051e B754BDDB 		.ascii	"\267T\275\333\252\314\316\032\232\011x\273\345\302\373"
 292      AACCCE1A 
 292      9A0978BB 
 292      E5C2FB
 293 052d B541E1B1 		.ascii	"\265A\341\261G\267\224\025\244\035\327\246\255\012B"
ARM GAS  /tmp/cco8gVfz.s 			page 22


 293      47B79415 
 293      A41DD7A6 
 293      AD0A42
 294 053c BE5CADB3 		.ascii	"\276\\\255\263\206z\215\375\336\013\370\006\375 \337"
 294      867A8DFD 
 294      DE0BF806 
 294      FD20DF
 295 054b C40B41CF 		.ascii	"\304\013A\317R\375o\252\357P\375\031\325w\251\276O\365"
 295      52FD6FAA 
 295      EF50FD19 
 295      D577A9BE 
 295      4FF5
 296 055d FFA88E53 		.ascii	"\377\250\216S\335\306\021\335N\365O\251\336D\365\013"
 296      DDC611DD 
 296      4EF54FA9 
 296      DE44F50B 
 297 056d 54FF92EA 		.ascii	"T\377\222\352N\2527S\275\205\352mTw\201N6\243\205\272"
 297      4EAA3753 
 297      BD85EA6D 
 297      5477814E 
 297      36A385BA 
 298 0581 6E703AD2 		.ascii	"np:\322\374e\002\177\010\031\021\2729\325_&\002\316"
 298      FC65027F 
 298      081911BA 
 298      39D55F26 
 298      02CE
 299 0593 72A8CFE5 		.ascii	"r\250\317\345F\023\177\303\351\273N\374\225g4\253\307"
 299      46137FC3 
 299      E9BB4EFC 
 299      956734AB 
 299      C7
 300 05a4 6096CE31 		.ascii	"`\226\3161,fS&/A\311\343\334\253\367\256\177\3779z\234"
 300      2C665326 
 300      2F41C9E3 
 300      DCABF7AE 
 300      7FFF397A 
 301 05b9 DBC591E3 		.ascii	"\333\305\221\343\334`\316\234\30795\207\004\261\207"
 301      DC60CE9C 
 301      C7393587 
 301      04B187
 302 05c8 D31CE7EE 		.ascii	"\323\034\347\356\237\243\30792>\367q.~n\013=\316)\257"
 302      9FA3C739 
 302      323EF771 
 302      2E7E6E0B 
 302      3DCE29AF 
 303 05dc DC511A02 		.ascii	"\334Q\032\002\231\373\305\316a\235S\314\373{\3342\254"
 303      99FBC5CE 
 303      619D53CC 
 303      FB7BDC32 
 303      AC
 304 05ed 5805DBCC 		.ascii	"X\005\333\314\302N\231\201e8\207maa\247-\303\324\221"
 304      C24E9981 
 304      6538876D 
 304      6161A72D 
 304      C3D491
 305 0600 6D636153 		.ascii	"mcaSf`\031\316a],\354C\3130ud\333Y\33053\260\014\347"
 305      666019CE 
ARM GAS  /tmp/cco8gVfz.s 			page 23


 305      615D2CEC 
 305      43CB3075 
 305      64DB59D8 
 306 0619 B01D2CEC 		.ascii	"\260\035,\354\246e\230:\262n\026\366\251\031X\261qd"
 306      A665983A 
 306      B26E16F6 
 306      A91958B1 
 306      7164
 307 062b FB59D87D 		.ascii	"\373Y\330}\3130ud\003,,n\006\226\341\034v\200\205m\312"
 307      CB307564 
 307      032C2C6E 
 307      0696E11C 
 307      7680856D 
 308 0640 B50A5347 		.ascii	"\265\012SGv\220\205\275d\006fx\016\203\343f\012&\340"
 308      769085BD 
 308      64066678 
 308      0E83E366 
 308      0A26E0
 309 0653 7F61CE22 		.ascii	"\177a\316\"\254\030\0316v\027\022\360^\216|d\366\321"
 309      AC181936 
 309      761712F0 
 309      5E8E7C64 
 309      F6D1
 310 0665 8DBF97EA 		.ascii	"\215\277\227\3527\251~\213\352~\252\177O\365\333T\017"
 310      37A97E8B 
 310      EA7EAA7F 
 310      4FF5DB54 
 310      0F
 311 0676 527D88EA 		.ascii	"R}\210\352a\252G\250\376#\325G\250>j\346\003\262\323"
 311      61AA47A8 
 311      FE23D547 
 311      A83E6AE6 
 311      03B2D3
 312 0689 FC7EAC3E 		.ascii	"\374~\254>\313%\366\343\330\271\027\311\177\214\337"
 312      CB25F6E3 
 312      D8B917C9 
 312      7F8CDF
 313 0698 A17BF12B 		.ascii	"\241{\361+\271s\377i\235v*\035\323\356\305\207&\350"
 313      B973FF69 
 313      9D762A1D 
 313      D3EEC587 
 313      26E8
 314 06aa 5E3C666A 		.ascii	"^<fj/\036\231P\357\305\273h\010c_x/\036\235`\236\367"
 314      2F1E9950 
 314      EFC5BB68 
 314      08635F78 
 314      2F1E9D60 
 315 06c0 EB1C6711 		.ascii	"\353\034g\021\246\256\304\303\023L%\366\232\211,\303"
 315      A6AEC4C3 
 315      134C25F6 
 315      9A892CC3 
 316 06d0 5E7C8685 		.ascii	"^|\206\205\355\267\014\313X\211cL%\236\244\2258N+\350"
 316      EDB70CCB 
 316      5889634C 
 316      259EA495 
 316      384E2BE8 
 317 06e4 5DAA27A8 		.ascii	"]\252'\250>m\246\232\216\031\236\011&3\234\011&S\263"
ARM GAS  /tmp/cco8gVfz.s 			page 24


 317      3E6DA69A 
 317      8E199E09 
 317      26339C09 
 317      2653B3
 318 06f7 5099B325 		.ascii	"P\231\263%\024\020\235b\263\350t\265\370\326\372\032"
 318      14109D62 
 318      B3E874B5 
 318      F8D6FA1A 
 319 0707 DCCE50C4 		.ascii	"\334\316P\304\031\216:\327\205\302\321\210\263\202\257"
 319      198E3AD7 
 319      85C2D188 
 319      B382AF
 320 0716 77D56F70 		.ascii	"w\325opz[\274\241\260\350Y\2778\260\250\0059\310-\217"
 320      7A5BBCA1 
 320      B0E859BF 
 320      38B0A805 
 320      39C82D8F 
 321 072a 3FE4FD51 		.ascii	"?\344\375Q\366\262\025\253\212](\217\016\264\006\311"
 321      F6B215AB 
 321      8A5D288F 
 321      0EB406C9 
 322 073a 5061F2A6 		.ascii	"Pa\362\246\2479\034\012x|\221\360#\314\355\344\340\023"
 322      A7391C0A 
 322      787C91F0 
 322      23CCEDE4 
 322      E013
 323 074c 467E7D41 		.ascii	"F~}A\257\277\265I\004\227\221\215\021\3606\337\333\342"
 323      AFBFB549 
 323      0497918D 
 323      11F036DF 
 323      DBE2
 324 075e DE18590E 		.ascii	"\336\030Y\016sk`j\235\233/\244\003\253(N\036\322\207"
 324      736B606A 
 324      9D9B2FA4 
 324      03AB284E 
 324      1ED287
 325 0771 B5087EE8 		.ascii	"\265\010~\350@\001\225\364\000+$\275\032\367\210<\244"
 325      400195F4 
 325      002B24BD 
 325      1AF7883C 
 325      A4
 326 0782 023E4C06 		.ascii	"\002>L\006\033\"\215\276\200\030\256\025\202M~1\\\267"
 326      1B228DBE 
 326      8018AE15 
 326      824D7E31 
 326      5CB7
 327 0794 C4D04962 		.ascii	"\304\320Ib\251\334\215\365\345e\316\345\313\253\234"
 327      A9DC8DF5 
 327      E565CEE5 
 327      CBAB9C
 328 07a3 8D75F5EB 		.ascii	"\215u\365\353K\235\021X\006\177\323\"/\312\375\256\350"
 328      4B9D1158 
 328      067FD322 
 328      2FCAFDAE 
 328      E8
 329 07b4 8D86C24B 		.ascii	"\215\206\302KJ\362\022C\036_\320\027Md\241r\260\310"
 329      4AF21243 
ARM GAS  /tmp/cco8gVfz.s 			page 25


 329      1E5FD017 
 329      4D64A172 
 329      B0C8
 330 07c6 C2A3805C 		.ascii	"\302\243\200\\r\303\3423B8"
 330      72C3E233 
 330      4238
 331 07d0 E089167A 		.ascii	"\340\211\026z\350\002\373\302?\366\210\353|\376\320"
 331      E802FBC2 
 331      3FF688EB 
 331      7CFED0
 332 07df 33ADE237 		.ascii	"3\255\3427\347\210\325\033\012\004BA\005\031\\\357\363"
 332      E788D51B 
 332      0A044241 
 332      05195CEF 
 332      F3
 333 07f0 02F03167 		.ascii	"\002\3601gk$\234\\\377\240\370\254\337\267\026\262h"
 333      6B249C5C 
 333      FFA0F8AC 
 333      DFB716B2 
 333      68
 334 0801 F205A3C4 		.ascii	"\362\005\243\304]+\364\345e\236\3507\364\314\002\202"
 334      5D2BF4E5 
 334      659EE837 
 334      F4CC0282 
 335 0811 B7C51714 		.ascii	"\267\305\027\024\235\236&\261Yh\365G=\321\215\353D\362"
 335      9D9E26B1 
 335      5968F547 
 335      3DD18DEB 
 335      44F2
 336 0823 F81EF078 		.ascii	"\370\036\360x\224\211\363\211\237\352\240\260\326/&"
 336      9489F389 
 336      9FEAA0B0 
 336      D62F26
 337 0832 56C4EE6D 		.ascii	"V\304\356m\021\302O\351\206*n\210:]\365\356:w\252\036"
 337      11C24FE9 
 337      862A6E88 
 337      3A5DF5EE 
 337      3A77AA1E 
 338 0846 48017A03 		.ascii	"H\001z\0035\255A\022\353\203\036O\223/BP$\357\007\005"
 338      35AD4112 
 338      EB831E4F 
 338      932F4250 
 338      24EF0705 
 339 085a FFB3C2C6 		.ascii	"\377\263\302\306\010,\254\037\202\310\367x\304\240r"
 339      082CAC1F 
 339      82C8F778 
 339      C4A072
 340 0869 EB5B969F 		.ascii	"\353[\226\237Z\200\304\352#\205\236\227\374\341\211"
 340      5A80C4EA 
 340      23859E97 
 340      FCE189
 341 0878 DA5C7C29 		.ascii	"\332\\|)H\231\335]\357\342\355Uu\325<\347\346m\325\313"
 341      4899DD5D 
 341      EFE2ED55 
 341      75D53CE7 
 341      E66DD5CB 
 342 088c F82C97AB 		.ascii	"\370,\227\253\236/\245\272\314\356rU\3636\327\212F\333"
ARM GAS  /tmp/cco8gVfz.s 			page 26


 342      9E2FA5BA 
 342      CCEE7255 
 342      F336D78A 
 342      46DB
 343 089e 4AB7CB56 		.ascii	"J\267\313V\301\3636\336\005\277aBeU#o\253\"3\353+x\256"
 343      C1F336DE 
 343      05BF6142 
 343      6555236F 
 343      AB2233EB 
 344 08b5 2131AB1C 		.ascii	"!1\253\034\354W\363%s,\200\2731\021TsIy\311\206\305"
 344      EC57F325 
 344      732C80BB 
 344      31115473 
 344      4979C986 
 345 08ca 242CDEE5 		.ascii	"$,\336\345\3624\302\372V\211\315\034 ]5\313\300I\035"
 345      F234C2FA 
 345      5689CD1C 
 345      205D35CB 
 345      C0491D
 346 08dd 9F5BB1B2 		.ascii	"\237[\261\262\262\214w7\322\213Rr\221]Q[Y\275\202\317"
 346      B28C7737 
 346      D28B5272 
 346      915D515B 
 346      59BD82CF 
 347 08f1 2137E4BE 		.ascii	"!7\344\276\024z\210\206\204\345\206\201\332Jb\227E\020"
 347      147A8886 
 347      84E58681 
 347      DA4A6297 
 347      4510
 348 0903 65549717 		.ascii	"eT\227\027TU.\253w\255R\034d\327U\271\032\252\252\263"
 348      54552EAB 
 348      77AD521C 
 348      64D755B9 
 348      1AAAAAB3 
 349 0917 C9D49A35 		.ascii	"\311\324\2325\244+\253Y\363\177]\223\2200"
 349      A42BAB59 
 349      F37F5D93 
 349      9030
 350              		.text
 351              		.section	.gnu.lto_.symtab.45ef43fd1ec63e9e,"",%progbits
 352 0000 56656374 		.ascii	"Vector80\000\000\000\000\000\000\000\000\000\000\000"
 352      6F723830 
 352      00000000 
 352      00000000 
 352      000000
 353 0013 00BE0000 		.ascii	"\000\276\000\000\000st_lld_init\000\000\000\000\000"
 353      0073745F 
 353      6C6C645F 
 353      696E6974 
 353      00000000 
 354 0028 00000000 		.ascii	"\000\000\000\000\000\000\000\301\000\000\000chSysTi"
 354      000000C1 
 354      00000063 
 354      68537973 
 354      5469
 355 003a 6D657248 		.ascii	"merHandlerI\000\000\002\000\000\000\000\000\000\000"
 355      616E646C 
ARM GAS  /tmp/cco8gVfz.s 			page 27


 355      65724900 
 355      00020000 
 355      00000000 
 356 004f 0000C400 		.ascii	"\000\000\304\000\000\000_port_irq_epilogue\000\000\002"
 356      00005F70 
 356      6F72745F 
 356      6972715F 
 356      6570696C 
 357 006a 00000000 		.ascii	"\000\000\000\000\000\000\000\000\000\306\000\000\000"
 357      00000000 
 357      00C60000 
 357      00
 358 0077 6E766963 		.ascii	"nvicEnableVector\000\000\002\000\000\000\000\000\000"
 358      456E6162 
 358      6C655665 
 358      63746F72 
 358      00000200 
 359 0090 000000CE 		.ascii	"\000\000\000\316\000\000\000"
 359      000000
 360              		.text
 361              		.section	.gnu.lto_.opts,"",%progbits
 362 0000 272D6D63 		.ascii	"'-mcpu=cortex-m0' '-mno-thumb-interwork' '-mthumb' "
 362      70753D63 
 362      6F727465 
 362      782D6D30 
 362      2720272D 
 363 0033 272D6767 		.ascii	"'-ggdb' '-O0' '-fomit-frame-pointer' '-falign-funct"
 363      64622720 
 363      272D4F30 
 363      2720272D 
 363      666F6D69 
 364 0066 696F6E73 		.ascii	"ions=16' '-ffunction-sections' '-fdata-sections' '-"
 364      3D313627 
 364      20272D66 
 364      66756E63 
 364      74696F6E 
 365 0099 666E6F2D 		.ascii	"fno-common' '-flto'\000"
 365      636F6D6D 
 365      6F6E2720 
 365      272D666C 
 365      746F2700 
 366              		.text
 367              		.cfi_sections	.debug_frame
 368              		.section	.text.port_lock,"ax",%progbits
 369              		.align	2
 370              		.p2align 4,,15
 371              		.code	16
 372              		.thumb_func
 373              		.type	port_lock, %function
 374              	port_lock:
 375              	.LFB38:
 376              		.file 1 "/home/efe/ChibiOS/os/rt/ports/ARMCMx/chcore_v6m.h"
 377              		.loc 1 330 0
 378              		.cfi_startproc
 379              	.LBB6:
 380              	.LBB7:
 381              		.file 2 "/home/efe/ChibiOS/os/ext/CMSIS/include/core_cmFunc.h"
ARM GAS  /tmp/cco8gVfz.s 			page 28


 382              		.loc 2 344 0
 383              	@ 344 "/home/efe/ChibiOS/os/ext/CMSIS/include/core_cmFunc.h" 1
 384 0000 72B6     		cpsid i
 385              	@ 0 "" 2
 386              		.code	16
 387              	.LBE7:
 388              	.LBE6:
 389              		.loc 1 333 0
 390              		@ sp needed
 391 0002 7047     		bx	lr
 392              		.cfi_endproc
 393              	.LFE38:
 394              		.size	port_lock, .-port_lock
 395 0004 C046C046 		.section	.text.port_unlock,"ax",%progbits
 395      C046C046 
 395      C046C046 
 396              		.align	2
 397              		.p2align 4,,15
 398              		.code	16
 399              		.thumb_func
 400              		.type	port_unlock, %function
 401              	port_unlock:
 402              	.LFB39:
 403              		.loc 1 339 0
 404              		.cfi_startproc
 405              	.LBB8:
 406              	.LBB9:
 407              		.loc 2 333 0
 408              	@ 333 "/home/efe/ChibiOS/os/ext/CMSIS/include/core_cmFunc.h" 1
 409 0000 62B6     		cpsie i
 410              	@ 0 "" 2
 411              		.code	16
 412              	.LBE9:
 413              	.LBE8:
 414              		.loc 1 342 0
 415              		@ sp needed
 416 0002 7047     		bx	lr
 417              		.cfi_endproc
 418              	.LFE39:
 419              		.size	port_unlock, .-port_unlock
 420 0004 C046C046 		.section	.text.port_lock_from_isr,"ax",%progbits
 420      C046C046 
 420      C046C046 
 421              		.align	2
 422              		.p2align 4,,15
 423              		.code	16
 424              		.thumb_func
 425              		.type	port_lock_from_isr, %function
 426              	port_lock_from_isr:
 427              	.LFB40:
 428              		.loc 1 349 0
 429              		.cfi_startproc
 430 0000 08B5     		push	{r3, lr}
 431              		.cfi_def_cfa_offset 8
 432              		.cfi_offset 3, -8
 433              		.cfi_offset 14, -4
 434              		.loc 1 351 0
ARM GAS  /tmp/cco8gVfz.s 			page 29


 435 0002 FFF7FEFF 		bl	port_lock
 436              		.loc 1 352 0
 437              		@ sp needed
 438 0006 08BD     		pop	{r3, pc}
 439              		.cfi_endproc
 440              	.LFE40:
 441              		.size	port_lock_from_isr, .-port_lock_from_isr
 442 0008 C046C046 		.section	.text.port_unlock_from_isr,"ax",%progbits
 442      C046C046 
 443              		.align	2
 444              		.p2align 4,,15
 445              		.code	16
 446              		.thumb_func
 447              		.type	port_unlock_from_isr, %function
 448              	port_unlock_from_isr:
 449              	.LFB41:
 450              		.loc 1 359 0
 451              		.cfi_startproc
 452 0000 08B5     		push	{r3, lr}
 453              		.cfi_def_cfa_offset 8
 454              		.cfi_offset 3, -8
 455              		.cfi_offset 14, -4
 456              		.loc 1 361 0
 457 0002 FFF7FEFF 		bl	port_unlock
 458              		.loc 1 362 0
 459              		@ sp needed
 460 0006 08BD     		pop	{r3, pc}
 461              		.cfi_endproc
 462              	.LFE41:
 463              		.size	port_unlock_from_isr, .-port_unlock_from_isr
 464 0008 C046C046 		.section	.text.chSysLockFromISR,"ax",%progbits
 464      C046C046 
 465              		.align	2
 466              		.p2align 4,,15
 467              		.code	16
 468              		.thumb_func
 469              		.type	chSysLockFromISR, %function
 470              	chSysLockFromISR:
 471              	.LFB72:
 472              		.file 3 "/home/efe/ChibiOS/os/rt/include/chsys.h"
 473              		.loc 3 386 0
 474              		.cfi_startproc
 475 0000 08B5     		push	{r3, lr}
 476              		.cfi_def_cfa_offset 8
 477              		.cfi_offset 3, -8
 478              		.cfi_offset 14, -4
 479              		.loc 3 388 0
 480 0002 FFF7FEFF 		bl	port_lock_from_isr
 481              		.loc 3 391 0
 482              		@ sp needed
 483 0006 08BD     		pop	{r3, pc}
 484              		.cfi_endproc
 485              	.LFE72:
 486              		.size	chSysLockFromISR, .-chSysLockFromISR
 487 0008 C046C046 		.section	.text.chSysUnlockFromISR,"ax",%progbits
 487      C046C046 
 488              		.align	2
ARM GAS  /tmp/cco8gVfz.s 			page 30


 489              		.p2align 4,,15
 490              		.code	16
 491              		.thumb_func
 492              		.type	chSysUnlockFromISR, %function
 493              	chSysUnlockFromISR:
 494              	.LFB73:
 495              		.loc 3 406 0
 496              		.cfi_startproc
 497 0000 08B5     		push	{r3, lr}
 498              		.cfi_def_cfa_offset 8
 499              		.cfi_offset 3, -8
 500              		.cfi_offset 14, -4
 501              		.loc 3 410 0
 502 0002 FFF7FEFF 		bl	port_unlock_from_isr
 503              		.loc 3 411 0
 504              		@ sp needed
 505 0006 08BD     		pop	{r3, pc}
 506              		.cfi_endproc
 507              	.LFE73:
 508              		.size	chSysUnlockFromISR, .-chSysUnlockFromISR
 509 0008 C046C046 		.section	.text.osalSysLockFromISR,"ax",%progbits
 509      C046C046 
 510              		.align	2
 511              		.p2align 4,,15
 512              		.code	16
 513              		.thumb_func
 514              		.type	osalSysLockFromISR, %function
 515              	osalSysLockFromISR:
 516              	.LFB125:
 517              		.file 4 "/home/efe/ChibiOS/os/hal/osal/rt/osal.h"
 518              		.loc 4 513 0
 519              		.cfi_startproc
 520 0000 08B5     		push	{r3, lr}
 521              		.cfi_def_cfa_offset 8
 522              		.cfi_offset 3, -8
 523              		.cfi_offset 14, -4
 524              		.loc 4 515 0
 525 0002 FFF7FEFF 		bl	chSysLockFromISR
 526              		.loc 4 516 0
 527              		@ sp needed
 528 0006 08BD     		pop	{r3, pc}
 529              		.cfi_endproc
 530              	.LFE125:
 531              		.size	osalSysLockFromISR, .-osalSysLockFromISR
 532 0008 C046C046 		.section	.text.osalSysUnlockFromISR,"ax",%progbits
 532      C046C046 
 533              		.align	2
 534              		.p2align 4,,15
 535              		.code	16
 536              		.thumb_func
 537              		.type	osalSysUnlockFromISR, %function
 538              	osalSysUnlockFromISR:
 539              	.LFB126:
 540              		.loc 4 524 0
 541              		.cfi_startproc
 542 0000 08B5     		push	{r3, lr}
 543              		.cfi_def_cfa_offset 8
ARM GAS  /tmp/cco8gVfz.s 			page 31


 544              		.cfi_offset 3, -8
 545              		.cfi_offset 14, -4
 546              		.loc 4 526 0
 547 0002 FFF7FEFF 		bl	chSysUnlockFromISR
 548              		.loc 4 527 0
 549              		@ sp needed
 550 0006 08BD     		pop	{r3, pc}
 551              		.cfi_endproc
 552              	.LFE126:
 553              		.size	osalSysUnlockFromISR, .-osalSysUnlockFromISR
 554 0008 C046C046 		.section	.text.osalOsTimerHandlerI,"ax",%progbits
 554      C046C046 
 555              		.align	2
 556              		.p2align 4,,15
 557              		.code	16
 558              		.thumb_func
 559              		.type	osalOsTimerHandlerI, %function
 560              	osalOsTimerHandlerI:
 561              	.LFB129:
 562              		.loc 4 583 0
 563              		.cfi_startproc
 564 0000 08B5     		push	{r3, lr}
 565              		.cfi_def_cfa_offset 8
 566              		.cfi_offset 3, -8
 567              		.cfi_offset 14, -4
 568              		.loc 4 585 0
 569 0002 FFF7FEFF 		bl	chSysTimerHandlerI
 570              		.loc 4 586 0
 571              		@ sp needed
 572 0006 08BD     		pop	{r3, pc}
 573              		.cfi_endproc
 574              	.LFE129:
 575              		.size	osalOsTimerHandlerI, .-osalOsTimerHandlerI
 576 0008 C046C046 		.section	.text.Vector80,"ax",%progbits
 576      C046C046 
 577              		.align	2
 578              		.p2align 4,,15
 579              		.global	Vector80
 580              		.code	16
 581              		.thumb_func
 582              		.type	Vector80, %function
 583              	Vector80:
 584              	.LFB149:
 585              		.file 5 "/home/efe/ChibiOS/os/hal/ports/STM32/LLD/TIMv1/st_lld.c"
 586              		.loc 5 239 0
 587              		.cfi_startproc
 588 0000 00B5     		push	{lr}
 589              		.cfi_def_cfa_offset 4
 590              		.cfi_offset 14, -4
 591 0002 83B0     		sub	sp, sp, #12
 592              		.cfi_def_cfa_offset 16
 593 0004 7346     		mov	r3, lr
 594              		.loc 5 241 0
 595 0006 0193     		str	r3, [sp, #4]
 596              		.loc 5 246 0
 597 0008 094B     		ldr	r3, .L12
 598 000a 1A69     		ldr	r2, [r3, #16]
ARM GAS  /tmp/cco8gVfz.s 			page 32


 599 000c 0223     		mov	r3, #2
 600 000e 1340     		and	r3, r2
 601 0010 08D0     		beq	.L11
 602              		.loc 5 247 0
 603 0012 074B     		ldr	r3, .L12
 604 0014 0022     		mov	r2, #0
 605 0016 1A61     		str	r2, [r3, #16]
 606              		.loc 5 249 0
 607 0018 FFF7FEFF 		bl	osalSysLockFromISR
 608              		.loc 5 250 0
 609 001c FFF7FEFF 		bl	osalOsTimerHandlerI
 610              		.loc 5 251 0
 611 0020 FFF7FEFF 		bl	osalSysUnlockFromISR
 612              	.L11:
 613              		.loc 5 254 0
 614 0024 019B     		ldr	r3, [sp, #4]
 615 0026 181C     		mov	r0, r3
 616 0028 FFF7FEFF 		bl	_port_irq_epilogue
 617              		.loc 5 255 0
 618 002c 03B0     		add	sp, sp, #12
 619              		@ sp needed
 620 002e 00BD     		pop	{pc}
 621              	.L13:
 622              		.align	2
 623              	.L12:
 624 0030 00040040 		.word	1073742848
 625              		.cfi_endproc
 626              	.LFE149:
 627              		.size	Vector80, .-Vector80
 628 0034 C046C046 		.section	.text.st_lld_init,"ax",%progbits
 628      C046C046 
 628      C046C046 
 629              		.align	2
 630              		.p2align 4,,15
 631              		.global	st_lld_init
 632              		.code	16
 633              		.thumb_func
 634              		.type	st_lld_init, %function
 635              	st_lld_init:
 636              	.LFB150:
 637              		.loc 5 267 0
 638              		.cfi_startproc
 639 0000 08B5     		push	{r3, lr}
 640              		.cfi_def_cfa_offset 8
 641              		.cfi_offset 3, -8
 642              		.cfi_offset 14, -4
 643              		.loc 5 273 0
 644 0002 144B     		ldr	r3, .L15
 645 0004 134A     		ldr	r2, .L15
 646 0006 D269     		ldr	r2, [r2, #28]
 647 0008 0221     		mov	r1, #2
 648 000a 0A43     		orr	r2, r1
 649 000c DA61     		str	r2, [r3, #28]
 650              		.loc 5 276 0
 651 000e 124B     		ldr	r3, .L15+4
 652 0010 114A     		ldr	r2, .L15+4
 653 0012 9268     		ldr	r2, [r2, #8]
ARM GAS  /tmp/cco8gVfz.s 			page 33


 654 0014 0221     		mov	r1, #2
 655 0016 0A43     		orr	r2, r1
 656 0018 9A60     		str	r2, [r3, #8]
 657              		.loc 5 279 0
 658 001a 104B     		ldr	r3, .L15+8
 659 001c 104A     		ldr	r2, .L15+12
 660 001e 9A62     		str	r2, [r3, #40]
 661              		.loc 5 280 0
 662 0020 0E4B     		ldr	r3, .L15+8
 663 0022 104A     		ldr	r2, .L15+16
 664 0024 DA62     		str	r2, [r3, #44]
 665              		.loc 5 281 0
 666 0026 0D4B     		ldr	r3, .L15+8
 667 0028 0022     		mov	r2, #0
 668 002a 9A61     		str	r2, [r3, #24]
 669              		.loc 5 282 0
 670 002c 0B4B     		ldr	r3, .L15+8
 671 002e 0022     		mov	r2, #0
 672 0030 5A63     		str	r2, [r3, #52]
 673              		.loc 5 283 0
 674 0032 0A4B     		ldr	r3, .L15+8
 675 0034 0022     		mov	r2, #0
 676 0036 DA60     		str	r2, [r3, #12]
 677              		.loc 5 284 0
 678 0038 084B     		ldr	r3, .L15+8
 679 003a 0022     		mov	r2, #0
 680 003c 5A60     		str	r2, [r3, #4]
 681              		.loc 5 285 0
 682 003e 074B     		ldr	r3, .L15+8
 683 0040 0122     		mov	r2, #1
 684 0042 5A61     		str	r2, [r3, #20]
 685              		.loc 5 286 0
 686 0044 054B     		ldr	r3, .L15+8
 687 0046 0122     		mov	r2, #1
 688 0048 1A60     		str	r2, [r3]
 689              		.loc 5 289 0
 690 004a 1020     		mov	r0, #16
 691 004c 0221     		mov	r1, #2
 692 004e FFF7FEFF 		bl	nvicEnableVector
 693              		.loc 5 304 0
 694              		@ sp needed
 695 0052 08BD     		pop	{r3, pc}
 696              	.L16:
 697              		.align	2
 698              	.L15:
 699 0054 00100240 		.word	1073876992
 700 0058 00580140 		.word	1073829888
 701 005c 00040040 		.word	1073742848
 702 0060 BF120000 		.word	4799
 703 0064 FFFF0000 		.word	65535
 704              		.cfi_endproc
 705              	.LFE150:
 706              		.size	st_lld_init, .-st_lld_init
 707 0068 C046C046 		.text
 707      C046C046 
 708              	.Letext0:
 709              		.file 6 "/usr/include/newlib/machine/_default_types.h"
ARM GAS  /tmp/cco8gVfz.s 			page 34


 710              		.file 7 "/usr/include/newlib/stdint.h"
 711              		.file 8 "/home/efe/ChibiOS/os/rt/ports/ARMCMx/compilers/GCC/chtypes.h"
 712              		.file 9 "/home/efe/ChibiOS/os/rt/include/chsystypes.h"
 713              		.file 10 "/home/efe/ChibiOS/os/rt/include/chschd.h"
 714              		.file 11 "/home/efe/ChibiOS/os/ext/CMSIS/ST/stm32f030x6.h"
 715              		.file 12 "/home/efe/ChibiOS/os/rt/ports/ARMCMx/chcore.h"
 716              		.file 13 "/home/efe/ChibiOS/os/hal/ports/STM32/LLD/TIMv1/stm32_tim.h"
 717              		.file 14 "/home/efe/ChibiOS/os/rt/include/chsem.h"
 718              		.file 15 "/home/efe/ChibiOS/os/rt/include/chmtx.h"
 719              		.section	.debug_info,"",%progbits
 720              	.Ldebug_info0:
 721 0000 FE080000 		.4byte	0x8fe
 722 0004 0400     		.2byte	0x4
 723 0006 00000000 		.4byte	.Ldebug_abbrev0
 724 000a 04       		.byte	0x4
 725 000b 01       		.uleb128 0x1
 726 000c 76030000 		.4byte	.LASF129
 727 0010 01       		.byte	0x1
 728 0011 B0000000 		.4byte	.LASF130
 729 0015 00000000 		.4byte	.Ldebug_ranges0+0
 730 0019 00000000 		.4byte	0
 731 001d 00000000 		.4byte	.Ldebug_line0
 732 0021 02       		.uleb128 0x2
 733 0022 04       		.byte	0x4
 734 0023 05       		.byte	0x5
 735 0024 696E7400 		.ascii	"int\000"
 736 0028 03       		.uleb128 0x3
 737 0029 04       		.byte	0x4
 738 002a 07       		.byte	0x7
 739 002b 85000000 		.4byte	.LASF0
 740 002f 03       		.uleb128 0x3
 741 0030 01       		.byte	0x1
 742 0031 06       		.byte	0x6
 743 0032 D2050000 		.4byte	.LASF1
 744 0036 04       		.uleb128 0x4
 745 0037 15050000 		.4byte	.LASF4
 746 003b 06       		.byte	0x6
 747 003c 1D       		.byte	0x1d
 748 003d 41000000 		.4byte	0x41
 749 0041 03       		.uleb128 0x3
 750 0042 01       		.byte	0x1
 751 0043 08       		.byte	0x8
 752 0044 73050000 		.4byte	.LASF2
 753 0048 03       		.uleb128 0x3
 754 0049 02       		.byte	0x2
 755 004a 05       		.byte	0x5
 756 004b 8B040000 		.4byte	.LASF3
 757 004f 04       		.uleb128 0x4
 758 0050 F7010000 		.4byte	.LASF5
 759 0054 06       		.byte	0x6
 760 0055 2B       		.byte	0x2b
 761 0056 5A000000 		.4byte	0x5a
 762 005a 03       		.uleb128 0x3
 763 005b 02       		.byte	0x2
 764 005c 07       		.byte	0x7
 765 005d DE050000 		.4byte	.LASF6
 766 0061 04       		.uleb128 0x4
ARM GAS  /tmp/cco8gVfz.s 			page 35


 767 0062 A6000000 		.4byte	.LASF7
 768 0066 06       		.byte	0x6
 769 0067 3F       		.byte	0x3f
 770 0068 6C000000 		.4byte	0x6c
 771 006c 03       		.uleb128 0x3
 772 006d 04       		.byte	0x4
 773 006e 05       		.byte	0x5
 774 006f A7040000 		.4byte	.LASF8
 775 0073 04       		.uleb128 0x4
 776 0074 81050000 		.4byte	.LASF9
 777 0078 06       		.byte	0x6
 778 0079 41       		.byte	0x41
 779 007a 7E000000 		.4byte	0x7e
 780 007e 03       		.uleb128 0x3
 781 007f 04       		.byte	0x4
 782 0080 07       		.byte	0x7
 783 0081 2F050000 		.4byte	.LASF10
 784 0085 03       		.uleb128 0x3
 785 0086 08       		.byte	0x8
 786 0087 05       		.byte	0x5
 787 0088 29030000 		.4byte	.LASF11
 788 008c 04       		.uleb128 0x4
 789 008d 8C020000 		.4byte	.LASF12
 790 0091 06       		.byte	0x6
 791 0092 5B       		.byte	0x5b
 792 0093 97000000 		.4byte	0x97
 793 0097 03       		.uleb128 0x3
 794 0098 08       		.byte	0x8
 795 0099 07       		.byte	0x7
 796 009a E0010000 		.4byte	.LASF13
 797 009e 04       		.uleb128 0x4
 798 009f F9020000 		.4byte	.LASF14
 799 00a3 07       		.byte	0x7
 800 00a4 2A       		.byte	0x2a
 801 00a5 36000000 		.4byte	0x36
 802 00a9 04       		.uleb128 0x4
 803 00aa 72040000 		.4byte	.LASF15
 804 00ae 07       		.byte	0x7
 805 00af 36       		.byte	0x36
 806 00b0 4F000000 		.4byte	0x4f
 807 00b4 04       		.uleb128 0x4
 808 00b5 4E050000 		.4byte	.LASF16
 809 00b9 07       		.byte	0x7
 810 00ba 41       		.byte	0x41
 811 00bb 61000000 		.4byte	0x61
 812 00bf 04       		.uleb128 0x4
 813 00c0 85010000 		.4byte	.LASF17
 814 00c4 07       		.byte	0x7
 815 00c5 42       		.byte	0x42
 816 00c6 73000000 		.4byte	0x73
 817 00ca 04       		.uleb128 0x4
 818 00cb E6040000 		.4byte	.LASF18
 819 00cf 07       		.byte	0x7
 820 00d0 4E       		.byte	0x4e
 821 00d1 8C000000 		.4byte	0x8c
 822 00d5 04       		.uleb128 0x4
 823 00d6 5F040000 		.4byte	.LASF19
ARM GAS  /tmp/cco8gVfz.s 			page 36


 824 00da 08       		.byte	0x8
 825 00db 3C       		.byte	0x3c
 826 00dc 9E000000 		.4byte	0x9e
 827 00e0 04       		.uleb128 0x4
 828 00e1 D9020000 		.4byte	.LASF20
 829 00e5 08       		.byte	0x8
 830 00e6 3D       		.byte	0x3d
 831 00e7 9E000000 		.4byte	0x9e
 832 00eb 04       		.uleb128 0x4
 833 00ec B5010000 		.4byte	.LASF21
 834 00f0 08       		.byte	0x8
 835 00f1 40       		.byte	0x40
 836 00f2 BF000000 		.4byte	0xbf
 837 00f6 04       		.uleb128 0x4
 838 00f7 47030000 		.4byte	.LASF22
 839 00fb 08       		.byte	0x8
 840 00fc 41       		.byte	0x41
 841 00fd B4000000 		.4byte	0xb4
 842 0101 04       		.uleb128 0x4
 843 0102 02020000 		.4byte	.LASF23
 844 0106 08       		.byte	0x8
 845 0107 45       		.byte	0x45
 846 0108 B4000000 		.4byte	0xb4
 847 010c 04       		.uleb128 0x4
 848 010d 6B000000 		.4byte	.LASF24
 849 0111 09       		.byte	0x9
 850 0112 35       		.byte	0x35
 851 0113 A9000000 		.4byte	0xa9
 852 0117 04       		.uleb128 0x4
 853 0118 27020000 		.4byte	.LASF25
 854 011c 09       		.byte	0x9
 855 011d 3F       		.byte	0x3f
 856 011e 22010000 		.4byte	0x122
 857 0122 05       		.uleb128 0x5
 858 0123 10030000 		.4byte	.LASF40
 859 0127 30       		.byte	0x30
 860 0128 0A       		.byte	0xa
 861 0129 C2       		.byte	0xc2
 862 012a CF010000 		.4byte	0x1cf
 863 012e 06       		.uleb128 0x6
 864 012f DF040000 		.4byte	.LASF26
 865 0133 0A       		.byte	0xa
 866 0134 C3       		.byte	0xc3
 867 0135 DA010000 		.4byte	0x1da
 868 0139 00       		.byte	0
 869 013a 06       		.uleb128 0x6
 870 013b 1F050000 		.4byte	.LASF27
 871 013f 0A       		.byte	0xa
 872 0140 C5       		.byte	0xc5
 873 0141 DA010000 		.4byte	0x1da
 874 0145 04       		.byte	0x4
 875 0146 06       		.uleb128 0x6
 876 0147 5B000000 		.4byte	.LASF28
 877 014b 0A       		.byte	0xa
 878 014c C7       		.byte	0xc7
 879 014d EB000000 		.4byte	0xeb
 880 0151 08       		.byte	0x8
ARM GAS  /tmp/cco8gVfz.s 			page 37


 881 0152 06       		.uleb128 0x6
 882 0153 EF040000 		.4byte	.LASF29
 883 0157 0A       		.byte	0xa
 884 0158 C8       		.byte	0xc8
 885 0159 31050000 		.4byte	0x531
 886 015d 0C       		.byte	0xc
 887 015e 06       		.uleb128 0x6
 888 015f 08020000 		.4byte	.LASF30
 889 0163 0A       		.byte	0xa
 890 0164 CA       		.byte	0xca
 891 0165 DA010000 		.4byte	0x1da
 892 0169 10       		.byte	0x10
 893 016a 06       		.uleb128 0x6
 894 016b E9020000 		.4byte	.LASF31
 895 016f 0A       		.byte	0xa
 896 0170 CB       		.byte	0xcb
 897 0171 DA010000 		.4byte	0x1da
 898 0175 14       		.byte	0x14
 899 0176 06       		.uleb128 0x6
 900 0177 9C020000 		.4byte	.LASF32
 901 017b 0A       		.byte	0xa
 902 017c D2       		.byte	0xd2
 903 017d 9D070000 		.4byte	0x79d
 904 0181 18       		.byte	0x18
 905 0182 06       		.uleb128 0x6
 906 0183 F1020000 		.4byte	.LASF33
 907 0187 0A       		.byte	0xa
 908 0188 DD       		.byte	0xdd
 909 0189 E0000000 		.4byte	0xe0
 910 018d 1C       		.byte	0x1c
 911 018e 06       		.uleb128 0x6
 912 018f 5E030000 		.4byte	.LASF34
 913 0193 0A       		.byte	0xa
 914 0194 E1       		.byte	0xe1
 915 0195 D5000000 		.4byte	0xd5
 916 0199 1D       		.byte	0x1d
 917 019a 07       		.uleb128 0x7
 918 019b 705F7500 		.ascii	"p_u\000"
 919 019f 0A       		.byte	0xa
 920 01a0 3101     		.2byte	0x131
 921 01a2 E4060000 		.4byte	0x6e4
 922 01a6 20       		.byte	0x20
 923 01a7 08       		.uleb128 0x8
 924 01a8 20000000 		.4byte	.LASF35
 925 01ac 0A       		.byte	0xa
 926 01ad 3601     		.2byte	0x136
 927 01af E0010000 		.4byte	0x1e0
 928 01b3 24       		.byte	0x24
 929 01b4 08       		.uleb128 0x8
 930 01b5 01030000 		.4byte	.LASF36
 931 01b9 0A       		.byte	0xa
 932 01ba 4D01     		.2byte	0x14d
 933 01bc 97070000 		.4byte	0x797
 934 01c0 28       		.byte	0x28
 935 01c1 08       		.uleb128 0x8
 936 01c2 80040000 		.4byte	.LASF37
 937 01c6 0A       		.byte	0xa
ARM GAS  /tmp/cco8gVfz.s 			page 38


 938 01c7 5101     		.2byte	0x151
 939 01c9 EB000000 		.4byte	0xeb
 940 01cd 2C       		.byte	0x2c
 941 01ce 00       		.byte	0
 942 01cf 04       		.uleb128 0x4
 943 01d0 BA020000 		.4byte	.LASF38
 944 01d4 09       		.byte	0x9
 945 01d5 44       		.byte	0x44
 946 01d6 DA010000 		.4byte	0x1da
 947 01da 09       		.uleb128 0x9
 948 01db 04       		.byte	0x4
 949 01dc 17010000 		.4byte	0x117
 950 01e0 04       		.uleb128 0x4
 951 01e1 92000000 		.4byte	.LASF39
 952 01e5 09       		.byte	0x9
 953 01e6 49       		.byte	0x49
 954 01e7 EB010000 		.4byte	0x1eb
 955 01eb 05       		.uleb128 0x5
 956 01ec 00000000 		.4byte	.LASF41
 957 01f0 04       		.byte	0x4
 958 01f1 0A       		.byte	0xa
 959 01f2 B0       		.byte	0xb0
 960 01f3 04020000 		.4byte	0x204
 961 01f7 06       		.uleb128 0x6
 962 01f8 DF040000 		.4byte	.LASF26
 963 01fc 0A       		.byte	0xa
 964 01fd B1       		.byte	0xb1
 965 01fe DA010000 		.4byte	0x1da
 966 0202 00       		.byte	0
 967 0203 00       		.byte	0
 968 0204 04       		.uleb128 0x4
 969 0205 10000000 		.4byte	.LASF42
 970 0209 09       		.byte	0x9
 971 020a 50       		.byte	0x50
 972 020b 0F020000 		.4byte	0x20f
 973 020f 05       		.uleb128 0x5
 974 0210 30010000 		.4byte	.LASF43
 975 0214 08       		.byte	0x8
 976 0215 0A       		.byte	0xa
 977 0216 B7       		.byte	0xb7
 978 0217 34020000 		.4byte	0x234
 979 021b 06       		.uleb128 0x6
 980 021c DF040000 		.4byte	.LASF26
 981 0220 0A       		.byte	0xa
 982 0221 B8       		.byte	0xb8
 983 0222 DA010000 		.4byte	0x1da
 984 0226 00       		.byte	0
 985 0227 06       		.uleb128 0x6
 986 0228 1F050000 		.4byte	.LASF27
 987 022c 0A       		.byte	0xa
 988 022d B9       		.byte	0xb9
 989 022e DA010000 		.4byte	0x1da
 990 0232 04       		.byte	0x4
 991 0233 00       		.byte	0
 992 0234 04       		.uleb128 0x4
 993 0235 41050000 		.4byte	.LASF44
 994 0239 09       		.byte	0x9
ARM GAS  /tmp/cco8gVfz.s 			page 39


 995 023a 57       		.byte	0x57
 996 023b 3F020000 		.4byte	0x23f
 997 023f 0A       		.uleb128 0xa
 998 0240 13010000 		.4byte	.LASF45
 999 0244 1C       		.byte	0x1c
 1000 0245 0A       		.byte	0xa
 1001 0246 9001     		.2byte	0x190
 1002 0248 9B020000 		.4byte	0x29b
 1003 024c 08       		.uleb128 0x8
 1004 024d 37030000 		.4byte	.LASF46
 1005 0251 0A       		.byte	0xa
 1006 0252 9101     		.2byte	0x191
 1007 0254 04020000 		.4byte	0x204
 1008 0258 00       		.byte	0
 1009 0259 08       		.uleb128 0x8
 1010 025a 95010000 		.4byte	.LASF47
 1011 025e 0A       		.byte	0xa
 1012 025f 9201     		.2byte	0x192
 1013 0261 EB000000 		.4byte	0xeb
 1014 0265 08       		.byte	0x8
 1015 0266 08       		.uleb128 0x8
 1016 0267 F1050000 		.4byte	.LASF48
 1017 026b 0A       		.byte	0xa
 1018 026c 9401     		.2byte	0x194
 1019 026e 31050000 		.4byte	0x531
 1020 0272 0C       		.byte	0xc
 1021 0273 08       		.uleb128 0x8
 1022 0274 3F030000 		.4byte	.LASF49
 1023 0278 0A       		.byte	0xa
 1024 0279 9701     		.2byte	0x197
 1025 027b DA010000 		.4byte	0x1da
 1026 027f 10       		.byte	0x10
 1027 0280 08       		.uleb128 0x8
 1028 0281 2C040000 		.4byte	.LASF50
 1029 0285 0A       		.byte	0xa
 1030 0286 9801     		.2byte	0x198
 1031 0288 DA010000 		.4byte	0x1da
 1032 028c 14       		.byte	0x14
 1033 028d 08       		.uleb128 0x8
 1034 028e 95040000 		.4byte	.LASF51
 1035 0292 0A       		.byte	0xa
 1036 0293 9B01     		.2byte	0x19b
 1037 0295 DA010000 		.4byte	0x1da
 1038 0299 18       		.byte	0x18
 1039 029a 00       		.byte	0
 1040 029b 04       		.uleb128 0x4
 1041 029c 66010000 		.4byte	.LASF52
 1042 02a0 09       		.byte	0x9
 1043 02a1 5C       		.byte	0x5c
 1044 02a2 A6020000 		.4byte	0x2a6
 1045 02a6 09       		.uleb128 0x9
 1046 02a7 04       		.byte	0x4
 1047 02a8 AC020000 		.4byte	0x2ac
 1048 02ac 0B       		.uleb128 0xb
 1049 02ad B7020000 		.4byte	0x2b7
 1050 02b1 0C       		.uleb128 0xc
 1051 02b2 B7020000 		.4byte	0x2b7
ARM GAS  /tmp/cco8gVfz.s 			page 40


 1052 02b6 00       		.byte	0
 1053 02b7 0D       		.uleb128 0xd
 1054 02b8 04       		.byte	0x4
 1055 02b9 04       		.uleb128 0x4
 1056 02ba 66030000 		.4byte	.LASF53
 1057 02be 09       		.byte	0x9
 1058 02bf 61       		.byte	0x61
 1059 02c0 C4020000 		.4byte	0x2c4
 1060 02c4 0A       		.uleb128 0xa
 1061 02c5 BD010000 		.4byte	.LASF54
 1062 02c9 14       		.byte	0x14
 1063 02ca 0A       		.byte	0xa
 1064 02cb 6B01     		.2byte	0x16b
 1065 02cd 13030000 		.4byte	0x313
 1066 02d1 08       		.uleb128 0x8
 1067 02d2 AA050000 		.4byte	.LASF55
 1068 02d6 0A       		.byte	0xa
 1069 02d7 6C01     		.2byte	0x16c
 1070 02d9 AF070000 		.4byte	0x7af
 1071 02dd 00       		.byte	0
 1072 02de 08       		.uleb128 0x8
 1073 02df 16060000 		.4byte	.LASF56
 1074 02e3 0A       		.byte	0xa
 1075 02e4 6D01     		.2byte	0x16d
 1076 02e6 AF070000 		.4byte	0x7af
 1077 02ea 04       		.byte	0x4
 1078 02eb 08       		.uleb128 0x8
 1079 02ec B1020000 		.4byte	.LASF57
 1080 02f0 0A       		.byte	0xa
 1081 02f1 6E01     		.2byte	0x16e
 1082 02f3 0C010000 		.4byte	0x10c
 1083 02f7 08       		.byte	0x8
 1084 02f8 08       		.uleb128 0x8
 1085 02f9 02060000 		.4byte	.LASF58
 1086 02fd 0A       		.byte	0xa
 1087 02fe 6F01     		.2byte	0x16f
 1088 0300 9B020000 		.4byte	0x29b
 1089 0304 0C       		.byte	0xc
 1090 0305 08       		.uleb128 0x8
 1091 0306 A1010000 		.4byte	.LASF59
 1092 030a 0A       		.byte	0xa
 1093 030b 7101     		.2byte	0x171
 1094 030d B7020000 		.4byte	0x2b7
 1095 0311 10       		.byte	0x10
 1096 0312 00       		.byte	0
 1097 0313 04       		.uleb128 0x4
 1098 0314 8C050000 		.4byte	.LASF60
 1099 0318 09       		.byte	0x9
 1100 0319 66       		.byte	0x66
 1101 031a 1E030000 		.4byte	0x31e
 1102 031e 0A       		.uleb128 0xa
 1103 031f 10020000 		.4byte	.LASF61
 1104 0323 0C       		.byte	0xc
 1105 0324 0A       		.byte	0xa
 1106 0325 7B01     		.2byte	0x17b
 1107 0327 60030000 		.4byte	0x360
 1108 032b 08       		.uleb128 0x8
ARM GAS  /tmp/cco8gVfz.s 			page 41


 1109 032c AA050000 		.4byte	.LASF55
 1110 0330 0A       		.byte	0xa
 1111 0331 7C01     		.2byte	0x17c
 1112 0333 AF070000 		.4byte	0x7af
 1113 0337 00       		.byte	0
 1114 0338 08       		.uleb128 0x8
 1115 0339 16060000 		.4byte	.LASF56
 1116 033d 0A       		.byte	0xa
 1117 033e 7E01     		.2byte	0x17e
 1118 0340 AF070000 		.4byte	0x7af
 1119 0344 04       		.byte	0x4
 1120 0345 08       		.uleb128 0x8
 1121 0346 B1020000 		.4byte	.LASF57
 1122 034a 0A       		.byte	0xa
 1123 034b 8001     		.2byte	0x180
 1124 034d 0C010000 		.4byte	0x10c
 1125 0351 08       		.byte	0x8
 1126 0352 08       		.uleb128 0x8
 1127 0353 CD020000 		.4byte	.LASF62
 1128 0357 0A       		.byte	0xa
 1129 0358 8801     		.2byte	0x188
 1130 035a 0C010000 		.4byte	0x10c
 1131 035e 0A       		.byte	0xa
 1132 035f 00       		.byte	0
 1133 0360 04       		.uleb128 0x4
 1134 0361 1A030000 		.4byte	.LASF63
 1135 0365 09       		.byte	0x9
 1136 0366 6B       		.byte	0x6b
 1137 0367 6B030000 		.4byte	0x36b
 1138 036b 0A       		.uleb128 0xa
 1139 036c 75010000 		.4byte	.LASF64
 1140 0370 04       		.byte	0x4
 1141 0371 0A       		.byte	0xa
 1142 0372 A201     		.2byte	0x1a2
 1143 0374 86030000 		.4byte	0x386
 1144 0378 08       		.uleb128 0x8
 1145 0379 48040000 		.4byte	.LASF65
 1146 037d 0A       		.byte	0xa
 1147 037e AA01     		.2byte	0x1aa
 1148 0380 B5070000 		.4byte	0x7b5
 1149 0384 00       		.byte	0
 1150 0385 00       		.byte	0
 1151 0386 04       		.uleb128 0x4
 1152 0387 B2050000 		.4byte	.LASF66
 1153 038b 09       		.byte	0x9
 1154 038c 70       		.byte	0x70
 1155 038d 91030000 		.4byte	0x391
 1156 0391 0E       		.uleb128 0xe
 1157 0392 C9040000 		.4byte	.LASF67
 1158 0396 2801     		.2byte	0x128
 1159 0398 0A       		.byte	0xa
 1160 0399 C201     		.2byte	0x1c2
 1161 039b E1030000 		.4byte	0x3e1
 1162 039f 08       		.uleb128 0x8
 1163 03a0 FA040000 		.4byte	.LASF68
 1164 03a4 0A       		.byte	0xa
 1165 03a5 C601     		.2byte	0x1c6
ARM GAS  /tmp/cco8gVfz.s 			page 42


 1166 03a7 34020000 		.4byte	0x234
 1167 03ab 00       		.byte	0
 1168 03ac 08       		.uleb128 0x8
 1169 03ad F9000000 		.4byte	.LASF69
 1170 03b1 0A       		.byte	0xa
 1171 03b2 CA01     		.2byte	0x1ca
 1172 03b4 13030000 		.4byte	0x313
 1173 03b8 1C       		.byte	0x1c
 1174 03b9 07       		.uleb128 0x7
 1175 03ba 64626700 		.ascii	"dbg\000"
 1176 03be 0A       		.byte	0xa
 1177 03bf CE01     		.2byte	0x1ce
 1178 03c1 60030000 		.4byte	0x360
 1179 03c5 28       		.byte	0x28
 1180 03c6 08       		.uleb128 0x8
 1181 03c7 67040000 		.4byte	.LASF70
 1182 03cb 0A       		.byte	0xa
 1183 03cc D201     		.2byte	0x1d2
 1184 03ce 17010000 		.4byte	0x117
 1185 03d2 2C       		.byte	0x2c
 1186 03d3 08       		.uleb128 0x8
 1187 03d4 21010000 		.4byte	.LASF71
 1188 03d8 0A       		.byte	0xa
 1189 03d9 E301     		.2byte	0x1e3
 1190 03db BA070000 		.4byte	0x7ba
 1191 03df 60       		.byte	0x60
 1192 03e0 00       		.byte	0
 1193 03e1 03       		.uleb128 0x3
 1194 03e2 04       		.byte	0x4
 1195 03e3 07       		.byte	0x7
 1196 03e4 26050000 		.4byte	.LASF72
 1197 03e8 0F       		.uleb128 0xf
 1198 03e9 BF000000 		.4byte	0xbf
 1199 03ed 10       		.uleb128 0x10
 1200 03ee BF000000 		.4byte	0xbf
 1201 03f2 FD030000 		.4byte	0x3fd
 1202 03f6 11       		.uleb128 0x11
 1203 03f7 E1030000 		.4byte	0x3e1
 1204 03fb 01       		.byte	0x1
 1205 03fc 00       		.byte	0
 1206 03fd 12       		.uleb128 0x12
 1207 03fe 10       		.byte	0x10
 1208 03ff 0B       		.byte	0xb
 1209 0400 AB       		.byte	0xab
 1210 0401 35040000 		.4byte	0x435
 1211 0405 06       		.uleb128 0x6
 1212 0406 31060000 		.4byte	.LASF73
 1213 040a 0B       		.byte	0xb
 1214 040b AD       		.byte	0xad
 1215 040c E8030000 		.4byte	0x3e8
 1216 0410 00       		.byte	0
 1217 0411 13       		.uleb128 0x13
 1218 0412 435200   		.ascii	"CR\000"
 1219 0415 0B       		.byte	0xb
 1220 0416 AE       		.byte	0xae
 1221 0417 E8030000 		.4byte	0x3e8
 1222 041b 04       		.byte	0x4
ARM GAS  /tmp/cco8gVfz.s 			page 43


 1223 041c 06       		.uleb128 0x6
 1224 041d 8E010000 		.4byte	.LASF74
 1225 0421 0B       		.byte	0xb
 1226 0422 AF       		.byte	0xaf
 1227 0423 E8030000 		.4byte	0x3e8
 1228 0427 08       		.byte	0x8
 1229 0428 06       		.uleb128 0x6
 1230 0429 52040000 		.4byte	.LASF75
 1231 042d 0B       		.byte	0xb
 1232 042e B0       		.byte	0xb0
 1233 042f E8030000 		.4byte	0x3e8
 1234 0433 0C       		.byte	0xc
 1235 0434 00       		.byte	0
 1236 0435 04       		.uleb128 0x4
 1237 0436 57010000 		.4byte	.LASF76
 1238 043a 0B       		.byte	0xb
 1239 043b B1       		.byte	0xb1
 1240 043c FD030000 		.4byte	0x3fd
 1241 0440 10       		.uleb128 0x10
 1242 0441 BF000000 		.4byte	0xbf
 1243 0445 50040000 		.4byte	0x450
 1244 0449 11       		.uleb128 0x11
 1245 044a E1030000 		.4byte	0x3e1
 1246 044e 03       		.byte	0x3
 1247 044f 00       		.byte	0
 1248 0450 14       		.uleb128 0x14
 1249 0451 38       		.byte	0x38
 1250 0452 0B       		.byte	0xb
 1251 0453 3D01     		.2byte	0x13d
 1252 0455 0F050000 		.4byte	0x50f
 1253 0459 07       		.uleb128 0x7
 1254 045a 435200   		.ascii	"CR\000"
 1255 045d 0B       		.byte	0xb
 1256 045e 3F01     		.2byte	0x13f
 1257 0460 E8030000 		.4byte	0x3e8
 1258 0464 00       		.byte	0
 1259 0465 08       		.uleb128 0x8
 1260 0466 F5040000 		.4byte	.LASF77
 1261 046a 0B       		.byte	0xb
 1262 046b 4001     		.2byte	0x140
 1263 046d E8030000 		.4byte	0x3e8
 1264 0471 04       		.byte	0x4
 1265 0472 07       		.uleb128 0x7
 1266 0473 43495200 		.ascii	"CIR\000"
 1267 0477 0B       		.byte	0xb
 1268 0478 4101     		.2byte	0x141
 1269 047a E8030000 		.4byte	0x3e8
 1270 047e 08       		.byte	0x8
 1271 047f 08       		.uleb128 0x8
 1272 0480 62000000 		.4byte	.LASF78
 1273 0484 0B       		.byte	0xb
 1274 0485 4201     		.2byte	0x142
 1275 0487 E8030000 		.4byte	0x3e8
 1276 048b 0C       		.byte	0xc
 1277 048c 08       		.uleb128 0x8
 1278 048d A3020000 		.4byte	.LASF79
 1279 0491 0B       		.byte	0xb
ARM GAS  /tmp/cco8gVfz.s 			page 44


 1280 0492 4301     		.2byte	0x143
 1281 0494 E8030000 		.4byte	0x3e8
 1282 0498 10       		.byte	0x10
 1283 0499 08       		.uleb128 0x8
 1284 049a E2020000 		.4byte	.LASF80
 1285 049e 0B       		.byte	0xb
 1286 049f 4401     		.2byte	0x144
 1287 04a1 E8030000 		.4byte	0x3e8
 1288 04a5 14       		.byte	0x14
 1289 04a6 08       		.uleb128 0x8
 1290 04a7 40040000 		.4byte	.LASF81
 1291 04ab 0B       		.byte	0xb
 1292 04ac 4501     		.2byte	0x145
 1293 04ae E8030000 		.4byte	0x3e8
 1294 04b2 18       		.byte	0x18
 1295 04b3 08       		.uleb128 0x8
 1296 04b4 2A000000 		.4byte	.LASF82
 1297 04b8 0B       		.byte	0xb
 1298 04b9 4601     		.2byte	0x146
 1299 04bb E8030000 		.4byte	0x3e8
 1300 04bf 1C       		.byte	0x1c
 1301 04c0 08       		.uleb128 0x8
 1302 04c1 A1000000 		.4byte	.LASF83
 1303 04c5 0B       		.byte	0xb
 1304 04c6 4701     		.2byte	0x147
 1305 04c8 E8030000 		.4byte	0x3e8
 1306 04cc 20       		.byte	0x20
 1307 04cd 07       		.uleb128 0x7
 1308 04ce 43535200 		.ascii	"CSR\000"
 1309 04d2 0B       		.byte	0xb
 1310 04d3 4801     		.2byte	0x148
 1311 04d5 E8030000 		.4byte	0x3e8
 1312 04d9 24       		.byte	0x24
 1313 04da 08       		.uleb128 0x8
 1314 04db A2050000 		.4byte	.LASF84
 1315 04df 0B       		.byte	0xb
 1316 04e0 4901     		.2byte	0x149
 1317 04e2 E8030000 		.4byte	0x3e8
 1318 04e6 28       		.byte	0x28
 1319 04e7 08       		.uleb128 0x8
 1320 04e8 34040000 		.4byte	.LASF85
 1321 04ec 0B       		.byte	0xb
 1322 04ed 4A01     		.2byte	0x14a
 1323 04ef E8030000 		.4byte	0x3e8
 1324 04f3 2C       		.byte	0x2c
 1325 04f4 08       		.uleb128 0x8
 1326 04f5 3A040000 		.4byte	.LASF86
 1327 04f9 0B       		.byte	0xb
 1328 04fa 4B01     		.2byte	0x14b
 1329 04fc E8030000 		.4byte	0x3e8
 1330 0500 30       		.byte	0x30
 1331 0501 07       		.uleb128 0x7
 1332 0502 43523200 		.ascii	"CR2\000"
 1333 0506 0B       		.byte	0xb
 1334 0507 4C01     		.2byte	0x14c
 1335 0509 E8030000 		.4byte	0x3e8
 1336 050d 34       		.byte	0x34
ARM GAS  /tmp/cco8gVfz.s 			page 45


 1337 050e 00       		.byte	0
 1338 050f 15       		.uleb128 0x15
 1339 0510 77020000 		.4byte	.LASF87
 1340 0514 0B       		.byte	0xb
 1341 0515 4D01     		.2byte	0x14d
 1342 0517 50040000 		.4byte	0x450
 1343 051b 04       		.uleb128 0x4
 1344 051c 52000000 		.4byte	.LASF88
 1345 0520 0C       		.byte	0xc
 1346 0521 65       		.byte	0x65
 1347 0522 B7020000 		.4byte	0x2b7
 1348 0526 04       		.uleb128 0x4
 1349 0527 F7050000 		.4byte	.LASF89
 1350 052b 0C       		.byte	0xc
 1351 052c 6D       		.byte	0x6d
 1352 052d CA000000 		.4byte	0xca
 1353 0531 05       		.uleb128 0x5
 1354 0532 56030000 		.4byte	.LASF90
 1355 0536 04       		.byte	0x4
 1356 0537 0C       		.byte	0xc
 1357 0538 89       		.byte	0x89
 1358 0539 4A050000 		.4byte	0x54a
 1359 053d 13       		.uleb128 0x13
 1360 053e 72313300 		.ascii	"r13\000"
 1361 0542 0C       		.byte	0xc
 1362 0543 8A       		.byte	0x8a
 1363 0544 BC050000 		.4byte	0x5bc
 1364 0548 00       		.byte	0
 1365 0549 00       		.byte	0
 1366 054a 05       		.uleb128 0x5
 1367 054b B0040000 		.4byte	.LASF91
 1368 054f 24       		.byte	0x24
 1369 0550 01       		.byte	0x1
 1370 0551 A4       		.byte	0xa4
 1371 0552 BC050000 		.4byte	0x5bc
 1372 0556 13       		.uleb128 0x13
 1373 0557 723800   		.ascii	"r8\000"
 1374 055a 01       		.byte	0x1
 1375 055b A5       		.byte	0xa5
 1376 055c 1B050000 		.4byte	0x51b
 1377 0560 00       		.byte	0
 1378 0561 13       		.uleb128 0x13
 1379 0562 723900   		.ascii	"r9\000"
 1380 0565 01       		.byte	0x1
 1381 0566 A6       		.byte	0xa6
 1382 0567 1B050000 		.4byte	0x51b
 1383 056b 04       		.byte	0x4
 1384 056c 13       		.uleb128 0x13
 1385 056d 72313000 		.ascii	"r10\000"
 1386 0571 01       		.byte	0x1
 1387 0572 A7       		.byte	0xa7
 1388 0573 1B050000 		.4byte	0x51b
 1389 0577 08       		.byte	0x8
 1390 0578 13       		.uleb128 0x13
 1391 0579 72313100 		.ascii	"r11\000"
 1392 057d 01       		.byte	0x1
 1393 057e A8       		.byte	0xa8
ARM GAS  /tmp/cco8gVfz.s 			page 46


 1394 057f 1B050000 		.4byte	0x51b
 1395 0583 0C       		.byte	0xc
 1396 0584 13       		.uleb128 0x13
 1397 0585 723400   		.ascii	"r4\000"
 1398 0588 01       		.byte	0x1
 1399 0589 A9       		.byte	0xa9
 1400 058a 1B050000 		.4byte	0x51b
 1401 058e 10       		.byte	0x10
 1402 058f 13       		.uleb128 0x13
 1403 0590 723500   		.ascii	"r5\000"
 1404 0593 01       		.byte	0x1
 1405 0594 AA       		.byte	0xaa
 1406 0595 1B050000 		.4byte	0x51b
 1407 0599 14       		.byte	0x14
 1408 059a 13       		.uleb128 0x13
 1409 059b 723600   		.ascii	"r6\000"
 1410 059e 01       		.byte	0x1
 1411 059f AB       		.byte	0xab
 1412 05a0 1B050000 		.4byte	0x51b
 1413 05a4 18       		.byte	0x18
 1414 05a5 13       		.uleb128 0x13
 1415 05a6 723700   		.ascii	"r7\000"
 1416 05a9 01       		.byte	0x1
 1417 05aa AC       		.byte	0xac
 1418 05ab 1B050000 		.4byte	0x51b
 1419 05af 1C       		.byte	0x1c
 1420 05b0 13       		.uleb128 0x13
 1421 05b1 6C7200   		.ascii	"lr\000"
 1422 05b4 01       		.byte	0x1
 1423 05b5 AD       		.byte	0xad
 1424 05b6 1B050000 		.4byte	0x51b
 1425 05ba 20       		.byte	0x20
 1426 05bb 00       		.byte	0
 1427 05bc 09       		.uleb128 0x9
 1428 05bd 04       		.byte	0x4
 1429 05be 4A050000 		.4byte	0x54a
 1430 05c2 14       		.uleb128 0x14
 1431 05c3 60       		.byte	0x60
 1432 05c4 0D       		.byte	0xd
 1433 05c5 A101     		.2byte	0x1a1
 1434 05c7 CE060000 		.4byte	0x6ce
 1435 05cb 07       		.uleb128 0x7
 1436 05cc 43523100 		.ascii	"CR1\000"
 1437 05d0 0D       		.byte	0xd
 1438 05d1 A201     		.2byte	0x1a2
 1439 05d3 E8030000 		.4byte	0x3e8
 1440 05d7 00       		.byte	0
 1441 05d8 07       		.uleb128 0x7
 1442 05d9 43523200 		.ascii	"CR2\000"
 1443 05dd 0D       		.byte	0xd
 1444 05de A301     		.2byte	0x1a3
 1445 05e0 E8030000 		.4byte	0x3e8
 1446 05e4 04       		.byte	0x4
 1447 05e5 08       		.uleb128 0x8
 1448 05e6 0B030000 		.4byte	.LASF92
 1449 05ea 0D       		.byte	0xd
 1450 05eb A401     		.2byte	0x1a4
ARM GAS  /tmp/cco8gVfz.s 			page 47


 1451 05ed E8030000 		.4byte	0x3e8
 1452 05f1 08       		.byte	0x8
 1453 05f2 08       		.uleb128 0x8
 1454 05f3 97020000 		.4byte	.LASF93
 1455 05f7 0D       		.byte	0xd
 1456 05f8 A501     		.2byte	0x1a5
 1457 05fa E8030000 		.4byte	0x3e8
 1458 05fe 0C       		.byte	0xc
 1459 05ff 07       		.uleb128 0x7
 1460 0600 535200   		.ascii	"SR\000"
 1461 0603 0D       		.byte	0xd
 1462 0604 A601     		.2byte	0x1a6
 1463 0606 E8030000 		.4byte	0x3e8
 1464 060a 10       		.byte	0x10
 1465 060b 07       		.uleb128 0x7
 1466 060c 45475200 		.ascii	"EGR\000"
 1467 0610 0D       		.byte	0xd
 1468 0611 A701     		.2byte	0x1a7
 1469 0613 E8030000 		.4byte	0x3e8
 1470 0617 14       		.byte	0x14
 1471 0618 08       		.uleb128 0x8
 1472 0619 CE010000 		.4byte	.LASF94
 1473 061d 0D       		.byte	0xd
 1474 061e A801     		.2byte	0x1a8
 1475 0620 E8030000 		.4byte	0x3e8
 1476 0624 18       		.byte	0x18
 1477 0625 08       		.uleb128 0x8
 1478 0626 D4010000 		.4byte	.LASF95
 1479 062a 0D       		.byte	0xd
 1480 062b A901     		.2byte	0x1a9
 1481 062d E8030000 		.4byte	0x3e8
 1482 0631 1C       		.byte	0x1c
 1483 0632 08       		.uleb128 0x8
 1484 0633 AC020000 		.4byte	.LASF96
 1485 0637 0D       		.byte	0xd
 1486 0638 AA01     		.2byte	0x1aa
 1487 063a E8030000 		.4byte	0x3e8
 1488 063e 20       		.byte	0x20
 1489 063f 07       		.uleb128 0x7
 1490 0640 434E5400 		.ascii	"CNT\000"
 1491 0644 0D       		.byte	0xd
 1492 0645 AB01     		.2byte	0x1ab
 1493 0647 E8030000 		.4byte	0x3e8
 1494 064b 24       		.byte	0x24
 1495 064c 07       		.uleb128 0x7
 1496 064d 50534300 		.ascii	"PSC\000"
 1497 0651 0D       		.byte	0xd
 1498 0652 AC01     		.2byte	0x1ac
 1499 0654 E8030000 		.4byte	0x3e8
 1500 0658 28       		.byte	0x28
 1501 0659 07       		.uleb128 0x7
 1502 065a 41525200 		.ascii	"ARR\000"
 1503 065e 0D       		.byte	0xd
 1504 065f AD01     		.2byte	0x1ad
 1505 0661 E8030000 		.4byte	0x3e8
 1506 0665 2C       		.byte	0x2c
 1507 0666 07       		.uleb128 0x7
ARM GAS  /tmp/cco8gVfz.s 			page 48


 1508 0667 52435200 		.ascii	"RCR\000"
 1509 066b 0D       		.byte	0xd
 1510 066c AE01     		.2byte	0x1ae
 1511 066e E8030000 		.4byte	0x3e8
 1512 0672 30       		.byte	0x30
 1513 0673 07       		.uleb128 0x7
 1514 0674 43435200 		.ascii	"CCR\000"
 1515 0678 0D       		.byte	0xd
 1516 0679 AF01     		.2byte	0x1af
 1517 067b CE060000 		.4byte	0x6ce
 1518 067f 34       		.byte	0x34
 1519 0680 08       		.uleb128 0x8
 1520 0681 9C010000 		.4byte	.LASF97
 1521 0685 0D       		.byte	0xd
 1522 0686 B001     		.2byte	0x1b0
 1523 0688 E8030000 		.4byte	0x3e8
 1524 068c 44       		.byte	0x44
 1525 068d 07       		.uleb128 0x7
 1526 068e 44435200 		.ascii	"DCR\000"
 1527 0692 0D       		.byte	0xd
 1528 0693 B101     		.2byte	0x1b1
 1529 0695 E8030000 		.4byte	0x3e8
 1530 0699 48       		.byte	0x48
 1531 069a 08       		.uleb128 0x8
 1532 069b 52010000 		.4byte	.LASF98
 1533 069f 0D       		.byte	0xd
 1534 06a0 B201     		.2byte	0x1b2
 1535 06a2 E8030000 		.4byte	0x3e8
 1536 06a6 4C       		.byte	0x4c
 1537 06a7 07       		.uleb128 0x7
 1538 06a8 4F5200   		.ascii	"OR\000"
 1539 06ab 0D       		.byte	0xd
 1540 06ac B301     		.2byte	0x1b3
 1541 06ae E8030000 		.4byte	0x3e8
 1542 06b2 50       		.byte	0x50
 1543 06b3 08       		.uleb128 0x8
 1544 06b4 DA010000 		.4byte	.LASF99
 1545 06b8 0D       		.byte	0xd
 1546 06b9 B401     		.2byte	0x1b4
 1547 06bb E8030000 		.4byte	0x3e8
 1548 06bf 54       		.byte	0x54
 1549 06c0 08       		.uleb128 0x8
 1550 06c1 7B040000 		.4byte	.LASF100
 1551 06c5 0D       		.byte	0xd
 1552 06c6 B501     		.2byte	0x1b5
 1553 06c8 D3060000 		.4byte	0x6d3
 1554 06cc 58       		.byte	0x58
 1555 06cd 00       		.byte	0
 1556 06ce 0F       		.uleb128 0xf
 1557 06cf 40040000 		.4byte	0x440
 1558 06d3 0F       		.uleb128 0xf
 1559 06d4 ED030000 		.4byte	0x3ed
 1560 06d8 15       		.uleb128 0x15
 1561 06d9 6B020000 		.4byte	.LASF101
 1562 06dd 0D       		.byte	0xd
 1563 06de B601     		.2byte	0x1b6
 1564 06e0 C2050000 		.4byte	0x5c2
ARM GAS  /tmp/cco8gVfz.s 			page 49


 1565 06e4 16       		.uleb128 0x16
 1566 06e5 04       		.byte	0x4
 1567 06e6 0A       		.byte	0xa
 1568 06e7 FA       		.byte	0xfa
 1569 06e8 35070000 		.4byte	0x735
 1570 06ec 17       		.uleb128 0x17
 1571 06ed 43020000 		.4byte	.LASF102
 1572 06f1 0A       		.byte	0xa
 1573 06f2 0101     		.2byte	0x101
 1574 06f4 F6000000 		.4byte	0xf6
 1575 06f8 17       		.uleb128 0x17
 1576 06f9 28060000 		.4byte	.LASF103
 1577 06fd 0A       		.byte	0xa
 1578 06fe 0801     		.2byte	0x108
 1579 0700 F6000000 		.4byte	0xf6
 1580 0704 17       		.uleb128 0x17
 1581 0705 E8000000 		.4byte	.LASF104
 1582 0709 0A       		.byte	0xa
 1583 070a 0F01     		.2byte	0x10f
 1584 070c B7020000 		.4byte	0x2b7
 1585 0710 17       		.uleb128 0x17
 1586 0711 C5050000 		.4byte	.LASF105
 1587 0715 0A       		.byte	0xa
 1588 0716 1601     		.2byte	0x116
 1589 0718 35070000 		.4byte	0x735
 1590 071c 17       		.uleb128 0x17
 1591 071d BE050000 		.4byte	.LASF106
 1592 0721 0A       		.byte	0xa
 1593 0722 1E01     		.2byte	0x11e
 1594 0724 60070000 		.4byte	0x760
 1595 0728 17       		.uleb128 0x17
 1596 0729 32000000 		.4byte	.LASF107
 1597 072d 0A       		.byte	0xa
 1598 072e 2701     		.2byte	0x127
 1599 0730 97070000 		.4byte	0x797
 1600 0734 00       		.byte	0
 1601 0735 09       		.uleb128 0x9
 1602 0736 04       		.byte	0x4
 1603 0737 CF010000 		.4byte	0x1cf
 1604 073b 05       		.uleb128 0x5
 1605 073c A8010000 		.4byte	.LASF108
 1606 0740 0C       		.byte	0xc
 1607 0741 0E       		.byte	0xe
 1608 0742 34       		.byte	0x34
 1609 0743 60070000 		.4byte	0x760
 1610 0747 06       		.uleb128 0x6
 1611 0748 7D000000 		.4byte	.LASF109
 1612 074c 0E       		.byte	0xe
 1613 074d 35       		.byte	0x35
 1614 074e 04020000 		.4byte	0x204
 1615 0752 00       		.byte	0
 1616 0753 06       		.uleb128 0x6
 1617 0754 6F010000 		.4byte	.LASF110
 1618 0758 0E       		.byte	0xe
 1619 0759 37       		.byte	0x37
 1620 075a 01010000 		.4byte	0x101
 1621 075e 08       		.byte	0x8
ARM GAS  /tmp/cco8gVfz.s 			page 50


 1622 075f 00       		.byte	0
 1623 0760 09       		.uleb128 0x9
 1624 0761 04       		.byte	0x4
 1625 0762 3B070000 		.4byte	0x73b
 1626 0766 05       		.uleb128 0x5
 1627 0767 83020000 		.4byte	.LASF111
 1628 076b 10       		.byte	0x10
 1629 076c 0F       		.byte	0xf
 1630 076d 39       		.byte	0x39
 1631 076e 97070000 		.4byte	0x797
 1632 0772 06       		.uleb128 0x6
 1633 0773 9F040000 		.4byte	.LASF112
 1634 0777 0F       		.byte	0xf
 1635 0778 3A       		.byte	0x3a
 1636 0779 04020000 		.4byte	0x204
 1637 077d 00       		.byte	0
 1638 077e 06       		.uleb128 0x6
 1639 077f 75000000 		.4byte	.LASF113
 1640 0783 0F       		.byte	0xf
 1641 0784 3C       		.byte	0x3c
 1642 0785 DA010000 		.4byte	0x1da
 1643 0789 08       		.byte	0x8
 1644 078a 06       		.uleb128 0x6
 1645 078b CB050000 		.4byte	.LASF114
 1646 078f 0F       		.byte	0xf
 1647 0790 3E       		.byte	0x3e
 1648 0791 D5070000 		.4byte	0x7d5
 1649 0795 0C       		.byte	0xc
 1650 0796 00       		.byte	0
 1651 0797 09       		.uleb128 0x9
 1652 0798 04       		.byte	0x4
 1653 0799 66070000 		.4byte	0x766
 1654 079d 09       		.uleb128 0x9
 1655 079e 04       		.byte	0x4
 1656 079f A3070000 		.4byte	0x7a3
 1657 07a3 18       		.uleb128 0x18
 1658 07a4 A8070000 		.4byte	0x7a8
 1659 07a8 03       		.uleb128 0x3
 1660 07a9 01       		.byte	0x1
 1661 07aa 08       		.byte	0x8
 1662 07ab 4D000000 		.4byte	.LASF115
 1663 07af 09       		.uleb128 0x9
 1664 07b0 04       		.byte	0x4
 1665 07b1 B9020000 		.4byte	0x2b9
 1666 07b5 0F       		.uleb128 0xf
 1667 07b6 9D070000 		.4byte	0x79d
 1668 07ba 10       		.uleb128 0x10
 1669 07bb 26050000 		.4byte	0x526
 1670 07bf CA070000 		.4byte	0x7ca
 1671 07c3 11       		.uleb128 0x11
 1672 07c4 E1030000 		.4byte	0x3e1
 1673 07c8 18       		.byte	0x18
 1674 07c9 00       		.byte	0
 1675 07ca 04       		.uleb128 0x4
 1676 07cb 56050000 		.4byte	.LASF116
 1677 07cf 0F       		.byte	0xf
 1678 07d0 34       		.byte	0x34
ARM GAS  /tmp/cco8gVfz.s 			page 51


 1679 07d1 66070000 		.4byte	0x766
 1680 07d5 09       		.uleb128 0x9
 1681 07d6 04       		.byte	0x4
 1682 07d7 CA070000 		.4byte	0x7ca
 1683 07db 03       		.uleb128 0x3
 1684 07dc 01       		.byte	0x1
 1685 07dd 02       		.byte	0x2
 1686 07de 59040000 		.4byte	.LASF117
 1687 07e2 19       		.uleb128 0x19
 1688 07e3 5D020000 		.4byte	.LASF118
 1689 07e7 02       		.byte	0x2
 1690 07e8 5601     		.2byte	0x156
 1691 07ea 03       		.byte	0x3
 1692 07eb 19       		.uleb128 0x19
 1693 07ec BC040000 		.4byte	.LASF119
 1694 07f0 02       		.byte	0x2
 1695 07f1 4B01     		.2byte	0x14b
 1696 07f3 03       		.byte	0x3
 1697 07f4 1A       		.uleb128 0x1a
 1698 07f5 EF000000 		.4byte	.LASF120
 1699 07f9 01       		.byte	0x1
 1700 07fa 4A01     		.2byte	0x14a
 1701 07fc 00000000 		.4byte	.LFB38
 1702 0800 04000000 		.4byte	.LFE38-.LFB38
 1703 0804 01       		.uleb128 0x1
 1704 0805 9C       		.byte	0x9c
 1705 0806 1B080000 		.4byte	0x81b
 1706 080a 1B       		.uleb128 0x1b
 1707 080b E2070000 		.4byte	0x7e2
 1708 080f 00000000 		.4byte	.LBB6
 1709 0813 02000000 		.4byte	.LBE6-.LBB6
 1710 0817 01       		.byte	0x1
 1711 0818 4C01     		.2byte	0x14c
 1712 081a 00       		.byte	0
 1713 081b 1A       		.uleb128 0x1a
 1714 081c 0A060000 		.4byte	.LASF121
 1715 0820 01       		.byte	0x1
 1716 0821 5301     		.2byte	0x153
 1717 0823 00000000 		.4byte	.LFB39
 1718 0827 04000000 		.4byte	.LFE39-.LFB39
 1719 082b 01       		.uleb128 0x1
 1720 082c 9C       		.byte	0x9c
 1721 082d 42080000 		.4byte	0x842
 1722 0831 1B       		.uleb128 0x1b
 1723 0832 EB070000 		.4byte	0x7eb
 1724 0836 00000000 		.4byte	.LBB8
 1725 083a 02000000 		.4byte	.LBE8-.LBB8
 1726 083e 01       		.byte	0x1
 1727 083f 5501     		.2byte	0x155
 1728 0841 00       		.byte	0
 1729 0842 1C       		.uleb128 0x1c
 1730 0843 00010000 		.4byte	.LASF122
 1731 0847 01       		.byte	0x1
 1732 0848 5D01     		.2byte	0x15d
 1733 084a 00000000 		.4byte	.LFB40
 1734 084e 08000000 		.4byte	.LFE40-.LFB40
 1735 0852 01       		.uleb128 0x1
ARM GAS  /tmp/cco8gVfz.s 			page 52


 1736 0853 9C       		.byte	0x9c
 1737 0854 1C       		.uleb128 0x1c
 1738 0855 5E050000 		.4byte	.LASF123
 1739 0859 01       		.byte	0x1
 1740 085a 6701     		.2byte	0x167
 1741 085c 00000000 		.4byte	.LFB41
 1742 0860 08000000 		.4byte	.LFE41-.LFB41
 1743 0864 01       		.uleb128 0x1
 1744 0865 9C       		.byte	0x9c
 1745 0866 1C       		.uleb128 0x1c
 1746 0867 41010000 		.4byte	.LASF124
 1747 086b 03       		.byte	0x3
 1748 086c 8201     		.2byte	0x182
 1749 086e 00000000 		.4byte	.LFB72
 1750 0872 08000000 		.4byte	.LFE72-.LFB72
 1751 0876 01       		.uleb128 0x1
 1752 0877 9C       		.byte	0x9c
 1753 0878 1C       		.uleb128 0x1c
 1754 0879 30020000 		.4byte	.LASF125
 1755 087d 03       		.byte	0x3
 1756 087e 9601     		.2byte	0x196
 1757 0880 00000000 		.4byte	.LFB73
 1758 0884 08000000 		.4byte	.LFE73-.LFB73
 1759 0888 01       		.uleb128 0x1
 1760 0889 9C       		.byte	0x9c
 1761 088a 1C       		.uleb128 0x1c
 1762 088b 4A020000 		.4byte	.LASF126
 1763 088f 04       		.byte	0x4
 1764 0890 0102     		.2byte	0x201
 1765 0892 00000000 		.4byte	.LFB125
 1766 0896 08000000 		.4byte	.LFE125-.LFB125
 1767 089a 01       		.uleb128 0x1
 1768 089b 9C       		.byte	0x9c
 1769 089c 1C       		.uleb128 0x1c
 1770 089d 00050000 		.4byte	.LASF127
 1771 08a1 04       		.byte	0x4
 1772 08a2 0C02     		.2byte	0x20c
 1773 08a4 00000000 		.4byte	.LFB126
 1774 08a8 08000000 		.4byte	.LFE126-.LFB126
 1775 08ac 01       		.uleb128 0x1
 1776 08ad 9C       		.byte	0x9c
 1777 08ae 1C       		.uleb128 0x1c
 1778 08af 39000000 		.4byte	.LASF128
 1779 08b3 04       		.byte	0x4
 1780 08b4 4702     		.2byte	0x247
 1781 08b6 00000000 		.4byte	.LFB129
 1782 08ba 08000000 		.4byte	.LFE129-.LFB129
 1783 08be 01       		.uleb128 0x1
 1784 08bf 9C       		.byte	0x9c
 1785 08c0 1D       		.uleb128 0x1d
 1786 08c1 4D030000 		.4byte	.LASF131
 1787 08c5 05       		.byte	0x5
 1788 08c6 EF       		.byte	0xef
 1789 08c7 00000000 		.4byte	.LFB149
 1790 08cb 34000000 		.4byte	.LFE149-.LFB149
 1791 08cf 01       		.uleb128 0x1
 1792 08d0 9C       		.byte	0x9c
ARM GAS  /tmp/cco8gVfz.s 			page 53


 1793 08d1 E4080000 		.4byte	0x8e4
 1794 08d5 1E       		.uleb128 0x1e
 1795 08d6 1E060000 		.4byte	.LASF132
 1796 08da 05       		.byte	0x5
 1797 08db F1       		.byte	0xf1
 1798 08dc 1B050000 		.4byte	0x51b
 1799 08e0 02       		.uleb128 0x2
 1800 08e1 91       		.byte	0x91
 1801 08e2 74       		.sleb128 -12
 1802 08e3 00       		.byte	0
 1803 08e4 1F       		.uleb128 0x1f
 1804 08e5 D3040000 		.4byte	.LASF133
 1805 08e9 05       		.byte	0x5
 1806 08ea 0B01     		.2byte	0x10b
 1807 08ec 00000000 		.4byte	.LFB150
 1808 08f0 68000000 		.4byte	.LFE150-.LFB150
 1809 08f4 01       		.uleb128 0x1
 1810 08f5 9C       		.byte	0x9c
 1811 08f6 20       		.uleb128 0x20
 1812 08f7 636800   		.ascii	"ch\000"
 1813 08fa 0A       		.byte	0xa
 1814 08fb 0902     		.2byte	0x209
 1815 08fd 86030000 		.4byte	0x386
 1816 0901 00       		.byte	0
 1817              		.section	.debug_abbrev,"",%progbits
 1818              	.Ldebug_abbrev0:
 1819 0000 01       		.uleb128 0x1
 1820 0001 11       		.uleb128 0x11
 1821 0002 01       		.byte	0x1
 1822 0003 25       		.uleb128 0x25
 1823 0004 0E       		.uleb128 0xe
 1824 0005 13       		.uleb128 0x13
 1825 0006 0B       		.uleb128 0xb
 1826 0007 03       		.uleb128 0x3
 1827 0008 0E       		.uleb128 0xe
 1828 0009 55       		.uleb128 0x55
 1829 000a 17       		.uleb128 0x17
 1830 000b 11       		.uleb128 0x11
 1831 000c 01       		.uleb128 0x1
 1832 000d 10       		.uleb128 0x10
 1833 000e 17       		.uleb128 0x17
 1834 000f 00       		.byte	0
 1835 0010 00       		.byte	0
 1836 0011 02       		.uleb128 0x2
 1837 0012 24       		.uleb128 0x24
 1838 0013 00       		.byte	0
 1839 0014 0B       		.uleb128 0xb
 1840 0015 0B       		.uleb128 0xb
 1841 0016 3E       		.uleb128 0x3e
 1842 0017 0B       		.uleb128 0xb
 1843 0018 03       		.uleb128 0x3
 1844 0019 08       		.uleb128 0x8
 1845 001a 00       		.byte	0
 1846 001b 00       		.byte	0
 1847 001c 03       		.uleb128 0x3
 1848 001d 24       		.uleb128 0x24
 1849 001e 00       		.byte	0
ARM GAS  /tmp/cco8gVfz.s 			page 54


 1850 001f 0B       		.uleb128 0xb
 1851 0020 0B       		.uleb128 0xb
 1852 0021 3E       		.uleb128 0x3e
 1853 0022 0B       		.uleb128 0xb
 1854 0023 03       		.uleb128 0x3
 1855 0024 0E       		.uleb128 0xe
 1856 0025 00       		.byte	0
 1857 0026 00       		.byte	0
 1858 0027 04       		.uleb128 0x4
 1859 0028 16       		.uleb128 0x16
 1860 0029 00       		.byte	0
 1861 002a 03       		.uleb128 0x3
 1862 002b 0E       		.uleb128 0xe
 1863 002c 3A       		.uleb128 0x3a
 1864 002d 0B       		.uleb128 0xb
 1865 002e 3B       		.uleb128 0x3b
 1866 002f 0B       		.uleb128 0xb
 1867 0030 49       		.uleb128 0x49
 1868 0031 13       		.uleb128 0x13
 1869 0032 00       		.byte	0
 1870 0033 00       		.byte	0
 1871 0034 05       		.uleb128 0x5
 1872 0035 13       		.uleb128 0x13
 1873 0036 01       		.byte	0x1
 1874 0037 03       		.uleb128 0x3
 1875 0038 0E       		.uleb128 0xe
 1876 0039 0B       		.uleb128 0xb
 1877 003a 0B       		.uleb128 0xb
 1878 003b 3A       		.uleb128 0x3a
 1879 003c 0B       		.uleb128 0xb
 1880 003d 3B       		.uleb128 0x3b
 1881 003e 0B       		.uleb128 0xb
 1882 003f 01       		.uleb128 0x1
 1883 0040 13       		.uleb128 0x13
 1884 0041 00       		.byte	0
 1885 0042 00       		.byte	0
 1886 0043 06       		.uleb128 0x6
 1887 0044 0D       		.uleb128 0xd
 1888 0045 00       		.byte	0
 1889 0046 03       		.uleb128 0x3
 1890 0047 0E       		.uleb128 0xe
 1891 0048 3A       		.uleb128 0x3a
 1892 0049 0B       		.uleb128 0xb
 1893 004a 3B       		.uleb128 0x3b
 1894 004b 0B       		.uleb128 0xb
 1895 004c 49       		.uleb128 0x49
 1896 004d 13       		.uleb128 0x13
 1897 004e 38       		.uleb128 0x38
 1898 004f 0B       		.uleb128 0xb
 1899 0050 00       		.byte	0
 1900 0051 00       		.byte	0
 1901 0052 07       		.uleb128 0x7
 1902 0053 0D       		.uleb128 0xd
 1903 0054 00       		.byte	0
 1904 0055 03       		.uleb128 0x3
 1905 0056 08       		.uleb128 0x8
 1906 0057 3A       		.uleb128 0x3a
ARM GAS  /tmp/cco8gVfz.s 			page 55


 1907 0058 0B       		.uleb128 0xb
 1908 0059 3B       		.uleb128 0x3b
 1909 005a 05       		.uleb128 0x5
 1910 005b 49       		.uleb128 0x49
 1911 005c 13       		.uleb128 0x13
 1912 005d 38       		.uleb128 0x38
 1913 005e 0B       		.uleb128 0xb
 1914 005f 00       		.byte	0
 1915 0060 00       		.byte	0
 1916 0061 08       		.uleb128 0x8
 1917 0062 0D       		.uleb128 0xd
 1918 0063 00       		.byte	0
 1919 0064 03       		.uleb128 0x3
 1920 0065 0E       		.uleb128 0xe
 1921 0066 3A       		.uleb128 0x3a
 1922 0067 0B       		.uleb128 0xb
 1923 0068 3B       		.uleb128 0x3b
 1924 0069 05       		.uleb128 0x5
 1925 006a 49       		.uleb128 0x49
 1926 006b 13       		.uleb128 0x13
 1927 006c 38       		.uleb128 0x38
 1928 006d 0B       		.uleb128 0xb
 1929 006e 00       		.byte	0
 1930 006f 00       		.byte	0
 1931 0070 09       		.uleb128 0x9
 1932 0071 0F       		.uleb128 0xf
 1933 0072 00       		.byte	0
 1934 0073 0B       		.uleb128 0xb
 1935 0074 0B       		.uleb128 0xb
 1936 0075 49       		.uleb128 0x49
 1937 0076 13       		.uleb128 0x13
 1938 0077 00       		.byte	0
 1939 0078 00       		.byte	0
 1940 0079 0A       		.uleb128 0xa
 1941 007a 13       		.uleb128 0x13
 1942 007b 01       		.byte	0x1
 1943 007c 03       		.uleb128 0x3
 1944 007d 0E       		.uleb128 0xe
 1945 007e 0B       		.uleb128 0xb
 1946 007f 0B       		.uleb128 0xb
 1947 0080 3A       		.uleb128 0x3a
 1948 0081 0B       		.uleb128 0xb
 1949 0082 3B       		.uleb128 0x3b
 1950 0083 05       		.uleb128 0x5
 1951 0084 01       		.uleb128 0x1
 1952 0085 13       		.uleb128 0x13
 1953 0086 00       		.byte	0
 1954 0087 00       		.byte	0
 1955 0088 0B       		.uleb128 0xb
 1956 0089 15       		.uleb128 0x15
 1957 008a 01       		.byte	0x1
 1958 008b 27       		.uleb128 0x27
 1959 008c 19       		.uleb128 0x19
 1960 008d 01       		.uleb128 0x1
 1961 008e 13       		.uleb128 0x13
 1962 008f 00       		.byte	0
 1963 0090 00       		.byte	0
ARM GAS  /tmp/cco8gVfz.s 			page 56


 1964 0091 0C       		.uleb128 0xc
 1965 0092 05       		.uleb128 0x5
 1966 0093 00       		.byte	0
 1967 0094 49       		.uleb128 0x49
 1968 0095 13       		.uleb128 0x13
 1969 0096 00       		.byte	0
 1970 0097 00       		.byte	0
 1971 0098 0D       		.uleb128 0xd
 1972 0099 0F       		.uleb128 0xf
 1973 009a 00       		.byte	0
 1974 009b 0B       		.uleb128 0xb
 1975 009c 0B       		.uleb128 0xb
 1976 009d 00       		.byte	0
 1977 009e 00       		.byte	0
 1978 009f 0E       		.uleb128 0xe
 1979 00a0 13       		.uleb128 0x13
 1980 00a1 01       		.byte	0x1
 1981 00a2 03       		.uleb128 0x3
 1982 00a3 0E       		.uleb128 0xe
 1983 00a4 0B       		.uleb128 0xb
 1984 00a5 05       		.uleb128 0x5
 1985 00a6 3A       		.uleb128 0x3a
 1986 00a7 0B       		.uleb128 0xb
 1987 00a8 3B       		.uleb128 0x3b
 1988 00a9 05       		.uleb128 0x5
 1989 00aa 01       		.uleb128 0x1
 1990 00ab 13       		.uleb128 0x13
 1991 00ac 00       		.byte	0
 1992 00ad 00       		.byte	0
 1993 00ae 0F       		.uleb128 0xf
 1994 00af 35       		.uleb128 0x35
 1995 00b0 00       		.byte	0
 1996 00b1 49       		.uleb128 0x49
 1997 00b2 13       		.uleb128 0x13
 1998 00b3 00       		.byte	0
 1999 00b4 00       		.byte	0
 2000 00b5 10       		.uleb128 0x10
 2001 00b6 01       		.uleb128 0x1
 2002 00b7 01       		.byte	0x1
 2003 00b8 49       		.uleb128 0x49
 2004 00b9 13       		.uleb128 0x13
 2005 00ba 01       		.uleb128 0x1
 2006 00bb 13       		.uleb128 0x13
 2007 00bc 00       		.byte	0
 2008 00bd 00       		.byte	0
 2009 00be 11       		.uleb128 0x11
 2010 00bf 21       		.uleb128 0x21
 2011 00c0 00       		.byte	0
 2012 00c1 49       		.uleb128 0x49
 2013 00c2 13       		.uleb128 0x13
 2014 00c3 2F       		.uleb128 0x2f
 2015 00c4 0B       		.uleb128 0xb
 2016 00c5 00       		.byte	0
 2017 00c6 00       		.byte	0
 2018 00c7 12       		.uleb128 0x12
 2019 00c8 13       		.uleb128 0x13
 2020 00c9 01       		.byte	0x1
ARM GAS  /tmp/cco8gVfz.s 			page 57


 2021 00ca 0B       		.uleb128 0xb
 2022 00cb 0B       		.uleb128 0xb
 2023 00cc 3A       		.uleb128 0x3a
 2024 00cd 0B       		.uleb128 0xb
 2025 00ce 3B       		.uleb128 0x3b
 2026 00cf 0B       		.uleb128 0xb
 2027 00d0 01       		.uleb128 0x1
 2028 00d1 13       		.uleb128 0x13
 2029 00d2 00       		.byte	0
 2030 00d3 00       		.byte	0
 2031 00d4 13       		.uleb128 0x13
 2032 00d5 0D       		.uleb128 0xd
 2033 00d6 00       		.byte	0
 2034 00d7 03       		.uleb128 0x3
 2035 00d8 08       		.uleb128 0x8
 2036 00d9 3A       		.uleb128 0x3a
 2037 00da 0B       		.uleb128 0xb
 2038 00db 3B       		.uleb128 0x3b
 2039 00dc 0B       		.uleb128 0xb
 2040 00dd 49       		.uleb128 0x49
 2041 00de 13       		.uleb128 0x13
 2042 00df 38       		.uleb128 0x38
 2043 00e0 0B       		.uleb128 0xb
 2044 00e1 00       		.byte	0
 2045 00e2 00       		.byte	0
 2046 00e3 14       		.uleb128 0x14
 2047 00e4 13       		.uleb128 0x13
 2048 00e5 01       		.byte	0x1
 2049 00e6 0B       		.uleb128 0xb
 2050 00e7 0B       		.uleb128 0xb
 2051 00e8 3A       		.uleb128 0x3a
 2052 00e9 0B       		.uleb128 0xb
 2053 00ea 3B       		.uleb128 0x3b
 2054 00eb 05       		.uleb128 0x5
 2055 00ec 01       		.uleb128 0x1
 2056 00ed 13       		.uleb128 0x13
 2057 00ee 00       		.byte	0
 2058 00ef 00       		.byte	0
 2059 00f0 15       		.uleb128 0x15
 2060 00f1 16       		.uleb128 0x16
 2061 00f2 00       		.byte	0
 2062 00f3 03       		.uleb128 0x3
 2063 00f4 0E       		.uleb128 0xe
 2064 00f5 3A       		.uleb128 0x3a
 2065 00f6 0B       		.uleb128 0xb
 2066 00f7 3B       		.uleb128 0x3b
 2067 00f8 05       		.uleb128 0x5
 2068 00f9 49       		.uleb128 0x49
 2069 00fa 13       		.uleb128 0x13
 2070 00fb 00       		.byte	0
 2071 00fc 00       		.byte	0
 2072 00fd 16       		.uleb128 0x16
 2073 00fe 17       		.uleb128 0x17
 2074 00ff 01       		.byte	0x1
 2075 0100 0B       		.uleb128 0xb
 2076 0101 0B       		.uleb128 0xb
 2077 0102 3A       		.uleb128 0x3a
ARM GAS  /tmp/cco8gVfz.s 			page 58


 2078 0103 0B       		.uleb128 0xb
 2079 0104 3B       		.uleb128 0x3b
 2080 0105 0B       		.uleb128 0xb
 2081 0106 01       		.uleb128 0x1
 2082 0107 13       		.uleb128 0x13
 2083 0108 00       		.byte	0
 2084 0109 00       		.byte	0
 2085 010a 17       		.uleb128 0x17
 2086 010b 0D       		.uleb128 0xd
 2087 010c 00       		.byte	0
 2088 010d 03       		.uleb128 0x3
 2089 010e 0E       		.uleb128 0xe
 2090 010f 3A       		.uleb128 0x3a
 2091 0110 0B       		.uleb128 0xb
 2092 0111 3B       		.uleb128 0x3b
 2093 0112 05       		.uleb128 0x5
 2094 0113 49       		.uleb128 0x49
 2095 0114 13       		.uleb128 0x13
 2096 0115 00       		.byte	0
 2097 0116 00       		.byte	0
 2098 0117 18       		.uleb128 0x18
 2099 0118 26       		.uleb128 0x26
 2100 0119 00       		.byte	0
 2101 011a 49       		.uleb128 0x49
 2102 011b 13       		.uleb128 0x13
 2103 011c 00       		.byte	0
 2104 011d 00       		.byte	0
 2105 011e 19       		.uleb128 0x19
 2106 011f 2E       		.uleb128 0x2e
 2107 0120 00       		.byte	0
 2108 0121 03       		.uleb128 0x3
 2109 0122 0E       		.uleb128 0xe
 2110 0123 3A       		.uleb128 0x3a
 2111 0124 0B       		.uleb128 0xb
 2112 0125 3B       		.uleb128 0x3b
 2113 0126 05       		.uleb128 0x5
 2114 0127 27       		.uleb128 0x27
 2115 0128 19       		.uleb128 0x19
 2116 0129 20       		.uleb128 0x20
 2117 012a 0B       		.uleb128 0xb
 2118 012b 00       		.byte	0
 2119 012c 00       		.byte	0
 2120 012d 1A       		.uleb128 0x1a
 2121 012e 2E       		.uleb128 0x2e
 2122 012f 01       		.byte	0x1
 2123 0130 03       		.uleb128 0x3
 2124 0131 0E       		.uleb128 0xe
 2125 0132 3A       		.uleb128 0x3a
 2126 0133 0B       		.uleb128 0xb
 2127 0134 3B       		.uleb128 0x3b
 2128 0135 05       		.uleb128 0x5
 2129 0136 27       		.uleb128 0x27
 2130 0137 19       		.uleb128 0x19
 2131 0138 11       		.uleb128 0x11
 2132 0139 01       		.uleb128 0x1
 2133 013a 12       		.uleb128 0x12
 2134 013b 06       		.uleb128 0x6
ARM GAS  /tmp/cco8gVfz.s 			page 59


 2135 013c 40       		.uleb128 0x40
 2136 013d 18       		.uleb128 0x18
 2137 013e 9742     		.uleb128 0x2117
 2138 0140 19       		.uleb128 0x19
 2139 0141 01       		.uleb128 0x1
 2140 0142 13       		.uleb128 0x13
 2141 0143 00       		.byte	0
 2142 0144 00       		.byte	0
 2143 0145 1B       		.uleb128 0x1b
 2144 0146 1D       		.uleb128 0x1d
 2145 0147 00       		.byte	0
 2146 0148 31       		.uleb128 0x31
 2147 0149 13       		.uleb128 0x13
 2148 014a 11       		.uleb128 0x11
 2149 014b 01       		.uleb128 0x1
 2150 014c 12       		.uleb128 0x12
 2151 014d 06       		.uleb128 0x6
 2152 014e 58       		.uleb128 0x58
 2153 014f 0B       		.uleb128 0xb
 2154 0150 59       		.uleb128 0x59
 2155 0151 05       		.uleb128 0x5
 2156 0152 00       		.byte	0
 2157 0153 00       		.byte	0
 2158 0154 1C       		.uleb128 0x1c
 2159 0155 2E       		.uleb128 0x2e
 2160 0156 00       		.byte	0
 2161 0157 03       		.uleb128 0x3
 2162 0158 0E       		.uleb128 0xe
 2163 0159 3A       		.uleb128 0x3a
 2164 015a 0B       		.uleb128 0xb
 2165 015b 3B       		.uleb128 0x3b
 2166 015c 05       		.uleb128 0x5
 2167 015d 27       		.uleb128 0x27
 2168 015e 19       		.uleb128 0x19
 2169 015f 11       		.uleb128 0x11
 2170 0160 01       		.uleb128 0x1
 2171 0161 12       		.uleb128 0x12
 2172 0162 06       		.uleb128 0x6
 2173 0163 40       		.uleb128 0x40
 2174 0164 18       		.uleb128 0x18
 2175 0165 9642     		.uleb128 0x2116
 2176 0167 19       		.uleb128 0x19
 2177 0168 00       		.byte	0
 2178 0169 00       		.byte	0
 2179 016a 1D       		.uleb128 0x1d
 2180 016b 2E       		.uleb128 0x2e
 2181 016c 01       		.byte	0x1
 2182 016d 3F       		.uleb128 0x3f
 2183 016e 19       		.uleb128 0x19
 2184 016f 03       		.uleb128 0x3
 2185 0170 0E       		.uleb128 0xe
 2186 0171 3A       		.uleb128 0x3a
 2187 0172 0B       		.uleb128 0xb
 2188 0173 3B       		.uleb128 0x3b
 2189 0174 0B       		.uleb128 0xb
 2190 0175 27       		.uleb128 0x27
 2191 0176 19       		.uleb128 0x19
ARM GAS  /tmp/cco8gVfz.s 			page 60


 2192 0177 11       		.uleb128 0x11
 2193 0178 01       		.uleb128 0x1
 2194 0179 12       		.uleb128 0x12
 2195 017a 06       		.uleb128 0x6
 2196 017b 40       		.uleb128 0x40
 2197 017c 18       		.uleb128 0x18
 2198 017d 9642     		.uleb128 0x2116
 2199 017f 19       		.uleb128 0x19
 2200 0180 01       		.uleb128 0x1
 2201 0181 13       		.uleb128 0x13
 2202 0182 00       		.byte	0
 2203 0183 00       		.byte	0
 2204 0184 1E       		.uleb128 0x1e
 2205 0185 34       		.uleb128 0x34
 2206 0186 00       		.byte	0
 2207 0187 03       		.uleb128 0x3
 2208 0188 0E       		.uleb128 0xe
 2209 0189 3A       		.uleb128 0x3a
 2210 018a 0B       		.uleb128 0xb
 2211 018b 3B       		.uleb128 0x3b
 2212 018c 0B       		.uleb128 0xb
 2213 018d 49       		.uleb128 0x49
 2214 018e 13       		.uleb128 0x13
 2215 018f 02       		.uleb128 0x2
 2216 0190 18       		.uleb128 0x18
 2217 0191 00       		.byte	0
 2218 0192 00       		.byte	0
 2219 0193 1F       		.uleb128 0x1f
 2220 0194 2E       		.uleb128 0x2e
 2221 0195 00       		.byte	0
 2222 0196 3F       		.uleb128 0x3f
 2223 0197 19       		.uleb128 0x19
 2224 0198 03       		.uleb128 0x3
 2225 0199 0E       		.uleb128 0xe
 2226 019a 3A       		.uleb128 0x3a
 2227 019b 0B       		.uleb128 0xb
 2228 019c 3B       		.uleb128 0x3b
 2229 019d 05       		.uleb128 0x5
 2230 019e 27       		.uleb128 0x27
 2231 019f 19       		.uleb128 0x19
 2232 01a0 11       		.uleb128 0x11
 2233 01a1 01       		.uleb128 0x1
 2234 01a2 12       		.uleb128 0x12
 2235 01a3 06       		.uleb128 0x6
 2236 01a4 40       		.uleb128 0x40
 2237 01a5 18       		.uleb128 0x18
 2238 01a6 9642     		.uleb128 0x2116
 2239 01a8 19       		.uleb128 0x19
 2240 01a9 00       		.byte	0
 2241 01aa 00       		.byte	0
 2242 01ab 20       		.uleb128 0x20
 2243 01ac 34       		.uleb128 0x34
 2244 01ad 00       		.byte	0
 2245 01ae 03       		.uleb128 0x3
 2246 01af 08       		.uleb128 0x8
 2247 01b0 3A       		.uleb128 0x3a
 2248 01b1 0B       		.uleb128 0xb
ARM GAS  /tmp/cco8gVfz.s 			page 61


 2249 01b2 3B       		.uleb128 0x3b
 2250 01b3 05       		.uleb128 0x5
 2251 01b4 49       		.uleb128 0x49
 2252 01b5 13       		.uleb128 0x13
 2253 01b6 3F       		.uleb128 0x3f
 2254 01b7 19       		.uleb128 0x19
 2255 01b8 3C       		.uleb128 0x3c
 2256 01b9 19       		.uleb128 0x19
 2257 01ba 00       		.byte	0
 2258 01bb 00       		.byte	0
 2259 01bc 00       		.byte	0
 2260              		.section	.debug_aranges,"",%progbits
 2261 0000 6C000000 		.4byte	0x6c
 2262 0004 0200     		.2byte	0x2
 2263 0006 00000000 		.4byte	.Ldebug_info0
 2264 000a 04       		.byte	0x4
 2265 000b 00       		.byte	0
 2266 000c 0000     		.2byte	0
 2267 000e 0000     		.2byte	0
 2268 0010 00000000 		.4byte	.LFB38
 2269 0014 04000000 		.4byte	.LFE38-.LFB38
 2270 0018 00000000 		.4byte	.LFB39
 2271 001c 04000000 		.4byte	.LFE39-.LFB39
 2272 0020 00000000 		.4byte	.LFB40
 2273 0024 08000000 		.4byte	.LFE40-.LFB40
 2274 0028 00000000 		.4byte	.LFB41
 2275 002c 08000000 		.4byte	.LFE41-.LFB41
 2276 0030 00000000 		.4byte	.LFB72
 2277 0034 08000000 		.4byte	.LFE72-.LFB72
 2278 0038 00000000 		.4byte	.LFB73
 2279 003c 08000000 		.4byte	.LFE73-.LFB73
 2280 0040 00000000 		.4byte	.LFB125
 2281 0044 08000000 		.4byte	.LFE125-.LFB125
 2282 0048 00000000 		.4byte	.LFB126
 2283 004c 08000000 		.4byte	.LFE126-.LFB126
 2284 0050 00000000 		.4byte	.LFB129
 2285 0054 08000000 		.4byte	.LFE129-.LFB129
 2286 0058 00000000 		.4byte	.LFB149
 2287 005c 34000000 		.4byte	.LFE149-.LFB149
 2288 0060 00000000 		.4byte	.LFB150
 2289 0064 68000000 		.4byte	.LFE150-.LFB150
 2290 0068 00000000 		.4byte	0
 2291 006c 00000000 		.4byte	0
 2292              		.section	.debug_ranges,"",%progbits
 2293              	.Ldebug_ranges0:
 2294 0000 00000000 		.4byte	.LFB38
 2295 0004 04000000 		.4byte	.LFE38
 2296 0008 00000000 		.4byte	.LFB39
 2297 000c 04000000 		.4byte	.LFE39
 2298 0010 00000000 		.4byte	.LFB40
 2299 0014 08000000 		.4byte	.LFE40
 2300 0018 00000000 		.4byte	.LFB41
 2301 001c 08000000 		.4byte	.LFE41
 2302 0020 00000000 		.4byte	.LFB72
 2303 0024 08000000 		.4byte	.LFE72
 2304 0028 00000000 		.4byte	.LFB73
 2305 002c 08000000 		.4byte	.LFE73
ARM GAS  /tmp/cco8gVfz.s 			page 62


 2306 0030 00000000 		.4byte	.LFB125
 2307 0034 08000000 		.4byte	.LFE125
 2308 0038 00000000 		.4byte	.LFB126
 2309 003c 08000000 		.4byte	.LFE126
 2310 0040 00000000 		.4byte	.LFB129
 2311 0044 08000000 		.4byte	.LFE129
 2312 0048 00000000 		.4byte	.LFB149
 2313 004c 34000000 		.4byte	.LFE149
 2314 0050 00000000 		.4byte	.LFB150
 2315 0054 68000000 		.4byte	.LFE150
 2316 0058 00000000 		.4byte	0
 2317 005c 00000000 		.4byte	0
 2318              		.section	.debug_line,"",%progbits
 2319              	.Ldebug_line0:
 2320 0000 1D030000 		.section	.debug_str,"MS",%progbits,1
 2320      02002102 
 2320      00000201 
 2320      FB0E0D00 
 2320      01010101 
 2321              	.LASF41:
 2322 0000 63685F74 		.ascii	"ch_threads_list\000"
 2322      68726561 
 2322      64735F6C 
 2322      69737400 
 2323              	.LASF42:
 2324 0010 74687265 		.ascii	"threads_queue_t\000"
 2324      6164735F 
 2324      71756575 
 2324      655F7400 
 2325              	.LASF35:
 2326 0020 705F7761 		.ascii	"p_waiting\000"
 2326      6974696E 
 2326      6700
 2327              	.LASF82:
 2328 002a 41504231 		.ascii	"APB1ENR\000"
 2328      454E5200 
 2329              	.LASF107:
 2330 0032 77746D74 		.ascii	"wtmtxp\000"
 2330      787000
 2331              	.LASF128:
 2332 0039 6F73616C 		.ascii	"osalOsTimerHandlerI\000"
 2332      4F735469 
 2332      6D657248 
 2332      616E646C 
 2332      65724900 
 2333              	.LASF115:
 2334 004d 63686172 		.ascii	"char\000"
 2334      00
 2335              	.LASF88:
 2336 0052 72656761 		.ascii	"regarm_t\000"
 2336      726D5F74 
 2336      00
 2337              	.LASF28:
 2338 005b 705F7072 		.ascii	"p_prio\000"
 2338      696F00
 2339              	.LASF78:
 2340 0062 41504232 		.ascii	"APB2RSTR\000"
ARM GAS  /tmp/cco8gVfz.s 			page 63


 2340      52535452 
 2340      00
 2341              	.LASF24:
 2342 006b 73797374 		.ascii	"systime_t\000"
 2342      696D655F 
 2342      7400
 2343              	.LASF113:
 2344 0075 6D5F6F77 		.ascii	"m_owner\000"
 2344      6E657200 
 2345              	.LASF109:
 2346 007d 735F7175 		.ascii	"s_queue\000"
 2346      65756500 
 2347              	.LASF0:
 2348 0085 756E7369 		.ascii	"unsigned int\000"
 2348      676E6564 
 2348      20696E74 
 2348      00
 2349              	.LASF39:
 2350 0092 74687265 		.ascii	"threads_list_t\000"
 2350      6164735F 
 2350      6C697374 
 2350      5F7400
 2351              	.LASF83:
 2352 00a1 42444352 		.ascii	"BDCR\000"
 2352      00
 2353              	.LASF7:
 2354 00a6 5F5F696E 		.ascii	"__int32_t\000"
 2354      7433325F 
 2354      7400
 2355              	.LASF130:
 2356 00b0 2F686F6D 		.ascii	"/home/efe/ChibiOS/os/hal/ports/STM32/LLD/TIMv1/st_l"
 2356      652F6566 
 2356      652F4368 
 2356      6962694F 
 2356      532F6F73 
 2357 00e3 6C642E63 		.ascii	"ld.c\000"
 2357      00
 2358              	.LASF104:
 2359 00e8 77746F62 		.ascii	"wtobjp\000"
 2359      6A7000
 2360              	.LASF120:
 2361 00ef 706F7274 		.ascii	"port_lock\000"
 2361      5F6C6F63 
 2361      6B00
 2362              	.LASF69:
 2363 00f9 76746C69 		.ascii	"vtlist\000"
 2363      737400
 2364              	.LASF122:
 2365 0100 706F7274 		.ascii	"port_lock_from_isr\000"
 2365      5F6C6F63 
 2365      6B5F6672 
 2365      6F6D5F69 
 2365      737200
 2366              	.LASF45:
 2367 0113 63685F72 		.ascii	"ch_ready_list\000"
 2367      65616479 
 2367      5F6C6973 
ARM GAS  /tmp/cco8gVfz.s 			page 64


 2367      7400
 2368              	.LASF71:
 2369 0121 69646C65 		.ascii	"idle_thread_wa\000"
 2369      5F746872 
 2369      6561645F 
 2369      776100
 2370              	.LASF43:
 2371 0130 63685F74 		.ascii	"ch_threads_queue\000"
 2371      68726561 
 2371      64735F71 
 2371      75657565 
 2371      00
 2372              	.LASF124:
 2373 0141 63685379 		.ascii	"chSysLockFromISR\000"
 2373      734C6F63 
 2373      6B46726F 
 2373      6D495352 
 2373      00
 2374              	.LASF98:
 2375 0152 444D4152 		.ascii	"DMAR\000"
 2375      00
 2376              	.LASF76:
 2377 0157 4442474D 		.ascii	"DBGMCU_TypeDef\000"
 2377      43555F54 
 2377      79706544 
 2377      656600
 2378              	.LASF52:
 2379 0166 76746675 		.ascii	"vtfunc_t\000"
 2379      6E635F74 
 2379      00
 2380              	.LASF110:
 2381 016f 735F636E 		.ascii	"s_cnt\000"
 2381      7400
 2382              	.LASF64:
 2383 0175 63685F73 		.ascii	"ch_system_debug\000"
 2383      79737465 
 2383      6D5F6465 
 2383      62756700 
 2384              	.LASF17:
 2385 0185 75696E74 		.ascii	"uint32_t\000"
 2385      33325F74 
 2385      00
 2386              	.LASF74:
 2387 018e 41504231 		.ascii	"APB1FZ\000"
 2387      465A00
 2388              	.LASF47:
 2389 0195 725F7072 		.ascii	"r_prio\000"
 2389      696F00
 2390              	.LASF97:
 2391 019c 42445452 		.ascii	"BDTR\000"
 2391      00
 2392              	.LASF59:
 2393 01a1 76745F70 		.ascii	"vt_par\000"
 2393      617200
 2394              	.LASF108:
 2395 01a8 63685F73 		.ascii	"ch_semaphore\000"
 2395      656D6170 
ARM GAS  /tmp/cco8gVfz.s 			page 65


 2395      686F7265 
 2395      00
 2396              	.LASF21:
 2397 01b5 74707269 		.ascii	"tprio_t\000"
 2397      6F5F7400 
 2398              	.LASF54:
 2399 01bd 63685F76 		.ascii	"ch_virtual_timer\000"
 2399      69727475 
 2399      616C5F74 
 2399      696D6572 
 2399      00
 2400              	.LASF94:
 2401 01ce 43434D52 		.ascii	"CCMR1\000"
 2401      3100
 2402              	.LASF95:
 2403 01d4 43434D52 		.ascii	"CCMR2\000"
 2403      3200
 2404              	.LASF99:
 2405 01da 43434D52 		.ascii	"CCMR3\000"
 2405      3300
 2406              	.LASF13:
 2407 01e0 6C6F6E67 		.ascii	"long long unsigned int\000"
 2407      206C6F6E 
 2407      6720756E 
 2407      7369676E 
 2407      65642069 
 2408              	.LASF5:
 2409 01f7 5F5F7569 		.ascii	"__uint16_t\000"
 2409      6E743136 
 2409      5F7400
 2410              	.LASF23:
 2411 0202 636E745F 		.ascii	"cnt_t\000"
 2411      7400
 2412              	.LASF30:
 2413 0208 705F6E65 		.ascii	"p_newer\000"
 2413      77657200 
 2414              	.LASF61:
 2415 0210 63685F76 		.ascii	"ch_virtual_timers_list\000"
 2415      69727475 
 2415      616C5F74 
 2415      696D6572 
 2415      735F6C69 
 2416              	.LASF25:
 2417 0227 74687265 		.ascii	"thread_t\000"
 2417      61645F74 
 2417      00
 2418              	.LASF125:
 2419 0230 63685379 		.ascii	"chSysUnlockFromISR\000"
 2419      73556E6C 
 2419      6F636B46 
 2419      726F6D49 
 2419      535200
 2420              	.LASF102:
 2421 0243 7264796D 		.ascii	"rdymsg\000"
 2421      736700
 2422              	.LASF126:
 2423 024a 6F73616C 		.ascii	"osalSysLockFromISR\000"
ARM GAS  /tmp/cco8gVfz.s 			page 66


 2423      5379734C 
 2423      6F636B46 
 2423      726F6D49 
 2423      535200
 2424              	.LASF118:
 2425 025d 5F5F6469 		.ascii	"__disable_irq\000"
 2425      7361626C 
 2425      655F6972 
 2425      7100
 2426              	.LASF101:
 2427 026b 73746D33 		.ascii	"stm32_tim_t\000"
 2427      325F7469 
 2427      6D5F7400 
 2428              	.LASF87:
 2429 0277 5243435F 		.ascii	"RCC_TypeDef\000"
 2429      54797065 
 2429      44656600 
 2430              	.LASF111:
 2431 0283 63685F6D 		.ascii	"ch_mutex\000"
 2431      75746578 
 2431      00
 2432              	.LASF12:
 2433 028c 5F5F7569 		.ascii	"__uint64_t\000"
 2433      6E743634 
 2433      5F7400
 2434              	.LASF93:
 2435 0297 44494552 		.ascii	"DIER\000"
 2435      00
 2436              	.LASF32:
 2437 029c 705F6E61 		.ascii	"p_name\000"
 2437      6D6500
 2438              	.LASF79:
 2439 02a3 41504231 		.ascii	"APB1RSTR\000"
 2439      52535452 
 2439      00
 2440              	.LASF96:
 2441 02ac 43434552 		.ascii	"CCER\000"
 2441      00
 2442              	.LASF57:
 2443 02b1 76745F64 		.ascii	"vt_delta\000"
 2443      656C7461 
 2443      00
 2444              	.LASF38:
 2445 02ba 74687265 		.ascii	"thread_reference_t\000"
 2445      61645F72 
 2445      65666572 
 2445      656E6365 
 2445      5F7400
 2446              	.LASF62:
 2447 02cd 76745F6C 		.ascii	"vt_lasttime\000"
 2447      61737474 
 2447      696D6500 
 2448              	.LASF20:
 2449 02d9 74737461 		.ascii	"tstate_t\000"
 2449      74655F74 
 2449      00
 2450              	.LASF80:
ARM GAS  /tmp/cco8gVfz.s 			page 67


 2451 02e2 41484245 		.ascii	"AHBENR\000"
 2451      4E5200
 2452              	.LASF31:
 2453 02e9 705F6F6C 		.ascii	"p_older\000"
 2453      64657200 
 2454              	.LASF33:
 2455 02f1 705F7374 		.ascii	"p_state\000"
 2455      61746500 
 2456              	.LASF14:
 2457 02f9 75696E74 		.ascii	"uint8_t\000"
 2457      385F7400 
 2458              	.LASF36:
 2459 0301 705F6D74 		.ascii	"p_mtxlist\000"
 2459      786C6973 
 2459      7400
 2460              	.LASF92:
 2461 030b 534D4352 		.ascii	"SMCR\000"
 2461      00
 2462              	.LASF40:
 2463 0310 63685F74 		.ascii	"ch_thread\000"
 2463      68726561 
 2463      6400
 2464              	.LASF63:
 2465 031a 73797374 		.ascii	"system_debug_t\000"
 2465      656D5F64 
 2465      65627567 
 2465      5F7400
 2466              	.LASF11:
 2467 0329 6C6F6E67 		.ascii	"long long int\000"
 2467      206C6F6E 
 2467      6720696E 
 2467      7400
 2468              	.LASF46:
 2469 0337 725F7175 		.ascii	"r_queue\000"
 2469      65756500 
 2470              	.LASF49:
 2471 033f 725F6E65 		.ascii	"r_newer\000"
 2471      77657200 
 2472              	.LASF22:
 2473 0347 6D73675F 		.ascii	"msg_t\000"
 2473      7400
 2474              	.LASF131:
 2475 034d 56656374 		.ascii	"Vector80\000"
 2475      6F723830 
 2475      00
 2476              	.LASF90:
 2477 0356 636F6E74 		.ascii	"context\000"
 2477      65787400 
 2478              	.LASF34:
 2479 035e 705F666C 		.ascii	"p_flags\000"
 2479      61677300 
 2480              	.LASF53:
 2481 0366 76697274 		.ascii	"virtual_timer_t\000"
 2481      75616C5F 
 2481      74696D65 
 2481      725F7400 
 2482              	.LASF129:
ARM GAS  /tmp/cco8gVfz.s 			page 68


 2483 0376 474E5520 		.ascii	"GNU C 4.8.4 20141219 (release) -mcpu=cortex-m0 -mno"
 2483      4320342E 
 2483      382E3420 
 2483      32303134 
 2483      31323139 
 2484 03a9 2D746875 		.ascii	"-thumb-interwork -mthumb -ggdb -O0 -fomit-frame-poi"
 2484      6D622D69 
 2484      6E746572 
 2484      776F726B 
 2484      202D6D74 
 2485 03dc 6E746572 		.ascii	"nter -falign-functions=16 -ffunction-sections -fdat"
 2485      202D6661 
 2485      6C69676E 
 2485      2D66756E 
 2485      6374696F 
 2486 040f 612D7365 		.ascii	"a-sections -fno-common -flto\000"
 2486      6374696F 
 2486      6E73202D 
 2486      666E6F2D 
 2486      636F6D6D 
 2487              	.LASF50:
 2488 042c 725F6F6C 		.ascii	"r_older\000"
 2488      64657200 
 2489              	.LASF85:
 2490 0434 43464752 		.ascii	"CFGR2\000"
 2490      3200
 2491              	.LASF86:
 2492 043a 43464752 		.ascii	"CFGR3\000"
 2492      3300
 2493              	.LASF81:
 2494 0440 41504232 		.ascii	"APB2ENR\000"
 2494      454E5200 
 2495              	.LASF65:
 2496 0448 70616E69 		.ascii	"panic_msg\000"
 2496      635F6D73 
 2496      6700
 2497              	.LASF75:
 2498 0452 41504232 		.ascii	"APB2FZ\000"
 2498      465A00
 2499              	.LASF117:
 2500 0459 5F426F6F 		.ascii	"_Bool\000"
 2500      6C00
 2501              	.LASF19:
 2502 045f 746D6F64 		.ascii	"tmode_t\000"
 2502      655F7400 
 2503              	.LASF70:
 2504 0467 6D61696E 		.ascii	"mainthread\000"
 2504      74687265 
 2504      616400
 2505              	.LASF15:
 2506 0472 75696E74 		.ascii	"uint16_t\000"
 2506      31365F74 
 2506      00
 2507              	.LASF100:
 2508 047b 43435852 		.ascii	"CCXR\000"
 2508      00
 2509              	.LASF37:
ARM GAS  /tmp/cco8gVfz.s 			page 69


 2510 0480 705F7265 		.ascii	"p_realprio\000"
 2510      616C7072 
 2510      696F00
 2511              	.LASF3:
 2512 048b 73686F72 		.ascii	"short int\000"
 2512      7420696E 
 2512      7400
 2513              	.LASF51:
 2514 0495 725F6375 		.ascii	"r_current\000"
 2514      7272656E 
 2514      7400
 2515              	.LASF112:
 2516 049f 6D5F7175 		.ascii	"m_queue\000"
 2516      65756500 
 2517              	.LASF8:
 2518 04a7 6C6F6E67 		.ascii	"long int\000"
 2518      20696E74 
 2518      00
 2519              	.LASF91:
 2520 04b0 706F7274 		.ascii	"port_intctx\000"
 2520      5F696E74 
 2520      63747800 
 2521              	.LASF119:
 2522 04bc 5F5F656E 		.ascii	"__enable_irq\000"
 2522      61626C65 
 2522      5F697271 
 2522      00
 2523              	.LASF67:
 2524 04c9 63685F73 		.ascii	"ch_system\000"
 2524      79737465 
 2524      6D00
 2525              	.LASF133:
 2526 04d3 73745F6C 		.ascii	"st_lld_init\000"
 2526      6C645F69 
 2526      6E697400 
 2527              	.LASF26:
 2528 04df 705F6E65 		.ascii	"p_next\000"
 2528      787400
 2529              	.LASF18:
 2530 04e6 75696E74 		.ascii	"uint64_t\000"
 2530      36345F74 
 2530      00
 2531              	.LASF29:
 2532 04ef 705F6374 		.ascii	"p_ctx\000"
 2532      7800
 2533              	.LASF77:
 2534 04f5 43464752 		.ascii	"CFGR\000"
 2534      00
 2535              	.LASF68:
 2536 04fa 726C6973 		.ascii	"rlist\000"
 2536      7400
 2537              	.LASF127:
 2538 0500 6F73616C 		.ascii	"osalSysUnlockFromISR\000"
 2538      53797355 
 2538      6E6C6F63 
 2538      6B46726F 
 2538      6D495352 
ARM GAS  /tmp/cco8gVfz.s 			page 70


 2539              	.LASF4:
 2540 0515 5F5F7569 		.ascii	"__uint8_t\000"
 2540      6E74385F 
 2540      7400
 2541              	.LASF27:
 2542 051f 705F7072 		.ascii	"p_prev\000"
 2542      657600
 2543              	.LASF72:
 2544 0526 73697A65 		.ascii	"sizetype\000"
 2544      74797065 
 2544      00
 2545              	.LASF10:
 2546 052f 6C6F6E67 		.ascii	"long unsigned int\000"
 2546      20756E73 
 2546      69676E65 
 2546      6420696E 
 2546      7400
 2547              	.LASF44:
 2548 0541 72656164 		.ascii	"ready_list_t\000"
 2548      795F6C69 
 2548      73745F74 
 2548      00
 2549              	.LASF16:
 2550 054e 696E7433 		.ascii	"int32_t\000"
 2550      325F7400 
 2551              	.LASF116:
 2552 0556 6D757465 		.ascii	"mutex_t\000"
 2552      785F7400 
 2553              	.LASF123:
 2554 055e 706F7274 		.ascii	"port_unlock_from_isr\000"
 2554      5F756E6C 
 2554      6F636B5F 
 2554      66726F6D 
 2554      5F697372 
 2555              	.LASF2:
 2556 0573 756E7369 		.ascii	"unsigned char\000"
 2556      676E6564 
 2556      20636861 
 2556      7200
 2557              	.LASF9:
 2558 0581 5F5F7569 		.ascii	"__uint32_t\000"
 2558      6E743332 
 2558      5F7400
 2559              	.LASF60:
 2560 058c 76697274 		.ascii	"virtual_timers_list_t\000"
 2560      75616C5F 
 2560      74696D65 
 2560      72735F6C 
 2560      6973745F 
 2561              	.LASF84:
 2562 05a2 41484252 		.ascii	"AHBRSTR\000"
 2562      53545200 
 2563              	.LASF55:
 2564 05aa 76745F6E 		.ascii	"vt_next\000"
 2564      65787400 
 2565              	.LASF66:
 2566 05b2 63685F73 		.ascii	"ch_system_t\000"
ARM GAS  /tmp/cco8gVfz.s 			page 71


 2566      79737465 
 2566      6D5F7400 
 2567              	.LASF106:
 2568 05be 77747365 		.ascii	"wtsemp\000"
 2568      6D7000
 2569              	.LASF105:
 2570 05c5 77747472 		.ascii	"wttrp\000"
 2570      7000
 2571              	.LASF114:
 2572 05cb 6D5F6E65 		.ascii	"m_next\000"
 2572      787400
 2573              	.LASF1:
 2574 05d2 7369676E 		.ascii	"signed char\000"
 2574      65642063 
 2574      68617200 
 2575              	.LASF6:
 2576 05de 73686F72 		.ascii	"short unsigned int\000"
 2576      7420756E 
 2576      7369676E 
 2576      65642069 
 2576      6E7400
 2577              	.LASF48:
 2578 05f1 725F6374 		.ascii	"r_ctx\000"
 2578      7800
 2579              	.LASF89:
 2580 05f7 73746B61 		.ascii	"stkalign_t\000"
 2580      6C69676E 
 2580      5F7400
 2581              	.LASF58:
 2582 0602 76745F66 		.ascii	"vt_func\000"
 2582      756E6300 
 2583              	.LASF121:
 2584 060a 706F7274 		.ascii	"port_unlock\000"
 2584      5F756E6C 
 2584      6F636B00 
 2585              	.LASF56:
 2586 0616 76745F70 		.ascii	"vt_prev\000"
 2586      72657600 
 2587              	.LASF132:
 2588 061e 5F736176 		.ascii	"_saved_lr\000"
 2588      65645F6C 
 2588      7200
 2589              	.LASF103:
 2590 0628 65786974 		.ascii	"exitcode\000"
 2590      636F6465 
 2590      00
 2591              	.LASF73:
 2592 0631 4944434F 		.ascii	"IDCODE\000"
 2592      444500
 2593              		.comm	__gnu_lto_v1,1,1
 2594              		.ident	"GCC: (4.8.4-1+11-1) 4.8.4 20141219 (release)"
ARM GAS  /tmp/cco8gVfz.s 			page 72


DEFINED SYMBOLS
                            *ABS*:0000000000000000 st_lld.c
     /tmp/cco8gVfz.s:369    .text.port_lock:0000000000000000 $t
     /tmp/cco8gVfz.s:374    .text.port_lock:0000000000000000 port_lock
     /tmp/cco8gVfz.s:396    .text.port_unlock:0000000000000000 $t
     /tmp/cco8gVfz.s:401    .text.port_unlock:0000000000000000 port_unlock
     /tmp/cco8gVfz.s:421    .text.port_lock_from_isr:0000000000000000 $t
     /tmp/cco8gVfz.s:426    .text.port_lock_from_isr:0000000000000000 port_lock_from_isr
     /tmp/cco8gVfz.s:443    .text.port_unlock_from_isr:0000000000000000 $t
     /tmp/cco8gVfz.s:448    .text.port_unlock_from_isr:0000000000000000 port_unlock_from_isr
     /tmp/cco8gVfz.s:465    .text.chSysLockFromISR:0000000000000000 $t
     /tmp/cco8gVfz.s:470    .text.chSysLockFromISR:0000000000000000 chSysLockFromISR
     /tmp/cco8gVfz.s:488    .text.chSysUnlockFromISR:0000000000000000 $t
     /tmp/cco8gVfz.s:493    .text.chSysUnlockFromISR:0000000000000000 chSysUnlockFromISR
     /tmp/cco8gVfz.s:510    .text.osalSysLockFromISR:0000000000000000 $t
     /tmp/cco8gVfz.s:515    .text.osalSysLockFromISR:0000000000000000 osalSysLockFromISR
     /tmp/cco8gVfz.s:533    .text.osalSysUnlockFromISR:0000000000000000 $t
     /tmp/cco8gVfz.s:538    .text.osalSysUnlockFromISR:0000000000000000 osalSysUnlockFromISR
     /tmp/cco8gVfz.s:555    .text.osalOsTimerHandlerI:0000000000000000 $t
     /tmp/cco8gVfz.s:560    .text.osalOsTimerHandlerI:0000000000000000 osalOsTimerHandlerI
     /tmp/cco8gVfz.s:577    .text.Vector80:0000000000000000 $t
     /tmp/cco8gVfz.s:583    .text.Vector80:0000000000000000 Vector80
     /tmp/cco8gVfz.s:624    .text.Vector80:0000000000000030 $d
     /tmp/cco8gVfz.s:629    .text.st_lld_init:0000000000000000 $t
     /tmp/cco8gVfz.s:635    .text.st_lld_init:0000000000000000 st_lld_init
     /tmp/cco8gVfz.s:699    .text.st_lld_init:0000000000000054 $d
                            *COM*:0000000000000001 __gnu_lto_v1
                     .debug_frame:0000000000000010 $d
     /tmp/cco8gVfz.s:628    .text.Vector80:0000000000000034 $t
     /tmp/cco8gVfz.s:707    .text.st_lld_init:0000000000000068 $t

UNDEFINED SYMBOLS
chSysTimerHandlerI
_port_irq_epilogue
nvicEnableVector
