ARM GAS  /tmp/cc1C8LBe.s 			page 1


   1              		.syntax unified
   2              		.cpu cortex-m4
   3              		.fpu softvfp
   4              		.eabi_attribute 20, 1
   5              		.eabi_attribute 21, 1
   6              		.eabi_attribute 23, 3
   7              		.eabi_attribute 24, 1
   8              		.eabi_attribute 25, 1
   9              		.eabi_attribute 26, 1
  10              		.eabi_attribute 30, 6
  11              		.eabi_attribute 34, 1
  12              		.eabi_attribute 18, 4
  13              		.thumb
  14              		.file	"usb.c"
  15              		.text
  16              	.Ltext0:
  17              		.cfi_sections	.debug_frame
  18              		.section	.text.port_lock,"ax",%progbits
  19              		.align	2
  20              		.p2align 4,,15
  21              		.thumb
  22              		.thumb_func
  23              		.type	port_lock, %function
  24              	port_lock:
  25              	.LFB127:
  26              		.file 1 "/home/efe/ChibiOS/os/rt/ports/ARMCMx/chcore_v7m.h"
  27              		.loc 1 456 0
  28              		.cfi_startproc
  29              		@ args = 0, pretend = 0, frame = 8
  30              		@ frame_needed = 0, uses_anonymous_args = 0
  31              		@ link register save eliminated.
  32 0000 82B0     		sub	sp, sp, #8
  33              		.cfi_def_cfa_offset 8
  34 0002 2023     		movs	r3, #32
  35 0004 0193     		str	r3, [sp, #4]
  36              	.LBB6:
  37              	.LBB7:
  38              		.file 2 "/home/efe/ChibiOS/os/ext/CMSIS/include/core_cmFunc.h"
  39              		.loc 2 548 0
  40 0006 019B     		ldr	r3, [sp, #4]
  41              	@ 548 "/home/efe/ChibiOS/os/ext/CMSIS/include/core_cmFunc.h" 1
  42 0008 83F31188 		MSR basepri, r3
  43              	@ 0 "" 2
  44              		.thumb
  45              	.LBE7:
  46              	.LBE6:
  47              		.loc 1 463 0
  48 000c 02B0     		add	sp, sp, #8
  49              		@ sp needed
  50 000e 7047     		bx	lr
  51              		.cfi_endproc
  52              	.LFE127:
  53              		.size	port_lock, .-port_lock
  54              		.section	.text.port_unlock,"ax",%progbits
  55              		.align	2
  56              		.p2align 4,,15
  57              		.thumb
ARM GAS  /tmp/cc1C8LBe.s 			page 2


  58              		.thumb_func
  59              		.type	port_unlock, %function
  60              	port_unlock:
  61              	.LFB128:
  62              		.loc 1 470 0
  63              		.cfi_startproc
  64              		@ args = 0, pretend = 0, frame = 8
  65              		@ frame_needed = 0, uses_anonymous_args = 0
  66              		@ link register save eliminated.
  67 0000 82B0     		sub	sp, sp, #8
  68              		.cfi_def_cfa_offset 8
  69 0002 0023     		movs	r3, #0
  70 0004 0193     		str	r3, [sp, #4]
  71              	.LBB8:
  72              	.LBB9:
  73              		.loc 2 548 0
  74 0006 019B     		ldr	r3, [sp, #4]
  75              	@ 548 "/home/efe/ChibiOS/os/ext/CMSIS/include/core_cmFunc.h" 1
  76 0008 83F31188 		MSR basepri, r3
  77              	@ 0 "" 2
  78              		.thumb
  79              	.LBE9:
  80              	.LBE8:
  81              		.loc 1 477 0
  82 000c 02B0     		add	sp, sp, #8
  83              		@ sp needed
  84 000e 7047     		bx	lr
  85              		.cfi_endproc
  86              	.LFE128:
  87              		.size	port_unlock, .-port_unlock
  88              		.section	.text.port_lock_from_isr,"ax",%progbits
  89              		.align	2
  90              		.p2align 4,,15
  91              		.thumb
  92              		.thumb_func
  93              		.type	port_lock_from_isr, %function
  94              	port_lock_from_isr:
  95              	.LFB129:
  96              		.loc 1 485 0
  97              		.cfi_startproc
  98              		@ args = 0, pretend = 0, frame = 0
  99              		@ frame_needed = 0, uses_anonymous_args = 0
 100 0000 08B5     		push	{r3, lr}
 101              		.cfi_def_cfa_offset 8
 102              		.cfi_offset 3, -8
 103              		.cfi_offset 14, -4
 104              		.loc 1 487 0
 105 0002 FFF7FEFF 		bl	port_lock
 106              		.loc 1 488 0
 107 0006 08BD     		pop	{r3, pc}
 108              		.cfi_endproc
 109              	.LFE129:
 110              		.size	port_lock_from_isr, .-port_lock_from_isr
 111 0008 AFF30080 		.section	.text.port_unlock_from_isr,"ax",%progbits
 111      AFF30080 
 112              		.align	2
 113              		.p2align 4,,15
ARM GAS  /tmp/cc1C8LBe.s 			page 3


 114              		.thumb
 115              		.thumb_func
 116              		.type	port_unlock_from_isr, %function
 117              	port_unlock_from_isr:
 118              	.LFB130:
 119              		.loc 1 496 0
 120              		.cfi_startproc
 121              		@ args = 0, pretend = 0, frame = 0
 122              		@ frame_needed = 0, uses_anonymous_args = 0
 123 0000 08B5     		push	{r3, lr}
 124              		.cfi_def_cfa_offset 8
 125              		.cfi_offset 3, -8
 126              		.cfi_offset 14, -4
 127              		.loc 1 498 0
 128 0002 FFF7FEFF 		bl	port_unlock
 129              		.loc 1 499 0
 130 0006 08BD     		pop	{r3, pc}
 131              		.cfi_endproc
 132              	.LFE130:
 133              		.size	port_unlock_from_isr, .-port_unlock_from_isr
 134 0008 AFF30080 		.section	.text.chSysLock,"ax",%progbits
 134      AFF30080 
 135              		.align	2
 136              		.p2align 4,,15
 137              		.thumb
 138              		.thumb_func
 139              		.type	chSysLock, %function
 140              	chSysLock:
 141              	.LFB167:
 142              		.file 3 "/home/efe/ChibiOS/os/rt/include/chsys.h"
 143              		.loc 3 346 0
 144              		.cfi_startproc
 145              		@ args = 0, pretend = 0, frame = 0
 146              		@ frame_needed = 0, uses_anonymous_args = 0
 147 0000 08B5     		push	{r3, lr}
 148              		.cfi_def_cfa_offset 8
 149              		.cfi_offset 3, -8
 150              		.cfi_offset 14, -4
 151              		.loc 3 348 0
 152 0002 FFF7FEFF 		bl	port_lock
 153              		.loc 3 351 0
 154 0006 08BD     		pop	{r3, pc}
 155              		.cfi_endproc
 156              	.LFE167:
 157              		.size	chSysLock, .-chSysLock
 158 0008 AFF30080 		.section	.text.chSysUnlock,"ax",%progbits
 158      AFF30080 
 159              		.align	2
 160              		.p2align 4,,15
 161              		.thumb
 162              		.thumb_func
 163              		.type	chSysUnlock, %function
 164              	chSysUnlock:
 165              	.LFB168:
 166              		.loc 3 358 0
 167              		.cfi_startproc
 168              		@ args = 0, pretend = 0, frame = 0
ARM GAS  /tmp/cc1C8LBe.s 			page 4


 169              		@ frame_needed = 0, uses_anonymous_args = 0
 170 0000 08B5     		push	{r3, lr}
 171              		.cfi_def_cfa_offset 8
 172              		.cfi_offset 3, -8
 173              		.cfi_offset 14, -4
 174              		.loc 3 371 0
 175 0002 FFF7FEFF 		bl	port_unlock
 176              		.loc 3 372 0
 177 0006 08BD     		pop	{r3, pc}
 178              		.cfi_endproc
 179              	.LFE168:
 180              		.size	chSysUnlock, .-chSysUnlock
 181 0008 AFF30080 		.section	.text.chSysLockFromISR,"ax",%progbits
 181      AFF30080 
 182              		.align	2
 183              		.p2align 4,,15
 184              		.thumb
 185              		.thumb_func
 186              		.type	chSysLockFromISR, %function
 187              	chSysLockFromISR:
 188              	.LFB169:
 189              		.loc 3 386 0
 190              		.cfi_startproc
 191              		@ args = 0, pretend = 0, frame = 0
 192              		@ frame_needed = 0, uses_anonymous_args = 0
 193 0000 08B5     		push	{r3, lr}
 194              		.cfi_def_cfa_offset 8
 195              		.cfi_offset 3, -8
 196              		.cfi_offset 14, -4
 197              		.loc 3 388 0
 198 0002 FFF7FEFF 		bl	port_lock_from_isr
 199              		.loc 3 391 0
 200 0006 08BD     		pop	{r3, pc}
 201              		.cfi_endproc
 202              	.LFE169:
 203              		.size	chSysLockFromISR, .-chSysLockFromISR
 204 0008 AFF30080 		.section	.text.chSysUnlockFromISR,"ax",%progbits
 204      AFF30080 
 205              		.align	2
 206              		.p2align 4,,15
 207              		.thumb
 208              		.thumb_func
 209              		.type	chSysUnlockFromISR, %function
 210              	chSysUnlockFromISR:
 211              	.LFB170:
 212              		.loc 3 406 0
 213              		.cfi_startproc
 214              		@ args = 0, pretend = 0, frame = 0
 215              		@ frame_needed = 0, uses_anonymous_args = 0
 216 0000 08B5     		push	{r3, lr}
 217              		.cfi_def_cfa_offset 8
 218              		.cfi_offset 3, -8
 219              		.cfi_offset 14, -4
 220              		.loc 3 410 0
 221 0002 FFF7FEFF 		bl	port_unlock_from_isr
 222              		.loc 3 411 0
 223 0006 08BD     		pop	{r3, pc}
ARM GAS  /tmp/cc1C8LBe.s 			page 5


 224              		.cfi_endproc
 225              	.LFE170:
 226              		.size	chSysUnlockFromISR, .-chSysUnlockFromISR
 227 0008 AFF30080 		.section	.text.osalSysLock,"ax",%progbits
 227      AFF30080 
 228              		.align	2
 229              		.p2align 4,,15
 230              		.thumb
 231              		.thumb_func
 232              		.type	osalSysLock, %function
 233              	osalSysLock:
 234              	.LFB244:
 235              		.file 4 "/home/efe/ChibiOS/os/hal/osal/rt/osal.h"
 236              		.loc 4 491 0
 237              		.cfi_startproc
 238              		@ args = 0, pretend = 0, frame = 0
 239              		@ frame_needed = 0, uses_anonymous_args = 0
 240 0000 08B5     		push	{r3, lr}
 241              		.cfi_def_cfa_offset 8
 242              		.cfi_offset 3, -8
 243              		.cfi_offset 14, -4
 244              		.loc 4 493 0
 245 0002 FFF7FEFF 		bl	chSysLock
 246              		.loc 4 494 0
 247 0006 08BD     		pop	{r3, pc}
 248              		.cfi_endproc
 249              	.LFE244:
 250              		.size	osalSysLock, .-osalSysLock
 251 0008 AFF30080 		.section	.text.osalSysUnlock,"ax",%progbits
 251      AFF30080 
 252              		.align	2
 253              		.p2align 4,,15
 254              		.thumb
 255              		.thumb_func
 256              		.type	osalSysUnlock, %function
 257              	osalSysUnlock:
 258              	.LFB245:
 259              		.loc 4 502 0
 260              		.cfi_startproc
 261              		@ args = 0, pretend = 0, frame = 0
 262              		@ frame_needed = 0, uses_anonymous_args = 0
 263 0000 08B5     		push	{r3, lr}
 264              		.cfi_def_cfa_offset 8
 265              		.cfi_offset 3, -8
 266              		.cfi_offset 14, -4
 267              		.loc 4 504 0
 268 0002 FFF7FEFF 		bl	chSysUnlock
 269              		.loc 4 505 0
 270 0006 08BD     		pop	{r3, pc}
 271              		.cfi_endproc
 272              	.LFE245:
 273              		.size	osalSysUnlock, .-osalSysUnlock
 274 0008 AFF30080 		.section	.text.osalSysLockFromISR,"ax",%progbits
 274      AFF30080 
 275              		.align	2
 276              		.p2align 4,,15
 277              		.thumb
ARM GAS  /tmp/cc1C8LBe.s 			page 6


 278              		.thumb_func
 279              		.type	osalSysLockFromISR, %function
 280              	osalSysLockFromISR:
 281              	.LFB246:
 282              		.loc 4 513 0
 283              		.cfi_startproc
 284              		@ args = 0, pretend = 0, frame = 0
 285              		@ frame_needed = 0, uses_anonymous_args = 0
 286 0000 08B5     		push	{r3, lr}
 287              		.cfi_def_cfa_offset 8
 288              		.cfi_offset 3, -8
 289              		.cfi_offset 14, -4
 290              		.loc 4 515 0
 291 0002 FFF7FEFF 		bl	chSysLockFromISR
 292              		.loc 4 516 0
 293 0006 08BD     		pop	{r3, pc}
 294              		.cfi_endproc
 295              	.LFE246:
 296              		.size	osalSysLockFromISR, .-osalSysLockFromISR
 297 0008 AFF30080 		.section	.text.osalSysUnlockFromISR,"ax",%progbits
 297      AFF30080 
 298              		.align	2
 299              		.p2align 4,,15
 300              		.thumb
 301              		.thumb_func
 302              		.type	osalSysUnlockFromISR, %function
 303              	osalSysUnlockFromISR:
 304              	.LFB247:
 305              		.loc 4 524 0
 306              		.cfi_startproc
 307              		@ args = 0, pretend = 0, frame = 0
 308              		@ frame_needed = 0, uses_anonymous_args = 0
 309 0000 08B5     		push	{r3, lr}
 310              		.cfi_def_cfa_offset 8
 311              		.cfi_offset 3, -8
 312              		.cfi_offset 14, -4
 313              		.loc 4 526 0
 314 0002 FFF7FEFF 		bl	chSysUnlockFromISR
 315              		.loc 4 527 0
 316 0006 08BD     		pop	{r3, pc}
 317              		.cfi_endproc
 318              	.LFE247:
 319              		.size	osalSysUnlockFromISR, .-osalSysUnlockFromISR
 320 0008 AFF30080 		.section	.rodata.zero_status,"a",%progbits
 320      AFF30080 
 321              		.align	2
 322              		.type	zero_status, %object
 323              		.size	zero_status, 2
 324              	zero_status:
 325 0000 0000     		.space	2
 326 0002 0000     		.section	.rodata.active_status,"a",%progbits
 327              		.align	2
 328              		.type	active_status, %object
 329              		.size	active_status, 2
 330              	active_status:
 331 0000 0000     		.space	2
 332 0002 0000     		.section	.rodata.halted_status,"a",%progbits
ARM GAS  /tmp/cc1C8LBe.s 			page 7


 333              		.align	2
 334              		.type	halted_status, %object
 335              		.size	halted_status, 2
 336              	halted_status:
 337 0000 01       		.byte	1
 338 0001 00       		.byte	0
 339 0002 0000     		.section	.text.get_hword,"ax",%progbits
 340              		.align	2
 341              		.p2align 4,,15
 342              		.thumb
 343              		.thumb_func
 344              		.type	get_hword, %function
 345              	get_hword:
 346              	.LFB271:
 347              		.file 5 "/home/efe/ChibiOS/os/hal/src/usb.c"
 348              		.loc 5 51 0
 349              		.cfi_startproc
 350              		@ args = 0, pretend = 0, frame = 16
 351              		@ frame_needed = 0, uses_anonymous_args = 0
 352              		@ link register save eliminated.
 353 0000 84B0     		sub	sp, sp, #16
 354              		.cfi_def_cfa_offset 16
 355 0002 0190     		str	r0, [sp, #4]
 356              		.loc 5 54 0
 357 0004 019B     		ldr	r3, [sp, #4]
 358 0006 5A1C     		adds	r2, r3, #1
 359 0008 0192     		str	r2, [sp, #4]
 360 000a 1B78     		ldrb	r3, [r3]	@ zero_extendqisi2
 361 000c ADF80E30 		strh	r3, [sp, #14]	@ movhi
 362              		.loc 5 55 0
 363 0010 019B     		ldr	r3, [sp, #4]
 364 0012 1B78     		ldrb	r3, [r3]	@ zero_extendqisi2
 365 0014 1B02     		lsls	r3, r3, #8
 366 0016 9AB2     		uxth	r2, r3
 367 0018 BDF80E30 		ldrh	r3, [sp, #14]
 368 001c 1343     		orrs	r3, r3, r2
 369 001e 9BB2     		uxth	r3, r3
 370 0020 ADF80E30 		strh	r3, [sp, #14]	@ movhi
 371              		.loc 5 56 0
 372 0024 BDF80E30 		ldrh	r3, [sp, #14]
 373              		.loc 5 57 0
 374 0028 1846     		mov	r0, r3
 375 002a 04B0     		add	sp, sp, #16
 376              		@ sp needed
 377 002c 7047     		bx	lr
 378              		.cfi_endproc
 379              	.LFE271:
 380              		.size	get_hword, .-get_hword
 381 002e 00BF     		.section	.text.set_address,"ax",%progbits
 382              		.align	2
 383              		.p2align 4,,15
 384              		.thumb
 385              		.thumb_func
 386              		.type	set_address, %function
 387              	set_address:
 388              	.LFB272:
 389              		.loc 5 64 0
ARM GAS  /tmp/cc1C8LBe.s 			page 8


 390              		.cfi_startproc
 391              		@ args = 0, pretend = 0, frame = 8
 392              		@ frame_needed = 0, uses_anonymous_args = 0
 393 0000 00B5     		push	{lr}
 394              		.cfi_def_cfa_offset 4
 395              		.cfi_offset 14, -4
 396 0002 83B0     		sub	sp, sp, #12
 397              		.cfi_def_cfa_offset 16
 398 0004 0190     		str	r0, [sp, #4]
 399              		.loc 5 66 0
 400 0006 019B     		ldr	r3, [sp, #4]
 401 0008 93F84620 		ldrb	r2, [r3, #70]	@ zero_extendqisi2
 402 000c 019B     		ldr	r3, [sp, #4]
 403 000e 83F84E20 		strb	r2, [r3, #78]
 404              		.loc 5 67 0
 405 0012 0198     		ldr	r0, [sp, #4]
 406 0014 FFF7FEFF 		bl	usb_lld_set_address
 407              		.loc 5 68 0
 408 0018 019B     		ldr	r3, [sp, #4]
 409 001a 5B68     		ldr	r3, [r3, #4]
 410 001c 1B68     		ldr	r3, [r3]
 411 001e 002B     		cmp	r3, #0
 412 0020 05D0     		beq	.L16
 413              		.loc 5 68 0 is_stmt 0 discriminator 1
 414 0022 019B     		ldr	r3, [sp, #4]
 415 0024 5B68     		ldr	r3, [r3, #4]
 416 0026 1B68     		ldr	r3, [r3]
 417 0028 0198     		ldr	r0, [sp, #4]
 418 002a 0121     		movs	r1, #1
 419 002c 9847     		blx	r3
 420              	.L16:
 421              		.loc 5 69 0 is_stmt 1
 422 002e 019B     		ldr	r3, [sp, #4]
 423 0030 0322     		movs	r2, #3
 424 0032 1A70     		strb	r2, [r3]
 425              		.loc 5 70 0
 426 0034 03B0     		add	sp, sp, #12
 427              		@ sp needed
 428 0036 5DF804FB 		ldr	pc, [sp], #4
 429              		.cfi_endproc
 430              	.LFE272:
 431              		.size	set_address, .-set_address
 432 003a 00BFAFF3 		.section	.text.default_handler,"ax",%progbits
 432      0080
 433              		.align	2
 434              		.p2align 4,,15
 435              		.thumb
 436              		.thumb_func
 437              		.type	default_handler, %function
 438              	default_handler:
 439              	.LFB273:
 440              		.loc 5 84 0
 441              		.cfi_startproc
 442              		@ args = 0, pretend = 0, frame = 16
 443              		@ frame_needed = 0, uses_anonymous_args = 0
 444 0000 70B5     		push	{r4, r5, r6, lr}
 445              		.cfi_def_cfa_offset 16
ARM GAS  /tmp/cc1C8LBe.s 			page 9


 446              		.cfi_offset 4, -16
 447              		.cfi_offset 5, -12
 448              		.cfi_offset 6, -8
 449              		.cfi_offset 14, -4
 450 0002 84B0     		sub	sp, sp, #16
 451              		.cfi_def_cfa_offset 32
 452 0004 0190     		str	r0, [sp, #4]
 453              		.loc 5 88 0
 454 0006 019B     		ldr	r3, [sp, #4]
 455 0008 93F84430 		ldrb	r3, [r3, #68]	@ zero_extendqisi2
 456 000c 03F07F02 		and	r2, r3, #127
 457              		.loc 5 90 0
 458 0010 019B     		ldr	r3, [sp, #4]
 459 0012 93F84530 		ldrb	r3, [r3, #69]	@ zero_extendqisi2
 460 0016 1B02     		lsls	r3, r3, #8
 461              		.loc 5 89 0
 462 0018 1343     		orrs	r3, r3, r2
 463              		.loc 5 88 0
 464 001a B3F5407F 		cmp	r3, #768
 465 001e 5AD0     		beq	.L19
 466 0020 B3F5407F 		cmp	r3, #768
 467 0024 12D8     		bhi	.L20
 468 0026 022B     		cmp	r3, #2
 469 0028 00F0EE80 		beq	.L21
 470 002c 022B     		cmp	r3, #2
 471 002e 05D8     		bhi	.L22
 472 0030 002B     		cmp	r3, #0
 473 0032 28D0     		beq	.L23
 474 0034 012B     		cmp	r3, #1
 475 0036 00F0DC80 		beq	.L24
 476 003a A6E1     		b	.L18
 477              	.L22:
 478 003c B3F5807F 		cmp	r3, #256
 479 0040 2ED0     		beq	.L25
 480 0042 B3F5817F 		cmp	r3, #258
 481 0046 00F03681 		beq	.L26
 482 004a 9EE1     		b	.L18
 483              	.L20:
 484 004c B3F5C06F 		cmp	r3, #1536
 485 0050 74D0     		beq	.L27
 486 0052 B3F5C06F 		cmp	r3, #1536
 487 0056 08D8     		bhi	.L28
 488 0058 40F20232 		movw	r2, #770
 489 005c 9342     		cmp	r3, r2
 490 005e 00F05F81 		beq	.L29
 491 0062 B3F5A06F 		cmp	r3, #1280
 492 0066 51D0     		beq	.L30
 493 0068 8FE1     		b	.L18
 494              	.L28:
 495 006a B3F5106F 		cmp	r3, #2304
 496 006e 00F09880 		beq	.L31
 497 0072 40F60242 		movw	r2, #3074
 498 0076 9342     		cmp	r3, r2
 499 0078 00F0BB80 		beq	.L24
 500 007c B3F5006F 		cmp	r3, #2048
 501 0080 00F08280 		beq	.L32
 502 0084 81E1     		b	.L18
ARM GAS  /tmp/cc1C8LBe.s 			page 10


 503              	.L23:
 504              		.loc 5 93 0
 505 0086 019B     		ldr	r3, [sp, #4]
 506 0088 03F14C02 		add	r2, r3, #76
 507 008c 019B     		ldr	r3, [sp, #4]
 508 008e 9A63     		str	r2, [r3, #56]
 509 0090 019B     		ldr	r3, [sp, #4]
 510 0092 0222     		movs	r2, #2
 511 0094 DA63     		str	r2, [r3, #60]
 512 0096 019B     		ldr	r3, [sp, #4]
 513 0098 0022     		movs	r2, #0
 514 009a 1A64     		str	r2, [r3, #64]
 515              		.loc 5 94 0
 516 009c 0123     		movs	r3, #1
 517 009e 75E1     		b	.L33
 518              	.L25:
 519              		.loc 5 98 0
 520 00a0 019B     		ldr	r3, [sp, #4]
 521 00a2 93F84630 		ldrb	r3, [r3, #70]	@ zero_extendqisi2
 522 00a6 012B     		cmp	r3, #1
 523 00a8 13D1     		bne	.L34
 524              		.loc 5 99 0
 525 00aa 019B     		ldr	r3, [sp, #4]
 526 00ac B3F84C30 		ldrh	r3, [r3, #76]
 527 00b0 23F00203 		bic	r3, r3, #2
 528 00b4 9AB2     		uxth	r2, r3
 529 00b6 019B     		ldr	r3, [sp, #4]
 530 00b8 A3F84C20 		strh	r2, [r3, #76]	@ movhi
 531              		.loc 5 100 0
 532 00bc 019B     		ldr	r3, [sp, #4]
 533 00be 0022     		movs	r2, #0
 534 00c0 9A63     		str	r2, [r3, #56]
 535 00c2 019B     		ldr	r3, [sp, #4]
 536 00c4 0022     		movs	r2, #0
 537 00c6 DA63     		str	r2, [r3, #60]
 538 00c8 019B     		ldr	r3, [sp, #4]
 539 00ca 0022     		movs	r2, #0
 540 00cc 1A64     		str	r2, [r3, #64]
 541              		.loc 5 101 0
 542 00ce 0123     		movs	r3, #1
 543 00d0 5CE1     		b	.L33
 544              	.L34:
 545              		.loc 5 103 0
 546 00d2 0023     		movs	r3, #0
 547 00d4 5AE1     		b	.L33
 548              	.L19:
 549              		.loc 5 107 0
 550 00d6 019B     		ldr	r3, [sp, #4]
 551 00d8 93F84630 		ldrb	r3, [r3, #70]	@ zero_extendqisi2
 552 00dc 012B     		cmp	r3, #1
 553 00de 13D1     		bne	.L35
 554              		.loc 5 108 0
 555 00e0 019B     		ldr	r3, [sp, #4]
 556 00e2 B3F84C30 		ldrh	r3, [r3, #76]
 557 00e6 43F00203 		orr	r3, r3, #2
 558 00ea 9AB2     		uxth	r2, r3
 559 00ec 019B     		ldr	r3, [sp, #4]
ARM GAS  /tmp/cc1C8LBe.s 			page 11


 560 00ee A3F84C20 		strh	r2, [r3, #76]	@ movhi
 561              		.loc 5 109 0
 562 00f2 019B     		ldr	r3, [sp, #4]
 563 00f4 0022     		movs	r2, #0
 564 00f6 9A63     		str	r2, [r3, #56]
 565 00f8 019B     		ldr	r3, [sp, #4]
 566 00fa 0022     		movs	r2, #0
 567 00fc DA63     		str	r2, [r3, #60]
 568 00fe 019B     		ldr	r3, [sp, #4]
 569 0100 0022     		movs	r2, #0
 570 0102 1A64     		str	r2, [r3, #64]
 571              		.loc 5 110 0
 572 0104 0123     		movs	r3, #1
 573 0106 41E1     		b	.L33
 574              	.L35:
 575              		.loc 5 112 0
 576 0108 0023     		movs	r3, #0
 577 010a 3FE1     		b	.L33
 578              	.L30:
 579              		.loc 5 118 0
 580 010c 019B     		ldr	r3, [sp, #4]
 581 010e 93F84430 		ldrb	r3, [r3, #68]	@ zero_extendqisi2
 582 0112 002B     		cmp	r3, #0
 583 0114 07D1     		bne	.L36
 584              		.loc 5 119 0 discriminator 1
 585 0116 019B     		ldr	r3, [sp, #4]
 586 0118 93F84530 		ldrb	r3, [r3, #69]	@ zero_extendqisi2
 587              		.loc 5 118 0 discriminator 1
 588 011c 052B     		cmp	r3, #5
 589 011e 02D1     		bne	.L36
 590              		.loc 5 120 0
 591 0120 0198     		ldr	r0, [sp, #4]
 592 0122 FFF7FEFF 		bl	set_address
 593              	.L36:
 594              		.loc 5 122 0
 595 0126 019B     		ldr	r3, [sp, #4]
 596 0128 0022     		movs	r2, #0
 597 012a 9A63     		str	r2, [r3, #56]
 598 012c 019B     		ldr	r3, [sp, #4]
 599 012e 0022     		movs	r2, #0
 600 0130 DA63     		str	r2, [r3, #60]
 601 0132 019B     		ldr	r3, [sp, #4]
 602 0134 0022     		movs	r2, #0
 603 0136 1A64     		str	r2, [r3, #64]
 604              		.loc 5 126 0
 605 0138 0123     		movs	r3, #1
 606 013a 27E1     		b	.L33
 607              	.L27:
 608              		.loc 5 129 0
 609 013c 019B     		ldr	r3, [sp, #4]
 610 013e 5B68     		ldr	r3, [r3, #4]
 611 0140 5C68     		ldr	r4, [r3, #4]
 612 0142 019B     		ldr	r3, [sp, #4]
 613 0144 93F84760 		ldrb	r6, [r3, #71]	@ zero_extendqisi2
 614 0148 019B     		ldr	r3, [sp, #4]
 615 014a 93F84650 		ldrb	r5, [r3, #70]	@ zero_extendqisi2
 616 014e 019B     		ldr	r3, [sp, #4]
ARM GAS  /tmp/cc1C8LBe.s 			page 12


 617 0150 4833     		adds	r3, r3, #72
 618 0152 1846     		mov	r0, r3
 619 0154 FFF7FEFF 		bl	get_hword
 620 0158 0346     		mov	r3, r0
 621 015a 0198     		ldr	r0, [sp, #4]
 622 015c 3146     		mov	r1, r6
 623 015e 2A46     		mov	r2, r5
 624 0160 A047     		blx	r4
 625 0162 0390     		str	r0, [sp, #12]
 626              		.loc 5 132 0
 627 0164 039B     		ldr	r3, [sp, #12]
 628 0166 002B     		cmp	r3, #0
 629 0168 01D1     		bne	.L37
 630              		.loc 5 133 0
 631 016a 0023     		movs	r3, #0
 632 016c 0EE1     		b	.L33
 633              	.L37:
 634              		.loc 5 136 0
 635 016e 039B     		ldr	r3, [sp, #12]
 636 0170 5A68     		ldr	r2, [r3, #4]
 637 0172 019B     		ldr	r3, [sp, #4]
 638 0174 9A63     		str	r2, [r3, #56]
 639 0176 039B     		ldr	r3, [sp, #12]
 640 0178 1A68     		ldr	r2, [r3]
 641 017a 019B     		ldr	r3, [sp, #4]
 642 017c DA63     		str	r2, [r3, #60]
 643 017e 019B     		ldr	r3, [sp, #4]
 644 0180 0022     		movs	r2, #0
 645 0182 1A64     		str	r2, [r3, #64]
 646              		.loc 5 138 0
 647 0184 0123     		movs	r3, #1
 648 0186 01E1     		b	.L33
 649              	.L32:
 650              		.loc 5 141 0
 651 0188 019B     		ldr	r3, [sp, #4]
 652 018a 03F14F02 		add	r2, r3, #79
 653 018e 019B     		ldr	r3, [sp, #4]
 654 0190 9A63     		str	r2, [r3, #56]
 655 0192 019B     		ldr	r3, [sp, #4]
 656 0194 0122     		movs	r2, #1
 657 0196 DA63     		str	r2, [r3, #60]
 658 0198 019B     		ldr	r3, [sp, #4]
 659 019a 0022     		movs	r2, #0
 660 019c 1A64     		str	r2, [r3, #64]
 661              		.loc 5 142 0
 662 019e 0123     		movs	r3, #1
 663 01a0 F4E0     		b	.L33
 664              	.L31:
 665              		.loc 5 145 0
 666 01a2 019B     		ldr	r3, [sp, #4]
 667 01a4 93F84620 		ldrb	r2, [r3, #70]	@ zero_extendqisi2
 668 01a8 019B     		ldr	r3, [sp, #4]
 669 01aa 83F84F20 		strb	r2, [r3, #79]
 670              		.loc 5 146 0
 671 01ae 019B     		ldr	r3, [sp, #4]
 672 01b0 93F84F30 		ldrb	r3, [r3, #79]	@ zero_extendqisi2
 673 01b4 002B     		cmp	r3, #0
ARM GAS  /tmp/cc1C8LBe.s 			page 13


 674 01b6 03D1     		bne	.L38
 675              		.loc 5 147 0
 676 01b8 019B     		ldr	r3, [sp, #4]
 677 01ba 0322     		movs	r2, #3
 678 01bc 1A70     		strb	r2, [r3]
 679 01be 02E0     		b	.L39
 680              	.L38:
 681              		.loc 5 150 0
 682 01c0 019B     		ldr	r3, [sp, #4]
 683 01c2 0422     		movs	r2, #4
 684 01c4 1A70     		strb	r2, [r3]
 685              	.L39:
 686              		.loc 5 152 0
 687 01c6 019B     		ldr	r3, [sp, #4]
 688 01c8 5B68     		ldr	r3, [r3, #4]
 689 01ca 1B68     		ldr	r3, [r3]
 690 01cc 002B     		cmp	r3, #0
 691 01ce 05D0     		beq	.L40
 692              		.loc 5 152 0 is_stmt 0 discriminator 1
 693 01d0 019B     		ldr	r3, [sp, #4]
 694 01d2 5B68     		ldr	r3, [r3, #4]
 695 01d4 1B68     		ldr	r3, [r3]
 696 01d6 0198     		ldr	r0, [sp, #4]
 697 01d8 0221     		movs	r1, #2
 698 01da 9847     		blx	r3
 699              	.L40:
 700              		.loc 5 153 0 is_stmt 1
 701 01dc 019B     		ldr	r3, [sp, #4]
 702 01de 0022     		movs	r2, #0
 703 01e0 9A63     		str	r2, [r3, #56]
 704 01e2 019B     		ldr	r3, [sp, #4]
 705 01e4 0022     		movs	r2, #0
 706 01e6 DA63     		str	r2, [r3, #60]
 707 01e8 019B     		ldr	r3, [sp, #4]
 708 01ea 0022     		movs	r2, #0
 709 01ec 1A64     		str	r2, [r3, #64]
 710              		.loc 5 154 0
 711 01ee 0123     		movs	r3, #1
 712 01f0 CCE0     		b	.L33
 713              	.L24:
 714              		.loc 5 160 0
 715 01f2 019B     		ldr	r3, [sp, #4]
 716 01f4 674A     		ldr	r2, .L56
 717 01f6 9A63     		str	r2, [r3, #56]
 718 01f8 019B     		ldr	r3, [sp, #4]
 719 01fa 0222     		movs	r2, #2
 720 01fc DA63     		str	r2, [r3, #60]
 721 01fe 019B     		ldr	r3, [sp, #4]
 722 0200 0022     		movs	r2, #0
 723 0202 1A64     		str	r2, [r3, #64]
 724              		.loc 5 162 0
 725 0204 0123     		movs	r3, #1
 726 0206 C1E0     		b	.L33
 727              	.L21:
 728              		.loc 5 165 0
 729 0208 019B     		ldr	r3, [sp, #4]
 730 020a 93F84830 		ldrb	r3, [r3, #72]	@ zero_extendqisi2
ARM GAS  /tmp/cc1C8LBe.s 			page 14


 731 020e DBB2     		uxtb	r3, r3
 732 0210 5BB2     		sxtb	r3, r3
 733 0212 002B     		cmp	r3, #0
 734 0214 27DA     		bge	.L41
 735              		.loc 5 166 0
 736 0216 019B     		ldr	r3, [sp, #4]
 737 0218 93F84830 		ldrb	r3, [r3, #72]	@ zero_extendqisi2
 738 021c 03F00F03 		and	r3, r3, #15
 739 0220 DBB2     		uxtb	r3, r3
 740 0222 0198     		ldr	r0, [sp, #4]
 741 0224 1946     		mov	r1, r3
 742 0226 FFF7FEFF 		bl	usb_lld_get_status_in
 743 022a 0346     		mov	r3, r0
 744 022c 012B     		cmp	r3, #1
 745 022e 02D0     		beq	.L43
 746 0230 022B     		cmp	r3, #2
 747 0232 0BD0     		beq	.L44
 748 0234 15E0     		b	.L54
 749              	.L43:
 750              		.loc 5 169 0
 751 0236 019B     		ldr	r3, [sp, #4]
 752 0238 574A     		ldr	r2, .L56+4
 753 023a 9A63     		str	r2, [r3, #56]
 754 023c 019B     		ldr	r3, [sp, #4]
 755 023e 0222     		movs	r2, #2
 756 0240 DA63     		str	r2, [r3, #60]
 757 0242 019B     		ldr	r3, [sp, #4]
 758 0244 0022     		movs	r2, #0
 759 0246 1A64     		str	r2, [r3, #64]
 760              		.loc 5 171 0
 761 0248 0123     		movs	r3, #1
 762 024a 9FE0     		b	.L33
 763              	.L44:
 764              		.loc 5 174 0
 765 024c 019B     		ldr	r3, [sp, #4]
 766 024e 534A     		ldr	r2, .L56+8
 767 0250 9A63     		str	r2, [r3, #56]
 768 0252 019B     		ldr	r3, [sp, #4]
 769 0254 0222     		movs	r2, #2
 770 0256 DA63     		str	r2, [r3, #60]
 771 0258 019B     		ldr	r3, [sp, #4]
 772 025a 0022     		movs	r2, #0
 773 025c 1A64     		str	r2, [r3, #64]
 774              		.loc 5 176 0
 775 025e 0123     		movs	r3, #1
 776 0260 94E0     		b	.L33
 777              	.L54:
 778              		.loc 5 179 0
 779 0262 0023     		movs	r3, #0
 780 0264 92E0     		b	.L33
 781              	.L41:
 782              		.loc 5 183 0
 783 0266 019B     		ldr	r3, [sp, #4]
 784 0268 93F84830 		ldrb	r3, [r3, #72]	@ zero_extendqisi2
 785 026c 03F00F03 		and	r3, r3, #15
 786 0270 DBB2     		uxtb	r3, r3
 787 0272 0198     		ldr	r0, [sp, #4]
ARM GAS  /tmp/cc1C8LBe.s 			page 15


 788 0274 1946     		mov	r1, r3
 789 0276 FFF7FEFF 		bl	usb_lld_get_status_out
 790 027a 0346     		mov	r3, r0
 791 027c 012B     		cmp	r3, #1
 792 027e 02D0     		beq	.L46
 793 0280 022B     		cmp	r3, #2
 794 0282 0BD0     		beq	.L47
 795 0284 15E0     		b	.L55
 796              	.L46:
 797              		.loc 5 186 0
 798 0286 019B     		ldr	r3, [sp, #4]
 799 0288 434A     		ldr	r2, .L56+4
 800 028a 9A63     		str	r2, [r3, #56]
 801 028c 019B     		ldr	r3, [sp, #4]
 802 028e 0222     		movs	r2, #2
 803 0290 DA63     		str	r2, [r3, #60]
 804 0292 019B     		ldr	r3, [sp, #4]
 805 0294 0022     		movs	r2, #0
 806 0296 1A64     		str	r2, [r3, #64]
 807              		.loc 5 188 0
 808 0298 0123     		movs	r3, #1
 809 029a 77E0     		b	.L33
 810              	.L47:
 811              		.loc 5 191 0
 812 029c 019B     		ldr	r3, [sp, #4]
 813 029e 3F4A     		ldr	r2, .L56+8
 814 02a0 9A63     		str	r2, [r3, #56]
 815 02a2 019B     		ldr	r3, [sp, #4]
 816 02a4 0222     		movs	r2, #2
 817 02a6 DA63     		str	r2, [r3, #60]
 818 02a8 019B     		ldr	r3, [sp, #4]
 819 02aa 0022     		movs	r2, #0
 820 02ac 1A64     		str	r2, [r3, #64]
 821              		.loc 5 193 0
 822 02ae 0123     		movs	r3, #1
 823 02b0 6CE0     		b	.L33
 824              	.L55:
 825              		.loc 5 196 0
 826 02b2 0023     		movs	r3, #0
 827 02b4 6AE0     		b	.L33
 828              	.L26:
 829              		.loc 5 201 0
 830 02b6 019B     		ldr	r3, [sp, #4]
 831 02b8 93F84630 		ldrb	r3, [r3, #70]	@ zero_extendqisi2
 832 02bc 002B     		cmp	r3, #0
 833 02be 01D0     		beq	.L48
 834              		.loc 5 202 0
 835 02c0 0023     		movs	r3, #0
 836 02c2 63E0     		b	.L33
 837              	.L48:
 838              		.loc 5 205 0
 839 02c4 019B     		ldr	r3, [sp, #4]
 840 02c6 93F84830 		ldrb	r3, [r3, #72]	@ zero_extendqisi2
 841 02ca 03F00F03 		and	r3, r3, #15
 842 02ce 002B     		cmp	r3, #0
 843 02d0 1BD0     		beq	.L49
 844              		.loc 5 206 0
ARM GAS  /tmp/cc1C8LBe.s 			page 16


 845 02d2 019B     		ldr	r3, [sp, #4]
 846 02d4 93F84830 		ldrb	r3, [r3, #72]	@ zero_extendqisi2
 847 02d8 DBB2     		uxtb	r3, r3
 848 02da 5BB2     		sxtb	r3, r3
 849 02dc 002B     		cmp	r3, #0
 850 02de 0ADA     		bge	.L50
 851              		.loc 5 207 0
 852 02e0 019B     		ldr	r3, [sp, #4]
 853 02e2 93F84830 		ldrb	r3, [r3, #72]	@ zero_extendqisi2
 854 02e6 03F00F03 		and	r3, r3, #15
 855 02ea DBB2     		uxtb	r3, r3
 856 02ec 0198     		ldr	r0, [sp, #4]
 857 02ee 1946     		mov	r1, r3
 858 02f0 FFF7FEFF 		bl	usb_lld_clear_in
 859 02f4 09E0     		b	.L49
 860              	.L50:
 861              		.loc 5 210 0
 862 02f6 019B     		ldr	r3, [sp, #4]
 863 02f8 93F84830 		ldrb	r3, [r3, #72]	@ zero_extendqisi2
 864 02fc 03F00F03 		and	r3, r3, #15
 865 0300 DBB2     		uxtb	r3, r3
 866 0302 0198     		ldr	r0, [sp, #4]
 867 0304 1946     		mov	r1, r3
 868 0306 FFF7FEFF 		bl	usb_lld_clear_out
 869              	.L49:
 870              		.loc 5 213 0
 871 030a 019B     		ldr	r3, [sp, #4]
 872 030c 0022     		movs	r2, #0
 873 030e 9A63     		str	r2, [r3, #56]
 874 0310 019B     		ldr	r3, [sp, #4]
 875 0312 0022     		movs	r2, #0
 876 0314 DA63     		str	r2, [r3, #60]
 877 0316 019B     		ldr	r3, [sp, #4]
 878 0318 0022     		movs	r2, #0
 879 031a 1A64     		str	r2, [r3, #64]
 880              		.loc 5 214 0
 881 031c 0123     		movs	r3, #1
 882 031e 35E0     		b	.L33
 883              	.L29:
 884              		.loc 5 217 0
 885 0320 019B     		ldr	r3, [sp, #4]
 886 0322 93F84630 		ldrb	r3, [r3, #70]	@ zero_extendqisi2
 887 0326 002B     		cmp	r3, #0
 888 0328 01D0     		beq	.L51
 889              		.loc 5 218 0
 890 032a 0023     		movs	r3, #0
 891 032c 2EE0     		b	.L33
 892              	.L51:
 893              		.loc 5 221 0
 894 032e 019B     		ldr	r3, [sp, #4]
 895 0330 93F84830 		ldrb	r3, [r3, #72]	@ zero_extendqisi2
 896 0334 03F00F03 		and	r3, r3, #15
 897 0338 002B     		cmp	r3, #0
 898 033a 1BD0     		beq	.L52
 899              		.loc 5 222 0
 900 033c 019B     		ldr	r3, [sp, #4]
 901 033e 93F84830 		ldrb	r3, [r3, #72]	@ zero_extendqisi2
ARM GAS  /tmp/cc1C8LBe.s 			page 17


 902 0342 DBB2     		uxtb	r3, r3
 903 0344 5BB2     		sxtb	r3, r3
 904 0346 002B     		cmp	r3, #0
 905 0348 0ADA     		bge	.L53
 906              		.loc 5 223 0
 907 034a 019B     		ldr	r3, [sp, #4]
 908 034c 93F84830 		ldrb	r3, [r3, #72]	@ zero_extendqisi2
 909 0350 03F00F03 		and	r3, r3, #15
 910 0354 DBB2     		uxtb	r3, r3
 911 0356 0198     		ldr	r0, [sp, #4]
 912 0358 1946     		mov	r1, r3
 913 035a FFF7FEFF 		bl	usb_lld_stall_in
 914 035e 09E0     		b	.L52
 915              	.L53:
 916              		.loc 5 226 0
 917 0360 019B     		ldr	r3, [sp, #4]
 918 0362 93F84830 		ldrb	r3, [r3, #72]	@ zero_extendqisi2
 919 0366 03F00F03 		and	r3, r3, #15
 920 036a DBB2     		uxtb	r3, r3
 921 036c 0198     		ldr	r0, [sp, #4]
 922 036e 1946     		mov	r1, r3
 923 0370 FFF7FEFF 		bl	usb_lld_stall_out
 924              	.L52:
 925              		.loc 5 229 0
 926 0374 019B     		ldr	r3, [sp, #4]
 927 0376 0022     		movs	r2, #0
 928 0378 9A63     		str	r2, [r3, #56]
 929 037a 019B     		ldr	r3, [sp, #4]
 930 037c 0022     		movs	r2, #0
 931 037e DA63     		str	r2, [r3, #60]
 932 0380 019B     		ldr	r3, [sp, #4]
 933 0382 0022     		movs	r2, #0
 934 0384 1A64     		str	r2, [r3, #64]
 935              		.loc 5 230 0
 936 0386 0123     		movs	r3, #1
 937 0388 00E0     		b	.L33
 938              	.L18:
 939              		.loc 5 239 0
 940 038a 0023     		movs	r3, #0
 941              	.L33:
 942              		.loc 5 241 0
 943 038c 1846     		mov	r0, r3
 944 038e 04B0     		add	sp, sp, #16
 945              		@ sp needed
 946 0390 70BD     		pop	{r4, r5, r6, pc}
 947              	.L57:
 948 0392 00BF     		.align	2
 949              	.L56:
 950 0394 00000000 		.word	zero_status
 951 0398 00000000 		.word	halted_status
 952 039c 00000000 		.word	active_status
 953              		.cfi_endproc
 954              	.LFE273:
 955              		.size	default_handler, .-default_handler
 956              		.section	.text.usbInit,"ax",%progbits
 957              		.align	2
 958              		.p2align 4,,15
ARM GAS  /tmp/cc1C8LBe.s 			page 18


 959              		.global	usbInit
 960              		.thumb
 961              		.thumb_func
 962              		.type	usbInit, %function
 963              	usbInit:
 964              	.LFB274:
 965              		.loc 5 254 0
 966              		.cfi_startproc
 967              		@ args = 0, pretend = 0, frame = 0
 968              		@ frame_needed = 0, uses_anonymous_args = 0
 969 0000 08B5     		push	{r3, lr}
 970              		.cfi_def_cfa_offset 8
 971              		.cfi_offset 3, -8
 972              		.cfi_offset 14, -4
 973              		.loc 5 256 0
 974 0002 FFF7FEFF 		bl	usb_lld_init
 975              		.loc 5 257 0
 976 0006 08BD     		pop	{r3, pc}
 977              		.cfi_endproc
 978              	.LFE274:
 979              		.size	usbInit, .-usbInit
 980 0008 AFF30080 		.section	.text.usbObjectInit,"ax",%progbits
 980      AFF30080 
 981              		.align	2
 982              		.p2align 4,,15
 983              		.global	usbObjectInit
 984              		.thumb
 985              		.thumb_func
 986              		.type	usbObjectInit, %function
 987              	usbObjectInit:
 988              	.LFB275:
 989              		.loc 5 266 0
 990              		.cfi_startproc
 991              		@ args = 0, pretend = 0, frame = 16
 992              		@ frame_needed = 0, uses_anonymous_args = 0
 993              		@ link register save eliminated.
 994 0000 84B0     		sub	sp, sp, #16
 995              		.cfi_def_cfa_offset 16
 996 0002 0190     		str	r0, [sp, #4]
 997              		.loc 5 269 0
 998 0004 019B     		ldr	r3, [sp, #4]
 999 0006 0122     		movs	r2, #1
 1000 0008 1A70     		strb	r2, [r3]
 1001              		.loc 5 270 0
 1002 000a 019B     		ldr	r3, [sp, #4]
 1003 000c 0022     		movs	r2, #0
 1004 000e 5A60     		str	r2, [r3, #4]
 1005              		.loc 5 271 0
 1006 0010 0023     		movs	r3, #0
 1007 0012 0393     		str	r3, [sp, #12]
 1008 0014 0FE0     		b	.L60
 1009              	.L61:
 1010              		.loc 5 272 0 discriminator 2
 1011 0016 019A     		ldr	r2, [sp, #4]
 1012 0018 039B     		ldr	r3, [sp, #12]
 1013 001a 0633     		adds	r3, r3, #6
 1014 001c 9B00     		lsls	r3, r3, #2
ARM GAS  /tmp/cc1C8LBe.s 			page 19


 1015 001e 1344     		add	r3, r3, r2
 1016 0020 0022     		movs	r2, #0
 1017 0022 5A60     		str	r2, [r3, #4]
 1018              		.loc 5 273 0 discriminator 2
 1019 0024 019B     		ldr	r3, [sp, #4]
 1020 0026 039A     		ldr	r2, [sp, #12]
 1021 0028 0A32     		adds	r2, r2, #10
 1022 002a 0021     		movs	r1, #0
 1023 002c 43F82210 		str	r1, [r3, r2, lsl #2]
 1024              		.loc 5 271 0 discriminator 2
 1025 0030 039B     		ldr	r3, [sp, #12]
 1026 0032 0133     		adds	r3, r3, #1
 1027 0034 0393     		str	r3, [sp, #12]
 1028              	.L60:
 1029              		.loc 5 271 0 is_stmt 0 discriminator 1
 1030 0036 039B     		ldr	r3, [sp, #12]
 1031 0038 022B     		cmp	r3, #2
 1032 003a ECD9     		bls	.L61
 1033              		.loc 5 275 0 is_stmt 1
 1034 003c 019B     		ldr	r3, [sp, #4]
 1035 003e 0022     		movs	r2, #0
 1036 0040 1A81     		strh	r2, [r3, #8]	@ movhi
 1037              		.loc 5 276 0
 1038 0042 019B     		ldr	r3, [sp, #4]
 1039 0044 0022     		movs	r2, #0
 1040 0046 5A81     		strh	r2, [r3, #10]	@ movhi
 1041              		.loc 5 277 0
 1042 0048 04B0     		add	sp, sp, #16
 1043              		@ sp needed
 1044 004a 7047     		bx	lr
 1045              		.cfi_endproc
 1046              	.LFE275:
 1047              		.size	usbObjectInit, .-usbObjectInit
 1048 004c AFF30080 		.section	.text.usbStart,"ax",%progbits
 1049              		.align	2
 1050              		.p2align 4,,15
 1051              		.global	usbStart
 1052              		.thumb
 1053              		.thumb_func
 1054              		.type	usbStart, %function
 1055              	usbStart:
 1056              	.LFB276:
 1057              		.loc 5 287 0
 1058              		.cfi_startproc
 1059              		@ args = 0, pretend = 0, frame = 16
 1060              		@ frame_needed = 0, uses_anonymous_args = 0
 1061 0000 00B5     		push	{lr}
 1062              		.cfi_def_cfa_offset 4
 1063              		.cfi_offset 14, -4
 1064 0002 85B0     		sub	sp, sp, #20
 1065              		.cfi_def_cfa_offset 24
 1066 0004 0190     		str	r0, [sp, #4]
 1067 0006 0091     		str	r1, [sp]
 1068              		.loc 5 292 0
 1069 0008 FFF7FEFF 		bl	osalSysLock
 1070              		.loc 5 295 0
 1071 000c 019B     		ldr	r3, [sp, #4]
ARM GAS  /tmp/cc1C8LBe.s 			page 20


 1072 000e 009A     		ldr	r2, [sp]
 1073 0010 5A60     		str	r2, [r3, #4]
 1074              		.loc 5 296 0
 1075 0012 0023     		movs	r3, #0
 1076 0014 0393     		str	r3, [sp, #12]
 1077 0016 09E0     		b	.L63
 1078              	.L64:
 1079              		.loc 5 297 0 discriminator 2
 1080 0018 019A     		ldr	r2, [sp, #4]
 1081 001a 039B     		ldr	r3, [sp, #12]
 1082 001c 0233     		adds	r3, r3, #2
 1083 001e 9B00     		lsls	r3, r3, #2
 1084 0020 1344     		add	r3, r3, r2
 1085 0022 0022     		movs	r2, #0
 1086 0024 5A60     		str	r2, [r3, #4]
 1087              		.loc 5 296 0 discriminator 2
 1088 0026 039B     		ldr	r3, [sp, #12]
 1089 0028 0133     		adds	r3, r3, #1
 1090 002a 0393     		str	r3, [sp, #12]
 1091              	.L63:
 1092              		.loc 5 296 0 is_stmt 0 discriminator 1
 1093 002c 039B     		ldr	r3, [sp, #12]
 1094 002e 032B     		cmp	r3, #3
 1095 0030 F2D9     		bls	.L64
 1096              		.loc 5 299 0 is_stmt 1
 1097 0032 0198     		ldr	r0, [sp, #4]
 1098 0034 FFF7FEFF 		bl	usb_lld_start
 1099              		.loc 5 300 0
 1100 0038 019B     		ldr	r3, [sp, #4]
 1101 003a 0222     		movs	r2, #2
 1102 003c 1A70     		strb	r2, [r3]
 1103              		.loc 5 301 0
 1104 003e FFF7FEFF 		bl	osalSysUnlock
 1105              		.loc 5 302 0
 1106 0042 05B0     		add	sp, sp, #20
 1107              		@ sp needed
 1108 0044 5DF804FB 		ldr	pc, [sp], #4
 1109              		.cfi_endproc
 1110              	.LFE276:
 1111              		.size	usbStart, .-usbStart
 1112 0048 AFF30080 		.section	.text.usbStop,"ax",%progbits
 1112      AFF30080 
 1113              		.align	2
 1114              		.p2align 4,,15
 1115              		.global	usbStop
 1116              		.thumb
 1117              		.thumb_func
 1118              		.type	usbStop, %function
 1119              	usbStop:
 1120              	.LFB277:
 1121              		.loc 5 311 0
 1122              		.cfi_startproc
 1123              		@ args = 0, pretend = 0, frame = 8
 1124              		@ frame_needed = 0, uses_anonymous_args = 0
 1125 0000 00B5     		push	{lr}
 1126              		.cfi_def_cfa_offset 4
 1127              		.cfi_offset 14, -4
ARM GAS  /tmp/cc1C8LBe.s 			page 21


 1128 0002 83B0     		sub	sp, sp, #12
 1129              		.cfi_def_cfa_offset 16
 1130 0004 0190     		str	r0, [sp, #4]
 1131              		.loc 5 315 0
 1132 0006 FFF7FEFF 		bl	osalSysLock
 1133              		.loc 5 319 0
 1134 000a 0198     		ldr	r0, [sp, #4]
 1135 000c FFF7FEFF 		bl	usb_lld_stop
 1136              		.loc 5 320 0
 1137 0010 019B     		ldr	r3, [sp, #4]
 1138 0012 0122     		movs	r2, #1
 1139 0014 1A70     		strb	r2, [r3]
 1140              		.loc 5 321 0
 1141 0016 FFF7FEFF 		bl	osalSysUnlock
 1142              		.loc 5 322 0
 1143 001a 03B0     		add	sp, sp, #12
 1144              		@ sp needed
 1145 001c 5DF804FB 		ldr	pc, [sp], #4
 1146              		.cfi_endproc
 1147              	.LFE277:
 1148              		.size	usbStop, .-usbStop
 1149              		.section	.text.usbInitEndpointI,"ax",%progbits
 1150              		.align	2
 1151              		.p2align 4,,15
 1152              		.global	usbInitEndpointI
 1153              		.thumb
 1154              		.thumb_func
 1155              		.type	usbInitEndpointI, %function
 1156              	usbInitEndpointI:
 1157              	.LFB278:
 1158              		.loc 5 338 0
 1159              		.cfi_startproc
 1160              		@ args = 0, pretend = 0, frame = 16
 1161              		@ frame_needed = 0, uses_anonymous_args = 0
 1162 0000 00B5     		push	{lr}
 1163              		.cfi_def_cfa_offset 4
 1164              		.cfi_offset 14, -4
 1165 0002 85B0     		sub	sp, sp, #20
 1166              		.cfi_def_cfa_offset 24
 1167 0004 0390     		str	r0, [sp, #12]
 1168 0006 0B46     		mov	r3, r1
 1169 0008 0192     		str	r2, [sp, #4]
 1170 000a 8DF80B30 		strb	r3, [sp, #11]
 1171              		.loc 5 347 0
 1172 000e 019B     		ldr	r3, [sp, #4]
 1173 0010 5B69     		ldr	r3, [r3, #20]
 1174 0012 002B     		cmp	r3, #0
 1175 0014 06D0     		beq	.L67
 1176              		.loc 5 348 0
 1177 0016 019B     		ldr	r3, [sp, #4]
 1178 0018 5B69     		ldr	r3, [r3, #20]
 1179 001a 1846     		mov	r0, r3
 1180 001c 0021     		movs	r1, #0
 1181 001e 1422     		movs	r2, #20
 1182 0020 FFF7FEFF 		bl	memset
 1183              	.L67:
 1184              		.loc 5 350 0
ARM GAS  /tmp/cc1C8LBe.s 			page 22


 1185 0024 019B     		ldr	r3, [sp, #4]
 1186 0026 9B69     		ldr	r3, [r3, #24]
 1187 0028 002B     		cmp	r3, #0
 1188 002a 06D0     		beq	.L68
 1189              		.loc 5 351 0
 1190 002c 019B     		ldr	r3, [sp, #4]
 1191 002e 9B69     		ldr	r3, [r3, #24]
 1192 0030 1846     		mov	r0, r3
 1193 0032 0021     		movs	r1, #0
 1194 0034 1422     		movs	r2, #20
 1195 0036 FFF7FEFF 		bl	memset
 1196              	.L68:
 1197              		.loc 5 354 0
 1198 003a 9DF80B30 		ldrb	r3, [sp, #11]	@ zero_extendqisi2
 1199 003e 039A     		ldr	r2, [sp, #12]
 1200 0040 0233     		adds	r3, r3, #2
 1201 0042 9B00     		lsls	r3, r3, #2
 1202 0044 1344     		add	r3, r3, r2
 1203 0046 019A     		ldr	r2, [sp, #4]
 1204 0048 5A60     		str	r2, [r3, #4]
 1205              		.loc 5 357 0
 1206 004a 9DF80B30 		ldrb	r3, [sp, #11]	@ zero_extendqisi2
 1207 004e 0398     		ldr	r0, [sp, #12]
 1208 0050 1946     		mov	r1, r3
 1209 0052 FFF7FEFF 		bl	usb_lld_init_endpoint
 1210              		.loc 5 358 0
 1211 0056 05B0     		add	sp, sp, #20
 1212              		@ sp needed
 1213 0058 5DF804FB 		ldr	pc, [sp], #4
 1214              		.cfi_endproc
 1215              	.LFE278:
 1216              		.size	usbInitEndpointI, .-usbInitEndpointI
 1217 005c AFF30080 		.section	.text.usbDisableEndpointsI,"ax",%progbits
 1218              		.align	2
 1219              		.p2align 4,,15
 1220              		.global	usbDisableEndpointsI
 1221              		.thumb
 1222              		.thumb_func
 1223              		.type	usbDisableEndpointsI, %function
 1224              	usbDisableEndpointsI:
 1225              	.LFB279:
 1226              		.loc 5 371 0
 1227              		.cfi_startproc
 1228              		@ args = 0, pretend = 0, frame = 16
 1229              		@ frame_needed = 0, uses_anonymous_args = 0
 1230 0000 00B5     		push	{lr}
 1231              		.cfi_def_cfa_offset 4
 1232              		.cfi_offset 14, -4
 1233 0002 85B0     		sub	sp, sp, #20
 1234              		.cfi_def_cfa_offset 24
 1235 0004 0190     		str	r0, [sp, #4]
 1236              		.loc 5 378 0
 1237 0006 019B     		ldr	r3, [sp, #4]
 1238 0008 1B89     		ldrh	r3, [r3, #8]
 1239 000a 23F00103 		bic	r3, r3, #1
 1240 000e 9AB2     		uxth	r2, r3
 1241 0010 019B     		ldr	r3, [sp, #4]
ARM GAS  /tmp/cc1C8LBe.s 			page 23


 1242 0012 1A81     		strh	r2, [r3, #8]	@ movhi
 1243              		.loc 5 379 0
 1244 0014 019B     		ldr	r3, [sp, #4]
 1245 0016 5B89     		ldrh	r3, [r3, #10]
 1246 0018 23F00103 		bic	r3, r3, #1
 1247 001c 9AB2     		uxth	r2, r3
 1248 001e 019B     		ldr	r3, [sp, #4]
 1249 0020 5A81     		strh	r2, [r3, #10]	@ movhi
 1250              		.loc 5 380 0
 1251 0022 0123     		movs	r3, #1
 1252 0024 0393     		str	r3, [sp, #12]
 1253 0026 09E0     		b	.L70
 1254              	.L71:
 1255              		.loc 5 381 0 discriminator 2
 1256 0028 019A     		ldr	r2, [sp, #4]
 1257 002a 039B     		ldr	r3, [sp, #12]
 1258 002c 0233     		adds	r3, r3, #2
 1259 002e 9B00     		lsls	r3, r3, #2
 1260 0030 1344     		add	r3, r3, r2
 1261 0032 0022     		movs	r2, #0
 1262 0034 5A60     		str	r2, [r3, #4]
 1263              		.loc 5 380 0 discriminator 2
 1264 0036 039B     		ldr	r3, [sp, #12]
 1265 0038 0133     		adds	r3, r3, #1
 1266 003a 0393     		str	r3, [sp, #12]
 1267              	.L70:
 1268              		.loc 5 380 0 is_stmt 0 discriminator 1
 1269 003c 039B     		ldr	r3, [sp, #12]
 1270 003e 032B     		cmp	r3, #3
 1271 0040 F2D9     		bls	.L71
 1272              		.loc 5 385 0 is_stmt 1
 1273 0042 0198     		ldr	r0, [sp, #4]
 1274 0044 FFF7FEFF 		bl	usb_lld_disable_endpoints
 1275              		.loc 5 386 0
 1276 0048 05B0     		add	sp, sp, #20
 1277              		@ sp needed
 1278 004a 5DF804FB 		ldr	pc, [sp], #4
 1279              		.cfi_endproc
 1280              	.LFE279:
 1281              		.size	usbDisableEndpointsI, .-usbDisableEndpointsI
 1282 004e 00BF     		.section	.text.usbPrepareReceive,"ax",%progbits
 1283              		.align	2
 1284              		.p2align 4,,15
 1285              		.global	usbPrepareReceive
 1286              		.thumb
 1287              		.thumb_func
 1288              		.type	usbPrepareReceive, %function
 1289              	usbPrepareReceive:
 1290              	.LFB280:
 1291              		.loc 5 400 0
 1292              		.cfi_startproc
 1293              		@ args = 0, pretend = 0, frame = 24
 1294              		@ frame_needed = 0, uses_anonymous_args = 0
 1295 0000 00B5     		push	{lr}
 1296              		.cfi_def_cfa_offset 4
 1297              		.cfi_offset 14, -4
 1298 0002 87B0     		sub	sp, sp, #28
ARM GAS  /tmp/cc1C8LBe.s 			page 24


 1299              		.cfi_def_cfa_offset 32
 1300 0004 0390     		str	r0, [sp, #12]
 1301 0006 0192     		str	r2, [sp, #4]
 1302 0008 0093     		str	r3, [sp]
 1303 000a 0B46     		mov	r3, r1
 1304 000c 8DF80B30 		strb	r3, [sp, #11]
 1305              		.loc 5 401 0
 1306 0010 9DF80B30 		ldrb	r3, [sp, #11]	@ zero_extendqisi2
 1307 0014 039A     		ldr	r2, [sp, #12]
 1308 0016 0233     		adds	r3, r3, #2
 1309 0018 9B00     		lsls	r3, r3, #2
 1310 001a 1344     		add	r3, r3, r2
 1311 001c 5B68     		ldr	r3, [r3, #4]
 1312 001e 9B69     		ldr	r3, [r3, #24]
 1313 0020 0593     		str	r3, [sp, #20]
 1314              		.loc 5 403 0
 1315 0022 059B     		ldr	r3, [sp, #20]
 1316 0024 0022     		movs	r2, #0
 1317 0026 1A70     		strb	r2, [r3]
 1318              		.loc 5 404 0
 1319 0028 059B     		ldr	r3, [sp, #20]
 1320 002a 019A     		ldr	r2, [sp, #4]
 1321 002c DA60     		str	r2, [r3, #12]
 1322              		.loc 5 405 0
 1323 002e 059B     		ldr	r3, [sp, #20]
 1324 0030 009A     		ldr	r2, [sp]
 1325 0032 5A60     		str	r2, [r3, #4]
 1326              		.loc 5 406 0
 1327 0034 059B     		ldr	r3, [sp, #20]
 1328 0036 0022     		movs	r2, #0
 1329 0038 9A60     		str	r2, [r3, #8]
 1330              		.loc 5 408 0
 1331 003a 9DF80B30 		ldrb	r3, [sp, #11]	@ zero_extendqisi2
 1332 003e 0398     		ldr	r0, [sp, #12]
 1333 0040 1946     		mov	r1, r3
 1334 0042 FFF7FEFF 		bl	usb_lld_prepare_receive
 1335              		.loc 5 409 0
 1336 0046 07B0     		add	sp, sp, #28
 1337              		@ sp needed
 1338 0048 5DF804FB 		ldr	pc, [sp], #4
 1339              		.cfi_endproc
 1340              	.LFE280:
 1341              		.size	usbPrepareReceive, .-usbPrepareReceive
 1342 004c AFF30080 		.section	.text.usbPrepareTransmit,"ax",%progbits
 1343              		.align	2
 1344              		.p2align 4,,15
 1345              		.global	usbPrepareTransmit
 1346              		.thumb
 1347              		.thumb_func
 1348              		.type	usbPrepareTransmit, %function
 1349              	usbPrepareTransmit:
 1350              	.LFB281:
 1351              		.loc 5 426 0
 1352              		.cfi_startproc
 1353              		@ args = 0, pretend = 0, frame = 24
 1354              		@ frame_needed = 0, uses_anonymous_args = 0
 1355 0000 00B5     		push	{lr}
ARM GAS  /tmp/cc1C8LBe.s 			page 25


 1356              		.cfi_def_cfa_offset 4
 1357              		.cfi_offset 14, -4
 1358 0002 87B0     		sub	sp, sp, #28
 1359              		.cfi_def_cfa_offset 32
 1360 0004 0390     		str	r0, [sp, #12]
 1361 0006 0192     		str	r2, [sp, #4]
 1362 0008 0093     		str	r3, [sp]
 1363 000a 0B46     		mov	r3, r1
 1364 000c 8DF80B30 		strb	r3, [sp, #11]
 1365              		.loc 5 427 0
 1366 0010 9DF80B30 		ldrb	r3, [sp, #11]	@ zero_extendqisi2
 1367 0014 039A     		ldr	r2, [sp, #12]
 1368 0016 0233     		adds	r3, r3, #2
 1369 0018 9B00     		lsls	r3, r3, #2
 1370 001a 1344     		add	r3, r3, r2
 1371 001c 5B68     		ldr	r3, [r3, #4]
 1372 001e 5B69     		ldr	r3, [r3, #20]
 1373 0020 0593     		str	r3, [sp, #20]
 1374              		.loc 5 429 0
 1375 0022 059B     		ldr	r3, [sp, #20]
 1376 0024 0022     		movs	r2, #0
 1377 0026 1A70     		strb	r2, [r3]
 1378              		.loc 5 430 0
 1379 0028 059B     		ldr	r3, [sp, #20]
 1380 002a 019A     		ldr	r2, [sp, #4]
 1381 002c DA60     		str	r2, [r3, #12]
 1382              		.loc 5 431 0
 1383 002e 059B     		ldr	r3, [sp, #20]
 1384 0030 009A     		ldr	r2, [sp]
 1385 0032 5A60     		str	r2, [r3, #4]
 1386              		.loc 5 432 0
 1387 0034 059B     		ldr	r3, [sp, #20]
 1388 0036 0022     		movs	r2, #0
 1389 0038 9A60     		str	r2, [r3, #8]
 1390              		.loc 5 434 0
 1391 003a 9DF80B30 		ldrb	r3, [sp, #11]	@ zero_extendqisi2
 1392 003e 0398     		ldr	r0, [sp, #12]
 1393 0040 1946     		mov	r1, r3
 1394 0042 FFF7FEFF 		bl	usb_lld_prepare_transmit
 1395              		.loc 5 435 0
 1396 0046 07B0     		add	sp, sp, #28
 1397              		@ sp needed
 1398 0048 5DF804FB 		ldr	pc, [sp], #4
 1399              		.cfi_endproc
 1400              	.LFE281:
 1401              		.size	usbPrepareTransmit, .-usbPrepareTransmit
 1402 004c AFF30080 		.section	.text.usbPrepareQueuedReceive,"ax",%progbits
 1403              		.align	2
 1404              		.p2align 4,,15
 1405              		.global	usbPrepareQueuedReceive
 1406              		.thumb
 1407              		.thumb_func
 1408              		.type	usbPrepareQueuedReceive, %function
 1409              	usbPrepareQueuedReceive:
 1410              	.LFB282:
 1411              		.loc 5 455 0
 1412              		.cfi_startproc
ARM GAS  /tmp/cc1C8LBe.s 			page 26


 1413              		@ args = 0, pretend = 0, frame = 24
 1414              		@ frame_needed = 0, uses_anonymous_args = 0
 1415 0000 00B5     		push	{lr}
 1416              		.cfi_def_cfa_offset 4
 1417              		.cfi_offset 14, -4
 1418 0002 87B0     		sub	sp, sp, #28
 1419              		.cfi_def_cfa_offset 32
 1420 0004 0390     		str	r0, [sp, #12]
 1421 0006 0192     		str	r2, [sp, #4]
 1422 0008 0093     		str	r3, [sp]
 1423 000a 0B46     		mov	r3, r1
 1424 000c 8DF80B30 		strb	r3, [sp, #11]
 1425              		.loc 5 456 0
 1426 0010 9DF80B30 		ldrb	r3, [sp, #11]	@ zero_extendqisi2
 1427 0014 039A     		ldr	r2, [sp, #12]
 1428 0016 0233     		adds	r3, r3, #2
 1429 0018 9B00     		lsls	r3, r3, #2
 1430 001a 1344     		add	r3, r3, r2
 1431 001c 5B68     		ldr	r3, [r3, #4]
 1432 001e 9B69     		ldr	r3, [r3, #24]
 1433 0020 0593     		str	r3, [sp, #20]
 1434              		.loc 5 458 0
 1435 0022 059B     		ldr	r3, [sp, #20]
 1436 0024 0122     		movs	r2, #1
 1437 0026 1A70     		strb	r2, [r3]
 1438              		.loc 5 459 0
 1439 0028 059B     		ldr	r3, [sp, #20]
 1440 002a 019A     		ldr	r2, [sp, #4]
 1441 002c DA60     		str	r2, [r3, #12]
 1442              		.loc 5 460 0
 1443 002e 059B     		ldr	r3, [sp, #20]
 1444 0030 009A     		ldr	r2, [sp]
 1445 0032 5A60     		str	r2, [r3, #4]
 1446              		.loc 5 461 0
 1447 0034 059B     		ldr	r3, [sp, #20]
 1448 0036 0022     		movs	r2, #0
 1449 0038 9A60     		str	r2, [r3, #8]
 1450              		.loc 5 463 0
 1451 003a 9DF80B30 		ldrb	r3, [sp, #11]	@ zero_extendqisi2
 1452 003e 0398     		ldr	r0, [sp, #12]
 1453 0040 1946     		mov	r1, r3
 1454 0042 FFF7FEFF 		bl	usb_lld_prepare_receive
 1455              		.loc 5 464 0
 1456 0046 07B0     		add	sp, sp, #28
 1457              		@ sp needed
 1458 0048 5DF804FB 		ldr	pc, [sp], #4
 1459              		.cfi_endproc
 1460              	.LFE282:
 1461              		.size	usbPrepareQueuedReceive, .-usbPrepareQueuedReceive
 1462 004c AFF30080 		.section	.text.usbPrepareQueuedTransmit,"ax",%progbits
 1463              		.align	2
 1464              		.p2align 4,,15
 1465              		.global	usbPrepareQueuedTransmit
 1466              		.thumb
 1467              		.thumb_func
 1468              		.type	usbPrepareQueuedTransmit, %function
 1469              	usbPrepareQueuedTransmit:
ARM GAS  /tmp/cc1C8LBe.s 			page 27


 1470              	.LFB283:
 1471              		.loc 5 481 0
 1472              		.cfi_startproc
 1473              		@ args = 0, pretend = 0, frame = 24
 1474              		@ frame_needed = 0, uses_anonymous_args = 0
 1475 0000 00B5     		push	{lr}
 1476              		.cfi_def_cfa_offset 4
 1477              		.cfi_offset 14, -4
 1478 0002 87B0     		sub	sp, sp, #28
 1479              		.cfi_def_cfa_offset 32
 1480 0004 0390     		str	r0, [sp, #12]
 1481 0006 0192     		str	r2, [sp, #4]
 1482 0008 0093     		str	r3, [sp]
 1483 000a 0B46     		mov	r3, r1
 1484 000c 8DF80B30 		strb	r3, [sp, #11]
 1485              		.loc 5 482 0
 1486 0010 9DF80B30 		ldrb	r3, [sp, #11]	@ zero_extendqisi2
 1487 0014 039A     		ldr	r2, [sp, #12]
 1488 0016 0233     		adds	r3, r3, #2
 1489 0018 9B00     		lsls	r3, r3, #2
 1490 001a 1344     		add	r3, r3, r2
 1491 001c 5B68     		ldr	r3, [r3, #4]
 1492 001e 5B69     		ldr	r3, [r3, #20]
 1493 0020 0593     		str	r3, [sp, #20]
 1494              		.loc 5 484 0
 1495 0022 059B     		ldr	r3, [sp, #20]
 1496 0024 0122     		movs	r2, #1
 1497 0026 1A70     		strb	r2, [r3]
 1498              		.loc 5 485 0
 1499 0028 059B     		ldr	r3, [sp, #20]
 1500 002a 019A     		ldr	r2, [sp, #4]
 1501 002c DA60     		str	r2, [r3, #12]
 1502              		.loc 5 486 0
 1503 002e 059B     		ldr	r3, [sp, #20]
 1504 0030 009A     		ldr	r2, [sp]
 1505 0032 5A60     		str	r2, [r3, #4]
 1506              		.loc 5 487 0
 1507 0034 059B     		ldr	r3, [sp, #20]
 1508 0036 0022     		movs	r2, #0
 1509 0038 9A60     		str	r2, [r3, #8]
 1510              		.loc 5 489 0
 1511 003a 9DF80B30 		ldrb	r3, [sp, #11]	@ zero_extendqisi2
 1512 003e 0398     		ldr	r0, [sp, #12]
 1513 0040 1946     		mov	r1, r3
 1514 0042 FFF7FEFF 		bl	usb_lld_prepare_transmit
 1515              		.loc 5 490 0
 1516 0046 07B0     		add	sp, sp, #28
 1517              		@ sp needed
 1518 0048 5DF804FB 		ldr	pc, [sp], #4
 1519              		.cfi_endproc
 1520              	.LFE283:
 1521              		.size	usbPrepareQueuedTransmit, .-usbPrepareQueuedTransmit
 1522 004c AFF30080 		.section	.text.usbStartReceiveI,"ax",%progbits
 1523              		.align	2
 1524              		.p2align 4,,15
 1525              		.global	usbStartReceiveI
 1526              		.thumb
ARM GAS  /tmp/cc1C8LBe.s 			page 28


 1527              		.thumb_func
 1528              		.type	usbStartReceiveI, %function
 1529              	usbStartReceiveI:
 1530              	.LFB284:
 1531              		.loc 5 506 0
 1532              		.cfi_startproc
 1533              		@ args = 0, pretend = 0, frame = 8
 1534              		@ frame_needed = 0, uses_anonymous_args = 0
 1535 0000 00B5     		push	{lr}
 1536              		.cfi_def_cfa_offset 4
 1537              		.cfi_offset 14, -4
 1538 0002 83B0     		sub	sp, sp, #12
 1539              		.cfi_def_cfa_offset 16
 1540 0004 0190     		str	r0, [sp, #4]
 1541 0006 0B46     		mov	r3, r1
 1542 0008 8DF80330 		strb	r3, [sp, #3]
 1543              		.loc 5 511 0
 1544 000c 019B     		ldr	r3, [sp, #4]
 1545 000e 5A89     		ldrh	r2, [r3, #10]
 1546 0010 9DF80330 		ldrb	r3, [sp, #3]	@ zero_extendqisi2
 1547 0014 0121     		movs	r1, #1
 1548 0016 01FA03F3 		lsl	r3, r1, r3
 1549 001a 9BB2     		uxth	r3, r3
 1550 001c 1340     		ands	r3, r3, r2
 1551 001e 9BB2     		uxth	r3, r3
 1552 0020 002B     		cmp	r3, #0
 1553 0022 01D0     		beq	.L77
 1554              		.loc 5 512 0
 1555 0024 0123     		movs	r3, #1
 1556 0026 12E0     		b	.L78
 1557              	.L77:
 1558              		.loc 5 515 0
 1559 0028 019B     		ldr	r3, [sp, #4]
 1560 002a 5A89     		ldrh	r2, [r3, #10]
 1561 002c 9DF80330 		ldrb	r3, [sp, #3]	@ zero_extendqisi2
 1562 0030 0121     		movs	r1, #1
 1563 0032 01FA03F3 		lsl	r3, r1, r3
 1564 0036 9BB2     		uxth	r3, r3
 1565 0038 1343     		orrs	r3, r3, r2
 1566 003a 9AB2     		uxth	r2, r3
 1567 003c 019B     		ldr	r3, [sp, #4]
 1568 003e 5A81     		strh	r2, [r3, #10]	@ movhi
 1569              		.loc 5 516 0
 1570 0040 9DF80330 		ldrb	r3, [sp, #3]	@ zero_extendqisi2
 1571 0044 0198     		ldr	r0, [sp, #4]
 1572 0046 1946     		mov	r1, r3
 1573 0048 FFF7FEFF 		bl	usb_lld_start_out
 1574              		.loc 5 517 0
 1575 004c 0023     		movs	r3, #0
 1576              	.L78:
 1577              		.loc 5 518 0
 1578 004e 1846     		mov	r0, r3
 1579 0050 03B0     		add	sp, sp, #12
 1580              		@ sp needed
 1581 0052 5DF804FB 		ldr	pc, [sp], #4
 1582              		.cfi_endproc
 1583              	.LFE284:
ARM GAS  /tmp/cc1C8LBe.s 			page 29


 1584              		.size	usbStartReceiveI, .-usbStartReceiveI
 1585 0056 00BFAFF3 		.section	.text.usbStartTransmitI,"ax",%progbits
 1585      0080AFF3 
 1585      0080
 1586              		.align	2
 1587              		.p2align 4,,15
 1588              		.global	usbStartTransmitI
 1589              		.thumb
 1590              		.thumb_func
 1591              		.type	usbStartTransmitI, %function
 1592              	usbStartTransmitI:
 1593              	.LFB285:
 1594              		.loc 5 534 0
 1595              		.cfi_startproc
 1596              		@ args = 0, pretend = 0, frame = 8
 1597              		@ frame_needed = 0, uses_anonymous_args = 0
 1598 0000 00B5     		push	{lr}
 1599              		.cfi_def_cfa_offset 4
 1600              		.cfi_offset 14, -4
 1601 0002 83B0     		sub	sp, sp, #12
 1602              		.cfi_def_cfa_offset 16
 1603 0004 0190     		str	r0, [sp, #4]
 1604 0006 0B46     		mov	r3, r1
 1605 0008 8DF80330 		strb	r3, [sp, #3]
 1606              		.loc 5 539 0
 1607 000c 019B     		ldr	r3, [sp, #4]
 1608 000e 1A89     		ldrh	r2, [r3, #8]
 1609 0010 9DF80330 		ldrb	r3, [sp, #3]	@ zero_extendqisi2
 1610 0014 0121     		movs	r1, #1
 1611 0016 01FA03F3 		lsl	r3, r1, r3
 1612 001a 9BB2     		uxth	r3, r3
 1613 001c 1340     		ands	r3, r3, r2
 1614 001e 9BB2     		uxth	r3, r3
 1615 0020 002B     		cmp	r3, #0
 1616 0022 01D0     		beq	.L80
 1617              		.loc 5 540 0
 1618 0024 0123     		movs	r3, #1
 1619 0026 12E0     		b	.L81
 1620              	.L80:
 1621              		.loc 5 543 0
 1622 0028 019B     		ldr	r3, [sp, #4]
 1623 002a 1A89     		ldrh	r2, [r3, #8]
 1624 002c 9DF80330 		ldrb	r3, [sp, #3]	@ zero_extendqisi2
 1625 0030 0121     		movs	r1, #1
 1626 0032 01FA03F3 		lsl	r3, r1, r3
 1627 0036 9BB2     		uxth	r3, r3
 1628 0038 1343     		orrs	r3, r3, r2
 1629 003a 9AB2     		uxth	r2, r3
 1630 003c 019B     		ldr	r3, [sp, #4]
 1631 003e 1A81     		strh	r2, [r3, #8]	@ movhi
 1632              		.loc 5 544 0
 1633 0040 9DF80330 		ldrb	r3, [sp, #3]	@ zero_extendqisi2
 1634 0044 0198     		ldr	r0, [sp, #4]
 1635 0046 1946     		mov	r1, r3
 1636 0048 FFF7FEFF 		bl	usb_lld_start_in
 1637              		.loc 5 545 0
 1638 004c 0023     		movs	r3, #0
ARM GAS  /tmp/cc1C8LBe.s 			page 30


 1639              	.L81:
 1640              		.loc 5 546 0
 1641 004e 1846     		mov	r0, r3
 1642 0050 03B0     		add	sp, sp, #12
 1643              		@ sp needed
 1644 0052 5DF804FB 		ldr	pc, [sp], #4
 1645              		.cfi_endproc
 1646              	.LFE285:
 1647              		.size	usbStartTransmitI, .-usbStartTransmitI
 1648 0056 00BFAFF3 		.section	.text.usbStallReceiveI,"ax",%progbits
 1648      0080AFF3 
 1648      0080
 1649              		.align	2
 1650              		.p2align 4,,15
 1651              		.global	usbStallReceiveI
 1652              		.thumb
 1653              		.thumb_func
 1654              		.type	usbStallReceiveI, %function
 1655              	usbStallReceiveI:
 1656              	.LFB286:
 1657              		.loc 5 560 0
 1658              		.cfi_startproc
 1659              		@ args = 0, pretend = 0, frame = 8
 1660              		@ frame_needed = 0, uses_anonymous_args = 0
 1661 0000 00B5     		push	{lr}
 1662              		.cfi_def_cfa_offset 4
 1663              		.cfi_offset 14, -4
 1664 0002 83B0     		sub	sp, sp, #12
 1665              		.cfi_def_cfa_offset 16
 1666 0004 0190     		str	r0, [sp, #4]
 1667 0006 0B46     		mov	r3, r1
 1668 0008 8DF80330 		strb	r3, [sp, #3]
 1669              		.loc 5 565 0
 1670 000c 019B     		ldr	r3, [sp, #4]
 1671 000e 5A89     		ldrh	r2, [r3, #10]
 1672 0010 9DF80330 		ldrb	r3, [sp, #3]	@ zero_extendqisi2
 1673 0014 0121     		movs	r1, #1
 1674 0016 01FA03F3 		lsl	r3, r1, r3
 1675 001a 9BB2     		uxth	r3, r3
 1676 001c 1340     		ands	r3, r3, r2
 1677 001e 9BB2     		uxth	r3, r3
 1678 0020 002B     		cmp	r3, #0
 1679 0022 01D0     		beq	.L83
 1680              		.loc 5 566 0
 1681 0024 0123     		movs	r3, #1
 1682 0026 06E0     		b	.L84
 1683              	.L83:
 1684              		.loc 5 569 0
 1685 0028 9DF80330 		ldrb	r3, [sp, #3]	@ zero_extendqisi2
 1686 002c 0198     		ldr	r0, [sp, #4]
 1687 002e 1946     		mov	r1, r3
 1688 0030 FFF7FEFF 		bl	usb_lld_stall_out
 1689              		.loc 5 570 0
 1690 0034 0023     		movs	r3, #0
 1691              	.L84:
 1692              		.loc 5 571 0
 1693 0036 1846     		mov	r0, r3
ARM GAS  /tmp/cc1C8LBe.s 			page 31


 1694 0038 03B0     		add	sp, sp, #12
 1695              		@ sp needed
 1696 003a 5DF804FB 		ldr	pc, [sp], #4
 1697              		.cfi_endproc
 1698              	.LFE286:
 1699              		.size	usbStallReceiveI, .-usbStallReceiveI
 1700 003e 00BF     		.section	.text.usbStallTransmitI,"ax",%progbits
 1701              		.align	2
 1702              		.p2align 4,,15
 1703              		.global	usbStallTransmitI
 1704              		.thumb
 1705              		.thumb_func
 1706              		.type	usbStallTransmitI, %function
 1707              	usbStallTransmitI:
 1708              	.LFB287:
 1709              		.loc 5 585 0
 1710              		.cfi_startproc
 1711              		@ args = 0, pretend = 0, frame = 8
 1712              		@ frame_needed = 0, uses_anonymous_args = 0
 1713 0000 00B5     		push	{lr}
 1714              		.cfi_def_cfa_offset 4
 1715              		.cfi_offset 14, -4
 1716 0002 83B0     		sub	sp, sp, #12
 1717              		.cfi_def_cfa_offset 16
 1718 0004 0190     		str	r0, [sp, #4]
 1719 0006 0B46     		mov	r3, r1
 1720 0008 8DF80330 		strb	r3, [sp, #3]
 1721              		.loc 5 590 0
 1722 000c 019B     		ldr	r3, [sp, #4]
 1723 000e 1A89     		ldrh	r2, [r3, #8]
 1724 0010 9DF80330 		ldrb	r3, [sp, #3]	@ zero_extendqisi2
 1725 0014 0121     		movs	r1, #1
 1726 0016 01FA03F3 		lsl	r3, r1, r3
 1727 001a 9BB2     		uxth	r3, r3
 1728 001c 1340     		ands	r3, r3, r2
 1729 001e 9BB2     		uxth	r3, r3
 1730 0020 002B     		cmp	r3, #0
 1731 0022 01D0     		beq	.L86
 1732              		.loc 5 591 0
 1733 0024 0123     		movs	r3, #1
 1734 0026 06E0     		b	.L87
 1735              	.L86:
 1736              		.loc 5 594 0
 1737 0028 9DF80330 		ldrb	r3, [sp, #3]	@ zero_extendqisi2
 1738 002c 0198     		ldr	r0, [sp, #4]
 1739 002e 1946     		mov	r1, r3
 1740 0030 FFF7FEFF 		bl	usb_lld_stall_in
 1741              		.loc 5 595 0
 1742 0034 0023     		movs	r3, #0
 1743              	.L87:
 1744              		.loc 5 596 0
 1745 0036 1846     		mov	r0, r3
 1746 0038 03B0     		add	sp, sp, #12
 1747              		@ sp needed
 1748 003a 5DF804FB 		ldr	pc, [sp], #4
 1749              		.cfi_endproc
 1750              	.LFE287:
ARM GAS  /tmp/cc1C8LBe.s 			page 32


 1751              		.size	usbStallTransmitI, .-usbStallTransmitI
 1752 003e 00BF     		.section	.text._usb_reset,"ax",%progbits
 1753              		.align	2
 1754              		.p2align 4,,15
 1755              		.global	_usb_reset
 1756              		.thumb
 1757              		.thumb_func
 1758              		.type	_usb_reset, %function
 1759              	_usb_reset:
 1760              	.LFB288:
 1761              		.loc 5 607 0
 1762              		.cfi_startproc
 1763              		@ args = 0, pretend = 0, frame = 16
 1764              		@ frame_needed = 0, uses_anonymous_args = 0
 1765 0000 00B5     		push	{lr}
 1766              		.cfi_def_cfa_offset 4
 1767              		.cfi_offset 14, -4
 1768 0002 85B0     		sub	sp, sp, #20
 1769              		.cfi_def_cfa_offset 24
 1770 0004 0190     		str	r0, [sp, #4]
 1771              		.loc 5 610 0
 1772 0006 019B     		ldr	r3, [sp, #4]
 1773 0008 0222     		movs	r2, #2
 1774 000a 1A70     		strb	r2, [r3]
 1775              		.loc 5 611 0
 1776 000c 019B     		ldr	r3, [sp, #4]
 1777 000e 0022     		movs	r2, #0
 1778 0010 A3F84C20 		strh	r2, [r3, #76]	@ movhi
 1779              		.loc 5 612 0
 1780 0014 019B     		ldr	r3, [sp, #4]
 1781 0016 0022     		movs	r2, #0
 1782 0018 83F84E20 		strb	r2, [r3, #78]
 1783              		.loc 5 613 0
 1784 001c 019B     		ldr	r3, [sp, #4]
 1785 001e 0022     		movs	r2, #0
 1786 0020 83F84F20 		strb	r2, [r3, #79]
 1787              		.loc 5 614 0
 1788 0024 019B     		ldr	r3, [sp, #4]
 1789 0026 0022     		movs	r2, #0
 1790 0028 1A81     		strh	r2, [r3, #8]	@ movhi
 1791              		.loc 5 615 0
 1792 002a 019B     		ldr	r3, [sp, #4]
 1793 002c 0022     		movs	r2, #0
 1794 002e 5A81     		strh	r2, [r3, #10]	@ movhi
 1795              		.loc 5 618 0
 1796 0030 0023     		movs	r3, #0
 1797 0032 0393     		str	r3, [sp, #12]
 1798 0034 09E0     		b	.L89
 1799              	.L90:
 1800              		.loc 5 619 0 discriminator 2
 1801 0036 019A     		ldr	r2, [sp, #4]
 1802 0038 039B     		ldr	r3, [sp, #12]
 1803 003a 0233     		adds	r3, r3, #2
 1804 003c 9B00     		lsls	r3, r3, #2
 1805 003e 1344     		add	r3, r3, r2
 1806 0040 0022     		movs	r2, #0
 1807 0042 5A60     		str	r2, [r3, #4]
ARM GAS  /tmp/cc1C8LBe.s 			page 33


 1808              		.loc 5 618 0 discriminator 2
 1809 0044 039B     		ldr	r3, [sp, #12]
 1810 0046 0133     		adds	r3, r3, #1
 1811 0048 0393     		str	r3, [sp, #12]
 1812              	.L89:
 1813              		.loc 5 618 0 is_stmt 0 discriminator 1
 1814 004a 039B     		ldr	r3, [sp, #12]
 1815 004c 032B     		cmp	r3, #3
 1816 004e F2D9     		bls	.L90
 1817              		.loc 5 623 0 is_stmt 1
 1818 0050 019B     		ldr	r3, [sp, #4]
 1819 0052 0022     		movs	r2, #0
 1820 0054 83F83420 		strb	r2, [r3, #52]
 1821              		.loc 5 626 0
 1822 0058 0198     		ldr	r0, [sp, #4]
 1823 005a FFF7FEFF 		bl	usb_lld_reset
 1824              		.loc 5 627 0
 1825 005e 05B0     		add	sp, sp, #20
 1826              		@ sp needed
 1827 0060 5DF804FB 		ldr	pc, [sp], #4
 1828              		.cfi_endproc
 1829              	.LFE288:
 1830              		.size	_usb_reset, .-_usb_reset
 1831 0064 AFF30080 		.section	.text._usb_ep0setup,"ax",%progbits
 1831      AFF30080 
 1831      AFF30080 
 1832              		.align	2
 1833              		.p2align 4,,15
 1834              		.global	_usb_ep0setup
 1835              		.thumb
 1836              		.thumb_func
 1837              		.type	_usb_ep0setup, %function
 1838              	_usb_ep0setup:
 1839              	.LFB289:
 1840              		.loc 5 639 0
 1841              		.cfi_startproc
 1842              		@ args = 0, pretend = 0, frame = 16
 1843              		@ frame_needed = 0, uses_anonymous_args = 0
 1844 0000 00B5     		push	{lr}
 1845              		.cfi_def_cfa_offset 4
 1846              		.cfi_offset 14, -4
 1847 0002 85B0     		sub	sp, sp, #20
 1848              		.cfi_def_cfa_offset 24
 1849 0004 0190     		str	r0, [sp, #4]
 1850 0006 0B46     		mov	r3, r1
 1851 0008 8DF80330 		strb	r3, [sp, #3]
 1852              		.loc 5 642 0
 1853 000c 019B     		ldr	r3, [sp, #4]
 1854 000e 0022     		movs	r2, #0
 1855 0010 83F83420 		strb	r2, [r3, #52]
 1856              		.loc 5 643 0
 1857 0014 019B     		ldr	r3, [sp, #4]
 1858 0016 4433     		adds	r3, r3, #68
 1859 0018 9DF80320 		ldrb	r2, [sp, #3]	@ zero_extendqisi2
 1860 001c 0198     		ldr	r0, [sp, #4]
 1861 001e 1146     		mov	r1, r2
 1862 0020 1A46     		mov	r2, r3
ARM GAS  /tmp/cc1C8LBe.s 			page 34


 1863 0022 FFF7FEFF 		bl	usb_lld_read_setup
 1864              		.loc 5 648 0
 1865 0026 019B     		ldr	r3, [sp, #4]
 1866 0028 5B68     		ldr	r3, [r3, #4]
 1867 002a 9B68     		ldr	r3, [r3, #8]
 1868 002c 002B     		cmp	r3, #0
 1869 002e 0AD0     		beq	.L92
 1870              		.loc 5 649 0 discriminator 1
 1871 0030 019B     		ldr	r3, [sp, #4]
 1872 0032 5B68     		ldr	r3, [r3, #4]
 1873 0034 9B68     		ldr	r3, [r3, #8]
 1874 0036 0198     		ldr	r0, [sp, #4]
 1875 0038 9847     		blx	r3
 1876 003a 0346     		mov	r3, r0
 1877 003c 83F00103 		eor	r3, r3, #1
 1878 0040 DBB2     		uxtb	r3, r3
 1879              		.loc 5 648 0 discriminator 1
 1880 0042 002B     		cmp	r3, #0
 1881 0044 27D0     		beq	.L93
 1882              	.L92:
 1883              		.loc 5 654 0
 1884 0046 019B     		ldr	r3, [sp, #4]
 1885 0048 93F84430 		ldrb	r3, [r3, #68]	@ zero_extendqisi2
 1886 004c 03F06003 		and	r3, r3, #96
 1887 0050 002B     		cmp	r3, #0
 1888 0052 08D1     		bne	.L94
 1889              		.loc 5 655 0 discriminator 1
 1890 0054 0198     		ldr	r0, [sp, #4]
 1891 0056 FFF7FEFF 		bl	default_handler
 1892 005a 0346     		mov	r3, r0
 1893 005c 83F00103 		eor	r3, r3, #1
 1894 0060 DBB2     		uxtb	r3, r3
 1895              		.loc 5 654 0 discriminator 1
 1896 0062 002B     		cmp	r3, #0
 1897 0064 17D0     		beq	.L93
 1898              	.L94:
 1899              		.loc 5 660 0
 1900 0066 0198     		ldr	r0, [sp, #4]
 1901 0068 0021     		movs	r1, #0
 1902 006a FFF7FEFF 		bl	usb_lld_stall_in
 1903              		.loc 5 661 0
 1904 006e 0198     		ldr	r0, [sp, #4]
 1905 0070 0021     		movs	r1, #0
 1906 0072 FFF7FEFF 		bl	usb_lld_stall_out
 1907              		.loc 5 662 0
 1908 0076 019B     		ldr	r3, [sp, #4]
 1909 0078 5B68     		ldr	r3, [r3, #4]
 1910 007a 1B68     		ldr	r3, [r3]
 1911 007c 002B     		cmp	r3, #0
 1912 007e 05D0     		beq	.L95
 1913              		.loc 5 662 0 is_stmt 0 discriminator 1
 1914 0080 019B     		ldr	r3, [sp, #4]
 1915 0082 5B68     		ldr	r3, [r3, #4]
 1916 0084 1B68     		ldr	r3, [r3]
 1917 0086 0198     		ldr	r0, [sp, #4]
 1918 0088 0521     		movs	r1, #5
 1919 008a 9847     		blx	r3
ARM GAS  /tmp/cc1C8LBe.s 			page 35


 1920              	.L95:
 1921              		.loc 5 663 0 is_stmt 1
 1922 008c 019B     		ldr	r3, [sp, #4]
 1923 008e 0622     		movs	r2, #6
 1924 0090 83F83420 		strb	r2, [r3, #52]
 1925              		.loc 5 664 0
 1926 0094 6CE0     		b	.L91
 1927              	.L93:
 1928              		.loc 5 676 0
 1929 0096 019B     		ldr	r3, [sp, #4]
 1930 0098 4A33     		adds	r3, r3, #74
 1931 009a 1846     		mov	r0, r3
 1932 009c FFF7FEFF 		bl	get_hword
 1933 00a0 0346     		mov	r3, r0
 1934 00a2 0393     		str	r3, [sp, #12]
 1935              		.loc 5 678 0
 1936 00a4 019B     		ldr	r3, [sp, #4]
 1937 00a6 DA6B     		ldr	r2, [r3, #60]
 1938 00a8 039B     		ldr	r3, [sp, #12]
 1939 00aa 9A42     		cmp	r2, r3
 1940 00ac 02D9     		bls	.L97
 1941              		.loc 5 679 0
 1942 00ae 019B     		ldr	r3, [sp, #4]
 1943 00b0 039A     		ldr	r2, [sp, #12]
 1944 00b2 DA63     		str	r2, [r3, #60]
 1945              	.L97:
 1946              		.loc 5 681 0
 1947 00b4 019B     		ldr	r3, [sp, #4]
 1948 00b6 93F84430 		ldrb	r3, [r3, #68]	@ zero_extendqisi2
 1949 00ba DBB2     		uxtb	r3, r3
 1950 00bc 5BB2     		sxtb	r3, r3
 1951 00be 002B     		cmp	r3, #0
 1952 00c0 2BDA     		bge	.L98
 1953              		.loc 5 683 0
 1954 00c2 019B     		ldr	r3, [sp, #4]
 1955 00c4 DB6B     		ldr	r3, [r3, #60]
 1956 00c6 002B     		cmp	r3, #0
 1957 00c8 14D0     		beq	.L99
 1958              		.loc 5 685 0
 1959 00ca 019B     		ldr	r3, [sp, #4]
 1960 00cc 0122     		movs	r2, #1
 1961 00ce 83F83420 		strb	r2, [r3, #52]
 1962              		.loc 5 686 0
 1963 00d2 019B     		ldr	r3, [sp, #4]
 1964 00d4 9A6B     		ldr	r2, [r3, #56]
 1965 00d6 019B     		ldr	r3, [sp, #4]
 1966 00d8 DB6B     		ldr	r3, [r3, #60]
 1967 00da 0198     		ldr	r0, [sp, #4]
 1968 00dc 0021     		movs	r1, #0
 1969 00de FFF7FEFF 		bl	usbPrepareTransmit
 1970              		.loc 5 687 0
 1971 00e2 FFF7FEFF 		bl	osalSysLockFromISR
 1972              		.loc 5 688 0
 1973 00e6 0198     		ldr	r0, [sp, #4]
 1974 00e8 0021     		movs	r1, #0
 1975 00ea FFF7FEFF 		bl	usbStartTransmitI
 1976              		.loc 5 689 0
ARM GAS  /tmp/cc1C8LBe.s 			page 36


 1977 00ee FFF7FEFF 		bl	osalSysUnlockFromISR
 1978 00f2 3DE0     		b	.L91
 1979              	.L99:
 1980              		.loc 5 694 0
 1981 00f4 019B     		ldr	r3, [sp, #4]
 1982 00f6 0322     		movs	r2, #3
 1983 00f8 83F83420 		strb	r2, [r3, #52]
 1984              		.loc 5 696 0
 1985 00fc 0198     		ldr	r0, [sp, #4]
 1986 00fe 0021     		movs	r1, #0
 1987 0100 0022     		movs	r2, #0
 1988 0102 0023     		movs	r3, #0
 1989 0104 FFF7FEFF 		bl	usbPrepareReceive
 1990              		.loc 5 697 0
 1991 0108 FFF7FEFF 		bl	osalSysLockFromISR
 1992              		.loc 5 698 0
 1993 010c 0198     		ldr	r0, [sp, #4]
 1994 010e 0021     		movs	r1, #0
 1995 0110 FFF7FEFF 		bl	usbStartReceiveI
 1996              		.loc 5 699 0
 1997 0114 FFF7FEFF 		bl	osalSysUnlockFromISR
 1998 0118 2AE0     		b	.L91
 1999              	.L98:
 2000              		.loc 5 707 0
 2001 011a 019B     		ldr	r3, [sp, #4]
 2002 011c DB6B     		ldr	r3, [r3, #60]
 2003 011e 002B     		cmp	r3, #0
 2004 0120 14D0     		beq	.L101
 2005              		.loc 5 709 0
 2006 0122 019B     		ldr	r3, [sp, #4]
 2007 0124 0422     		movs	r2, #4
 2008 0126 83F83420 		strb	r2, [r3, #52]
 2009              		.loc 5 710 0
 2010 012a 019B     		ldr	r3, [sp, #4]
 2011 012c 9A6B     		ldr	r2, [r3, #56]
 2012 012e 019B     		ldr	r3, [sp, #4]
 2013 0130 DB6B     		ldr	r3, [r3, #60]
 2014 0132 0198     		ldr	r0, [sp, #4]
 2015 0134 0021     		movs	r1, #0
 2016 0136 FFF7FEFF 		bl	usbPrepareReceive
 2017              		.loc 5 711 0
 2018 013a FFF7FEFF 		bl	osalSysLockFromISR
 2019              		.loc 5 712 0
 2020 013e 0198     		ldr	r0, [sp, #4]
 2021 0140 0021     		movs	r1, #0
 2022 0142 FFF7FEFF 		bl	usbStartReceiveI
 2023              		.loc 5 713 0
 2024 0146 FFF7FEFF 		bl	osalSysUnlockFromISR
 2025 014a 11E0     		b	.L91
 2026              	.L101:
 2027              		.loc 5 718 0
 2028 014c 019B     		ldr	r3, [sp, #4]
 2029 014e 0522     		movs	r2, #5
 2030 0150 83F83420 		strb	r2, [r3, #52]
 2031              		.loc 5 720 0
 2032 0154 0198     		ldr	r0, [sp, #4]
 2033 0156 0021     		movs	r1, #0
ARM GAS  /tmp/cc1C8LBe.s 			page 37


 2034 0158 0022     		movs	r2, #0
 2035 015a 0023     		movs	r3, #0
 2036 015c FFF7FEFF 		bl	usbPrepareTransmit
 2037              		.loc 5 721 0
 2038 0160 FFF7FEFF 		bl	osalSysLockFromISR
 2039              		.loc 5 722 0
 2040 0164 0198     		ldr	r0, [sp, #4]
 2041 0166 0021     		movs	r1, #0
 2042 0168 FFF7FEFF 		bl	usbStartTransmitI
 2043              		.loc 5 723 0
 2044 016c FFF7FEFF 		bl	osalSysUnlockFromISR
 2045              	.L91:
 2046              		.loc 5 729 0
 2047 0170 05B0     		add	sp, sp, #20
 2048              		@ sp needed
 2049 0172 5DF804FB 		ldr	pc, [sp], #4
 2050              		.cfi_endproc
 2051              	.LFE289:
 2052              		.size	_usb_ep0setup, .-_usb_ep0setup
 2053 0176 00BFAFF3 		.section	.text._usb_ep0in,"ax",%progbits
 2053      0080AFF3 
 2053      0080
 2054              		.align	2
 2055              		.p2align 4,,15
 2056              		.global	_usb_ep0in
 2057              		.thumb
 2058              		.thumb_func
 2059              		.type	_usb_ep0in, %function
 2060              	_usb_ep0in:
 2061              	.LFB290:
 2062              		.loc 5 741 0
 2063              		.cfi_startproc
 2064              		@ args = 0, pretend = 0, frame = 16
 2065              		@ frame_needed = 0, uses_anonymous_args = 0
 2066 0000 00B5     		push	{lr}
 2067              		.cfi_def_cfa_offset 4
 2068              		.cfi_offset 14, -4
 2069 0002 85B0     		sub	sp, sp, #20
 2070              		.cfi_def_cfa_offset 24
 2071 0004 0190     		str	r0, [sp, #4]
 2072 0006 0B46     		mov	r3, r1
 2073 0008 8DF80330 		strb	r3, [sp, #3]
 2074              		.loc 5 745 0
 2075 000c 019B     		ldr	r3, [sp, #4]
 2076 000e 93F83430 		ldrb	r3, [r3, #52]	@ zero_extendqisi2
 2077 0012 062B     		cmp	r3, #6
 2078 0014 73D8     		bhi	.L102
 2079 0016 01A2     		adr	r2, .L105
 2080 0018 52F823F0 		ldr	pc, [r2, r3, lsl #2]
 2081              		.p2align 2
 2082              	.L105:
 2083 001c CF000000 		.word	.L109+1
 2084 0020 39000000 		.word	.L106+1
 2085 0024 8F000000 		.word	.L107+1
 2086 0028 CF000000 		.word	.L109+1
 2087 002c CF000000 		.word	.L109+1
 2088 0030 B5000000 		.word	.L108+1
ARM GAS  /tmp/cc1C8LBe.s 			page 38


 2089 0034 CF000000 		.word	.L109+1
 2090              		.p2align 1
 2091              	.L106:
 2092              		.loc 5 747 0
 2093 0038 019B     		ldr	r3, [sp, #4]
 2094 003a 4A33     		adds	r3, r3, #74
 2095 003c 1846     		mov	r0, r3
 2096 003e FFF7FEFF 		bl	get_hword
 2097 0042 0346     		mov	r3, r0
 2098 0044 0393     		str	r3, [sp, #12]
 2099              		.loc 5 751 0
 2100 0046 019B     		ldr	r3, [sp, #4]
 2101 0048 DA6B     		ldr	r2, [r3, #60]
 2102 004a 039B     		ldr	r3, [sp, #12]
 2103 004c 9A42     		cmp	r2, r3
 2104 004e 1ED2     		bcs	.L107
 2105              		.loc 5 752 0 discriminator 1
 2106 0050 019B     		ldr	r3, [sp, #4]
 2107 0052 DB6B     		ldr	r3, [r3, #60]
 2108 0054 019A     		ldr	r2, [sp, #4]
 2109 0056 D268     		ldr	r2, [r2, #12]
 2110 0058 128A     		ldrh	r2, [r2, #16]
 2111 005a B3FBF2F1 		udiv	r1, r3, r2
 2112 005e 02FB01F2 		mul	r2, r2, r1
 2113 0062 9B1A     		subs	r3, r3, r2
 2114              		.loc 5 751 0 discriminator 1
 2115 0064 002B     		cmp	r3, #0
 2116 0066 12D1     		bne	.L107
 2117              		.loc 5 753 0
 2118 0068 0198     		ldr	r0, [sp, #4]
 2119 006a 0021     		movs	r1, #0
 2120 006c 0022     		movs	r2, #0
 2121 006e 0023     		movs	r3, #0
 2122 0070 FFF7FEFF 		bl	usbPrepareTransmit
 2123              		.loc 5 754 0
 2124 0074 FFF7FEFF 		bl	osalSysLockFromISR
 2125              		.loc 5 755 0
 2126 0078 0198     		ldr	r0, [sp, #4]
 2127 007a 0021     		movs	r1, #0
 2128 007c FFF7FEFF 		bl	usbStartTransmitI
 2129              		.loc 5 756 0
 2130 0080 FFF7FEFF 		bl	osalSysUnlockFromISR
 2131              		.loc 5 757 0
 2132 0084 019B     		ldr	r3, [sp, #4]
 2133 0086 0222     		movs	r2, #2
 2134 0088 83F83420 		strb	r2, [r3, #52]
 2135              		.loc 5 758 0
 2136 008c 37E0     		b	.L102
 2137              	.L107:
 2138              		.loc 5 763 0
 2139 008e 019B     		ldr	r3, [sp, #4]
 2140 0090 0322     		movs	r2, #3
 2141 0092 83F83420 		strb	r2, [r3, #52]
 2142              		.loc 5 765 0
 2143 0096 0198     		ldr	r0, [sp, #4]
 2144 0098 0021     		movs	r1, #0
 2145 009a 0022     		movs	r2, #0
ARM GAS  /tmp/cc1C8LBe.s 			page 39


 2146 009c 0023     		movs	r3, #0
 2147 009e FFF7FEFF 		bl	usbPrepareReceive
 2148              		.loc 5 766 0
 2149 00a2 FFF7FEFF 		bl	osalSysLockFromISR
 2150              		.loc 5 767 0
 2151 00a6 0198     		ldr	r0, [sp, #4]
 2152 00a8 0021     		movs	r1, #0
 2153 00aa FFF7FEFF 		bl	usbStartReceiveI
 2154              		.loc 5 768 0
 2155 00ae FFF7FEFF 		bl	osalSysUnlockFromISR
 2156              		.loc 5 772 0
 2157 00b2 24E0     		b	.L102
 2158              	.L108:
 2159              		.loc 5 775 0
 2160 00b4 019B     		ldr	r3, [sp, #4]
 2161 00b6 1B6C     		ldr	r3, [r3, #64]
 2162 00b8 002B     		cmp	r3, #0
 2163 00ba 03D0     		beq	.L111
 2164              		.loc 5 776 0
 2165 00bc 019B     		ldr	r3, [sp, #4]
 2166 00be 1B6C     		ldr	r3, [r3, #64]
 2167 00c0 0198     		ldr	r0, [sp, #4]
 2168 00c2 9847     		blx	r3
 2169              	.L111:
 2170              		.loc 5 778 0
 2171 00c4 019B     		ldr	r3, [sp, #4]
 2172 00c6 0022     		movs	r2, #0
 2173 00c8 83F83420 		strb	r2, [r3, #52]
 2174              		.loc 5 779 0
 2175 00cc 17E0     		b	.L102
 2176              	.L109:
 2177              		.loc 5 790 0
 2178 00ce 0198     		ldr	r0, [sp, #4]
 2179 00d0 0021     		movs	r1, #0
 2180 00d2 FFF7FEFF 		bl	usb_lld_stall_in
 2181              		.loc 5 791 0
 2182 00d6 0198     		ldr	r0, [sp, #4]
 2183 00d8 0021     		movs	r1, #0
 2184 00da FFF7FEFF 		bl	usb_lld_stall_out
 2185              		.loc 5 792 0
 2186 00de 019B     		ldr	r3, [sp, #4]
 2187 00e0 5B68     		ldr	r3, [r3, #4]
 2188 00e2 1B68     		ldr	r3, [r3]
 2189 00e4 002B     		cmp	r3, #0
 2190 00e6 05D0     		beq	.L112
 2191              		.loc 5 792 0 is_stmt 0 discriminator 1
 2192 00e8 019B     		ldr	r3, [sp, #4]
 2193 00ea 5B68     		ldr	r3, [r3, #4]
 2194 00ec 1B68     		ldr	r3, [r3]
 2195 00ee 0198     		ldr	r0, [sp, #4]
 2196 00f0 0521     		movs	r1, #5
 2197 00f2 9847     		blx	r3
 2198              	.L112:
 2199              		.loc 5 793 0 is_stmt 1
 2200 00f4 019B     		ldr	r3, [sp, #4]
 2201 00f6 0622     		movs	r2, #6
 2202 00f8 83F83420 		strb	r2, [r3, #52]
ARM GAS  /tmp/cc1C8LBe.s 			page 40


 2203              		.loc 5 794 0
 2204 00fc 00BF     		nop
 2205              	.L102:
 2206              		.loc 5 798 0
 2207 00fe 05B0     		add	sp, sp, #20
 2208              		@ sp needed
 2209 0100 5DF804FB 		ldr	pc, [sp], #4
 2210              		.cfi_endproc
 2211              	.LFE290:
 2212              		.size	_usb_ep0in, .-_usb_ep0in
 2213 0104 AFF30080 		.section	.text._usb_ep0out,"ax",%progbits
 2213      AFF30080 
 2213      AFF30080 
 2214              		.align	2
 2215              		.p2align 4,,15
 2216              		.global	_usb_ep0out
 2217              		.thumb
 2218              		.thumb_func
 2219              		.type	_usb_ep0out, %function
 2220              	_usb_ep0out:
 2221              	.LFB291:
 2222              		.loc 5 810 0
 2223              		.cfi_startproc
 2224              		@ args = 0, pretend = 0, frame = 8
 2225              		@ frame_needed = 0, uses_anonymous_args = 0
 2226 0000 00B5     		push	{lr}
 2227              		.cfi_def_cfa_offset 4
 2228              		.cfi_offset 14, -4
 2229 0002 83B0     		sub	sp, sp, #12
 2230              		.cfi_def_cfa_offset 16
 2231 0004 0190     		str	r0, [sp, #4]
 2232 0006 0B46     		mov	r3, r1
 2233 0008 8DF80330 		strb	r3, [sp, #3]
 2234              		.loc 5 813 0
 2235 000c 019B     		ldr	r3, [sp, #4]
 2236 000e 93F83430 		ldrb	r3, [r3, #52]	@ zero_extendqisi2
 2237 0012 062B     		cmp	r3, #6
 2238 0014 4FD8     		bhi	.L113
 2239 0016 01A2     		adr	r2, .L116
 2240 0018 52F823F0 		ldr	pc, [r2, r3, lsl #2]
 2241              		.p2align 2
 2242              	.L116:
 2243 001c 87000000 		.word	.L119+1
 2244 0020 87000000 		.word	.L119+1
 2245 0024 87000000 		.word	.L119+1
 2246 0028 5F000000 		.word	.L117+1
 2247 002c 39000000 		.word	.L118+1
 2248 0030 87000000 		.word	.L119+1
 2249 0034 87000000 		.word	.L119+1
 2250              		.p2align 1
 2251              	.L118:
 2252              		.loc 5 816 0
 2253 0038 019B     		ldr	r3, [sp, #4]
 2254 003a 0522     		movs	r2, #5
 2255 003c 83F83420 		strb	r2, [r3, #52]
 2256              		.loc 5 818 0
 2257 0040 0198     		ldr	r0, [sp, #4]
ARM GAS  /tmp/cc1C8LBe.s 			page 41


 2258 0042 0021     		movs	r1, #0
 2259 0044 0022     		movs	r2, #0
 2260 0046 0023     		movs	r3, #0
 2261 0048 FFF7FEFF 		bl	usbPrepareTransmit
 2262              		.loc 5 819 0
 2263 004c FFF7FEFF 		bl	osalSysLockFromISR
 2264              		.loc 5 820 0
 2265 0050 0198     		ldr	r0, [sp, #4]
 2266 0052 0021     		movs	r1, #0
 2267 0054 FFF7FEFF 		bl	usbStartTransmitI
 2268              		.loc 5 821 0
 2269 0058 FFF7FEFF 		bl	osalSysUnlockFromISR
 2270              		.loc 5 825 0
 2271 005c 2BE0     		b	.L113
 2272              	.L117:
 2273              		.loc 5 830 0
 2274 005e 019B     		ldr	r3, [sp, #4]
 2275 0060 DB68     		ldr	r3, [r3, #12]
 2276 0062 9B69     		ldr	r3, [r3, #24]
 2277 0064 9B68     		ldr	r3, [r3, #8]
 2278 0066 002B     		cmp	r3, #0
 2279 0068 00D0     		beq	.L121
 2280              		.loc 5 831 0
 2281 006a 24E0     		b	.L113
 2282              	.L121:
 2283              		.loc 5 834 0
 2284 006c 019B     		ldr	r3, [sp, #4]
 2285 006e 1B6C     		ldr	r3, [r3, #64]
 2286 0070 002B     		cmp	r3, #0
 2287 0072 03D0     		beq	.L122
 2288              		.loc 5 835 0
 2289 0074 019B     		ldr	r3, [sp, #4]
 2290 0076 1B6C     		ldr	r3, [r3, #64]
 2291 0078 0198     		ldr	r0, [sp, #4]
 2292 007a 9847     		blx	r3
 2293              	.L122:
 2294              		.loc 5 837 0
 2295 007c 019B     		ldr	r3, [sp, #4]
 2296 007e 0022     		movs	r2, #0
 2297 0080 83F83420 		strb	r2, [r3, #52]
 2298              		.loc 5 838 0
 2299 0084 17E0     		b	.L113
 2300              	.L119:
 2301              		.loc 5 850 0
 2302 0086 0198     		ldr	r0, [sp, #4]
 2303 0088 0021     		movs	r1, #0
 2304 008a FFF7FEFF 		bl	usb_lld_stall_in
 2305              		.loc 5 851 0
 2306 008e 0198     		ldr	r0, [sp, #4]
 2307 0090 0021     		movs	r1, #0
 2308 0092 FFF7FEFF 		bl	usb_lld_stall_out
 2309              		.loc 5 852 0
 2310 0096 019B     		ldr	r3, [sp, #4]
 2311 0098 5B68     		ldr	r3, [r3, #4]
 2312 009a 1B68     		ldr	r3, [r3]
 2313 009c 002B     		cmp	r3, #0
 2314 009e 05D0     		beq	.L123
ARM GAS  /tmp/cc1C8LBe.s 			page 42


 2315              		.loc 5 852 0 is_stmt 0 discriminator 1
 2316 00a0 019B     		ldr	r3, [sp, #4]
 2317 00a2 5B68     		ldr	r3, [r3, #4]
 2318 00a4 1B68     		ldr	r3, [r3]
 2319 00a6 0198     		ldr	r0, [sp, #4]
 2320 00a8 0521     		movs	r1, #5
 2321 00aa 9847     		blx	r3
 2322              	.L123:
 2323              		.loc 5 853 0 is_stmt 1
 2324 00ac 019B     		ldr	r3, [sp, #4]
 2325 00ae 0622     		movs	r2, #6
 2326 00b0 83F83420 		strb	r2, [r3, #52]
 2327              		.loc 5 854 0
 2328 00b4 00BF     		nop
 2329              	.L113:
 2330              		.loc 5 858 0
 2331 00b6 03B0     		add	sp, sp, #12
 2332              		@ sp needed
 2333 00b8 5DF804FB 		ldr	pc, [sp], #4
 2334              		.cfi_endproc
 2335              	.LFE291:
 2336              		.size	_usb_ep0out, .-_usb_ep0out
 2337 00bc AFF30080 		.text
 2338              	.Letext0:
 2339              		.file 6 "/usr/lib/gcc/arm-none-eabi/4.8/include/stddef.h"
 2340              		.file 7 "/usr/include/newlib/machine/_default_types.h"
 2341              		.file 8 "/usr/include/newlib/stdint.h"
 2342              		.file 9 "/home/efe/ChibiOS/os/rt/ports/ARMCMx/compilers/GCC/chtypes.h"
 2343              		.file 10 "/home/efe/ChibiOS/os/rt/include/chsystypes.h"
 2344              		.file 11 "/home/efe/ChibiOS/os/rt/include/chschd.h"
 2345              		.file 12 "/home/efe/ChibiOS/os/rt/ports/ARMCMx/chcore.h"
 2346              		.file 13 "/home/efe/ChibiOS/os/rt/include/chtm.h"
 2347              		.file 14 "/home/efe/ChibiOS/os/rt/include/chsem.h"
 2348              		.file 15 "/home/efe/ChibiOS/os/rt/include/chmtx.h"
 2349              		.file 16 "/home/efe/ChibiOS/os/rt/include/chqueues.h"
 2350              		.file 17 "/home/efe/ChibiOS/os/hal/include/usb.h"
 2351              		.file 18 "/home/efe/ChibiOS/os/hal/ports/STM32/LLD/OTGv1/usb_lld.h"
 2352              		.file 19 "/home/efe/ChibiOS/os/hal/ports/STM32/LLD/OTGv1/stm32_otg.h"
 2353              		.file 20 "/home/efe/ChibiOS/os/ext/CMSIS/include/core_cm4.h"