ARM GAS  /tmp/cc1C8LBe.s 			page 1


   1              		.syntax unified
   2              		.cpu cortex-m4
   3              		.fpu softvfp
   4              		.eabi_attribute 20, 1
   5              		.eabi_attribute 21, 1
   6              		.eabi_attribute 23, 3
   7              		.eabi_attribute 24, 1
   8              		.eabi_attribute 25, 1
   9              		.eabi_attribute 26, 1
  10              		.eabi_attribute 30, 6
  11              		.eabi_attribute 34, 1
  12              		.eabi_attribute 18, 4
  13              		.thumb
  14              		.file	"usb.c"
  15              		.text
  16              	.Ltext0:
  17              		.cfi_sections	.debug_frame
  18              		.section	.text.port_lock,"ax",%progbits
  19              		.align	2
  20              		.p2align 4,,15
  21              		.thumb
  22              		.thumb_func
  23              		.type	port_lock, %function
  24              	port_lock:
  25              	.LFB127:
  26              		.file 1 "/home/efe/ChibiOS/os/rt/ports/ARMCMx/chcore_v7m.h"
  27              		.loc 1 456 0
  28              		.cfi_startproc
  29              		@ args = 0, pretend = 0, frame = 8
  30              		@ frame_needed = 0, uses_anonymous_args = 0
  31              		@ link register save eliminated.
  32 0000 82B0     		sub	sp, sp, #8
  33              		.cfi_def_cfa_offset 8
  34 0002 2023     		movs	r3, #32
  35 0004 0193     		str	r3, [sp, #4]
  36              	.LBB6:
  37              	.LBB7:
  38              		.file 2 "/home/efe/ChibiOS/os/ext/CMSIS/include/core_cmFunc.h"
  39              		.loc 2 548 0
  40 0006 019B     		ldr	r3, [sp, #4]
  41              	@ 548 "/home/efe/ChibiOS/os/ext/CMSIS/include/core_cmFunc.h" 1
  42 0008 83F31188 		MSR basepri, r3
  43              	@ 0 "" 2
  44              		.thumb
  45              	.LBE7:
  46              	.LBE6:
  47              		.loc 1 463 0
  48 000c 02B0     		add	sp, sp, #8
  49              		@ sp needed
  50 000e 7047     		bx	lr
  51              		.cfi_endproc
  52              	.LFE127:
  53              		.size	port_lock, .-port_lock
  54              		.section	.text.port_unlock,"ax",%progbits
  55              		.align	2
  56              		.p2align 4,,15
  57              		.thumb
ARM GAS  /tmp/cc1C8LBe.s 			page 2


  58              		.thumb_func
  59              		.type	port_unlock, %function
  60              	port_unlock:
  61              	.LFB128:
  62              		.loc 1 470 0
  63              		.cfi_startproc
  64              		@ args = 0, pretend = 0, frame = 8
  65              		@ frame_needed = 0, uses_anonymous_args = 0
  66              		@ link register save eliminated.
  67 0000 82B0     		sub	sp, sp, #8
  68              		.cfi_def_cfa_offset 8
  69 0002 0023     		movs	r3, #0
  70 0004 0193     		str	r3, [sp, #4]
  71              	.LBB8:
  72              	.LBB9:
  73              		.loc 2 548 0
  74 0006 019B     		ldr	r3, [sp, #4]
  75              	@ 548 "/home/efe/ChibiOS/os/ext/CMSIS/include/core_cmFunc.h" 1
  76 0008 83F31188 		MSR basepri, r3
  77              	@ 0 "" 2
  78              		.thumb
  79              	.LBE9:
  80              	.LBE8:
  81              		.loc 1 477 0
  82 000c 02B0     		add	sp, sp, #8
  83              		@ sp needed
  84 000e 7047     		bx	lr
  85              		.cfi_endproc
  86              	.LFE128:
  87              		.size	port_unlock, .-port_unlock
  88              		.section	.text.port_lock_from_isr,"ax",%progbits
  89              		.align	2
  90              		.p2align 4,,15
  91              		.thumb
  92              		.thumb_func
  93              		.type	port_lock_from_isr, %function
  94              	port_lock_from_isr:
  95              	.LFB129:
  96              		.loc 1 485 0
  97              		.cfi_startproc
  98              		@ args = 0, pretend = 0, frame = 0
  99              		@ frame_needed = 0, uses_anonymous_args = 0
 100 0000 08B5     		push	{r3, lr}
 101              		.cfi_def_cfa_offset 8
 102              		.cfi_offset 3, -8
 103              		.cfi_offset 14, -4
 104              		.loc 1 487 0
 105 0002 FFF7FEFF 		bl	port_lock
 106              		.loc 1 488 0
 107 0006 08BD     		pop	{r3, pc}
 108              		.cfi_endproc
 109              	.LFE129:
 110              		.size	port_lock_from_isr, .-port_lock_from_isr
 111 0008 AFF30080 		.section	.text.port_unlock_from_isr,"ax",%progbits
 111      AFF30080 
 112              		.align	2
 113              		.p2align 4,,15
ARM GAS  /tmp/cc1C8LBe.s 			page 3


 114              		.thumb
 115              		.thumb_func
 116              		.type	port_unlock_from_isr, %function
 117              	port_unlock_from_isr:
 118              	.LFB130:
 119              		.loc 1 496 0
 120              		.cfi_startproc
 121              		@ args = 0, pretend = 0, frame = 0
 122              		@ frame_needed = 0, uses_anonymous_args = 0
 123 0000 08B5     		push	{r3, lr}
 124              		.cfi_def_cfa_offset 8
 125              		.cfi_offset 3, -8
 126              		.cfi_offset 14, -4
 127              		.loc 1 498 0
 128 0002 FFF7FEFF 		bl	port_unlock
 129              		.loc 1 499 0
 130 0006 08BD     		pop	{r3, pc}
 131              		.cfi_endproc
 132              	.LFE130:
 133              		.size	port_unlock_from_isr, .-port_unlock_from_isr
 134 0008 AFF30080 		.section	.text.chSysLock,"ax",%progbits
 134      AFF30080 
 135              		.align	2
 136              		.p2align 4,,15
 137              		.thumb
 138              		.thumb_func
 139              		.type	chSysLock, %function
 140              	chSysLock:
 141              	.LFB167:
 142              		.file 3 "/home/efe/ChibiOS/os/rt/include/chsys.h"
 143              		.loc 3 346 0
 144              		.cfi_startproc
 145              		@ args = 0, pretend = 0, frame = 0
 146              		@ frame_needed = 0, uses_anonymous_args = 0
 147 0000 08B5     		push	{r3, lr}
 148              		.cfi_def_cfa_offset 8
 149              		.cfi_offset 3, -8
 150              		.cfi_offset 14, -4
 151              		.loc 3 348 0
 152 0002 FFF7FEFF 		bl	port_lock
 153              		.loc 3 351 0
 154 0006 08BD     		pop	{r3, pc}
 155              		.cfi_endproc
 156              	.LFE167:
 157              		.size	chSysLock, .-chSysLock
 158 0008 AFF30080 		.section	.text.chSysUnlock,"ax",%progbits
 158      AFF30080 
 159              		.align	2
 160              		.p2align 4,,15
 161              		.thumb
 162              		.thumb_func
 163              		.type	chSysUnlock, %function
 164              	chSysUnlock:
 165              	.LFB168:
 166              		.loc 3 358 0
 167              		.cfi_startproc
 168              		@ args = 0, pretend = 0, frame = 0
ARM GAS  /tmp/cc1C8LBe.s 			page 4


 169              		@ frame_needed = 0, uses_anonymous_args = 0
 170 0000 08B5     		push	{r3, lr}
 171              		.cfi_def_cfa_offset 8
 172              		.cfi_offset 3, -8
 173              		.cfi_offset 14, -4
 174              		.loc 3 371 0
 175 0002 FFF7FEFF 		bl	port_unlock
 176              		.loc 3 372 0
 177 0006 08BD     		pop	{r3, pc}
 178              		.cfi_endproc
 179              	.LFE168:
 180              		.size	chSysUnlock, .-chSysUnlock
 181 0008 AFF30080 		.section	.text.chSysLockFromISR,"ax",%progbits
 181      AFF30080 
 182              		.align	2
 183              		.p2align 4,,15
 184              		.thumb
 185              		.thumb_func
 186              		.type	chSysLockFromISR, %function
 187              	chSysLockFromISR:
 188              	.LFB169:
 189              		.loc 3 386 0
 190              		.cfi_startproc
 191              		@ args = 0, pretend = 0, frame = 0
 192              		@ frame_needed = 0, uses_anonymous_args = 0
 193 0000 08B5     		push	{r3, lr}
 194              		.cfi_def_cfa_offset 8
 195              		.cfi_offset 3, -8
 196              		.cfi_offset 14, -4
 197              		.loc 3 388 0
 198 0002 FFF7FEFF 		bl	port_lock_from_isr
 199              		.loc 3 391 0
 200 0006 08BD     		pop	{r3, pc}
 201              		.cfi_endproc
 202              	.LFE169:
 203              		.size	chSysLockFromISR, .-chSysLockFromISR
 204 0008 AFF30080 		.section	.text.chSysUnlockFromISR,"ax",%progbits
 204      AFF30080 
 205              		.align	2
 206              		.p2align 4,,15
 207              		.thumb
 208              		.thumb_func
 209              		.type	chSysUnlockFromISR, %function
 210              	chSysUnlockFromISR:
 211              	.LFB170:
 212              		.loc 3 406 0
 213              		.cfi_startproc
 214              		@ args = 0, pretend = 0, frame = 0
 215              		@ frame_needed = 0, uses_anonymous_args = 0
 216 0000 08B5     		push	{r3, lr}
 217              		.cfi_def_cfa_offset 8
 218              		.cfi_offset 3, -8
 219              		.cfi_offset 14, -4
 220              		.loc 3 410 0
 221 0002 FFF7FEFF 		bl	port_unlock_from_isr
 222              		.loc 3 411 0
 223 0006 08BD     		pop	{r3, pc}
ARM GAS  /tmp/cc1C8LBe.s 			page 5


 224              		.cfi_endproc
 225              	.LFE170:
 226              		.size	chSysUnlockFromISR, .-chSysUnlockFromISR
 227 0008 AFF30080 		.section	.text.osalSysLock,"ax",%progbits
 227      AFF30080 
 228              		.align	2
 229              		.p2align 4,,15
 230              		.thumb
 231              		.thumb_func
 232              		.type	osalSysLock, %function
 233              	osalSysLock:
 234              	.LFB244:
 235              		.file 4 "/home/efe/ChibiOS/os/hal/osal/rt/osal.h"
 236              		.loc 4 491 0
 237              		.cfi_startproc
 238              		@ args = 0, pretend = 0, frame = 0
 239              		@ frame_needed = 0, uses_anonymous_args = 0
 240 0000 08B5     		push	{r3, lr}
 241              		.cfi_def_cfa_offset 8
 242              		.cfi_offset 3, -8
 243              		.cfi_offset 14, -4
 244              		.loc 4 493 0
 245 0002 FFF7FEFF 		bl	chSysLock
 246              		.loc 4 494 0
 247 0006 08BD     		pop	{r3, pc}
 248              		.cfi_endproc
 249              	.LFE244:
 250              		.size	osalSysLock, .-osalSysLock
 251 0008 AFF30080 		.section	.text.osalSysUnlock,"ax",%progbits
 251      AFF30080 
 252              		.align	2
 253              		.p2align 4,,15
 254              		.thumb
 255              		.thumb_func
 256              		.type	osalSysUnlock, %function
 257              	osalSysUnlock:
 258              	.LFB245:
 259              		.loc 4 502 0
 260              		.cfi_startproc
 261              		@ args = 0, pretend = 0, frame = 0
 262              		@ frame_needed = 0, uses_anonymous_args = 0
 263 0000 08B5     		push	{r3, lr}
 264              		.cfi_def_cfa_offset 8
 265              		.cfi_offset 3, -8
 266              		.cfi_offset 14, -4
 267              		.loc 4 504 0
 268 0002 FFF7FEFF 		bl	chSysUnlock
 269              		.loc 4 505 0
 270 0006 08BD     		pop	{r3, pc}
 271              		.cfi_endproc
 272              	.LFE245:
 273              		.size	osalSysUnlock, .-osalSysUnlock
 274 0008 AFF30080 		.section	.text.osalSysLockFromISR,"ax",%progbits
 274      AFF30080 
 275              		.align	2
 276              		.p2align 4,,15
 277              		.thumb
ARM GAS  /tmp/cc1C8LBe.s 			page 6


 278              		.thumb_func
 279              		.type	osalSysLockFromISR, %function
 280              	osalSysLockFromISR:
 281              	.LFB246:
 282              		.loc 4 513 0
 283              		.cfi_startproc
 284              		@ args = 0, pretend = 0, frame = 0
 285              		@ frame_needed = 0, uses_anonymous_args = 0
 286 0000 08B5     		push	{r3, lr}
 287              		.cfi_def_cfa_offset 8
 288              		.cfi_offset 3, -8
 289              		.cfi_offset 14, -4
 290              		.loc 4 515 0
 291 0002 FFF7FEFF 		bl	chSysLockFromISR
 292              		.loc 4 516 0
 293 0006 08BD     		pop	{r3, pc}
 294              		.cfi_endproc
 295              	.LFE246:
 296              		.size	osalSysLockFromISR, .-osalSysLockFromISR
 297 0008 AFF30080 		.section	.text.osalSysUnlockFromISR,"ax",%progbits
 297      AFF30080 
 298              		.align	2
 299              		.p2align 4,,15
 300              		.thumb
 301              		.thumb_func
 302              		.type	osalSysUnlockFromISR, %function
 303              	osalSysUnlockFromISR:
 304              	.LFB247:
 305              		.loc 4 524 0
 306              		.cfi_startproc
 307              		@ args = 0, pretend = 0, frame = 0
 308              		@ frame_needed = 0, uses_anonymous_args = 0
 309 0000 08B5     		push	{r3, lr}
 310              		.cfi_def_cfa_offset 8
 311              		.cfi_offset 3, -8
 312              		.cfi_offset 14, -4
 313              		.loc 4 526 0
 314 0002 FFF7FEFF 		bl	chSysUnlockFromISR
 315              		.loc 4 527 0
 316 0006 08BD     		pop	{r3, pc}
 317              		.cfi_endproc
 318              	.LFE247:
 319              		.size	osalSysUnlockFromISR, .-osalSysUnlockFromISR
 320 0008 AFF30080 		.section	.rodata.zero_status,"a",%progbits
 320      AFF30080 
 321              		.align	2
 322              		.type	zero_status, %object
 323              		.size	zero_status, 2
 324              	zero_status:
 325 0000 0000     		.space	2
 326 0002 0000     		.section	.rodata.active_status,"a",%progbits
 327              		.align	2
 328              		.type	active_status, %object
 329              		.size	active_status, 2
 330              	active_status:
 331 0000 0000     		.space	2
 332 0002 0000     		.section	.rodata.halted_status,"a",%progbits
ARM GAS  /tmp/cc1C8LBe.s 			page 7


 333              		.align	2
 334              		.type	halted_status, %object
 335              		.size	halted_status, 2
 336              	halted_status:
 337 0000 01       		.byte	1
 338 0001 00       		.byte	0
 339 0002 0000     		.section	.text.get_hword,"ax",%progbits
 340              		.align	2
 341              		.p2align 4,,15
 342              		.thumb
 343              		.thumb_func
 344              		.type	get_hword, %function
 345              	get_hword:
 346              	.LFB271:
 347              		.file 5 "/home/efe/ChibiOS/os/hal/src/usb.c"
 348              		.loc 5 51 0
 349              		.cfi_startproc
 350              		@ args = 0, pretend = 0, frame = 16
 351              		@ frame_needed = 0, uses_anonymous_args = 0
 352              		@ link register save eliminated.
 353 0000 84B0     		sub	sp, sp, #16
 354              		.cfi_def_cfa_offset 16
 355 0002 0190     		str	r0, [sp, #4]
 356              		.loc 5 54 0
 357 0004 019B     		ldr	r3, [sp, #4]
 358 0006 5A1C     		adds	r2, r3, #1
 359 0008 0192     		str	r2, [sp, #4]
 360 000a 1B78     		ldrb	r3, [r3]	@ zero_extendqisi2
 361 000c ADF80E30 		strh	r3, [sp, #14]	@ movhi
 362              		.loc 5 55 0
 363 0010 019B     		ldr	r3, [sp, #4]
 364 0012 1B78     		ldrb	r3, [r3]	@ zero_extendqisi2
 365 0014 1B02     		lsls	r3, r3, #8
 366 0016 9AB2     		uxth	r2, r3
 367 0018 BDF80E30 		ldrh	r3, [sp, #14]
 368 001c 1343     		orrs	r3, r3, r2
 369 001e 9BB2     		uxth	r3, r3
 370 0020 ADF80E30 		strh	r3, [sp, #14]	@ movhi
 371              		.loc 5 56 0
 372 0024 BDF80E30 		ldrh	r3, [sp, #14]
 373              		.loc 5 57 0
 374 0028 1846     		mov	r0, r3
 375 002a 04B0     		add	sp, sp, #16
 376              		@ sp needed
 377 002c 7047     		bx	lr
 378              		.cfi_endproc
 379              	.LFE271:
 380              		.size	get_hword, .-get_hword
 381 002e 00BF     		.section	.text.set_address,"ax",%progbits
 382              		.align	2
 383              		.p2align 4,,15
 384              		.thumb
 385              		.thumb_func
 386              		.type	set_address, %function
 387              	set_address:
 388              	.LFB272:
 389              		.loc 5 64 0
ARM GAS  /tmp/cc1C8LBe.s 			page 8


 390              		.cfi_startproc
 391              		@ args = 0, pretend = 0, frame = 8
 392              		@ frame_needed = 0, uses_anonymous_args = 0
 393 0000 00B5     		push	{lr}
 394              		.cfi_def_cfa_offset 4
 395              		.cfi_offset 14, -4
 396 0002 83B0     		sub	sp, sp, #12
 397              		.cfi_def_cfa_offset 16
 398 0004 0190     		str	r0, [sp, #4]
 399              		.loc 5 66 0
 400 0006 019B     		ldr	r3, [sp, #4]
 401 0008 93F84620 		ldrb	r2, [r3, #70]	@ zero_extendqisi2
 402 000c 019B     		ldr	r3, [sp, #4]
 403 000e 83F84E20 		strb	r2, [r3, #78]
 404              		.loc 5 67 0
 405 0012 0198     		ldr	r0, [sp, #4]
 406 0014 FFF7FEFF 		bl	usb_lld_set_address
 407              		.loc 5 68 0
 408 0018 019B     		ldr	r3, [sp, #4]
 409 001a 5B68     		ldr	r3, [r3, #4]
 410 001c 1B68     		ldr	r3, [r3]
 411 001e 002B     		cmp	r3, #0
 412 0020 05D0     		beq	.L16
 413              		.loc 5 68 0 is_stmt 0 discriminator 1
 414 0022 019B     		ldr	r3, [sp, #4]
 415 0024 5B68     		ldr	r3, [r3, #4]
 416 0026 1B68     		ldr	r3, [r3]
 417 0028 0198     		ldr	r0, [sp, #4]
 418 002a 0121     		movs	r1, #1
 419 002c 9847     		blx	r3
 420              	.L16:
 421              		.loc 5 69 0 is_stmt 1
 422 002e 019B     		ldr	r3, [sp, #4]
 423 0030 0322     		movs	r2, #3
 424 0032 1A70     		strb	r2, [r3]
 425              		.loc 5 70 0
 426 0034 03B0     		add	sp, sp, #12
 427              		@ sp needed
 428 0036 5DF804FB 		ldr	pc, [sp], #4
 429              		.cfi_endproc
 430              	.LFE272:
 431              		.size	set_address, .-set_address
 432 003a 00BFAFF3 		.section	.text.default_handler,"ax",%progbits
 432      0080
 433              		.align	2
 434              		.p2align 4,,15
 435              		.thumb
 436              		.thumb_func
 437              		.type	default_handler, %function
 438              	default_handler:
 439              	.LFB273:
 440              		.loc 5 84 0
 441              		.cfi_startproc
 442              		@ args = 0, pretend = 0, frame = 16
 443              		@ frame_needed = 0, uses_anonymous_args = 0
 444 0000 70B5     		push	{r4, r5, r6, lr}
 445              		.cfi_def_cfa_offset 16
ARM GAS  /tmp/cc1C8LBe.s 			page 9


 446              		.cfi_offset 4, -16
 447              		.cfi_offset 5, -12
 448              		.cfi_offset 6, -8
 449              		.cfi_offset 14, -4
 450 0002 84B0     		sub	sp, sp, #16
 451              		.cfi_def_cfa_offset 32
 452 0004 0190     		str	r0, [sp, #4]
 453              		.loc 5 88 0
 454 0006 019B     		ldr	r3, [sp, #4]
 455 0008 93F84430 		ldrb	r3, [r3, #68]	@ zero_extendqisi2
 456 000c 03F07F02 		and	r2, r3, #127
 457              		.loc 5 90 0
 458 0010 019B     		ldr	r3, [sp, #4]
 459 0012 93F84530 		ldrb	r3, [r3, #69]	@ zero_extendqisi2
 460 0016 1B02     		lsls	r3, r3, #8
 461              		.loc 5 89 0
 462 0018 1343     		orrs	r3, r3, r2
 463              		.loc 5 88 0
 464 001a B3F5407F 		cmp	r3, #768
 465 001e 5AD0     		beq	.L19
 466 0020 B3F5407F 		cmp	r3, #768
 467 0024 12D8     		bhi	.L20
 468 0026 022B     		cmp	r3, #2
 469 0028 00F0EE80 		beq	.L21
 470 002c 022B     		cmp	r3, #2
 471 002e 05D8     		bhi	.L22
 472 0030 002B     		cmp	r3, #0
 473 0032 28D0     		beq	.L23
 474 0034 012B     		cmp	r3, #1
 475 0036 00F0DC80 		beq	.L24
 476 003a A6E1     		b	.L18
 477              	.L22:
 478 003c B3F5807F 		cmp	r3, #256
 479 0040 2ED0     		beq	.L25
 480 0042 B3F5817F 		cmp	r3, #258
 481 0046 00F03681 		beq	.L26
 482 004a 9EE1     		b	.L18
 483              	.L20:
 484 004c B3F5C06F 		cmp	r3, #1536
 485 0050 74D0     		beq	.L27
 486 0052 B3F5C06F 		cmp	r3, #1536
 487 0056 08D8     		bhi	.L28
 488 0058 40F20232 		movw	r2, #770
 489 005c 9342     		cmp	r3, r2
 490 005e 00F05F81 		beq	.L29
 491 0062 B3F5A06F 		cmp	r3, #1280
 492 0066 51D0     		beq	.L30
 493 0068 8FE1     		b	.L18
 494              	.L28:
 495 006a B3F5106F 		cmp	r3, #2304
 496 006e 00F09880 		beq	.L31
 497 0072 40F60242 		movw	r2, #3074
 498 0076 9342     		cmp	r3, r2
 499 0078 00F0BB80 		beq	.L24
 500 007c B3F5006F 		cmp	r3, #2048
 501 0080 00F08280 		beq	.L32
 502 0084 81E1     		b	.L18
ARM GAS  /tmp/cc1C8LBe.s 			page 10


 503              	.L23:
 504              		.loc 5 93 0
 505 0086 019B     		ldr	r3, [sp, #4]
 506 0088 03F14C02 		add	r2, r3, #76
 507 008c 019B     		ldr	r3, [sp, #4]
 508 008e 9A63     		str	r2, [r3, #56]
 509 0090 019B     		ldr	r3, [sp, #4]
 510 0092 0222     		movs	r2, #2
 511 0094 DA63     		str	r2, [r3, #60]
 512 0096 019B     		ldr	r3, [sp, #4]
 513 0098 0022     		movs	r2, #0
 514 009a 1A64     		str	r2, [r3, #64]
 515              		.loc 5 94 0
 516 009c 0123     		movs	r3, #1
 517 009e 75E1     		b	.L33
 518              	.L25:
 519              		.loc 5 98 0
 520 00a0 019B     		ldr	r3, [sp, #4]
 521 00a2 93F84630 		ldrb	r3, [r3, #70]	@ zero_extendqisi2
 522 00a6 012B     		cmp	r3, #1
 523 00a8 13D1     		bne	.L34
 524              		.loc 5 99 0
 525 00aa 019B     		ldr	r3, [sp, #4]
 526 00ac B3F84C30 		ldrh	r3, [r3, #76]
 527 00b0 23F00203 		bic	r3, r3, #2
 528 00b4 9AB2     		uxth	r2, r3
 529 00b6 019B     		ldr	r3, [sp, #4]
 530 00b8 A3F84C20 		strh	r2, [r3, #76]	@ movhi
 531              		.loc 5 100 0
 532 00bc 019B     		ldr	r3, [sp, #4]
 533 00be 0022     		movs	r2, #0
 534 00c0 9A63     		str	r2, [r3, #56]
 535 00c2 019B     		ldr	r3, [sp, #4]
 536 00c4 0022     		movs	r2, #0
 537 00c6 DA63     		str	r2, [r3, #60]
 538 00c8 019B     		ldr	r3, [sp, #4]
 539 00ca 0022     		movs	r2, #0
 540 00cc 1A64     		str	r2, [r3, #64]
 541              		.loc 5 101 0
 542 00ce 0123     		movs	r3, #1
 543 00d0 5CE1     		b	.L33
 544              	.L34:
 545              		.loc 5 103 0
 546 00d2 0023     		movs	r3, #0
 547 00d4 5AE1     		b	.L33
 548              	.L19:
 549              		.loc 5 107 0
 550 00d6 019B     		ldr	r3, [sp, #4]
 551 00d8 93F84630 		ldrb	r3, [r3, #70]	@ zero_extendqisi2
 552 00dc 012B     		cmp	r3, #1
 553 00de 13D1     		bne	.L35
 554              		.loc 5 108 0
 555 00e0 019B     		ldr	r3, [sp, #4]
 556 00e2 B3F84C30 		ldrh	r3, [r3, #76]
 557 00e6 43F00203 		orr	r3, r3, #2
 558 00ea 9AB2     		uxth	r2, r3
 559 00ec 019B     		ldr	r3, [sp, #4]
ARM GAS  /tmp/cc1C8LBe.s 			page 11


 560 00ee A3F84C20 		strh	r2, [r3, #76]	@ movhi
 561              		.loc 5 109 0
 562 00f2 019B     		ldr	r3, [sp, #4]
 563 00f4 0022     		movs	r2, #0
 564 00f6 9A63     		str	r2, [r3, #56]
 565 00f8 019B     		ldr	r3, [sp, #4]
 566 00fa 0022     		movs	r2, #0
 567 00fc DA63     		str	r2, [r3, #60]
 568 00fe 019B     		ldr	r3, [sp, #4]
 569 0100 0022     		movs	r2, #0
 570 0102 1A64     		str	r2, [r3, #64]
 571              		.loc 5 110 0
 572 0104 0123     		movs	r3, #1
 573 0106 41E1     		b	.L33
 574              	.L35:
 575              		.loc 5 112 0
 576 0108 0023     		movs	r3, #0
 577 010a 3FE1     		b	.L33
 578              	.L30:
 579              		.loc 5 118 0
 580 010c 019B     		ldr	r3, [sp, #4]
 581 010e 93F84430 		ldrb	r3, [r3, #68]	@ zero_extendqisi2
 582 0112 002B     		cmp	r3, #0
 583 0114 07D1     		bne	.L36
 584              		.loc 5 119 0 discriminator 1
 585 0116 019B     		ldr	r3, [sp, #4]
 586 0118 93F84530 		ldrb	r3, [r3, #69]	@ zero_extendqisi2
 587              		.loc 5 118 0 discriminator 1
 588 011c 052B     		cmp	r3, #5
 589 011e 02D1     		bne	.L36
 590              		.loc 5 120 0
 591 0120 0198     		ldr	r0, [sp, #4]
 592 0122 FFF7FEFF 		bl	set_address
 593              	.L36:
 594              		.loc 5 122 0
 595 0126 019B     		ldr	r3, [sp, #4]
 596 0128 0022     		movs	r2, #0
 597 012a 9A63     		str	r2, [r3, #56]
 598 012c 019B     		ldr	r3, [sp, #4]
 599 012e 0022     		movs	r2, #0
 600 0130 DA63     		str	r2, [r3, #60]
 601 0132 019B     		ldr	r3, [sp, #4]
 602 0134 0022     		movs	r2, #0
 603 0136 1A64     		str	r2, [r3, #64]
 604              		.loc 5 126 0
 605 0138 0123     		movs	r3, #1
 606 013a 27E1     		b	.L33
 607              	.L27:
 608              		.loc 5 129 0
 609 013c 019B     		ldr	r3, [sp, #4]
 610 013e 5B68     		ldr	r3, [r3, #4]
 611 0140 5C68     		ldr	r4, [r3, #4]
 612 0142 019B     		ldr	r3, [sp, #4]
 613 0144 93F84760 		ldrb	r6, [r3, #71]	@ zero_extendqisi2
 614 0148 019B     		ldr	r3, [sp, #4]
 615 014a 93F84650 		ldrb	r5, [r3, #70]	@ zero_extendqisi2
 616 014e 019B     		ldr	r3, [sp, #4]
ARM GAS  /tmp/cc1C8LBe.s 			page 12


 617 0150 4833     		adds	r3, r3, #72
 618 0152 1846     		mov	r0, r3
 619 0154 FFF7FEFF 		bl	get_hword
 620 0158 0346     		mov	r3, r0
 621 015a 0198     		ldr	r0, [sp, #4]
 622 015c 3146     		mov	r1, r6
 623 015e 2A46     		mov	r2, r5
 624 0160 A047     		blx	r4
 625 0162 0390     		str	r0, [sp, #12]
 626              		.loc 5 132 0
 627 0164 039B     		ldr	r3, [sp, #12]
 628 0166 002B     		cmp	r3, #0
 629 0168 01D1     		bne	.L37
 630              		.loc 5 133 0
 631 016a 0023     		movs	r3, #0
 632 016c 0EE1     		b	.L33
 633              	.L37:
 634              		.loc 5 136 0
 635 016e 039B     		ldr	r3, [sp, #12]
 636 0170 5A68     		ldr	r2, [r3, #4]
 637 0172 019B     		ldr	r3, [sp, #4]
 638 0174 9A63     		str	r2, [r3, #56]
 639 0176 039B     		ldr	r3, [sp, #12]
 640 0178 1A68     		ldr	r2, [r3]
 641 017a 019B     		ldr	r3, [sp, #4]
 642 017c DA63     		str	r2, [r3, #60]
 643 017e 019B     		ldr	r3, [sp, #4]
 644 0180 0022     		movs	r2, #0
 645 0182 1A64     		str	r2, [r3, #64]
 646              		.loc 5 138 0
 647 0184 0123     		movs	r3, #1
 648 0186 01E1     		b	.L33
 649              	.L32:
 650              		.loc 5 141 0
 651 0188 019B     		ldr	r3, [sp, #4]
 652 018a 03F14F02 		add	r2, r3, #79
 653 018e 019B     		ldr	r3, [sp, #4]
 654 0190 9A63     		str	r2, [r3, #56]
 655 0192 019B     		ldr	r3, [sp, #4]
 656 0194 0122     		movs	r2, #1
 657 0196 DA63     		str	r2, [r3, #60]
 658 0198 019B     		ldr	r3, [sp, #4]
 659 019a 0022     		movs	r2, #0
 660 019c 1A64     		str	r2, [r3, #64]
 661              		.loc 5 142 0
 662 019e 0123     		movs	r3, #1
 663 01a0 F4E0     		b	.L33
 664              	.L31:
 665              		.loc 5 145 0
 666 01a2 019B     		ldr	r3, [sp, #4]
 667 01a4 93F84620 		ldrb	r2, [r3, #70]	@ zero_extendqisi2
 668 01a8 019B     		ldr	r3, [sp, #4]
 669 01aa 83F84F20 		strb	r2, [r3, #79]
 670              		.loc 5 146 0
 671 01ae 019B     		ldr	r3, [sp, #4]
 672 01b0 93F84F30 		ldrb	r3, [r3, #79]	@ zero_extendqisi2
 673 01b4 002B     		cmp	r3, #0
ARM GAS  /tmp/cc1C8LBe.s 			page 13


 674 01b6 03D1     		bne	.L38
 675              		.loc 5 147 0
 676 01b8 019B     		ldr	r3, [sp, #4]
 677 01ba 0322     		movs	r2, #3
 678 01bc 1A70     		strb	r2, [r3]
 679 01be 02E0     		b	.L39
 680              	.L38:
 681              		.loc 5 150 0
 682 01c0 019B     		ldr	r3, [sp, #4]
 683 01c2 0422     		movs	r2, #4
 684 01c4 1A70     		strb	r2, [r3]
 685              	.L39:
 686              		.loc 5 152 0
 687 01c6 019B     		ldr	r3, [sp, #4]
 688 01c8 5B68     		ldr	r3, [r3, #4]
 689 01ca 1B68     		ldr	r3, [r3]
 690 01cc 002B     		cmp	r3, #0
 691 01ce 05D0     		beq	.L40
 692              		.loc 5 152 0 is_stmt 0 discriminator 1
 693 01d0 019B     		ldr	r3, [sp, #4]
 694 01d2 5B68     		ldr	r3, [r3, #4]
 695 01d4 1B68     		ldr	r3, [r3]
 696 01d6 0198     		ldr	r0, [sp, #4]
 697 01d8 0221     		movs	r1, #2
 698 01da 9847     		blx	r3
 699              	.L40:
 700              		.loc 5 153 0 is_stmt 1
 701 01dc 019B     		ldr	r3, [sp, #4]
 702 01de 0022     		movs	r2, #0
 703 01e0 9A63     		str	r2, [r3, #56]
 704 01e2 019B     		ldr	r3, [sp, #4]
 705 01e4 0022     		movs	r2, #0
 706 01e6 DA63     		str	r2, [r3, #60]
 707 01e8 019B     		ldr	r3, [sp, #4]
 708 01ea 0022     		movs	r2, #0
 709 01ec 1A64     		str	r2, [r3, #64]
 710              		.loc 5 154 0
 711 01ee 0123     		movs	r3, #1
 712 01f0 CCE0     		b	.L33
 713              	.L24:
 714              		.loc 5 160 0
 715 01f2 019B     		ldr	r3, [sp, #4]
 716 01f4 674A     		ldr	r2, .L56
 717 01f6 9A63     		str	r2, [r3, #56]
 718 01f8 019B     		ldr	r3, [sp, #4]
 719 01fa 0222     		movs	r2, #2
 720 01fc DA63     		str	r2, [r3, #60]
 721 01fe 019B     		ldr	r3, [sp, #4]
 722 0200 0022     		movs	r2, #0
 723 0202 1A64     		str	r2, [r3, #64]
 724              		.loc 5 162 0
 725 0204 0123     		movs	r3, #1
 726 0206 C1E0     		b	.L33
 727              	.L21:
 728              		.loc 5 165 0
 729 0208 019B     		ldr	r3, [sp, #4]
 730 020a 93F84830 		ldrb	r3, [r3, #72]	@ zero_extendqisi2
ARM GAS  /tmp/cc1C8LBe.s 			page 14


 731 020e DBB2     		uxtb	r3, r3
 732 0210 5BB2     		sxtb	r3, r3
 733 0212 002B     		cmp	r3, #0
 734 0214 27DA     		bge	.L41
 735              		.loc 5 166 0
 736 0216 019B     		ldr	r3, [sp, #4]
 737 0218 93F84830 		ldrb	r3, [r3, #72]	@ zero_extendqisi2
 738 021c 03F00F03 		and	r3, r3, #15
 739 0220 DBB2     		uxtb	r3, r3
 740 0222 0198     		ldr	r0, [sp, #4]
 741 0224 1946     		mov	r1, r3
 742 0226 FFF7FEFF 		bl	usb_lld_get_status_in
 743 022a 0346     		mov	r3, r0
 744 022c 012B     		cmp	r3, #1
 745 022e 02D0     		beq	.L43
 746 0230 022B     		cmp	r3, #2
 747 0232 0BD0     		beq	.L44
 748 0234 15E0     		b	.L54
 749              	.L43:
 750              		.loc 5 169 0
 751 0236 019B     		ldr	r3, [sp, #4]
 752 0238 574A     		ldr	r2, .L56+4
 753 023a 9A63     		str	r2, [r3, #56]
 754 023c 019B     		ldr	r3, [sp, #4]
 755 023e 0222     		movs	r2, #2
 756 0240 DA63     		str	r2, [r3, #60]
 757 0242 019B     		ldr	r3, [sp, #4]
 758 0244 0022     		movs	r2, #0
 759 0246 1A64     		str	r2, [r3, #64]
 760              		.loc 5 171 0
 761 0248 0123     		movs	r3, #1
 762 024a 9FE0     		b	.L33
 763              	.L44:
 764              		.loc 5 174 0
 765 024c 019B     		ldr	r3, [sp, #4]
 766 024e 534A     		ldr	r2, .L56+8
 767 0250 9A63     		str	r2, [r3, #56]
 768 0252 019B     		ldr	r3, [sp, #4]
 769 0254 0222     		movs	r2, #2
 770 0256 DA63     		str	r2, [r3, #60]
 771 0258 019B     		ldr	r3, [sp, #4]
 772 025a 0022     		movs	r2, #0
 773 025c 1A64     		str	r2, [r3, #64]
 774              		.loc 5 176 0
 775 025e 0123     		movs	r3, #1
 776 0260 94E0     		b	.L33
 777              	.L54:
 778              		.loc 5 179 0
 779 0262 0023     		movs	r3, #0
 780 0264 92E0     		b	.L33
 781              	.L41:
 782              		.loc 5 183 0
 783 0266 019B     		ldr	r3, [sp, #4]
 784 0268 93F84830 		ldrb	r3, [r3, #72]	@ zero_extendqisi2
 785 026c 03F00F03 		and	r3, r3, #15
 786 0270 DBB2     		uxtb	r3, r3
 787 0272 0198     		ldr	r0, [sp, #4]
ARM GAS  /tmp/cc1C8LBe.s 			page 15


 788 0274 1946     		mov	r1, r3
 789 0276 FFF7FEFF 		bl	usb_lld_get_status_out
 790 027a 0346     		mov	r3, r0
 791 027c 012B     		cmp	r3, #1
 792 027e 02D0     		beq	.L46
 793 0280 022B     		cmp	r3, #2
 794 0282 0BD0     		beq	.L47
 795 0284 15E0     		b	.L55
 796              	.L46:
 797              		.loc 5 186 0
 798 0286 019B     		ldr	r3, [sp, #4]
 799 0288 434A     		ldr	r2, .L56+4
 800 028a 9A63     		str	r2, [r3, #56]
 801 028c 019B     		ldr	r3, [sp, #4]
 802 028e 0222     		movs	r2, #2
 803 0290 DA63     		str	r2, [r3, #60]
 804 0292 019B     		ldr	r3, [sp, #4]
 805 0294 0022     		movs	r2, #0
 806 0296 1A64     		str	r2, [r3, #64]
 807              		.loc 5 188 0
 808 0298 0123     		movs	r3, #1
 809 029a 77E0     		b	.L33
 810              	.L47:
 811              		.loc 5 191 0
 812 029c 019B     		ldr	r3, [sp, #4]
 813 029e 3F4A     		ldr	r2, .L56+8
 814 02a0 9A63     		str	r2, [r3, #56]
 815 02a2 019B     		ldr	r3, [sp, #4]
 816 02a4 0222     		movs	r2, #2
 817 02a6 DA63     		str	r2, [r3, #60]
 818 02a8 019B     		ldr	r3, [sp, #4]
 819 02aa 0022     		movs	r2, #0
 820 02ac 1A64     		str	r2, [r3, #64]
 821              		.loc 5 193 0
 822 02ae 0123     		movs	r3, #1
 823 02b0 6CE0     		b	.L33
 824              	.L55:
 825              		.loc 5 196 0
 826 02b2 0023     		movs	r3, #0
 827 02b4 6AE0     		b	.L33
 828              	.L26:
 829              		.loc 5 201 0
 830 02b6 019B     		ldr	r3, [sp, #4]
 831 02b8 93F84630 		ldrb	r3, [r3, #70]	@ zero_extendqisi2
 832 02bc 002B     		cmp	r3, #0
 833 02be 01D0     		beq	.L48
 834              		.loc 5 202 0
 835 02c0 0023     		movs	r3, #0
 836 02c2 63E0     		b	.L33
 837              	.L48:
 838              		.loc 5 205 0
 839 02c4 019B     		ldr	r3, [sp, #4]
 840 02c6 93F84830 		ldrb	r3, [r3, #72]	@ zero_extendqisi2
 841 02ca 03F00F03 		and	r3, r3, #15
 842 02ce 002B     		cmp	r3, #0
 843 02d0 1BD0     		beq	.L49
 844              		.loc 5 206 0
ARM GAS  /tmp/cc1C8LBe.s 			page 16


 845 02d2 019B     		ldr	r3, [sp, #4]
 846 02d4 93F84830 		ldrb	r3, [r3, #72]	@ zero_extendqisi2
 847 02d8 DBB2     		uxtb	r3, r3
 848 02da 5BB2     		sxtb	r3, r3
 849 02dc 002B     		cmp	r3, #0
 850 02de 0ADA     		bge	.L50
 851              		.loc 5 207 0
 852 02e0 019B     		ldr	r3, [sp, #4]
 853 02e2 93F84830 		ldrb	r3, [r3, #72]	@ zero_extendqisi2
 854 02e6 03F00F03 		and	r3, r3, #15
 855 02ea DBB2     		uxtb	r3, r3
 856 02ec 0198     		ldr	r0, [sp, #4]
 857 02ee 1946     		mov	r1, r3
 858 02f0 FFF7FEFF 		bl	usb_lld_clear_in
 859 02f4 09E0     		b	.L49
 860              	.L50:
 861              		.loc 5 210 0
 862 02f6 019B     		ldr	r3, [sp, #4]
 863 02f8 93F84830 		ldrb	r3, [r3, #72]	@ zero_extendqisi2
 864 02fc 03F00F03 		and	r3, r3, #15
 865 0300 DBB2     		uxtb	r3, r3
 866 0302 0198     		ldr	r0, [sp, #4]
 867 0304 1946     		mov	r1, r3
 868 0306 FFF7FEFF 		bl	usb_lld_clear_out
 869              	.L49:
 870              		.loc 5 213 0
 871 030a 019B     		ldr	r3, [sp, #4]
 872 030c 0022     		movs	r2, #0
 873 030e 9A63     		str	r2, [r3, #56]
 874 0310 019B     		ldr	r3, [sp, #4]
 875 0312 0022     		movs	r2, #0
 876 0314 DA63     		str	r2, [r3, #60]
 877 0316 019B     		ldr	r3, [sp, #4]
 878 0318 0022     		movs	r2, #0
 879 031a 1A64     		str	r2, [r3, #64]
 880              		.loc 5 214 0
 881 031c 0123     		movs	r3, #1
 882 031e 35E0     		b	.L33
 883              	.L29:
 884              		.loc 5 217 0
 885 0320 019B     		ldr	r3, [sp, #4]
 886 0322 93F84630 		ldrb	r3, [r3, #70]	@ zero_extendqisi2
 887 0326 002B     		cmp	r3, #0
 888 0328 01D0     		beq	.L51
 889              		.loc 5 218 0
 890 032a 0023     		movs	r3, #0
 891 032c 2EE0     		b	.L33
 892              	.L51:
 893              		.loc 5 221 0
 894 032e 019B     		ldr	r3, [sp, #4]
 895 0330 93F84830 		ldrb	r3, [r3, #72]	@ zero_extendqisi2
 896 0334 03F00F03 		and	r3, r3, #15
 897 0338 002B     		cmp	r3, #0
 898 033a 1BD0     		beq	.L52
 899              		.loc 5 222 0
 900 033c 019B     		ldr	r3, [sp, #4]
 901 033e 93F84830 		ldrb	r3, [r3, #72]	@ zero_extendqisi2
ARM GAS  /tmp/cc1C8LBe.s 			page 17


 902 0342 DBB2     		uxtb	r3, r3
 903 0344 5BB2     		sxtb	r3, r3
 904 0346 002B     		cmp	r3, #0
 905 0348 0ADA     		bge	.L53
 906              		.loc 5 223 0
 907 034a 019B     		ldr	r3, [sp, #4]
 908 034c 93F84830 		ldrb	r3, [r3, #72]	@ zero_extendqisi2
 909 0350 03F00F03 		and	r3, r3, #15
 910 0354 DBB2     		uxtb	r3, r3
 911 0356 0198     		ldr	r0, [sp, #4]
 912 0358 1946     		mov	r1, r3
 913 035a FFF7FEFF 		bl	usb_lld_stall_in
 914 035e 09E0     		b	.L52
 915              	.L53:
 916              		.loc 5 226 0
 917 0360 019B     		ldr	r3, [sp, #4]
 918 0362 93F84830 		ldrb	r3, [r3, #72]	@ zero_extendqisi2
 919 0366 03F00F03 		and	r3, r3, #15
 920 036a DBB2     		uxtb	r3, r3
 921 036c 0198     		ldr	r0, [sp, #4]
 922 036e 1946     		mov	r1, r3
 923 0370 FFF7FEFF 		bl	usb_lld_stall_out
 924              	.L52:
 925              		.loc 5 229 0
 926 0374 019B     		ldr	r3, [sp, #4]
 927 0376 0022     		movs	r2, #0
 928 0378 9A63     		str	r2, [r3, #56]
 929 037a 019B     		ldr	r3, [sp, #4]
 930 037c 0022     		movs	r2, #0
 931 037e DA63     		str	r2, [r3, #60]
 932 0380 019B     		ldr	r3, [sp, #4]
 933 0382 0022     		movs	r2, #0
 934 0384 1A64     		str	r2, [r3, #64]
 935              		.loc 5 230 0
 936 0386 0123     		movs	r3, #1
 937 0388 00E0     		b	.L33
 938              	.L18:
 939              		.loc 5 239 0
 940 038a 0023     		movs	r3, #0
 941              	.L33:
 942              		.loc 5 241 0
 943 038c 1846     		mov	r0, r3
 944 038e 04B0     		add	sp, sp, #16
 945              		@ sp needed
 946 0390 70BD     		pop	{r4, r5, r6, pc}
 947              	.L57:
 948 0392 00BF     		.align	2
 949              	.L56:
 950 0394 00000000 		.word	zero_status
 951 0398 00000000 		.word	halted_status
 952 039c 00000000 		.word	active_status
 953              		.cfi_endproc
 954              	.LFE273:
 955              		.size	default_handler, .-default_handler
 956              		.section	.text.usbInit,"ax",%progbits
 957              		.align	2
 958              		.p2align 4,,15
ARM GAS  /tmp/cc1C8LBe.s 			page 18


 959              		.global	usbInit
 960              		.thumb
 961              		.thumb_func
 962              		.type	usbInit, %function
 963              	usbInit:
 964              	.LFB274:
 965              		.loc 5 254 0
 966              		.cfi_startproc
 967              		@ args = 0, pretend = 0, frame = 0
 968              		@ frame_needed = 0, uses_anonymous_args = 0
 969 0000 08B5     		push	{r3, lr}
 970              		.cfi_def_cfa_offset 8
 971              		.cfi_offset 3, -8
 972              		.cfi_offset 14, -4
 973              		.loc 5 256 0
 974 0002 FFF7FEFF 		bl	usb_lld_init
 975              		.loc 5 257 0
 976 0006 08BD     		pop	{r3, pc}
 977              		.cfi_endproc
 978              	.LFE274:
 979              		.size	usbInit, .-usbInit
 980 0008 AFF30080 		.section	.text.usbObjectInit,"ax",%progbits
 980      AFF30080 
 981              		.align	2
 982              		.p2align 4,,15
 983              		.global	usbObjectInit
 984              		.thumb
 985              		.thumb_func
 986              		.type	usbObjectInit, %function
 987              	usbObjectInit:
 988              	.LFB275:
 989              		.loc 5 266 0
 990              		.cfi_startproc
 991              		@ args = 0, pretend = 0, frame = 16
 992              		@ frame_needed = 0, uses_anonymous_args = 0
 993              		@ link register save eliminated.
 994 0000 84B0     		sub	sp, sp, #16
 995              		.cfi_def_cfa_offset 16
 996 0002 0190     		str	r0, [sp, #4]
 997              		.loc 5 269 0
 998 0004 019B     		ldr	r3, [sp, #4]
 999 0006 0122     		movs	r2, #1
 1000 0008 1A70     		strb	r2, [r3]
 1001              		.loc 5 270 0
 1002 000a 019B     		ldr	r3, [sp, #4]
 1003 000c 0022     		movs	r2, #0
 1004 000e 5A60     		str	r2, [r3, #4]
 1005              		.loc 5 271 0
 1006 0010 0023     		movs	r3, #0
 1007 0012 0393     		str	r3, [sp, #12]
 1008 0014 0FE0     		b	.L60
 1009              	.L61:
 1010              		.loc 5 272 0 discriminator 2
 1011 0016 019A     		ldr	r2, [sp, #4]
 1012 0018 039B     		ldr	r3, [sp, #12]
 1013 001a 0633     		adds	r3, r3, #6
 1014 001c 9B00     		lsls	r3, r3, #2
ARM GAS  /tmp/cc1C8LBe.s 			page 19


 1015 001e 1344     		add	r3, r3, r2
 1016 0020 0022     		movs	r2, #0
 1017 0022 5A60     		str	r2, [r3, #4]
 1018              		.loc 5 273 0 discriminator 2
 1019 0024 019B     		ldr	r3, [sp, #4]
 1020 0026 039A     		ldr	r2, [sp, #12]
 1021 0028 0A32     		adds	r2, r2, #10
 1022 002a 0021     		movs	r1, #0
 1023 002c 43F82210 		str	r1, [r3, r2, lsl #2]
 1024              		.loc 5 271 0 discriminator 2
 1025 0030 039B     		ldr	r3, [sp, #12]
 1026 0032 0133     		adds	r3, r3, #1
 1027 0034 0393     		str	r3, [sp, #12]
 1028              	.L60:
 1029              		.loc 5 271 0 is_stmt 0 discriminator 1
 1030 0036 039B     		ldr	r3, [sp, #12]
 1031 0038 022B     		cmp	r3, #2
 1032 003a ECD9     		bls	.L61
 1033              		.loc 5 275 0 is_stmt 1
 1034 003c 019B     		ldr	r3, [sp, #4]
 1035 003e 0022     		movs	r2, #0
 1036 0040 1A81     		strh	r2, [r3, #8]	@ movhi
 1037              		.loc 5 276 0
 1038 0042 019B     		ldr	r3, [sp, #4]
 1039 0044 0022     		movs	r2, #0
 1040 0046 5A81     		strh	r2, [r3, #10]	@ movhi
 1041              		.loc 5 277 0
 1042 0048 04B0     		add	sp, sp, #16
 1043              		@ sp needed
 1044 004a 7047     		bx	lr
 1045              		.cfi_endproc
 1046              	.LFE275:
 1047              		.size	usbObjectInit, .-usbObjectInit
 1048 004c AFF30080 		.section	.text.usbStart,"ax",%progbits
 1049              		.align	2
 1050              		.p2align 4,,15
 1051              		.global	usbStart
 1052              		.thumb
 1053              		.thumb_func
 1054              		.type	usbStart, %function
 1055              	usbStart:
 1056              	.LFB276:
 1057              		.loc 5 287 0
 1058              		.cfi_startproc
 1059              		@ args = 0, pretend = 0, frame = 16
 1060              		@ frame_needed = 0, uses_anonymous_args = 0
 1061 0000 00B5     		push	{lr}
 1062              		.cfi_def_cfa_offset 4
 1063              		.cfi_offset 14, -4
 1064 0002 85B0     		sub	sp, sp, #20
 1065              		.cfi_def_cfa_offset 24
 1066 0004 0190     		str	r0, [sp, #4]
 1067 0006 0091     		str	r1, [sp]
 1068              		.loc 5 292 0
 1069 0008 FFF7FEFF 		bl	osalSysLock
 1070              		.loc 5 295 0
 1071 000c 019B     		ldr	r3, [sp, #4]
ARM GAS  /tmp/cc1C8LBe.s 			page 20


 1072 000e 009A     		ldr	r2, [sp]
 1073 0010 5A60     		str	r2, [r3, #4]
 1074              		.loc 5 296 0
 1075 0012 0023     		movs	r3, #0
 1076 0014 0393     		str	r3, [sp, #12]
 1077 0016 09E0     		b	.L63
 1078              	.L64:
 1079              		.loc 5 297 0 discriminator 2
 1080 0018 019A     		ldr	r2, [sp, #4]
 1081 001a 039B     		ldr	r3, [sp, #12]
 1082 001c 0233     		adds	r3, r3, #2
 1083 001e 9B00     		lsls	r3, r3, #2
 1084 0020 1344     		add	r3, r3, r2
 1085 0022 0022     		movs	r2, #0
 1086 0024 5A60     		str	r2, [r3, #4]
 1087              		.loc 5 296 0 discriminator 2
 1088 0026 039B     		ldr	r3, [sp, #12]
 1089 0028 0133     		adds	r3, r3, #1
 1090 002a 0393     		str	r3, [sp, #12]
 1091              	.L63:
 1092              		.loc 5 296 0 is_stmt 0 discriminator 1
 1093 002c 039B     		ldr	r3, [sp, #12]
 1094 002e 032B     		cmp	r3, #3
 1095 0030 F2D9     		bls	.L64
 1096              		.loc 5 299 0 is_stmt 1
 1097 0032 0198     		ldr	r0, [sp, #4]
 1098 0034 FFF7FEFF 		bl	usb_lld_start
 1099              		.loc 5 300 0
 1100 0038 019B     		ldr	r3, [sp, #4]
 1101 003a 0222     		movs	r2, #2
 1102 003c 1A70     		strb	r2, [r3]
 1103              		.loc 5 301 0
 1104 003e FFF7FEFF 		bl	osalSysUnlock
 1105              		.loc 5 302 0
 1106 0042 05B0     		add	sp, sp, #20
 1107              		@ sp needed
 1108 0044 5DF804FB 		ldr	pc, [sp], #4
 1109              		.cfi_endproc
 1110              	.LFE276:
 1111              		.size	usbStart, .-usbStart
 1112 0048 AFF30080 		.section	.text.usbStop,"ax",%progbits
 1112      AFF30080 
 1113              		.align	2
 1114              		.p2align 4,,15
 1115              		.global	usbStop
 1116              		.thumb
 1117              		.thumb_func
 1118              		.type	usbStop, %function
 1119              	usbStop:
 1120              	.LFB277:
 1121              		.loc 5 311 0
 1122              		.cfi_startproc
 1123              		@ args = 0, pretend = 0, frame = 8
 1124              		@ frame_needed = 0, uses_anonymous_args = 0
 1125 0000 00B5     		push	{lr}
 1126              		.cfi_def_cfa_offset 4
 1127              		.cfi_offset 14, -4
ARM GAS  /tmp/cc1C8LBe.s 			page 21


 1128 0002 83B0     		sub	sp, sp, #12
 1129              		.cfi_def_cfa_offset 16
 1130 0004 0190     		str	r0, [sp, #4]
 1131              		.loc 5 315 0
 1132 0006 FFF7FEFF 		bl	osalSysLock
 1133              		.loc 5 319 0
 1134 000a 0198     		ldr	r0, [sp, #4]
 1135 000c FFF7FEFF 		bl	usb_lld_stop
 1136              		.loc 5 320 0
 1137 0010 019B     		ldr	r3, [sp, #4]
 1138 0012 0122     		movs	r2, #1
 1139 0014 1A70     		strb	r2, [r3]
 1140              		.loc 5 321 0
 1141 0016 FFF7FEFF 		bl	osalSysUnlock
 1142              		.loc 5 322 0
 1143 001a 03B0     		add	sp, sp, #12
 1144              		@ sp needed
 1145 001c 5DF804FB 		ldr	pc, [sp], #4
 1146              		.cfi_endproc
 1147              	.LFE277:
 1148              		.size	usbStop, .-usbStop
 1149              		.section	.text.usbInitEndpointI,"ax",%progbits
 1150              		.align	2
 1151              		.p2align 4,,15
 1152              		.global	usbInitEndpointI
 1153              		.thumb
 1154              		.thumb_func
 1155              		.type	usbInitEndpointI, %function
 1156              	usbInitEndpointI:
 1157              	.LFB278:
 1158              		.loc 5 338 0
 1159              		.cfi_startproc
 1160              		@ args = 0, pretend = 0, frame = 16
 1161              		@ frame_needed = 0, uses_anonymous_args = 0
 1162 0000 00B5     		push	{lr}
 1163              		.cfi_def_cfa_offset 4
 1164              		.cfi_offset 14, -4
 1165 0002 85B0     		sub	sp, sp, #20
 1166              		.cfi_def_cfa_offset 24
 1167 0004 0390     		str	r0, [sp, #12]
 1168 0006 0B46     		mov	r3, r1
 1169 0008 0192     		str	r2, [sp, #4]
 1170 000a 8DF80B30 		strb	r3, [sp, #11]
 1171              		.loc 5 347 0
 1172 000e 019B     		ldr	r3, [sp, #4]
 1173 0010 5B69     		ldr	r3, [r3, #20]
 1174 0012 002B     		cmp	r3, #0
 1175 0014 06D0     		beq	.L67
 1176              		.loc 5 348 0
 1177 0016 019B     		ldr	r3, [sp, #4]
 1178 0018 5B69     		ldr	r3, [r3, #20]
 1179 001a 1846     		mov	r0, r3
 1180 001c 0021     		movs	r1, #0
 1181 001e 1422     		movs	r2, #20
 1182 0020 FFF7FEFF 		bl	memset
 1183              	.L67:
 1184              		.loc 5 350 0
ARM GAS  /tmp/cc1C8LBe.s 			page 22


 1185 0024 019B     		ldr	r3, [sp, #4]
 1186 0026 9B69     		ldr	r3, [r3, #24]
 1187 0028 002B     		cmp	r3, #0
 1188 002a 06D0     		beq	.L68
 1189              		.loc 5 351 0
 1190 002c 019B     		ldr	r3, [sp, #4]
 1191 002e 9B69     		ldr	r3, [r3, #24]
 1192 0030 1846     		mov	r0, r3
 1193 0032 0021     		movs	r1, #0
 1194 0034 1422     		movs	r2, #20
 1195 0036 FFF7FEFF 		bl	memset
 1196              	.L68:
 1197              		.loc 5 354 0
 1198 003a 9DF80B30 		ldrb	r3, [sp, #11]	@ zero_extendqisi2
 1199 003e 039A     		ldr	r2, [sp, #12]
 1200 0040 0233     		adds	r3, r3, #2
 1201 0042 9B00     		lsls	r3, r3, #2
 1202 0044 1344     		add	r3, r3, r2
 1203 0046 019A     		ldr	r2, [sp, #4]
 1204 0048 5A60     		str	r2, [r3, #4]
 1205              		.loc 5 357 0
 1206 004a 9DF80B30 		ldrb	r3, [sp, #11]	@ zero_extendqisi2
 1207 004e 0398     		ldr	r0, [sp, #12]
 1208 0050 1946     		mov	r1, r3
 1209 0052 FFF7FEFF 		bl	usb_lld_init_endpoint
 1210              		.loc 5 358 0
 1211 0056 05B0     		add	sp, sp, #20
 1212              		@ sp needed
 1213 0058 5DF804FB 		ldr	pc, [sp], #4
 1214              		.cfi_endproc
 1215              	.LFE278:
 1216              		.size	usbInitEndpointI, .-usbInitEndpointI
 1217 005c AFF30080 		.section	.text.usbDisableEndpointsI,"ax",%progbits
 1218              		.align	2
 1219              		.p2align 4,,15
 1220              		.global	usbDisableEndpointsI
 1221              		.thumb
 1222              		.thumb_func
 1223              		.type	usbDisableEndpointsI, %function
 1224              	usbDisableEndpointsI:
 1225              	.LFB279:
 1226              		.loc 5 371 0
 1227              		.cfi_startproc
 1228              		@ args = 0, pretend = 0, frame = 16
 1229              		@ frame_needed = 0, uses_anonymous_args = 0
 1230 0000 00B5     		push	{lr}
 1231              		.cfi_def_cfa_offset 4
 1232              		.cfi_offset 14, -4
 1233 0002 85B0     		sub	sp, sp, #20
 1234              		.cfi_def_cfa_offset 24
 1235 0004 0190     		str	r0, [sp, #4]
 1236              		.loc 5 378 0
 1237 0006 019B     		ldr	r3, [sp, #4]
 1238 0008 1B89     		ldrh	r3, [r3, #8]
 1239 000a 23F00103 		bic	r3, r3, #1
 1240 000e 9AB2     		uxth	r2, r3
 1241 0010 019B     		ldr	r3, [sp, #4]
ARM GAS  /tmp/cc1C8LBe.s 			page 23


 1242 0012 1A81     		strh	r2, [r3, #8]	@ movhi
 1243              		.loc 5 379 0
 1244 0014 019B     		ldr	r3, [sp, #4]
 1245 0016 5B89     		ldrh	r3, [r3, #10]
 1246 0018 23F00103 		bic	r3, r3, #1
 1247 001c 9AB2     		uxth	r2, r3
 1248 001e 019B     		ldr	r3, [sp, #4]
 1249 0020 5A81     		strh	r2, [r3, #10]	@ movhi
 1250              		.loc 5 380 0
 1251 0022 0123     		movs	r3, #1
 1252 0024 0393     		str	r3, [sp, #12]
 1253 0026 09E0     		b	.L70
 1254              	.L71:
 1255              		.loc 5 381 0 discriminator 2
 1256 0028 019A     		ldr	r2, [sp, #4]
 1257 002a 039B     		ldr	r3, [sp, #12]
 1258 002c 0233     		adds	r3, r3, #2
 1259 002e 9B00     		lsls	r3, r3, #2
 1260 0030 1344     		add	r3, r3, r2
 1261 0032 0022     		movs	r2, #0
 1262 0034 5A60     		str	r2, [r3, #4]
 1263              		.loc 5 380 0 discriminator 2
 1264 0036 039B     		ldr	r3, [sp, #12]
 1265 0038 0133     		adds	r3, r3, #1
 1266 003a 0393     		str	r3, [sp, #12]
 1267              	.L70:
 1268              		.loc 5 380 0 is_stmt 0 discriminator 1
 1269 003c 039B     		ldr	r3, [sp, #12]
 1270 003e 032B     		cmp	r3, #3
 1271 0040 F2D9     		bls	.L71
 1272              		.loc 5 385 0 is_stmt 1
 1273 0042 0198     		ldr	r0, [sp, #4]
 1274 0044 FFF7FEFF 		bl	usb_lld_disable_endpoints
 1275              		.loc 5 386 0
 1276 0048 05B0     		add	sp, sp, #20
 1277              		@ sp needed
 1278 004a 5DF804FB 		ldr	pc, [sp], #4
 1279              		.cfi_endproc
 1280              	.LFE279:
 1281              		.size	usbDisableEndpointsI, .-usbDisableEndpointsI
 1282 004e 00BF     		.section	.text.usbPrepareReceive,"ax",%progbits
 1283              		.align	2
 1284              		.p2align 4,,15
 1285              		.global	usbPrepareReceive
 1286              		.thumb
 1287              		.thumb_func
 1288              		.type	usbPrepareReceive, %function
 1289              	usbPrepareReceive:
 1290              	.LFB280:
 1291              		.loc 5 400 0
 1292              		.cfi_startproc
 1293              		@ args = 0, pretend = 0, frame = 24
 1294              		@ frame_needed = 0, uses_anonymous_args = 0
 1295 0000 00B5     		push	{lr}
 1296              		.cfi_def_cfa_offset 4
 1297              		.cfi_offset 14, -4
 1298 0002 87B0     		sub	sp, sp, #28
ARM GAS  /tmp/cc1C8LBe.s 			page 24


 1299              		.cfi_def_cfa_offset 32
 1300 0004 0390     		str	r0, [sp, #12]
 1301 0006 0192     		str	r2, [sp, #4]
 1302 0008 0093     		str	r3, [sp]
 1303 000a 0B46     		mov	r3, r1
 1304 000c 8DF80B30 		strb	r3, [sp, #11]
 1305              		.loc 5 401 0
 1306 0010 9DF80B30 		ldrb	r3, [sp, #11]	@ zero_extendqisi2
 1307 0014 039A     		ldr	r2, [sp, #12]
 1308 0016 0233     		adds	r3, r3, #2
 1309 0018 9B00     		lsls	r3, r3, #2
 1310 001a 1344     		add	r3, r3, r2
 1311 001c 5B68     		ldr	r3, [r3, #4]
 1312 001e 9B69     		ldr	r3, [r3, #24]
 1313 0020 0593     		str	r3, [sp, #20]
 1314              		.loc 5 403 0
 1315 0022 059B     		ldr	r3, [sp, #20]
 1316 0024 0022     		movs	r2, #0
 1317 0026 1A70     		strb	r2, [r3]
 1318              		.loc 5 404 0
 1319 0028 059B     		ldr	r3, [sp, #20]
 1320 002a 019A     		ldr	r2, [sp, #4]
 1321 002c DA60     		str	r2, [r3, #12]
 1322              		.loc 5 405 0
 1323 002e 059B     		ldr	r3, [sp, #20]
 1324 0030 009A     		ldr	r2, [sp]
 1325 0032 5A60     		str	r2, [r3, #4]
 1326              		.loc 5 406 0
 1327 0034 059B     		ldr	r3, [sp, #20]
 1328 0036 0022     		movs	r2, #0
 1329 0038 9A60     		str	r2, [r3, #8]
 1330              		.loc 5 408 0
 1331 003a 9DF80B30 		ldrb	r3, [sp, #11]	@ zero_extendqisi2
 1332 003e 0398     		ldr	r0, [sp, #12]
 1333 0040 1946     		mov	r1, r3
 1334 0042 FFF7FEFF 		bl	usb_lld_prepare_receive
 1335              		.loc 5 409 0
 1336 0046 07B0     		add	sp, sp, #28
 1337              		@ sp needed
 1338 0048 5DF804FB 		ldr	pc, [sp], #4
 1339              		.cfi_endproc
 1340              	.LFE280:
 1341              		.size	usbPrepareReceive, .-usbPrepareReceive
 1342 004c AFF30080 		.section	.text.usbPrepareTransmit,"ax",%progbits
 1343              		.align	2
 1344              		.p2align 4,,15
 1345              		.global	usbPrepareTransmit
 1346              		.thumb
 1347              		.thumb_func
 1348              		.type	usbPrepareTransmit, %function
 1349              	usbPrepareTransmit:
 1350              	.LFB281:
 1351              		.loc 5 426 0
 1352              		.cfi_startproc
 1353              		@ args = 0, pretend = 0, frame = 24
 1354              		@ frame_needed = 0, uses_anonymous_args = 0
 1355 0000 00B5     		push	{lr}
ARM GAS  /tmp/cc1C8LBe.s 			page 25


 1356              		.cfi_def_cfa_offset 4
 1357              		.cfi_offset 14, -4
 1358 0002 87B0     		sub	sp, sp, #28
 1359              		.cfi_def_cfa_offset 32
 1360 0004 0390     		str	r0, [sp, #12]
 1361 0006 0192     		str	r2, [sp, #4]
 1362 0008 0093     		str	r3, [sp]
 1363 000a 0B46     		mov	r3, r1
 1364 000c 8DF80B30 		strb	r3, [sp, #11]
 1365              		.loc 5 427 0
 1366 0010 9DF80B30 		ldrb	r3, [sp, #11]	@ zero_extendqisi2
 1367 0014 039A     		ldr	r2, [sp, #12]
 1368 0016 0233     		adds	r3, r3, #2
 1369 0018 9B00     		lsls	r3, r3, #2
 1370 001a 1344     		add	r3, r3, r2
 1371 001c 5B68     		ldr	r3, [r3, #4]
 1372 001e 5B69     		ldr	r3, [r3, #20]
 1373 0020 0593     		str	r3, [sp, #20]
 1374              		.loc 5 429 0
 1375 0022 059B     		ldr	r3, [sp, #20]
 1376 0024 0022     		movs	r2, #0
 1377 0026 1A70     		strb	r2, [r3]
 1378              		.loc 5 430 0
 1379 0028 059B     		ldr	r3, [sp, #20]
 1380 002a 019A     		ldr	r2, [sp, #4]
 1381 002c DA60     		str	r2, [r3, #12]
 1382              		.loc 5 431 0
 1383 002e 059B     		ldr	r3, [sp, #20]
 1384 0030 009A     		ldr	r2, [sp]
 1385 0032 5A60     		str	r2, [r3, #4]
 1386              		.loc 5 432 0
 1387 0034 059B     		ldr	r3, [sp, #20]
 1388 0036 0022     		movs	r2, #0
 1389 0038 9A60     		str	r2, [r3, #8]
 1390              		.loc 5 434 0
 1391 003a 9DF80B30 		ldrb	r3, [sp, #11]	@ zero_extendqisi2
 1392 003e 0398     		ldr	r0, [sp, #12]
 1393 0040 1946     		mov	r1, r3
 1394 0042 FFF7FEFF 		bl	usb_lld_prepare_transmit
 1395              		.loc 5 435 0
 1396 0046 07B0     		add	sp, sp, #28
 1397              		@ sp needed
 1398 0048 5DF804FB 		ldr	pc, [sp], #4
 1399              		.cfi_endproc
 1400              	.LFE281:
 1401              		.size	usbPrepareTransmit, .-usbPrepareTransmit
 1402 004c AFF30080 		.section	.text.usbPrepareQueuedReceive,"ax",%progbits
 1403              		.align	2
 1404              		.p2align 4,,15
 1405              		.global	usbPrepareQueuedReceive
 1406              		.thumb
 1407              		.thumb_func
 1408              		.type	usbPrepareQueuedReceive, %function
 1409              	usbPrepareQueuedReceive:
 1410              	.LFB282:
 1411              		.loc 5 455 0
 1412              		.cfi_startproc
ARM GAS  /tmp/cc1C8LBe.s 			page 26


 1413              		@ args = 0, pretend = 0, frame = 24
 1414              		@ frame_needed = 0, uses_anonymous_args = 0
 1415 0000 00B5     		push	{lr}
 1416              		.cfi_def_cfa_offset 4
 1417              		.cfi_offset 14, -4
 1418 0002 87B0     		sub	sp, sp, #28
 1419              		.cfi_def_cfa_offset 32
 1420 0004 0390     		str	r0, [sp, #12]
 1421 0006 0192     		str	r2, [sp, #4]
 1422 0008 0093     		str	r3, [sp]
 1423 000a 0B46     		mov	r3, r1
 1424 000c 8DF80B30 		strb	r3, [sp, #11]
 1425              		.loc 5 456 0
 1426 0010 9DF80B30 		ldrb	r3, [sp, #11]	@ zero_extendqisi2
 1427 0014 039A     		ldr	r2, [sp, #12]
 1428 0016 0233     		adds	r3, r3, #2
 1429 0018 9B00     		lsls	r3, r3, #2
 1430 001a 1344     		add	r3, r3, r2
 1431 001c 5B68     		ldr	r3, [r3, #4]
 1432 001e 9B69     		ldr	r3, [r3, #24]
 1433 0020 0593     		str	r3, [sp, #20]
 1434              		.loc 5 458 0
 1435 0022 059B     		ldr	r3, [sp, #20]
 1436 0024 0122     		movs	r2, #1
 1437 0026 1A70     		strb	r2, [r3]
 1438              		.loc 5 459 0
 1439 0028 059B     		ldr	r3, [sp, #20]
 1440 002a 019A     		ldr	r2, [sp, #4]
 1441 002c DA60     		str	r2, [r3, #12]
 1442              		.loc 5 460 0
 1443 002e 059B     		ldr	r3, [sp, #20]
 1444 0030 009A     		ldr	r2, [sp]
 1445 0032 5A60     		str	r2, [r3, #4]
 1446              		.loc 5 461 0
 1447 0034 059B     		ldr	r3, [sp, #20]
 1448 0036 0022     		movs	r2, #0
 1449 0038 9A60     		str	r2, [r3, #8]
 1450              		.loc 5 463 0
 1451 003a 9DF80B30 		ldrb	r3, [sp, #11]	@ zero_extendqisi2
 1452 003e 0398     		ldr	r0, [sp, #12]
 1453 0040 1946     		mov	r1, r3
 1454 0042 FFF7FEFF 		bl	usb_lld_prepare_receive
 1455              		.loc 5 464 0
 1456 0046 07B0     		add	sp, sp, #28
 1457              		@ sp needed
 1458 0048 5DF804FB 		ldr	pc, [sp], #4
 1459              		.cfi_endproc
 1460              	.LFE282:
 1461              		.size	usbPrepareQueuedReceive, .-usbPrepareQueuedReceive
 1462 004c AFF30080 		.section	.text.usbPrepareQueuedTransmit,"ax",%progbits
 1463              		.align	2
 1464              		.p2align 4,,15
 1465              		.global	usbPrepareQueuedTransmit
 1466              		.thumb
 1467              		.thumb_func
 1468              		.type	usbPrepareQueuedTransmit, %function
 1469              	usbPrepareQueuedTransmit:
ARM GAS  /tmp/cc1C8LBe.s 			page 27


 1470              	.LFB283:
 1471              		.loc 5 481 0
 1472              		.cfi_startproc
 1473              		@ args = 0, pretend = 0, frame = 24
 1474              		@ frame_needed = 0, uses_anonymous_args = 0
 1475 0000 00B5     		push	{lr}
 1476              		.cfi_def_cfa_offset 4
 1477              		.cfi_offset 14, -4
 1478 0002 87B0     		sub	sp, sp, #28
 1479              		.cfi_def_cfa_offset 32
 1480 0004 0390     		str	r0, [sp, #12]
 1481 0006 0192     		str	r2, [sp, #4]
 1482 0008 0093     		str	r3, [sp]
 1483 000a 0B46     		mov	r3, r1
 1484 000c 8DF80B30 		strb	r3, [sp, #11]
 1485              		.loc 5 482 0
 1486 0010 9DF80B30 		ldrb	r3, [sp, #11]	@ zero_extendqisi2
 1487 0014 039A     		ldr	r2, [sp, #12]
 1488 0016 0233     		adds	r3, r3, #2
 1489 0018 9B00     		lsls	r3, r3, #2
 1490 001a 1344     		add	r3, r3, r2
 1491 001c 5B68     		ldr	r3, [r3, #4]
 1492 001e 5B69     		ldr	r3, [r3, #20]
 1493 0020 0593     		str	r3, [sp, #20]
 1494              		.loc 5 484 0
 1495 0022 059B     		ldr	r3, [sp, #20]
 1496 0024 0122     		movs	r2, #1
 1497 0026 1A70     		strb	r2, [r3]
 1498              		.loc 5 485 0
 1499 0028 059B     		ldr	r3, [sp, #20]
 1500 002a 019A     		ldr	r2, [sp, #4]
 1501 002c DA60     		str	r2, [r3, #12]
 1502              		.loc 5 486 0
 1503 002e 059B     		ldr	r3, [sp, #20]
 1504 0030 009A     		ldr	r2, [sp]
 1505 0032 5A60     		str	r2, [r3, #4]
 1506              		.loc 5 487 0
 1507 0034 059B     		ldr	r3, [sp, #20]
 1508 0036 0022     		movs	r2, #0
 1509 0038 9A60     		str	r2, [r3, #8]
 1510              		.loc 5 489 0
 1511 003a 9DF80B30 		ldrb	r3, [sp, #11]	@ zero_extendqisi2
 1512 003e 0398     		ldr	r0, [sp, #12]
 1513 0040 1946     		mov	r1, r3
 1514 0042 FFF7FEFF 		bl	usb_lld_prepare_transmit
 1515              		.loc 5 490 0
 1516 0046 07B0     		add	sp, sp, #28
 1517              		@ sp needed
 1518 0048 5DF804FB 		ldr	pc, [sp], #4
 1519              		.cfi_endproc
 1520              	.LFE283:
 1521              		.size	usbPrepareQueuedTransmit, .-usbPrepareQueuedTransmit
 1522 004c AFF30080 		.section	.text.usbStartReceiveI,"ax",%progbits
 1523              		.align	2
 1524              		.p2align 4,,15
 1525              		.global	usbStartReceiveI
 1526              		.thumb
ARM GAS  /tmp/cc1C8LBe.s 			page 28


 1527              		.thumb_func
 1528              		.type	usbStartReceiveI, %function
 1529              	usbStartReceiveI:
 1530              	.LFB284:
 1531              		.loc 5 506 0
 1532              		.cfi_startproc
 1533              		@ args = 0, pretend = 0, frame = 8
 1534              		@ frame_needed = 0, uses_anonymous_args = 0
 1535 0000 00B5     		push	{lr}
 1536              		.cfi_def_cfa_offset 4
 1537              		.cfi_offset 14, -4
 1538 0002 83B0     		sub	sp, sp, #12
 1539              		.cfi_def_cfa_offset 16
 1540 0004 0190     		str	r0, [sp, #4]
 1541 0006 0B46     		mov	r3, r1
 1542 0008 8DF80330 		strb	r3, [sp, #3]
 1543              		.loc 5 511 0
 1544 000c 019B     		ldr	r3, [sp, #4]
 1545 000e 5A89     		ldrh	r2, [r3, #10]
 1546 0010 9DF80330 		ldrb	r3, [sp, #3]	@ zero_extendqisi2
 1547 0014 0121     		movs	r1, #1
 1548 0016 01FA03F3 		lsl	r3, r1, r3
 1549 001a 9BB2     		uxth	r3, r3
 1550 001c 1340     		ands	r3, r3, r2
 1551 001e 9BB2     		uxth	r3, r3
 1552 0020 002B     		cmp	r3, #0
 1553 0022 01D0     		beq	.L77
 1554              		.loc 5 512 0
 1555 0024 0123     		movs	r3, #1
 1556 0026 12E0     		b	.L78
 1557              	.L77:
 1558              		.loc 5 515 0
 1559 0028 019B     		ldr	r3, [sp, #4]
 1560 002a 5A89     		ldrh	r2, [r3, #10]
 1561 002c 9DF80330 		ldrb	r3, [sp, #3]	@ zero_extendqisi2
 1562 0030 0121     		movs	r1, #1
 1563 0032 01FA03F3 		lsl	r3, r1, r3
 1564 0036 9BB2     		uxth	r3, r3
 1565 0038 1343     		orrs	r3, r3, r2
 1566 003a 9AB2     		uxth	r2, r3
 1567 003c 019B     		ldr	r3, [sp, #4]
 1568 003e 5A81     		strh	r2, [r3, #10]	@ movhi
 1569              		.loc 5 516 0
 1570 0040 9DF80330 		ldrb	r3, [sp, #3]	@ zero_extendqisi2
 1571 0044 0198     		ldr	r0, [sp, #4]
 1572 0046 1946     		mov	r1, r3
 1573 0048 FFF7FEFF 		bl	usb_lld_start_out
 1574              		.loc 5 517 0
 1575 004c 0023     		movs	r3, #0
 1576              	.L78:
 1577              		.loc 5 518 0
 1578 004e 1846     		mov	r0, r3
 1579 0050 03B0     		add	sp, sp, #12
 1580              		@ sp needed
 1581 0052 5DF804FB 		ldr	pc, [sp], #4
 1582              		.cfi_endproc
 1583              	.LFE284:
ARM GAS  /tmp/cc1C8LBe.s 			page 29


 1584              		.size	usbStartReceiveI, .-usbStartReceiveI
 1585 0056 00BFAFF3 		.section	.text.usbStartTransmitI,"ax",%progbits
 1585      0080AFF3 
 1585      0080
 1586              		.align	2
 1587              		.p2align 4,,15
 1588              		.global	usbStartTransmitI
 1589              		.thumb
 1590              		.thumb_func
 1591              		.type	usbStartTransmitI, %function
 1592              	usbStartTransmitI:
 1593              	.LFB285:
 1594              		.loc 5 534 0
 1595              		.cfi_startproc
 1596              		@ args = 0, pretend = 0, frame = 8
 1597              		@ frame_needed = 0, uses_anonymous_args = 0
 1598 0000 00B5     		push	{lr}
 1599              		.cfi_def_cfa_offset 4
 1600              		.cfi_offset 14, -4
 1601 0002 83B0     		sub	sp, sp, #12
 1602              		.cfi_def_cfa_offset 16
 1603 0004 0190     		str	r0, [sp, #4]
 1604 0006 0B46     		mov	r3, r1
 1605 0008 8DF80330 		strb	r3, [sp, #3]
 1606              		.loc 5 539 0
 1607 000c 019B     		ldr	r3, [sp, #4]
 1608 000e 1A89     		ldrh	r2, [r3, #8]
 1609 0010 9DF80330 		ldrb	r3, [sp, #3]	@ zero_extendqisi2
 1610 0014 0121     		movs	r1, #1
 1611 0016 01FA03F3 		lsl	r3, r1, r3
 1612 001a 9BB2     		uxth	r3, r3
 1613 001c 1340     		ands	r3, r3, r2
 1614 001e 9BB2     		uxth	r3, r3
 1615 0020 002B     		cmp	r3, #0
 1616 0022 01D0     		beq	.L80
 1617              		.loc 5 540 0
 1618 0024 0123     		movs	r3, #1
 1619 0026 12E0     		b	.L81
 1620              	.L80:
 1621              		.loc 5 543 0
 1622 0028 019B     		ldr	r3, [sp, #4]
 1623 002a 1A89     		ldrh	r2, [r3, #8]
 1624 002c 9DF80330 		ldrb	r3, [sp, #3]	@ zero_extendqisi2
 1625 0030 0121     		movs	r1, #1
 1626 0032 01FA03F3 		lsl	r3, r1, r3
 1627 0036 9BB2     		uxth	r3, r3
 1628 0038 1343     		orrs	r3, r3, r2
 1629 003a 9AB2     		uxth	r2, r3
 1630 003c 019B     		ldr	r3, [sp, #4]
 1631 003e 1A81     		strh	r2, [r3, #8]	@ movhi
 1632              		.loc 5 544 0
 1633 0040 9DF80330 		ldrb	r3, [sp, #3]	@ zero_extendqisi2
 1634 0044 0198     		ldr	r0, [sp, #4]
 1635 0046 1946     		mov	r1, r3
 1636 0048 FFF7FEFF 		bl	usb_lld_start_in
 1637              		.loc 5 545 0
 1638 004c 0023     		movs	r3, #0
ARM GAS  /tmp/cc1C8LBe.s 			page 30


 1639              	.L81:
 1640              		.loc 5 546 0
 1641 004e 1846     		mov	r0, r3
 1642 0050 03B0     		add	sp, sp, #12
 1643              		@ sp needed
 1644 0052 5DF804FB 		ldr	pc, [sp], #4
 1645              		.cfi_endproc
 1646              	.LFE285:
 1647              		.size	usbStartTransmitI, .-usbStartTransmitI
 1648 0056 00BFAFF3 		.section	.text.usbStallReceiveI,"ax",%progbits
 1648      0080AFF3 
 1648      0080
 1649              		.align	2
 1650              		.p2align 4,,15
 1651              		.global	usbStallReceiveI
 1652              		.thumb
 1653              		.thumb_func
 1654              		.type	usbStallReceiveI, %function
 1655              	usbStallReceiveI:
 1656              	.LFB286:
 1657              		.loc 5 560 0
 1658              		.cfi_startproc
 1659              		@ args = 0, pretend = 0, frame = 8
 1660              		@ frame_needed = 0, uses_anonymous_args = 0
 1661 0000 00B5     		push	{lr}
 1662              		.cfi_def_cfa_offset 4
 1663              		.cfi_offset 14, -4
 1664 0002 83B0     		sub	sp, sp, #12
 1665              		.cfi_def_cfa_offset 16
 1666 0004 0190     		str	r0, [sp, #4]
 1667 0006 0B46     		mov	r3, r1
 1668 0008 8DF80330 		strb	r3, [sp, #3]
 1669              		.loc 5 565 0
 1670 000c 019B     		ldr	r3, [sp, #4]
 1671 000e 5A89     		ldrh	r2, [r3, #10]
 1672 0010 9DF80330 		ldrb	r3, [sp, #3]	@ zero_extendqisi2
 1673 0014 0121     		movs	r1, #1
 1674 0016 01FA03F3 		lsl	r3, r1, r3
 1675 001a 9BB2     		uxth	r3, r3
 1676 001c 1340     		ands	r3, r3, r2
 1677 001e 9BB2     		uxth	r3, r3
 1678 0020 002B     		cmp	r3, #0
 1679 0022 01D0     		beq	.L83
 1680              		.loc 5 566 0
 1681 0024 0123     		movs	r3, #1
 1682 0026 06E0     		b	.L84
 1683              	.L83:
 1684              		.loc 5 569 0
 1685 0028 9DF80330 		ldrb	r3, [sp, #3]	@ zero_extendqisi2
 1686 002c 0198     		ldr	r0, [sp, #4]
 1687 002e 1946     		mov	r1, r3
 1688 0030 FFF7FEFF 		bl	usb_lld_stall_out
 1689              		.loc 5 570 0
 1690 0034 0023     		movs	r3, #0
 1691              	.L84:
 1692              		.loc 5 571 0
 1693 0036 1846     		mov	r0, r3
ARM GAS  /tmp/cc1C8LBe.s 			page 31


 1694 0038 03B0     		add	sp, sp, #12
 1695              		@ sp needed
 1696 003a 5DF804FB 		ldr	pc, [sp], #4
 1697              		.cfi_endproc
 1698              	.LFE286:
 1699              		.size	usbStallReceiveI, .-usbStallReceiveI
 1700 003e 00BF     		.section	.text.usbStallTransmitI,"ax",%progbits
 1701              		.align	2
 1702              		.p2align 4,,15
 1703              		.global	usbStallTransmitI
 1704              		.thumb
 1705              		.thumb_func
 1706              		.type	usbStallTransmitI, %function
 1707              	usbStallTransmitI:
 1708              	.LFB287:
 1709              		.loc 5 585 0
 1710              		.cfi_startproc
 1711              		@ args = 0, pretend = 0, frame = 8
 1712              		@ frame_needed = 0, uses_anonymous_args = 0
 1713 0000 00B5     		push	{lr}
 1714              		.cfi_def_cfa_offset 4
 1715              		.cfi_offset 14, -4
 1716 0002 83B0     		sub	sp, sp, #12
 1717              		.cfi_def_cfa_offset 16
 1718 0004 0190     		str	r0, [sp, #4]
 1719 0006 0B46     		mov	r3, r1
 1720 0008 8DF80330 		strb	r3, [sp, #3]
 1721              		.loc 5 590 0
 1722 000c 019B     		ldr	r3, [sp, #4]
 1723 000e 1A89     		ldrh	r2, [r3, #8]
 1724 0010 9DF80330 		ldrb	r3, [sp, #3]	@ zero_extendqisi2
 1725 0014 0121     		movs	r1, #1
 1726 0016 01FA03F3 		lsl	r3, r1, r3
 1727 001a 9BB2     		uxth	r3, r3
 1728 001c 1340     		ands	r3, r3, r2
 1729 001e 9BB2     		uxth	r3, r3
 1730 0020 002B     		cmp	r3, #0
 1731 0022 01D0     		beq	.L86
 1732              		.loc 5 591 0
 1733 0024 0123     		movs	r3, #1
 1734 0026 06E0     		b	.L87
 1735              	.L86:
 1736              		.loc 5 594 0
 1737 0028 9DF80330 		ldrb	r3, [sp, #3]	@ zero_extendqisi2
 1738 002c 0198     		ldr	r0, [sp, #4]
 1739 002e 1946     		mov	r1, r3
 1740 0030 FFF7FEFF 		bl	usb_lld_stall_in
 1741              		.loc 5 595 0
 1742 0034 0023     		movs	r3, #0
 1743              	.L87:
 1744              		.loc 5 596 0
 1745 0036 1846     		mov	r0, r3
 1746 0038 03B0     		add	sp, sp, #12
 1747              		@ sp needed
 1748 003a 5DF804FB 		ldr	pc, [sp], #4
 1749              		.cfi_endproc
 1750              	.LFE287:
ARM GAS  /tmp/cc1C8LBe.s 			page 32


 1751              		.size	usbStallTransmitI, .-usbStallTransmitI
 1752 003e 00BF     		.section	.text._usb_reset,"ax",%progbits
 1753              		.align	2
 1754              		.p2align 4,,15
 1755              		.global	_usb_reset
 1756              		.thumb
 1757              		.thumb_func
 1758              		.type	_usb_reset, %function
 1759              	_usb_reset:
 1760              	.LFB288:
 1761              		.loc 5 607 0
 1762              		.cfi_startproc
 1763              		@ args = 0, pretend = 0, frame = 16
 1764              		@ frame_needed = 0, uses_anonymous_args = 0
 1765 0000 00B5     		push	{lr}
 1766              		.cfi_def_cfa_offset 4
 1767              		.cfi_offset 14, -4
 1768 0002 85B0     		sub	sp, sp, #20
 1769              		.cfi_def_cfa_offset 24
 1770 0004 0190     		str	r0, [sp, #4]
 1771              		.loc 5 610 0
 1772 0006 019B     		ldr	r3, [sp, #4]
 1773 0008 0222     		movs	r2, #2
 1774 000a 1A70     		strb	r2, [r3]
 1775              		.loc 5 611 0
 1776 000c 019B     		ldr	r3, [sp, #4]
 1777 000e 0022     		movs	r2, #0
 1778 0010 A3F84C20 		strh	r2, [r3, #76]	@ movhi
 1779              		.loc 5 612 0
 1780 0014 019B     		ldr	r3, [sp, #4]
 1781 0016 0022     		movs	r2, #0
 1782 0018 83F84E20 		strb	r2, [r3, #78]
 1783              		.loc 5 613 0
 1784 001c 019B     		ldr	r3, [sp, #4]
 1785 001e 0022     		movs	r2, #0
 1786 0020 83F84F20 		strb	r2, [r3, #79]
 1787              		.loc 5 614 0
 1788 0024 019B     		ldr	r3, [sp, #4]
 1789 0026 0022     		movs	r2, #0
 1790 0028 1A81     		strh	r2, [r3, #8]	@ movhi
 1791              		.loc 5 615 0
 1792 002a 019B     		ldr	r3, [sp, #4]
 1793 002c 0022     		movs	r2, #0
 1794 002e 5A81     		strh	r2, [r3, #10]	@ movhi
 1795              		.loc 5 618 0
 1796 0030 0023     		movs	r3, #0
 1797 0032 0393     		str	r3, [sp, #12]
 1798 0034 09E0     		b	.L89
 1799              	.L90:
 1800              		.loc 5 619 0 discriminator 2
 1801 0036 019A     		ldr	r2, [sp, #4]
 1802 0038 039B     		ldr	r3, [sp, #12]
 1803 003a 0233     		adds	r3, r3, #2
 1804 003c 9B00     		lsls	r3, r3, #2
 1805 003e 1344     		add	r3, r3, r2
 1806 0040 0022     		movs	r2, #0
 1807 0042 5A60     		str	r2, [r3, #4]
ARM GAS  /tmp/cc1C8LBe.s 			page 33


 1808              		.loc 5 618 0 discriminator 2
 1809 0044 039B     		ldr	r3, [sp, #12]
 1810 0046 0133     		adds	r3, r3, #1
 1811 0048 0393     		str	r3, [sp, #12]
 1812              	.L89:
 1813              		.loc 5 618 0 is_stmt 0 discriminator 1
 1814 004a 039B     		ldr	r3, [sp, #12]
 1815 004c 032B     		cmp	r3, #3
 1816 004e F2D9     		bls	.L90
 1817              		.loc 5 623 0 is_stmt 1
 1818 0050 019B     		ldr	r3, [sp, #4]
 1819 0052 0022     		movs	r2, #0
 1820 0054 83F83420 		strb	r2, [r3, #52]
 1821              		.loc 5 626 0
 1822 0058 0198     		ldr	r0, [sp, #4]
 1823 005a FFF7FEFF 		bl	usb_lld_reset
 1824              		.loc 5 627 0
 1825 005e 05B0     		add	sp, sp, #20
 1826              		@ sp needed
 1827 0060 5DF804FB 		ldr	pc, [sp], #4
 1828              		.cfi_endproc
 1829              	.LFE288:
 1830              		.size	_usb_reset, .-_usb_reset
 1831 0064 AFF30080 		.section	.text._usb_ep0setup,"ax",%progbits
 1831      AFF30080 
 1831      AFF30080 
 1832              		.align	2
 1833              		.p2align 4,,15
 1834              		.global	_usb_ep0setup
 1835              		.thumb
 1836              		.thumb_func
 1837              		.type	_usb_ep0setup, %function
 1838              	_usb_ep0setup:
 1839              	.LFB289:
 1840              		.loc 5 639 0
 1841              		.cfi_startproc
 1842              		@ args = 0, pretend = 0, frame = 16
 1843              		@ frame_needed = 0, uses_anonymous_args = 0
 1844 0000 00B5     		push	{lr}
 1845              		.cfi_def_cfa_offset 4
 1846              		.cfi_offset 14, -4
 1847 0002 85B0     		sub	sp, sp, #20
 1848              		.cfi_def_cfa_offset 24
 1849 0004 0190     		str	r0, [sp, #4]
 1850 0006 0B46     		mov	r3, r1
 1851 0008 8DF80330 		strb	r3, [sp, #3]
 1852              		.loc 5 642 0
 1853 000c 019B     		ldr	r3, [sp, #4]
 1854 000e 0022     		movs	r2, #0
 1855 0010 83F83420 		strb	r2, [r3, #52]
 1856              		.loc 5 643 0
 1857 0014 019B     		ldr	r3, [sp, #4]
 1858 0016 4433     		adds	r3, r3, #68
 1859 0018 9DF80320 		ldrb	r2, [sp, #3]	@ zero_extendqisi2
 1860 001c 0198     		ldr	r0, [sp, #4]
 1861 001e 1146     		mov	r1, r2
 1862 0020 1A46     		mov	r2, r3
ARM GAS  /tmp/cc1C8LBe.s 			page 34


 1863 0022 FFF7FEFF 		bl	usb_lld_read_setup
 1864              		.loc 5 648 0
 1865 0026 019B     		ldr	r3, [sp, #4]
 1866 0028 5B68     		ldr	r3, [r3, #4]
 1867 002a 9B68     		ldr	r3, [r3, #8]
 1868 002c 002B     		cmp	r3, #0
 1869 002e 0AD0     		beq	.L92
 1870              		.loc 5 649 0 discriminator 1
 1871 0030 019B     		ldr	r3, [sp, #4]
 1872 0032 5B68     		ldr	r3, [r3, #4]
 1873 0034 9B68     		ldr	r3, [r3, #8]
 1874 0036 0198     		ldr	r0, [sp, #4]
 1875 0038 9847     		blx	r3
 1876 003a 0346     		mov	r3, r0
 1877 003c 83F00103 		eor	r3, r3, #1
 1878 0040 DBB2     		uxtb	r3, r3
 1879              		.loc 5 648 0 discriminator 1
 1880 0042 002B     		cmp	r3, #0
 1881 0044 27D0     		beq	.L93
 1882              	.L92:
 1883              		.loc 5 654 0
 1884 0046 019B     		ldr	r3, [sp, #4]
 1885 0048 93F84430 		ldrb	r3, [r3, #68]	@ zero_extendqisi2
 1886 004c 03F06003 		and	r3, r3, #96
 1887 0050 002B     		cmp	r3, #0
 1888 0052 08D1     		bne	.L94
 1889              		.loc 5 655 0 discriminator 1
 1890 0054 0198     		ldr	r0, [sp, #4]
 1891 0056 FFF7FEFF 		bl	default_handler
 1892 005a 0346     		mov	r3, r0
 1893 005c 83F00103 		eor	r3, r3, #1
 1894 0060 DBB2     		uxtb	r3, r3
 1895              		.loc 5 654 0 discriminator 1
 1896 0062 002B     		cmp	r3, #0
 1897 0064 17D0     		beq	.L93
 1898              	.L94:
 1899              		.loc 5 660 0
 1900 0066 0198     		ldr	r0, [sp, #4]
 1901 0068 0021     		movs	r1, #0
 1902 006a FFF7FEFF 		bl	usb_lld_stall_in
 1903              		.loc 5 661 0
 1904 006e 0198     		ldr	r0, [sp, #4]
 1905 0070 0021     		movs	r1, #0
 1906 0072 FFF7FEFF 		bl	usb_lld_stall_out
 1907              		.loc 5 662 0
 1908 0076 019B     		ldr	r3, [sp, #4]
 1909 0078 5B68     		ldr	r3, [r3, #4]
 1910 007a 1B68     		ldr	r3, [r3]
 1911 007c 002B     		cmp	r3, #0
 1912 007e 05D0     		beq	.L95
 1913              		.loc 5 662 0 is_stmt 0 discriminator 1
 1914 0080 019B     		ldr	r3, [sp, #4]
 1915 0082 5B68     		ldr	r3, [r3, #4]
 1916 0084 1B68     		ldr	r3, [r3]
 1917 0086 0198     		ldr	r0, [sp, #4]
 1918 0088 0521     		movs	r1, #5
 1919 008a 9847     		blx	r3
ARM GAS  /tmp/cc1C8LBe.s 			page 35


 1920              	.L95:
 1921              		.loc 5 663 0 is_stmt 1
 1922 008c 019B     		ldr	r3, [sp, #4]
 1923 008e 0622     		movs	r2, #6
 1924 0090 83F83420 		strb	r2, [r3, #52]
 1925              		.loc 5 664 0
 1926 0094 6CE0     		b	.L91
 1927              	.L93:
 1928              		.loc 5 676 0
 1929 0096 019B     		ldr	r3, [sp, #4]
 1930 0098 4A33     		adds	r3, r3, #74
 1931 009a 1846     		mov	r0, r3
 1932 009c FFF7FEFF 		bl	get_hword
 1933 00a0 0346     		mov	r3, r0
 1934 00a2 0393     		str	r3, [sp, #12]
 1935              		.loc 5 678 0
 1936 00a4 019B     		ldr	r3, [sp, #4]
 1937 00a6 DA6B     		ldr	r2, [r3, #60]
 1938 00a8 039B     		ldr	r3, [sp, #12]
 1939 00aa 9A42     		cmp	r2, r3
 1940 00ac 02D9     		bls	.L97
 1941              		.loc 5 679 0
 1942 00ae 019B     		ldr	r3, [sp, #4]
 1943 00b0 039A     		ldr	r2, [sp, #12]
 1944 00b2 DA63     		str	r2, [r3, #60]
 1945              	.L97:
 1946              		.loc 5 681 0
 1947 00b4 019B     		ldr	r3, [sp, #4]
 1948 00b6 93F84430 		ldrb	r3, [r3, #68]	@ zero_extendqisi2
 1949 00ba DBB2     		uxtb	r3, r3
 1950 00bc 5BB2     		sxtb	r3, r3
 1951 00be 002B     		cmp	r3, #0
 1952 00c0 2BDA     		bge	.L98
 1953              		.loc 5 683 0
 1954 00c2 019B     		ldr	r3, [sp, #4]
 1955 00c4 DB6B     		ldr	r3, [r3, #60]
 1956 00c6 002B     		cmp	r3, #0
 1957 00c8 14D0     		beq	.L99
 1958              		.loc 5 685 0
 1959 00ca 019B     		ldr	r3, [sp, #4]
 1960 00cc 0122     		movs	r2, #1
 1961 00ce 83F83420 		strb	r2, [r3, #52]
 1962              		.loc 5 686 0
 1963 00d2 019B     		ldr	r3, [sp, #4]
 1964 00d4 9A6B     		ldr	r2, [r3, #56]
 1965 00d6 019B     		ldr	r3, [sp, #4]
 1966 00d8 DB6B     		ldr	r3, [r3, #60]
 1967 00da 0198     		ldr	r0, [sp, #4]
 1968 00dc 0021     		movs	r1, #0
 1969 00de FFF7FEFF 		bl	usbPrepareTransmit
 1970              		.loc 5 687 0
 1971 00e2 FFF7FEFF 		bl	osalSysLockFromISR
 1972              		.loc 5 688 0
 1973 00e6 0198     		ldr	r0, [sp, #4]
 1974 00e8 0021     		movs	r1, #0
 1975 00ea FFF7FEFF 		bl	usbStartTransmitI
 1976              		.loc 5 689 0
ARM GAS  /tmp/cc1C8LBe.s 			page 36


 1977 00ee FFF7FEFF 		bl	osalSysUnlockFromISR
 1978 00f2 3DE0     		b	.L91
 1979              	.L99:
 1980              		.loc 5 694 0
 1981 00f4 019B     		ldr	r3, [sp, #4]
 1982 00f6 0322     		movs	r2, #3
 1983 00f8 83F83420 		strb	r2, [r3, #52]
 1984              		.loc 5 696 0
 1985 00fc 0198     		ldr	r0, [sp, #4]
 1986 00fe 0021     		movs	r1, #0
 1987 0100 0022     		movs	r2, #0
 1988 0102 0023     		movs	r3, #0
 1989 0104 FFF7FEFF 		bl	usbPrepareReceive
 1990              		.loc 5 697 0
 1991 0108 FFF7FEFF 		bl	osalSysLockFromISR
 1992              		.loc 5 698 0
 1993 010c 0198     		ldr	r0, [sp, #4]
 1994 010e 0021     		movs	r1, #0
 1995 0110 FFF7FEFF 		bl	usbStartReceiveI
 1996              		.loc 5 699 0
 1997 0114 FFF7FEFF 		bl	osalSysUnlockFromISR
 1998 0118 2AE0     		b	.L91
 1999              	.L98:
 2000              		.loc 5 707 0
 2001 011a 019B     		ldr	r3, [sp, #4]
 2002 011c DB6B     		ldr	r3, [r3, #60]
 2003 011e 002B     		cmp	r3, #0
 2004 0120 14D0     		beq	.L101
 2005              		.loc 5 709 0
 2006 0122 019B     		ldr	r3, [sp, #4]
 2007 0124 0422     		movs	r2, #4
 2008 0126 83F83420 		strb	r2, [r3, #52]
 2009              		.loc 5 710 0
 2010 012a 019B     		ldr	r3, [sp, #4]
 2011 012c 9A6B     		ldr	r2, [r3, #56]
 2012 012e 019B     		ldr	r3, [sp, #4]
 2013 0130 DB6B     		ldr	r3, [r3, #60]
 2014 0132 0198     		ldr	r0, [sp, #4]
 2015 0134 0021     		movs	r1, #0
 2016 0136 FFF7FEFF 		bl	usbPrepareReceive
 2017              		.loc 5 711 0
 2018 013a FFF7FEFF 		bl	osalSysLockFromISR
 2019              		.loc 5 712 0
 2020 013e 0198     		ldr	r0, [sp, #4]
 2021 0140 0021     		movs	r1, #0
 2022 0142 FFF7FEFF 		bl	usbStartReceiveI
 2023              		.loc 5 713 0
 2024 0146 FFF7FEFF 		bl	osalSysUnlockFromISR
 2025 014a 11E0     		b	.L91
 2026              	.L101:
 2027              		.loc 5 718 0
 2028 014c 019B     		ldr	r3, [sp, #4]
 2029 014e 0522     		movs	r2, #5
 2030 0150 83F83420 		strb	r2, [r3, #52]
 2031              		.loc 5 720 0
 2032 0154 0198     		ldr	r0, [sp, #4]
 2033 0156 0021     		movs	r1, #0
ARM GAS  /tmp/cc1C8LBe.s 			page 37


 2034 0158 0022     		movs	r2, #0
 2035 015a 0023     		movs	r3, #0
 2036 015c FFF7FEFF 		bl	usbPrepareTransmit
 2037              		.loc 5 721 0
 2038 0160 FFF7FEFF 		bl	osalSysLockFromISR
 2039              		.loc 5 722 0
 2040 0164 0198     		ldr	r0, [sp, #4]
 2041 0166 0021     		movs	r1, #0
 2042 0168 FFF7FEFF 		bl	usbStartTransmitI
 2043              		.loc 5 723 0
 2044 016c FFF7FEFF 		bl	osalSysUnlockFromISR
 2045              	.L91:
 2046              		.loc 5 729 0
 2047 0170 05B0     		add	sp, sp, #20
 2048              		@ sp needed
 2049 0172 5DF804FB 		ldr	pc, [sp], #4
 2050              		.cfi_endproc
 2051              	.LFE289:
 2052              		.size	_usb_ep0setup, .-_usb_ep0setup
 2053 0176 00BFAFF3 		.section	.text._usb_ep0in,"ax",%progbits
 2053      0080AFF3 
 2053      0080
 2054              		.align	2
 2055              		.p2align 4,,15
 2056              		.global	_usb_ep0in
 2057              		.thumb
 2058              		.thumb_func
 2059              		.type	_usb_ep0in, %function
 2060              	_usb_ep0in:
 2061              	.LFB290:
 2062              		.loc 5 741 0
 2063              		.cfi_startproc
 2064              		@ args = 0, pretend = 0, frame = 16
 2065              		@ frame_needed = 0, uses_anonymous_args = 0
 2066 0000 00B5     		push	{lr}
 2067              		.cfi_def_cfa_offset 4
 2068              		.cfi_offset 14, -4
 2069 0002 85B0     		sub	sp, sp, #20
 2070              		.cfi_def_cfa_offset 24
 2071 0004 0190     		str	r0, [sp, #4]
 2072 0006 0B46     		mov	r3, r1
 2073 0008 8DF80330 		strb	r3, [sp, #3]
 2074              		.loc 5 745 0
 2075 000c 019B     		ldr	r3, [sp, #4]
 2076 000e 93F83430 		ldrb	r3, [r3, #52]	@ zero_extendqisi2
 2077 0012 062B     		cmp	r3, #6
 2078 0014 73D8     		bhi	.L102
 2079 0016 01A2     		adr	r2, .L105
 2080 0018 52F823F0 		ldr	pc, [r2, r3, lsl #2]
 2081              		.p2align 2
 2082              	.L105:
 2083 001c CF000000 		.word	.L109+1
 2084 0020 39000000 		.word	.L106+1
 2085 0024 8F000000 		.word	.L107+1
 2086 0028 CF000000 		.word	.L109+1
 2087 002c CF000000 		.word	.L109+1
 2088 0030 B5000000 		.word	.L108+1
ARM GAS  /tmp/cc1C8LBe.s 			page 38


 2089 0034 CF000000 		.word	.L109+1
 2090              		.p2align 1
 2091              	.L106:
 2092              		.loc 5 747 0
 2093 0038 019B     		ldr	r3, [sp, #4]
 2094 003a 4A33     		adds	r3, r3, #74
 2095 003c 1846     		mov	r0, r3
 2096 003e FFF7FEFF 		bl	get_hword
 2097 0042 0346     		mov	r3, r0
 2098 0044 0393     		str	r3, [sp, #12]
 2099              		.loc 5 751 0
 2100 0046 019B     		ldr	r3, [sp, #4]
 2101 0048 DA6B     		ldr	r2, [r3, #60]
 2102 004a 039B     		ldr	r3, [sp, #12]
 2103 004c 9A42     		cmp	r2, r3
 2104 004e 1ED2     		bcs	.L107
 2105              		.loc 5 752 0 discriminator 1
 2106 0050 019B     		ldr	r3, [sp, #4]
 2107 0052 DB6B     		ldr	r3, [r3, #60]
 2108 0054 019A     		ldr	r2, [sp, #4]
 2109 0056 D268     		ldr	r2, [r2, #12]
 2110 0058 128A     		ldrh	r2, [r2, #16]
 2111 005a B3FBF2F1 		udiv	r1, r3, r2
 2112 005e 02FB01F2 		mul	r2, r2, r1
 2113 0062 9B1A     		subs	r3, r3, r2
 2114              		.loc 5 751 0 discriminator 1
 2115 0064 002B     		cmp	r3, #0
 2116 0066 12D1     		bne	.L107
 2117              		.loc 5 753 0
 2118 0068 0198     		ldr	r0, [sp, #4]
 2119 006a 0021     		movs	r1, #0
 2120 006c 0022     		movs	r2, #0
 2121 006e 0023     		movs	r3, #0
 2122 0070 FFF7FEFF 		bl	usbPrepareTransmit
 2123              		.loc 5 754 0
 2124 0074 FFF7FEFF 		bl	osalSysLockFromISR
 2125              		.loc 5 755 0
 2126 0078 0198     		ldr	r0, [sp, #4]
 2127 007a 0021     		movs	r1, #0
 2128 007c FFF7FEFF 		bl	usbStartTransmitI
 2129              		.loc 5 756 0
 2130 0080 FFF7FEFF 		bl	osalSysUnlockFromISR
 2131              		.loc 5 757 0
 2132 0084 019B     		ldr	r3, [sp, #4]
 2133 0086 0222     		movs	r2, #2
 2134 0088 83F83420 		strb	r2, [r3, #52]
 2135              		.loc 5 758 0
 2136 008c 37E0     		b	.L102
 2137              	.L107:
 2138              		.loc 5 763 0
 2139 008e 019B     		ldr	r3, [sp, #4]
 2140 0090 0322     		movs	r2, #3
 2141 0092 83F83420 		strb	r2, [r3, #52]
 2142              		.loc 5 765 0
 2143 0096 0198     		ldr	r0, [sp, #4]
 2144 0098 0021     		movs	r1, #0
 2145 009a 0022     		movs	r2, #0
ARM GAS  /tmp/cc1C8LBe.s 			page 39


 2146 009c 0023     		movs	r3, #0
 2147 009e FFF7FEFF 		bl	usbPrepareReceive
 2148              		.loc 5 766 0
 2149 00a2 FFF7FEFF 		bl	osalSysLockFromISR
 2150              		.loc 5 767 0
 2151 00a6 0198     		ldr	r0, [sp, #4]
 2152 00a8 0021     		movs	r1, #0
 2153 00aa FFF7FEFF 		bl	usbStartReceiveI
 2154              		.loc 5 768 0
 2155 00ae FFF7FEFF 		bl	osalSysUnlockFromISR
 2156              		.loc 5 772 0
 2157 00b2 24E0     		b	.L102
 2158              	.L108:
 2159              		.loc 5 775 0
 2160 00b4 019B     		ldr	r3, [sp, #4]
 2161 00b6 1B6C     		ldr	r3, [r3, #64]
 2162 00b8 002B     		cmp	r3, #0
 2163 00ba 03D0     		beq	.L111
 2164              		.loc 5 776 0
 2165 00bc 019B     		ldr	r3, [sp, #4]
 2166 00be 1B6C     		ldr	r3, [r3, #64]
 2167 00c0 0198     		ldr	r0, [sp, #4]
 2168 00c2 9847     		blx	r3
 2169              	.L111:
 2170              		.loc 5 778 0
 2171 00c4 019B     		ldr	r3, [sp, #4]
 2172 00c6 0022     		movs	r2, #0
 2173 00c8 83F83420 		strb	r2, [r3, #52]
 2174              		.loc 5 779 0
 2175 00cc 17E0     		b	.L102
 2176              	.L109:
 2177              		.loc 5 790 0
 2178 00ce 0198     		ldr	r0, [sp, #4]
 2179 00d0 0021     		movs	r1, #0
 2180 00d2 FFF7FEFF 		bl	usb_lld_stall_in
 2181              		.loc 5 791 0
 2182 00d6 0198     		ldr	r0, [sp, #4]
 2183 00d8 0021     		movs	r1, #0
 2184 00da FFF7FEFF 		bl	usb_lld_stall_out
 2185              		.loc 5 792 0
 2186 00de 019B     		ldr	r3, [sp, #4]
 2187 00e0 5B68     		ldr	r3, [r3, #4]
 2188 00e2 1B68     		ldr	r3, [r3]
 2189 00e4 002B     		cmp	r3, #0
 2190 00e6 05D0     		beq	.L112
 2191              		.loc 5 792 0 is_stmt 0 discriminator 1
 2192 00e8 019B     		ldr	r3, [sp, #4]
 2193 00ea 5B68     		ldr	r3, [r3, #4]
 2194 00ec 1B68     		ldr	r3, [r3]
 2195 00ee 0198     		ldr	r0, [sp, #4]
 2196 00f0 0521     		movs	r1, #5
 2197 00f2 9847     		blx	r3
 2198              	.L112:
 2199              		.loc 5 793 0 is_stmt 1
 2200 00f4 019B     		ldr	r3, [sp, #4]
 2201 00f6 0622     		movs	r2, #6
 2202 00f8 83F83420 		strb	r2, [r3, #52]
ARM GAS  /tmp/cc1C8LBe.s 			page 40


 2203              		.loc 5 794 0
 2204 00fc 00BF     		nop
 2205              	.L102:
 2206              		.loc 5 798 0
 2207 00fe 05B0     		add	sp, sp, #20
 2208              		@ sp needed
 2209 0100 5DF804FB 		ldr	pc, [sp], #4
 2210              		.cfi_endproc
 2211              	.LFE290:
 2212              		.size	_usb_ep0in, .-_usb_ep0in
 2213 0104 AFF30080 		.section	.text._usb_ep0out,"ax",%progbits
 2213      AFF30080 
 2213      AFF30080 
 2214              		.align	2
 2215              		.p2align 4,,15
 2216              		.global	_usb_ep0out
 2217              		.thumb
 2218              		.thumb_func
 2219              		.type	_usb_ep0out, %function
 2220              	_usb_ep0out:
 2221              	.LFB291:
 2222              		.loc 5 810 0
 2223              		.cfi_startproc
 2224              		@ args = 0, pretend = 0, frame = 8
 2225              		@ frame_needed = 0, uses_anonymous_args = 0
 2226 0000 00B5     		push	{lr}
 2227              		.cfi_def_cfa_offset 4
 2228              		.cfi_offset 14, -4
 2229 0002 83B0     		sub	sp, sp, #12
 2230              		.cfi_def_cfa_offset 16
 2231 0004 0190     		str	r0, [sp, #4]
 2232 0006 0B46     		mov	r3, r1
 2233 0008 8DF80330 		strb	r3, [sp, #3]
 2234              		.loc 5 813 0
 2235 000c 019B     		ldr	r3, [sp, #4]
 2236 000e 93F83430 		ldrb	r3, [r3, #52]	@ zero_extendqisi2
 2237 0012 062B     		cmp	r3, #6
 2238 0014 4FD8     		bhi	.L113
 2239 0016 01A2     		adr	r2, .L116
 2240 0018 52F823F0 		ldr	pc, [r2, r3, lsl #2]
 2241              		.p2align 2
 2242              	.L116:
 2243 001c 87000000 		.word	.L119+1
 2244 0020 87000000 		.word	.L119+1
 2245 0024 87000000 		.word	.L119+1
 2246 0028 5F000000 		.word	.L117+1
 2247 002c 39000000 		.word	.L118+1
 2248 0030 87000000 		.word	.L119+1
 2249 0034 87000000 		.word	.L119+1
 2250              		.p2align 1
 2251              	.L118:
 2252              		.loc 5 816 0
 2253 0038 019B     		ldr	r3, [sp, #4]
 2254 003a 0522     		movs	r2, #5
 2255 003c 83F83420 		strb	r2, [r3, #52]
 2256              		.loc 5 818 0
 2257 0040 0198     		ldr	r0, [sp, #4]
ARM GAS  /tmp/cc1C8LBe.s 			page 41


 2258 0042 0021     		movs	r1, #0
 2259 0044 0022     		movs	r2, #0
 2260 0046 0023     		movs	r3, #0
 2261 0048 FFF7FEFF 		bl	usbPrepareTransmit
 2262              		.loc 5 819 0
 2263 004c FFF7FEFF 		bl	osalSysLockFromISR
 2264              		.loc 5 820 0
 2265 0050 0198     		ldr	r0, [sp, #4]
 2266 0052 0021     		movs	r1, #0
 2267 0054 FFF7FEFF 		bl	usbStartTransmitI
 2268              		.loc 5 821 0
 2269 0058 FFF7FEFF 		bl	osalSysUnlockFromISR
 2270              		.loc 5 825 0
 2271 005c 2BE0     		b	.L113
 2272              	.L117:
 2273              		.loc 5 830 0
 2274 005e 019B     		ldr	r3, [sp, #4]
 2275 0060 DB68     		ldr	r3, [r3, #12]
 2276 0062 9B69     		ldr	r3, [r3, #24]
 2277 0064 9B68     		ldr	r3, [r3, #8]
 2278 0066 002B     		cmp	r3, #0
 2279 0068 00D0     		beq	.L121
 2280              		.loc 5 831 0
 2281 006a 24E0     		b	.L113
 2282              	.L121:
 2283              		.loc 5 834 0
 2284 006c 019B     		ldr	r3, [sp, #4]
 2285 006e 1B6C     		ldr	r3, [r3, #64]
 2286 0070 002B     		cmp	r3, #0
 2287 0072 03D0     		beq	.L122
 2288              		.loc 5 835 0
 2289 0074 019B     		ldr	r3, [sp, #4]
 2290 0076 1B6C     		ldr	r3, [r3, #64]
 2291 0078 0198     		ldr	r0, [sp, #4]
 2292 007a 9847     		blx	r3
 2293              	.L122:
 2294              		.loc 5 837 0
 2295 007c 019B     		ldr	r3, [sp, #4]
 2296 007e 0022     		movs	r2, #0
 2297 0080 83F83420 		strb	r2, [r3, #52]
 2298              		.loc 5 838 0
 2299 0084 17E0     		b	.L113
 2300              	.L119:
 2301              		.loc 5 850 0
 2302 0086 0198     		ldr	r0, [sp, #4]
 2303 0088 0021     		movs	r1, #0
 2304 008a FFF7FEFF 		bl	usb_lld_stall_in
 2305              		.loc 5 851 0
 2306 008e 0198     		ldr	r0, [sp, #4]
 2307 0090 0021     		movs	r1, #0
 2308 0092 FFF7FEFF 		bl	usb_lld_stall_out
 2309              		.loc 5 852 0
 2310 0096 019B     		ldr	r3, [sp, #4]
 2311 0098 5B68     		ldr	r3, [r3, #4]
 2312 009a 1B68     		ldr	r3, [r3]
 2313 009c 002B     		cmp	r3, #0
 2314 009e 05D0     		beq	.L123
ARM GAS  /tmp/cc1C8LBe.s 			page 42


 2315              		.loc 5 852 0 is_stmt 0 discriminator 1
 2316 00a0 019B     		ldr	r3, [sp, #4]
 2317 00a2 5B68     		ldr	r3, [r3, #4]
 2318 00a4 1B68     		ldr	r3, [r3]
 2319 00a6 0198     		ldr	r0, [sp, #4]
 2320 00a8 0521     		movs	r1, #5
 2321 00aa 9847     		blx	r3
 2322              	.L123:
 2323              		.loc 5 853 0 is_stmt 1
 2324 00ac 019B     		ldr	r3, [sp, #4]
 2325 00ae 0622     		movs	r2, #6
 2326 00b0 83F83420 		strb	r2, [r3, #52]
 2327              		.loc 5 854 0
 2328 00b4 00BF     		nop
 2329              	.L113:
 2330              		.loc 5 858 0
 2331 00b6 03B0     		add	sp, sp, #12
 2332              		@ sp needed
 2333 00b8 5DF804FB 		ldr	pc, [sp], #4
 2334              		.cfi_endproc
 2335              	.LFE291:
 2336              		.size	_usb_ep0out, .-_usb_ep0out
 2337 00bc AFF30080 		.text
 2338              	.Letext0:
 2339              		.file 6 "/usr/lib/gcc/arm-none-eabi/4.8/include/stddef.h"
 2340              		.file 7 "/usr/include/newlib/machine/_default_types.h"
 2341              		.file 8 "/usr/include/newlib/stdint.h"
 2342              		.file 9 "/home/efe/ChibiOS/os/rt/ports/ARMCMx/compilers/GCC/chtypes.h"
 2343              		.file 10 "/home/efe/ChibiOS/os/rt/include/chsystypes.h"
 2344              		.file 11 "/home/efe/ChibiOS/os/rt/include/chschd.h"
 2345              		.file 12 "/home/efe/ChibiOS/os/rt/ports/ARMCMx/chcore.h"
 2346              		.file 13 "/home/efe/ChibiOS/os/rt/include/chtm.h"
 2347              		.file 14 "/home/efe/ChibiOS/os/rt/include/chsem.h"
 2348              		.file 15 "/home/efe/ChibiOS/os/rt/include/chmtx.h"
 2349              		.file 16 "/home/efe/ChibiOS/os/rt/include/chqueues.h"
 2350              		.file 17 "/home/efe/ChibiOS/os/hal/include/usb.h"
 2351              		.file 18 "/home/efe/ChibiOS/os/hal/ports/STM32/LLD/OTGv1/usb_lld.h"
 2352              		.file 19 "/home/efe/ChibiOS/os/hal/ports/STM32/LLD/OTGv1/stm32_otg.h"
 2353              		.file 20 "/home/efe/ChibiOS/os/ext/CMSIS/include/core_cm4.h"
 2354              		.section	.debug_info,"",%progbits
 2355              	.Ldebug_info0:
 2356 0000 C2190000 		.4byte	0x19c2
 2357 0004 0400     		.2byte	0x4
 2358 0006 00000000 		.4byte	.Ldebug_abbrev0
 2359 000a 04       		.byte	0x4
 2360 000b 01       		.uleb128 0x1
 2361 000c C5000000 		.4byte	.LASF321
 2362 0010 01       		.byte	0x1
 2363 0011 21000000 		.4byte	.LASF322
 2364 0015 00000000 		.4byte	.Ldebug_ranges0+0
 2365 0019 00000000 		.4byte	0
 2366 001d 00000000 		.4byte	.Ldebug_line0
 2367 0021 02       		.uleb128 0x2
 2368 0022 04       		.byte	0x4
 2369 0023 05       		.byte	0x5
 2370 0024 696E7400 		.ascii	"int\000"
 2371 0028 03       		.uleb128 0x3
ARM GAS  /tmp/cc1C8LBe.s 			page 43


 2372 0029 00000000 		.4byte	.LASF2
 2373 002d 06       		.byte	0x6
 2374 002e D4       		.byte	0xd4
 2375 002f 33000000 		.4byte	0x33
 2376 0033 04       		.uleb128 0x4
 2377 0034 04       		.byte	0x4
 2378 0035 07       		.byte	0x7
 2379 0036 99080000 		.4byte	.LASF0
 2380 003a 04       		.uleb128 0x4
 2381 003b 01       		.byte	0x1
 2382 003c 06       		.byte	0x6
 2383 003d 2A030000 		.4byte	.LASF1
 2384 0041 03       		.uleb128 0x3
 2385 0042 0A020000 		.4byte	.LASF3
 2386 0046 07       		.byte	0x7
 2387 0047 1D       		.byte	0x1d
 2388 0048 4C000000 		.4byte	0x4c
 2389 004c 04       		.uleb128 0x4
 2390 004d 01       		.byte	0x1
 2391 004e 08       		.byte	0x8
 2392 004f AF030000 		.4byte	.LASF4
 2393 0053 04       		.uleb128 0x4
 2394 0054 02       		.byte	0x2
 2395 0055 05       		.byte	0x5
 2396 0056 B30B0000 		.4byte	.LASF5
 2397 005a 03       		.uleb128 0x3
 2398 005b 86040000 		.4byte	.LASF6
 2399 005f 07       		.byte	0x7
 2400 0060 2B       		.byte	0x2b
 2401 0061 65000000 		.4byte	0x65
 2402 0065 04       		.uleb128 0x4
 2403 0066 02       		.byte	0x2
 2404 0067 07       		.byte	0x7
 2405 0068 3F0D0000 		.4byte	.LASF7
 2406 006c 03       		.uleb128 0x3
 2407 006d BF0D0000 		.4byte	.LASF8
 2408 0071 07       		.byte	0x7
 2409 0072 3F       		.byte	0x3f
 2410 0073 77000000 		.4byte	0x77
 2411 0077 04       		.uleb128 0x4
 2412 0078 04       		.byte	0x4
 2413 0079 05       		.byte	0x5
 2414 007a 4F020000 		.4byte	.LASF9
 2415 007e 03       		.uleb128 0x3
 2416 007f A9070000 		.4byte	.LASF10
 2417 0083 07       		.byte	0x7
 2418 0084 41       		.byte	0x41
 2419 0085 89000000 		.4byte	0x89
 2420 0089 04       		.uleb128 0x4
 2421 008a 04       		.byte	0x4
 2422 008b 07       		.byte	0x7
 2423 008c 5C060000 		.4byte	.LASF11
 2424 0090 04       		.uleb128 0x4
 2425 0091 08       		.byte	0x8
 2426 0092 05       		.byte	0x5
 2427 0093 C5070000 		.4byte	.LASF12
 2428 0097 03       		.uleb128 0x3
ARM GAS  /tmp/cc1C8LBe.s 			page 44


 2429 0098 2B060000 		.4byte	.LASF13
 2430 009c 07       		.byte	0x7
 2431 009d 5B       		.byte	0x5b
 2432 009e A2000000 		.4byte	0xa2
 2433 00a2 04       		.uleb128 0x4
 2434 00a3 08       		.byte	0x8
 2435 00a4 07       		.byte	0x7
 2436 00a5 E3090000 		.4byte	.LASF14
 2437 00a9 04       		.uleb128 0x4
 2438 00aa 04       		.byte	0x4
 2439 00ab 07       		.byte	0x7
 2440 00ac 07000000 		.4byte	.LASF15
 2441 00b0 05       		.uleb128 0x5
 2442 00b1 04       		.byte	0x4
 2443 00b2 04       		.uleb128 0x4
 2444 00b3 01       		.byte	0x1
 2445 00b4 08       		.byte	0x8
 2446 00b5 55040000 		.4byte	.LASF16
 2447 00b9 06       		.uleb128 0x6
 2448 00ba 04       		.byte	0x4
 2449 00bb BF000000 		.4byte	0xbf
 2450 00bf 07       		.uleb128 0x7
 2451 00c0 B2000000 		.4byte	0xb2
 2452 00c4 08       		.uleb128 0x8
 2453 00c5 B2000000 		.4byte	0xb2
 2454 00c9 D4000000 		.4byte	0xd4
 2455 00cd 09       		.uleb128 0x9
 2456 00ce A9000000 		.4byte	0xa9
 2457 00d2 07       		.byte	0x7
 2458 00d3 00       		.byte	0
 2459 00d4 03       		.uleb128 0x3
 2460 00d5 3D030000 		.4byte	.LASF17
 2461 00d9 08       		.byte	0x8
 2462 00da 2A       		.byte	0x2a
 2463 00db 41000000 		.4byte	0x41
 2464 00df 03       		.uleb128 0x3
 2465 00e0 0B0A0000 		.4byte	.LASF18
 2466 00e4 08       		.byte	0x8
 2467 00e5 36       		.byte	0x36
 2468 00e6 5A000000 		.4byte	0x5a
 2469 00ea 03       		.uleb128 0x3
 2470 00eb 63000000 		.4byte	.LASF19
 2471 00ef 08       		.byte	0x8
 2472 00f0 41       		.byte	0x41
 2473 00f1 6C000000 		.4byte	0x6c
 2474 00f5 03       		.uleb128 0x3
 2475 00f6 0D0D0000 		.4byte	.LASF20
 2476 00fa 08       		.byte	0x8
 2477 00fb 42       		.byte	0x42
 2478 00fc 7E000000 		.4byte	0x7e
 2479 0100 03       		.uleb128 0x3
 2480 0101 D20B0000 		.4byte	.LASF21
 2481 0105 08       		.byte	0x8
 2482 0106 4E       		.byte	0x4e
 2483 0107 97000000 		.4byte	0x97
 2484 010b 0A       		.uleb128 0xa
 2485 010c EA000000 		.4byte	0xea
ARM GAS  /tmp/cc1C8LBe.s 			page 45


 2486 0110 0A       		.uleb128 0xa
 2487 0111 F5000000 		.4byte	0xf5
 2488 0115 03       		.uleb128 0x3
 2489 0116 B0080000 		.4byte	.LASF22
 2490 011a 09       		.byte	0x9
 2491 011b 45       		.byte	0x45
 2492 011c F5000000 		.4byte	0xf5
 2493 0120 03       		.uleb128 0x3
 2494 0121 370B0000 		.4byte	.LASF23
 2495 0125 09       		.byte	0x9
 2496 0126 48       		.byte	0x48
 2497 0127 D4000000 		.4byte	0xd4
 2498 012b 03       		.uleb128 0x3
 2499 012c 91020000 		.4byte	.LASF24
 2500 0130 09       		.byte	0x9
 2501 0131 49       		.byte	0x49
 2502 0132 D4000000 		.4byte	0xd4
 2503 0136 03       		.uleb128 0x3
 2504 0137 CC0C0000 		.4byte	.LASF25
 2505 013b 09       		.byte	0x9
 2506 013c 4A       		.byte	0x4a
 2507 013d D4000000 		.4byte	0xd4
 2508 0141 03       		.uleb128 0x3
 2509 0142 4A000000 		.4byte	.LASF26
 2510 0146 09       		.byte	0x9
 2511 0147 4C       		.byte	0x4c
 2512 0148 F5000000 		.4byte	0xf5
 2513 014c 03       		.uleb128 0x3
 2514 014d 210A0000 		.4byte	.LASF27
 2515 0151 09       		.byte	0x9
 2516 0152 4D       		.byte	0x4d
 2517 0153 EA000000 		.4byte	0xea
 2518 0157 03       		.uleb128 0x3
 2519 0158 70030000 		.4byte	.LASF28
 2520 015c 09       		.byte	0x9
 2521 015d 4F       		.byte	0x4f
 2522 015e F5000000 		.4byte	0xf5
 2523 0162 03       		.uleb128 0x3
 2524 0163 55050000 		.4byte	.LASF29
 2525 0167 09       		.byte	0x9
 2526 0168 51       		.byte	0x51
 2527 0169 EA000000 		.4byte	0xea
 2528 016d 03       		.uleb128 0x3
 2529 016e 17000000 		.4byte	.LASF30
 2530 0172 0A       		.byte	0xa
 2531 0173 33       		.byte	0x33
 2532 0174 F5000000 		.4byte	0xf5
 2533 0178 03       		.uleb128 0x3
 2534 0179 2D090000 		.4byte	.LASF31
 2535 017d 0A       		.byte	0xa
 2536 017e 3F       		.byte	0x3f
 2537 017f 83010000 		.4byte	0x183
 2538 0183 0B       		.uleb128 0xb
 2539 0184 BC060000 		.4byte	.LASF51
 2540 0188 44       		.byte	0x44
 2541 0189 0B       		.byte	0xb
 2542 018a C2       		.byte	0xc2
ARM GAS  /tmp/cc1C8LBe.s 			page 46


 2543 018b 70020000 		.4byte	0x270
 2544 018f 0C       		.uleb128 0xc
 2545 0190 58020000 		.4byte	.LASF32
 2546 0194 0B       		.byte	0xb
 2547 0195 C3       		.byte	0xc3
 2548 0196 7B020000 		.4byte	0x27b
 2549 019a 00       		.byte	0
 2550 019b 0C       		.uleb128 0xc
 2551 019c 79020000 		.4byte	.LASF33
 2552 01a0 0B       		.byte	0xb
 2553 01a1 C5       		.byte	0xc5
 2554 01a2 7B020000 		.4byte	0x27b
 2555 01a6 04       		.byte	0x4
 2556 01a7 0C       		.uleb128 0xc
 2557 01a8 75040000 		.4byte	.LASF34
 2558 01ac 0B       		.byte	0xb
 2559 01ad C7       		.byte	0xc7
 2560 01ae 41010000 		.4byte	0x141
 2561 01b2 08       		.byte	0x8
 2562 01b3 0C       		.uleb128 0xc
 2563 01b4 44000000 		.4byte	.LASF35
 2564 01b8 0B       		.byte	0xb
 2565 01b9 C8       		.byte	0xc8
 2566 01ba C2040000 		.4byte	0x4c2
 2567 01be 0C       		.byte	0xc
 2568 01bf 0C       		.uleb128 0xc
 2569 01c0 47020000 		.4byte	.LASF36
 2570 01c4 0B       		.byte	0xb
 2571 01c5 CA       		.byte	0xca
 2572 01c6 7B020000 		.4byte	0x27b
 2573 01ca 10       		.byte	0x10
 2574 01cb 0C       		.uleb128 0xc
 2575 01cc 030A0000 		.4byte	.LASF37
 2576 01d0 0B       		.byte	0xb
 2577 01d1 CB       		.byte	0xcb
 2578 01d2 7B020000 		.4byte	0x27b
 2579 01d6 14       		.byte	0x14
 2580 01d7 0C       		.uleb128 0xc
 2581 01d8 0B0E0000 		.4byte	.LASF38
 2582 01dc 0B       		.byte	0xb
 2583 01dd D2       		.byte	0xd2
 2584 01de B9000000 		.4byte	0xb9
 2585 01e2 18       		.byte	0x18
 2586 01e3 0C       		.uleb128 0xc
 2587 01e4 4B0E0000 		.4byte	.LASF39
 2588 01e8 0B       		.byte	0xb
 2589 01e9 DD       		.byte	0xdd
 2590 01ea 2B010000 		.4byte	0x12b
 2591 01ee 1C       		.byte	0x1c
 2592 01ef 0C       		.uleb128 0xc
 2593 01f0 73080000 		.4byte	.LASF40
 2594 01f4 0B       		.byte	0xb
 2595 01f5 E1       		.byte	0xe1
 2596 01f6 20010000 		.4byte	0x120
 2597 01fa 1D       		.byte	0x1d
 2598 01fb 0C       		.uleb128 0xc
 2599 01fc D6080000 		.4byte	.LASF41
ARM GAS  /tmp/cc1C8LBe.s 			page 47


 2600 0200 0B       		.byte	0xb
 2601 0201 E6       		.byte	0xe6
 2602 0202 36010000 		.4byte	0x136
 2603 0206 1E       		.byte	0x1e
 2604 0207 0D       		.uleb128 0xd
 2605 0208 705F7500 		.ascii	"p_u\000"
 2606 020c 0B       		.byte	0xb
 2607 020d 3101     		.2byte	0x131
 2608 020f 7C050000 		.4byte	0x57c
 2609 0213 20       		.byte	0x20
 2610 0214 0E       		.uleb128 0xe
 2611 0215 69080000 		.4byte	.LASF42
 2612 0219 0B       		.byte	0xb
 2613 021a 3601     		.2byte	0x136
 2614 021c 81020000 		.4byte	0x281
 2615 0220 24       		.byte	0x24
 2616 0221 0E       		.uleb128 0xe
 2617 0222 52000000 		.4byte	.LASF43
 2618 0226 0B       		.byte	0xb
 2619 0227 3C01     		.2byte	0x13c
 2620 0229 A5020000 		.4byte	0x2a5
 2621 022d 28       		.byte	0x28
 2622 022e 0E       		.uleb128 0xe
 2623 022f 450E0000 		.4byte	.LASF44
 2624 0233 0B       		.byte	0xb
 2625 0234 4001     		.2byte	0x140
 2626 0236 4C010000 		.4byte	0x14c
 2627 023a 30       		.byte	0x30
 2628 023b 0E       		.uleb128 0xe
 2629 023c 9B050000 		.4byte	.LASF45
 2630 0240 0B       		.byte	0xb
 2631 0241 4601     		.2byte	0x146
 2632 0243 57010000 		.4byte	0x157
 2633 0247 34       		.byte	0x34
 2634 0248 0E       		.uleb128 0xe
 2635 0249 AA020000 		.4byte	.LASF46
 2636 024d 0B       		.byte	0xb
 2637 024e 4D01     		.2byte	0x14d
 2638 0250 3B060000 		.4byte	0x63b
 2639 0254 38       		.byte	0x38
 2640 0255 0E       		.uleb128 0xe
 2641 0256 49090000 		.4byte	.LASF47
 2642 025a 0B       		.byte	0xb
 2643 025b 5101     		.2byte	0x151
 2644 025d 41010000 		.4byte	0x141
 2645 0261 3C       		.byte	0x3c
 2646 0262 0E       		.uleb128 0xe
 2647 0263 C2080000 		.4byte	.LASF48
 2648 0267 0B       		.byte	0xb
 2649 0268 5801     		.2byte	0x158
 2650 026a B0000000 		.4byte	0xb0
 2651 026e 40       		.byte	0x40
 2652 026f 00       		.byte	0
 2653 0270 03       		.uleb128 0x3
 2654 0271 36090000 		.4byte	.LASF49
 2655 0275 0A       		.byte	0xa
 2656 0276 44       		.byte	0x44
ARM GAS  /tmp/cc1C8LBe.s 			page 48


 2657 0277 7B020000 		.4byte	0x27b
 2658 027b 06       		.uleb128 0x6
 2659 027c 04       		.byte	0x4
 2660 027d 78010000 		.4byte	0x178
 2661 0281 03       		.uleb128 0x3
 2662 0282 D40C0000 		.4byte	.LASF50
 2663 0286 0A       		.byte	0xa
 2664 0287 49       		.byte	0x49
 2665 0288 8C020000 		.4byte	0x28c
 2666 028c 0B       		.uleb128 0xb
 2667 028d 42070000 		.4byte	.LASF52
 2668 0291 04       		.byte	0x4
 2669 0292 0B       		.byte	0xb
 2670 0293 B0       		.byte	0xb0
 2671 0294 A5020000 		.4byte	0x2a5
 2672 0298 0C       		.uleb128 0xc
 2673 0299 58020000 		.4byte	.LASF32
 2674 029d 0B       		.byte	0xb
 2675 029e B1       		.byte	0xb1
 2676 029f 7B020000 		.4byte	0x27b
 2677 02a3 00       		.byte	0
 2678 02a4 00       		.byte	0
 2679 02a5 03       		.uleb128 0x3
 2680 02a6 9A020000 		.4byte	.LASF53
 2681 02aa 0A       		.byte	0xa
 2682 02ab 50       		.byte	0x50
 2683 02ac B0020000 		.4byte	0x2b0
 2684 02b0 0B       		.uleb128 0xb
 2685 02b1 2C0A0000 		.4byte	.LASF54
 2686 02b5 08       		.byte	0x8
 2687 02b6 0B       		.byte	0xb
 2688 02b7 B7       		.byte	0xb7
 2689 02b8 D5020000 		.4byte	0x2d5
 2690 02bc 0C       		.uleb128 0xc
 2691 02bd 58020000 		.4byte	.LASF32
 2692 02c1 0B       		.byte	0xb
 2693 02c2 B8       		.byte	0xb8
 2694 02c3 7B020000 		.4byte	0x27b
 2695 02c7 00       		.byte	0
 2696 02c8 0C       		.uleb128 0xc
 2697 02c9 79020000 		.4byte	.LASF33
 2698 02cd 0B       		.byte	0xb
 2699 02ce B9       		.byte	0xb9
 2700 02cf 7B020000 		.4byte	0x27b
 2701 02d3 04       		.byte	0x4
 2702 02d4 00       		.byte	0
 2703 02d5 03       		.uleb128 0x3
 2704 02d6 15070000 		.4byte	.LASF55
 2705 02da 0A       		.byte	0xa
 2706 02db 57       		.byte	0x57
 2707 02dc E0020000 		.4byte	0x2e0
 2708 02e0 0F       		.uleb128 0xf
 2709 02e1 B8050000 		.4byte	.LASF56
 2710 02e5 1C       		.byte	0x1c
 2711 02e6 0B       		.byte	0xb
 2712 02e7 9001     		.2byte	0x190
 2713 02e9 3C030000 		.4byte	0x33c
ARM GAS  /tmp/cc1C8LBe.s 			page 49


 2714 02ed 0E       		.uleb128 0xe
 2715 02ee E00A0000 		.4byte	.LASF57
 2716 02f2 0B       		.byte	0xb
 2717 02f3 9101     		.2byte	0x191
 2718 02f5 A5020000 		.4byte	0x2a5
 2719 02f9 00       		.byte	0
 2720 02fa 0E       		.uleb128 0xe
 2721 02fb 290C0000 		.4byte	.LASF58
 2722 02ff 0B       		.byte	0xb
 2723 0300 9201     		.2byte	0x192
 2724 0302 41010000 		.4byte	0x141
 2725 0306 08       		.byte	0x8
 2726 0307 0E       		.uleb128 0xe
 2727 0308 5D000000 		.4byte	.LASF59
 2728 030c 0B       		.byte	0xb
 2729 030d 9401     		.2byte	0x194
 2730 030f C2040000 		.4byte	0x4c2
 2731 0313 0C       		.byte	0xc
 2732 0314 0E       		.uleb128 0xe
 2733 0315 EA030000 		.4byte	.LASF60
 2734 0319 0B       		.byte	0xb
 2735 031a 9701     		.2byte	0x197
 2736 031c 7B020000 		.4byte	0x27b
 2737 0320 10       		.byte	0x10
 2738 0321 0E       		.uleb128 0xe
 2739 0322 640B0000 		.4byte	.LASF61
 2740 0326 0B       		.byte	0xb
 2741 0327 9801     		.2byte	0x198
 2742 0329 7B020000 		.4byte	0x27b
 2743 032d 14       		.byte	0x14
 2744 032e 0E       		.uleb128 0xe
 2745 032f 610A0000 		.4byte	.LASF62
 2746 0333 0B       		.byte	0xb
 2747 0334 9B01     		.2byte	0x19b
 2748 0336 7B020000 		.4byte	0x27b
 2749 033a 18       		.byte	0x18
 2750 033b 00       		.byte	0
 2751 033c 03       		.uleb128 0x3
 2752 033d 79000000 		.4byte	.LASF63
 2753 0341 0A       		.byte	0xa
 2754 0342 5C       		.byte	0x5c
 2755 0343 47030000 		.4byte	0x347
 2756 0347 06       		.uleb128 0x6
 2757 0348 04       		.byte	0x4
 2758 0349 4D030000 		.4byte	0x34d
 2759 034d 10       		.uleb128 0x10
 2760 034e 58030000 		.4byte	0x358
 2761 0352 11       		.uleb128 0x11
 2762 0353 B0000000 		.4byte	0xb0
 2763 0357 00       		.byte	0
 2764 0358 03       		.uleb128 0x3
 2765 0359 05070000 		.4byte	.LASF64
 2766 035d 0A       		.byte	0xa
 2767 035e 61       		.byte	0x61
 2768 035f 63030000 		.4byte	0x363
 2769 0363 0F       		.uleb128 0xf
 2770 0364 A7090000 		.4byte	.LASF65
ARM GAS  /tmp/cc1C8LBe.s 			page 50


 2771 0368 14       		.byte	0x14
 2772 0369 0B       		.byte	0xb
 2773 036a 6B01     		.2byte	0x16b
 2774 036c B2030000 		.4byte	0x3b2
 2775 0370 0E       		.uleb128 0xe
 2776 0371 01080000 		.4byte	.LASF66
 2777 0375 0B       		.byte	0xb
 2778 0376 6C01     		.2byte	0x16c
 2779 0378 41060000 		.4byte	0x641
 2780 037c 00       		.byte	0
 2781 037d 0E       		.uleb128 0xe
 2782 037e 11080000 		.4byte	.LASF67
 2783 0382 0B       		.byte	0xb
 2784 0383 6D01     		.2byte	0x16d
 2785 0385 41060000 		.4byte	0x641
 2786 0389 04       		.byte	0x4
 2787 038a 0E       		.uleb128 0xe
 2788 038b 93090000 		.4byte	.LASF68
 2789 038f 0B       		.byte	0xb
 2790 0390 6E01     		.2byte	0x16e
 2791 0392 6D010000 		.4byte	0x16d
 2792 0396 08       		.byte	0x8
 2793 0397 0E       		.uleb128 0xe
 2794 0398 5B050000 		.4byte	.LASF69
 2795 039c 0B       		.byte	0xb
 2796 039d 6F01     		.2byte	0x16f
 2797 039f 3C030000 		.4byte	0x33c
 2798 03a3 0C       		.byte	0xc
 2799 03a4 0E       		.uleb128 0xe
 2800 03a5 EC010000 		.4byte	.LASF70
 2801 03a9 0B       		.byte	0xb
 2802 03aa 7101     		.2byte	0x171
 2803 03ac B0000000 		.4byte	0xb0
 2804 03b0 10       		.byte	0x10
 2805 03b1 00       		.byte	0
 2806 03b2 03       		.uleb128 0x3
 2807 03b3 CE060000 		.4byte	.LASF71
 2808 03b7 0A       		.byte	0xa
 2809 03b8 66       		.byte	0x66
 2810 03b9 BD030000 		.4byte	0x3bd
 2811 03bd 0F       		.uleb128 0xf
 2812 03be 89000000 		.4byte	.LASF72
 2813 03c2 10       		.byte	0x10
 2814 03c3 0B       		.byte	0xb
 2815 03c4 7B01     		.2byte	0x17b
 2816 03c6 FF030000 		.4byte	0x3ff
 2817 03ca 0E       		.uleb128 0xe
 2818 03cb 01080000 		.4byte	.LASF66
 2819 03cf 0B       		.byte	0xb
 2820 03d0 7C01     		.2byte	0x17c
 2821 03d2 41060000 		.4byte	0x641
 2822 03d6 00       		.byte	0
 2823 03d7 0E       		.uleb128 0xe
 2824 03d8 11080000 		.4byte	.LASF67
 2825 03dc 0B       		.byte	0xb
 2826 03dd 7E01     		.2byte	0x17e
 2827 03df 41060000 		.4byte	0x641
ARM GAS  /tmp/cc1C8LBe.s 			page 51


 2828 03e3 04       		.byte	0x4
 2829 03e4 0E       		.uleb128 0xe
 2830 03e5 93090000 		.4byte	.LASF68
 2831 03e9 0B       		.byte	0xb
 2832 03ea 8001     		.2byte	0x180
 2833 03ec 6D010000 		.4byte	0x16d
 2834 03f0 08       		.byte	0x8
 2835 03f1 0E       		.uleb128 0xe
 2836 03f2 330D0000 		.4byte	.LASF73
 2837 03f6 0B       		.byte	0xb
 2838 03f7 8801     		.2byte	0x188
 2839 03f9 6D010000 		.4byte	0x16d
 2840 03fd 0C       		.byte	0xc
 2841 03fe 00       		.byte	0
 2842 03ff 03       		.uleb128 0x3
 2843 0400 01040000 		.4byte	.LASF74
 2844 0404 0A       		.byte	0xa
 2845 0405 6B       		.byte	0x6b
 2846 0406 0A040000 		.4byte	0x40a
 2847 040a 0F       		.uleb128 0xf
 2848 040b 300C0000 		.4byte	.LASF75
 2849 040f 04       		.byte	0x4
 2850 0410 0B       		.byte	0xb
 2851 0411 A201     		.2byte	0x1a2
 2852 0413 25040000 		.4byte	0x425
 2853 0417 0E       		.uleb128 0xe
 2854 0418 D2030000 		.4byte	.LASF76
 2855 041c 0B       		.byte	0xb
 2856 041d AA01     		.2byte	0x1aa
 2857 041f 47060000 		.4byte	0x647
 2858 0423 00       		.byte	0
 2859 0424 00       		.byte	0
 2860 0425 03       		.uleb128 0x3
 2861 0426 690D0000 		.4byte	.LASF77
 2862 042a 0A       		.byte	0xa
 2863 042b 70       		.byte	0x70
 2864 042c 30040000 		.4byte	0x430
 2865 0430 12       		.uleb128 0x12
 2866 0431 FB0C0000 		.4byte	.LASF78
 2867 0435 5001     		.2byte	0x150
 2868 0437 0B       		.byte	0xb
 2869 0438 C201     		.2byte	0x1c2
 2870 043a 8C040000 		.4byte	0x48c
 2871 043e 0E       		.uleb128 0xe
 2872 043f 310B0000 		.4byte	.LASF79
 2873 0443 0B       		.byte	0xb
 2874 0444 C601     		.2byte	0x1c6
 2875 0446 D5020000 		.4byte	0x2d5
 2876 044a 00       		.byte	0
 2877 044b 0E       		.uleb128 0xe
 2878 044c AC0C0000 		.4byte	.LASF80
 2879 0450 0B       		.byte	0xb
 2880 0451 CA01     		.2byte	0x1ca
 2881 0453 B2030000 		.4byte	0x3b2
 2882 0457 1C       		.byte	0x1c
 2883 0458 0D       		.uleb128 0xd
 2884 0459 64626700 		.ascii	"dbg\000"
ARM GAS  /tmp/cc1C8LBe.s 			page 52


 2885 045d 0B       		.byte	0xb
 2886 045e CE01     		.2byte	0x1ce
 2887 0460 FF030000 		.4byte	0x3ff
 2888 0464 2C       		.byte	0x2c
 2889 0465 0E       		.uleb128 0xe
 2890 0466 8A0A0000 		.4byte	.LASF81
 2891 046a 0B       		.byte	0xb
 2892 046b D201     		.2byte	0x1d2
 2893 046d 78010000 		.4byte	0x178
 2894 0471 30       		.byte	0x30
 2895 0472 0D       		.uleb128 0xd
 2896 0473 746D00   		.ascii	"tm\000"
 2897 0476 0B       		.byte	0xb
 2898 0477 D701     		.2byte	0x1d7
 2899 0479 71050000 		.4byte	0x571
 2900 047d 74       		.byte	0x74
 2901 047e 0E       		.uleb128 0xe
 2902 047f 84080000 		.4byte	.LASF82
 2903 0483 0B       		.byte	0xb
 2904 0484 E301     		.2byte	0x1e3
 2905 0486 4C060000 		.4byte	0x64c
 2906 048a 78       		.byte	0x78
 2907 048b 00       		.byte	0
 2908 048c 08       		.uleb128 0x8
 2909 048d F5000000 		.4byte	0xf5
 2910 0491 9C040000 		.4byte	0x49c
 2911 0495 09       		.uleb128 0x9
 2912 0496 A9000000 		.4byte	0xa9
 2913 049a 0E       		.byte	0xe
 2914 049b 00       		.byte	0
 2915 049c 08       		.uleb128 0x8
 2916 049d F5000000 		.4byte	0xf5
 2917 04a1 AC040000 		.4byte	0x4ac
 2918 04a5 09       		.uleb128 0x9
 2919 04a6 A9000000 		.4byte	0xa9
 2920 04aa 2F       		.byte	0x2f
 2921 04ab 00       		.byte	0
 2922 04ac 03       		.uleb128 0x3
 2923 04ad BA020000 		.4byte	.LASF83
 2924 04b1 0C       		.byte	0xc
 2925 04b2 65       		.byte	0x65
 2926 04b3 B0000000 		.4byte	0xb0
 2927 04b7 03       		.uleb128 0x3
 2928 04b8 BB040000 		.4byte	.LASF84
 2929 04bc 0C       		.byte	0xc
 2930 04bd 6D       		.byte	0x6d
 2931 04be 00010000 		.4byte	0x100
 2932 04c2 0B       		.uleb128 0xb
 2933 04c3 7C030000 		.4byte	.LASF85
 2934 04c7 04       		.byte	0x4
 2935 04c8 0C       		.byte	0xc
 2936 04c9 89       		.byte	0x89
 2937 04ca DB040000 		.4byte	0x4db
 2938 04ce 13       		.uleb128 0x13
 2939 04cf 72313300 		.ascii	"r13\000"
 2940 04d3 0C       		.byte	0xc
 2941 04d4 8A       		.byte	0x8a
ARM GAS  /tmp/cc1C8LBe.s 			page 53


 2942 04d5 56050000 		.4byte	0x556
 2943 04d9 00       		.byte	0
 2944 04da 00       		.byte	0
 2945 04db 0B       		.uleb128 0xb
 2946 04dc 68090000 		.4byte	.LASF86
 2947 04e0 24       		.byte	0x24
 2948 04e1 01       		.byte	0x1
 2949 04e2 FD       		.byte	0xfd
 2950 04e3 56050000 		.4byte	0x556
 2951 04e7 0D       		.uleb128 0xd
 2952 04e8 723400   		.ascii	"r4\000"
 2953 04eb 01       		.byte	0x1
 2954 04ec 1001     		.2byte	0x110
 2955 04ee AC040000 		.4byte	0x4ac
 2956 04f2 00       		.byte	0
 2957 04f3 0D       		.uleb128 0xd
 2958 04f4 723500   		.ascii	"r5\000"
 2959 04f7 01       		.byte	0x1
 2960 04f8 1101     		.2byte	0x111
 2961 04fa AC040000 		.4byte	0x4ac
 2962 04fe 04       		.byte	0x4
 2963 04ff 0D       		.uleb128 0xd
 2964 0500 723600   		.ascii	"r6\000"
 2965 0503 01       		.byte	0x1
 2966 0504 1201     		.2byte	0x112
 2967 0506 AC040000 		.4byte	0x4ac
 2968 050a 08       		.byte	0x8
 2969 050b 0D       		.uleb128 0xd
 2970 050c 723700   		.ascii	"r7\000"
 2971 050f 01       		.byte	0x1
 2972 0510 1301     		.2byte	0x113
 2973 0512 AC040000 		.4byte	0x4ac
 2974 0516 0C       		.byte	0xc
 2975 0517 0D       		.uleb128 0xd
 2976 0518 723800   		.ascii	"r8\000"
 2977 051b 01       		.byte	0x1
 2978 051c 1401     		.2byte	0x114
 2979 051e AC040000 		.4byte	0x4ac
 2980 0522 10       		.byte	0x10
 2981 0523 0D       		.uleb128 0xd
 2982 0524 723900   		.ascii	"r9\000"
 2983 0527 01       		.byte	0x1
 2984 0528 1501     		.2byte	0x115
 2985 052a AC040000 		.4byte	0x4ac
 2986 052e 14       		.byte	0x14
 2987 052f 0D       		.uleb128 0xd
 2988 0530 72313000 		.ascii	"r10\000"
 2989 0534 01       		.byte	0x1
 2990 0535 1601     		.2byte	0x116
 2991 0537 AC040000 		.4byte	0x4ac
 2992 053b 18       		.byte	0x18
 2993 053c 0D       		.uleb128 0xd
 2994 053d 72313100 		.ascii	"r11\000"
 2995 0541 01       		.byte	0x1
 2996 0542 1701     		.2byte	0x117
 2997 0544 AC040000 		.4byte	0x4ac
 2998 0548 1C       		.byte	0x1c
ARM GAS  /tmp/cc1C8LBe.s 			page 54


 2999 0549 0D       		.uleb128 0xd
 3000 054a 6C7200   		.ascii	"lr\000"
 3001 054d 01       		.byte	0x1
 3002 054e 1801     		.2byte	0x118
 3003 0550 AC040000 		.4byte	0x4ac
 3004 0554 20       		.byte	0x20
 3005 0555 00       		.byte	0
 3006 0556 06       		.uleb128 0x6
 3007 0557 04       		.byte	0x4
 3008 0558 DB040000 		.4byte	0x4db
 3009 055c 14       		.uleb128 0x14
 3010 055d 04       		.byte	0x4
 3011 055e 0D       		.byte	0xd
 3012 055f 38       		.byte	0x38
 3013 0560 71050000 		.4byte	0x571
 3014 0564 0C       		.uleb128 0xc
 3015 0565 F7080000 		.4byte	.LASF87
 3016 0569 0D       		.byte	0xd
 3017 056a 3C       		.byte	0x3c
 3018 056b 15010000 		.4byte	0x115
 3019 056f 00       		.byte	0
 3020 0570 00       		.byte	0
 3021 0571 03       		.uleb128 0x3
 3022 0572 6C0B0000 		.4byte	.LASF88
 3023 0576 0D       		.byte	0xd
 3024 0577 3D       		.byte	0x3d
 3025 0578 5C050000 		.4byte	0x55c
 3026 057c 15       		.uleb128 0x15
 3027 057d 04       		.byte	0x4
 3028 057e 0B       		.byte	0xb
 3029 057f FA       		.byte	0xfa
 3030 0580 D9050000 		.4byte	0x5d9
 3031 0584 16       		.uleb128 0x16
 3032 0585 2C0D0000 		.4byte	.LASF89
 3033 0589 0B       		.byte	0xb
 3034 058a 0101     		.2byte	0x101
 3035 058c 4C010000 		.4byte	0x14c
 3036 0590 16       		.uleb128 0x16
 3037 0591 F3010000 		.4byte	.LASF90
 3038 0595 0B       		.byte	0xb
 3039 0596 0801     		.2byte	0x108
 3040 0598 4C010000 		.4byte	0x14c
 3041 059c 16       		.uleb128 0x16
 3042 059d 9B040000 		.4byte	.LASF91
 3043 05a1 0B       		.byte	0xb
 3044 05a2 0F01     		.2byte	0x10f
 3045 05a4 B0000000 		.4byte	0xb0
 3046 05a8 16       		.uleb128 0x16
 3047 05a9 8B030000 		.4byte	.LASF92
 3048 05ad 0B       		.byte	0xb
 3049 05ae 1601     		.2byte	0x116
 3050 05b0 D9050000 		.4byte	0x5d9
 3051 05b4 16       		.uleb128 0x16
 3052 05b5 10000000 		.4byte	.LASF93
 3053 05b9 0B       		.byte	0xb
 3054 05ba 1E01     		.2byte	0x11e
 3055 05bc 04060000 		.4byte	0x604
ARM GAS  /tmp/cc1C8LBe.s 			page 55


 3056 05c0 16       		.uleb128 0x16
 3057 05c1 A6050000 		.4byte	.LASF94
 3058 05c5 0B       		.byte	0xb
 3059 05c6 2701     		.2byte	0x127
 3060 05c8 3B060000 		.4byte	0x63b
 3061 05cc 16       		.uleb128 0x16
 3062 05cd 36030000 		.4byte	.LASF95
 3063 05d1 0B       		.byte	0xb
 3064 05d2 2F01     		.2byte	0x12f
 3065 05d4 57010000 		.4byte	0x157
 3066 05d8 00       		.byte	0
 3067 05d9 06       		.uleb128 0x6
 3068 05da 04       		.byte	0x4
 3069 05db 70020000 		.4byte	0x270
 3070 05df 0B       		.uleb128 0xb
 3071 05e0 A6060000 		.4byte	.LASF96
 3072 05e4 0C       		.byte	0xc
 3073 05e5 0E       		.byte	0xe
 3074 05e6 34       		.byte	0x34
 3075 05e7 04060000 		.4byte	0x604
 3076 05eb 0C       		.uleb128 0xc
 3077 05ec 990B0000 		.4byte	.LASF97
 3078 05f0 0E       		.byte	0xe
 3079 05f1 35       		.byte	0x35
 3080 05f2 A5020000 		.4byte	0x2a5
 3081 05f6 00       		.byte	0
 3082 05f7 0C       		.uleb128 0xc
 3083 05f8 B8090000 		.4byte	.LASF98
 3084 05fc 0E       		.byte	0xe
 3085 05fd 37       		.byte	0x37
 3086 05fe 62010000 		.4byte	0x162
 3087 0602 08       		.byte	0x8
 3088 0603 00       		.byte	0
 3089 0604 06       		.uleb128 0x6
 3090 0605 04       		.byte	0x4
 3091 0606 DF050000 		.4byte	0x5df
 3092 060a 0B       		.uleb128 0xb
 3093 060b E00B0000 		.4byte	.LASF99
 3094 060f 10       		.byte	0x10
 3095 0610 0F       		.byte	0xf
 3096 0611 39       		.byte	0x39
 3097 0612 3B060000 		.4byte	0x63b
 3098 0616 0C       		.uleb128 0xc
 3099 0617 DD070000 		.4byte	.LASF100
 3100 061b 0F       		.byte	0xf
 3101 061c 3A       		.byte	0x3a
 3102 061d A5020000 		.4byte	0x2a5
 3103 0621 00       		.byte	0
 3104 0622 0C       		.uleb128 0xc
 3105 0623 E4010000 		.4byte	.LASF101
 3106 0627 0F       		.byte	0xf
 3107 0628 3C       		.byte	0x3c
 3108 0629 7B020000 		.4byte	0x27b
 3109 062d 08       		.byte	0x8
 3110 062e 0C       		.uleb128 0xc
 3111 062f 120E0000 		.4byte	.LASF102
 3112 0633 0F       		.byte	0xf
ARM GAS  /tmp/cc1C8LBe.s 			page 56


 3113 0634 3E       		.byte	0x3e
 3114 0635 67060000 		.4byte	0x667
 3115 0639 0C       		.byte	0xc
 3116 063a 00       		.byte	0
 3117 063b 06       		.uleb128 0x6
 3118 063c 04       		.byte	0x4
 3119 063d 0A060000 		.4byte	0x60a
 3120 0641 06       		.uleb128 0x6
 3121 0642 04       		.byte	0x4
 3122 0643 58030000 		.4byte	0x358
 3123 0647 0A       		.uleb128 0xa
 3124 0648 B9000000 		.4byte	0xb9
 3125 064c 08       		.uleb128 0x8
 3126 064d B7040000 		.4byte	0x4b7
 3127 0651 5C060000 		.4byte	0x65c
 3128 0655 09       		.uleb128 0x9
 3129 0656 A9000000 		.4byte	0xa9
 3130 065a 1A       		.byte	0x1a
 3131 065b 00       		.byte	0
 3132 065c 03       		.uleb128 0x3
 3133 065d C40C0000 		.4byte	.LASF103
 3134 0661 0F       		.byte	0xf
 3135 0662 34       		.byte	0x34
 3136 0663 0A060000 		.4byte	0x60a
 3137 0667 06       		.uleb128 0x6
 3138 0668 04       		.byte	0x4
 3139 0669 5C060000 		.4byte	0x65c
 3140 066d 03       		.uleb128 0x3
 3141 066e 530C0000 		.4byte	.LASF104
 3142 0672 10       		.byte	0x10
 3143 0673 3F       		.byte	0x3f
 3144 0674 78060000 		.4byte	0x678
 3145 0678 0B       		.uleb128 0xb
 3146 0679 F5020000 		.4byte	.LASF105
 3147 067d 24       		.byte	0x24
 3148 067e 10       		.byte	0x10
 3149 067f 4D       		.byte	0x4d
 3150 0680 E5060000 		.4byte	0x6e5
 3151 0684 0C       		.uleb128 0xc
 3152 0685 270B0000 		.4byte	.LASF106
 3153 0689 10       		.byte	0x10
 3154 068a 4E       		.byte	0x4e
 3155 068b A5020000 		.4byte	0x2a5
 3156 068f 00       		.byte	0
 3157 0690 0C       		.uleb128 0xc
 3158 0691 18060000 		.4byte	.LASF107
 3159 0695 10       		.byte	0x10
 3160 0696 4F       		.byte	0x4f
 3161 0697 07070000 		.4byte	0x707
 3162 069b 08       		.byte	0x8
 3163 069c 0C       		.uleb128 0xc
 3164 069d 1A020000 		.4byte	.LASF108
 3165 06a1 10       		.byte	0x10
 3166 06a2 50       		.byte	0x50
 3167 06a3 0C070000 		.4byte	0x70c
 3168 06a7 0C       		.byte	0xc
 3169 06a8 0C       		.uleb128 0xc
ARM GAS  /tmp/cc1C8LBe.s 			page 57


 3170 06a9 14020000 		.4byte	.LASF109
 3171 06ad 10       		.byte	0x10
 3172 06ae 51       		.byte	0x51
 3173 06af 0C070000 		.4byte	0x70c
 3174 06b3 10       		.byte	0x10
 3175 06b4 0C       		.uleb128 0xc
 3176 06b5 22070000 		.4byte	.LASF110
 3177 06b9 10       		.byte	0x10
 3178 06ba 53       		.byte	0x53
 3179 06bb 0C070000 		.4byte	0x70c
 3180 06bf 14       		.byte	0x14
 3181 06c0 0C       		.uleb128 0xc
 3182 06c1 6B020000 		.4byte	.LASF111
 3183 06c5 10       		.byte	0x10
 3184 06c6 54       		.byte	0x54
 3185 06c7 0C070000 		.4byte	0x70c
 3186 06cb 18       		.byte	0x18
 3187 06cc 0C       		.uleb128 0xc
 3188 06cd 3E020000 		.4byte	.LASF112
 3189 06d1 10       		.byte	0x10
 3190 06d2 55       		.byte	0x55
 3191 06d3 E5060000 		.4byte	0x6e5
 3192 06d7 1C       		.byte	0x1c
 3193 06d8 0C       		.uleb128 0xc
 3194 06d9 CB030000 		.4byte	.LASF113
 3195 06dd 10       		.byte	0x10
 3196 06de 56       		.byte	0x56
 3197 06df B0000000 		.4byte	0xb0
 3198 06e3 20       		.byte	0x20
 3199 06e4 00       		.byte	0
 3200 06e5 03       		.uleb128 0x3
 3201 06e6 5F080000 		.4byte	.LASF114
 3202 06ea 10       		.byte	0x10
 3203 06eb 42       		.byte	0x42
 3204 06ec F0060000 		.4byte	0x6f0
 3205 06f0 06       		.uleb128 0x6
 3206 06f1 04       		.byte	0x4
 3207 06f2 F6060000 		.4byte	0x6f6
 3208 06f6 10       		.uleb128 0x10
 3209 06f7 01070000 		.4byte	0x701
 3210 06fb 11       		.uleb128 0x11
 3211 06fc 01070000 		.4byte	0x701
 3212 0700 00       		.byte	0
 3213 0701 06       		.uleb128 0x6
 3214 0702 04       		.byte	0x4
 3215 0703 6D060000 		.4byte	0x66d
 3216 0707 0A       		.uleb128 0xa
 3217 0708 28000000 		.4byte	0x28
 3218 070c 06       		.uleb128 0x6
 3219 070d 04       		.byte	0x4
 3220 070e D4000000 		.4byte	0xd4
 3221 0712 03       		.uleb128 0x3
 3222 0713 1E0D0000 		.4byte	.LASF115
 3223 0717 10       		.byte	0x10
 3224 0718 64       		.byte	0x64
 3225 0719 6D060000 		.4byte	0x66d
 3226 071d 03       		.uleb128 0x3
ARM GAS  /tmp/cc1C8LBe.s 			page 58


 3227 071e 920D0000 		.4byte	.LASF116
 3228 0722 10       		.byte	0x10
 3229 0723 71       		.byte	0x71
 3230 0724 6D060000 		.4byte	0x66d
 3231 0728 06       		.uleb128 0x6
 3232 0729 04       		.byte	0x4
 3233 072a 2E070000 		.4byte	0x72e
 3234 072e 07       		.uleb128 0x7
 3235 072f D4000000 		.4byte	0xd4
 3236 0733 04       		.uleb128 0x4
 3237 0734 01       		.byte	0x1
 3238 0735 02       		.byte	0x2
 3239 0736 2A040000 		.4byte	.LASF117
 3240 073a 03       		.uleb128 0x3
 3241 073b 91040000 		.4byte	.LASF118
 3242 073f 11       		.byte	0x11
 3243 0740 FA       		.byte	0xfa
 3244 0741 45070000 		.4byte	0x745
 3245 0745 12       		.uleb128 0x12
 3246 0746 91040000 		.4byte	.LASF118
 3247 074a B001     		.2byte	0x1b0
 3248 074c 12       		.byte	0x12
 3249 074d 8001     		.2byte	0x180
 3250 074f 71080000 		.4byte	0x871
 3251 0753 0E       		.uleb128 0xe
 3252 0754 85010000 		.4byte	.LASF119
 3253 0758 12       		.byte	0x12
 3254 0759 8401     		.2byte	0x184
 3255 075b A4080000 		.4byte	0x8a4
 3256 075f 00       		.byte	0
 3257 0760 0E       		.uleb128 0xe
 3258 0761 7E010000 		.4byte	.LASF120
 3259 0765 12       		.byte	0x12
 3260 0766 8801     		.2byte	0x188
 3261 0768 D1110000 		.4byte	0x11d1
 3262 076c 04       		.byte	0x4
 3263 076d 0E       		.uleb128 0xe
 3264 076e 03050000 		.4byte	.LASF121
 3265 0772 12       		.byte	0x12
 3266 0773 8C01     		.2byte	0x18c
 3267 0775 DF000000 		.4byte	0xdf
 3268 0779 08       		.byte	0x8
 3269 077a 0E       		.uleb128 0xe
 3270 077b 7C040000 		.4byte	.LASF122
 3271 077f 12       		.byte	0x12
 3272 0780 9001     		.2byte	0x190
 3273 0782 DF000000 		.4byte	0xdf
 3274 0786 0A       		.byte	0xa
 3275 0787 0D       		.uleb128 0xd
 3276 0788 65706300 		.ascii	"epc\000"
 3277 078c 12       		.byte	0x12
 3278 078d 9401     		.2byte	0x194
 3279 078f DC110000 		.4byte	0x11dc
 3280 0793 0C       		.byte	0xc
 3281 0794 0E       		.uleb128 0xe
 3282 0795 5A0B0000 		.4byte	.LASF123
 3283 0799 12       		.byte	0x12
ARM GAS  /tmp/cc1C8LBe.s 			page 59


 3284 079a 9B01     		.2byte	0x19b
 3285 079c F7110000 		.4byte	0x11f7
 3286 07a0 1C       		.byte	0x1c
 3287 07a1 0E       		.uleb128 0xe
 3288 07a2 A10D0000 		.4byte	.LASF124
 3289 07a6 12       		.byte	0x12
 3290 07a7 A201     		.2byte	0x1a2
 3291 07a9 F7110000 		.4byte	0x11f7
 3292 07ad 28       		.byte	0x28
 3293 07ae 0E       		.uleb128 0xe
 3294 07af F8030000 		.4byte	.LASF125
 3295 07b3 12       		.byte	0x12
 3296 07b4 A601     		.2byte	0x1a6
 3297 07b6 00090000 		.4byte	0x900
 3298 07ba 34       		.byte	0x34
 3299 07bb 0E       		.uleb128 0xe
 3300 07bc 09080000 		.4byte	.LASF126
 3301 07c0 12       		.byte	0x12
 3302 07c1 AA01     		.2byte	0x1aa
 3303 07c3 0C070000 		.4byte	0x70c
 3304 07c7 38       		.byte	0x38
 3305 07c8 0E       		.uleb128 0xe
 3306 07c9 62040000 		.4byte	.LASF127
 3307 07cd 12       		.byte	0x12
 3308 07ce AE01     		.2byte	0x1ae
 3309 07d0 28000000 		.4byte	0x28
 3310 07d4 3C       		.byte	0x3c
 3311 07d5 0E       		.uleb128 0xe
 3312 07d6 B3060000 		.4byte	.LASF128
 3313 07da 12       		.byte	0x12
 3314 07db B201     		.2byte	0x1b2
 3315 07dd 76090000 		.4byte	0x976
 3316 07e1 40       		.byte	0x40
 3317 07e2 0E       		.uleb128 0xe
 3318 07e3 95050000 		.4byte	.LASF129
 3319 07e7 12       		.byte	0x12
 3320 07e8 B601     		.2byte	0x1b6
 3321 07ea 07120000 		.4byte	0x1207
 3322 07ee 44       		.byte	0x44
 3323 07ef 0E       		.uleb128 0xe
 3324 07f0 8B060000 		.4byte	.LASF130
 3325 07f4 12       		.byte	0x12
 3326 07f5 BA01     		.2byte	0x1ba
 3327 07f7 DF000000 		.4byte	0xdf
 3328 07fb 4C       		.byte	0x4c
 3329 07fc 0E       		.uleb128 0xe
 3330 07fd 9E060000 		.4byte	.LASF131
 3331 0801 12       		.byte	0x12
 3332 0802 BE01     		.2byte	0x1be
 3333 0804 D4000000 		.4byte	0xd4
 3334 0808 4E       		.byte	0x4e
 3335 0809 0E       		.uleb128 0xe
 3336 080a DB050000 		.4byte	.LASF132
 3337 080e 12       		.byte	0x12
 3338 080f C201     		.2byte	0x1c2
 3339 0811 D4000000 		.4byte	0xd4
 3340 0815 4F       		.byte	0x4f
ARM GAS  /tmp/cc1C8LBe.s 			page 60


 3341 0816 0D       		.uleb128 0xd
 3342 0817 6F746700 		.ascii	"otg\000"
 3343 081b 12       		.byte	0x12
 3344 081c CA01     		.2byte	0x1ca
 3345 081e 17120000 		.4byte	0x1217
 3346 0822 50       		.byte	0x50
 3347 0823 0E       		.uleb128 0xe
 3348 0824 74090000 		.4byte	.LASF133
 3349 0828 12       		.byte	0x12
 3350 0829 CE01     		.2byte	0x1ce
 3351 082b 1D120000 		.4byte	0x121d
 3352 082f 54       		.byte	0x54
 3353 0830 0E       		.uleb128 0xe
 3354 0831 190E0000 		.4byte	.LASF134
 3355 0835 12       		.byte	0x12
 3356 0836 D201     		.2byte	0x1d2
 3357 0838 F5000000 		.4byte	0xf5
 3358 083c 58       		.byte	0x58
 3359 083d 0E       		.uleb128 0xe
 3360 083e B8080000 		.4byte	.LASF135
 3361 0842 12       		.byte	0x12
 3362 0843 D601     		.2byte	0x1d6
 3363 0845 F5000000 		.4byte	0xf5
 3364 0849 5C       		.byte	0x5c
 3365 084a 0E       		.uleb128 0xe
 3366 084b 5A080000 		.4byte	.LASF136
 3367 084f 12       		.byte	0x12
 3368 0850 DA01     		.2byte	0x1da
 3369 0852 70020000 		.4byte	0x270
 3370 0856 60       		.byte	0x60
 3371 0857 0D       		.uleb128 0xd
 3372 0858 747200   		.ascii	"tr\000"
 3373 085b 12       		.byte	0x12
 3374 085c DF01     		.2byte	0x1df
 3375 085e 70020000 		.4byte	0x270
 3376 0862 64       		.byte	0x64
 3377 0863 0E       		.uleb128 0xe
 3378 0864 520B0000 		.4byte	.LASF137
 3379 0868 12       		.byte	0x12
 3380 0869 E301     		.2byte	0x1e3
 3381 086b 28120000 		.4byte	0x1228
 3382 086f 68       		.byte	0x68
 3383 0870 00       		.byte	0
 3384 0871 03       		.uleb128 0x3
 3385 0872 160D0000 		.4byte	.LASF138
 3386 0876 11       		.byte	0x11
 3387 0877 FF       		.byte	0xff
 3388 0878 D4000000 		.4byte	0xd4
 3389 087c 17       		.uleb128 0x17
 3390 087d 01       		.byte	0x1
 3391 087e 11       		.byte	0x11
 3392 087f 0401     		.2byte	0x104
 3393 0881 A4080000 		.4byte	0x8a4
 3394 0885 18       		.uleb128 0x18
 3395 0886 9C090000 		.4byte	.LASF139
 3396 088a 00       		.sleb128 0
 3397 088b 18       		.uleb128 0x18
ARM GAS  /tmp/cc1C8LBe.s 			page 61


 3398 088c 07090000 		.4byte	.LASF140
 3399 0890 01       		.sleb128 1
 3400 0891 18       		.uleb128 0x18
 3401 0892 D3070000 		.4byte	.LASF141
 3402 0896 02       		.sleb128 2
 3403 0897 18       		.uleb128 0x18
 3404 0898 CE050000 		.4byte	.LASF142
 3405 089c 03       		.sleb128 3
 3406 089d 18       		.uleb128 0x18
 3407 089e AC010000 		.4byte	.LASF143
 3408 08a2 04       		.sleb128 4
 3409 08a3 00       		.byte	0
 3410 08a4 19       		.uleb128 0x19
 3411 08a5 37070000 		.4byte	.LASF144
 3412 08a9 11       		.byte	0x11
 3413 08aa 0A01     		.2byte	0x10a
 3414 08ac 7C080000 		.4byte	0x87c
 3415 08b0 17       		.uleb128 0x17
 3416 08b1 01       		.byte	0x1
 3417 08b2 11       		.byte	0x11
 3418 08b3 0F01     		.2byte	0x10f
 3419 08b5 CC080000 		.4byte	0x8cc
 3420 08b9 18       		.uleb128 0x18
 3421 08ba AC0D0000 		.4byte	.LASF145
 3422 08be 00       		.sleb128 0
 3423 08bf 18       		.uleb128 0x18
 3424 08c0 F1050000 		.4byte	.LASF146
 3425 08c4 01       		.sleb128 1
 3426 08c5 18       		.uleb128 0x18
 3427 08c6 57030000 		.4byte	.LASF147
 3428 08ca 02       		.sleb128 2
 3429 08cb 00       		.byte	0
 3430 08cc 17       		.uleb128 0x17
 3431 08cd 01       		.byte	0x1
 3432 08ce 11       		.byte	0x11
 3433 08cf 1801     		.2byte	0x118
 3434 08d1 00090000 		.4byte	0x900
 3435 08d5 18       		.uleb128 0x18
 3436 08d6 C9020000 		.4byte	.LASF148
 3437 08da 00       		.sleb128 0
 3438 08db 18       		.uleb128 0x18
 3439 08dc BA000000 		.4byte	.LASF149
 3440 08e0 01       		.sleb128 1
 3441 08e1 18       		.uleb128 0x18
 3442 08e2 54090000 		.4byte	.LASF150
 3443 08e6 02       		.sleb128 2
 3444 08e7 18       		.uleb128 0x18
 3445 08e8 F70D0000 		.4byte	.LASF151
 3446 08ec 03       		.sleb128 3
 3447 08ed 18       		.uleb128 0x18
 3448 08ee 310E0000 		.4byte	.LASF152
 3449 08f2 04       		.sleb128 4
 3450 08f3 18       		.uleb128 0x18
 3451 08f4 DE0D0000 		.4byte	.LASF153
 3452 08f8 05       		.sleb128 5
 3453 08f9 18       		.uleb128 0x18
 3454 08fa BD030000 		.4byte	.LASF154
ARM GAS  /tmp/cc1C8LBe.s 			page 62


 3455 08fe 06       		.sleb128 6
 3456 08ff 00       		.byte	0
 3457 0900 19       		.uleb128 0x19
 3458 0901 FC010000 		.4byte	.LASF155
 3459 0905 11       		.byte	0x11
 3460 0906 2001     		.2byte	0x120
 3461 0908 CC080000 		.4byte	0x8cc
 3462 090c 17       		.uleb128 0x17
 3463 090d 01       		.byte	0x1
 3464 090e 11       		.byte	0x11
 3465 090f 2501     		.2byte	0x125
 3466 0911 3A090000 		.4byte	0x93a
 3467 0915 18       		.uleb128 0x18
 3468 0916 E90B0000 		.4byte	.LASF156
 3469 091a 00       		.sleb128 0
 3470 091b 18       		.uleb128 0x18
 3471 091c 23020000 		.4byte	.LASF157
 3472 0920 01       		.sleb128 1
 3473 0921 18       		.uleb128 0x18
 3474 0922 040B0000 		.4byte	.LASF158
 3475 0926 02       		.sleb128 2
 3476 0927 18       		.uleb128 0x18
 3477 0928 750D0000 		.4byte	.LASF159
 3478 092c 03       		.sleb128 3
 3479 092d 18       		.uleb128 0x18
 3480 092e 90070000 		.4byte	.LASF160
 3481 0932 04       		.sleb128 4
 3482 0933 18       		.uleb128 0x18
 3483 0934 45030000 		.4byte	.LASF161
 3484 0938 05       		.sleb128 5
 3485 0939 00       		.byte	0
 3486 093a 19       		.uleb128 0x19
 3487 093b AD050000 		.4byte	.LASF162
 3488 093f 11       		.byte	0x11
 3489 0940 2C01     		.2byte	0x12c
 3490 0942 0C090000 		.4byte	0x90c
 3491 0946 1A       		.uleb128 0x1a
 3492 0947 08       		.byte	0x8
 3493 0948 11       		.byte	0x11
 3494 0949 3101     		.2byte	0x131
 3495 094b 6A090000 		.4byte	0x96a
 3496 094f 0E       		.uleb128 0xe
 3497 0950 C6050000 		.4byte	.LASF163
 3498 0954 11       		.byte	0x11
 3499 0955 3501     		.2byte	0x135
 3500 0957 28000000 		.4byte	0x28
 3501 095b 00       		.byte	0
 3502 095c 0E       		.uleb128 0xe
 3503 095d AB040000 		.4byte	.LASF164
 3504 0961 11       		.byte	0x11
 3505 0962 3901     		.2byte	0x139
 3506 0964 28070000 		.4byte	0x728
 3507 0968 04       		.byte	0x4
 3508 0969 00       		.byte	0
 3509 096a 19       		.uleb128 0x19
 3510 096b 63050000 		.4byte	.LASF165
 3511 096f 11       		.byte	0x11
ARM GAS  /tmp/cc1C8LBe.s 			page 63


 3512 0970 3A01     		.2byte	0x13a
 3513 0972 46090000 		.4byte	0x946
 3514 0976 19       		.uleb128 0x19
 3515 0977 8E0C0000 		.4byte	.LASF166
 3516 097b 11       		.byte	0x11
 3517 097c 4201     		.2byte	0x142
 3518 097e 82090000 		.4byte	0x982
 3519 0982 06       		.uleb128 0x6
 3520 0983 04       		.byte	0x4
 3521 0984 88090000 		.4byte	0x988
 3522 0988 10       		.uleb128 0x10
 3523 0989 93090000 		.4byte	0x993
 3524 098d 11       		.uleb128 0x11
 3525 098e 93090000 		.4byte	0x993
 3526 0992 00       		.byte	0
 3527 0993 06       		.uleb128 0x6
 3528 0994 04       		.byte	0x4
 3529 0995 3A070000 		.4byte	0x73a
 3530 0999 19       		.uleb128 0x19
 3531 099a 2B080000 		.4byte	.LASF167
 3532 099e 11       		.byte	0x11
 3533 099f 4B01     		.2byte	0x14b
 3534 09a1 A5090000 		.4byte	0x9a5
 3535 09a5 06       		.uleb128 0x6
 3536 09a6 04       		.byte	0x4
 3537 09a7 AB090000 		.4byte	0x9ab
 3538 09ab 10       		.uleb128 0x10
 3539 09ac BB090000 		.4byte	0x9bb
 3540 09b0 11       		.uleb128 0x11
 3541 09b1 93090000 		.4byte	0x993
 3542 09b5 11       		.uleb128 0x11
 3543 09b6 71080000 		.4byte	0x871
 3544 09ba 00       		.byte	0
 3545 09bb 19       		.uleb128 0x19
 3546 09bc E1040000 		.4byte	.LASF168
 3547 09c0 11       		.byte	0x11
 3548 09c1 5401     		.2byte	0x154
 3549 09c3 C7090000 		.4byte	0x9c7
 3550 09c7 06       		.uleb128 0x6
 3551 09c8 04       		.byte	0x4
 3552 09c9 CD090000 		.4byte	0x9cd
 3553 09cd 10       		.uleb128 0x10
 3554 09ce DD090000 		.4byte	0x9dd
 3555 09d2 11       		.uleb128 0x11
 3556 09d3 93090000 		.4byte	0x993
 3557 09d7 11       		.uleb128 0x11
 3558 09d8 3A090000 		.4byte	0x93a
 3559 09dc 00       		.byte	0
 3560 09dd 19       		.uleb128 0x19
 3561 09de 5E0C0000 		.4byte	.LASF169
 3562 09e2 11       		.byte	0x11
 3563 09e3 6001     		.2byte	0x160
 3564 09e5 E9090000 		.4byte	0x9e9
 3565 09e9 06       		.uleb128 0x6
 3566 09ea 04       		.byte	0x4
 3567 09eb EF090000 		.4byte	0x9ef
 3568 09ef 1B       		.uleb128 0x1b
ARM GAS  /tmp/cc1C8LBe.s 			page 64


 3569 09f0 33070000 		.4byte	0x733
 3570 09f4 FE090000 		.4byte	0x9fe
 3571 09f8 11       		.uleb128 0x11
 3572 09f9 93090000 		.4byte	0x993
 3573 09fd 00       		.byte	0
 3574 09fe 19       		.uleb128 0x19
 3575 09ff 3F0B0000 		.4byte	.LASF170
 3576 0a03 11       		.byte	0x11
 3577 0a04 6501     		.2byte	0x165
 3578 0a06 0A0A0000 		.4byte	0xa0a
 3579 0a0a 06       		.uleb128 0x6
 3580 0a0b 04       		.byte	0x4
 3581 0a0c 100A0000 		.4byte	0xa10
 3582 0a10 1B       		.uleb128 0x1b
 3583 0a11 2E0A0000 		.4byte	0xa2e
 3584 0a15 2E0A0000 		.4byte	0xa2e
 3585 0a19 11       		.uleb128 0x11
 3586 0a1a 93090000 		.4byte	0x993
 3587 0a1e 11       		.uleb128 0x11
 3588 0a1f D4000000 		.4byte	0xd4
 3589 0a23 11       		.uleb128 0x11
 3590 0a24 D4000000 		.4byte	0xd4
 3591 0a28 11       		.uleb128 0x11
 3592 0a29 DF000000 		.4byte	0xdf
 3593 0a2d 00       		.byte	0
 3594 0a2e 06       		.uleb128 0x6
 3595 0a2f 04       		.byte	0x4
 3596 0a30 340A0000 		.4byte	0xa34
 3597 0a34 07       		.uleb128 0x7
 3598 0a35 6A090000 		.4byte	0x96a
 3599 0a39 14       		.uleb128 0x14
 3600 0a3a 20       		.byte	0x20
 3601 0a3b 13       		.byte	0x13
 3602 0a3c 35       		.byte	0x35
 3603 0a3d A20A0000 		.4byte	0xaa2
 3604 0a41 0C       		.uleb128 0xc
 3605 0a42 3B040000 		.4byte	.LASF171
 3606 0a46 13       		.byte	0x13
 3607 0a47 36       		.byte	0x36
 3608 0a48 10010000 		.4byte	0x110
 3609 0a4c 00       		.byte	0
 3610 0a4d 0C       		.uleb128 0xc
 3611 0a4e 72000000 		.4byte	.LASF172
 3612 0a52 13       		.byte	0x13
 3613 0a53 38       		.byte	0x38
 3614 0a54 10010000 		.4byte	0x110
 3615 0a58 04       		.byte	0x4
 3616 0a59 0C       		.uleb128 0xc
 3617 0a5a 140A0000 		.4byte	.LASF173
 3618 0a5e 13       		.byte	0x13
 3619 0a5f 39       		.byte	0x39
 3620 0a60 10010000 		.4byte	0x110
 3621 0a64 08       		.byte	0x8
 3622 0a65 0C       		.uleb128 0xc
 3623 0a66 4F0A0000 		.4byte	.LASF174
 3624 0a6a 13       		.byte	0x13
 3625 0a6b 3A       		.byte	0x3a
ARM GAS  /tmp/cc1C8LBe.s 			page 65


 3626 0a6c 10010000 		.4byte	0x110
 3627 0a70 0C       		.byte	0xc
 3628 0a71 0C       		.uleb128 0xc
 3629 0a72 10050000 		.4byte	.LASF175
 3630 0a76 13       		.byte	0x13
 3631 0a77 3C       		.byte	0x3c
 3632 0a78 10010000 		.4byte	0x110
 3633 0a7c 10       		.byte	0x10
 3634 0a7d 0C       		.uleb128 0xc
 3635 0a7e F90B0000 		.4byte	.LASF176
 3636 0a82 13       		.byte	0x13
 3637 0a83 3E       		.byte	0x3e
 3638 0a84 10010000 		.4byte	0x110
 3639 0a88 14       		.byte	0x14
 3640 0a89 0C       		.uleb128 0xc
 3641 0a8a 010C0000 		.4byte	.LASF177
 3642 0a8e 13       		.byte	0x13
 3643 0a8f 3F       		.byte	0x3f
 3644 0a90 10010000 		.4byte	0x110
 3645 0a94 18       		.byte	0x18
 3646 0a95 0C       		.uleb128 0xc
 3647 0a96 4B0C0000 		.4byte	.LASF178
 3648 0a9a 13       		.byte	0x13
 3649 0a9b 40       		.byte	0x40
 3650 0a9c 10010000 		.4byte	0x110
 3651 0aa0 1C       		.byte	0x1c
 3652 0aa1 00       		.byte	0
 3653 0aa2 03       		.uleb128 0x3
 3654 0aa3 EE040000 		.4byte	.LASF179
 3655 0aa7 13       		.byte	0x13
 3656 0aa8 41       		.byte	0x41
 3657 0aa9 390A0000 		.4byte	0xa39
 3658 0aad 14       		.uleb128 0x14
 3659 0aae 20       		.byte	0x20
 3660 0aaf 13       		.byte	0x13
 3661 0ab0 46       		.byte	0x46
 3662 0ab1 160B0000 		.4byte	0xb16
 3663 0ab5 0C       		.uleb128 0xc
 3664 0ab6 860C0000 		.4byte	.LASF180
 3665 0aba 13       		.byte	0x13
 3666 0abb 47       		.byte	0x47
 3667 0abc 10010000 		.4byte	0x110
 3668 0ac0 00       		.byte	0
 3669 0ac1 0C       		.uleb128 0xc
 3670 0ac2 6B000000 		.4byte	.LASF181
 3671 0ac6 13       		.byte	0x13
 3672 0ac7 49       		.byte	0x49
 3673 0ac8 10010000 		.4byte	0x110
 3674 0acc 04       		.byte	0x4
 3675 0acd 0C       		.uleb128 0xc
 3676 0ace B30C0000 		.4byte	.LASF182
 3677 0ad2 13       		.byte	0x13
 3678 0ad3 4A       		.byte	0x4a
 3679 0ad4 10010000 		.4byte	0x110
 3680 0ad8 08       		.byte	0x8
 3681 0ad9 0C       		.uleb128 0xc
 3682 0ada 82000000 		.4byte	.LASF183
ARM GAS  /tmp/cc1C8LBe.s 			page 66


 3683 0ade 13       		.byte	0x13
 3684 0adf 4C       		.byte	0x4c
 3685 0ae0 10010000 		.4byte	0x110
 3686 0ae4 0C       		.byte	0xc
 3687 0ae5 0C       		.uleb128 0xc
 3688 0ae6 10040000 		.4byte	.LASF184
 3689 0aea 13       		.byte	0x13
 3690 0aeb 4D       		.byte	0x4d
 3691 0aec 10010000 		.4byte	0x110
 3692 0af0 10       		.byte	0x10
 3693 0af1 0C       		.uleb128 0xc
 3694 0af2 F90B0000 		.4byte	.LASF176
 3695 0af6 13       		.byte	0x13
 3696 0af7 4F       		.byte	0x4f
 3697 0af8 10010000 		.4byte	0x110
 3698 0afc 14       		.byte	0x14
 3699 0afd 0C       		.uleb128 0xc
 3700 0afe 090C0000 		.4byte	.LASF185
 3701 0b02 13       		.byte	0x13
 3702 0b03 50       		.byte	0x50
 3703 0b04 10010000 		.4byte	0x110
 3704 0b08 18       		.byte	0x18
 3705 0b09 0C       		.uleb128 0xc
 3706 0b0a 190C0000 		.4byte	.LASF186
 3707 0b0e 13       		.byte	0x13
 3708 0b0f 52       		.byte	0x52
 3709 0b10 10010000 		.4byte	0x110
 3710 0b14 1C       		.byte	0x1c
 3711 0b15 00       		.byte	0
 3712 0b16 03       		.uleb128 0x3
 3713 0b17 A70A0000 		.4byte	.LASF187
 3714 0b1b 13       		.byte	0x13
 3715 0b1c 53       		.byte	0x53
 3716 0b1d AD0A0000 		.4byte	0xaad
 3717 0b21 14       		.uleb128 0x14
 3718 0b22 20       		.byte	0x20
 3719 0b23 13       		.byte	0x13
 3720 0b24 58       		.byte	0x58
 3721 0b25 8A0B0000 		.4byte	0xb8a
 3722 0b29 0C       		.uleb128 0xc
 3723 0b2a 08030000 		.4byte	.LASF188
 3724 0b2e 13       		.byte	0x13
 3725 0b2f 59       		.byte	0x59
 3726 0b30 10010000 		.4byte	0x110
 3727 0b34 00       		.byte	0
 3728 0b35 0C       		.uleb128 0xc
 3729 0b36 6B000000 		.4byte	.LASF181
 3730 0b3a 13       		.byte	0x13
 3731 0b3b 5B       		.byte	0x5b
 3732 0b3c 10010000 		.4byte	0x110
 3733 0b40 04       		.byte	0x4
 3734 0b41 0C       		.uleb128 0xc
 3735 0b42 68030000 		.4byte	.LASF189
 3736 0b46 13       		.byte	0x13
 3737 0b47 5C       		.byte	0x5c
 3738 0b48 10010000 		.4byte	0x110
 3739 0b4c 08       		.byte	0x8
ARM GAS  /tmp/cc1C8LBe.s 			page 67


 3740 0b4d 0C       		.uleb128 0xc
 3741 0b4e 82000000 		.4byte	.LASF183
 3742 0b52 13       		.byte	0x13
 3743 0b53 5E       		.byte	0x5e
 3744 0b54 10010000 		.4byte	0x110
 3745 0b58 0C       		.byte	0xc
 3746 0b59 0C       		.uleb128 0xc
 3747 0b5a 7B080000 		.4byte	.LASF190
 3748 0b5e 13       		.byte	0x13
 3749 0b5f 5F       		.byte	0x5f
 3750 0b60 10010000 		.4byte	0x110
 3751 0b64 10       		.byte	0x10
 3752 0b65 0C       		.uleb128 0xc
 3753 0b66 F90B0000 		.4byte	.LASF176
 3754 0b6a 13       		.byte	0x13
 3755 0b6b 61       		.byte	0x61
 3756 0b6c 10010000 		.4byte	0x110
 3757 0b70 14       		.byte	0x14
 3758 0b71 0C       		.uleb128 0xc
 3759 0b72 010C0000 		.4byte	.LASF177
 3760 0b76 13       		.byte	0x13
 3761 0b77 62       		.byte	0x62
 3762 0b78 10010000 		.4byte	0x110
 3763 0b7c 18       		.byte	0x18
 3764 0b7d 0C       		.uleb128 0xc
 3765 0b7e 190C0000 		.4byte	.LASF186
 3766 0b82 13       		.byte	0x13
 3767 0b83 63       		.byte	0x63
 3768 0b84 10010000 		.4byte	0x110
 3769 0b88 1C       		.byte	0x1c
 3770 0b89 00       		.byte	0
 3771 0b8a 03       		.uleb128 0x3
 3772 0b8b 42040000 		.4byte	.LASF191
 3773 0b8f 13       		.byte	0x13
 3774 0b90 64       		.byte	0x64
 3775 0b91 210B0000 		.4byte	0xb21
 3776 0b95 1C       		.uleb128 0x1c
 3777 0b96 00100100 		.4byte	0x11000
 3778 0b9a 13       		.byte	0x13
 3779 0b9b 69       		.byte	0x69
 3780 0b9c 720E0000 		.4byte	0xe72
 3781 0ba0 0C       		.uleb128 0xc
 3782 0ba1 5B070000 		.4byte	.LASF192
 3783 0ba5 13       		.byte	0x13
 3784 0ba6 6A       		.byte	0x6a
 3785 0ba7 10010000 		.4byte	0x110
 3786 0bab 00       		.byte	0
 3787 0bac 0C       		.uleb128 0xc
 3788 0bad BD070000 		.4byte	.LASF193
 3789 0bb1 13       		.byte	0x13
 3790 0bb2 6B       		.byte	0x6b
 3791 0bb3 10010000 		.4byte	0x110
 3792 0bb7 04       		.byte	0x4
 3793 0bb8 0C       		.uleb128 0xc
 3794 0bb9 C6060000 		.4byte	.LASF194
 3795 0bbd 13       		.byte	0x13
 3796 0bbe 6C       		.byte	0x6c
ARM GAS  /tmp/cc1C8LBe.s 			page 68


 3797 0bbf 10010000 		.4byte	0x110
 3798 0bc3 08       		.byte	0x8
 3799 0bc4 0C       		.uleb128 0xc
 3800 0bc5 290E0000 		.4byte	.LASF195
 3801 0bc9 13       		.byte	0x13
 3802 0bca 6D       		.byte	0x6d
 3803 0bcb 10010000 		.4byte	0x110
 3804 0bcf 0C       		.byte	0xc
 3805 0bd0 0C       		.uleb128 0xc
 3806 0bd1 9C0C0000 		.4byte	.LASF196
 3807 0bd5 13       		.byte	0x13
 3808 0bd6 6E       		.byte	0x6e
 3809 0bd7 10010000 		.4byte	0x110
 3810 0bdb 10       		.byte	0x10
 3811 0bdc 0C       		.uleb128 0xc
 3812 0bdd A40C0000 		.4byte	.LASF197
 3813 0be1 13       		.byte	0x13
 3814 0be2 6F       		.byte	0x6f
 3815 0be3 10010000 		.4byte	0x110
 3816 0be7 14       		.byte	0x14
 3817 0be8 0C       		.uleb128 0xc
 3818 0be9 1B090000 		.4byte	.LASF198
 3819 0bed 13       		.byte	0x13
 3820 0bee 70       		.byte	0x70
 3821 0bef 10010000 		.4byte	0x110
 3822 0bf3 18       		.byte	0x18
 3823 0bf4 0C       		.uleb128 0xc
 3824 0bf5 88070000 		.4byte	.LASF199
 3825 0bf9 13       		.byte	0x13
 3826 0bfa 71       		.byte	0x71
 3827 0bfb 10010000 		.4byte	0x110
 3828 0bff 1C       		.byte	0x1c
 3829 0c00 0C       		.uleb128 0xc
 3830 0c01 77070000 		.4byte	.LASF200
 3831 0c05 13       		.byte	0x13
 3832 0c06 73       		.byte	0x73
 3833 0c07 10010000 		.4byte	0x110
 3834 0c0b 20       		.byte	0x20
 3835 0c0c 0C       		.uleb128 0xc
 3836 0c0d E9050000 		.4byte	.LASF201
 3837 0c11 13       		.byte	0x13
 3838 0c12 75       		.byte	0x75
 3839 0c13 10010000 		.4byte	0x110
 3840 0c17 24       		.byte	0x24
 3841 0c18 0C       		.uleb128 0xc
 3842 0c19 35020000 		.4byte	.LASF202
 3843 0c1d 13       		.byte	0x13
 3844 0c1e 76       		.byte	0x76
 3845 0c1f 10010000 		.4byte	0x110
 3846 0c23 28       		.byte	0x28
 3847 0c24 0C       		.uleb128 0xc
 3848 0c25 BB0C0000 		.4byte	.LASF203
 3849 0c29 13       		.byte	0x13
 3850 0c2a 78       		.byte	0x78
 3851 0c2b 10010000 		.4byte	0x110
 3852 0c2f 2C       		.byte	0x2c
 3853 0c30 0C       		.uleb128 0xc
ARM GAS  /tmp/cc1C8LBe.s 			page 69


 3854 0c31 F30C0000 		.4byte	.LASF204
 3855 0c35 13       		.byte	0x13
 3856 0c36 7A       		.byte	0x7a
 3857 0c37 10010000 		.4byte	0x110
 3858 0c3b 30       		.byte	0x30
 3859 0c3c 0C       		.uleb128 0xc
 3860 0c3d 050D0000 		.4byte	.LASF205
 3861 0c41 13       		.byte	0x13
 3862 0c42 7B       		.byte	0x7b
 3863 0c43 10010000 		.4byte	0x110
 3864 0c47 34       		.byte	0x34
 3865 0c48 0C       		.uleb128 0xc
 3866 0c49 F2030000 		.4byte	.LASF206
 3867 0c4d 13       		.byte	0x13
 3868 0c4e 7C       		.byte	0x7c
 3869 0c4f 10010000 		.4byte	0x110
 3870 0c53 38       		.byte	0x38
 3871 0c54 13       		.uleb128 0x13
 3872 0c55 43494400 		.ascii	"CID\000"
 3873 0c59 13       		.byte	0x13
 3874 0c5a 7D       		.byte	0x7d
 3875 0c5b 10010000 		.4byte	0x110
 3876 0c5f 3C       		.byte	0x3c
 3877 0c60 0C       		.uleb128 0xc
 3878 0c61 D60D0000 		.4byte	.LASF207
 3879 0c65 13       		.byte	0x13
 3880 0c66 7E       		.byte	0x7e
 3881 0c67 720E0000 		.4byte	0xe72
 3882 0c6b 40       		.byte	0x40
 3883 0c6c 1D       		.uleb128 0x1d
 3884 0c6d FA090000 		.4byte	.LASF208
 3885 0c71 13       		.byte	0x13
 3886 0c72 7F       		.byte	0x7f
 3887 0c73 10010000 		.4byte	0x110
 3888 0c77 0001     		.2byte	0x100
 3889 0c79 1D       		.uleb128 0x1d
 3890 0c7a 36060000 		.4byte	.LASF209
 3891 0c7e 13       		.byte	0x13
 3892 0c7f 81       		.byte	0x81
 3893 0c80 770E0000 		.4byte	0xe77
 3894 0c84 0401     		.2byte	0x104
 3895 0c86 1D       		.uleb128 0x1d
 3896 0c87 3C0E0000 		.4byte	.LASF210
 3897 0c8b 13       		.byte	0x13
 3898 0c8c 83       		.byte	0x83
 3899 0c8d 8C0E0000 		.4byte	0xe8c
 3900 0c91 4001     		.2byte	0x140
 3901 0c93 1D       		.uleb128 0x1d
 3902 0c94 36040000 		.4byte	.LASF211
 3903 0c98 13       		.byte	0x13
 3904 0c99 84       		.byte	0x84
 3905 0c9a 10010000 		.4byte	0x110
 3906 0c9e 0004     		.2byte	0x400
 3907 0ca0 1D       		.uleb128 0x1d
 3908 0ca1 F20D0000 		.4byte	.LASF212
 3909 0ca5 13       		.byte	0x13
 3910 0ca6 85       		.byte	0x85
ARM GAS  /tmp/cc1C8LBe.s 			page 70


 3911 0ca7 10010000 		.4byte	0x110
 3912 0cab 0404     		.2byte	0x404
 3913 0cad 1D       		.uleb128 0x1d
 3914 0cae DB040000 		.4byte	.LASF213
 3915 0cb2 13       		.byte	0x13
 3916 0cb3 86       		.byte	0x86
 3917 0cb4 10010000 		.4byte	0x110
 3918 0cb8 0804     		.2byte	0x408
 3919 0cba 1D       		.uleb128 0x1d
 3920 0cbb 52070000 		.4byte	.LASF214
 3921 0cbf 13       		.byte	0x13
 3922 0cc0 88       		.byte	0x88
 3923 0cc1 10010000 		.4byte	0x110
 3924 0cc5 0C04     		.2byte	0x40c
 3925 0cc7 1D       		.uleb128 0x1d
 3926 0cc8 CE0D0000 		.4byte	.LASF215
 3927 0ccc 13       		.byte	0x13
 3928 0ccd 89       		.byte	0x89
 3929 0cce 10010000 		.4byte	0x110
 3930 0cd2 1004     		.2byte	0x410
 3931 0cd4 1D       		.uleb128 0x1d
 3932 0cd5 93080000 		.4byte	.LASF216
 3933 0cd9 13       		.byte	0x13
 3934 0cda 8B       		.byte	0x8b
 3935 0cdb 10010000 		.4byte	0x110
 3936 0cdf 1404     		.2byte	0x414
 3937 0ce1 1D       		.uleb128 0x1d
 3938 0ce2 FE080000 		.4byte	.LASF217
 3939 0ce6 13       		.byte	0x13
 3940 0ce7 8D       		.byte	0x8d
 3941 0ce8 10010000 		.4byte	0x110
 3942 0cec 1804     		.2byte	0x418
 3943 0cee 1D       		.uleb128 0x1d
 3944 0cef F8070000 		.4byte	.LASF218
 3945 0cf3 13       		.byte	0x13
 3946 0cf4 8F       		.byte	0x8f
 3947 0cf5 A10E0000 		.4byte	0xea1
 3948 0cf9 1C04     		.2byte	0x41c
 3949 0cfb 1D       		.uleb128 0x1d
 3950 0cfc 70040000 		.4byte	.LASF219
 3951 0d00 13       		.byte	0x13
 3952 0d01 90       		.byte	0x90
 3953 0d02 10010000 		.4byte	0x110
 3954 0d06 4004     		.2byte	0x440
 3955 0d08 1D       		.uleb128 0x1d
 3956 0d09 E7080000 		.4byte	.LASF220
 3957 0d0d 13       		.byte	0x13
 3958 0d0e 92       		.byte	0x92
 3959 0d0f B60E0000 		.4byte	0xeb6
 3960 0d13 4404     		.2byte	0x444
 3961 0d15 1E       		.uleb128 0x1e
 3962 0d16 686300   		.ascii	"hc\000"
 3963 0d19 13       		.byte	0x13
 3964 0d1a 93       		.byte	0x93
 3965 0d1b BB0E0000 		.4byte	0xebb
 3966 0d1f 0005     		.2byte	0x500
 3967 0d21 1D       		.uleb128 0x1d
ARM GAS  /tmp/cc1C8LBe.s 			page 71


 3968 0d22 75010000 		.4byte	.LASF221
 3969 0d26 13       		.byte	0x13
 3970 0d27 94       		.byte	0x94
 3971 0d28 DB0E0000 		.4byte	0xedb
 3972 0d2c 0007     		.2byte	0x700
 3973 0d2e 1D       		.uleb128 0x1d
 3974 0d2f DC030000 		.4byte	.LASF222
 3975 0d33 13       		.byte	0x13
 3976 0d34 95       		.byte	0x95
 3977 0d35 10010000 		.4byte	0x110
 3978 0d39 0008     		.2byte	0x800
 3979 0d3b 1D       		.uleb128 0x1d
 3980 0d3c 270A0000 		.4byte	.LASF223
 3981 0d40 13       		.byte	0x13
 3982 0d41 96       		.byte	0x96
 3983 0d42 10010000 		.4byte	0x110
 3984 0d46 0408     		.2byte	0x804
 3985 0d48 1D       		.uleb128 0x1d
 3986 0d49 520D0000 		.4byte	.LASF224
 3987 0d4d 13       		.byte	0x13
 3988 0d4e 97       		.byte	0x97
 3989 0d4f 10010000 		.4byte	0x110
 3990 0d53 0808     		.2byte	0x808
 3991 0d55 1D       		.uleb128 0x1d
 3992 0d56 67040000 		.4byte	.LASF225
 3993 0d5a 13       		.byte	0x13
 3994 0d5b 98       		.byte	0x98
 3995 0d5c 10010000 		.4byte	0x110
 3996 0d60 0C08     		.2byte	0x80c
 3997 0d62 1D       		.uleb128 0x1d
 3998 0d63 210C0000 		.4byte	.LASF226
 3999 0d67 13       		.byte	0x13
 4000 0d68 99       		.byte	0x99
 4001 0d69 10010000 		.4byte	0x110
 4002 0d6d 1008     		.2byte	0x810
 4003 0d6f 1D       		.uleb128 0x1d
 4004 0d70 DF020000 		.4byte	.LASF227
 4005 0d74 13       		.byte	0x13
 4006 0d75 9B       		.byte	0x9b
 4007 0d76 10010000 		.4byte	0x110
 4008 0d7a 1408     		.2byte	0x814
 4009 0d7c 1D       		.uleb128 0x1d
 4010 0d7d C3020000 		.4byte	.LASF228
 4011 0d81 13       		.byte	0x13
 4012 0d82 9D       		.byte	0x9d
 4013 0d83 10010000 		.4byte	0x110
 4014 0d87 1808     		.2byte	0x818
 4015 0d89 1D       		.uleb128 0x1d
 4016 0d8a 950A0000 		.4byte	.LASF229
 4017 0d8e 13       		.byte	0x13
 4018 0d8f 9F       		.byte	0x9f
 4019 0d90 10010000 		.4byte	0x110
 4020 0d94 1C08     		.2byte	0x81c
 4021 0d96 1D       		.uleb128 0x1d
 4022 0d97 2A050000 		.4byte	.LASF230
 4023 0d9b 13       		.byte	0x13
 4024 0d9c A1       		.byte	0xa1
ARM GAS  /tmp/cc1C8LBe.s 			page 72


 4025 0d9d 10010000 		.4byte	0x110
 4026 0da1 2008     		.2byte	0x820
 4027 0da3 1D       		.uleb128 0x1d
 4028 0da4 33050000 		.4byte	.LASF231
 4029 0da8 13       		.byte	0x13
 4030 0da9 A2       		.byte	0xa2
 4031 0daa 10010000 		.4byte	0x110
 4032 0dae 2408     		.2byte	0x824
 4033 0db0 1D       		.uleb128 0x1d
 4034 0db1 9E0A0000 		.4byte	.LASF232
 4035 0db5 13       		.byte	0x13
 4036 0db6 A3       		.byte	0xa3
 4037 0db7 10010000 		.4byte	0x110
 4038 0dbb 2808     		.2byte	0x828
 4039 0dbd 1D       		.uleb128 0x1d
 4040 0dbe 3C050000 		.4byte	.LASF233
 4041 0dc2 13       		.byte	0x13
 4042 0dc3 A5       		.byte	0xa5
 4043 0dc4 10010000 		.4byte	0x110
 4044 0dc8 2C08     		.2byte	0x82c
 4045 0dca 1D       		.uleb128 0x1d
 4046 0dcb 19080000 		.4byte	.LASF234
 4047 0dcf 13       		.byte	0x13
 4048 0dd0 A7       		.byte	0xa7
 4049 0dd1 10010000 		.4byte	0x110
 4050 0dd5 3008     		.2byte	0x830
 4051 0dd7 1D       		.uleb128 0x1d
 4052 0dd8 400C0000 		.4byte	.LASF235
 4053 0ddc 13       		.byte	0x13
 4054 0ddd A8       		.byte	0xa8
 4055 0dde 10010000 		.4byte	0x110
 4056 0de2 3408     		.2byte	0x834
 4057 0de4 1D       		.uleb128 0x1d
 4058 0de5 22080000 		.4byte	.LASF236
 4059 0de9 13       		.byte	0x13
 4060 0dea AA       		.byte	0xaa
 4061 0deb 10010000 		.4byte	0x110
 4062 0def 3808     		.2byte	0x838
 4063 0df1 1D       		.uleb128 0x1d
 4064 0df2 51080000 		.4byte	.LASF237
 4065 0df6 13       		.byte	0x13
 4066 0df7 AB       		.byte	0xab
 4067 0df8 10010000 		.4byte	0x110
 4068 0dfc 3C08     		.2byte	0x83c
 4069 0dfe 1D       		.uleb128 0x1d
 4070 0dff 22060000 		.4byte	.LASF238
 4071 0e03 13       		.byte	0x13
 4072 0e04 AC       		.byte	0xac
 4073 0e05 F00E0000 		.4byte	0xef0
 4074 0e09 4008     		.2byte	0x840
 4075 0e0b 1D       		.uleb128 0x1d
 4076 0e0c 3B080000 		.4byte	.LASF239
 4077 0e10 13       		.byte	0x13
 4078 0e11 AD       		.byte	0xad
 4079 0e12 F50E0000 		.4byte	0xef5
 4080 0e16 8008     		.2byte	0x880
 4081 0e18 1D       		.uleb128 0x1d
ARM GAS  /tmp/cc1C8LBe.s 			page 73


 4082 0e19 E1030000 		.4byte	.LASF240
 4083 0e1d 13       		.byte	0x13
 4084 0e1e AE       		.byte	0xae
 4085 0e1f FA0E0000 		.4byte	0xefa
 4086 0e23 C008     		.2byte	0x8c0
 4087 0e25 1E       		.uleb128 0x1e
 4088 0e26 696500   		.ascii	"ie\000"
 4089 0e29 13       		.byte	0x13
 4090 0e2a AF       		.byte	0xaf
 4091 0e2b FF0E0000 		.4byte	0xeff
 4092 0e2f 0009     		.2byte	0x900
 4093 0e31 1E       		.uleb128 0x1e
 4094 0e32 6F6500   		.ascii	"oe\000"
 4095 0e35 13       		.byte	0x13
 4096 0e36 B0       		.byte	0xb0
 4097 0e37 0F0F0000 		.4byte	0xf0f
 4098 0e3b 000B     		.2byte	0xb00
 4099 0e3d 1D       		.uleb128 0x1d
 4100 0e3e DA090000 		.4byte	.LASF241
 4101 0e42 13       		.byte	0x13
 4102 0e43 B1       		.byte	0xb1
 4103 0e44 1F0F0000 		.4byte	0xf1f
 4104 0e48 000D     		.2byte	0xd00
 4105 0e4a 1D       		.uleb128 0x1d
 4106 0e4b A1070000 		.4byte	.LASF242
 4107 0e4f 13       		.byte	0x13
 4108 0e50 B2       		.byte	0xb2
 4109 0e51 10010000 		.4byte	0x110
 4110 0e55 000E     		.2byte	0xe00
 4111 0e57 1D       		.uleb128 0x1d
 4112 0e58 EA0C0000 		.4byte	.LASF243
 4113 0e5c 13       		.byte	0x13
 4114 0e5d B4       		.byte	0xb4
 4115 0e5e 340F0000 		.4byte	0xf34
 4116 0e62 040E     		.2byte	0xe04
 4117 0e64 1D       		.uleb128 0x1d
 4118 0e65 190B0000 		.4byte	.LASF244
 4119 0e69 13       		.byte	0x13
 4120 0e6a B5       		.byte	0xb5
 4121 0e6b 500F0000 		.4byte	0xf50
 4122 0e6f 0010     		.2byte	0x1000
 4123 0e71 00       		.byte	0
 4124 0e72 0A       		.uleb128 0xa
 4125 0e73 9C040000 		.4byte	0x49c
 4126 0e77 0A       		.uleb128 0xa
 4127 0e78 8C040000 		.4byte	0x48c
 4128 0e7c 08       		.uleb128 0x8
 4129 0e7d F5000000 		.4byte	0xf5
 4130 0e81 8C0E0000 		.4byte	0xe8c
 4131 0e85 09       		.uleb128 0x9
 4132 0e86 A9000000 		.4byte	0xa9
 4133 0e8a AF       		.byte	0xaf
 4134 0e8b 00       		.byte	0
 4135 0e8c 0A       		.uleb128 0xa
 4136 0e8d 7C0E0000 		.4byte	0xe7c
 4137 0e91 08       		.uleb128 0x8
 4138 0e92 F5000000 		.4byte	0xf5
ARM GAS  /tmp/cc1C8LBe.s 			page 74


 4139 0e96 A10E0000 		.4byte	0xea1
 4140 0e9a 09       		.uleb128 0x9
 4141 0e9b A9000000 		.4byte	0xa9
 4142 0e9f 08       		.byte	0x8
 4143 0ea0 00       		.byte	0
 4144 0ea1 0A       		.uleb128 0xa
 4145 0ea2 910E0000 		.4byte	0xe91
 4146 0ea6 08       		.uleb128 0x8
 4147 0ea7 F5000000 		.4byte	0xf5
 4148 0eab B60E0000 		.4byte	0xeb6
 4149 0eaf 09       		.uleb128 0x9
 4150 0eb0 A9000000 		.4byte	0xa9
 4151 0eb4 2E       		.byte	0x2e
 4152 0eb5 00       		.byte	0
 4153 0eb6 0A       		.uleb128 0xa
 4154 0eb7 A60E0000 		.4byte	0xea6
 4155 0ebb 08       		.uleb128 0x8
 4156 0ebc A20A0000 		.4byte	0xaa2
 4157 0ec0 CB0E0000 		.4byte	0xecb
 4158 0ec4 09       		.uleb128 0x9
 4159 0ec5 A9000000 		.4byte	0xa9
 4160 0ec9 0F       		.byte	0xf
 4161 0eca 00       		.byte	0
 4162 0ecb 08       		.uleb128 0x8
 4163 0ecc F5000000 		.4byte	0xf5
 4164 0ed0 DB0E0000 		.4byte	0xedb
 4165 0ed4 09       		.uleb128 0x9
 4166 0ed5 A9000000 		.4byte	0xa9
 4167 0ed9 3F       		.byte	0x3f
 4168 0eda 00       		.byte	0
 4169 0edb 0A       		.uleb128 0xa
 4170 0edc CB0E0000 		.4byte	0xecb
 4171 0ee0 08       		.uleb128 0x8
 4172 0ee1 F5000000 		.4byte	0xf5
 4173 0ee5 F00E0000 		.4byte	0xef0
 4174 0ee9 09       		.uleb128 0x9
 4175 0eea A9000000 		.4byte	0xa9
 4176 0eee 0F       		.byte	0xf
 4177 0eef 00       		.byte	0
 4178 0ef0 0A       		.uleb128 0xa
 4179 0ef1 E00E0000 		.4byte	0xee0
 4180 0ef5 0A       		.uleb128 0xa
 4181 0ef6 E00E0000 		.4byte	0xee0
 4182 0efa 0A       		.uleb128 0xa
 4183 0efb E00E0000 		.4byte	0xee0
 4184 0eff 08       		.uleb128 0x8
 4185 0f00 160B0000 		.4byte	0xb16
 4186 0f04 0F0F0000 		.4byte	0xf0f
 4187 0f08 09       		.uleb128 0x9
 4188 0f09 A9000000 		.4byte	0xa9
 4189 0f0d 0F       		.byte	0xf
 4190 0f0e 00       		.byte	0
 4191 0f0f 08       		.uleb128 0x8
 4192 0f10 8A0B0000 		.4byte	0xb8a
 4193 0f14 1F0F0000 		.4byte	0xf1f
 4194 0f18 09       		.uleb128 0x9
 4195 0f19 A9000000 		.4byte	0xa9
ARM GAS  /tmp/cc1C8LBe.s 			page 75


 4196 0f1d 0F       		.byte	0xf
 4197 0f1e 00       		.byte	0
 4198 0f1f 0A       		.uleb128 0xa
 4199 0f20 CB0E0000 		.4byte	0xecb
 4200 0f24 08       		.uleb128 0x8
 4201 0f25 F5000000 		.4byte	0xf5
 4202 0f29 340F0000 		.4byte	0xf34
 4203 0f2d 09       		.uleb128 0x9
 4204 0f2e A9000000 		.4byte	0xa9
 4205 0f32 7E       		.byte	0x7e
 4206 0f33 00       		.byte	0
 4207 0f34 0A       		.uleb128 0xa
 4208 0f35 240F0000 		.4byte	0xf24
 4209 0f39 08       		.uleb128 0x8
 4210 0f3a F5000000 		.4byte	0xf5
 4211 0f3e 500F0000 		.4byte	0xf50
 4212 0f42 09       		.uleb128 0x9
 4213 0f43 A9000000 		.4byte	0xa9
 4214 0f47 0F       		.byte	0xf
 4215 0f48 1F       		.uleb128 0x1f
 4216 0f49 A9000000 		.4byte	0xa9
 4217 0f4d FF03     		.2byte	0x3ff
 4218 0f4f 00       		.byte	0
 4219 0f50 0A       		.uleb128 0xa
 4220 0f51 390F0000 		.4byte	0xf39
 4221 0f55 03       		.uleb128 0x3
 4222 0f56 CA080000 		.4byte	.LASF245
 4223 0f5a 13       		.byte	0x13
 4224 0f5b B6       		.byte	0xb6
 4225 0f5c 950B0000 		.4byte	0xb95
 4226 0f60 14       		.uleb128 0x14
 4227 0f61 0C       		.byte	0xc
 4228 0f62 12       		.byte	0x12
 4229 0f63 CF       		.byte	0xcf
 4230 0f64 8D0F0000 		.4byte	0xf8d
 4231 0f68 0C       		.uleb128 0xc
 4232 0f69 C50B0000 		.4byte	.LASF246
 4233 0f6d 12       		.byte	0x12
 4234 0f6e D0       		.byte	0xd0
 4235 0f6f F5000000 		.4byte	0xf5
 4236 0f73 00       		.byte	0
 4237 0f74 0C       		.uleb128 0xc
 4238 0f75 C70A0000 		.4byte	.LASF247
 4239 0f79 12       		.byte	0x12
 4240 0f7a D1       		.byte	0xd1
 4241 0f7b F5000000 		.4byte	0xf5
 4242 0f7f 04       		.byte	0x4
 4243 0f80 0C       		.uleb128 0xc
 4244 0f81 F7060000 		.4byte	.LASF248
 4245 0f85 12       		.byte	0x12
 4246 0f86 D2       		.byte	0xd2
 4247 0f87 F5000000 		.4byte	0xf5
 4248 0f8b 08       		.byte	0x8
 4249 0f8c 00       		.byte	0
 4250 0f8d 03       		.uleb128 0x3
 4251 0f8e 82050000 		.4byte	.LASF249
 4252 0f92 12       		.byte	0x12
ARM GAS  /tmp/cc1C8LBe.s 			page 76


 4253 0f93 D3       		.byte	0xd3
 4254 0f94 600F0000 		.4byte	0xf60
 4255 0f98 14       		.uleb128 0x14
 4256 0f99 04       		.byte	0x4
 4257 0f9a 12       		.byte	0x12
 4258 0f9b E6       		.byte	0xe6
 4259 0f9c AD0F0000 		.4byte	0xfad
 4260 0fa0 0C       		.uleb128 0xc
 4261 0fa1 B4020000 		.4byte	.LASF250
 4262 0fa5 12       		.byte	0x12
 4263 0fa6 EA       		.byte	0xea
 4264 0fa7 28070000 		.4byte	0x728
 4265 0fab 00       		.byte	0
 4266 0fac 00       		.byte	0
 4267 0fad 14       		.uleb128 0x14
 4268 0fae 04       		.byte	0x4
 4269 0faf 12       		.byte	0x12
 4270 0fb0 EC       		.byte	0xec
 4271 0fb1 C20F0000 		.4byte	0xfc2
 4272 0fb5 0C       		.uleb128 0xc
 4273 0fb6 110C0000 		.4byte	.LASF251
 4274 0fba 12       		.byte	0x12
 4275 0fbb F0       		.byte	0xf0
 4276 0fbc C20F0000 		.4byte	0xfc2
 4277 0fc0 00       		.byte	0
 4278 0fc1 00       		.byte	0
 4279 0fc2 06       		.uleb128 0x6
 4280 0fc3 04       		.byte	0x4
 4281 0fc4 1D070000 		.4byte	0x71d
 4282 0fc8 15       		.uleb128 0x15
 4283 0fc9 04       		.byte	0x4
 4284 0fca 12       		.byte	0x12
 4285 0fcb E5       		.byte	0xe5
 4286 0fcc E70F0000 		.4byte	0xfe7
 4287 0fd0 20       		.uleb128 0x20
 4288 0fd1 1A0A0000 		.4byte	.LASF252
 4289 0fd5 12       		.byte	0x12
 4290 0fd6 EB       		.byte	0xeb
 4291 0fd7 980F0000 		.4byte	0xf98
 4292 0fdb 20       		.uleb128 0x20
 4293 0fdc 7C0A0000 		.4byte	.LASF253
 4294 0fe0 12       		.byte	0x12
 4295 0fe1 F1       		.byte	0xf1
 4296 0fe2 AD0F0000 		.4byte	0xfad
 4297 0fe6 00       		.byte	0
 4298 0fe7 14       		.uleb128 0x14
 4299 0fe8 14       		.byte	0x14
 4300 0fe9 12       		.byte	0x12
 4301 0fea D8       		.byte	0xd8
 4302 0feb 2C100000 		.4byte	0x102c
 4303 0fef 0C       		.uleb128 0xc
 4304 0ff0 200E0000 		.4byte	.LASF254
 4305 0ff4 12       		.byte	0x12
 4306 0ff5 DC       		.byte	0xdc
 4307 0ff6 33070000 		.4byte	0x733
 4308 0ffa 00       		.byte	0
 4309 0ffb 0C       		.uleb128 0xc
ARM GAS  /tmp/cc1C8LBe.s 			page 77


 4310 0ffc 2A070000 		.4byte	.LASF255
 4311 1000 12       		.byte	0x12
 4312 1001 E0       		.byte	0xe0
 4313 1002 28000000 		.4byte	0x28
 4314 1006 04       		.byte	0x4
 4315 1007 0C       		.uleb128 0xc
 4316 1008 73020000 		.4byte	.LASF256
 4317 100c 12       		.byte	0x12
 4318 100d E4       		.byte	0xe4
 4319 100e 28000000 		.4byte	0x28
 4320 1012 08       		.byte	0x8
 4321 1013 0C       		.uleb128 0xc
 4322 1014 DB0B0000 		.4byte	.LASF257
 4323 1018 12       		.byte	0x12
 4324 1019 F2       		.byte	0xf2
 4325 101a C80F0000 		.4byte	0xfc8
 4326 101e 0C       		.byte	0xc
 4327 101f 0C       		.uleb128 0xc
 4328 1020 BD0B0000 		.4byte	.LASF258
 4329 1024 12       		.byte	0x12
 4330 1025 F6       		.byte	0xf6
 4331 1026 28000000 		.4byte	0x28
 4332 102a 10       		.byte	0x10
 4333 102b 00       		.byte	0
 4334 102c 03       		.uleb128 0x3
 4335 102d 17050000 		.4byte	.LASF259
 4336 1031 12       		.byte	0x12
 4337 1032 F7       		.byte	0xf7
 4338 1033 E70F0000 		.4byte	0xfe7
 4339 1037 1A       		.uleb128 0x1a
 4340 1038 04       		.byte	0x4
 4341 1039 12       		.byte	0x12
 4342 103a 0A01     		.2byte	0x10a
 4343 103c 4E100000 		.4byte	0x104e
 4344 1040 0E       		.uleb128 0xe
 4345 1041 71070000 		.4byte	.LASF260
 4346 1045 12       		.byte	0x12
 4347 1046 0E01     		.2byte	0x10e
 4348 1048 0C070000 		.4byte	0x70c
 4349 104c 00       		.byte	0
 4350 104d 00       		.byte	0
 4351 104e 1A       		.uleb128 0x1a
 4352 104f 04       		.byte	0x4
 4353 1050 12       		.byte	0x12
 4354 1051 1001     		.2byte	0x110
 4355 1053 65100000 		.4byte	0x1065
 4356 1057 0E       		.uleb128 0xe
 4357 1058 820A0000 		.4byte	.LASF261
 4358 105c 12       		.byte	0x12
 4359 105d 1401     		.2byte	0x114
 4360 105f 65100000 		.4byte	0x1065
 4361 1063 00       		.byte	0
 4362 1064 00       		.byte	0
 4363 1065 06       		.uleb128 0x6
 4364 1066 04       		.byte	0x4
 4365 1067 12070000 		.4byte	0x712
 4366 106b 21       		.uleb128 0x21
ARM GAS  /tmp/cc1C8LBe.s 			page 78


 4367 106c 04       		.byte	0x4
 4368 106d 12       		.byte	0x12
 4369 106e 0901     		.2byte	0x109
 4370 1070 8D100000 		.4byte	0x108d
 4371 1074 16       		.uleb128 0x16
 4372 1075 1A0A0000 		.4byte	.LASF252
 4373 1079 12       		.byte	0x12
 4374 107a 0F01     		.2byte	0x10f
 4375 107c 37100000 		.4byte	0x1037
 4376 1080 16       		.uleb128 0x16
 4377 1081 7C0A0000 		.4byte	.LASF253
 4378 1085 12       		.byte	0x12
 4379 1086 1501     		.2byte	0x115
 4380 1088 4E100000 		.4byte	0x104e
 4381 108c 00       		.byte	0
 4382 108d 14       		.uleb128 0x14
 4383 108e 14       		.byte	0x14
 4384 108f 12       		.byte	0x12
 4385 1090 FC       		.byte	0xfc
 4386 1091 D7100000 		.4byte	0x10d7
 4387 1095 0E       		.uleb128 0xe
 4388 1096 580A0000 		.4byte	.LASF262
 4389 109a 12       		.byte	0x12
 4390 109b 0001     		.2byte	0x100
 4391 109d 33070000 		.4byte	0x733
 4392 10a1 00       		.byte	0
 4393 10a2 0E       		.uleb128 0xe
 4394 10a3 84030000 		.4byte	.LASF263
 4395 10a7 12       		.byte	0x12
 4396 10a8 0401     		.2byte	0x104
 4397 10aa 28000000 		.4byte	0x28
 4398 10ae 04       		.byte	0x4
 4399 10af 0E       		.uleb128 0xe
 4400 10b0 31070000 		.4byte	.LASF264
 4401 10b4 12       		.byte	0x12
 4402 10b5 0801     		.2byte	0x108
 4403 10b7 28000000 		.4byte	0x28
 4404 10bb 08       		.byte	0x8
 4405 10bc 0E       		.uleb128 0xe
 4406 10bd DB0B0000 		.4byte	.LASF257
 4407 10c1 12       		.byte	0x12
 4408 10c2 1601     		.2byte	0x116
 4409 10c4 6B100000 		.4byte	0x106b
 4410 10c8 0C       		.byte	0xc
 4411 10c9 0E       		.uleb128 0xe
 4412 10ca BD0B0000 		.4byte	.LASF258
 4413 10ce 12       		.byte	0x12
 4414 10cf 1A01     		.2byte	0x11a
 4415 10d1 28000000 		.4byte	0x28
 4416 10d5 10       		.byte	0x10
 4417 10d6 00       		.byte	0
 4418 10d7 19       		.uleb128 0x19
 4419 10d8 BE090000 		.4byte	.LASF265
 4420 10dc 12       		.byte	0x12
 4421 10dd 1B01     		.2byte	0x11b
 4422 10df 8D100000 		.4byte	0x108d
 4423 10e3 1A       		.uleb128 0x1a
ARM GAS  /tmp/cc1C8LBe.s 			page 79


 4424 10e4 24       		.byte	0x24
 4425 10e5 12       		.byte	0x12
 4426 10e6 2101     		.2byte	0x121
 4427 10e8 6F110000 		.4byte	0x116f
 4428 10ec 0E       		.uleb128 0xe
 4429 10ed 8B010000 		.4byte	.LASF266
 4430 10f1 12       		.byte	0x12
 4431 10f2 2501     		.2byte	0x125
 4432 10f4 F5000000 		.4byte	0xf5
 4433 10f8 00       		.byte	0
 4434 10f9 0E       		.uleb128 0xe
 4435 10fa A2040000 		.4byte	.LASF267
 4436 10fe 12       		.byte	0x12
 4437 10ff 3001     		.2byte	0x130
 4438 1101 99090000 		.4byte	0x999
 4439 1105 04       		.byte	0x4
 4440 1106 0E       		.uleb128 0xe
 4441 1107 B5040000 		.4byte	.LASF268
 4442 110b 12       		.byte	0x12
 4443 110c 3601     		.2byte	0x136
 4444 110e 99090000 		.4byte	0x999
 4445 1112 08       		.byte	0x8
 4446 1113 0E       		.uleb128 0xe
 4447 1114 F0080000 		.4byte	.LASF269
 4448 1118 12       		.byte	0x12
 4449 1119 3C01     		.2byte	0x13c
 4450 111b 99090000 		.4byte	0x999
 4451 111f 0C       		.byte	0xc
 4452 1120 0E       		.uleb128 0xe
 4453 1121 10090000 		.4byte	.LASF270
 4454 1125 12       		.byte	0x12
 4455 1126 4201     		.2byte	0x142
 4456 1128 DF000000 		.4byte	0xdf
 4457 112c 10       		.byte	0x10
 4458 112d 0E       		.uleb128 0xe
 4459 112e D40A0000 		.4byte	.LASF271
 4460 1132 12       		.byte	0x12
 4461 1133 4801     		.2byte	0x148
 4462 1135 DF000000 		.4byte	0xdf
 4463 1139 12       		.byte	0x12
 4464 113a 0E       		.uleb128 0xe
 4465 113b 7F070000 		.4byte	.LASF272
 4466 113f 12       		.byte	0x12
 4467 1140 4D01     		.2byte	0x14d
 4468 1142 6F110000 		.4byte	0x116f
 4469 1146 14       		.byte	0x14
 4470 1147 0E       		.uleb128 0xe
 4471 1148 23090000 		.4byte	.LASF273
 4472 114c 12       		.byte	0x12
 4473 114d 5201     		.2byte	0x152
 4474 114f 75110000 		.4byte	0x1175
 4475 1153 18       		.byte	0x18
 4476 1154 0E       		.uleb128 0xe
 4477 1155 E4060000 		.4byte	.LASF274
 4478 1159 12       		.byte	0x12
 4479 115a 5901     		.2byte	0x159
 4480 115c DF000000 		.4byte	0xdf
ARM GAS  /tmp/cc1C8LBe.s 			page 80


 4481 1160 1C       		.byte	0x1c
 4482 1161 0E       		.uleb128 0xe
 4483 1162 DD080000 		.4byte	.LASF275
 4484 1166 12       		.byte	0x12
 4485 1167 5F01     		.2byte	0x15f
 4486 1169 0C070000 		.4byte	0x70c
 4487 116d 20       		.byte	0x20
 4488 116e 00       		.byte	0
 4489 116f 06       		.uleb128 0x6
 4490 1170 04       		.byte	0x4
 4491 1171 2C100000 		.4byte	0x102c
 4492 1175 06       		.uleb128 0x6
 4493 1176 04       		.byte	0x4
 4494 1177 D7100000 		.4byte	0x10d7
 4495 117b 19       		.uleb128 0x19
 4496 117c 3D0A0000 		.4byte	.LASF276
 4497 1180 12       		.byte	0x12
 4498 1181 6001     		.2byte	0x160
 4499 1183 E3100000 		.4byte	0x10e3
 4500 1187 1A       		.uleb128 0x1a
 4501 1188 10       		.byte	0x10
 4502 1189 12       		.byte	0x12
 4503 118a 6501     		.2byte	0x165
 4504 118c C5110000 		.4byte	0x11c5
 4505 1190 0E       		.uleb128 0xe
 4506 1191 B4070000 		.4byte	.LASF277
 4507 1195 12       		.byte	0x12
 4508 1196 6A01     		.2byte	0x16a
 4509 1198 BB090000 		.4byte	0x9bb
 4510 119c 00       		.byte	0
 4511 119d 0E       		.uleb128 0xe
 4512 119e 570D0000 		.4byte	.LASF278
 4513 11a2 12       		.byte	0x12
 4514 11a3 6F01     		.2byte	0x16f
 4515 11a5 FE090000 		.4byte	0x9fe
 4516 11a9 04       		.byte	0x4
 4517 11aa 0E       		.uleb128 0xe
 4518 11ab 19040000 		.4byte	.LASF279
 4519 11af 12       		.byte	0x12
 4520 11b0 7501     		.2byte	0x175
 4521 11b2 DD090000 		.4byte	0x9dd
 4522 11b6 08       		.byte	0x8
 4523 11b7 0E       		.uleb128 0xe
 4524 11b8 E30C0000 		.4byte	.LASF280
 4525 11bc 12       		.byte	0x12
 4526 11bd 7901     		.2byte	0x179
 4527 11bf 76090000 		.4byte	0x976
 4528 11c3 0C       		.byte	0xc
 4529 11c4 00       		.byte	0
 4530 11c5 19       		.uleb128 0x19
 4531 11c6 A6080000 		.4byte	.LASF281
 4532 11ca 12       		.byte	0x12
 4533 11cb 7B01     		.2byte	0x17b
 4534 11cd 87110000 		.4byte	0x1187
 4535 11d1 06       		.uleb128 0x6
 4536 11d2 04       		.byte	0x4
 4537 11d3 D7110000 		.4byte	0x11d7
ARM GAS  /tmp/cc1C8LBe.s 			page 81


 4538 11d7 07       		.uleb128 0x7
 4539 11d8 C5110000 		.4byte	0x11c5
 4540 11dc 08       		.uleb128 0x8
 4541 11dd EC110000 		.4byte	0x11ec
 4542 11e1 EC110000 		.4byte	0x11ec
 4543 11e5 09       		.uleb128 0x9
 4544 11e6 A9000000 		.4byte	0xa9
 4545 11ea 03       		.byte	0x3
 4546 11eb 00       		.byte	0
 4547 11ec 06       		.uleb128 0x6
 4548 11ed 04       		.byte	0x4
 4549 11ee F2110000 		.4byte	0x11f2
 4550 11f2 07       		.uleb128 0x7
 4551 11f3 7B110000 		.4byte	0x117b
 4552 11f7 08       		.uleb128 0x8
 4553 11f8 B0000000 		.4byte	0xb0
 4554 11fc 07120000 		.4byte	0x1207
 4555 1200 09       		.uleb128 0x9
 4556 1201 A9000000 		.4byte	0xa9
 4557 1205 02       		.byte	0x2
 4558 1206 00       		.byte	0
 4559 1207 08       		.uleb128 0x8
 4560 1208 D4000000 		.4byte	0xd4
 4561 120c 17120000 		.4byte	0x1217
 4562 1210 09       		.uleb128 0x9
 4563 1211 A9000000 		.4byte	0xa9
 4564 1215 07       		.byte	0x7
 4565 1216 00       		.byte	0
 4566 1217 06       		.uleb128 0x6
 4567 1218 04       		.byte	0x4
 4568 1219 550F0000 		.4byte	0xf55
 4569 121d 06       		.uleb128 0x6
 4570 121e 04       		.byte	0x4
 4571 121f 23120000 		.4byte	0x1223
 4572 1223 07       		.uleb128 0x7
 4573 1224 8D0F0000 		.4byte	0xf8d
 4574 1228 08       		.uleb128 0x8
 4575 1229 B7040000 		.4byte	0x4b7
 4576 122d 38120000 		.4byte	0x1238
 4577 1231 09       		.uleb128 0x9
 4578 1232 A9000000 		.4byte	0xa9
 4579 1236 28       		.byte	0x28
 4580 1237 00       		.byte	0
 4581 1238 22       		.uleb128 0x22
 4582 1239 B90A0000 		.4byte	.LASF323
 4583 123d 02       		.byte	0x2
 4584 123e 2202     		.2byte	0x222
 4585 1240 03       		.byte	0x3
 4586 1241 52120000 		.4byte	0x1252
 4587 1245 23       		.uleb128 0x23
 4588 1246 30040000 		.4byte	.LASF324
 4589 124a 02       		.byte	0x2
 4590 124b 2202     		.2byte	0x222
 4591 124d F5000000 		.4byte	0xf5
 4592 1251 00       		.byte	0
 4593 1252 24       		.uleb128 0x24
 4594 1253 8F0B0000 		.4byte	.LASF282
ARM GAS  /tmp/cc1C8LBe.s 			page 82


 4595 1257 01       		.byte	0x1
 4596 1258 C801     		.2byte	0x1c8
 4597 125a 00000000 		.4byte	.LFB127
 4598 125e 10000000 		.4byte	.LFE127-.LFB127
 4599 1262 01       		.uleb128 0x1
 4600 1263 9C       		.byte	0x9c
 4601 1264 82120000 		.4byte	0x1282
 4602 1268 25       		.uleb128 0x25
 4603 1269 38120000 		.4byte	0x1238
 4604 126d 06000000 		.4byte	.LBB6
 4605 1271 06000000 		.4byte	.LBE6-.LBB6
 4606 1275 01       		.byte	0x1
 4607 1276 CB01     		.2byte	0x1cb
 4608 1278 26       		.uleb128 0x26
 4609 1279 45120000 		.4byte	0x1245
 4610 127d 02       		.uleb128 0x2
 4611 127e 91       		.byte	0x91
 4612 127f 7C       		.sleb128 -4
 4613 1280 00       		.byte	0
 4614 1281 00       		.byte	0
 4615 1282 24       		.uleb128 0x24
 4616 1283 5F020000 		.4byte	.LASF283
 4617 1287 01       		.byte	0x1
 4618 1288 D601     		.2byte	0x1d6
 4619 128a 00000000 		.4byte	.LFB128
 4620 128e 10000000 		.4byte	.LFE128-.LFB128
 4621 1292 01       		.uleb128 0x1
 4622 1293 9C       		.byte	0x9c
 4623 1294 B2120000 		.4byte	0x12b2
 4624 1298 25       		.uleb128 0x25
 4625 1299 38120000 		.4byte	0x1238
 4626 129d 06000000 		.4byte	.LBB8
 4627 12a1 06000000 		.4byte	.LBE8-.LBB8
 4628 12a5 01       		.byte	0x1
 4629 12a6 D901     		.2byte	0x1d9
 4630 12a8 26       		.uleb128 0x26
 4631 12a9 45120000 		.4byte	0x1245
 4632 12ad 02       		.uleb128 0x2
 4633 12ae 91       		.byte	0x91
 4634 12af 7C       		.sleb128 -4
 4635 12b0 00       		.byte	0
 4636 12b1 00       		.byte	0
 4637 12b2 27       		.uleb128 0x27
 4638 12b3 E5070000 		.4byte	.LASF284
 4639 12b7 01       		.byte	0x1
 4640 12b8 E501     		.2byte	0x1e5
 4641 12ba 00000000 		.4byte	.LFB129
 4642 12be 08000000 		.4byte	.LFE129-.LFB129
 4643 12c2 01       		.uleb128 0x1
 4644 12c3 9C       		.byte	0x9c
 4645 12c4 27       		.uleb128 0x27
 4646 12c5 7E090000 		.4byte	.LASF285
 4647 12c9 01       		.byte	0x1
 4648 12ca F001     		.2byte	0x1f0
 4649 12cc 00000000 		.4byte	.LFB130
 4650 12d0 08000000 		.4byte	.LFE130-.LFB130
 4651 12d4 01       		.uleb128 0x1
ARM GAS  /tmp/cc1C8LBe.s 			page 83


 4652 12d5 9C       		.byte	0x9c
 4653 12d6 27       		.uleb128 0x27
 4654 12d7 81060000 		.4byte	.LASF286
 4655 12db 03       		.byte	0x3
 4656 12dc 5A01     		.2byte	0x15a
 4657 12de 00000000 		.4byte	.LFB167
 4658 12e2 08000000 		.4byte	.LFE167-.LFB167
 4659 12e6 01       		.uleb128 0x1
 4660 12e7 9C       		.byte	0x9c
 4661 12e8 28       		.uleb128 0x28
 4662 12e9 50060000 		.4byte	.LASF287
 4663 12ed 03       		.byte	0x3
 4664 12ee 6601     		.2byte	0x166
 4665 12f0 00000000 		.4byte	.LFB168
 4666 12f4 08000000 		.4byte	.LFE168-.LFB168
 4667 12f8 01       		.uleb128 0x1
 4668 12f9 9C       		.byte	0x9c
 4669 12fa 08130000 		.4byte	0x1308
 4670 12fe 29       		.uleb128 0x29
 4671 12ff B1000000 		.4byte	.LASF300
 4672 1303 18130000 		.4byte	0x1318
 4673 1307 00       		.byte	0
 4674 1308 08       		.uleb128 0x8
 4675 1309 B2000000 		.4byte	0xb2
 4676 130d 18130000 		.4byte	0x1318
 4677 1311 09       		.uleb128 0x9
 4678 1312 A9000000 		.4byte	0xa9
 4679 1316 0B       		.byte	0xb
 4680 1317 00       		.byte	0
 4681 1318 07       		.uleb128 0x7
 4682 1319 08130000 		.4byte	0x1308
 4683 131d 27       		.uleb128 0x27
 4684 131e 80020000 		.4byte	.LASF288
 4685 1322 03       		.byte	0x3
 4686 1323 8201     		.2byte	0x182
 4687 1325 00000000 		.4byte	.LFB169
 4688 1329 08000000 		.4byte	.LFE169-.LFB169
 4689 132d 01       		.uleb128 0x1
 4690 132e 9C       		.byte	0x9c
 4691 132f 27       		.uleb128 0x27
 4692 1330 91030000 		.4byte	.LASF289
 4693 1334 03       		.byte	0x3
 4694 1335 9601     		.2byte	0x196
 4695 1337 00000000 		.4byte	.LFB170
 4696 133b 08000000 		.4byte	.LFE170-.LFB170
 4697 133f 01       		.uleb128 0x1
 4698 1340 9C       		.byte	0x9c
 4699 1341 27       		.uleb128 0x27
 4700 1342 10030000 		.4byte	.LASF290
 4701 1346 04       		.byte	0x4
 4702 1347 EB01     		.2byte	0x1eb
 4703 1349 00000000 		.4byte	.LFB244
 4704 134d 08000000 		.4byte	.LFE244-.LFB244
 4705 1351 01       		.uleb128 0x1
 4706 1352 9C       		.byte	0x9c
 4707 1353 27       		.uleb128 0x27
 4708 1354 D6010000 		.4byte	.LASF291
ARM GAS  /tmp/cc1C8LBe.s 			page 84


 4709 1358 04       		.byte	0x4
 4710 1359 F601     		.2byte	0x1f6
 4711 135b 00000000 		.4byte	.LFB245
 4712 135f 08000000 		.4byte	.LFE245-.LFB245
 4713 1363 01       		.uleb128 0x1
 4714 1364 9C       		.byte	0x9c
 4715 1365 27       		.uleb128 0x27
 4716 1366 C3010000 		.4byte	.LASF292
 4717 136a 04       		.byte	0x4
 4718 136b 0102     		.2byte	0x201
 4719 136d 00000000 		.4byte	.LFB246
 4720 1371 08000000 		.4byte	.LFE246-.LFB246
 4721 1375 01       		.uleb128 0x1
 4722 1376 9C       		.byte	0x9c
 4723 1377 27       		.uleb128 0x27
 4724 1378 03060000 		.4byte	.LASF293
 4725 137c 04       		.byte	0x4
 4726 137d 0C02     		.2byte	0x20c
 4727 137f 00000000 		.4byte	.LFB247
 4728 1383 08000000 		.4byte	.LFE247-.LFB247
 4729 1387 01       		.uleb128 0x1
 4730 1388 9C       		.byte	0x9c
 4731 1389 2A       		.uleb128 0x2a
 4732 138a FE020000 		.4byte	.LASF296
 4733 138e 05       		.byte	0x5
 4734 138f 33       		.byte	0x33
 4735 1390 DF000000 		.4byte	0xdf
 4736 1394 00000000 		.4byte	.LFB271
 4737 1398 2E000000 		.4byte	.LFE271-.LFB271
 4738 139c 01       		.uleb128 0x1
 4739 139d 9C       		.byte	0x9c
 4740 139e BC130000 		.4byte	0x13bc
 4741 13a2 2B       		.uleb128 0x2b
 4742 13a3 7000     		.ascii	"p\000"
 4743 13a5 05       		.byte	0x5
 4744 13a6 33       		.byte	0x33
 4745 13a7 0C070000 		.4byte	0x70c
 4746 13ab 02       		.uleb128 0x2
 4747 13ac 91       		.byte	0x91
 4748 13ad 74       		.sleb128 -12
 4749 13ae 2C       		.uleb128 0x2c
 4750 13af 687700   		.ascii	"hw\000"
 4751 13b2 05       		.byte	0x5
 4752 13b3 34       		.byte	0x34
 4753 13b4 DF000000 		.4byte	0xdf
 4754 13b8 02       		.uleb128 0x2
 4755 13b9 91       		.byte	0x91
 4756 13ba 7E       		.sleb128 -2
 4757 13bb 00       		.byte	0
 4758 13bc 2D       		.uleb128 0x2d
 4759 13bd F80A0000 		.4byte	.LASF294
 4760 13c1 05       		.byte	0x5
 4761 13c2 40       		.byte	0x40
 4762 13c3 00000000 		.4byte	.LFB272
 4763 13c7 3A000000 		.4byte	.LFE272-.LFB272
 4764 13cb 01       		.uleb128 0x1
 4765 13cc 9C       		.byte	0x9c
ARM GAS  /tmp/cc1C8LBe.s 			page 85


 4766 13cd E0130000 		.4byte	0x13e0
 4767 13d1 2E       		.uleb128 0x2e
 4768 13d2 F2060000 		.4byte	.LASF295
 4769 13d6 05       		.byte	0x5
 4770 13d7 40       		.byte	0x40
 4771 13d8 93090000 		.4byte	0x993
 4772 13dc 02       		.uleb128 0x2
 4773 13dd 91       		.byte	0x91
 4774 13de 74       		.sleb128 -12
 4775 13df 00       		.byte	0
 4776 13e0 2F       		.uleb128 0x2f
 4777 13e1 E80A0000 		.4byte	.LASF297
 4778 13e5 05       		.byte	0x5
 4779 13e6 54       		.byte	0x54
 4780 13e7 33070000 		.4byte	0x733
 4781 13eb 00000000 		.4byte	.LFB273
 4782 13ef A0030000 		.4byte	.LFE273-.LFB273
 4783 13f3 01       		.uleb128 0x1
 4784 13f4 9C       		.byte	0x9c
 4785 13f5 15140000 		.4byte	0x1415
 4786 13f9 2E       		.uleb128 0x2e
 4787 13fa F2060000 		.4byte	.LASF295
 4788 13fe 05       		.byte	0x5
 4789 13ff 54       		.byte	0x54
 4790 1400 93090000 		.4byte	0x993
 4791 1404 02       		.uleb128 0x2
 4792 1405 91       		.byte	0x91
 4793 1406 64       		.sleb128 -28
 4794 1407 2C       		.uleb128 0x2c
 4795 1408 647000   		.ascii	"dp\000"
 4796 140b 05       		.byte	0x5
 4797 140c 55       		.byte	0x55
 4798 140d 2E0A0000 		.4byte	0xa2e
 4799 1411 02       		.uleb128 0x2
 4800 1412 91       		.byte	0x91
 4801 1413 6C       		.sleb128 -20
 4802 1414 00       		.byte	0
 4803 1415 30       		.uleb128 0x30
 4804 1416 D2090000 		.4byte	.LASF325
 4805 141a 05       		.byte	0x5
 4806 141b FE       		.byte	0xfe
 4807 141c 00000000 		.4byte	.LFB274
 4808 1420 08000000 		.4byte	.LFE274-.LFB274
 4809 1424 01       		.uleb128 0x1
 4810 1425 9C       		.byte	0x9c
 4811 1426 31       		.uleb128 0x31
 4812 1427 E7020000 		.4byte	.LASF298
 4813 142b 05       		.byte	0x5
 4814 142c 0A01     		.2byte	0x10a
 4815 142e 00000000 		.4byte	.LFB275
 4816 1432 4C000000 		.4byte	.LFE275-.LFB275
 4817 1436 01       		.uleb128 0x1
 4818 1437 9C       		.byte	0x9c
 4819 1438 59140000 		.4byte	0x1459
 4820 143c 32       		.uleb128 0x32
 4821 143d F2060000 		.4byte	.LASF295
 4822 1441 05       		.byte	0x5
ARM GAS  /tmp/cc1C8LBe.s 			page 86


 4823 1442 0A01     		.2byte	0x10a
 4824 1444 93090000 		.4byte	0x993
 4825 1448 02       		.uleb128 0x2
 4826 1449 91       		.byte	0x91
 4827 144a 74       		.sleb128 -12
 4828 144b 33       		.uleb128 0x33
 4829 144c 6900     		.ascii	"i\000"
 4830 144e 05       		.byte	0x5
 4831 144f 0B01     		.2byte	0x10b
 4832 1451 33000000 		.4byte	0x33
 4833 1455 02       		.uleb128 0x2
 4834 1456 91       		.byte	0x91
 4835 1457 7C       		.sleb128 -4
 4836 1458 00       		.byte	0
 4837 1459 34       		.uleb128 0x34
 4838 145a 1E0B0000 		.4byte	.LASF299
 4839 145e 05       		.byte	0x5
 4840 145f 1F01     		.2byte	0x11f
 4841 1461 00000000 		.4byte	.LFB276
 4842 1465 48000000 		.4byte	.LFE276-.LFB276
 4843 1469 01       		.uleb128 0x1
 4844 146a 9C       		.byte	0x9c
 4845 146b A4140000 		.4byte	0x14a4
 4846 146f 32       		.uleb128 0x32
 4847 1470 F2060000 		.4byte	.LASF295
 4848 1474 05       		.byte	0x5
 4849 1475 1F01     		.2byte	0x11f
 4850 1477 93090000 		.4byte	0x993
 4851 147b 02       		.uleb128 0x2
 4852 147c 91       		.byte	0x91
 4853 147d 6C       		.sleb128 -20
 4854 147e 32       		.uleb128 0x32
 4855 147f 7E010000 		.4byte	.LASF120
 4856 1483 05       		.byte	0x5
 4857 1484 1F01     		.2byte	0x11f
 4858 1486 D1110000 		.4byte	0x11d1
 4859 148a 02       		.uleb128 0x2
 4860 148b 91       		.byte	0x91
 4861 148c 68       		.sleb128 -24
 4862 148d 33       		.uleb128 0x33
 4863 148e 6900     		.ascii	"i\000"
 4864 1490 05       		.byte	0x5
 4865 1491 2001     		.2byte	0x120
 4866 1493 33000000 		.4byte	0x33
 4867 1497 02       		.uleb128 0x2
 4868 1498 91       		.byte	0x91
 4869 1499 74       		.sleb128 -12
 4870 149a 29       		.uleb128 0x29
 4871 149b B1000000 		.4byte	.LASF300
 4872 149f B4140000 		.4byte	0x14b4
 4873 14a3 00       		.byte	0
 4874 14a4 08       		.uleb128 0x8
 4875 14a5 B2000000 		.4byte	0xb2
 4876 14a9 B4140000 		.4byte	0x14b4
 4877 14ad 09       		.uleb128 0x9
 4878 14ae A9000000 		.4byte	0xa9
 4879 14b2 08       		.byte	0x8
ARM GAS  /tmp/cc1C8LBe.s 			page 87


 4880 14b3 00       		.byte	0
 4881 14b4 07       		.uleb128 0x7
 4882 14b5 A4140000 		.4byte	0x14a4
 4883 14b9 34       		.uleb128 0x34
 4884 14ba 5A040000 		.4byte	.LASF301
 4885 14be 05       		.byte	0x5
 4886 14bf 3701     		.2byte	0x137
 4887 14c1 00000000 		.4byte	.LFB277
 4888 14c5 20000000 		.4byte	.LFE277-.LFB277
 4889 14c9 01       		.uleb128 0x1
 4890 14ca 9C       		.byte	0x9c
 4891 14cb E8140000 		.4byte	0x14e8
 4892 14cf 32       		.uleb128 0x32
 4893 14d0 F2060000 		.4byte	.LASF295
 4894 14d4 05       		.byte	0x5
 4895 14d5 3701     		.2byte	0x137
 4896 14d7 93090000 		.4byte	0x993
 4897 14db 02       		.uleb128 0x2
 4898 14dc 91       		.byte	0x91
 4899 14dd 74       		.sleb128 -12
 4900 14de 29       		.uleb128 0x29
 4901 14df B1000000 		.4byte	.LASF300
 4902 14e3 E8140000 		.4byte	0x14e8
 4903 14e7 00       		.byte	0
 4904 14e8 07       		.uleb128 0x7
 4905 14e9 C4000000 		.4byte	0xc4
 4906 14ed 34       		.uleb128 0x34
 4907 14ee 6B0A0000 		.4byte	.LASF302
 4908 14f2 05       		.byte	0x5
 4909 14f3 5101     		.2byte	0x151
 4910 14f5 00000000 		.4byte	.LFB278
 4911 14f9 5C000000 		.4byte	.LFE278-.LFB278
 4912 14fd 01       		.uleb128 0x1
 4913 14fe 9C       		.byte	0x9c
 4914 14ff 39150000 		.4byte	0x1539
 4915 1503 32       		.uleb128 0x32
 4916 1504 F2060000 		.4byte	.LASF295
 4917 1508 05       		.byte	0x5
 4918 1509 5101     		.2byte	0x151
 4919 150b 93090000 		.4byte	0x993
 4920 150f 02       		.uleb128 0x2
 4921 1510 91       		.byte	0x91
 4922 1511 74       		.sleb128 -12
 4923 1512 35       		.uleb128 0x35
 4924 1513 657000   		.ascii	"ep\000"
 4925 1516 05       		.byte	0x5
 4926 1517 5101     		.2byte	0x151
 4927 1519 71080000 		.4byte	0x871
 4928 151d 02       		.uleb128 0x2
 4929 151e 91       		.byte	0x91
 4930 151f 73       		.sleb128 -13
 4931 1520 32       		.uleb128 0x32
 4932 1521 C90D0000 		.4byte	.LASF303
 4933 1525 05       		.byte	0x5
 4934 1526 5201     		.2byte	0x152
 4935 1528 EC110000 		.4byte	0x11ec
 4936 152c 02       		.uleb128 0x2
ARM GAS  /tmp/cc1C8LBe.s 			page 88


 4937 152d 91       		.byte	0x91
 4938 152e 6C       		.sleb128 -20
 4939 152f 29       		.uleb128 0x29
 4940 1530 B1000000 		.4byte	.LASF300
 4941 1534 49150000 		.4byte	0x1549
 4942 1538 00       		.byte	0
 4943 1539 08       		.uleb128 0x8
 4944 153a B2000000 		.4byte	0xb2
 4945 153e 49150000 		.4byte	0x1549
 4946 1542 09       		.uleb128 0x9
 4947 1543 A9000000 		.4byte	0xa9
 4948 1547 10       		.byte	0x10
 4949 1548 00       		.byte	0
 4950 1549 07       		.uleb128 0x7
 4951 154a 39150000 		.4byte	0x1539
 4952 154e 34       		.uleb128 0x34
 4953 154f C6040000 		.4byte	.LASF304
 4954 1553 05       		.byte	0x5
 4955 1554 7301     		.2byte	0x173
 4956 1556 00000000 		.4byte	.LFB279
 4957 155a 4E000000 		.4byte	.LFE279-.LFB279
 4958 155e 01       		.uleb128 0x1
 4959 155f 9C       		.byte	0x9c
 4960 1560 8A150000 		.4byte	0x158a
 4961 1564 32       		.uleb128 0x32
 4962 1565 F2060000 		.4byte	.LASF295
 4963 1569 05       		.byte	0x5
 4964 156a 7301     		.2byte	0x173
 4965 156c 93090000 		.4byte	0x993
 4966 1570 02       		.uleb128 0x2
 4967 1571 91       		.byte	0x91
 4968 1572 6C       		.sleb128 -20
 4969 1573 33       		.uleb128 0x33
 4970 1574 6900     		.ascii	"i\000"
 4971 1576 05       		.byte	0x5
 4972 1577 7401     		.2byte	0x174
 4973 1579 33000000 		.4byte	0x33
 4974 157d 02       		.uleb128 0x2
 4975 157e 91       		.byte	0x91
 4976 157f 74       		.sleb128 -12
 4977 1580 29       		.uleb128 0x29
 4978 1581 B1000000 		.4byte	.LASF300
 4979 1585 9A150000 		.4byte	0x159a
 4980 1589 00       		.byte	0
 4981 158a 08       		.uleb128 0x8
 4982 158b B2000000 		.4byte	0xb2
 4983 158f 9A150000 		.4byte	0x159a
 4984 1593 09       		.uleb128 0x9
 4985 1594 A9000000 		.4byte	0xa9
 4986 1598 14       		.byte	0x14
 4987 1599 00       		.byte	0
 4988 159a 07       		.uleb128 0x7
 4989 159b 8A150000 		.4byte	0x158a
 4990 159f 34       		.uleb128 0x34
 4991 15a0 A10B0000 		.4byte	.LASF305
 4992 15a4 05       		.byte	0x5
 4993 15a5 9001     		.2byte	0x190
ARM GAS  /tmp/cc1C8LBe.s 			page 89


 4994 15a7 00000000 		.4byte	.LFB280
 4995 15ab 4C000000 		.4byte	.LFE280-.LFB280
 4996 15af 01       		.uleb128 0x1
 4997 15b0 9C       		.byte	0x9c
 4998 15b1 FE150000 		.4byte	0x15fe
 4999 15b5 32       		.uleb128 0x32
 5000 15b6 F2060000 		.4byte	.LASF295
 5001 15ba 05       		.byte	0x5
 5002 15bb 9001     		.2byte	0x190
 5003 15bd 93090000 		.4byte	0x993
 5004 15c1 02       		.uleb128 0x2
 5005 15c2 91       		.byte	0x91
 5006 15c3 6C       		.sleb128 -20
 5007 15c4 35       		.uleb128 0x35
 5008 15c5 657000   		.ascii	"ep\000"
 5009 15c8 05       		.byte	0x5
 5010 15c9 9001     		.2byte	0x190
 5011 15cb 71080000 		.4byte	0x871
 5012 15cf 02       		.uleb128 0x2
 5013 15d0 91       		.byte	0x91
 5014 15d1 6B       		.sleb128 -21
 5015 15d2 35       		.uleb128 0x35
 5016 15d3 62756600 		.ascii	"buf\000"
 5017 15d7 05       		.byte	0x5
 5018 15d8 9001     		.2byte	0x190
 5019 15da 0C070000 		.4byte	0x70c
 5020 15de 02       		.uleb128 0x2
 5021 15df 91       		.byte	0x91
 5022 15e0 64       		.sleb128 -28
 5023 15e1 35       		.uleb128 0x35
 5024 15e2 6E00     		.ascii	"n\000"
 5025 15e4 05       		.byte	0x5
 5026 15e5 9001     		.2byte	0x190
 5027 15e7 28000000 		.4byte	0x28
 5028 15eb 02       		.uleb128 0x2
 5029 15ec 91       		.byte	0x91
 5030 15ed 60       		.sleb128 -32
 5031 15ee 33       		.uleb128 0x33
 5032 15ef 6F737000 		.ascii	"osp\000"
 5033 15f3 05       		.byte	0x5
 5034 15f4 9101     		.2byte	0x191
 5035 15f6 75110000 		.4byte	0x1175
 5036 15fa 02       		.uleb128 0x2
 5037 15fb 91       		.byte	0x91
 5038 15fc 74       		.sleb128 -12
 5039 15fd 00       		.byte	0
 5040 15fe 34       		.uleb128 0x34
 5041 15ff 6E060000 		.4byte	.LASF306
 5042 1603 05       		.byte	0x5
 5043 1604 A901     		.2byte	0x1a9
 5044 1606 00000000 		.4byte	.LFB281
 5045 160a 4C000000 		.4byte	.LFE281-.LFB281
 5046 160e 01       		.uleb128 0x1
 5047 160f 9C       		.byte	0x9c
 5048 1610 5D160000 		.4byte	0x165d
 5049 1614 32       		.uleb128 0x32
 5050 1615 F2060000 		.4byte	.LASF295
ARM GAS  /tmp/cc1C8LBe.s 			page 90


 5051 1619 05       		.byte	0x5
 5052 161a A901     		.2byte	0x1a9
 5053 161c 93090000 		.4byte	0x993
 5054 1620 02       		.uleb128 0x2
 5055 1621 91       		.byte	0x91
 5056 1622 6C       		.sleb128 -20
 5057 1623 35       		.uleb128 0x35
 5058 1624 657000   		.ascii	"ep\000"
 5059 1627 05       		.byte	0x5
 5060 1628 A901     		.2byte	0x1a9
 5061 162a 71080000 		.4byte	0x871
 5062 162e 02       		.uleb128 0x2
 5063 162f 91       		.byte	0x91
 5064 1630 6B       		.sleb128 -21
 5065 1631 35       		.uleb128 0x35
 5066 1632 62756600 		.ascii	"buf\000"
 5067 1636 05       		.byte	0x5
 5068 1637 AA01     		.2byte	0x1aa
 5069 1639 28070000 		.4byte	0x728
 5070 163d 02       		.uleb128 0x2
 5071 163e 91       		.byte	0x91
 5072 163f 64       		.sleb128 -28
 5073 1640 35       		.uleb128 0x35
 5074 1641 6E00     		.ascii	"n\000"
 5075 1643 05       		.byte	0x5
 5076 1644 AA01     		.2byte	0x1aa
 5077 1646 28000000 		.4byte	0x28
 5078 164a 02       		.uleb128 0x2
 5079 164b 91       		.byte	0x91
 5080 164c 60       		.sleb128 -32
 5081 164d 33       		.uleb128 0x33
 5082 164e 69737000 		.ascii	"isp\000"
 5083 1652 05       		.byte	0x5
 5084 1653 AB01     		.2byte	0x1ab
 5085 1655 6F110000 		.4byte	0x116f
 5086 1659 02       		.uleb128 0x2
 5087 165a 91       		.byte	0x91
 5088 165b 74       		.sleb128 -12
 5089 165c 00       		.byte	0
 5090 165d 34       		.uleb128 0x34
 5091 165e 6E0C0000 		.4byte	.LASF307
 5092 1662 05       		.byte	0x5
 5093 1663 C601     		.2byte	0x1c6
 5094 1665 00000000 		.4byte	.LFB282
 5095 1669 4C000000 		.4byte	.LFE282-.LFB282
 5096 166d 01       		.uleb128 0x1
 5097 166e 9C       		.byte	0x9c
 5098 166f BC160000 		.4byte	0x16bc
 5099 1673 32       		.uleb128 0x32
 5100 1674 F2060000 		.4byte	.LASF295
 5101 1678 05       		.byte	0x5
 5102 1679 C601     		.2byte	0x1c6
 5103 167b 93090000 		.4byte	0x993
 5104 167f 02       		.uleb128 0x2
 5105 1680 91       		.byte	0x91
 5106 1681 6C       		.sleb128 -20
 5107 1682 35       		.uleb128 0x35
ARM GAS  /tmp/cc1C8LBe.s 			page 91


 5108 1683 657000   		.ascii	"ep\000"
 5109 1686 05       		.byte	0x5
 5110 1687 C601     		.2byte	0x1c6
 5111 1689 71080000 		.4byte	0x871
 5112 168d 02       		.uleb128 0x2
 5113 168e 91       		.byte	0x91
 5114 168f 6B       		.sleb128 -21
 5115 1690 35       		.uleb128 0x35
 5116 1691 69717000 		.ascii	"iqp\000"
 5117 1695 05       		.byte	0x5
 5118 1696 C701     		.2byte	0x1c7
 5119 1698 65100000 		.4byte	0x1065
 5120 169c 02       		.uleb128 0x2
 5121 169d 91       		.byte	0x91
 5122 169e 64       		.sleb128 -28
 5123 169f 35       		.uleb128 0x35
 5124 16a0 6E00     		.ascii	"n\000"
 5125 16a2 05       		.byte	0x5
 5126 16a3 C701     		.2byte	0x1c7
 5127 16a5 28000000 		.4byte	0x28
 5128 16a9 02       		.uleb128 0x2
 5129 16aa 91       		.byte	0x91
 5130 16ab 60       		.sleb128 -32
 5131 16ac 33       		.uleb128 0x33
 5132 16ad 6F737000 		.ascii	"osp\000"
 5133 16b1 05       		.byte	0x5
 5134 16b2 C801     		.2byte	0x1c8
 5135 16b4 75110000 		.4byte	0x1175
 5136 16b8 02       		.uleb128 0x2
 5137 16b9 91       		.byte	0x91
 5138 16ba 74       		.sleb128 -12
 5139 16bb 00       		.byte	0
 5140 16bc 34       		.uleb128 0x34
 5141 16bd 93010000 		.4byte	.LASF308
 5142 16c1 05       		.byte	0x5
 5143 16c2 E001     		.2byte	0x1e0
 5144 16c4 00000000 		.4byte	.LFB283
 5145 16c8 4C000000 		.4byte	.LFE283-.LFB283
 5146 16cc 01       		.uleb128 0x1
 5147 16cd 9C       		.byte	0x9c
 5148 16ce 1B170000 		.4byte	0x171b
 5149 16d2 32       		.uleb128 0x32
 5150 16d3 F2060000 		.4byte	.LASF295
 5151 16d7 05       		.byte	0x5
 5152 16d8 E001     		.2byte	0x1e0
 5153 16da 93090000 		.4byte	0x993
 5154 16de 02       		.uleb128 0x2
 5155 16df 91       		.byte	0x91
 5156 16e0 6C       		.sleb128 -20
 5157 16e1 35       		.uleb128 0x35
 5158 16e2 657000   		.ascii	"ep\000"
 5159 16e5 05       		.byte	0x5
 5160 16e6 E001     		.2byte	0x1e0
 5161 16e8 71080000 		.4byte	0x871
 5162 16ec 02       		.uleb128 0x2
 5163 16ed 91       		.byte	0x91
 5164 16ee 6B       		.sleb128 -21
ARM GAS  /tmp/cc1C8LBe.s 			page 92


 5165 16ef 35       		.uleb128 0x35
 5166 16f0 6F717000 		.ascii	"oqp\000"
 5167 16f4 05       		.byte	0x5
 5168 16f5 E101     		.2byte	0x1e1
 5169 16f7 C20F0000 		.4byte	0xfc2
 5170 16fb 02       		.uleb128 0x2
 5171 16fc 91       		.byte	0x91
 5172 16fd 64       		.sleb128 -28
 5173 16fe 35       		.uleb128 0x35
 5174 16ff 6E00     		.ascii	"n\000"
 5175 1701 05       		.byte	0x5
 5176 1702 E101     		.2byte	0x1e1
 5177 1704 28000000 		.4byte	0x28
 5178 1708 02       		.uleb128 0x2
 5179 1709 91       		.byte	0x91
 5180 170a 60       		.sleb128 -32
 5181 170b 33       		.uleb128 0x33
 5182 170c 69737000 		.ascii	"isp\000"
 5183 1710 05       		.byte	0x5
 5184 1711 E201     		.2byte	0x1e2
 5185 1713 6F110000 		.4byte	0x116f
 5186 1717 02       		.uleb128 0x2
 5187 1718 91       		.byte	0x91
 5188 1719 74       		.sleb128 -12
 5189 171a 00       		.byte	0
 5190 171b 36       		.uleb128 0x36
 5191 171c A0000000 		.4byte	.LASF309
 5192 1720 05       		.byte	0x5
 5193 1721 FA01     		.2byte	0x1fa
 5194 1723 33070000 		.4byte	0x733
 5195 1727 00000000 		.4byte	.LFB284
 5196 172b 56000000 		.4byte	.LFE284-.LFB284
 5197 172f 01       		.uleb128 0x1
 5198 1730 9C       		.byte	0x9c
 5199 1731 5C170000 		.4byte	0x175c
 5200 1735 32       		.uleb128 0x32
 5201 1736 F2060000 		.4byte	.LASF295
 5202 173a 05       		.byte	0x5
 5203 173b FA01     		.2byte	0x1fa
 5204 173d 93090000 		.4byte	0x993
 5205 1741 02       		.uleb128 0x2
 5206 1742 91       		.byte	0x91
 5207 1743 74       		.sleb128 -12
 5208 1744 35       		.uleb128 0x35
 5209 1745 657000   		.ascii	"ep\000"
 5210 1748 05       		.byte	0x5
 5211 1749 FA01     		.2byte	0x1fa
 5212 174b 71080000 		.4byte	0x871
 5213 174f 02       		.uleb128 0x2
 5214 1750 91       		.byte	0x91
 5215 1751 73       		.sleb128 -13
 5216 1752 29       		.uleb128 0x29
 5217 1753 B1000000 		.4byte	.LASF300
 5218 1757 5C170000 		.4byte	0x175c
 5219 175b 00       		.byte	0
 5220 175c 07       		.uleb128 0x7
 5221 175d 39150000 		.4byte	0x1539
ARM GAS  /tmp/cc1C8LBe.s 			page 93


 5222 1761 36       		.uleb128 0x36
 5223 1762 7D0B0000 		.4byte	.LASF310
 5224 1766 05       		.byte	0x5
 5225 1767 1602     		.2byte	0x216
 5226 1769 33070000 		.4byte	0x733
 5227 176d 00000000 		.4byte	.LFB285
 5228 1771 56000000 		.4byte	.LFE285-.LFB285
 5229 1775 01       		.uleb128 0x1
 5230 1776 9C       		.byte	0x9c
 5231 1777 A2170000 		.4byte	0x17a2
 5232 177b 32       		.uleb128 0x32
 5233 177c F2060000 		.4byte	.LASF295
 5234 1780 05       		.byte	0x5
 5235 1781 1602     		.2byte	0x216
 5236 1783 93090000 		.4byte	0x993
 5237 1787 02       		.uleb128 0x2
 5238 1788 91       		.byte	0x91
 5239 1789 74       		.sleb128 -12
 5240 178a 35       		.uleb128 0x35
 5241 178b 657000   		.ascii	"ep\000"
 5242 178e 05       		.byte	0x5
 5243 178f 1602     		.2byte	0x216
 5244 1791 71080000 		.4byte	0x871
 5245 1795 02       		.uleb128 0x2
 5246 1796 91       		.byte	0x91
 5247 1797 73       		.sleb128 -13
 5248 1798 29       		.uleb128 0x29
 5249 1799 B1000000 		.4byte	.LASF300
 5250 179d B2170000 		.4byte	0x17b2
 5251 17a1 00       		.byte	0
 5252 17a2 08       		.uleb128 0x8
 5253 17a3 B2000000 		.4byte	0xb2
 5254 17a7 B2170000 		.4byte	0x17b2
 5255 17ab 09       		.uleb128 0x9
 5256 17ac A9000000 		.4byte	0xa9
 5257 17b0 11       		.byte	0x11
 5258 17b1 00       		.byte	0
 5259 17b2 07       		.uleb128 0x7
 5260 17b3 A2170000 		.4byte	0x17a2
 5261 17b7 36       		.uleb128 0x36
 5262 17b8 71050000 		.4byte	.LASF311
 5263 17bc 05       		.byte	0x5
 5264 17bd 3002     		.2byte	0x230
 5265 17bf 33070000 		.4byte	0x733
 5266 17c3 00000000 		.4byte	.LFB286
 5267 17c7 3E000000 		.4byte	.LFE286-.LFB286
 5268 17cb 01       		.uleb128 0x1
 5269 17cc 9C       		.byte	0x9c
 5270 17cd F8170000 		.4byte	0x17f8
 5271 17d1 32       		.uleb128 0x32
 5272 17d2 F2060000 		.4byte	.LASF295
 5273 17d6 05       		.byte	0x5
 5274 17d7 3002     		.2byte	0x230
 5275 17d9 93090000 		.4byte	0x993
 5276 17dd 02       		.uleb128 0x2
 5277 17de 91       		.byte	0x91
 5278 17df 74       		.sleb128 -12
ARM GAS  /tmp/cc1C8LBe.s 			page 94


 5279 17e0 35       		.uleb128 0x35
 5280 17e1 657000   		.ascii	"ep\000"
 5281 17e4 05       		.byte	0x5
 5282 17e5 3002     		.2byte	0x230
 5283 17e7 71080000 		.4byte	0x871
 5284 17eb 02       		.uleb128 0x2
 5285 17ec 91       		.byte	0x91
 5286 17ed 73       		.sleb128 -13
 5287 17ee 29       		.uleb128 0x29
 5288 17ef B1000000 		.4byte	.LASF300
 5289 17f3 F8170000 		.4byte	0x17f8
 5290 17f7 00       		.byte	0
 5291 17f8 07       		.uleb128 0x7
 5292 17f9 39150000 		.4byte	0x1539
 5293 17fd 36       		.uleb128 0x36
 5294 17fe 3E060000 		.4byte	.LASF312
 5295 1802 05       		.byte	0x5
 5296 1803 4902     		.2byte	0x249
 5297 1805 33070000 		.4byte	0x733
 5298 1809 00000000 		.4byte	.LFB287
 5299 180d 3E000000 		.4byte	.LFE287-.LFB287
 5300 1811 01       		.uleb128 0x1
 5301 1812 9C       		.byte	0x9c
 5302 1813 3E180000 		.4byte	0x183e
 5303 1817 32       		.uleb128 0x32
 5304 1818 F2060000 		.4byte	.LASF295
 5305 181c 05       		.byte	0x5
 5306 181d 4902     		.2byte	0x249
 5307 181f 93090000 		.4byte	0x993
 5308 1823 02       		.uleb128 0x2
 5309 1824 91       		.byte	0x91
 5310 1825 74       		.sleb128 -12
 5311 1826 35       		.uleb128 0x35
 5312 1827 657000   		.ascii	"ep\000"
 5313 182a 05       		.byte	0x5
 5314 182b 4902     		.2byte	0x249
 5315 182d 71080000 		.4byte	0x871
 5316 1831 02       		.uleb128 0x2
 5317 1832 91       		.byte	0x91
 5318 1833 73       		.sleb128 -13
 5319 1834 29       		.uleb128 0x29
 5320 1835 B1000000 		.4byte	.LASF300
 5321 1839 3E180000 		.4byte	0x183e
 5322 183d 00       		.byte	0
 5323 183e 07       		.uleb128 0x7
 5324 183f A2170000 		.4byte	0x17a2
 5325 1843 34       		.uleb128 0x34
 5326 1844 A4030000 		.4byte	.LASF313
 5327 1848 05       		.byte	0x5
 5328 1849 5F02     		.2byte	0x25f
 5329 184b 00000000 		.4byte	.LFB288
 5330 184f 64000000 		.4byte	.LFE288-.LFB288
 5331 1853 01       		.uleb128 0x1
 5332 1854 9C       		.byte	0x9c
 5333 1855 76180000 		.4byte	0x1876
 5334 1859 32       		.uleb128 0x32
 5335 185a F2060000 		.4byte	.LASF295
ARM GAS  /tmp/cc1C8LBe.s 			page 95


 5336 185e 05       		.byte	0x5
 5337 185f 5F02     		.2byte	0x25f
 5338 1861 93090000 		.4byte	0x993
 5339 1865 02       		.uleb128 0x2
 5340 1866 91       		.byte	0x91
 5341 1867 6C       		.sleb128 -20
 5342 1868 33       		.uleb128 0x33
 5343 1869 6900     		.ascii	"i\000"
 5344 186b 05       		.byte	0x5
 5345 186c 6002     		.2byte	0x260
 5346 186e 33000000 		.4byte	0x33
 5347 1872 02       		.uleb128 0x2
 5348 1873 91       		.byte	0x91
 5349 1874 74       		.sleb128 -12
 5350 1875 00       		.byte	0
 5351 1876 34       		.uleb128 0x34
 5352 1877 63070000 		.4byte	.LASF314
 5353 187b 05       		.byte	0x5
 5354 187c 7F02     		.2byte	0x27f
 5355 187e 00000000 		.4byte	.LFB289
 5356 1882 76010000 		.4byte	.LFE289-.LFB289
 5357 1886 01       		.uleb128 0x1
 5358 1887 9C       		.byte	0x9c
 5359 1888 B9180000 		.4byte	0x18b9
 5360 188c 32       		.uleb128 0x32
 5361 188d F2060000 		.4byte	.LASF295
 5362 1891 05       		.byte	0x5
 5363 1892 7F02     		.2byte	0x27f
 5364 1894 93090000 		.4byte	0x993
 5365 1898 02       		.uleb128 0x2
 5366 1899 91       		.byte	0x91
 5367 189a 6C       		.sleb128 -20
 5368 189b 35       		.uleb128 0x35
 5369 189c 657000   		.ascii	"ep\000"
 5370 189f 05       		.byte	0x5
 5371 18a0 7F02     		.2byte	0x27f
 5372 18a2 71080000 		.4byte	0x871
 5373 18a6 02       		.uleb128 0x2
 5374 18a7 91       		.byte	0x91
 5375 18a8 6B       		.sleb128 -21
 5376 18a9 33       		.uleb128 0x33
 5377 18aa 6D617800 		.ascii	"max\000"
 5378 18ae 05       		.byte	0x5
 5379 18af 8002     		.2byte	0x280
 5380 18b1 28000000 		.4byte	0x28
 5381 18b5 02       		.uleb128 0x2
 5382 18b6 91       		.byte	0x91
 5383 18b7 74       		.sleb128 -12
 5384 18b8 00       		.byte	0
 5385 18b9 34       		.uleb128 0x34
 5386 18ba 870D0000 		.4byte	.LASF315
 5387 18be 05       		.byte	0x5
 5388 18bf E502     		.2byte	0x2e5
 5389 18c1 00000000 		.4byte	.LFB290
 5390 18c5 04010000 		.4byte	.LFE290-.LFB290
 5391 18c9 01       		.uleb128 0x1
 5392 18ca 9C       		.byte	0x9c
ARM GAS  /tmp/cc1C8LBe.s 			page 96


 5393 18cb 05190000 		.4byte	0x1905
 5394 18cf 32       		.uleb128 0x32
 5395 18d0 F2060000 		.4byte	.LASF295
 5396 18d4 05       		.byte	0x5
 5397 18d5 E502     		.2byte	0x2e5
 5398 18d7 93090000 		.4byte	0x993
 5399 18db 02       		.uleb128 0x2
 5400 18dc 91       		.byte	0x91
 5401 18dd 6C       		.sleb128 -20
 5402 18de 35       		.uleb128 0x35
 5403 18df 657000   		.ascii	"ep\000"
 5404 18e2 05       		.byte	0x5
 5405 18e3 E502     		.2byte	0x2e5
 5406 18e5 71080000 		.4byte	0x871
 5407 18e9 02       		.uleb128 0x2
 5408 18ea 91       		.byte	0x91
 5409 18eb 6B       		.sleb128 -21
 5410 18ec 33       		.uleb128 0x33
 5411 18ed 6D617800 		.ascii	"max\000"
 5412 18f1 05       		.byte	0x5
 5413 18f2 E602     		.2byte	0x2e6
 5414 18f4 28000000 		.4byte	0x28
 5415 18f8 02       		.uleb128 0x2
 5416 18f9 91       		.byte	0x91
 5417 18fa 74       		.sleb128 -12
 5418 18fb 29       		.uleb128 0x29
 5419 18fc B1000000 		.4byte	.LASF300
 5420 1900 15190000 		.4byte	0x1915
 5421 1904 00       		.byte	0
 5422 1905 08       		.uleb128 0x8
 5423 1906 B2000000 		.4byte	0xb2
 5424 190a 15190000 		.4byte	0x1915
 5425 190e 09       		.uleb128 0x9
 5426 190f A9000000 		.4byte	0xa9
 5427 1913 0A       		.byte	0xa
 5428 1914 00       		.byte	0
 5429 1915 07       		.uleb128 0x7
 5430 1916 05190000 		.4byte	0x1905
 5431 191a 34       		.uleb128 0x34
 5432 191b B7010000 		.4byte	.LASF316
 5433 191f 05       		.byte	0x5
 5434 1920 2A03     		.2byte	0x32a
 5435 1922 00000000 		.4byte	.LFB291
 5436 1926 BC000000 		.4byte	.LFE291-.LFB291
 5437 192a 01       		.uleb128 0x1
 5438 192b 9C       		.byte	0x9c
 5439 192c 57190000 		.4byte	0x1957
 5440 1930 32       		.uleb128 0x32
 5441 1931 F2060000 		.4byte	.LASF295
 5442 1935 05       		.byte	0x5
 5443 1936 2A03     		.2byte	0x32a
 5444 1938 93090000 		.4byte	0x993
 5445 193c 02       		.uleb128 0x2
 5446 193d 91       		.byte	0x91
 5447 193e 74       		.sleb128 -12
 5448 193f 35       		.uleb128 0x35
 5449 1940 657000   		.ascii	"ep\000"
ARM GAS  /tmp/cc1C8LBe.s 			page 97


 5450 1943 05       		.byte	0x5
 5451 1944 2A03     		.2byte	0x32a
 5452 1946 71080000 		.4byte	0x871
 5453 194a 02       		.uleb128 0x2
 5454 194b 91       		.byte	0x91
 5455 194c 73       		.sleb128 -13
 5456 194d 29       		.uleb128 0x29
 5457 194e B1000000 		.4byte	.LASF300
 5458 1952 57190000 		.4byte	0x1957
 5459 1956 00       		.byte	0
 5460 1957 07       		.uleb128 0x7
 5461 1958 08130000 		.4byte	0x1308
 5462 195c 08       		.uleb128 0x8
 5463 195d D4000000 		.4byte	0xd4
 5464 1961 6C190000 		.4byte	0x196c
 5465 1965 09       		.uleb128 0x9
 5466 1966 A9000000 		.4byte	0xa9
 5467 196a 01       		.byte	0x1
 5468 196b 00       		.byte	0
 5469 196c 37       		.uleb128 0x37
 5470 196d 92060000 		.4byte	.LASF317
 5471 1971 05       		.byte	0x5
 5472 1972 2B       		.byte	0x2b
 5473 1973 7D190000 		.4byte	0x197d
 5474 1977 05       		.uleb128 0x5
 5475 1978 03       		.byte	0x3
 5476 1979 00000000 		.4byte	zero_status
 5477 197d 07       		.uleb128 0x7
 5478 197e 5C190000 		.4byte	0x195c
 5479 1982 37       		.uleb128 0x37
 5480 1983 47050000 		.4byte	.LASF318
 5481 1987 05       		.byte	0x5
 5482 1988 2C       		.byte	0x2c
 5483 1989 93190000 		.4byte	0x1993
 5484 198d 05       		.uleb128 0x5
 5485 198e 03       		.byte	0x3
 5486 198f 00000000 		.4byte	active_status
 5487 1993 07       		.uleb128 0x7
 5488 1994 5C190000 		.4byte	0x195c
 5489 1998 37       		.uleb128 0x37
 5490 1999 1C030000 		.4byte	.LASF319
 5491 199d 05       		.byte	0x5
 5492 199e 2D       		.byte	0x2d
 5493 199f A9190000 		.4byte	0x19a9
 5494 19a3 05       		.uleb128 0x5
 5495 19a4 03       		.byte	0x3
 5496 19a5 00000000 		.4byte	halted_status
 5497 19a9 07       		.uleb128 0x7
 5498 19aa 5C190000 		.4byte	0x195c
 5499 19ae 38       		.uleb128 0x38
 5500 19af 44080000 		.4byte	.LASF320
 5501 19b3 14       		.byte	0x14
 5502 19b4 FA06     		.2byte	0x6fa
 5503 19b6 0B010000 		.4byte	0x10b
 5504 19ba 39       		.uleb128 0x39
 5505 19bb 636800   		.ascii	"ch\000"
 5506 19be 0B       		.byte	0xb
ARM GAS  /tmp/cc1C8LBe.s 			page 98


 5507 19bf 0902     		.2byte	0x209
 5508 19c1 25040000 		.4byte	0x425
 5509 19c5 00       		.byte	0
 5510              		.section	.debug_abbrev,"",%progbits
 5511              	.Ldebug_abbrev0:
 5512 0000 01       		.uleb128 0x1
 5513 0001 11       		.uleb128 0x11
 5514 0002 01       		.byte	0x1
 5515 0003 25       		.uleb128 0x25
 5516 0004 0E       		.uleb128 0xe
 5517 0005 13       		.uleb128 0x13
 5518 0006 0B       		.uleb128 0xb
 5519 0007 03       		.uleb128 0x3
 5520 0008 0E       		.uleb128 0xe
 5521 0009 55       		.uleb128 0x55
 5522 000a 17       		.uleb128 0x17
 5523 000b 11       		.uleb128 0x11
 5524 000c 01       		.uleb128 0x1
 5525 000d 10       		.uleb128 0x10
 5526 000e 17       		.uleb128 0x17
 5527 000f 00       		.byte	0
 5528 0010 00       		.byte	0
 5529 0011 02       		.uleb128 0x2
 5530 0012 24       		.uleb128 0x24
 5531 0013 00       		.byte	0
 5532 0014 0B       		.uleb128 0xb
 5533 0015 0B       		.uleb128 0xb
 5534 0016 3E       		.uleb128 0x3e
 5535 0017 0B       		.uleb128 0xb
 5536 0018 03       		.uleb128 0x3
 5537 0019 08       		.uleb128 0x8
 5538 001a 00       		.byte	0
 5539 001b 00       		.byte	0
 5540 001c 03       		.uleb128 0x3
 5541 001d 16       		.uleb128 0x16
 5542 001e 00       		.byte	0
 5543 001f 03       		.uleb128 0x3
 5544 0020 0E       		.uleb128 0xe
 5545 0021 3A       		.uleb128 0x3a
 5546 0022 0B       		.uleb128 0xb
 5547 0023 3B       		.uleb128 0x3b
 5548 0024 0B       		.uleb128 0xb
 5549 0025 49       		.uleb128 0x49
 5550 0026 13       		.uleb128 0x13
 5551 0027 00       		.byte	0
 5552 0028 00       		.byte	0
 5553 0029 04       		.uleb128 0x4
 5554 002a 24       		.uleb128 0x24
 5555 002b 00       		.byte	0
 5556 002c 0B       		.uleb128 0xb
 5557 002d 0B       		.uleb128 0xb
 5558 002e 3E       		.uleb128 0x3e
 5559 002f 0B       		.uleb128 0xb
 5560 0030 03       		.uleb128 0x3
 5561 0031 0E       		.uleb128 0xe
 5562 0032 00       		.byte	0
 5563 0033 00       		.byte	0
ARM GAS  /tmp/cc1C8LBe.s 			page 99


 5564 0034 05       		.uleb128 0x5
 5565 0035 0F       		.uleb128 0xf
 5566 0036 00       		.byte	0
 5567 0037 0B       		.uleb128 0xb
 5568 0038 0B       		.uleb128 0xb
 5569 0039 00       		.byte	0
 5570 003a 00       		.byte	0
 5571 003b 06       		.uleb128 0x6
 5572 003c 0F       		.uleb128 0xf
 5573 003d 00       		.byte	0
 5574 003e 0B       		.uleb128 0xb
 5575 003f 0B       		.uleb128 0xb
 5576 0040 49       		.uleb128 0x49
 5577 0041 13       		.uleb128 0x13
 5578 0042 00       		.byte	0
 5579 0043 00       		.byte	0
 5580 0044 07       		.uleb128 0x7
 5581 0045 26       		.uleb128 0x26
 5582 0046 00       		.byte	0
 5583 0047 49       		.uleb128 0x49
 5584 0048 13       		.uleb128 0x13
 5585 0049 00       		.byte	0
 5586 004a 00       		.byte	0
 5587 004b 08       		.uleb128 0x8
 5588 004c 01       		.uleb128 0x1
 5589 004d 01       		.byte	0x1
 5590 004e 49       		.uleb128 0x49
 5591 004f 13       		.uleb128 0x13
 5592 0050 01       		.uleb128 0x1
 5593 0051 13       		.uleb128 0x13
 5594 0052 00       		.byte	0
 5595 0053 00       		.byte	0
 5596 0054 09       		.uleb128 0x9
 5597 0055 21       		.uleb128 0x21
 5598 0056 00       		.byte	0
 5599 0057 49       		.uleb128 0x49
 5600 0058 13       		.uleb128 0x13
 5601 0059 2F       		.uleb128 0x2f
 5602 005a 0B       		.uleb128 0xb
 5603 005b 00       		.byte	0
 5604 005c 00       		.byte	0
 5605 005d 0A       		.uleb128 0xa
 5606 005e 35       		.uleb128 0x35
 5607 005f 00       		.byte	0
 5608 0060 49       		.uleb128 0x49
 5609 0061 13       		.uleb128 0x13
 5610 0062 00       		.byte	0
 5611 0063 00       		.byte	0
 5612 0064 0B       		.uleb128 0xb
 5613 0065 13       		.uleb128 0x13
 5614 0066 01       		.byte	0x1
 5615 0067 03       		.uleb128 0x3
 5616 0068 0E       		.uleb128 0xe
 5617 0069 0B       		.uleb128 0xb
 5618 006a 0B       		.uleb128 0xb
 5619 006b 3A       		.uleb128 0x3a
 5620 006c 0B       		.uleb128 0xb
ARM GAS  /tmp/cc1C8LBe.s 			page 100


 5621 006d 3B       		.uleb128 0x3b
 5622 006e 0B       		.uleb128 0xb
 5623 006f 01       		.uleb128 0x1
 5624 0070 13       		.uleb128 0x13
 5625 0071 00       		.byte	0
 5626 0072 00       		.byte	0
 5627 0073 0C       		.uleb128 0xc
 5628 0074 0D       		.uleb128 0xd
 5629 0075 00       		.byte	0
 5630 0076 03       		.uleb128 0x3
 5631 0077 0E       		.uleb128 0xe
 5632 0078 3A       		.uleb128 0x3a
 5633 0079 0B       		.uleb128 0xb
 5634 007a 3B       		.uleb128 0x3b
 5635 007b 0B       		.uleb128 0xb
 5636 007c 49       		.uleb128 0x49
 5637 007d 13       		.uleb128 0x13
 5638 007e 38       		.uleb128 0x38
 5639 007f 0B       		.uleb128 0xb
 5640 0080 00       		.byte	0
 5641 0081 00       		.byte	0
 5642 0082 0D       		.uleb128 0xd
 5643 0083 0D       		.uleb128 0xd
 5644 0084 00       		.byte	0
 5645 0085 03       		.uleb128 0x3
 5646 0086 08       		.uleb128 0x8
 5647 0087 3A       		.uleb128 0x3a
 5648 0088 0B       		.uleb128 0xb
 5649 0089 3B       		.uleb128 0x3b
 5650 008a 05       		.uleb128 0x5
 5651 008b 49       		.uleb128 0x49
 5652 008c 13       		.uleb128 0x13
 5653 008d 38       		.uleb128 0x38
 5654 008e 0B       		.uleb128 0xb
 5655 008f 00       		.byte	0
 5656 0090 00       		.byte	0
 5657 0091 0E       		.uleb128 0xe
 5658 0092 0D       		.uleb128 0xd
 5659 0093 00       		.byte	0
 5660 0094 03       		.uleb128 0x3
 5661 0095 0E       		.uleb128 0xe
 5662 0096 3A       		.uleb128 0x3a
 5663 0097 0B       		.uleb128 0xb
 5664 0098 3B       		.uleb128 0x3b
 5665 0099 05       		.uleb128 0x5
 5666 009a 49       		.uleb128 0x49
 5667 009b 13       		.uleb128 0x13
 5668 009c 38       		.uleb128 0x38
 5669 009d 0B       		.uleb128 0xb
 5670 009e 00       		.byte	0
 5671 009f 00       		.byte	0
 5672 00a0 0F       		.uleb128 0xf
 5673 00a1 13       		.uleb128 0x13
 5674 00a2 01       		.byte	0x1
 5675 00a3 03       		.uleb128 0x3
 5676 00a4 0E       		.uleb128 0xe
 5677 00a5 0B       		.uleb128 0xb
ARM GAS  /tmp/cc1C8LBe.s 			page 101


 5678 00a6 0B       		.uleb128 0xb
 5679 00a7 3A       		.uleb128 0x3a
 5680 00a8 0B       		.uleb128 0xb
 5681 00a9 3B       		.uleb128 0x3b
 5682 00aa 05       		.uleb128 0x5
 5683 00ab 01       		.uleb128 0x1
 5684 00ac 13       		.uleb128 0x13
 5685 00ad 00       		.byte	0
 5686 00ae 00       		.byte	0
 5687 00af 10       		.uleb128 0x10
 5688 00b0 15       		.uleb128 0x15
 5689 00b1 01       		.byte	0x1
 5690 00b2 27       		.uleb128 0x27
 5691 00b3 19       		.uleb128 0x19
 5692 00b4 01       		.uleb128 0x1
 5693 00b5 13       		.uleb128 0x13
 5694 00b6 00       		.byte	0
 5695 00b7 00       		.byte	0
 5696 00b8 11       		.uleb128 0x11
 5697 00b9 05       		.uleb128 0x5
 5698 00ba 00       		.byte	0
 5699 00bb 49       		.uleb128 0x49
 5700 00bc 13       		.uleb128 0x13
 5701 00bd 00       		.byte	0
 5702 00be 00       		.byte	0
 5703 00bf 12       		.uleb128 0x12
 5704 00c0 13       		.uleb128 0x13
 5705 00c1 01       		.byte	0x1
 5706 00c2 03       		.uleb128 0x3
 5707 00c3 0E       		.uleb128 0xe
 5708 00c4 0B       		.uleb128 0xb
 5709 00c5 05       		.uleb128 0x5
 5710 00c6 3A       		.uleb128 0x3a
 5711 00c7 0B       		.uleb128 0xb
 5712 00c8 3B       		.uleb128 0x3b
 5713 00c9 05       		.uleb128 0x5
 5714 00ca 01       		.uleb128 0x1
 5715 00cb 13       		.uleb128 0x13
 5716 00cc 00       		.byte	0
 5717 00cd 00       		.byte	0
 5718 00ce 13       		.uleb128 0x13
 5719 00cf 0D       		.uleb128 0xd
 5720 00d0 00       		.byte	0
 5721 00d1 03       		.uleb128 0x3
 5722 00d2 08       		.uleb128 0x8
 5723 00d3 3A       		.uleb128 0x3a
 5724 00d4 0B       		.uleb128 0xb
 5725 00d5 3B       		.uleb128 0x3b
 5726 00d6 0B       		.uleb128 0xb
 5727 00d7 49       		.uleb128 0x49
 5728 00d8 13       		.uleb128 0x13
 5729 00d9 38       		.uleb128 0x38
 5730 00da 0B       		.uleb128 0xb
 5731 00db 00       		.byte	0
 5732 00dc 00       		.byte	0
 5733 00dd 14       		.uleb128 0x14
 5734 00de 13       		.uleb128 0x13
ARM GAS  /tmp/cc1C8LBe.s 			page 102


 5735 00df 01       		.byte	0x1
 5736 00e0 0B       		.uleb128 0xb
 5737 00e1 0B       		.uleb128 0xb
 5738 00e2 3A       		.uleb128 0x3a
 5739 00e3 0B       		.uleb128 0xb
 5740 00e4 3B       		.uleb128 0x3b
 5741 00e5 0B       		.uleb128 0xb
 5742 00e6 01       		.uleb128 0x1
 5743 00e7 13       		.uleb128 0x13
 5744 00e8 00       		.byte	0
 5745 00e9 00       		.byte	0
 5746 00ea 15       		.uleb128 0x15
 5747 00eb 17       		.uleb128 0x17
 5748 00ec 01       		.byte	0x1
 5749 00ed 0B       		.uleb128 0xb
 5750 00ee 0B       		.uleb128 0xb
 5751 00ef 3A       		.uleb128 0x3a
 5752 00f0 0B       		.uleb128 0xb
 5753 00f1 3B       		.uleb128 0x3b
 5754 00f2 0B       		.uleb128 0xb
 5755 00f3 01       		.uleb128 0x1
 5756 00f4 13       		.uleb128 0x13
 5757 00f5 00       		.byte	0
 5758 00f6 00       		.byte	0
 5759 00f7 16       		.uleb128 0x16
 5760 00f8 0D       		.uleb128 0xd
 5761 00f9 00       		.byte	0
 5762 00fa 03       		.uleb128 0x3
 5763 00fb 0E       		.uleb128 0xe
 5764 00fc 3A       		.uleb128 0x3a
 5765 00fd 0B       		.uleb128 0xb
 5766 00fe 3B       		.uleb128 0x3b
 5767 00ff 05       		.uleb128 0x5
 5768 0100 49       		.uleb128 0x49
 5769 0101 13       		.uleb128 0x13
 5770 0102 00       		.byte	0
 5771 0103 00       		.byte	0
 5772 0104 17       		.uleb128 0x17
 5773 0105 04       		.uleb128 0x4
 5774 0106 01       		.byte	0x1
 5775 0107 0B       		.uleb128 0xb
 5776 0108 0B       		.uleb128 0xb
 5777 0109 3A       		.uleb128 0x3a
 5778 010a 0B       		.uleb128 0xb
 5779 010b 3B       		.uleb128 0x3b
 5780 010c 05       		.uleb128 0x5
 5781 010d 01       		.uleb128 0x1
 5782 010e 13       		.uleb128 0x13
 5783 010f 00       		.byte	0
 5784 0110 00       		.byte	0
 5785 0111 18       		.uleb128 0x18
 5786 0112 28       		.uleb128 0x28
 5787 0113 00       		.byte	0
 5788 0114 03       		.uleb128 0x3
 5789 0115 0E       		.uleb128 0xe
 5790 0116 1C       		.uleb128 0x1c
 5791 0117 0D       		.uleb128 0xd
ARM GAS  /tmp/cc1C8LBe.s 			page 103


 5792 0118 00       		.byte	0
 5793 0119 00       		.byte	0
 5794 011a 19       		.uleb128 0x19
 5795 011b 16       		.uleb128 0x16
 5796 011c 00       		.byte	0
 5797 011d 03       		.uleb128 0x3
 5798 011e 0E       		.uleb128 0xe
 5799 011f 3A       		.uleb128 0x3a
 5800 0120 0B       		.uleb128 0xb
 5801 0121 3B       		.uleb128 0x3b
 5802 0122 05       		.uleb128 0x5
 5803 0123 49       		.uleb128 0x49
 5804 0124 13       		.uleb128 0x13
 5805 0125 00       		.byte	0
 5806 0126 00       		.byte	0
 5807 0127 1A       		.uleb128 0x1a
 5808 0128 13       		.uleb128 0x13
 5809 0129 01       		.byte	0x1
 5810 012a 0B       		.uleb128 0xb
 5811 012b 0B       		.uleb128 0xb
 5812 012c 3A       		.uleb128 0x3a
 5813 012d 0B       		.uleb128 0xb
 5814 012e 3B       		.uleb128 0x3b
 5815 012f 05       		.uleb128 0x5
 5816 0130 01       		.uleb128 0x1
 5817 0131 13       		.uleb128 0x13
 5818 0132 00       		.byte	0
 5819 0133 00       		.byte	0
 5820 0134 1B       		.uleb128 0x1b
 5821 0135 15       		.uleb128 0x15
 5822 0136 01       		.byte	0x1
 5823 0137 27       		.uleb128 0x27
 5824 0138 19       		.uleb128 0x19
 5825 0139 49       		.uleb128 0x49
 5826 013a 13       		.uleb128 0x13
 5827 013b 01       		.uleb128 0x1
 5828 013c 13       		.uleb128 0x13
 5829 013d 00       		.byte	0
 5830 013e 00       		.byte	0
 5831 013f 1C       		.uleb128 0x1c
 5832 0140 13       		.uleb128 0x13
 5833 0141 01       		.byte	0x1
 5834 0142 0B       		.uleb128 0xb
 5835 0143 06       		.uleb128 0x6
 5836 0144 3A       		.uleb128 0x3a
 5837 0145 0B       		.uleb128 0xb
 5838 0146 3B       		.uleb128 0x3b
 5839 0147 0B       		.uleb128 0xb
 5840 0148 01       		.uleb128 0x1
 5841 0149 13       		.uleb128 0x13
 5842 014a 00       		.byte	0
 5843 014b 00       		.byte	0
 5844 014c 1D       		.uleb128 0x1d
 5845 014d 0D       		.uleb128 0xd
 5846 014e 00       		.byte	0
 5847 014f 03       		.uleb128 0x3
 5848 0150 0E       		.uleb128 0xe
ARM GAS  /tmp/cc1C8LBe.s 			page 104


 5849 0151 3A       		.uleb128 0x3a
 5850 0152 0B       		.uleb128 0xb
 5851 0153 3B       		.uleb128 0x3b
 5852 0154 0B       		.uleb128 0xb
 5853 0155 49       		.uleb128 0x49
 5854 0156 13       		.uleb128 0x13
 5855 0157 38       		.uleb128 0x38
 5856 0158 05       		.uleb128 0x5
 5857 0159 00       		.byte	0
 5858 015a 00       		.byte	0
 5859 015b 1E       		.uleb128 0x1e
 5860 015c 0D       		.uleb128 0xd
 5861 015d 00       		.byte	0
 5862 015e 03       		.uleb128 0x3
 5863 015f 08       		.uleb128 0x8
 5864 0160 3A       		.uleb128 0x3a
 5865 0161 0B       		.uleb128 0xb
 5866 0162 3B       		.uleb128 0x3b
 5867 0163 0B       		.uleb128 0xb
 5868 0164 49       		.uleb128 0x49
 5869 0165 13       		.uleb128 0x13
 5870 0166 38       		.uleb128 0x38
 5871 0167 05       		.uleb128 0x5
 5872 0168 00       		.byte	0
 5873 0169 00       		.byte	0
 5874 016a 1F       		.uleb128 0x1f
 5875 016b 21       		.uleb128 0x21
 5876 016c 00       		.byte	0
 5877 016d 49       		.uleb128 0x49
 5878 016e 13       		.uleb128 0x13
 5879 016f 2F       		.uleb128 0x2f
 5880 0170 05       		.uleb128 0x5
 5881 0171 00       		.byte	0
 5882 0172 00       		.byte	0
 5883 0173 20       		.uleb128 0x20
 5884 0174 0D       		.uleb128 0xd
 5885 0175 00       		.byte	0
 5886 0176 03       		.uleb128 0x3
 5887 0177 0E       		.uleb128 0xe
 5888 0178 3A       		.uleb128 0x3a
 5889 0179 0B       		.uleb128 0xb
 5890 017a 3B       		.uleb128 0x3b
 5891 017b 0B       		.uleb128 0xb
 5892 017c 49       		.uleb128 0x49
 5893 017d 13       		.uleb128 0x13
 5894 017e 00       		.byte	0
 5895 017f 00       		.byte	0
 5896 0180 21       		.uleb128 0x21
 5897 0181 17       		.uleb128 0x17
 5898 0182 01       		.byte	0x1
 5899 0183 0B       		.uleb128 0xb
 5900 0184 0B       		.uleb128 0xb
 5901 0185 3A       		.uleb128 0x3a
 5902 0186 0B       		.uleb128 0xb
 5903 0187 3B       		.uleb128 0x3b
 5904 0188 05       		.uleb128 0x5
 5905 0189 01       		.uleb128 0x1
ARM GAS  /tmp/cc1C8LBe.s 			page 105


 5906 018a 13       		.uleb128 0x13
 5907 018b 00       		.byte	0
 5908 018c 00       		.byte	0
 5909 018d 22       		.uleb128 0x22
 5910 018e 2E       		.uleb128 0x2e
 5911 018f 01       		.byte	0x1
 5912 0190 03       		.uleb128 0x3
 5913 0191 0E       		.uleb128 0xe
 5914 0192 3A       		.uleb128 0x3a
 5915 0193 0B       		.uleb128 0xb
 5916 0194 3B       		.uleb128 0x3b
 5917 0195 05       		.uleb128 0x5
 5918 0196 27       		.uleb128 0x27
 5919 0197 19       		.uleb128 0x19
 5920 0198 20       		.uleb128 0x20
 5921 0199 0B       		.uleb128 0xb
 5922 019a 01       		.uleb128 0x1
 5923 019b 13       		.uleb128 0x13
 5924 019c 00       		.byte	0
 5925 019d 00       		.byte	0
 5926 019e 23       		.uleb128 0x23
 5927 019f 05       		.uleb128 0x5
 5928 01a0 00       		.byte	0
 5929 01a1 03       		.uleb128 0x3
 5930 01a2 0E       		.uleb128 0xe
 5931 01a3 3A       		.uleb128 0x3a
 5932 01a4 0B       		.uleb128 0xb
 5933 01a5 3B       		.uleb128 0x3b
 5934 01a6 05       		.uleb128 0x5
 5935 01a7 49       		.uleb128 0x49
 5936 01a8 13       		.uleb128 0x13
 5937 01a9 00       		.byte	0
 5938 01aa 00       		.byte	0
 5939 01ab 24       		.uleb128 0x24
 5940 01ac 2E       		.uleb128 0x2e
 5941 01ad 01       		.byte	0x1
 5942 01ae 03       		.uleb128 0x3
 5943 01af 0E       		.uleb128 0xe
 5944 01b0 3A       		.uleb128 0x3a
 5945 01b1 0B       		.uleb128 0xb
 5946 01b2 3B       		.uleb128 0x3b
 5947 01b3 05       		.uleb128 0x5
 5948 01b4 27       		.uleb128 0x27
 5949 01b5 19       		.uleb128 0x19
 5950 01b6 11       		.uleb128 0x11
 5951 01b7 01       		.uleb128 0x1
 5952 01b8 12       		.uleb128 0x12
 5953 01b9 06       		.uleb128 0x6
 5954 01ba 40       		.uleb128 0x40
 5955 01bb 18       		.uleb128 0x18
 5956 01bc 9742     		.uleb128 0x2117
 5957 01be 19       		.uleb128 0x19
 5958 01bf 01       		.uleb128 0x1
 5959 01c0 13       		.uleb128 0x13
 5960 01c1 00       		.byte	0
 5961 01c2 00       		.byte	0
 5962 01c3 25       		.uleb128 0x25
ARM GAS  /tmp/cc1C8LBe.s 			page 106


 5963 01c4 1D       		.uleb128 0x1d
 5964 01c5 01       		.byte	0x1
 5965 01c6 31       		.uleb128 0x31
 5966 01c7 13       		.uleb128 0x13
 5967 01c8 11       		.uleb128 0x11
 5968 01c9 01       		.uleb128 0x1
 5969 01ca 12       		.uleb128 0x12
 5970 01cb 06       		.uleb128 0x6
 5971 01cc 58       		.uleb128 0x58
 5972 01cd 0B       		.uleb128 0xb
 5973 01ce 59       		.uleb128 0x59
 5974 01cf 05       		.uleb128 0x5
 5975 01d0 00       		.byte	0
 5976 01d1 00       		.byte	0
 5977 01d2 26       		.uleb128 0x26
 5978 01d3 05       		.uleb128 0x5
 5979 01d4 00       		.byte	0
 5980 01d5 31       		.uleb128 0x31
 5981 01d6 13       		.uleb128 0x13
 5982 01d7 02       		.uleb128 0x2
 5983 01d8 18       		.uleb128 0x18
 5984 01d9 00       		.byte	0
 5985 01da 00       		.byte	0
 5986 01db 27       		.uleb128 0x27
 5987 01dc 2E       		.uleb128 0x2e
 5988 01dd 00       		.byte	0
 5989 01de 03       		.uleb128 0x3
 5990 01df 0E       		.uleb128 0xe
 5991 01e0 3A       		.uleb128 0x3a
 5992 01e1 0B       		.uleb128 0xb
 5993 01e2 3B       		.uleb128 0x3b
 5994 01e3 05       		.uleb128 0x5
 5995 01e4 27       		.uleb128 0x27
 5996 01e5 19       		.uleb128 0x19
 5997 01e6 11       		.uleb128 0x11
 5998 01e7 01       		.uleb128 0x1
 5999 01e8 12       		.uleb128 0x12
 6000 01e9 06       		.uleb128 0x6
 6001 01ea 40       		.uleb128 0x40
 6002 01eb 18       		.uleb128 0x18
 6003 01ec 9642     		.uleb128 0x2116
 6004 01ee 19       		.uleb128 0x19
 6005 01ef 00       		.byte	0
 6006 01f0 00       		.byte	0
 6007 01f1 28       		.uleb128 0x28
 6008 01f2 2E       		.uleb128 0x2e
 6009 01f3 01       		.byte	0x1
 6010 01f4 03       		.uleb128 0x3
 6011 01f5 0E       		.uleb128 0xe
 6012 01f6 3A       		.uleb128 0x3a
 6013 01f7 0B       		.uleb128 0xb
 6014 01f8 3B       		.uleb128 0x3b
 6015 01f9 05       		.uleb128 0x5
 6016 01fa 27       		.uleb128 0x27
 6017 01fb 19       		.uleb128 0x19
 6018 01fc 11       		.uleb128 0x11
 6019 01fd 01       		.uleb128 0x1
ARM GAS  /tmp/cc1C8LBe.s 			page 107


 6020 01fe 12       		.uleb128 0x12
 6021 01ff 06       		.uleb128 0x6
 6022 0200 40       		.uleb128 0x40
 6023 0201 18       		.uleb128 0x18
 6024 0202 9642     		.uleb128 0x2116
 6025 0204 19       		.uleb128 0x19
 6026 0205 01       		.uleb128 0x1
 6027 0206 13       		.uleb128 0x13
 6028 0207 00       		.byte	0
 6029 0208 00       		.byte	0
 6030 0209 29       		.uleb128 0x29
 6031 020a 34       		.uleb128 0x34
 6032 020b 00       		.byte	0
 6033 020c 03       		.uleb128 0x3
 6034 020d 0E       		.uleb128 0xe
 6035 020e 49       		.uleb128 0x49
 6036 020f 13       		.uleb128 0x13
 6037 0210 34       		.uleb128 0x34
 6038 0211 19       		.uleb128 0x19
 6039 0212 00       		.byte	0
 6040 0213 00       		.byte	0
 6041 0214 2A       		.uleb128 0x2a
 6042 0215 2E       		.uleb128 0x2e
 6043 0216 01       		.byte	0x1
 6044 0217 03       		.uleb128 0x3
 6045 0218 0E       		.uleb128 0xe
 6046 0219 3A       		.uleb128 0x3a
 6047 021a 0B       		.uleb128 0xb
 6048 021b 3B       		.uleb128 0x3b
 6049 021c 0B       		.uleb128 0xb
 6050 021d 27       		.uleb128 0x27
 6051 021e 19       		.uleb128 0x19
 6052 021f 49       		.uleb128 0x49
 6053 0220 13       		.uleb128 0x13
 6054 0221 11       		.uleb128 0x11
 6055 0222 01       		.uleb128 0x1
 6056 0223 12       		.uleb128 0x12
 6057 0224 06       		.uleb128 0x6
 6058 0225 40       		.uleb128 0x40
 6059 0226 18       		.uleb128 0x18
 6060 0227 9742     		.uleb128 0x2117
 6061 0229 19       		.uleb128 0x19
 6062 022a 01       		.uleb128 0x1
 6063 022b 13       		.uleb128 0x13
 6064 022c 00       		.byte	0
 6065 022d 00       		.byte	0
 6066 022e 2B       		.uleb128 0x2b
 6067 022f 05       		.uleb128 0x5
 6068 0230 00       		.byte	0
 6069 0231 03       		.uleb128 0x3
 6070 0232 08       		.uleb128 0x8
 6071 0233 3A       		.uleb128 0x3a
 6072 0234 0B       		.uleb128 0xb
 6073 0235 3B       		.uleb128 0x3b
 6074 0236 0B       		.uleb128 0xb
 6075 0237 49       		.uleb128 0x49
 6076 0238 13       		.uleb128 0x13
ARM GAS  /tmp/cc1C8LBe.s 			page 108


 6077 0239 02       		.uleb128 0x2
 6078 023a 18       		.uleb128 0x18
 6079 023b 00       		.byte	0
 6080 023c 00       		.byte	0
 6081 023d 2C       		.uleb128 0x2c
 6082 023e 34       		.uleb128 0x34
 6083 023f 00       		.byte	0
 6084 0240 03       		.uleb128 0x3
 6085 0241 08       		.uleb128 0x8
 6086 0242 3A       		.uleb128 0x3a
 6087 0243 0B       		.uleb128 0xb
 6088 0244 3B       		.uleb128 0x3b
 6089 0245 0B       		.uleb128 0xb
 6090 0246 49       		.uleb128 0x49
 6091 0247 13       		.uleb128 0x13
 6092 0248 02       		.uleb128 0x2
 6093 0249 18       		.uleb128 0x18
 6094 024a 00       		.byte	0
 6095 024b 00       		.byte	0
 6096 024c 2D       		.uleb128 0x2d
 6097 024d 2E       		.uleb128 0x2e
 6098 024e 01       		.byte	0x1
 6099 024f 03       		.uleb128 0x3
 6100 0250 0E       		.uleb128 0xe
 6101 0251 3A       		.uleb128 0x3a
 6102 0252 0B       		.uleb128 0xb
 6103 0253 3B       		.uleb128 0x3b
 6104 0254 0B       		.uleb128 0xb
 6105 0255 27       		.uleb128 0x27
 6106 0256 19       		.uleb128 0x19
 6107 0257 11       		.uleb128 0x11
 6108 0258 01       		.uleb128 0x1
 6109 0259 12       		.uleb128 0x12
 6110 025a 06       		.uleb128 0x6
 6111 025b 40       		.uleb128 0x40
 6112 025c 18       		.uleb128 0x18
 6113 025d 9642     		.uleb128 0x2116
 6114 025f 19       		.uleb128 0x19
 6115 0260 01       		.uleb128 0x1
 6116 0261 13       		.uleb128 0x13
 6117 0262 00       		.byte	0
 6118 0263 00       		.byte	0
 6119 0264 2E       		.uleb128 0x2e
 6120 0265 05       		.uleb128 0x5
 6121 0266 00       		.byte	0
 6122 0267 03       		.uleb128 0x3
 6123 0268 0E       		.uleb128 0xe
 6124 0269 3A       		.uleb128 0x3a
 6125 026a 0B       		.uleb128 0xb
 6126 026b 3B       		.uleb128 0x3b
 6127 026c 0B       		.uleb128 0xb
 6128 026d 49       		.uleb128 0x49
 6129 026e 13       		.uleb128 0x13
 6130 026f 02       		.uleb128 0x2
 6131 0270 18       		.uleb128 0x18
 6132 0271 00       		.byte	0
 6133 0272 00       		.byte	0
ARM GAS  /tmp/cc1C8LBe.s 			page 109


 6134 0273 2F       		.uleb128 0x2f
 6135 0274 2E       		.uleb128 0x2e
 6136 0275 01       		.byte	0x1
 6137 0276 03       		.uleb128 0x3
 6138 0277 0E       		.uleb128 0xe
 6139 0278 3A       		.uleb128 0x3a
 6140 0279 0B       		.uleb128 0xb
 6141 027a 3B       		.uleb128 0x3b
 6142 027b 0B       		.uleb128 0xb
 6143 027c 27       		.uleb128 0x27
 6144 027d 19       		.uleb128 0x19
 6145 027e 49       		.uleb128 0x49
 6146 027f 13       		.uleb128 0x13
 6147 0280 11       		.uleb128 0x11
 6148 0281 01       		.uleb128 0x1
 6149 0282 12       		.uleb128 0x12
 6150 0283 06       		.uleb128 0x6
 6151 0284 40       		.uleb128 0x40
 6152 0285 18       		.uleb128 0x18
 6153 0286 9642     		.uleb128 0x2116
 6154 0288 19       		.uleb128 0x19
 6155 0289 01       		.uleb128 0x1
 6156 028a 13       		.uleb128 0x13
 6157 028b 00       		.byte	0
 6158 028c 00       		.byte	0
 6159 028d 30       		.uleb128 0x30
 6160 028e 2E       		.uleb128 0x2e
 6161 028f 00       		.byte	0
 6162 0290 3F       		.uleb128 0x3f
 6163 0291 19       		.uleb128 0x19
 6164 0292 03       		.uleb128 0x3
 6165 0293 0E       		.uleb128 0xe
 6166 0294 3A       		.uleb128 0x3a
 6167 0295 0B       		.uleb128 0xb
 6168 0296 3B       		.uleb128 0x3b
 6169 0297 0B       		.uleb128 0xb
 6170 0298 27       		.uleb128 0x27
 6171 0299 19       		.uleb128 0x19
 6172 029a 11       		.uleb128 0x11
 6173 029b 01       		.uleb128 0x1
 6174 029c 12       		.uleb128 0x12
 6175 029d 06       		.uleb128 0x6
 6176 029e 40       		.uleb128 0x40
 6177 029f 18       		.uleb128 0x18
 6178 02a0 9642     		.uleb128 0x2116
 6179 02a2 19       		.uleb128 0x19
 6180 02a3 00       		.byte	0
 6181 02a4 00       		.byte	0
 6182 02a5 31       		.uleb128 0x31
 6183 02a6 2E       		.uleb128 0x2e
 6184 02a7 01       		.byte	0x1
 6185 02a8 3F       		.uleb128 0x3f
 6186 02a9 19       		.uleb128 0x19
 6187 02aa 03       		.uleb128 0x3
 6188 02ab 0E       		.uleb128 0xe
 6189 02ac 3A       		.uleb128 0x3a
 6190 02ad 0B       		.uleb128 0xb
ARM GAS  /tmp/cc1C8LBe.s 			page 110


 6191 02ae 3B       		.uleb128 0x3b
 6192 02af 05       		.uleb128 0x5
 6193 02b0 27       		.uleb128 0x27
 6194 02b1 19       		.uleb128 0x19
 6195 02b2 11       		.uleb128 0x11
 6196 02b3 01       		.uleb128 0x1
 6197 02b4 12       		.uleb128 0x12
 6198 02b5 06       		.uleb128 0x6
 6199 02b6 40       		.uleb128 0x40
 6200 02b7 18       		.uleb128 0x18
 6201 02b8 9742     		.uleb128 0x2117
 6202 02ba 19       		.uleb128 0x19
 6203 02bb 01       		.uleb128 0x1
 6204 02bc 13       		.uleb128 0x13
 6205 02bd 00       		.byte	0
 6206 02be 00       		.byte	0
 6207 02bf 32       		.uleb128 0x32
 6208 02c0 05       		.uleb128 0x5
 6209 02c1 00       		.byte	0
 6210 02c2 03       		.uleb128 0x3
 6211 02c3 0E       		.uleb128 0xe
 6212 02c4 3A       		.uleb128 0x3a
 6213 02c5 0B       		.uleb128 0xb
 6214 02c6 3B       		.uleb128 0x3b
 6215 02c7 05       		.uleb128 0x5
 6216 02c8 49       		.uleb128 0x49
 6217 02c9 13       		.uleb128 0x13
 6218 02ca 02       		.uleb128 0x2
 6219 02cb 18       		.uleb128 0x18
 6220 02cc 00       		.byte	0
 6221 02cd 00       		.byte	0
 6222 02ce 33       		.uleb128 0x33
 6223 02cf 34       		.uleb128 0x34
 6224 02d0 00       		.byte	0
 6225 02d1 03       		.uleb128 0x3
 6226 02d2 08       		.uleb128 0x8
 6227 02d3 3A       		.uleb128 0x3a
 6228 02d4 0B       		.uleb128 0xb
 6229 02d5 3B       		.uleb128 0x3b
 6230 02d6 05       		.uleb128 0x5
 6231 02d7 49       		.uleb128 0x49
 6232 02d8 13       		.uleb128 0x13
 6233 02d9 02       		.uleb128 0x2
 6234 02da 18       		.uleb128 0x18
 6235 02db 00       		.byte	0
 6236 02dc 00       		.byte	0
 6237 02dd 34       		.uleb128 0x34
 6238 02de 2E       		.uleb128 0x2e
 6239 02df 01       		.byte	0x1
 6240 02e0 3F       		.uleb128 0x3f
 6241 02e1 19       		.uleb128 0x19
 6242 02e2 03       		.uleb128 0x3
 6243 02e3 0E       		.uleb128 0xe
 6244 02e4 3A       		.uleb128 0x3a
 6245 02e5 0B       		.uleb128 0xb
 6246 02e6 3B       		.uleb128 0x3b
 6247 02e7 05       		.uleb128 0x5
ARM GAS  /tmp/cc1C8LBe.s 			page 111


 6248 02e8 27       		.uleb128 0x27
 6249 02e9 19       		.uleb128 0x19
 6250 02ea 11       		.uleb128 0x11
 6251 02eb 01       		.uleb128 0x1
 6252 02ec 12       		.uleb128 0x12
 6253 02ed 06       		.uleb128 0x6
 6254 02ee 40       		.uleb128 0x40
 6255 02ef 18       		.uleb128 0x18
 6256 02f0 9642     		.uleb128 0x2116
 6257 02f2 19       		.uleb128 0x19
 6258 02f3 01       		.uleb128 0x1
 6259 02f4 13       		.uleb128 0x13
 6260 02f5 00       		.byte	0
 6261 02f6 00       		.byte	0
 6262 02f7 35       		.uleb128 0x35
 6263 02f8 05       		.uleb128 0x5
 6264 02f9 00       		.byte	0
 6265 02fa 03       		.uleb128 0x3
 6266 02fb 08       		.uleb128 0x8
 6267 02fc 3A       		.uleb128 0x3a
 6268 02fd 0B       		.uleb128 0xb
 6269 02fe 3B       		.uleb128 0x3b
 6270 02ff 05       		.uleb128 0x5
 6271 0300 49       		.uleb128 0x49
 6272 0301 13       		.uleb128 0x13
 6273 0302 02       		.uleb128 0x2
 6274 0303 18       		.uleb128 0x18
 6275 0304 00       		.byte	0
 6276 0305 00       		.byte	0
 6277 0306 36       		.uleb128 0x36
 6278 0307 2E       		.uleb128 0x2e
 6279 0308 01       		.byte	0x1
 6280 0309 3F       		.uleb128 0x3f
 6281 030a 19       		.uleb128 0x19
 6282 030b 03       		.uleb128 0x3
 6283 030c 0E       		.uleb128 0xe
 6284 030d 3A       		.uleb128 0x3a
 6285 030e 0B       		.uleb128 0xb
 6286 030f 3B       		.uleb128 0x3b
 6287 0310 05       		.uleb128 0x5
 6288 0311 27       		.uleb128 0x27
 6289 0312 19       		.uleb128 0x19
 6290 0313 49       		.uleb128 0x49
 6291 0314 13       		.uleb128 0x13
 6292 0315 11       		.uleb128 0x11
 6293 0316 01       		.uleb128 0x1
 6294 0317 12       		.uleb128 0x12
 6295 0318 06       		.uleb128 0x6
 6296 0319 40       		.uleb128 0x40
 6297 031a 18       		.uleb128 0x18
 6298 031b 9642     		.uleb128 0x2116
 6299 031d 19       		.uleb128 0x19
 6300 031e 01       		.uleb128 0x1
 6301 031f 13       		.uleb128 0x13
 6302 0320 00       		.byte	0
 6303 0321 00       		.byte	0
 6304 0322 37       		.uleb128 0x37
ARM GAS  /tmp/cc1C8LBe.s 			page 112


 6305 0323 34       		.uleb128 0x34
 6306 0324 00       		.byte	0
 6307 0325 03       		.uleb128 0x3
 6308 0326 0E       		.uleb128 0xe
 6309 0327 3A       		.uleb128 0x3a
 6310 0328 0B       		.uleb128 0xb
 6311 0329 3B       		.uleb128 0x3b
 6312 032a 0B       		.uleb128 0xb
 6313 032b 49       		.uleb128 0x49
 6314 032c 13       		.uleb128 0x13
 6315 032d 02       		.uleb128 0x2
 6316 032e 18       		.uleb128 0x18
 6317 032f 00       		.byte	0
 6318 0330 00       		.byte	0
 6319 0331 38       		.uleb128 0x38
 6320 0332 34       		.uleb128 0x34
 6321 0333 00       		.byte	0
 6322 0334 03       		.uleb128 0x3
 6323 0335 0E       		.uleb128 0xe
 6324 0336 3A       		.uleb128 0x3a
 6325 0337 0B       		.uleb128 0xb
 6326 0338 3B       		.uleb128 0x3b
 6327 0339 05       		.uleb128 0x5
 6328 033a 49       		.uleb128 0x49
 6329 033b 13       		.uleb128 0x13
 6330 033c 3F       		.uleb128 0x3f
 6331 033d 19       		.uleb128 0x19
 6332 033e 3C       		.uleb128 0x3c
 6333 033f 19       		.uleb128 0x19
 6334 0340 00       		.byte	0
 6335 0341 00       		.byte	0
 6336 0342 39       		.uleb128 0x39
 6337 0343 34       		.uleb128 0x34
 6338 0344 00       		.byte	0
 6339 0345 03       		.uleb128 0x3
 6340 0346 08       		.uleb128 0x8
 6341 0347 3A       		.uleb128 0x3a
 6342 0348 0B       		.uleb128 0xb
 6343 0349 3B       		.uleb128 0x3b
 6344 034a 05       		.uleb128 0x5
 6345 034b 49       		.uleb128 0x49
 6346 034c 13       		.uleb128 0x13
 6347 034d 3F       		.uleb128 0x3f
 6348 034e 19       		.uleb128 0x19
 6349 034f 3C       		.uleb128 0x3c
 6350 0350 19       		.uleb128 0x19
 6351 0351 00       		.byte	0
 6352 0352 00       		.byte	0
 6353 0353 00       		.byte	0
 6354              		.section	.debug_aranges,"",%progbits
 6355 0000 1C010000 		.4byte	0x11c
 6356 0004 0200     		.2byte	0x2
 6357 0006 00000000 		.4byte	.Ldebug_info0
 6358 000a 04       		.byte	0x4
 6359 000b 00       		.byte	0
 6360 000c 0000     		.2byte	0
 6361 000e 0000     		.2byte	0
ARM GAS  /tmp/cc1C8LBe.s 			page 113


 6362 0010 00000000 		.4byte	.LFB127
 6363 0014 10000000 		.4byte	.LFE127-.LFB127
 6364 0018 00000000 		.4byte	.LFB128
 6365 001c 10000000 		.4byte	.LFE128-.LFB128
 6366 0020 00000000 		.4byte	.LFB129
 6367 0024 08000000 		.4byte	.LFE129-.LFB129
 6368 0028 00000000 		.4byte	.LFB130
 6369 002c 08000000 		.4byte	.LFE130-.LFB130
 6370 0030 00000000 		.4byte	.LFB167
 6371 0034 08000000 		.4byte	.LFE167-.LFB167
 6372 0038 00000000 		.4byte	.LFB168
 6373 003c 08000000 		.4byte	.LFE168-.LFB168
 6374 0040 00000000 		.4byte	.LFB169
 6375 0044 08000000 		.4byte	.LFE169-.LFB169
 6376 0048 00000000 		.4byte	.LFB170
 6377 004c 08000000 		.4byte	.LFE170-.LFB170
 6378 0050 00000000 		.4byte	.LFB244
 6379 0054 08000000 		.4byte	.LFE244-.LFB244
 6380 0058 00000000 		.4byte	.LFB245
 6381 005c 08000000 		.4byte	.LFE245-.LFB245
 6382 0060 00000000 		.4byte	.LFB246
 6383 0064 08000000 		.4byte	.LFE246-.LFB246
 6384 0068 00000000 		.4byte	.LFB247
 6385 006c 08000000 		.4byte	.LFE247-.LFB247
 6386 0070 00000000 		.4byte	.LFB271
 6387 0074 2E000000 		.4byte	.LFE271-.LFB271
 6388 0078 00000000 		.4byte	.LFB272
 6389 007c 3A000000 		.4byte	.LFE272-.LFB272
 6390 0080 00000000 		.4byte	.LFB273
 6391 0084 A0030000 		.4byte	.LFE273-.LFB273
 6392 0088 00000000 		.4byte	.LFB274
 6393 008c 08000000 		.4byte	.LFE274-.LFB274
 6394 0090 00000000 		.4byte	.LFB275
 6395 0094 4C000000 		.4byte	.LFE275-.LFB275
 6396 0098 00000000 		.4byte	.LFB276
 6397 009c 48000000 		.4byte	.LFE276-.LFB276
 6398 00a0 00000000 		.4byte	.LFB277
 6399 00a4 20000000 		.4byte	.LFE277-.LFB277
 6400 00a8 00000000 		.4byte	.LFB278
 6401 00ac 5C000000 		.4byte	.LFE278-.LFB278
 6402 00b0 00000000 		.4byte	.LFB279
 6403 00b4 4E000000 		.4byte	.LFE279-.LFB279
 6404 00b8 00000000 		.4byte	.LFB280
 6405 00bc 4C000000 		.4byte	.LFE280-.LFB280
 6406 00c0 00000000 		.4byte	.LFB281
 6407 00c4 4C000000 		.4byte	.LFE281-.LFB281
 6408 00c8 00000000 		.4byte	.LFB282
 6409 00cc 4C000000 		.4byte	.LFE282-.LFB282
 6410 00d0 00000000 		.4byte	.LFB283
 6411 00d4 4C000000 		.4byte	.LFE283-.LFB283
 6412 00d8 00000000 		.4byte	.LFB284
 6413 00dc 56000000 		.4byte	.LFE284-.LFB284
 6414 00e0 00000000 		.4byte	.LFB285
 6415 00e4 56000000 		.4byte	.LFE285-.LFB285
 6416 00e8 00000000 		.4byte	.LFB286
 6417 00ec 3E000000 		.4byte	.LFE286-.LFB286
 6418 00f0 00000000 		.4byte	.LFB287
ARM GAS  /tmp/cc1C8LBe.s 			page 114


 6419 00f4 3E000000 		.4byte	.LFE287-.LFB287
 6420 00f8 00000000 		.4byte	.LFB288
 6421 00fc 64000000 		.4byte	.LFE288-.LFB288
 6422 0100 00000000 		.4byte	.LFB289
 6423 0104 76010000 		.4byte	.LFE289-.LFB289
 6424 0108 00000000 		.4byte	.LFB290
 6425 010c 04010000 		.4byte	.LFE290-.LFB290
 6426 0110 00000000 		.4byte	.LFB291
 6427 0114 BC000000 		.4byte	.LFE291-.LFB291
 6428 0118 00000000 		.4byte	0
 6429 011c 00000000 		.4byte	0
 6430              		.section	.debug_ranges,"",%progbits
 6431              	.Ldebug_ranges0:
 6432 0000 00000000 		.4byte	.LFB127
 6433 0004 10000000 		.4byte	.LFE127
 6434 0008 00000000 		.4byte	.LFB128
 6435 000c 10000000 		.4byte	.LFE128
 6436 0010 00000000 		.4byte	.LFB129
 6437 0014 08000000 		.4byte	.LFE129
 6438 0018 00000000 		.4byte	.LFB130
 6439 001c 08000000 		.4byte	.LFE130
 6440 0020 00000000 		.4byte	.LFB167
 6441 0024 08000000 		.4byte	.LFE167
 6442 0028 00000000 		.4byte	.LFB168
 6443 002c 08000000 		.4byte	.LFE168
 6444 0030 00000000 		.4byte	.LFB169
 6445 0034 08000000 		.4byte	.LFE169
 6446 0038 00000000 		.4byte	.LFB170
 6447 003c 08000000 		.4byte	.LFE170
 6448 0040 00000000 		.4byte	.LFB244
 6449 0044 08000000 		.4byte	.LFE244
 6450 0048 00000000 		.4byte	.LFB245
 6451 004c 08000000 		.4byte	.LFE245
 6452 0050 00000000 		.4byte	.LFB246
 6453 0054 08000000 		.4byte	.LFE246
 6454 0058 00000000 		.4byte	.LFB247
 6455 005c 08000000 		.4byte	.LFE247
 6456 0060 00000000 		.4byte	.LFB271
 6457 0064 2E000000 		.4byte	.LFE271
 6458 0068 00000000 		.4byte	.LFB272
 6459 006c 3A000000 		.4byte	.LFE272
 6460 0070 00000000 		.4byte	.LFB273
 6461 0074 A0030000 		.4byte	.LFE273
 6462 0078 00000000 		.4byte	.LFB274
 6463 007c 08000000 		.4byte	.LFE274
 6464 0080 00000000 		.4byte	.LFB275
 6465 0084 4C000000 		.4byte	.LFE275
 6466 0088 00000000 		.4byte	.LFB276
 6467 008c 48000000 		.4byte	.LFE276
 6468 0090 00000000 		.4byte	.LFB277
 6469 0094 20000000 		.4byte	.LFE277
 6470 0098 00000000 		.4byte	.LFB278
 6471 009c 5C000000 		.4byte	.LFE278
 6472 00a0 00000000 		.4byte	.LFB279
 6473 00a4 4E000000 		.4byte	.LFE279
 6474 00a8 00000000 		.4byte	.LFB280
 6475 00ac 4C000000 		.4byte	.LFE280
ARM GAS  /tmp/cc1C8LBe.s 			page 115


 6476 00b0 00000000 		.4byte	.LFB281
 6477 00b4 4C000000 		.4byte	.LFE281
 6478 00b8 00000000 		.4byte	.LFB282
 6479 00bc 4C000000 		.4byte	.LFE282
 6480 00c0 00000000 		.4byte	.LFB283
 6481 00c4 4C000000 		.4byte	.LFE283
 6482 00c8 00000000 		.4byte	.LFB284
 6483 00cc 56000000 		.4byte	.LFE284
 6484 00d0 00000000 		.4byte	.LFB285
 6485 00d4 56000000 		.4byte	.LFE285
 6486 00d8 00000000 		.4byte	.LFB286
 6487 00dc 3E000000 		.4byte	.LFE286
 6488 00e0 00000000 		.4byte	.LFB287
 6489 00e4 3E000000 		.4byte	.LFE287
 6490 00e8 00000000 		.4byte	.LFB288
 6491 00ec 64000000 		.4byte	.LFE288
 6492 00f0 00000000 		.4byte	.LFB289
 6493 00f4 76010000 		.4byte	.LFE289
 6494 00f8 00000000 		.4byte	.LFB290
 6495 00fc 04010000 		.4byte	.LFE290
 6496 0100 00000000 		.4byte	.LFB291
 6497 0104 BC000000 		.4byte	.LFE291
 6498 0108 00000000 		.4byte	0
 6499 010c 00000000 		.4byte	0
 6500              		.section	.debug_line,"",%progbits
 6501              	.Ldebug_line0:
 6502 0000 AF060000 		.section	.debug_str,"MS",%progbits,1
 6502      02009802 
 6502      00000201 
 6502      FB0E0D00 
 6502      01010101 
 6503              	.LASF2:
 6504 0000 73697A65 		.ascii	"size_t\000"
 6504      5F7400
 6505              	.LASF15:
 6506 0007 73697A65 		.ascii	"sizetype\000"
 6506      74797065 
 6506      00
 6507              	.LASF93:
 6508 0010 77747365 		.ascii	"wtsemp\000"
 6508      6D7000
 6509              	.LASF30:
 6510 0017 73797374 		.ascii	"systime_t\000"
 6510      696D655F 
 6510      7400
 6511              	.LASF322:
 6512 0021 2F686F6D 		.ascii	"/home/efe/ChibiOS/os/hal/src/usb.c\000"
 6512      652F6566 
 6512      652F4368 
 6512      6962694F 
 6512      532F6F73 
 6513              	.LASF35:
 6514 0044 705F6374 		.ascii	"p_ctx\000"
 6514      7800
 6515              	.LASF26:
 6516 004a 74707269 		.ascii	"tprio_t\000"
 6516      6F5F7400 
ARM GAS  /tmp/cc1C8LBe.s 			page 116


 6517              	.LASF43:
 6518 0052 705F6D73 		.ascii	"p_msgqueue\000"
 6518      67717565 
 6518      756500
 6519              	.LASF59:
 6520 005d 725F6374 		.ascii	"r_ctx\000"
 6520      7800
 6521              	.LASF19:
 6522 0063 696E7433 		.ascii	"int32_t\000"
 6522      325F7400 
 6523              	.LASF181:
 6524 006b 72657376 		.ascii	"resvd4\000"
 6524      643400
 6525              	.LASF172:
 6526 0072 72657376 		.ascii	"resvd8\000"
 6526      643800
 6527              	.LASF63:
 6528 0079 76746675 		.ascii	"vtfunc_t\000"
 6528      6E635F74 
 6528      00
 6529              	.LASF183:
 6530 0082 72657376 		.ascii	"resvdC\000"
 6530      644300
 6531              	.LASF72:
 6532 0089 63685F76 		.ascii	"ch_virtual_timers_list\000"
 6532      69727475 
 6532      616C5F74 
 6532      696D6572 
 6532      735F6C69 
 6533              	.LASF309:
 6534 00a0 75736253 		.ascii	"usbStartReceiveI\000"
 6534      74617274 
 6534      52656365 
 6534      69766549 
 6534      00
 6535              	.LASF300:
 6536 00b1 5F5F6675 		.ascii	"__func__\000"
 6536      6E635F5F 
 6536      00
 6537              	.LASF149:
 6538 00ba 5553425F 		.ascii	"USB_EP0_TX\000"
 6538      4550305F 
 6538      545800
 6539              	.LASF321:
 6540 00c5 474E5520 		.ascii	"GNU C 4.8.4 20141219 (release) -mcpu=cortex-m4 -mno"
 6540      4320342E 
 6540      382E3420 
 6540      32303134 
 6540      31323139 
 6541 00f8 2D746875 		.ascii	"-thumb-interwork -mthumb -ggdb -O0 -fomit-frame-poi"
 6541      6D622D69 
 6541      6E746572 
 6541      776F726B 
 6541      202D6D74 
 6542 012b 6E746572 		.ascii	"nter -falign-functions=16 -ffunction-sections -fdat"
 6542      202D6661 
 6542      6C69676E 
ARM GAS  /tmp/cc1C8LBe.s 			page 117


 6542      2D66756E 
 6542      6374696F 
 6543 015e 612D7365 		.ascii	"a-sections -fno-common\000"
 6543      6374696F 
 6543      6E73202D 
 6543      666E6F2D 
 6543      636F6D6D 
 6544              	.LASF221:
 6545 0175 72657376 		.ascii	"resvd700\000"
 6545      64373030 
 6545      00
 6546              	.LASF120:
 6547 017e 636F6E66 		.ascii	"config\000"
 6547      696700
 6548              	.LASF119:
 6549 0185 73746174 		.ascii	"state\000"
 6549      6500
 6550              	.LASF266:
 6551 018b 65705F6D 		.ascii	"ep_mode\000"
 6551      6F646500 
 6552              	.LASF308:
 6553 0193 75736250 		.ascii	"usbPrepareQueuedTransmit\000"
 6553      72657061 
 6553      72655175 
 6553      65756564 
 6553      5472616E 
 6554              	.LASF143:
 6555 01ac 5553425F 		.ascii	"USB_ACTIVE\000"
 6555      41435449 
 6555      564500
 6556              	.LASF316:
 6557 01b7 5F757362 		.ascii	"_usb_ep0out\000"
 6557      5F657030 
 6557      6F757400 
 6558              	.LASF292:
 6559 01c3 6F73616C 		.ascii	"osalSysLockFromISR\000"
 6559      5379734C 
 6559      6F636B46 
 6559      726F6D49 
 6559      535200
 6560              	.LASF291:
 6561 01d6 6F73616C 		.ascii	"osalSysUnlock\000"
 6561      53797355 
 6561      6E6C6F63 
 6561      6B00
 6562              	.LASF101:
 6563 01e4 6D5F6F77 		.ascii	"m_owner\000"
 6563      6E657200 
 6564              	.LASF70:
 6565 01ec 76745F70 		.ascii	"vt_par\000"
 6565      617200
 6566              	.LASF90:
 6567 01f3 65786974 		.ascii	"exitcode\000"
 6567      636F6465 
 6567      00
 6568              	.LASF155:
 6569 01fc 75736265 		.ascii	"usbep0state_t\000"
ARM GAS  /tmp/cc1C8LBe.s 			page 118


 6569      70307374 
 6569      6174655F 
 6569      7400
 6570              	.LASF3:
 6571 020a 5F5F7569 		.ascii	"__uint8_t\000"
 6571      6E74385F 
 6571      7400
 6572              	.LASF109:
 6573 0214 715F746F 		.ascii	"q_top\000"
 6573      7000
 6574              	.LASF108:
 6575 021a 715F6275 		.ascii	"q_buffer\000"
 6575      66666572 
 6575      00
 6576              	.LASF157:
 6577 0223 5553425F 		.ascii	"USB_EVENT_ADDRESS\000"
 6577      4556454E 
 6577      545F4144 
 6577      44524553 
 6577      5300
 6578              	.LASF202:
 6579 0235 44494550 		.ascii	"DIEPTXF0\000"
 6579      54584630 
 6579      00
 6580              	.LASF112:
 6581 023e 715F6E6F 		.ascii	"q_notify\000"
 6581      74696679 
 6581      00
 6582              	.LASF36:
 6583 0247 705F6E65 		.ascii	"p_newer\000"
 6583      77657200 
 6584              	.LASF9:
 6585 024f 6C6F6E67 		.ascii	"long int\000"
 6585      20696E74 
 6585      00
 6586              	.LASF32:
 6587 0258 705F6E65 		.ascii	"p_next\000"
 6587      787400
 6588              	.LASF283:
 6589 025f 706F7274 		.ascii	"port_unlock\000"
 6589      5F756E6C 
 6589      6F636B00 
 6590              	.LASF111:
 6591 026b 715F7264 		.ascii	"q_rdptr\000"
 6591      70747200 
 6592              	.LASF256:
 6593 0273 7478636E 		.ascii	"txcnt\000"
 6593      7400
 6594              	.LASF33:
 6595 0279 705F7072 		.ascii	"p_prev\000"
 6595      657600
 6596              	.LASF288:
 6597 0280 63685379 		.ascii	"chSysLockFromISR\000"
 6597      734C6F63 
 6597      6B46726F 
 6597      6D495352 
 6597      00
ARM GAS  /tmp/cc1C8LBe.s 			page 119


 6598              	.LASF24:
 6599 0291 74737461 		.ascii	"tstate_t\000"
 6599      74655F74 
 6599      00
 6600              	.LASF53:
 6601 029a 74687265 		.ascii	"threads_queue_t\000"
 6601      6164735F 
 6601      71756575 
 6601      655F7400 
 6602              	.LASF46:
 6603 02aa 705F6D74 		.ascii	"p_mtxlist\000"
 6603      786C6973 
 6603      7400
 6604              	.LASF250:
 6605 02b4 74786275 		.ascii	"txbuf\000"
 6605      6600
 6606              	.LASF83:
 6607 02ba 72656761 		.ascii	"regarm_t\000"
 6607      726D5F74 
 6607      00
 6608              	.LASF228:
 6609 02c3 4441494E 		.ascii	"DAINT\000"
 6609      5400
 6610              	.LASF148:
 6611 02c9 5553425F 		.ascii	"USB_EP0_WAITING_SETUP\000"
 6611      4550305F 
 6611      57414954 
 6611      494E475F 
 6611      53455455 
 6612              	.LASF227:
 6613 02df 444F4550 		.ascii	"DOEPMSK\000"
 6613      4D534B00 
 6614              	.LASF298:
 6615 02e7 7573624F 		.ascii	"usbObjectInit\000"
 6615      626A6563 
 6615      74496E69 
 6615      7400
 6616              	.LASF105:
 6617 02f5 696F5F71 		.ascii	"io_queue\000"
 6617      75657565 
 6617      00
 6618              	.LASF296:
 6619 02fe 6765745F 		.ascii	"get_hword\000"
 6619      68776F72 
 6619      6400
 6620              	.LASF188:
 6621 0308 444F4550 		.ascii	"DOEPCTL\000"
 6621      43544C00 
 6622              	.LASF290:
 6623 0310 6F73616C 		.ascii	"osalSysLock\000"
 6623      5379734C 
 6623      6F636B00 
 6624              	.LASF319:
 6625 031c 68616C74 		.ascii	"halted_status\000"
 6625      65645F73 
 6625      74617475 
 6625      7300
ARM GAS  /tmp/cc1C8LBe.s 			page 120


 6626              	.LASF1:
 6627 032a 7369676E 		.ascii	"signed char\000"
 6627      65642063 
 6627      68617200 
 6628              	.LASF95:
 6629 0336 65776D61 		.ascii	"ewmask\000"
 6629      736B00
 6630              	.LASF17:
 6631 033d 75696E74 		.ascii	"uint8_t\000"
 6631      385F7400 
 6632              	.LASF161:
 6633 0345 5553425F 		.ascii	"USB_EVENT_STALLED\000"
 6633      4556454E 
 6633      545F5354 
 6633      414C4C45 
 6633      4400
 6634              	.LASF147:
 6635 0357 45505F53 		.ascii	"EP_STATUS_ACTIVE\000"
 6635      54415455 
 6635      535F4143 
 6635      54495645 
 6635      00
 6636              	.LASF189:
 6637 0368 444F4550 		.ascii	"DOEPINT\000"
 6637      494E5400 
 6638              	.LASF28:
 6639 0370 6576656E 		.ascii	"eventmask_t\000"
 6639      746D6173 
 6639      6B5F7400 
 6640              	.LASF85:
 6641 037c 636F6E74 		.ascii	"context\000"
 6641      65787400 
 6642              	.LASF263:
 6643 0384 72787369 		.ascii	"rxsize\000"
 6643      7A6500
 6644              	.LASF92:
 6645 038b 77747472 		.ascii	"wttrp\000"
 6645      7000
 6646              	.LASF289:
 6647 0391 63685379 		.ascii	"chSysUnlockFromISR\000"
 6647      73556E6C 
 6647      6F636B46 
 6647      726F6D49 
 6647      535200
 6648              	.LASF313:
 6649 03a4 5F757362 		.ascii	"_usb_reset\000"
 6649      5F726573 
 6649      657400
 6650              	.LASF4:
 6651 03af 756E7369 		.ascii	"unsigned char\000"
 6651      676E6564 
 6651      20636861 
 6651      7200
 6652              	.LASF154:
 6653 03bd 5553425F 		.ascii	"USB_EP0_ERROR\000"
 6653      4550305F 
 6653      4552524F 
ARM GAS  /tmp/cc1C8LBe.s 			page 121


 6653      5200
 6654              	.LASF113:
 6655 03cb 715F6C69 		.ascii	"q_link\000"
 6655      6E6B00
 6656              	.LASF76:
 6657 03d2 70616E69 		.ascii	"panic_msg\000"
 6657      635F6D73 
 6657      6700
 6658              	.LASF222:
 6659 03dc 44434647 		.ascii	"DCFG\000"
 6659      00
 6660              	.LASF240:
 6661 03e1 72657376 		.ascii	"resvd8C0\000"
 6661      64384330 
 6661      00
 6662              	.LASF60:
 6663 03ea 725F6E65 		.ascii	"r_newer\000"
 6663      77657200 
 6664              	.LASF206:
 6665 03f2 47434346 		.ascii	"GCCFG\000"
 6665      4700
 6666              	.LASF125:
 6667 03f8 65703073 		.ascii	"ep0state\000"
 6667      74617465 
 6667      00
 6668              	.LASF74:
 6669 0401 73797374 		.ascii	"system_debug_t\000"
 6669      656D5F64 
 6669      65627567 
 6669      5F7400
 6670              	.LASF184:
 6671 0410 44494550 		.ascii	"DIEPTSIZ\000"
 6671      5453495A 
 6671      00
 6672              	.LASF279:
 6673 0419 72657175 		.ascii	"requests_hook_cb\000"
 6673      65737473 
 6673      5F686F6F 
 6673      6B5F6362 
 6673      00
 6674              	.LASF117:
 6675 042a 5F426F6F 		.ascii	"_Bool\000"
 6675      6C00
 6676              	.LASF324:
 6677 0430 76616C75 		.ascii	"value\000"
 6677      6500
 6678              	.LASF211:
 6679 0436 48434647 		.ascii	"HCFG\000"
 6679      00
 6680              	.LASF171:
 6681 043b 48434348 		.ascii	"HCCHAR\000"
 6681      415200
 6682              	.LASF191:
 6683 0442 73746D33 		.ascii	"stm32_otg_out_ep_t\000"
 6683      325F6F74 
 6683      675F6F75 
 6683      745F6570 
ARM GAS  /tmp/cc1C8LBe.s 			page 122


 6683      5F7400
 6684              	.LASF16:
 6685 0455 63686172 		.ascii	"char\000"
 6685      00
 6686              	.LASF301:
 6687 045a 75736253 		.ascii	"usbStop\000"
 6687      746F7000 
 6688              	.LASF127:
 6689 0462 6570306E 		.ascii	"ep0n\000"
 6689      00
 6690              	.LASF225:
 6691 0467 72657376 		.ascii	"resvd80C\000"
 6691      64383043 
 6691      00
 6692              	.LASF219:
 6693 0470 48505254 		.ascii	"HPRT\000"
 6693      00
 6694              	.LASF34:
 6695 0475 705F7072 		.ascii	"p_prio\000"
 6695      696F00
 6696              	.LASF122:
 6697 047c 72656365 		.ascii	"receiving\000"
 6697      6976696E 
 6697      6700
 6698              	.LASF6:
 6699 0486 5F5F7569 		.ascii	"__uint16_t\000"
 6699      6E743136 
 6699      5F7400
 6700              	.LASF118:
 6701 0491 55534244 		.ascii	"USBDriver\000"
 6701      72697665 
 6701      7200
 6702              	.LASF91:
 6703 049b 77746F62 		.ascii	"wtobjp\000"
 6703      6A7000
 6704              	.LASF267:
 6705 04a2 73657475 		.ascii	"setup_cb\000"
 6705      705F6362 
 6705      00
 6706              	.LASF164:
 6707 04ab 75645F73 		.ascii	"ud_string\000"
 6707      7472696E 
 6707      6700
 6708              	.LASF268:
 6709 04b5 696E5F63 		.ascii	"in_cb\000"
 6709      6200
 6710              	.LASF84:
 6711 04bb 73746B61 		.ascii	"stkalign_t\000"
 6711      6C69676E 
 6711      5F7400
 6712              	.LASF304:
 6713 04c6 75736244 		.ascii	"usbDisableEndpointsI\000"
 6713      69736162 
 6713      6C65456E 
 6713      64706F69 
 6713      6E747349 
 6714              	.LASF213:
ARM GAS  /tmp/cc1C8LBe.s 			page 123


 6715 04db 48464E55 		.ascii	"HFNUM\000"
 6715      4D00
 6716              	.LASF168:
 6717 04e1 75736265 		.ascii	"usbeventcb_t\000"
 6717      76656E74 
 6717      63625F74 
 6717      00
 6718              	.LASF179:
 6719 04ee 73746D33 		.ascii	"stm32_otg_host_chn_t\000"
 6719      325F6F74 
 6719      675F686F 
 6719      73745F63 
 6719      686E5F74 
 6720              	.LASF121:
 6721 0503 7472616E 		.ascii	"transmitting\000"
 6721      736D6974 
 6721      74696E67 
 6721      00
 6722              	.LASF175:
 6723 0510 48435453 		.ascii	"HCTSIZ\000"
 6723      495A00
 6724              	.LASF259:
 6725 0517 55534249 		.ascii	"USBInEndpointState\000"
 6725      6E456E64 
 6725      706F696E 
 6725      74537461 
 6725      746500
 6726              	.LASF230:
 6727 052a 72657376 		.ascii	"resvd820\000"
 6727      64383230 
 6727      00
 6728              	.LASF231:
 6729 0533 72657376 		.ascii	"resvd824\000"
 6729      64383234 
 6729      00
 6730              	.LASF233:
 6731 053c 44564255 		.ascii	"DVBUSPULSE\000"
 6731      5350554C 
 6731      534500
 6732              	.LASF318:
 6733 0547 61637469 		.ascii	"active_status\000"
 6733      76655F73 
 6733      74617475 
 6733      7300
 6734              	.LASF29:
 6735 0555 636E745F 		.ascii	"cnt_t\000"
 6735      7400
 6736              	.LASF69:
 6737 055b 76745F66 		.ascii	"vt_func\000"
 6737      756E6300 
 6738              	.LASF165:
 6739 0563 55534244 		.ascii	"USBDescriptor\000"
 6739      65736372 
 6739      6970746F 
 6739      7200
 6740              	.LASF311:
 6741 0571 75736253 		.ascii	"usbStallReceiveI\000"
ARM GAS  /tmp/cc1C8LBe.s 			page 124


 6741      74616C6C 
 6741      52656365 
 6741      69766549 
 6741      00
 6742              	.LASF249:
 6743 0582 73746D33 		.ascii	"stm32_otg_params_t\000"
 6743      325F6F74 
 6743      675F7061 
 6743      72616D73 
 6743      5F7400
 6744              	.LASF129:
 6745 0595 73657475 		.ascii	"setup\000"
 6745      7000
 6746              	.LASF45:
 6747 059b 705F6570 		.ascii	"p_epending\000"
 6747      656E6469 
 6747      6E6700
 6748              	.LASF94:
 6749 05a6 77746D74 		.ascii	"wtmtxp\000"
 6749      787000
 6750              	.LASF162:
 6751 05ad 75736265 		.ascii	"usbevent_t\000"
 6751      76656E74 
 6751      5F7400
 6752              	.LASF56:
 6753 05b8 63685F72 		.ascii	"ch_ready_list\000"
 6753      65616479 
 6753      5F6C6973 
 6753      7400
 6754              	.LASF163:
 6755 05c6 75645F73 		.ascii	"ud_size\000"
 6755      697A6500 
 6756              	.LASF142:
 6757 05ce 5553425F 		.ascii	"USB_SELECTED\000"
 6757      53454C45 
 6757      43544544 
 6757      00
 6758              	.LASF132:
 6759 05db 636F6E66 		.ascii	"configuration\000"
 6759      69677572 
 6759      6174696F 
 6759      6E00
 6760              	.LASF201:
 6761 05e9 47525846 		.ascii	"GRXFSIZ\000"
 6761      53495A00 
 6762              	.LASF146:
 6763 05f1 45505F53 		.ascii	"EP_STATUS_STALLED\000"
 6763      54415455 
 6763      535F5354 
 6763      414C4C45 
 6763      4400
 6764              	.LASF293:
 6765 0603 6F73616C 		.ascii	"osalSysUnlockFromISR\000"
 6765      53797355 
 6765      6E6C6F63 
 6765      6B46726F 
 6765      6D495352 
ARM GAS  /tmp/cc1C8LBe.s 			page 125


 6766              	.LASF107:
 6767 0618 715F636F 		.ascii	"q_counter\000"
 6767      756E7465 
 6767      7200
 6768              	.LASF238:
 6769 0622 72657376 		.ascii	"resvd840\000"
 6769      64383430 
 6769      00
 6770              	.LASF13:
 6771 062b 5F5F7569 		.ascii	"__uint64_t\000"
 6771      6E743634 
 6771      5F7400
 6772              	.LASF209:
 6773 0636 44494550 		.ascii	"DIEPTXF\000"
 6773      54584600 
 6774              	.LASF312:
 6775 063e 75736253 		.ascii	"usbStallTransmitI\000"
 6775      74616C6C 
 6775      5472616E 
 6775      736D6974 
 6775      4900
 6776              	.LASF287:
 6777 0650 63685379 		.ascii	"chSysUnlock\000"
 6777      73556E6C 
 6777      6F636B00 
 6778              	.LASF11:
 6779 065c 6C6F6E67 		.ascii	"long unsigned int\000"
 6779      20756E73 
 6779      69676E65 
 6779      6420696E 
 6779      7400
 6780              	.LASF306:
 6781 066e 75736250 		.ascii	"usbPrepareTransmit\000"
 6781      72657061 
 6781      72655472 
 6781      616E736D 
 6781      697400
 6782              	.LASF286:
 6783 0681 63685379 		.ascii	"chSysLock\000"
 6783      734C6F63 
 6783      6B00
 6784              	.LASF130:
 6785 068b 73746174 		.ascii	"status\000"
 6785      757300
 6786              	.LASF317:
 6787 0692 7A65726F 		.ascii	"zero_status\000"
 6787      5F737461 
 6787      74757300 
 6788              	.LASF131:
 6789 069e 61646472 		.ascii	"address\000"
 6789      65737300 
 6790              	.LASF96:
 6791 06a6 63685F73 		.ascii	"ch_semaphore\000"
 6791      656D6170 
 6791      686F7265 
 6791      00
 6792              	.LASF128:
ARM GAS  /tmp/cc1C8LBe.s 			page 126


 6793 06b3 65703065 		.ascii	"ep0endcb\000"
 6793      6E646362 
 6793      00
 6794              	.LASF51:
 6795 06bc 63685F74 		.ascii	"ch_thread\000"
 6795      68726561 
 6795      6400
 6796              	.LASF194:
 6797 06c6 47414842 		.ascii	"GAHBCFG\000"
 6797      43464700 
 6798              	.LASF71:
 6799 06ce 76697274 		.ascii	"virtual_timers_list_t\000"
 6799      75616C5F 
 6799      74696D65 
 6799      72735F6C 
 6799      6973745F 
 6800              	.LASF274:
 6801 06e4 696E5F6D 		.ascii	"in_multiplier\000"
 6801      756C7469 
 6801      706C6965 
 6801      7200
 6802              	.LASF295:
 6803 06f2 75736270 		.ascii	"usbp\000"
 6803      00
 6804              	.LASF248:
 6805 06f7 6E756D5F 		.ascii	"num_endpoints\000"
 6805      656E6470 
 6805      6F696E74 
 6805      7300
 6806              	.LASF64:
 6807 0705 76697274 		.ascii	"virtual_timer_t\000"
 6807      75616C5F 
 6807      74696D65 
 6807      725F7400 
 6808              	.LASF55:
 6809 0715 72656164 		.ascii	"ready_list_t\000"
 6809      795F6C69 
 6809      73745F74 
 6809      00
 6810              	.LASF110:
 6811 0722 715F7772 		.ascii	"q_wrptr\000"
 6811      70747200 
 6812              	.LASF255:
 6813 072a 74787369 		.ascii	"txsize\000"
 6813      7A6500
 6814              	.LASF264:
 6815 0731 7278636E 		.ascii	"rxcnt\000"
 6815      7400
 6816              	.LASF144:
 6817 0737 75736273 		.ascii	"usbstate_t\000"
 6817      74617465 
 6817      5F7400
 6818              	.LASF52:
 6819 0742 63685F74 		.ascii	"ch_threads_list\000"
 6819      68726561 
 6819      64735F6C 
 6819      69737400 
ARM GAS  /tmp/cc1C8LBe.s 			page 127


 6820              	.LASF214:
 6821 0752 72657376 		.ascii	"resvd40C\000"
 6821      64343043 
 6821      00
 6822              	.LASF192:
 6823 075b 474F5447 		.ascii	"GOTGCTL\000"
 6823      43544C00 
 6824              	.LASF314:
 6825 0763 5F757362 		.ascii	"_usb_ep0setup\000"
 6825      5F657030 
 6825      73657475 
 6825      7000
 6826              	.LASF260:
 6827 0771 72786275 		.ascii	"rxbuf\000"
 6827      6600
 6828              	.LASF200:
 6829 0777 47525853 		.ascii	"GRXSTSP\000"
 6829      54535000 
 6830              	.LASF272:
 6831 077f 696E5F73 		.ascii	"in_state\000"
 6831      74617465 
 6831      00
 6832              	.LASF199:
 6833 0788 47525853 		.ascii	"GRXSTSR\000"
 6833      54535200 
 6834              	.LASF160:
 6835 0790 5553425F 		.ascii	"USB_EVENT_WAKEUP\000"
 6835      4556454E 
 6835      545F5741 
 6835      4B455550 
 6835      00
 6836              	.LASF242:
 6837 07a1 50434743 		.ascii	"PCGCCTL\000"
 6837      43544C00 
 6838              	.LASF10:
 6839 07a9 5F5F7569 		.ascii	"__uint32_t\000"
 6839      6E743332 
 6839      5F7400
 6840              	.LASF277:
 6841 07b4 6576656E 		.ascii	"event_cb\000"
 6841      745F6362 
 6841      00
 6842              	.LASF193:
 6843 07bd 474F5447 		.ascii	"GOTGINT\000"
 6843      494E5400 
 6844              	.LASF12:
 6845 07c5 6C6F6E67 		.ascii	"long long int\000"
 6845      206C6F6E 
 6845      6720696E 
 6845      7400
 6846              	.LASF141:
 6847 07d3 5553425F 		.ascii	"USB_READY\000"
 6847      52454144 
 6847      5900
 6848              	.LASF100:
 6849 07dd 6D5F7175 		.ascii	"m_queue\000"
 6849      65756500 
ARM GAS  /tmp/cc1C8LBe.s 			page 128


 6850              	.LASF284:
 6851 07e5 706F7274 		.ascii	"port_lock_from_isr\000"
 6851      5F6C6F63 
 6851      6B5F6672 
 6851      6F6D5F69 
 6851      737200
 6852              	.LASF218:
 6853 07f8 72657376 		.ascii	"resvd41C\000"
 6853      64343143 
 6853      00
 6854              	.LASF66:
 6855 0801 76745F6E 		.ascii	"vt_next\000"
 6855      65787400 
 6856              	.LASF126:
 6857 0809 6570306E 		.ascii	"ep0next\000"
 6857      65787400 
 6858              	.LASF67:
 6859 0811 76745F70 		.ascii	"vt_prev\000"
 6859      72657600 
 6860              	.LASF234:
 6861 0819 72657376 		.ascii	"resvd830\000"
 6861      64383330 
 6861      00
 6862              	.LASF236:
 6863 0822 72657376 		.ascii	"resvd838\000"
 6863      64383338 
 6863      00
 6864              	.LASF167:
 6865 082b 75736265 		.ascii	"usbepcallback_t\000"
 6865      7063616C 
 6865      6C626163 
 6865      6B5F7400 
 6866              	.LASF239:
 6867 083b 72657376 		.ascii	"resvd880\000"
 6867      64383830 
 6867      00
 6868              	.LASF320:
 6869 0844 49544D5F 		.ascii	"ITM_RxBuffer\000"
 6869      52784275 
 6869      66666572 
 6869      00
 6870              	.LASF237:
 6871 0851 72657376 		.ascii	"resvd83C\000"
 6871      64383343 
 6871      00
 6872              	.LASF136:
 6873 085a 77616974 		.ascii	"wait\000"
 6873      00
 6874              	.LASF114:
 6875 085f 716E6F74 		.ascii	"qnotify_t\000"
 6875      6966795F 
 6875      7400
 6876              	.LASF42:
 6877 0869 705F7761 		.ascii	"p_waiting\000"
 6877      6974696E 
 6877      6700
 6878              	.LASF40:
ARM GAS  /tmp/cc1C8LBe.s 			page 129


 6879 0873 705F666C 		.ascii	"p_flags\000"
 6879      61677300 
 6880              	.LASF190:
 6881 087b 444F4550 		.ascii	"DOEPTSIZ\000"
 6881      5453495A 
 6881      00
 6882              	.LASF82:
 6883 0884 69646C65 		.ascii	"idle_thread_wa\000"
 6883      5F746872 
 6883      6561645F 
 6883      776100
 6884              	.LASF216:
 6885 0893 4841494E 		.ascii	"HAINT\000"
 6885      5400
 6886              	.LASF0:
 6887 0899 756E7369 		.ascii	"unsigned int\000"
 6887      676E6564 
 6887      20696E74 
 6887      00
 6888              	.LASF281:
 6889 08a6 55534243 		.ascii	"USBConfig\000"
 6889      6F6E6669 
 6889      6700
 6890              	.LASF22:
 6891 08b0 7274636E 		.ascii	"rtcnt_t\000"
 6891      745F7400 
 6892              	.LASF135:
 6893 08b8 74787065 		.ascii	"txpending\000"
 6893      6E64696E 
 6893      6700
 6894              	.LASF48:
 6895 08c2 705F6D70 		.ascii	"p_mpool\000"
 6895      6F6F6C00 
 6896              	.LASF245:
 6897 08ca 73746D33 		.ascii	"stm32_otg_t\000"
 6897      325F6F74 
 6897      675F7400 
 6898              	.LASF41:
 6899 08d6 705F7265 		.ascii	"p_refs\000"
 6899      667300
 6900              	.LASF275:
 6901 08dd 73657475 		.ascii	"setup_buf\000"
 6901      705F6275 
 6901      6600
 6902              	.LASF220:
 6903 08e7 72657376 		.ascii	"resvd444\000"
 6903      64343434 
 6903      00
 6904              	.LASF269:
 6905 08f0 6F75745F 		.ascii	"out_cb\000"
 6905      636200
 6906              	.LASF87:
 6907 08f7 6F666673 		.ascii	"offset\000"
 6907      657400
 6908              	.LASF217:
 6909 08fe 4841494E 		.ascii	"HAINTMSK\000"
 6909      544D534B 
ARM GAS  /tmp/cc1C8LBe.s 			page 130


 6909      00
 6910              	.LASF140:
 6911 0907 5553425F 		.ascii	"USB_STOP\000"
 6911      53544F50 
 6911      00
 6912              	.LASF270:
 6913 0910 696E5F6D 		.ascii	"in_maxsize\000"
 6913      61787369 
 6913      7A6500
 6914              	.LASF198:
 6915 091b 47494E54 		.ascii	"GINTMSK\000"
 6915      4D534B00 
 6916              	.LASF273:
 6917 0923 6F75745F 		.ascii	"out_state\000"
 6917      73746174 
 6917      6500
 6918              	.LASF31:
 6919 092d 74687265 		.ascii	"thread_t\000"
 6919      61645F74 
 6919      00
 6920              	.LASF49:
 6921 0936 74687265 		.ascii	"thread_reference_t\000"
 6921      61645F72 
 6921      65666572 
 6921      656E6365 
 6921      5F7400
 6922              	.LASF47:
 6923 0949 705F7265 		.ascii	"p_realprio\000"
 6923      616C7072 
 6923      696F00
 6924              	.LASF150:
 6925 0954 5553425F 		.ascii	"USB_EP0_WAITING_TX0\000"
 6925      4550305F 
 6925      57414954 
 6925      494E475F 
 6925      54583000 
 6926              	.LASF86:
 6927 0968 706F7274 		.ascii	"port_intctx\000"
 6927      5F696E74 
 6927      63747800 
 6928              	.LASF133:
 6929 0974 6F746770 		.ascii	"otgparams\000"
 6929      6172616D 
 6929      7300
 6930              	.LASF285:
 6931 097e 706F7274 		.ascii	"port_unlock_from_isr\000"
 6931      5F756E6C 
 6931      6F636B5F 
 6931      66726F6D 
 6931      5F697372 
 6932              	.LASF68:
 6933 0993 76745F64 		.ascii	"vt_delta\000"
 6933      656C7461 
 6933      00
 6934              	.LASF139:
 6935 099c 5553425F 		.ascii	"USB_UNINIT\000"
 6935      554E494E 
ARM GAS  /tmp/cc1C8LBe.s 			page 131


 6935      495400
 6936              	.LASF65:
 6937 09a7 63685F76 		.ascii	"ch_virtual_timer\000"
 6937      69727475 
 6937      616C5F74 
 6937      696D6572 
 6937      00
 6938              	.LASF98:
 6939 09b8 735F636E 		.ascii	"s_cnt\000"
 6939      7400
 6940              	.LASF265:
 6941 09be 5553424F 		.ascii	"USBOutEndpointState\000"
 6941      7574456E 
 6941      64706F69 
 6941      6E745374 
 6941      61746500 
 6942              	.LASF325:
 6943 09d2 75736249 		.ascii	"usbInit\000"
 6943      6E697400 
 6944              	.LASF241:
 6945 09da 72657376 		.ascii	"resvdD00\000"
 6945      64443030 
 6945      00
 6946              	.LASF14:
 6947 09e3 6C6F6E67 		.ascii	"long long unsigned int\000"
 6947      206C6F6E 
 6947      6720756E 
 6947      7369676E 
 6947      65642069 
 6948              	.LASF208:
 6949 09fa 48505458 		.ascii	"HPTXFSIZ\000"
 6949      4653495A 
 6949      00
 6950              	.LASF37:
 6951 0a03 705F6F6C 		.ascii	"p_older\000"
 6951      64657200 
 6952              	.LASF18:
 6953 0a0b 75696E74 		.ascii	"uint16_t\000"
 6953      31365F74 
 6953      00
 6954              	.LASF173:
 6955 0a14 4843494E 		.ascii	"HCINT\000"
 6955      5400
 6956              	.LASF252:
 6957 0a1a 6C696E65 		.ascii	"linear\000"
 6957      617200
 6958              	.LASF27:
 6959 0a21 6D73675F 		.ascii	"msg_t\000"
 6959      7400
 6960              	.LASF223:
 6961 0a27 4443544C 		.ascii	"DCTL\000"
 6961      00
 6962              	.LASF54:
 6963 0a2c 63685F74 		.ascii	"ch_threads_queue\000"
 6963      68726561 
 6963      64735F71 
 6963      75657565 
ARM GAS  /tmp/cc1C8LBe.s 			page 132


 6963      00
 6964              	.LASF276:
 6965 0a3d 55534245 		.ascii	"USBEndpointConfig\000"
 6965      6E64706F 
 6965      696E7443 
 6965      6F6E6669 
 6965      6700
 6966              	.LASF174:
 6967 0a4f 4843494E 		.ascii	"HCINTMSK\000"
 6967      544D534B 
 6967      00
 6968              	.LASF262:
 6969 0a58 72787175 		.ascii	"rxqueued\000"
 6969      65756564 
 6969      00
 6970              	.LASF62:
 6971 0a61 725F6375 		.ascii	"r_current\000"
 6971      7272656E 
 6971      7400
 6972              	.LASF302:
 6973 0a6b 75736249 		.ascii	"usbInitEndpointI\000"
 6973      6E697445 
 6973      6E64706F 
 6973      696E7449 
 6973      00
 6974              	.LASF253:
 6975 0a7c 71756575 		.ascii	"queue\000"
 6975      6500
 6976              	.LASF261:
 6977 0a82 72787175 		.ascii	"rxqueue\000"
 6977      65756500 
 6978              	.LASF81:
 6979 0a8a 6D61696E 		.ascii	"mainthread\000"
 6979      74687265 
 6979      616400
 6980              	.LASF229:
 6981 0a95 4441494E 		.ascii	"DAINTMSK\000"
 6981      544D534B 
 6981      00
 6982              	.LASF232:
 6983 0a9e 44564255 		.ascii	"DVBUSDIS\000"
 6983      53444953 
 6983      00
 6984              	.LASF187:
 6985 0aa7 73746D33 		.ascii	"stm32_otg_in_ep_t\000"
 6985      325F6F74 
 6985      675F696E 
 6985      5F65705F 
 6985      7400
 6986              	.LASF323:
 6987 0ab9 5F5F7365 		.ascii	"__set_BASEPRI\000"
 6987      745F4241 
 6987      53455052 
 6987      4900
 6988              	.LASF247:
 6989 0ac7 6F74675F 		.ascii	"otg_ram_size\000"
 6989      72616D5F 
ARM GAS  /tmp/cc1C8LBe.s 			page 133


 6989      73697A65 
 6989      00
 6990              	.LASF271:
 6991 0ad4 6F75745F 		.ascii	"out_maxsize\000"
 6991      6D617873 
 6991      697A6500 
 6992              	.LASF57:
 6993 0ae0 725F7175 		.ascii	"r_queue\000"
 6993      65756500 
 6994              	.LASF297:
 6995 0ae8 64656661 		.ascii	"default_handler\000"
 6995      756C745F 
 6995      68616E64 
 6995      6C657200 
 6996              	.LASF294:
 6997 0af8 7365745F 		.ascii	"set_address\000"
 6997      61646472 
 6997      65737300 
 6998              	.LASF158:
 6999 0b04 5553425F 		.ascii	"USB_EVENT_CONFIGURED\000"
 6999      4556454E 
 6999      545F434F 
 6999      4E464947 
 6999      55524544 
 7000              	.LASF244:
 7001 0b19 4649464F 		.ascii	"FIFO\000"
 7001      00
 7002              	.LASF299:
 7003 0b1e 75736253 		.ascii	"usbStart\000"
 7003      74617274 
 7003      00
 7004              	.LASF106:
 7005 0b27 715F7761 		.ascii	"q_waiting\000"
 7005      6974696E 
 7005      6700
 7006              	.LASF79:
 7007 0b31 726C6973 		.ascii	"rlist\000"
 7007      7400
 7008              	.LASF23:
 7009 0b37 746D6F64 		.ascii	"tmode_t\000"
 7009      655F7400 
 7010              	.LASF170:
 7011 0b3f 75736267 		.ascii	"usbgetdescriptor_t\000"
 7011      65746465 
 7011      73637269 
 7011      70746F72 
 7011      5F7400
 7012              	.LASF137:
 7013 0b52 77615F70 		.ascii	"wa_pump\000"
 7013      756D7000 
 7014              	.LASF123:
 7015 0b5a 696E5F70 		.ascii	"in_params\000"
 7015      6172616D 
 7015      7300
 7016              	.LASF61:
 7017 0b64 725F6F6C 		.ascii	"r_older\000"
 7017      64657200 
ARM GAS  /tmp/cc1C8LBe.s 			page 134


 7018              	.LASF88:
 7019 0b6c 746D5F63 		.ascii	"tm_calibration_t\000"
 7019      616C6962 
 7019      72617469 
 7019      6F6E5F74 
 7019      00
 7020              	.LASF310:
 7021 0b7d 75736253 		.ascii	"usbStartTransmitI\000"
 7021      74617274 
 7021      5472616E 
 7021      736D6974 
 7021      4900
 7022              	.LASF282:
 7023 0b8f 706F7274 		.ascii	"port_lock\000"
 7023      5F6C6F63 
 7023      6B00
 7024              	.LASF97:
 7025 0b99 735F7175 		.ascii	"s_queue\000"
 7025      65756500 
 7026              	.LASF305:
 7027 0ba1 75736250 		.ascii	"usbPrepareReceive\000"
 7027      72657061 
 7027      72655265 
 7027      63656976 
 7027      6500
 7028              	.LASF5:
 7029 0bb3 73686F72 		.ascii	"short int\000"
 7029      7420696E 
 7029      7400
 7030              	.LASF258:
 7031 0bbd 746F7473 		.ascii	"totsize\000"
 7031      697A6500 
 7032              	.LASF246:
 7033 0bc5 72785F66 		.ascii	"rx_fifo_size\000"
 7033      69666F5F 
 7033      73697A65 
 7033      00
 7034              	.LASF21:
 7035 0bd2 75696E74 		.ascii	"uint64_t\000"
 7035      36345F74 
 7035      00
 7036              	.LASF257:
 7037 0bdb 6D6F6465 		.ascii	"mode\000"
 7037      00
 7038              	.LASF99:
 7039 0be0 63685F6D 		.ascii	"ch_mutex\000"
 7039      75746578 
 7039      00
 7040              	.LASF156:
 7041 0be9 5553425F 		.ascii	"USB_EVENT_RESET\000"
 7041      4556454E 
 7041      545F5245 
 7041      53455400 
 7042              	.LASF176:
 7043 0bf9 72657376 		.ascii	"resvd14\000"
 7043      64313400 
 7044              	.LASF177:
ARM GAS  /tmp/cc1C8LBe.s 			page 135


 7045 0c01 72657376 		.ascii	"resvd18\000"
 7045      64313800 
 7046              	.LASF185:
 7047 0c09 44545846 		.ascii	"DTXFSTS\000"
 7047      53545300 
 7048              	.LASF251:
 7049 0c11 74787175 		.ascii	"txqueue\000"
 7049      65756500 
 7050              	.LASF186:
 7051 0c19 72657376 		.ascii	"resvd1C\000"
 7051      64314300 
 7052              	.LASF226:
 7053 0c21 44494550 		.ascii	"DIEPMSK\000"
 7053      4D534B00 
 7054              	.LASF58:
 7055 0c29 725F7072 		.ascii	"r_prio\000"
 7055      696F00
 7056              	.LASF75:
 7057 0c30 63685F73 		.ascii	"ch_system_debug\000"
 7057      79737465 
 7057      6D5F6465 
 7057      62756700 
 7058              	.LASF235:
 7059 0c40 44494550 		.ascii	"DIEPEMPMSK\000"
 7059      454D504D 
 7059      534B00
 7060              	.LASF178:
 7061 0c4b 72657376 		.ascii	"resvd1c\000"
 7061      64316300 
 7062              	.LASF104:
 7063 0c53 696F5F71 		.ascii	"io_queue_t\000"
 7063      75657565 
 7063      5F7400
 7064              	.LASF169:
 7065 0c5e 75736272 		.ascii	"usbreqhandler_t\000"
 7065      65716861 
 7065      6E646C65 
 7065      725F7400 
 7066              	.LASF307:
 7067 0c6e 75736250 		.ascii	"usbPrepareQueuedReceive\000"
 7067      72657061 
 7067      72655175 
 7067      65756564 
 7067      52656365 
 7068              	.LASF180:
 7069 0c86 44494550 		.ascii	"DIEPCTL\000"
 7069      43544C00 
 7070              	.LASF166:
 7071 0c8e 75736263 		.ascii	"usbcallback_t\000"
 7071      616C6C62 
 7071      61636B5F 
 7071      7400
 7072              	.LASF196:
 7073 0c9c 47525354 		.ascii	"GRSTCTL\000"
 7073      43544C00 
 7074              	.LASF197:
 7075 0ca4 47494E54 		.ascii	"GINTSTS\000"
ARM GAS  /tmp/cc1C8LBe.s 			page 136


 7075      53545300 
 7076              	.LASF80:
 7077 0cac 76746C69 		.ascii	"vtlist\000"
 7077      737400
 7078              	.LASF182:
 7079 0cb3 44494550 		.ascii	"DIEPINT\000"
 7079      494E5400 
 7080              	.LASF203:
 7081 0cbb 484E5054 		.ascii	"HNPTXSTS\000"
 7081      58535453 
 7081      00
 7082              	.LASF103:
 7083 0cc4 6D757465 		.ascii	"mutex_t\000"
 7083      785F7400 
 7084              	.LASF25:
 7085 0ccc 74726566 		.ascii	"trefs_t\000"
 7085      735F7400 
 7086              	.LASF50:
 7087 0cd4 74687265 		.ascii	"threads_list_t\000"
 7087      6164735F 
 7087      6C697374 
 7087      5F7400
 7088              	.LASF280:
 7089 0ce3 736F665F 		.ascii	"sof_cb\000"
 7089      636200
 7090              	.LASF243:
 7091 0cea 72657376 		.ascii	"resvdE04\000"
 7091      64453034 
 7091      00
 7092              	.LASF204:
 7093 0cf3 72657376 		.ascii	"resvd30\000"
 7093      64333000 
 7094              	.LASF78:
 7095 0cfb 63685F73 		.ascii	"ch_system\000"
 7095      79737465 
 7095      6D00
 7096              	.LASF205:
 7097 0d05 72657376 		.ascii	"resvd34\000"
 7097      64333400 
 7098              	.LASF20:
 7099 0d0d 75696E74 		.ascii	"uint32_t\000"
 7099      33325F74 
 7099      00
 7100              	.LASF138:
 7101 0d16 75736265 		.ascii	"usbep_t\000"
 7101      705F7400 
 7102              	.LASF115:
 7103 0d1e 696E7075 		.ascii	"input_queue_t\000"
 7103      745F7175 
 7103      6575655F 
 7103      7400
 7104              	.LASF89:
 7105 0d2c 7264796D 		.ascii	"rdymsg\000"
 7105      736700
 7106              	.LASF73:
 7107 0d33 76745F6C 		.ascii	"vt_lasttime\000"
 7107      61737474 
ARM GAS  /tmp/cc1C8LBe.s 			page 137


 7107      696D6500 
 7108              	.LASF7:
 7109 0d3f 73686F72 		.ascii	"short unsigned int\000"
 7109      7420756E 
 7109      7369676E 
 7109      65642069 
 7109      6E7400
 7110              	.LASF224:
 7111 0d52 44535453 		.ascii	"DSTS\000"
 7111      00
 7112              	.LASF278:
 7113 0d57 6765745F 		.ascii	"get_descriptor_cb\000"
 7113      64657363 
 7113      72697074 
 7113      6F725F63 
 7113      6200
 7114              	.LASF77:
 7115 0d69 63685F73 		.ascii	"ch_system_t\000"
 7115      79737465 
 7115      6D5F7400 
 7116              	.LASF159:
 7117 0d75 5553425F 		.ascii	"USB_EVENT_SUSPEND\000"
 7117      4556454E 
 7117      545F5355 
 7117      5350454E 
 7117      4400
 7118              	.LASF315:
 7119 0d87 5F757362 		.ascii	"_usb_ep0in\000"
 7119      5F657030 
 7119      696E00
 7120              	.LASF116:
 7121 0d92 6F757470 		.ascii	"output_queue_t\000"
 7121      75745F71 
 7121      75657565 
 7121      5F7400
 7122              	.LASF124:
 7123 0da1 6F75745F 		.ascii	"out_params\000"
 7123      70617261 
 7123      6D7300
 7124              	.LASF145:
 7125 0dac 45505F53 		.ascii	"EP_STATUS_DISABLED\000"
 7125      54415455 
 7125      535F4449 
 7125      5341424C 
 7125      454400
 7126              	.LASF8:
 7127 0dbf 5F5F696E 		.ascii	"__int32_t\000"
 7127      7433325F 
 7127      7400
 7128              	.LASF303:
 7129 0dc9 65706370 		.ascii	"epcp\000"
 7129      00
 7130              	.LASF215:
 7131 0dce 48505458 		.ascii	"HPTXSTS\000"
 7131      53545300 
 7132              	.LASF207:
 7133 0dd6 72657376 		.ascii	"resvd58\000"
ARM GAS  /tmp/cc1C8LBe.s 			page 138


 7133      64353800 
 7134              	.LASF153:
 7135 0dde 5553425F 		.ascii	"USB_EP0_SENDING_STS\000"
 7135      4550305F 
 7135      53454E44 
 7135      494E475F 
 7135      53545300 
 7136              	.LASF212:
 7137 0df2 48464952 		.ascii	"HFIR\000"
 7137      00
 7138              	.LASF151:
 7139 0df7 5553425F 		.ascii	"USB_EP0_WAITING_STS\000"
 7139      4550305F 
 7139      57414954 
 7139      494E475F 
 7139      53545300 
 7140              	.LASF38:
 7141 0e0b 705F6E61 		.ascii	"p_name\000"
 7141      6D6500
 7142              	.LASF102:
 7143 0e12 6D5F6E65 		.ascii	"m_next\000"
 7143      787400
 7144              	.LASF134:
 7145 0e19 706D6E65 		.ascii	"pmnext\000"
 7145      787400
 7146              	.LASF254:
 7147 0e20 74787175 		.ascii	"txqueued\000"
 7147      65756564 
 7147      00
 7148              	.LASF195:
 7149 0e29 47555342 		.ascii	"GUSBCFG\000"
 7149      43464700 
 7150              	.LASF152:
 7151 0e31 5553425F 		.ascii	"USB_EP0_RX\000"
 7151      4550305F 
 7151      525800
 7152              	.LASF210:
 7153 0e3c 72657376 		.ascii	"resvd140\000"
 7153      64313430 
 7153      00
 7154              	.LASF44:
 7155 0e45 705F6D73 		.ascii	"p_msg\000"
 7155      6700
 7156              	.LASF39:
 7157 0e4b 705F7374 		.ascii	"p_state\000"
 7157      61746500 
 7158              		.ident	"GCC: (4.8.4-1+11-1) 4.8.4 20141219 (release)"
ARM GAS  /tmp/cc1C8LBe.s 			page 139


DEFINED SYMBOLS
                            *ABS*:0000000000000000 usb.c
     /tmp/cc1C8LBe.s:19     .text.port_lock:0000000000000000 $t
     /tmp/cc1C8LBe.s:24     .text.port_lock:0000000000000000 port_lock
     /tmp/cc1C8LBe.s:55     .text.port_unlock:0000000000000000 $t
     /tmp/cc1C8LBe.s:60     .text.port_unlock:0000000000000000 port_unlock
     /tmp/cc1C8LBe.s:89     .text.port_lock_from_isr:0000000000000000 $t
     /tmp/cc1C8LBe.s:94     .text.port_lock_from_isr:0000000000000000 port_lock_from_isr
     /tmp/cc1C8LBe.s:112    .text.port_unlock_from_isr:0000000000000000 $t
     /tmp/cc1C8LBe.s:117    .text.port_unlock_from_isr:0000000000000000 port_unlock_from_isr
     /tmp/cc1C8LBe.s:135    .text.chSysLock:0000000000000000 $t
     /tmp/cc1C8LBe.s:140    .text.chSysLock:0000000000000000 chSysLock
     /tmp/cc1C8LBe.s:159    .text.chSysUnlock:0000000000000000 $t
     /tmp/cc1C8LBe.s:164    .text.chSysUnlock:0000000000000000 chSysUnlock
     /tmp/cc1C8LBe.s:182    .text.chSysLockFromISR:0000000000000000 $t
     /tmp/cc1C8LBe.s:187    .text.chSysLockFromISR:0000000000000000 chSysLockFromISR
     /tmp/cc1C8LBe.s:205    .text.chSysUnlockFromISR:0000000000000000 $t
     /tmp/cc1C8LBe.s:210    .text.chSysUnlockFromISR:0000000000000000 chSysUnlockFromISR
     /tmp/cc1C8LBe.s:228    .text.osalSysLock:0000000000000000 $t
     /tmp/cc1C8LBe.s:233    .text.osalSysLock:0000000000000000 osalSysLock
     /tmp/cc1C8LBe.s:252    .text.osalSysUnlock:0000000000000000 $t
     /tmp/cc1C8LBe.s:257    .text.osalSysUnlock:0000000000000000 osalSysUnlock
     /tmp/cc1C8LBe.s:275    .text.osalSysLockFromISR:0000000000000000 $t
     /tmp/cc1C8LBe.s:280    .text.osalSysLockFromISR:0000000000000000 osalSysLockFromISR
     /tmp/cc1C8LBe.s:298    .text.osalSysUnlockFromISR:0000000000000000 $t
     /tmp/cc1C8LBe.s:303    .text.osalSysUnlockFromISR:0000000000000000 osalSysUnlockFromISR
     /tmp/cc1C8LBe.s:321    .rodata.zero_status:0000000000000000 $d
     /tmp/cc1C8LBe.s:324    .rodata.zero_status:0000000000000000 zero_status
     /tmp/cc1C8LBe.s:327    .rodata.active_status:0000000000000000 $d
     /tmp/cc1C8LBe.s:330    .rodata.active_status:0000000000000000 active_status
     /tmp/cc1C8LBe.s:333    .rodata.halted_status:0000000000000000 $d
     /tmp/cc1C8LBe.s:336    .rodata.halted_status:0000000000000000 halted_status
     /tmp/cc1C8LBe.s:340    .text.get_hword:0000000000000000 $t
     /tmp/cc1C8LBe.s:345    .text.get_hword:0000000000000000 get_hword
     /tmp/cc1C8LBe.s:382    .text.set_address:0000000000000000 $t
     /tmp/cc1C8LBe.s:387    .text.set_address:0000000000000000 set_address
     /tmp/cc1C8LBe.s:433    .text.default_handler:0000000000000000 $t
     /tmp/cc1C8LBe.s:438    .text.default_handler:0000000000000000 default_handler
     /tmp/cc1C8LBe.s:950    .text.default_handler:0000000000000394 $d
     /tmp/cc1C8LBe.s:957    .text.usbInit:0000000000000000 $t
     /tmp/cc1C8LBe.s:963    .text.usbInit:0000000000000000 usbInit
     /tmp/cc1C8LBe.s:981    .text.usbObjectInit:0000000000000000 $t
     /tmp/cc1C8LBe.s:987    .text.usbObjectInit:0000000000000000 usbObjectInit
     /tmp/cc1C8LBe.s:1049   .text.usbStart:0000000000000000 $t
     /tmp/cc1C8LBe.s:1055   .text.usbStart:0000000000000000 usbStart
     /tmp/cc1C8LBe.s:1113   .text.usbStop:0000000000000000 $t
     /tmp/cc1C8LBe.s:1119   .text.usbStop:0000000000000000 usbStop
     /tmp/cc1C8LBe.s:1150   .text.usbInitEndpointI:0000000000000000 $t
     /tmp/cc1C8LBe.s:1156   .text.usbInitEndpointI:0000000000000000 usbInitEndpointI
     /tmp/cc1C8LBe.s:1218   .text.usbDisableEndpointsI:0000000000000000 $t
     /tmp/cc1C8LBe.s:1224   .text.usbDisableEndpointsI:0000000000000000 usbDisableEndpointsI
     /tmp/cc1C8LBe.s:1283   .text.usbPrepareReceive:0000000000000000 $t
     /tmp/cc1C8LBe.s:1289   .text.usbPrepareReceive:0000000000000000 usbPrepareReceive
     /tmp/cc1C8LBe.s:1343   .text.usbPrepareTransmit:0000000000000000 $t
     /tmp/cc1C8LBe.s:1349   .text.usbPrepareTransmit:0000000000000000 usbPrepareTransmit
     /tmp/cc1C8LBe.s:1403   .text.usbPrepareQueuedReceive:0000000000000000 $t
     /tmp/cc1C8LBe.s:1409   .text.usbPrepareQueuedReceive:0000000000000000 usbPrepareQueuedReceive
ARM GAS  /tmp/cc1C8LBe.s 			page 140


     /tmp/cc1C8LBe.s:1463   .text.usbPrepareQueuedTransmit:0000000000000000 $t
     /tmp/cc1C8LBe.s:1469   .text.usbPrepareQueuedTransmit:0000000000000000 usbPrepareQueuedTransmit
     /tmp/cc1C8LBe.s:1523   .text.usbStartReceiveI:0000000000000000 $t
     /tmp/cc1C8LBe.s:1529   .text.usbStartReceiveI:0000000000000000 usbStartReceiveI
     /tmp/cc1C8LBe.s:1586   .text.usbStartTransmitI:0000000000000000 $t
     /tmp/cc1C8LBe.s:1592   .text.usbStartTransmitI:0000000000000000 usbStartTransmitI
     /tmp/cc1C8LBe.s:1649   .text.usbStallReceiveI:0000000000000000 $t
     /tmp/cc1C8LBe.s:1655   .text.usbStallReceiveI:0000000000000000 usbStallReceiveI
     /tmp/cc1C8LBe.s:1701   .text.usbStallTransmitI:0000000000000000 $t
     /tmp/cc1C8LBe.s:1707   .text.usbStallTransmitI:0000000000000000 usbStallTransmitI
     /tmp/cc1C8LBe.s:1753   .text._usb_reset:0000000000000000 $t
     /tmp/cc1C8LBe.s:1759   .text._usb_reset:0000000000000000 _usb_reset
     /tmp/cc1C8LBe.s:1832   .text._usb_ep0setup:0000000000000000 $t
     /tmp/cc1C8LBe.s:1838   .text._usb_ep0setup:0000000000000000 _usb_ep0setup
     /tmp/cc1C8LBe.s:2054   .text._usb_ep0in:0000000000000000 $t
     /tmp/cc1C8LBe.s:2060   .text._usb_ep0in:0000000000000000 _usb_ep0in
     /tmp/cc1C8LBe.s:2083   .text._usb_ep0in:000000000000001c $d
     /tmp/cc1C8LBe.s:2090   .text._usb_ep0in:0000000000000038 $t
     /tmp/cc1C8LBe.s:2214   .text._usb_ep0out:0000000000000000 $t
     /tmp/cc1C8LBe.s:2220   .text._usb_ep0out:0000000000000000 _usb_ep0out
     /tmp/cc1C8LBe.s:2243   .text._usb_ep0out:000000000000001c $d
     /tmp/cc1C8LBe.s:2250   .text._usb_ep0out:0000000000000038 $t
                     .debug_frame:0000000000000010 $d

UNDEFINED SYMBOLS
usb_lld_set_address
usb_lld_get_status_in
usb_lld_get_status_out
usb_lld_clear_in
usb_lld_clear_out
usb_lld_stall_in
usb_lld_stall_out
usb_lld_init
usb_lld_start
usb_lld_stop
memset
usb_lld_init_endpoint
usb_lld_disable_endpoints
usb_lld_prepare_receive
usb_lld_prepare_transmit
usb_lld_start_out
usb_lld_start_in
usb_lld_reset
usb_lld_read_setup
