ARM GAS  /tmp/cciPs3oN.s 			page 1


   1              		.syntax unified
   2              		.cpu cortex-m4
   3              		.fpu softvfp
   4              		.eabi_attribute 20, 1
   5              		.eabi_attribute 21, 1
   6              		.eabi_attribute 23, 3
   7              		.eabi_attribute 24, 1
   8              		.eabi_attribute 25, 1
   9              		.eabi_attribute 26, 1
  10              		.eabi_attribute 30, 6
  11              		.eabi_attribute 34, 1
  12              		.eabi_attribute 18, 4
  13              		.thumb
  14              		.file	"usb_lld.c"
  15              		.text
  16              	.Ltext0:
  17              		.cfi_sections	.debug_frame
  18              		.section	.text.port_lock,"ax",%progbits
  19              		.align	2
  20              		.p2align 4,,15
  21              		.thumb
  22              		.thumb_func
  23              		.type	port_lock, %function
  24              	port_lock:
  25              	.LFB127:
  26              		.file 1 "/home/efe/ChibiOS/os/rt/ports/ARMCMx/chcore_v7m.h"
  27              		.loc 1 456 0
  28              		.cfi_startproc
  29              		@ args = 0, pretend = 0, frame = 8
  30              		@ frame_needed = 0, uses_anonymous_args = 0
  31              		@ link register save eliminated.
  32 0000 82B0     		sub	sp, sp, #8
  33              		.cfi_def_cfa_offset 8
  34 0002 2023     		movs	r3, #32
  35 0004 0193     		str	r3, [sp, #4]
  36              	.LBB6:
  37              	.LBB7:
  38              		.file 2 "/home/efe/ChibiOS/os/ext/CMSIS/include/core_cmFunc.h"
  39              		.loc 2 548 0
  40 0006 019B     		ldr	r3, [sp, #4]
  41              	@ 548 "/home/efe/ChibiOS/os/ext/CMSIS/include/core_cmFunc.h" 1
  42 0008 83F31188 		MSR basepri, r3
  43              	@ 0 "" 2
  44              		.thumb
  45              	.LBE7:
  46              	.LBE6:
  47              		.loc 1 463 0
  48 000c 02B0     		add	sp, sp, #8
  49              		@ sp needed
  50 000e 7047     		bx	lr
  51              		.cfi_endproc
  52              	.LFE127:
  53              		.size	port_lock, .-port_lock
  54              		.section	.text.port_unlock,"ax",%progbits
  55              		.align	2
  56              		.p2align 4,,15
  57              		.thumb
ARM GAS  /tmp/cciPs3oN.s 			page 2


  58              		.thumb_func
  59              		.type	port_unlock, %function
  60              	port_unlock:
  61              	.LFB128:
  62              		.loc 1 470 0
  63              		.cfi_startproc
  64              		@ args = 0, pretend = 0, frame = 8
  65              		@ frame_needed = 0, uses_anonymous_args = 0
  66              		@ link register save eliminated.
  67 0000 82B0     		sub	sp, sp, #8
  68              		.cfi_def_cfa_offset 8
  69 0002 0023     		movs	r3, #0
  70 0004 0193     		str	r3, [sp, #4]
  71              	.LBB8:
  72              	.LBB9:
  73              		.loc 2 548 0
  74 0006 019B     		ldr	r3, [sp, #4]
  75              	@ 548 "/home/efe/ChibiOS/os/ext/CMSIS/include/core_cmFunc.h" 1
  76 0008 83F31188 		MSR basepri, r3
  77              	@ 0 "" 2
  78              		.thumb
  79              	.LBE9:
  80              	.LBE8:
  81              		.loc 1 477 0
  82 000c 02B0     		add	sp, sp, #8
  83              		@ sp needed
  84 000e 7047     		bx	lr
  85              		.cfi_endproc
  86              	.LFE128:
  87              		.size	port_unlock, .-port_unlock
  88              		.section	.text.port_lock_from_isr,"ax",%progbits
  89              		.align	2
  90              		.p2align 4,,15
  91              		.thumb
  92              		.thumb_func
  93              		.type	port_lock_from_isr, %function
  94              	port_lock_from_isr:
  95              	.LFB129:
  96              		.loc 1 485 0
  97              		.cfi_startproc
  98              		@ args = 0, pretend = 0, frame = 0
  99              		@ frame_needed = 0, uses_anonymous_args = 0
 100 0000 08B5     		push	{r3, lr}
 101              		.cfi_def_cfa_offset 8
 102              		.cfi_offset 3, -8
 103              		.cfi_offset 14, -4
 104              		.loc 1 487 0
 105 0002 FFF7FEFF 		bl	port_lock
 106              		.loc 1 488 0
 107 0006 08BD     		pop	{r3, pc}
 108              		.cfi_endproc
 109              	.LFE129:
 110              		.size	port_lock_from_isr, .-port_lock_from_isr
 111 0008 AFF30080 		.section	.text.port_unlock_from_isr,"ax",%progbits
 111      AFF30080 
 112              		.align	2
 113              		.p2align 4,,15
ARM GAS  /tmp/cciPs3oN.s 			page 3


 114              		.thumb
 115              		.thumb_func
 116              		.type	port_unlock_from_isr, %function
 117              	port_unlock_from_isr:
 118              	.LFB130:
 119              		.loc 1 496 0
 120              		.cfi_startproc
 121              		@ args = 0, pretend = 0, frame = 0
 122              		@ frame_needed = 0, uses_anonymous_args = 0
 123 0000 08B5     		push	{r3, lr}
 124              		.cfi_def_cfa_offset 8
 125              		.cfi_offset 3, -8
 126              		.cfi_offset 14, -4
 127              		.loc 1 498 0
 128 0002 FFF7FEFF 		bl	port_unlock
 129              		.loc 1 499 0
 130 0006 08BD     		pop	{r3, pc}
 131              		.cfi_endproc
 132              	.LFE130:
 133              		.size	port_unlock_from_isr, .-port_unlock_from_isr
 134 0008 AFF30080 		.section	.text.chSysLock,"ax",%progbits
 134      AFF30080 
 135              		.align	2
 136              		.p2align 4,,15
 137              		.thumb
 138              		.thumb_func
 139              		.type	chSysLock, %function
 140              	chSysLock:
 141              	.LFB167:
 142              		.file 3 "/home/efe/ChibiOS/os/rt/include/chsys.h"
 143              		.loc 3 346 0
 144              		.cfi_startproc
 145              		@ args = 0, pretend = 0, frame = 0
 146              		@ frame_needed = 0, uses_anonymous_args = 0
 147 0000 08B5     		push	{r3, lr}
 148              		.cfi_def_cfa_offset 8
 149              		.cfi_offset 3, -8
 150              		.cfi_offset 14, -4
 151              		.loc 3 348 0
 152 0002 FFF7FEFF 		bl	port_lock
 153              		.loc 3 351 0
 154 0006 08BD     		pop	{r3, pc}
 155              		.cfi_endproc
 156              	.LFE167:
 157              		.size	chSysLock, .-chSysLock
 158 0008 AFF30080 		.section	.text.chSysUnlock,"ax",%progbits
 158      AFF30080 
 159              		.align	2
 160              		.p2align 4,,15
 161              		.thumb
 162              		.thumb_func
 163              		.type	chSysUnlock, %function
 164              	chSysUnlock:
 165              	.LFB168:
 166              		.loc 3 358 0
 167              		.cfi_startproc
 168              		@ args = 0, pretend = 0, frame = 0
ARM GAS  /tmp/cciPs3oN.s 			page 4


 169              		@ frame_needed = 0, uses_anonymous_args = 0
 170 0000 08B5     		push	{r3, lr}
 171              		.cfi_def_cfa_offset 8
 172              		.cfi_offset 3, -8
 173              		.cfi_offset 14, -4
 174              		.loc 3 371 0
 175 0002 FFF7FEFF 		bl	port_unlock
 176              		.loc 3 372 0
 177 0006 08BD     		pop	{r3, pc}
 178              		.cfi_endproc
 179              	.LFE168:
 180              		.size	chSysUnlock, .-chSysUnlock
 181 0008 AFF30080 		.section	.text.chSysLockFromISR,"ax",%progbits
 181      AFF30080 
 182              		.align	2
 183              		.p2align 4,,15
 184              		.thumb
 185              		.thumb_func
 186              		.type	chSysLockFromISR, %function
 187              	chSysLockFromISR:
 188              	.LFB169:
 189              		.loc 3 386 0
 190              		.cfi_startproc
 191              		@ args = 0, pretend = 0, frame = 0
 192              		@ frame_needed = 0, uses_anonymous_args = 0
 193 0000 08B5     		push	{r3, lr}
 194              		.cfi_def_cfa_offset 8
 195              		.cfi_offset 3, -8
 196              		.cfi_offset 14, -4
 197              		.loc 3 388 0
 198 0002 FFF7FEFF 		bl	port_lock_from_isr
 199              		.loc 3 391 0
 200 0006 08BD     		pop	{r3, pc}
 201              		.cfi_endproc
 202              	.LFE169:
 203              		.size	chSysLockFromISR, .-chSysLockFromISR
 204 0008 AFF30080 		.section	.text.chSysUnlockFromISR,"ax",%progbits
 204      AFF30080 
 205              		.align	2
 206              		.p2align 4,,15
 207              		.thumb
 208              		.thumb_func
 209              		.type	chSysUnlockFromISR, %function
 210              	chSysUnlockFromISR:
 211              	.LFB170:
 212              		.loc 3 406 0
 213              		.cfi_startproc
 214              		@ args = 0, pretend = 0, frame = 0
 215              		@ frame_needed = 0, uses_anonymous_args = 0
 216 0000 08B5     		push	{r3, lr}
 217              		.cfi_def_cfa_offset 8
 218              		.cfi_offset 3, -8
 219              		.cfi_offset 14, -4
 220              		.loc 3 410 0
 221 0002 FFF7FEFF 		bl	port_unlock_from_isr
 222              		.loc 3 411 0
 223 0006 08BD     		pop	{r3, pc}
ARM GAS  /tmp/cciPs3oN.s 			page 5


 224              		.cfi_endproc
 225              	.LFE170:
 226              		.size	chSysUnlockFromISR, .-chSysUnlockFromISR
 227 0008 AFF30080 		.section	.text.chThdStartI,"ax",%progbits
 227      AFF30080 
 228              		.align	2
 229              		.p2align 4,,15
 230              		.thumb
 231              		.thumb_func
 232              		.type	chThdStartI, %function
 233              	chThdStartI:
 234              	.LFB192:
 235              		.file 4 "/home/efe/ChibiOS/os/rt/include/chthreads.h"
 236              		.loc 4 245 0
 237              		.cfi_startproc
 238              		@ args = 0, pretend = 0, frame = 8
 239              		@ frame_needed = 0, uses_anonymous_args = 0
 240 0000 00B5     		push	{lr}
 241              		.cfi_def_cfa_offset 4
 242              		.cfi_offset 14, -4
 243 0002 83B0     		sub	sp, sp, #12
 244              		.cfi_def_cfa_offset 16
 245 0004 0190     		str	r0, [sp, #4]
 246              		.loc 4 249 0
 247 0006 0198     		ldr	r0, [sp, #4]
 248 0008 FFF7FEFF 		bl	chSchReadyI
 249 000c 0346     		mov	r3, r0
 250              		.loc 4 250 0
 251 000e 1846     		mov	r0, r3
 252 0010 03B0     		add	sp, sp, #12
 253              		@ sp needed
 254 0012 5DF804FB 		ldr	pc, [sp], #4
 255              		.cfi_endproc
 256              	.LFE192:
 257              		.size	chThdStartI, .-chThdStartI
 258 0016 00BFAFF3 		.section	.text.chRegSetThreadName,"ax",%progbits
 258      0080AFF3 
 258      0080
 259              		.align	2
 260              		.p2align 4,,15
 261              		.thumb
 262              		.thumb_func
 263              		.type	chRegSetThreadName, %function
 264              	chRegSetThreadName:
 265              	.LFB197:
 266              		.file 5 "/home/efe/ChibiOS/os/rt/include/chregistry.h"
 267              		.loc 5 132 0
 268              		.cfi_startproc
 269              		@ args = 0, pretend = 0, frame = 8
 270              		@ frame_needed = 0, uses_anonymous_args = 0
 271              		@ link register save eliminated.
 272 0000 82B0     		sub	sp, sp, #8
 273              		.cfi_def_cfa_offset 8
 274 0002 0190     		str	r0, [sp, #4]
 275              		.loc 5 135 0
 276 0004 024B     		ldr	r3, .L12
 277 0006 9B69     		ldr	r3, [r3, #24]
ARM GAS  /tmp/cciPs3oN.s 			page 6


 278 0008 019A     		ldr	r2, [sp, #4]
 279 000a 9A61     		str	r2, [r3, #24]
 280              		.loc 5 139 0
 281 000c 02B0     		add	sp, sp, #8
 282              		@ sp needed
 283 000e 7047     		bx	lr
 284              	.L13:
 285              		.align	2
 286              	.L12:
 287 0010 00000000 		.word	ch
 288              		.cfi_endproc
 289              	.LFE197:
 290              		.size	chRegSetThreadName, .-chRegSetThreadName
 291 0014 AFF30080 		.section	.text.osalSysLock,"ax",%progbits
 291      AFF30080 
 291      AFF30080 
 292              		.align	2
 293              		.p2align 4,,15
 294              		.thumb
 295              		.thumb_func
 296              		.type	osalSysLock, %function
 297              	osalSysLock:
 298              	.LFB244:
 299              		.file 6 "/home/efe/ChibiOS/os/hal/osal/rt/osal.h"
 300              		.loc 6 491 0
 301              		.cfi_startproc
 302              		@ args = 0, pretend = 0, frame = 0
 303              		@ frame_needed = 0, uses_anonymous_args = 0
 304 0000 08B5     		push	{r3, lr}
 305              		.cfi_def_cfa_offset 8
 306              		.cfi_offset 3, -8
 307              		.cfi_offset 14, -4
 308              		.loc 6 493 0
 309 0002 FFF7FEFF 		bl	chSysLock
 310              		.loc 6 494 0
 311 0006 08BD     		pop	{r3, pc}
 312              		.cfi_endproc
 313              	.LFE244:
 314              		.size	osalSysLock, .-osalSysLock
 315 0008 AFF30080 		.section	.text.osalSysUnlock,"ax",%progbits
 315      AFF30080 
 316              		.align	2
 317              		.p2align 4,,15
 318              		.thumb
 319              		.thumb_func
 320              		.type	osalSysUnlock, %function
 321              	osalSysUnlock:
 322              	.LFB245:
 323              		.loc 6 502 0
 324              		.cfi_startproc
 325              		@ args = 0, pretend = 0, frame = 0
 326              		@ frame_needed = 0, uses_anonymous_args = 0
 327 0000 08B5     		push	{r3, lr}
 328              		.cfi_def_cfa_offset 8
 329              		.cfi_offset 3, -8
 330              		.cfi_offset 14, -4
 331              		.loc 6 504 0
ARM GAS  /tmp/cciPs3oN.s 			page 7


 332 0002 FFF7FEFF 		bl	chSysUnlock
 333              		.loc 6 505 0
 334 0006 08BD     		pop	{r3, pc}
 335              		.cfi_endproc
 336              	.LFE245:
 337              		.size	osalSysUnlock, .-osalSysUnlock
 338 0008 AFF30080 		.section	.text.osalSysLockFromISR,"ax",%progbits
 338      AFF30080 
 339              		.align	2
 340              		.p2align 4,,15
 341              		.thumb
 342              		.thumb_func
 343              		.type	osalSysLockFromISR, %function
 344              	osalSysLockFromISR:
 345              	.LFB246:
 346              		.loc 6 513 0
 347              		.cfi_startproc
 348              		@ args = 0, pretend = 0, frame = 0
 349              		@ frame_needed = 0, uses_anonymous_args = 0
 350 0000 08B5     		push	{r3, lr}
 351              		.cfi_def_cfa_offset 8
 352              		.cfi_offset 3, -8
 353              		.cfi_offset 14, -4
 354              		.loc 6 515 0
 355 0002 FFF7FEFF 		bl	chSysLockFromISR
 356              		.loc 6 516 0
 357 0006 08BD     		pop	{r3, pc}
 358              		.cfi_endproc
 359              	.LFE246:
 360              		.size	osalSysLockFromISR, .-osalSysLockFromISR
 361 0008 AFF30080 		.section	.text.osalSysUnlockFromISR,"ax",%progbits
 361      AFF30080 
 362              		.align	2
 363              		.p2align 4,,15
 364              		.thumb
 365              		.thumb_func
 366              		.type	osalSysUnlockFromISR, %function
 367              	osalSysUnlockFromISR:
 368              	.LFB247:
 369              		.loc 6 524 0
 370              		.cfi_startproc
 371              		@ args = 0, pretend = 0, frame = 0
 372              		@ frame_needed = 0, uses_anonymous_args = 0
 373 0000 08B5     		push	{r3, lr}
 374              		.cfi_def_cfa_offset 8
 375              		.cfi_offset 3, -8
 376              		.cfi_offset 14, -4
 377              		.loc 6 526 0
 378 0002 FFF7FEFF 		bl	chSysUnlockFromISR
 379              		.loc 6 527 0
 380 0006 08BD     		pop	{r3, pc}
 381              		.cfi_endproc
 382              	.LFE247:
 383              		.size	osalSysUnlockFromISR, .-osalSysUnlockFromISR
 384 0008 AFF30080 		.section	.text.osalSysPolledDelayX,"ax",%progbits
 384      AFF30080 
 385              		.align	2
ARM GAS  /tmp/cciPs3oN.s 			page 8


 386              		.p2align 4,,15
 387              		.thumb
 388              		.thumb_func
 389              		.type	osalSysPolledDelayX, %function
 390              	osalSysPolledDelayX:
 391              	.LFB250:
 392              		.loc 6 571 0
 393              		.cfi_startproc
 394              		@ args = 0, pretend = 0, frame = 8
 395              		@ frame_needed = 0, uses_anonymous_args = 0
 396 0000 00B5     		push	{lr}
 397              		.cfi_def_cfa_offset 4
 398              		.cfi_offset 14, -4
 399 0002 83B0     		sub	sp, sp, #12
 400              		.cfi_def_cfa_offset 16
 401 0004 0190     		str	r0, [sp, #4]
 402              		.loc 6 573 0
 403 0006 0198     		ldr	r0, [sp, #4]
 404 0008 FFF7FEFF 		bl	chSysPolledDelayX
 405              		.loc 6 574 0
 406 000c 03B0     		add	sp, sp, #12
 407              		@ sp needed
 408 000e 5DF804FB 		ldr	pc, [sp], #4
 409              		.cfi_endproc
 410              	.LFE250:
 411              		.size	osalSysPolledDelayX, .-osalSysPolledDelayX
 412 0012 00BFAFF3 		.section	.text.osalOsRescheduleS,"ax",%progbits
 412      0080AFF3 
 412      0080AFF3 
 412      0080
 413              		.align	2
 414              		.p2align 4,,15
 415              		.thumb
 416              		.thumb_func
 417              		.type	osalOsRescheduleS, %function
 418              	osalOsRescheduleS:
 419              	.LFB252:
 420              		.loc 6 598 0
 421              		.cfi_startproc
 422              		@ args = 0, pretend = 0, frame = 0
 423              		@ frame_needed = 0, uses_anonymous_args = 0
 424 0000 08B5     		push	{r3, lr}
 425              		.cfi_def_cfa_offset 8
 426              		.cfi_offset 3, -8
 427              		.cfi_offset 14, -4
 428              		.loc 6 600 0
 429 0002 FFF7FEFF 		bl	chSchRescheduleS
 430              		.loc 6 601 0
 431 0006 08BD     		pop	{r3, pc}
 432              		.cfi_endproc
 433              	.LFE252:
 434              		.size	osalOsRescheduleS, .-osalOsRescheduleS
 435 0008 AFF30080 		.section	.text.osalThreadSuspendS,"ax",%progbits
 435      AFF30080 
 436              		.align	2
 437              		.p2align 4,,15
 438              		.thumb
ARM GAS  /tmp/cciPs3oN.s 			page 9


 439              		.thumb_func
 440              		.type	osalThreadSuspendS, %function
 441              	osalThreadSuspendS:
 442              	.LFB257:
 443              		.loc 6 686 0
 444              		.cfi_startproc
 445              		@ args = 0, pretend = 0, frame = 8
 446              		@ frame_needed = 0, uses_anonymous_args = 0
 447 0000 00B5     		push	{lr}
 448              		.cfi_def_cfa_offset 4
 449              		.cfi_offset 14, -4
 450 0002 83B0     		sub	sp, sp, #12
 451              		.cfi_def_cfa_offset 16
 452 0004 0190     		str	r0, [sp, #4]
 453              		.loc 6 688 0
 454 0006 0198     		ldr	r0, [sp, #4]
 455 0008 FFF7FEFF 		bl	chThdSuspendS
 456 000c 0346     		mov	r3, r0
 457              		.loc 6 689 0
 458 000e 1846     		mov	r0, r3
 459 0010 03B0     		add	sp, sp, #12
 460              		@ sp needed
 461 0012 5DF804FB 		ldr	pc, [sp], #4
 462              		.cfi_endproc
 463              	.LFE257:
 464              		.size	osalThreadSuspendS, .-osalThreadSuspendS
 465 0016 00BFAFF3 		.section	.text.osalThreadResumeI,"ax",%progbits
 465      0080AFF3 
 465      0080
 466              		.align	2
 467              		.p2align 4,,15
 468              		.thumb
 469              		.thumb_func
 470              		.type	osalThreadResumeI, %function
 471              	osalThreadResumeI:
 472              	.LFB259:
 473              		.loc 6 726 0
 474              		.cfi_startproc
 475              		@ args = 0, pretend = 0, frame = 8
 476              		@ frame_needed = 0, uses_anonymous_args = 0
 477 0000 00B5     		push	{lr}
 478              		.cfi_def_cfa_offset 4
 479              		.cfi_offset 14, -4
 480 0002 83B0     		sub	sp, sp, #12
 481              		.cfi_def_cfa_offset 16
 482 0004 0190     		str	r0, [sp, #4]
 483 0006 0091     		str	r1, [sp]
 484              		.loc 6 728 0
 485 0008 0198     		ldr	r0, [sp, #4]
 486 000a 0099     		ldr	r1, [sp]
 487 000c FFF7FEFF 		bl	chThdResumeI
 488              		.loc 6 729 0
 489 0010 03B0     		add	sp, sp, #12
 490              		@ sp needed
 491 0012 5DF804FB 		ldr	pc, [sp], #4
 492              		.cfi_endproc
 493              	.LFE259:
ARM GAS  /tmp/cciPs3oN.s 			page 10


 494              		.size	osalThreadResumeI, .-osalThreadResumeI
 495 0016 00BFAFF3 		.section	.text.osalThreadDequeueAllI,"ax",%progbits
 495      0080AFF3 
 495      0080
 496              		.align	2
 497              		.p2align 4,,15
 498              		.thumb
 499              		.thumb_func
 500              		.type	osalThreadDequeueAllI, %function
 501              	osalThreadDequeueAllI:
 502              	.LFB264:
 503              		.loc 6 808 0
 504              		.cfi_startproc
 505              		@ args = 0, pretend = 0, frame = 8
 506              		@ frame_needed = 0, uses_anonymous_args = 0
 507 0000 00B5     		push	{lr}
 508              		.cfi_def_cfa_offset 4
 509              		.cfi_offset 14, -4
 510 0002 83B0     		sub	sp, sp, #12
 511              		.cfi_def_cfa_offset 16
 512 0004 0190     		str	r0, [sp, #4]
 513 0006 0091     		str	r1, [sp]
 514              		.loc 6 810 0
 515 0008 0198     		ldr	r0, [sp, #4]
 516 000a 0099     		ldr	r1, [sp]
 517 000c FFF7FEFF 		bl	chThdDequeueAllI
 518              		.loc 6 811 0
 519 0010 03B0     		add	sp, sp, #12
 520              		@ sp needed
 521 0012 5DF804FB 		ldr	pc, [sp], #4
 522              		.cfi_endproc
 523              	.LFE264:
 524              		.size	osalThreadDequeueAllI, .-osalThreadDequeueAllI
 525              		.global	USBD1
 526 0016 00BFAFF3 		.section	.bss.USBD1,"aw",%nobits
 526      0080AFF3 
 526      0080
 527              		.align	3
 528              		.type	USBD1, %object
 529              		.size	USBD1, 432
 530              	USBD1:
 531 0000 00000000 		.space	432
 531      00000000 
 531      00000000 
 531      00000000 
 531      00000000 
 532              		.section	.bss.ep0_state,"aw",%nobits
 533              		.align	2
 534              		.type	ep0_state, %object
 535              		.size	ep0_state, 20
 536              	ep0_state:
 537 0000 00000000 		.space	20
 537      00000000 
 537      00000000 
 537      00000000 
 537      00000000 
 538              		.section	.bss.ep0setup_buffer,"aw",%nobits
ARM GAS  /tmp/cciPs3oN.s 			page 11


 539              		.align	2
 540              		.type	ep0setup_buffer, %object
 541              		.size	ep0setup_buffer, 8
 542              	ep0setup_buffer:
 543 0000 00000000 		.space	8
 543      00000000 
 544              		.section	.rodata.ep0config,"a",%progbits
 545              		.align	2
 546              		.type	ep0config, %object
 547              		.size	ep0config, 36
 548              	ep0config:
 549 0000 00000000 		.word	0
 550 0004 00000000 		.word	_usb_ep0setup
 551 0008 00000000 		.word	_usb_ep0in
 552 000c 00000000 		.word	_usb_ep0out
 553 0010 4000     		.short	64
 554 0012 4000     		.short	64
 555 0014 00000000 		.word	ep0_state
 556 0018 00000000 		.word	ep0_state
 557 001c 0100     		.short	1
 558 001e 0000     		.space	2
 559 0020 00000000 		.word	ep0setup_buffer
 560              		.section	.rodata.fsparams,"a",%progbits
 561              		.align	2
 562              		.type	fsparams, %object
 563              		.size	fsparams, 12
 564              	fsparams:
 565 0000 80000000 		.word	128
 566 0004 40010000 		.word	320
 567 0008 03000000 		.word	3
 568              		.section	.text.otg_core_reset,"ax",%progbits
 569              		.align	2
 570              		.p2align 4,,15
 571              		.thumb
 572              		.thumb_func
 573              		.type	otg_core_reset, %function
 574              	otg_core_reset:
 575              	.LFB271:
 576              		.file 7 "/home/efe/ChibiOS/os/hal/ports/STM32/LLD/OTGv1/usb_lld.c"
 577              		.loc 7 128 0
 578              		.cfi_startproc
 579              		@ args = 0, pretend = 0, frame = 16
 580              		@ frame_needed = 0, uses_anonymous_args = 0
 581 0000 00B5     		push	{lr}
 582              		.cfi_def_cfa_offset 4
 583              		.cfi_offset 14, -4
 584 0002 85B0     		sub	sp, sp, #20
 585              		.cfi_def_cfa_offset 24
 586 0004 0190     		str	r0, [sp, #4]
 587              		.loc 7 129 0
 588 0006 019B     		ldr	r3, [sp, #4]
 589 0008 1B6D     		ldr	r3, [r3, #80]
 590 000a 0393     		str	r3, [sp, #12]
 591              		.loc 7 131 0
 592 000c 2020     		movs	r0, #32
 593 000e FFF7FEFF 		bl	osalSysPolledDelayX
 594              		.loc 7 134 0
ARM GAS  /tmp/cciPs3oN.s 			page 12


 595 0012 039B     		ldr	r3, [sp, #12]
 596 0014 0122     		movs	r2, #1
 597 0016 1A61     		str	r2, [r3, #16]
 598              		.loc 7 135 0
 599 0018 00BF     		nop
 600              	.L25:
 601              		.loc 7 135 0 is_stmt 0 discriminator 1
 602 001a 039B     		ldr	r3, [sp, #12]
 603 001c 1B69     		ldr	r3, [r3, #16]
 604 001e 03F00103 		and	r3, r3, #1
 605 0022 002B     		cmp	r3, #0
 606 0024 F9D1     		bne	.L25
 607              		.loc 7 138 0 is_stmt 1
 608 0026 0C20     		movs	r0, #12
 609 0028 FFF7FEFF 		bl	osalSysPolledDelayX
 610              		.loc 7 141 0
 611 002c 00BF     		nop
 612              	.L26:
 613              		.loc 7 141 0 is_stmt 0 discriminator 1
 614 002e 039B     		ldr	r3, [sp, #12]
 615 0030 1B69     		ldr	r3, [r3, #16]
 616 0032 002B     		cmp	r3, #0
 617 0034 FBDA     		bge	.L26
 618              		.loc 7 143 0 is_stmt 1
 619 0036 05B0     		add	sp, sp, #20
 620              		@ sp needed
 621 0038 5DF804FB 		ldr	pc, [sp], #4
 622              		.cfi_endproc
 623              	.LFE271:
 624              		.size	otg_core_reset, .-otg_core_reset
 625 003c AFF30080 		.section	.text.otg_disable_ep,"ax",%progbits
 626              		.align	2
 627              		.p2align 4,,15
 628              		.thumb
 629              		.thumb_func
 630              		.type	otg_disable_ep, %function
 631              	otg_disable_ep:
 632              	.LFB272:
 633              		.loc 7 145 0
 634              		.cfi_startproc
 635              		@ args = 0, pretend = 0, frame = 16
 636              		@ frame_needed = 0, uses_anonymous_args = 0
 637              		@ link register save eliminated.
 638 0000 84B0     		sub	sp, sp, #16
 639              		.cfi_def_cfa_offset 16
 640 0002 0190     		str	r0, [sp, #4]
 641              		.loc 7 146 0
 642 0004 019B     		ldr	r3, [sp, #4]
 643 0006 1B6D     		ldr	r3, [r3, #80]
 644 0008 0293     		str	r3, [sp, #8]
 645              		.loc 7 149 0
 646 000a 0023     		movs	r3, #0
 647 000c 0393     		str	r3, [sp, #12]
 648 000e 6CE0     		b	.L28
 649              	.L35:
 650              		.loc 7 153 0
 651 0010 029A     		ldr	r2, [sp, #8]
ARM GAS  /tmp/cciPs3oN.s 			page 13


 652 0012 039B     		ldr	r3, [sp, #12]
 653 0014 4833     		adds	r3, r3, #72
 654 0016 5B01     		lsls	r3, r3, #5
 655 0018 1344     		add	r3, r3, r2
 656 001a 1B68     		ldr	r3, [r3]
 657 001c 002B     		cmp	r3, #0
 658 001e 14DA     		bge	.L29
 659              		.loc 7 154 0
 660 0020 029A     		ldr	r2, [sp, #8]
 661 0022 039B     		ldr	r3, [sp, #12]
 662 0024 4833     		adds	r3, r3, #72
 663 0026 5B01     		lsls	r3, r3, #5
 664 0028 1344     		add	r3, r3, r2
 665 002a 4FF08042 		mov	r2, #1073741824
 666 002e 1A60     		str	r2, [r3]
 667              		.loc 7 156 0
 668 0030 00BF     		nop
 669              	.L30:
 670              		.loc 7 156 0 is_stmt 0 discriminator 1
 671 0032 029A     		ldr	r2, [sp, #8]
 672 0034 039B     		ldr	r3, [sp, #12]
 673 0036 5B01     		lsls	r3, r3, #5
 674 0038 1344     		add	r3, r3, r2
 675 003a 03F60813 		addw	r3, r3, #2312
 676 003e 1B68     		ldr	r3, [r3]
 677 0040 03F00203 		and	r3, r3, #2
 678 0044 002B     		cmp	r3, #0
 679 0046 F4D0     		beq	.L30
 680 0048 06E0     		b	.L31
 681              	.L29:
 682              		.loc 7 160 0 is_stmt 1
 683 004a 029A     		ldr	r2, [sp, #8]
 684 004c 039B     		ldr	r3, [sp, #12]
 685 004e 4833     		adds	r3, r3, #72
 686 0050 5B01     		lsls	r3, r3, #5
 687 0052 1344     		add	r3, r3, r2
 688 0054 0022     		movs	r2, #0
 689 0056 1A60     		str	r2, [r3]
 690              	.L31:
 691              		.loc 7 161 0
 692 0058 029A     		ldr	r2, [sp, #8]
 693 005a 039B     		ldr	r3, [sp, #12]
 694 005c 5B01     		lsls	r3, r3, #5
 695 005e 1344     		add	r3, r3, r2
 696 0060 03F51163 		add	r3, r3, #2320
 697 0064 0022     		movs	r2, #0
 698 0066 1A60     		str	r2, [r3]
 699              		.loc 7 162 0
 700 0068 029A     		ldr	r2, [sp, #8]
 701 006a 039B     		ldr	r3, [sp, #12]
 702 006c 5B01     		lsls	r3, r3, #5
 703 006e 1344     		add	r3, r3, r2
 704 0070 03F60813 		addw	r3, r3, #2312
 705 0074 4FF0FF32 		mov	r2, #-1
 706 0078 1A60     		str	r2, [r3]
 707              		.loc 7 168 0
 708 007a 029A     		ldr	r2, [sp, #8]
ARM GAS  /tmp/cciPs3oN.s 			page 14


 709 007c 039B     		ldr	r3, [sp, #12]
 710 007e 5833     		adds	r3, r3, #88
 711 0080 5B01     		lsls	r3, r3, #5
 712 0082 1344     		add	r3, r3, r2
 713 0084 1B68     		ldr	r3, [r3]
 714 0086 002B     		cmp	r3, #0
 715 0088 14DA     		bge	.L32
 716              		.loc 7 169 0
 717 008a 029A     		ldr	r2, [sp, #8]
 718 008c 039B     		ldr	r3, [sp, #12]
 719 008e 5833     		adds	r3, r3, #88
 720 0090 5B01     		lsls	r3, r3, #5
 721 0092 1344     		add	r3, r3, r2
 722 0094 4FF08042 		mov	r2, #1073741824
 723 0098 1A60     		str	r2, [r3]
 724              		.loc 7 171 0
 725 009a 00BF     		nop
 726              	.L33:
 727              		.loc 7 171 0 is_stmt 0 discriminator 1
 728 009c 029A     		ldr	r2, [sp, #8]
 729 009e 039B     		ldr	r3, [sp, #12]
 730 00a0 5B01     		lsls	r3, r3, #5
 731 00a2 1344     		add	r3, r3, r2
 732 00a4 03F60833 		addw	r3, r3, #2824
 733 00a8 1B68     		ldr	r3, [r3]
 734 00aa 03F01003 		and	r3, r3, #16
 735 00ae 002B     		cmp	r3, #0
 736 00b0 F4D0     		beq	.L33
 737 00b2 06E0     		b	.L34
 738              	.L32:
 739              		.loc 7 175 0 is_stmt 1
 740 00b4 029A     		ldr	r2, [sp, #8]
 741 00b6 039B     		ldr	r3, [sp, #12]
 742 00b8 5833     		adds	r3, r3, #88
 743 00ba 5B01     		lsls	r3, r3, #5
 744 00bc 1344     		add	r3, r3, r2
 745 00be 0022     		movs	r2, #0
 746 00c0 1A60     		str	r2, [r3]
 747              	.L34:
 748              		.loc 7 176 0
 749 00c2 029A     		ldr	r2, [sp, #8]
 750 00c4 039B     		ldr	r3, [sp, #12]
 751 00c6 5B01     		lsls	r3, r3, #5
 752 00c8 1344     		add	r3, r3, r2
 753 00ca 03F53163 		add	r3, r3, #2832
 754 00ce 0022     		movs	r2, #0
 755 00d0 1A60     		str	r2, [r3]
 756              		.loc 7 177 0
 757 00d2 029A     		ldr	r2, [sp, #8]
 758 00d4 039B     		ldr	r3, [sp, #12]
 759 00d6 5B01     		lsls	r3, r3, #5
 760 00d8 1344     		add	r3, r3, r2
 761 00da 03F60833 		addw	r3, r3, #2824
 762 00de 4FF0FF32 		mov	r2, #-1
 763 00e2 1A60     		str	r2, [r3]
 764              		.loc 7 149 0
 765 00e4 039B     		ldr	r3, [sp, #12]
ARM GAS  /tmp/cciPs3oN.s 			page 15


 766 00e6 0133     		adds	r3, r3, #1
 767 00e8 0393     		str	r3, [sp, #12]
 768              	.L28:
 769              		.loc 7 149 0 is_stmt 0 discriminator 1
 770 00ea 019B     		ldr	r3, [sp, #4]
 771 00ec 5B6D     		ldr	r3, [r3, #84]
 772 00ee 9A68     		ldr	r2, [r3, #8]
 773 00f0 039B     		ldr	r3, [sp, #12]
 774 00f2 9A42     		cmp	r2, r3
 775 00f4 8CD2     		bcs	.L35
 776              		.loc 7 179 0 is_stmt 1
 777 00f6 029B     		ldr	r3, [sp, #8]
 778 00f8 4FF00112 		mov	r2, #65537
 779 00fc C3F81C28 		str	r2, [r3, #2076]
 780              		.loc 7 180 0
 781 0100 04B0     		add	sp, sp, #16
 782              		@ sp needed
 783 0102 7047     		bx	lr
 784              		.cfi_endproc
 785              	.LFE272:
 786              		.size	otg_disable_ep, .-otg_disable_ep
 787 0104 AFF30080 		.section	.text.otg_rxfifo_flush,"ax",%progbits
 787      AFF30080 
 787      AFF30080 
 788              		.align	2
 789              		.p2align 4,,15
 790              		.thumb
 791              		.thumb_func
 792              		.type	otg_rxfifo_flush, %function
 793              	otg_rxfifo_flush:
 794              	.LFB273:
 795              		.loc 7 182 0
 796              		.cfi_startproc
 797              		@ args = 0, pretend = 0, frame = 16
 798              		@ frame_needed = 0, uses_anonymous_args = 0
 799 0000 00B5     		push	{lr}
 800              		.cfi_def_cfa_offset 4
 801              		.cfi_offset 14, -4
 802 0002 85B0     		sub	sp, sp, #20
 803              		.cfi_def_cfa_offset 24
 804 0004 0190     		str	r0, [sp, #4]
 805              		.loc 7 183 0
 806 0006 019B     		ldr	r3, [sp, #4]
 807 0008 1B6D     		ldr	r3, [r3, #80]
 808 000a 0393     		str	r3, [sp, #12]
 809              		.loc 7 185 0
 810 000c 039B     		ldr	r3, [sp, #12]
 811 000e 1022     		movs	r2, #16
 812 0010 1A61     		str	r2, [r3, #16]
 813              		.loc 7 186 0
 814 0012 00BF     		nop
 815              	.L37:
 816              		.loc 7 186 0 is_stmt 0 discriminator 1
 817 0014 039B     		ldr	r3, [sp, #12]
 818 0016 1B69     		ldr	r3, [r3, #16]
 819 0018 03F01003 		and	r3, r3, #16
 820 001c 002B     		cmp	r3, #0
ARM GAS  /tmp/cciPs3oN.s 			page 16


 821 001e F9D1     		bne	.L37
 822              		.loc 7 189 0 is_stmt 1
 823 0020 0C20     		movs	r0, #12
 824 0022 FFF7FEFF 		bl	osalSysPolledDelayX
 825              		.loc 7 190 0
 826 0026 05B0     		add	sp, sp, #20
 827              		@ sp needed
 828 0028 5DF804FB 		ldr	pc, [sp], #4
 829              		.cfi_endproc
 830              	.LFE273:
 831              		.size	otg_rxfifo_flush, .-otg_rxfifo_flush
 832 002c AFF30080 		.section	.text.otg_txfifo_flush,"ax",%progbits
 833              		.align	2
 834              		.p2align 4,,15
 835              		.thumb
 836              		.thumb_func
 837              		.type	otg_txfifo_flush, %function
 838              	otg_txfifo_flush:
 839              	.LFB274:
 840              		.loc 7 192 0
 841              		.cfi_startproc
 842              		@ args = 0, pretend = 0, frame = 16
 843              		@ frame_needed = 0, uses_anonymous_args = 0
 844 0000 00B5     		push	{lr}
 845              		.cfi_def_cfa_offset 4
 846              		.cfi_offset 14, -4
 847 0002 85B0     		sub	sp, sp, #20
 848              		.cfi_def_cfa_offset 24
 849 0004 0190     		str	r0, [sp, #4]
 850 0006 0091     		str	r1, [sp]
 851              		.loc 7 193 0
 852 0008 019B     		ldr	r3, [sp, #4]
 853 000a 1B6D     		ldr	r3, [r3, #80]
 854 000c 0393     		str	r3, [sp, #12]
 855              		.loc 7 195 0
 856 000e 009B     		ldr	r3, [sp]
 857 0010 9B01     		lsls	r3, r3, #6
 858 0012 43F02002 		orr	r2, r3, #32
 859 0016 039B     		ldr	r3, [sp, #12]
 860 0018 1A61     		str	r2, [r3, #16]
 861              		.loc 7 196 0
 862 001a 00BF     		nop
 863              	.L39:
 864              		.loc 7 196 0 is_stmt 0 discriminator 1
 865 001c 039B     		ldr	r3, [sp, #12]
 866 001e 1B69     		ldr	r3, [r3, #16]
 867 0020 03F02003 		and	r3, r3, #32
 868 0024 002B     		cmp	r3, #0
 869 0026 F9D1     		bne	.L39
 870              		.loc 7 199 0 is_stmt 1
 871 0028 0C20     		movs	r0, #12
 872 002a FFF7FEFF 		bl	osalSysPolledDelayX
 873              		.loc 7 200 0
 874 002e 05B0     		add	sp, sp, #20
 875              		@ sp needed
 876 0030 5DF804FB 		ldr	pc, [sp], #4
 877              		.cfi_endproc
ARM GAS  /tmp/cciPs3oN.s 			page 17


 878              	.LFE274:
 879              		.size	otg_txfifo_flush, .-otg_txfifo_flush
 880 0034 AFF30080 		.section	.text.otg_ram_reset,"ax",%progbits
 880      AFF30080 
 880      AFF30080 
 881              		.align	2
 882              		.p2align 4,,15
 883              		.thumb
 884              		.thumb_func
 885              		.type	otg_ram_reset, %function
 886              	otg_ram_reset:
 887              	.LFB275:
 888              		.loc 7 209 0
 889              		.cfi_startproc
 890              		@ args = 0, pretend = 0, frame = 8
 891              		@ frame_needed = 0, uses_anonymous_args = 0
 892              		@ link register save eliminated.
 893 0000 82B0     		sub	sp, sp, #8
 894              		.cfi_def_cfa_offset 8
 895 0002 0190     		str	r0, [sp, #4]
 896              		.loc 7 211 0
 897 0004 019B     		ldr	r3, [sp, #4]
 898 0006 5B6D     		ldr	r3, [r3, #84]
 899 0008 1A68     		ldr	r2, [r3]
 900 000a 019B     		ldr	r3, [sp, #4]
 901 000c 9A65     		str	r2, [r3, #88]
 902              		.loc 7 212 0
 903 000e 02B0     		add	sp, sp, #8
 904              		@ sp needed
 905 0010 7047     		bx	lr
 906              		.cfi_endproc
 907              	.LFE275:
 908              		.size	otg_ram_reset, .-otg_ram_reset
 909 0012 00BFAFF3 		.section	.text.otg_ram_alloc,"ax",%progbits
 909      0080AFF3 
 909      0080AFF3 
 909      0080
 910              		.align	2
 911              		.p2align 4,,15
 912              		.thumb
 913              		.thumb_func
 914              		.type	otg_ram_alloc, %function
 915              	otg_ram_alloc:
 916              	.LFB276:
 917              		.loc 7 222 0
 918              		.cfi_startproc
 919              		@ args = 0, pretend = 0, frame = 16
 920              		@ frame_needed = 0, uses_anonymous_args = 0
 921              		@ link register save eliminated.
 922 0000 84B0     		sub	sp, sp, #16
 923              		.cfi_def_cfa_offset 16
 924 0002 0190     		str	r0, [sp, #4]
 925 0004 0091     		str	r1, [sp]
 926              		.loc 7 225 0
 927 0006 019B     		ldr	r3, [sp, #4]
 928 0008 9B6D     		ldr	r3, [r3, #88]
 929 000a 0393     		str	r3, [sp, #12]
ARM GAS  /tmp/cciPs3oN.s 			page 18


 930              		.loc 7 226 0
 931 000c 019B     		ldr	r3, [sp, #4]
 932 000e 9A6D     		ldr	r2, [r3, #88]
 933 0010 009B     		ldr	r3, [sp]
 934 0012 1A44     		add	r2, r2, r3
 935 0014 019B     		ldr	r3, [sp, #4]
 936 0016 9A65     		str	r2, [r3, #88]
 937              		.loc 7 229 0
 938 0018 039B     		ldr	r3, [sp, #12]
 939              		.loc 7 230 0
 940 001a 1846     		mov	r0, r3
 941 001c 04B0     		add	sp, sp, #16
 942              		@ sp needed
 943 001e 7047     		bx	lr
 944              		.cfi_endproc
 945              	.LFE276:
 946              		.size	otg_ram_alloc, .-otg_ram_alloc
 947              		.section	.text.otg_do_push,"ax",%progbits
 948              		.align	2
 949              		.p2align 4,,15
 950              		.thumb
 951              		.thumb_func
 952              		.type	otg_do_push, %function
 953              	otg_do_push:
 954              	.LFB277:
 955              		.loc 7 244 0
 956              		.cfi_startproc
 957              		@ args = 0, pretend = 0, frame = 16
 958              		@ frame_needed = 0, uses_anonymous_args = 0
 959              		@ link register save eliminated.
 960 0000 84B0     		sub	sp, sp, #16
 961              		.cfi_def_cfa_offset 16
 962 0002 0390     		str	r0, [sp, #12]
 963 0004 0291     		str	r1, [sp, #8]
 964 0006 0192     		str	r2, [sp, #4]
 965              		.loc 7 246 0
 966 0008 09E0     		b	.L44
 967              	.L45:
 968              		.loc 7 249 0
 969 000a 029B     		ldr	r3, [sp, #8]
 970 000c 1A68     		ldr	r2, [r3]
 971 000e 039B     		ldr	r3, [sp, #12]
 972 0010 1A60     		str	r2, [r3]
 973              		.loc 7 250 0
 974 0012 029B     		ldr	r3, [sp, #8]
 975 0014 0433     		adds	r3, r3, #4
 976 0016 0293     		str	r3, [sp, #8]
 977              		.loc 7 251 0
 978 0018 019B     		ldr	r3, [sp, #4]
 979 001a 013B     		subs	r3, r3, #1
 980 001c 0193     		str	r3, [sp, #4]
 981              	.L44:
 982              		.loc 7 246 0 discriminator 1
 983 001e 019B     		ldr	r3, [sp, #4]
 984 0020 002B     		cmp	r3, #0
 985 0022 F2D1     		bne	.L45
 986              		.loc 7 253 0
ARM GAS  /tmp/cciPs3oN.s 			page 19


 987 0024 029B     		ldr	r3, [sp, #8]
 988              		.loc 7 254 0
 989 0026 1846     		mov	r0, r3
 990 0028 04B0     		add	sp, sp, #16
 991              		@ sp needed
 992 002a 7047     		bx	lr
 993              		.cfi_endproc
 994              	.LFE277:
 995              		.size	otg_do_push, .-otg_do_push
 996 002c AFF30080 		.section	.text.otg_fifo_write_from_buffer,"ax",%progbits
 997              		.align	2
 998              		.p2align 4,,15
 999              		.thumb
 1000              		.thumb_func
 1001              		.type	otg_fifo_write_from_buffer, %function
 1002              	otg_fifo_write_from_buffer:
 1003              	.LFB278:
 1004              		.loc 7 267 0
 1005              		.cfi_startproc
 1006              		@ args = 0, pretend = 0, frame = 16
 1007              		@ frame_needed = 0, uses_anonymous_args = 0
 1008 0000 00B5     		push	{lr}
 1009              		.cfi_def_cfa_offset 4
 1010              		.cfi_offset 14, -4
 1011 0002 85B0     		sub	sp, sp, #20
 1012              		.cfi_def_cfa_offset 24
 1013 0004 0390     		str	r0, [sp, #12]
 1014 0006 0291     		str	r1, [sp, #8]
 1015 0008 0192     		str	r2, [sp, #4]
 1016              		.loc 7 269 0
 1017 000a 019B     		ldr	r3, [sp, #4]
 1018 000c 0333     		adds	r3, r3, #3
 1019 000e 9B08     		lsrs	r3, r3, #2
 1020 0010 0398     		ldr	r0, [sp, #12]
 1021 0012 0299     		ldr	r1, [sp, #8]
 1022 0014 1A46     		mov	r2, r3
 1023 0016 FFF7FEFF 		bl	otg_do_push
 1024              		.loc 7 270 0
 1025 001a 05B0     		add	sp, sp, #20
 1026              		@ sp needed
 1027 001c 5DF804FB 		ldr	pc, [sp], #4
 1028              		.cfi_endproc
 1029              	.LFE278:
 1030              		.size	otg_fifo_write_from_buffer, .-otg_fifo_write_from_buffer
 1031              		.section	.text.otg_fifo_write_from_queue,"ax",%progbits
 1032              		.align	2
 1033              		.p2align 4,,15
 1034              		.thumb
 1035              		.thumb_func
 1036              		.type	otg_fifo_write_from_queue, %function
 1037              	otg_fifo_write_from_queue:
 1038              	.LFB279:
 1039              		.loc 7 283 0
 1040              		.cfi_startproc
 1041              		@ args = 0, pretend = 0, frame = 40
 1042              		@ frame_needed = 0, uses_anonymous_args = 0
 1043 0000 00B5     		push	{lr}
ARM GAS  /tmp/cciPs3oN.s 			page 20


 1044              		.cfi_def_cfa_offset 4
 1045              		.cfi_offset 14, -4
 1046 0002 8BB0     		sub	sp, sp, #44
 1047              		.cfi_def_cfa_offset 48
 1048 0004 0390     		str	r0, [sp, #12]
 1049 0006 0291     		str	r1, [sp, #8]
 1050 0008 0192     		str	r2, [sp, #4]
 1051              		.loc 7 286 0
 1052 000a 019B     		ldr	r3, [sp, #4]
 1053 000c 0993     		str	r3, [sp, #36]
 1054              		.loc 7 287 0
 1055 000e 60E0     		b	.L49
 1056              	.L58:
 1057              	.LBB10:
 1058              		.loc 7 289 0
 1059 0010 099B     		ldr	r3, [sp, #36]
 1060 0012 9B08     		lsrs	r3, r3, #2
 1061 0014 0693     		str	r3, [sp, #24]
 1062              		.loc 7 291 0
 1063 0016 069B     		ldr	r3, [sp, #24]
 1064 0018 002B     		cmp	r3, #0
 1065 001a 2AD0     		beq	.L50
 1066              	.LBB11:
 1067              		.loc 7 293 0
 1068 001c 029B     		ldr	r3, [sp, #8]
 1069 001e 1B69     		ldr	r3, [r3, #16]
 1070 0020 1A46     		mov	r2, r3
 1071 0022 029B     		ldr	r3, [sp, #8]
 1072 0024 9B69     		ldr	r3, [r3, #24]
 1073 0026 D31A     		subs	r3, r2, r3
 1074 0028 002B     		cmp	r3, #0
 1075 002a 00DA     		bge	.L51
 1076 002c 0333     		adds	r3, r3, #3
 1077              	.L51:
 1078 002e 9B10     		asrs	r3, r3, #2
 1079 0030 0593     		str	r3, [sp, #20]
 1080              		.loc 7 295 0
 1081 0032 069A     		ldr	r2, [sp, #24]
 1082 0034 059B     		ldr	r3, [sp, #20]
 1083 0036 9A42     		cmp	r2, r3
 1084 0038 38BF     		it	cc
 1085 003a 1346     		movcc	r3, r2
 1086 003c 0493     		str	r3, [sp, #16]
 1087 003e 049B     		ldr	r3, [sp, #16]
 1088 0040 9B00     		lsls	r3, r3, #2
 1089 0042 099A     		ldr	r2, [sp, #36]
 1090 0044 D31A     		subs	r3, r2, r3
 1091 0046 0993     		str	r3, [sp, #36]
 1092              		.loc 7 296 0
 1093 0048 029B     		ldr	r3, [sp, #8]
 1094 004a 9B69     		ldr	r3, [r3, #24]
 1095 004c 0398     		ldr	r0, [sp, #12]
 1096 004e 1946     		mov	r1, r3
 1097 0050 049A     		ldr	r2, [sp, #16]
 1098 0052 FFF7FEFF 		bl	otg_do_push
 1099 0056 0246     		mov	r2, r0
 1100 0058 029B     		ldr	r3, [sp, #8]
ARM GAS  /tmp/cciPs3oN.s 			page 21


 1101 005a 9A61     		str	r2, [r3, #24]
 1102              		.loc 7 297 0
 1103 005c 029B     		ldr	r3, [sp, #8]
 1104 005e 9A69     		ldr	r2, [r3, #24]
 1105 0060 029B     		ldr	r3, [sp, #8]
 1106 0062 1B69     		ldr	r3, [r3, #16]
 1107 0064 9A42     		cmp	r2, r3
 1108 0066 04D3     		bcc	.L50
 1109              		.loc 7 298 0
 1110 0068 029B     		ldr	r3, [sp, #8]
 1111 006a DA68     		ldr	r2, [r3, #12]
 1112 006c 029B     		ldr	r3, [sp, #8]
 1113 006e 9A61     		str	r2, [r3, #24]
 1114              		.loc 7 299 0
 1115 0070 2FE0     		b	.L49
 1116              	.L50:
 1117              	.LBE11:
 1118              		.loc 7 305 0
 1119 0072 099B     		ldr	r3, [sp, #36]
 1120 0074 002B     		cmp	r3, #0
 1121 0076 00D1     		bne	.L52
 1122              		.loc 7 306 0
 1123 0078 2EE0     		b	.L53
 1124              	.L52:
 1125              		.loc 7 309 0
 1126 007a 0023     		movs	r3, #0
 1127 007c 0893     		str	r3, [sp, #32]
 1128              		.loc 7 310 0
 1129 007e 0023     		movs	r3, #0
 1130 0080 0793     		str	r3, [sp, #28]
 1131              		.loc 7 311 0
 1132 0082 1DE0     		b	.L54
 1133              	.L57:
 1134              		.loc 7 312 0
 1135 0084 029B     		ldr	r3, [sp, #8]
 1136 0086 9B69     		ldr	r3, [r3, #24]
 1137 0088 591C     		adds	r1, r3, #1
 1138 008a 029A     		ldr	r2, [sp, #8]
 1139 008c 9161     		str	r1, [r2, #24]
 1140 008e 1B78     		ldrb	r3, [r3]	@ zero_extendqisi2
 1141 0090 1A46     		mov	r2, r3
 1142 0092 079B     		ldr	r3, [sp, #28]
 1143 0094 DB00     		lsls	r3, r3, #3
 1144 0096 02FA03F3 		lsl	r3, r2, r3
 1145 009a 089A     		ldr	r2, [sp, #32]
 1146 009c 1343     		orrs	r3, r3, r2
 1147 009e 0893     		str	r3, [sp, #32]
 1148              		.loc 7 313 0
 1149 00a0 029B     		ldr	r3, [sp, #8]
 1150 00a2 9A69     		ldr	r2, [r3, #24]
 1151 00a4 029B     		ldr	r3, [sp, #8]
 1152 00a6 1B69     		ldr	r3, [r3, #16]
 1153 00a8 9A42     		cmp	r2, r3
 1154 00aa 03D3     		bcc	.L55
 1155              		.loc 7 314 0
 1156 00ac 029B     		ldr	r3, [sp, #8]
 1157 00ae DA68     		ldr	r2, [r3, #12]
ARM GAS  /tmp/cciPs3oN.s 			page 22


 1158 00b0 029B     		ldr	r3, [sp, #8]
 1159 00b2 9A61     		str	r2, [r3, #24]
 1160              	.L55:
 1161              		.loc 7 315 0
 1162 00b4 099B     		ldr	r3, [sp, #36]
 1163 00b6 013B     		subs	r3, r3, #1
 1164 00b8 0993     		str	r3, [sp, #36]
 1165              		.loc 7 316 0
 1166 00ba 079B     		ldr	r3, [sp, #28]
 1167 00bc 0133     		adds	r3, r3, #1
 1168 00be 0793     		str	r3, [sp, #28]
 1169              	.L54:
 1170              		.loc 7 311 0 discriminator 1
 1171 00c0 099B     		ldr	r3, [sp, #36]
 1172 00c2 002B     		cmp	r3, #0
 1173 00c4 02D0     		beq	.L56
 1174              		.loc 7 311 0 is_stmt 0 discriminator 2
 1175 00c6 079B     		ldr	r3, [sp, #28]
 1176 00c8 032B     		cmp	r3, #3
 1177 00ca DBD9     		bls	.L57
 1178              	.L56:
 1179              		.loc 7 318 0 is_stmt 1
 1180 00cc 039B     		ldr	r3, [sp, #12]
 1181 00ce 089A     		ldr	r2, [sp, #32]
 1182 00d0 1A60     		str	r2, [r3]
 1183              	.L49:
 1184              	.LBE10:
 1185              		.loc 7 287 0 discriminator 1
 1186 00d2 099B     		ldr	r3, [sp, #36]
 1187 00d4 002B     		cmp	r3, #0
 1188 00d6 9BD1     		bne	.L58
 1189              	.L53:
 1190              		.loc 7 322 0
 1191 00d8 FFF7FEFF 		bl	osalSysLock
 1192              		.loc 7 323 0
 1193 00dc 029B     		ldr	r3, [sp, #8]
 1194 00de 9A68     		ldr	r2, [r3, #8]
 1195 00e0 019B     		ldr	r3, [sp, #4]
 1196 00e2 1A44     		add	r2, r2, r3
 1197 00e4 029B     		ldr	r3, [sp, #8]
 1198 00e6 9A60     		str	r2, [r3, #8]
 1199              		.loc 7 324 0
 1200 00e8 029B     		ldr	r3, [sp, #8]
 1201 00ea 1846     		mov	r0, r3
 1202 00ec 0021     		movs	r1, #0
 1203 00ee FFF7FEFF 		bl	osalThreadDequeueAllI
 1204              		.loc 7 325 0
 1205 00f2 FFF7FEFF 		bl	osalOsRescheduleS
 1206              		.loc 7 326 0
 1207 00f6 FFF7FEFF 		bl	osalSysUnlock
 1208              		.loc 7 327 0
 1209 00fa 0BB0     		add	sp, sp, #44
 1210              		@ sp needed
 1211 00fc 5DF804FB 		ldr	pc, [sp], #4
 1212              		.cfi_endproc
 1213              	.LFE279:
 1214              		.size	otg_fifo_write_from_queue, .-otg_fifo_write_from_queue
ARM GAS  /tmp/cciPs3oN.s 			page 23


 1215              		.section	.text.otg_do_pop,"ax",%progbits
 1216              		.align	2
 1217              		.p2align 4,,15
 1218              		.thumb
 1219              		.thumb_func
 1220              		.type	otg_do_pop, %function
 1221              	otg_do_pop:
 1222              	.LFB280:
 1223              		.loc 7 341 0
 1224              		.cfi_startproc
 1225              		@ args = 0, pretend = 0, frame = 24
 1226              		@ frame_needed = 0, uses_anonymous_args = 0
 1227              		@ link register save eliminated.
 1228 0000 86B0     		sub	sp, sp, #24
 1229              		.cfi_def_cfa_offset 24
 1230 0002 0390     		str	r0, [sp, #12]
 1231 0004 0291     		str	r1, [sp, #8]
 1232 0006 0192     		str	r2, [sp, #4]
 1233              		.loc 7 343 0
 1234 0008 0BE0     		b	.L60
 1235              	.L61:
 1236              	.LBB12:
 1237              		.loc 7 344 0
 1238 000a 039B     		ldr	r3, [sp, #12]
 1239 000c 1B68     		ldr	r3, [r3]
 1240 000e 0593     		str	r3, [sp, #20]
 1241              		.loc 7 347 0
 1242 0010 029B     		ldr	r3, [sp, #8]
 1243 0012 059A     		ldr	r2, [sp, #20]
 1244 0014 1A60     		str	r2, [r3]
 1245              		.loc 7 348 0
 1246 0016 029B     		ldr	r3, [sp, #8]
 1247 0018 0433     		adds	r3, r3, #4
 1248 001a 0293     		str	r3, [sp, #8]
 1249              		.loc 7 349 0
 1250 001c 019B     		ldr	r3, [sp, #4]
 1251 001e 013B     		subs	r3, r3, #1
 1252 0020 0193     		str	r3, [sp, #4]
 1253              	.L60:
 1254              	.LBE12:
 1255              		.loc 7 343 0 discriminator 1
 1256 0022 019B     		ldr	r3, [sp, #4]
 1257 0024 002B     		cmp	r3, #0
 1258 0026 F0D1     		bne	.L61
 1259              		.loc 7 351 0
 1260 0028 029B     		ldr	r3, [sp, #8]
 1261              		.loc 7 352 0
 1262 002a 1846     		mov	r0, r3
 1263 002c 06B0     		add	sp, sp, #24
 1264              		@ sp needed
 1265 002e 7047     		bx	lr
 1266              		.cfi_endproc
 1267              	.LFE280:
 1268              		.size	otg_do_pop, .-otg_do_pop
 1269              		.section	.text.otg_fifo_read_to_buffer,"ax",%progbits
 1270              		.align	2
 1271              		.p2align 4,,15
ARM GAS  /tmp/cciPs3oN.s 			page 24


 1272              		.thumb
 1273              		.thumb_func
 1274              		.type	otg_fifo_read_to_buffer, %function
 1275              	otg_fifo_read_to_buffer:
 1276              	.LFB281:
 1277              		.loc 7 367 0
 1278              		.cfi_startproc
 1279              		@ args = 0, pretend = 0, frame = 24
 1280              		@ frame_needed = 0, uses_anonymous_args = 0
 1281              		@ link register save eliminated.
 1282 0000 86B0     		sub	sp, sp, #24
 1283              		.cfi_def_cfa_offset 24
 1284 0002 0390     		str	r0, [sp, #12]
 1285 0004 0291     		str	r1, [sp, #8]
 1286 0006 0192     		str	r2, [sp, #4]
 1287 0008 0093     		str	r3, [sp]
 1288              		.loc 7 369 0
 1289 000a 019B     		ldr	r3, [sp, #4]
 1290 000c 0333     		adds	r3, r3, #3
 1291 000e 9B08     		lsrs	r3, r3, #2
 1292 0010 0193     		str	r3, [sp, #4]
 1293              		.loc 7 370 0
 1294 0012 009B     		ldr	r3, [sp]
 1295 0014 0333     		adds	r3, r3, #3
 1296 0016 9B08     		lsrs	r3, r3, #2
 1297 0018 0093     		str	r3, [sp]
 1298              		.loc 7 371 0
 1299 001a 11E0     		b	.L64
 1300              	.L66:
 1301              	.LBB13:
 1302              		.loc 7 372 0
 1303 001c 039B     		ldr	r3, [sp, #12]
 1304 001e 1B68     		ldr	r3, [r3]
 1305 0020 0593     		str	r3, [sp, #20]
 1306              		.loc 7 373 0
 1307 0022 009B     		ldr	r3, [sp]
 1308 0024 002B     		cmp	r3, #0
 1309 0026 08D0     		beq	.L65
 1310              		.loc 7 376 0
 1311 0028 029B     		ldr	r3, [sp, #8]
 1312 002a 059A     		ldr	r2, [sp, #20]
 1313 002c 1A60     		str	r2, [r3]
 1314              		.loc 7 377 0
 1315 002e 029B     		ldr	r3, [sp, #8]
 1316 0030 0433     		adds	r3, r3, #4
 1317 0032 0293     		str	r3, [sp, #8]
 1318              		.loc 7 378 0
 1319 0034 009B     		ldr	r3, [sp]
 1320 0036 013B     		subs	r3, r3, #1
 1321 0038 0093     		str	r3, [sp]
 1322              	.L65:
 1323              		.loc 7 380 0
 1324 003a 019B     		ldr	r3, [sp, #4]
 1325 003c 013B     		subs	r3, r3, #1
 1326 003e 0193     		str	r3, [sp, #4]
 1327              	.L64:
 1328              	.LBE13:
ARM GAS  /tmp/cciPs3oN.s 			page 25


 1329              		.loc 7 371 0 discriminator 1
 1330 0040 019B     		ldr	r3, [sp, #4]
 1331 0042 002B     		cmp	r3, #0
 1332 0044 EAD1     		bne	.L66
 1333              		.loc 7 382 0
 1334 0046 06B0     		add	sp, sp, #24
 1335              		@ sp needed
 1336 0048 7047     		bx	lr
 1337              		.cfi_endproc
 1338              	.LFE281:
 1339              		.size	otg_fifo_read_to_buffer, .-otg_fifo_read_to_buffer
 1340 004a 00BFAFF3 		.section	.text.otg_fifo_read_to_queue,"ax",%progbits
 1340      0080
 1341              		.align	2
 1342              		.p2align 4,,15
 1343              		.thumb
 1344              		.thumb_func
 1345              		.type	otg_fifo_read_to_queue, %function
 1346              	otg_fifo_read_to_queue:
 1347              	.LFB282:
 1348              		.loc 7 395 0
 1349              		.cfi_startproc
 1350              		@ args = 0, pretend = 0, frame = 40
 1351              		@ frame_needed = 0, uses_anonymous_args = 0
 1352 0000 00B5     		push	{lr}
 1353              		.cfi_def_cfa_offset 4
 1354              		.cfi_offset 14, -4
 1355 0002 8BB0     		sub	sp, sp, #44
 1356              		.cfi_def_cfa_offset 48
 1357 0004 0390     		str	r0, [sp, #12]
 1358 0006 0291     		str	r1, [sp, #8]
 1359 0008 0192     		str	r2, [sp, #4]
 1360              		.loc 7 398 0
 1361 000a 019B     		ldr	r3, [sp, #4]
 1362 000c 0993     		str	r3, [sp, #36]
 1363              		.loc 7 399 0
 1364 000e 53E0     		b	.L68
 1365              	.L75:
 1366              	.LBB14:
 1367              		.loc 7 401 0
 1368 0010 099B     		ldr	r3, [sp, #36]
 1369 0012 9B08     		lsrs	r3, r3, #2
 1370 0014 0793     		str	r3, [sp, #28]
 1371              		.loc 7 403 0
 1372 0016 079B     		ldr	r3, [sp, #28]
 1373 0018 002B     		cmp	r3, #0
 1374 001a 21D0     		beq	.L69
 1375              	.LBB15:
 1376              		.loc 7 405 0
 1377 001c 0023     		movs	r3, #0
 1378 001e 0693     		str	r3, [sp, #24]
 1379              		.loc 7 407 0
 1380 0020 079A     		ldr	r2, [sp, #28]
 1381 0022 069B     		ldr	r3, [sp, #24]
 1382 0024 9A42     		cmp	r2, r3
 1383 0026 38BF     		it	cc
 1384 0028 1346     		movcc	r3, r2
ARM GAS  /tmp/cciPs3oN.s 			page 26


 1385 002a 0593     		str	r3, [sp, #20]
 1386 002c 059B     		ldr	r3, [sp, #20]
 1387 002e 9B00     		lsls	r3, r3, #2
 1388 0030 099A     		ldr	r2, [sp, #36]
 1389 0032 D31A     		subs	r3, r2, r3
 1390 0034 0993     		str	r3, [sp, #36]
 1391              		.loc 7 408 0
 1392 0036 029B     		ldr	r3, [sp, #8]
 1393 0038 5B69     		ldr	r3, [r3, #20]
 1394 003a 0398     		ldr	r0, [sp, #12]
 1395 003c 1946     		mov	r1, r3
 1396 003e 059A     		ldr	r2, [sp, #20]
 1397 0040 FFF7FEFF 		bl	otg_do_pop
 1398 0044 0246     		mov	r2, r0
 1399 0046 029B     		ldr	r3, [sp, #8]
 1400 0048 5A61     		str	r2, [r3, #20]
 1401              		.loc 7 409 0
 1402 004a 029B     		ldr	r3, [sp, #8]
 1403 004c 5A69     		ldr	r2, [r3, #20]
 1404 004e 029B     		ldr	r3, [sp, #8]
 1405 0050 1B69     		ldr	r3, [r3, #16]
 1406 0052 9A42     		cmp	r2, r3
 1407 0054 04D3     		bcc	.L69
 1408              		.loc 7 410 0
 1409 0056 029B     		ldr	r3, [sp, #8]
 1410 0058 DA68     		ldr	r2, [r3, #12]
 1411 005a 029B     		ldr	r3, [sp, #8]
 1412 005c 5A61     		str	r2, [r3, #20]
 1413              		.loc 7 411 0
 1414 005e 2BE0     		b	.L68
 1415              	.L69:
 1416              	.LBE15:
 1417              		.loc 7 417 0
 1418 0060 099B     		ldr	r3, [sp, #36]
 1419 0062 002B     		cmp	r3, #0
 1420 0064 00D1     		bne	.L70
 1421              		.loc 7 418 0
 1422 0066 2AE0     		b	.L71
 1423              	.L70:
 1424              		.loc 7 421 0
 1425 0068 039B     		ldr	r3, [sp, #12]
 1426 006a 1B68     		ldr	r3, [r3]
 1427 006c 0493     		str	r3, [sp, #16]
 1428              		.loc 7 422 0
 1429 006e 0023     		movs	r3, #0
 1430 0070 0893     		str	r3, [sp, #32]
 1431              		.loc 7 423 0
 1432 0072 1BE0     		b	.L72
 1433              	.L74:
 1434              		.loc 7 424 0
 1435 0074 029B     		ldr	r3, [sp, #8]
 1436 0076 5B69     		ldr	r3, [r3, #20]
 1437 0078 591C     		adds	r1, r3, #1
 1438 007a 029A     		ldr	r2, [sp, #8]
 1439 007c 5161     		str	r1, [r2, #20]
 1440 007e 089A     		ldr	r2, [sp, #32]
 1441 0080 D200     		lsls	r2, r2, #3
ARM GAS  /tmp/cciPs3oN.s 			page 27


 1442 0082 0499     		ldr	r1, [sp, #16]
 1443 0084 21FA02F2 		lsr	r2, r1, r2
 1444 0088 D2B2     		uxtb	r2, r2
 1445 008a 1A70     		strb	r2, [r3]
 1446              		.loc 7 425 0
 1447 008c 029B     		ldr	r3, [sp, #8]
 1448 008e 5A69     		ldr	r2, [r3, #20]
 1449 0090 029B     		ldr	r3, [sp, #8]
 1450 0092 1B69     		ldr	r3, [r3, #16]
 1451 0094 9A42     		cmp	r2, r3
 1452 0096 03D3     		bcc	.L73
 1453              		.loc 7 426 0
 1454 0098 029B     		ldr	r3, [sp, #8]
 1455 009a DA68     		ldr	r2, [r3, #12]
 1456 009c 029B     		ldr	r3, [sp, #8]
 1457 009e 5A61     		str	r2, [r3, #20]
 1458              	.L73:
 1459              		.loc 7 427 0
 1460 00a0 099B     		ldr	r3, [sp, #36]
 1461 00a2 013B     		subs	r3, r3, #1
 1462 00a4 0993     		str	r3, [sp, #36]
 1463              		.loc 7 428 0
 1464 00a6 089B     		ldr	r3, [sp, #32]
 1465 00a8 0133     		adds	r3, r3, #1
 1466 00aa 0893     		str	r3, [sp, #32]
 1467              	.L72:
 1468              		.loc 7 423 0 discriminator 1
 1469 00ac 099B     		ldr	r3, [sp, #36]
 1470 00ae 002B     		cmp	r3, #0
 1471 00b0 02D0     		beq	.L68
 1472              		.loc 7 423 0 is_stmt 0 discriminator 2
 1473 00b2 089B     		ldr	r3, [sp, #32]
 1474 00b4 032B     		cmp	r3, #3
 1475 00b6 DDD9     		bls	.L74
 1476              	.L68:
 1477              	.LBE14:
 1478              		.loc 7 399 0 is_stmt 1 discriminator 1
 1479 00b8 099B     		ldr	r3, [sp, #36]
 1480 00ba 002B     		cmp	r3, #0
 1481 00bc A8D1     		bne	.L75
 1482              	.L71:
 1483              		.loc 7 433 0
 1484 00be FFF7FEFF 		bl	osalSysLock
 1485              		.loc 7 434 0
 1486 00c2 029B     		ldr	r3, [sp, #8]
 1487 00c4 9A68     		ldr	r2, [r3, #8]
 1488 00c6 019B     		ldr	r3, [sp, #4]
 1489 00c8 1A44     		add	r2, r2, r3
 1490 00ca 029B     		ldr	r3, [sp, #8]
 1491 00cc 9A60     		str	r2, [r3, #8]
 1492              		.loc 7 435 0
 1493 00ce 029B     		ldr	r3, [sp, #8]
 1494 00d0 1846     		mov	r0, r3
 1495 00d2 0021     		movs	r1, #0
 1496 00d4 FFF7FEFF 		bl	osalThreadDequeueAllI
 1497              		.loc 7 436 0
 1498 00d8 FFF7FEFF 		bl	osalOsRescheduleS
ARM GAS  /tmp/cciPs3oN.s 			page 28


 1499              		.loc 7 437 0
 1500 00dc FFF7FEFF 		bl	osalSysUnlock
 1501              		.loc 7 438 0
 1502 00e0 0BB0     		add	sp, sp, #44
 1503              		@ sp needed
 1504 00e2 5DF804FB 		ldr	pc, [sp], #4
 1505              		.cfi_endproc
 1506              	.LFE282:
 1507              		.size	otg_fifo_read_to_queue, .-otg_fifo_read_to_queue
 1508 00e6 00BFAFF3 		.section	.text.otg_rxfifo_handler,"ax",%progbits
 1508      0080AFF3 
 1508      0080
 1509              		.align	2
 1510              		.p2align 4,,15
 1511              		.thumb
 1512              		.thumb_func
 1513              		.type	otg_rxfifo_handler, %function
 1514              	otg_rxfifo_handler:
 1515              	.LFB283:
 1516              		.loc 7 447 0
 1517              		.cfi_startproc
 1518              		@ args = 0, pretend = 0, frame = 24
 1519              		@ frame_needed = 0, uses_anonymous_args = 0
 1520 0000 10B5     		push	{r4, lr}
 1521              		.cfi_def_cfa_offset 8
 1522              		.cfi_offset 4, -8
 1523              		.cfi_offset 14, -4
 1524 0002 86B0     		sub	sp, sp, #24
 1525              		.cfi_def_cfa_offset 32
 1526 0004 0190     		str	r0, [sp, #4]
 1527              		.loc 7 450 0
 1528 0006 019B     		ldr	r3, [sp, #4]
 1529 0008 1B6D     		ldr	r3, [r3, #80]
 1530 000a 1B6A     		ldr	r3, [r3, #32]
 1531 000c 0593     		str	r3, [sp, #20]
 1532              		.loc 7 451 0
 1533 000e 059B     		ldr	r3, [sp, #20]
 1534 0010 03F4F013 		and	r3, r3, #1966080
 1535 0014 B3F5002F 		cmp	r3, #524288
 1536 0018 00F09180 		beq	.L83
 1537 001c B3F5402F 		cmp	r3, #786432
 1538 0020 03D0     		beq	.L79
 1539 0022 B3F5802F 		cmp	r3, #262144
 1540 0026 1CD0     		beq	.L80
 1541 0028 8AE0     		b	.L76
 1542              	.L79:
 1543              		.loc 7 455 0
 1544 002a 059A     		ldr	r2, [sp, #20]
 1545 002c 47F6F073 		movw	r3, #32752
 1546 0030 1340     		ands	r3, r3, r2
 1547 0032 1B09     		lsrs	r3, r3, #4
 1548 0034 0493     		str	r3, [sp, #16]
 1549              		.loc 7 456 0
 1550 0036 059B     		ldr	r3, [sp, #20]
 1551 0038 03F00F03 		and	r3, r3, #15
 1552 003c 0393     		str	r3, [sp, #12]
 1553              		.loc 7 457 0
ARM GAS  /tmp/cciPs3oN.s 			page 29


 1554 003e 019B     		ldr	r3, [sp, #4]
 1555 0040 1B6D     		ldr	r3, [r3, #80]
 1556 0042 03F58052 		add	r2, r3, #4096
 1557 0046 0199     		ldr	r1, [sp, #4]
 1558 0048 039B     		ldr	r3, [sp, #12]
 1559 004a 0233     		adds	r3, r3, #2
 1560 004c 9B00     		lsls	r3, r3, #2
 1561 004e 0B44     		add	r3, r3, r1
 1562 0050 5B68     		ldr	r3, [r3, #4]
 1563 0052 1B6A     		ldr	r3, [r3, #32]
 1564 0054 1046     		mov	r0, r2
 1565 0056 1946     		mov	r1, r3
 1566 0058 049A     		ldr	r2, [sp, #16]
 1567 005a 0823     		movs	r3, #8
 1568 005c FFF7FEFF 		bl	otg_fifo_read_to_buffer
 1569              		.loc 7 459 0
 1570 0060 6EE0     		b	.L76
 1571              	.L80:
 1572              		.loc 7 461 0
 1573 0062 059A     		ldr	r2, [sp, #20]
 1574 0064 47F6F073 		movw	r3, #32752
 1575 0068 1340     		ands	r3, r3, r2
 1576 006a 1B09     		lsrs	r3, r3, #4
 1577 006c 0493     		str	r3, [sp, #16]
 1578              		.loc 7 462 0
 1579 006e 059B     		ldr	r3, [sp, #20]
 1580 0070 03F00F03 		and	r3, r3, #15
 1581 0074 0393     		str	r3, [sp, #12]
 1582              		.loc 7 463 0
 1583 0076 019A     		ldr	r2, [sp, #4]
 1584 0078 039B     		ldr	r3, [sp, #12]
 1585 007a 0233     		adds	r3, r3, #2
 1586 007c 9B00     		lsls	r3, r3, #2
 1587 007e 1344     		add	r3, r3, r2
 1588 0080 5B68     		ldr	r3, [r3, #4]
 1589 0082 9B69     		ldr	r3, [r3, #24]
 1590 0084 1B78     		ldrb	r3, [r3]	@ zero_extendqisi2
 1591 0086 002B     		cmp	r3, #0
 1592 0088 11D0     		beq	.L81
 1593              		.loc 7 465 0
 1594 008a 019B     		ldr	r3, [sp, #4]
 1595 008c 1B6D     		ldr	r3, [r3, #80]
 1596 008e 03F58052 		add	r2, r3, #4096
 1597              		.loc 7 466 0
 1598 0092 0199     		ldr	r1, [sp, #4]
 1599 0094 039B     		ldr	r3, [sp, #12]
 1600 0096 0233     		adds	r3, r3, #2
 1601 0098 9B00     		lsls	r3, r3, #2
 1602 009a 0B44     		add	r3, r3, r1
 1603 009c 5B68     		ldr	r3, [r3, #4]
 1604 009e 9B69     		ldr	r3, [r3, #24]
 1605              		.loc 7 465 0
 1606 00a0 DB68     		ldr	r3, [r3, #12]
 1607 00a2 1046     		mov	r0, r2
 1608 00a4 1946     		mov	r1, r3
 1609 00a6 049A     		ldr	r2, [sp, #16]
 1610 00a8 FFF7FEFF 		bl	otg_fifo_read_to_queue
ARM GAS  /tmp/cciPs3oN.s 			page 30


 1611 00ac 33E0     		b	.L82
 1612              	.L81:
 1613              		.loc 7 470 0
 1614 00ae 019B     		ldr	r3, [sp, #4]
 1615 00b0 1B6D     		ldr	r3, [r3, #80]
 1616 00b2 03F58051 		add	r1, r3, #4096
 1617              		.loc 7 471 0
 1618 00b6 019A     		ldr	r2, [sp, #4]
 1619 00b8 039B     		ldr	r3, [sp, #12]
 1620 00ba 0233     		adds	r3, r3, #2
 1621 00bc 9B00     		lsls	r3, r3, #2
 1622 00be 1344     		add	r3, r3, r2
 1623 00c0 5B68     		ldr	r3, [r3, #4]
 1624 00c2 9B69     		ldr	r3, [r3, #24]
 1625              		.loc 7 470 0
 1626 00c4 DA68     		ldr	r2, [r3, #12]
 1627              		.loc 7 473 0
 1628 00c6 0198     		ldr	r0, [sp, #4]
 1629 00c8 039B     		ldr	r3, [sp, #12]
 1630 00ca 0233     		adds	r3, r3, #2
 1631 00cc 9B00     		lsls	r3, r3, #2
 1632 00ce 0344     		add	r3, r3, r0
 1633 00d0 5B68     		ldr	r3, [r3, #4]
 1634 00d2 9B69     		ldr	r3, [r3, #24]
 1635 00d4 5868     		ldr	r0, [r3, #4]
 1636              		.loc 7 474 0
 1637 00d6 019C     		ldr	r4, [sp, #4]
 1638 00d8 039B     		ldr	r3, [sp, #12]
 1639 00da 0233     		adds	r3, r3, #2
 1640 00dc 9B00     		lsls	r3, r3, #2
 1641 00de 2344     		add	r3, r3, r4
 1642 00e0 5B68     		ldr	r3, [r3, #4]
 1643 00e2 9B69     		ldr	r3, [r3, #24]
 1644 00e4 9B68     		ldr	r3, [r3, #8]
 1645              		.loc 7 470 0
 1646 00e6 C31A     		subs	r3, r0, r3
 1647 00e8 0846     		mov	r0, r1
 1648 00ea 1146     		mov	r1, r2
 1649 00ec 049A     		ldr	r2, [sp, #16]
 1650 00ee FFF7FEFF 		bl	otg_fifo_read_to_buffer
 1651              		.loc 7 475 0
 1652 00f2 019A     		ldr	r2, [sp, #4]
 1653 00f4 039B     		ldr	r3, [sp, #12]
 1654 00f6 0233     		adds	r3, r3, #2
 1655 00f8 9B00     		lsls	r3, r3, #2
 1656 00fa 1344     		add	r3, r3, r2
 1657 00fc 5B68     		ldr	r3, [r3, #4]
 1658 00fe 9A69     		ldr	r2, [r3, #24]
 1659 0100 0199     		ldr	r1, [sp, #4]
 1660 0102 039B     		ldr	r3, [sp, #12]
 1661 0104 0233     		adds	r3, r3, #2
 1662 0106 9B00     		lsls	r3, r3, #2
 1663 0108 0B44     		add	r3, r3, r1
 1664 010a 5B68     		ldr	r3, [r3, #4]
 1665 010c 9B69     		ldr	r3, [r3, #24]
 1666 010e D968     		ldr	r1, [r3, #12]
 1667 0110 049B     		ldr	r3, [sp, #16]
ARM GAS  /tmp/cciPs3oN.s 			page 31


 1668 0112 0B44     		add	r3, r3, r1
 1669 0114 D360     		str	r3, [r2, #12]
 1670              	.L82:
 1671              		.loc 7 477 0
 1672 0116 019A     		ldr	r2, [sp, #4]
 1673 0118 039B     		ldr	r3, [sp, #12]
 1674 011a 0233     		adds	r3, r3, #2
 1675 011c 9B00     		lsls	r3, r3, #2
 1676 011e 1344     		add	r3, r3, r2
 1677 0120 5B68     		ldr	r3, [r3, #4]
 1678 0122 9A69     		ldr	r2, [r3, #24]
 1679 0124 0199     		ldr	r1, [sp, #4]
 1680 0126 039B     		ldr	r3, [sp, #12]
 1681 0128 0233     		adds	r3, r3, #2
 1682 012a 9B00     		lsls	r3, r3, #2
 1683 012c 0B44     		add	r3, r3, r1
 1684 012e 5B68     		ldr	r3, [r3, #4]
 1685 0130 9B69     		ldr	r3, [r3, #24]
 1686 0132 9968     		ldr	r1, [r3, #8]
 1687 0134 049B     		ldr	r3, [sp, #16]
 1688 0136 0B44     		add	r3, r3, r1
 1689 0138 9360     		str	r3, [r2, #8]
 1690              		.loc 7 478 0
 1691 013a 00BF     		nop
 1692 013c 00E0     		b	.L76
 1693              	.L83:
 1694              		.loc 7 453 0
 1695 013e 00BF     		nop
 1696              	.L76:
 1697              		.loc 7 484 0
 1698 0140 06B0     		add	sp, sp, #24
 1699              		@ sp needed
 1700 0142 10BD     		pop	{r4, pc}
 1701              		.cfi_endproc
 1702              	.LFE283:
 1703              		.size	otg_rxfifo_handler, .-otg_rxfifo_handler
 1704 0144 AFF30080 		.section	.text.otg_txfifo_handler,"ax",%progbits
 1704      AFF30080 
 1704      AFF30080 
 1705              		.align	2
 1706              		.p2align 4,,15
 1707              		.thumb
 1708              		.thumb_func
 1709              		.type	otg_txfifo_handler, %function
 1710              	otg_txfifo_handler:
 1711              	.LFB284:
 1712              		.loc 7 494 0
 1713              		.cfi_startproc
 1714              		@ args = 0, pretend = 0, frame = 16
 1715              		@ frame_needed = 0, uses_anonymous_args = 0
 1716 0000 00B5     		push	{lr}
 1717              		.cfi_def_cfa_offset 4
 1718              		.cfi_offset 14, -4
 1719 0002 85B0     		sub	sp, sp, #20
 1720              		.cfi_def_cfa_offset 24
 1721 0004 0190     		str	r0, [sp, #4]
 1722 0006 0B46     		mov	r3, r1
ARM GAS  /tmp/cciPs3oN.s 			page 32


 1723 0008 8DF80330 		strb	r3, [sp, #3]
 1724              	.L91:
 1725              	.LBB16:
 1726              		.loc 7 501 0
 1727 000c 9DF80330 		ldrb	r3, [sp, #3]	@ zero_extendqisi2
 1728 0010 019A     		ldr	r2, [sp, #4]
 1729 0012 0233     		adds	r3, r3, #2
 1730 0014 9B00     		lsls	r3, r3, #2
 1731 0016 1344     		add	r3, r3, r2
 1732 0018 5B68     		ldr	r3, [r3, #4]
 1733 001a 5B69     		ldr	r3, [r3, #20]
 1734 001c 9A68     		ldr	r2, [r3, #8]
 1735 001e 9DF80330 		ldrb	r3, [sp, #3]	@ zero_extendqisi2
 1736 0022 0199     		ldr	r1, [sp, #4]
 1737 0024 0233     		adds	r3, r3, #2
 1738 0026 9B00     		lsls	r3, r3, #2
 1739 0028 0B44     		add	r3, r3, r1
 1740 002a 5B68     		ldr	r3, [r3, #4]
 1741 002c 5B69     		ldr	r3, [r3, #20]
 1742 002e 5B68     		ldr	r3, [r3, #4]
 1743 0030 9A42     		cmp	r2, r3
 1744 0032 01D3     		bcc	.L85
 1745              		.loc 7 502 0
 1746 0034 0123     		movs	r3, #1
 1747 0036 97E0     		b	.L86
 1748              	.L85:
 1749              		.loc 7 505 0
 1750 0038 9DF80330 		ldrb	r3, [sp, #3]	@ zero_extendqisi2
 1751 003c 019A     		ldr	r2, [sp, #4]
 1752 003e 0233     		adds	r3, r3, #2
 1753 0040 9B00     		lsls	r3, r3, #2
 1754 0042 1344     		add	r3, r3, r2
 1755 0044 5B68     		ldr	r3, [r3, #4]
 1756 0046 5B69     		ldr	r3, [r3, #20]
 1757 0048 5A68     		ldr	r2, [r3, #4]
 1758 004a 9DF80330 		ldrb	r3, [sp, #3]	@ zero_extendqisi2
 1759 004e 0199     		ldr	r1, [sp, #4]
 1760 0050 0233     		adds	r3, r3, #2
 1761 0052 9B00     		lsls	r3, r3, #2
 1762 0054 0B44     		add	r3, r3, r1
 1763 0056 5B68     		ldr	r3, [r3, #4]
 1764 0058 5B69     		ldr	r3, [r3, #20]
 1765 005a 9B68     		ldr	r3, [r3, #8]
 1766 005c D31A     		subs	r3, r2, r3
 1767 005e 0393     		str	r3, [sp, #12]
 1768              		.loc 7 506 0
 1769 0060 9DF80330 		ldrb	r3, [sp, #3]	@ zero_extendqisi2
 1770 0064 019A     		ldr	r2, [sp, #4]
 1771 0066 0233     		adds	r3, r3, #2
 1772 0068 9B00     		lsls	r3, r3, #2
 1773 006a 1344     		add	r3, r3, r2
 1774 006c 5B68     		ldr	r3, [r3, #4]
 1775 006e 1B8A     		ldrh	r3, [r3, #16]
 1776 0070 1A46     		mov	r2, r3
 1777 0072 039B     		ldr	r3, [sp, #12]
 1778 0074 9A42     		cmp	r2, r3
 1779 0076 08D2     		bcs	.L87
ARM GAS  /tmp/cciPs3oN.s 			page 33


 1780              		.loc 7 507 0
 1781 0078 9DF80330 		ldrb	r3, [sp, #3]	@ zero_extendqisi2
 1782 007c 019A     		ldr	r2, [sp, #4]
 1783 007e 0233     		adds	r3, r3, #2
 1784 0080 9B00     		lsls	r3, r3, #2
 1785 0082 1344     		add	r3, r3, r2
 1786 0084 5B68     		ldr	r3, [r3, #4]
 1787 0086 1B8A     		ldrh	r3, [r3, #16]
 1788 0088 0393     		str	r3, [sp, #12]
 1789              	.L87:
 1790              		.loc 7 511 0
 1791 008a 019B     		ldr	r3, [sp, #4]
 1792 008c 1A6D     		ldr	r2, [r3, #80]
 1793 008e 9DF80330 		ldrb	r3, [sp, #3]	@ zero_extendqisi2
 1794 0092 5B01     		lsls	r3, r3, #5
 1795 0094 1344     		add	r3, r3, r2
 1796 0096 03F61813 		addw	r3, r3, #2328
 1797 009a 1B68     		ldr	r3, [r3]
 1798 009c 9BB2     		uxth	r3, r3
 1799 009e 9A00     		lsls	r2, r3, #2
 1800 00a0 039B     		ldr	r3, [sp, #12]
 1801 00a2 9A42     		cmp	r2, r3
 1802 00a4 01D2     		bcs	.L88
 1803              		.loc 7 512 0
 1804 00a6 0023     		movs	r3, #0
 1805 00a8 5EE0     		b	.L86
 1806              	.L88:
 1807              		.loc 7 518 0
 1808 00aa 9DF80330 		ldrb	r3, [sp, #3]	@ zero_extendqisi2
 1809 00ae 019A     		ldr	r2, [sp, #4]
 1810 00b0 0233     		adds	r3, r3, #2
 1811 00b2 9B00     		lsls	r3, r3, #2
 1812 00b4 1344     		add	r3, r3, r2
 1813 00b6 5B68     		ldr	r3, [r3, #4]
 1814 00b8 5B69     		ldr	r3, [r3, #20]
 1815 00ba 1B78     		ldrb	r3, [r3]	@ zero_extendqisi2
 1816 00bc 002B     		cmp	r3, #0
 1817 00be 15D0     		beq	.L89
 1818              		.loc 7 520 0
 1819 00c0 019B     		ldr	r3, [sp, #4]
 1820 00c2 1A6D     		ldr	r2, [r3, #80]
 1821 00c4 9DF80330 		ldrb	r3, [sp, #3]	@ zero_extendqisi2
 1822 00c8 0133     		adds	r3, r3, #1
 1823 00ca 1B03     		lsls	r3, r3, #12
 1824 00cc 1A44     		add	r2, r2, r3
 1825              		.loc 7 521 0
 1826 00ce 9DF80330 		ldrb	r3, [sp, #3]	@ zero_extendqisi2
 1827 00d2 0199     		ldr	r1, [sp, #4]
 1828 00d4 0233     		adds	r3, r3, #2
 1829 00d6 9B00     		lsls	r3, r3, #2
 1830 00d8 0B44     		add	r3, r3, r1
 1831 00da 5B68     		ldr	r3, [r3, #4]
 1832 00dc 5B69     		ldr	r3, [r3, #20]
 1833              		.loc 7 520 0
 1834 00de DB68     		ldr	r3, [r3, #12]
 1835 00e0 1046     		mov	r0, r2
 1836 00e2 1946     		mov	r1, r3
ARM GAS  /tmp/cciPs3oN.s 			page 34


 1837 00e4 039A     		ldr	r2, [sp, #12]
 1838 00e6 FFF7FEFF 		bl	otg_fifo_write_from_queue
 1839 00ea 28E0     		b	.L90
 1840              	.L89:
 1841              		.loc 7 526 0
 1842 00ec 019B     		ldr	r3, [sp, #4]
 1843 00ee 1A6D     		ldr	r2, [r3, #80]
 1844 00f0 9DF80330 		ldrb	r3, [sp, #3]	@ zero_extendqisi2
 1845 00f4 0133     		adds	r3, r3, #1
 1846 00f6 1B03     		lsls	r3, r3, #12
 1847 00f8 1A44     		add	r2, r2, r3
 1848              		.loc 7 527 0
 1849 00fa 9DF80330 		ldrb	r3, [sp, #3]	@ zero_extendqisi2
 1850 00fe 0199     		ldr	r1, [sp, #4]
 1851 0100 0233     		adds	r3, r3, #2
 1852 0102 9B00     		lsls	r3, r3, #2
 1853 0104 0B44     		add	r3, r3, r1
 1854 0106 5B68     		ldr	r3, [r3, #4]
 1855 0108 5B69     		ldr	r3, [r3, #20]
 1856              		.loc 7 526 0
 1857 010a DB68     		ldr	r3, [r3, #12]
 1858 010c 1046     		mov	r0, r2
 1859 010e 1946     		mov	r1, r3
 1860 0110 039A     		ldr	r2, [sp, #12]
 1861 0112 FFF7FEFF 		bl	otg_fifo_write_from_buffer
 1862              		.loc 7 529 0
 1863 0116 9DF80330 		ldrb	r3, [sp, #3]	@ zero_extendqisi2
 1864 011a 019A     		ldr	r2, [sp, #4]
 1865 011c 0233     		adds	r3, r3, #2
 1866 011e 9B00     		lsls	r3, r3, #2
 1867 0120 1344     		add	r3, r3, r2
 1868 0122 5B68     		ldr	r3, [r3, #4]
 1869 0124 5A69     		ldr	r2, [r3, #20]
 1870 0126 9DF80330 		ldrb	r3, [sp, #3]	@ zero_extendqisi2
 1871 012a 0199     		ldr	r1, [sp, #4]
 1872 012c 0233     		adds	r3, r3, #2
 1873 012e 9B00     		lsls	r3, r3, #2
 1874 0130 0B44     		add	r3, r3, r1
 1875 0132 5B68     		ldr	r3, [r3, #4]
 1876 0134 5B69     		ldr	r3, [r3, #20]
 1877 0136 D968     		ldr	r1, [r3, #12]
 1878 0138 039B     		ldr	r3, [sp, #12]
 1879 013a 0B44     		add	r3, r3, r1
 1880 013c D360     		str	r3, [r2, #12]
 1881              	.L90:
 1882              		.loc 7 534 0
 1883 013e 9DF80330 		ldrb	r3, [sp, #3]	@ zero_extendqisi2
 1884 0142 019A     		ldr	r2, [sp, #4]
 1885 0144 0233     		adds	r3, r3, #2
 1886 0146 9B00     		lsls	r3, r3, #2
 1887 0148 1344     		add	r3, r3, r2
 1888 014a 5B68     		ldr	r3, [r3, #4]
 1889 014c 5A69     		ldr	r2, [r3, #20]
 1890 014e 9DF80330 		ldrb	r3, [sp, #3]	@ zero_extendqisi2
 1891 0152 0199     		ldr	r1, [sp, #4]
 1892 0154 0233     		adds	r3, r3, #2
 1893 0156 9B00     		lsls	r3, r3, #2
ARM GAS  /tmp/cciPs3oN.s 			page 35


 1894 0158 0B44     		add	r3, r3, r1
 1895 015a 5B68     		ldr	r3, [r3, #4]
 1896 015c 5B69     		ldr	r3, [r3, #20]
 1897 015e 9968     		ldr	r1, [r3, #8]
 1898 0160 039B     		ldr	r3, [sp, #12]
 1899 0162 0B44     		add	r3, r3, r1
 1900 0164 9360     		str	r3, [r2, #8]
 1901              	.LBE16:
 1902              		.loc 7 535 0
 1903 0166 51E7     		b	.L91
 1904              	.L86:
 1905              		.loc 7 536 0
 1906 0168 1846     		mov	r0, r3
 1907 016a 05B0     		add	sp, sp, #20
 1908              		@ sp needed
 1909 016c 5DF804FB 		ldr	pc, [sp], #4
 1910              		.cfi_endproc
 1911              	.LFE284:
 1912              		.size	otg_txfifo_handler, .-otg_txfifo_handler
 1913              		.section	.text.otg_epin_handler,"ax",%progbits
 1914              		.align	2
 1915              		.p2align 4,,15
 1916              		.thumb
 1917              		.thumb_func
 1918              		.type	otg_epin_handler, %function
 1919              	otg_epin_handler:
 1920              	.LFB285:
 1921              		.loc 7 546 0
 1922              		.cfi_startproc
 1923              		@ args = 0, pretend = 0, frame = 24
 1924              		@ frame_needed = 0, uses_anonymous_args = 0
 1925 0000 00B5     		push	{lr}
 1926              		.cfi_def_cfa_offset 4
 1927              		.cfi_offset 14, -4
 1928 0002 87B0     		sub	sp, sp, #28
 1929              		.cfi_def_cfa_offset 32
 1930 0004 0190     		str	r0, [sp, #4]
 1931 0006 0B46     		mov	r3, r1
 1932 0008 8DF80330 		strb	r3, [sp, #3]
 1933              		.loc 7 547 0
 1934 000c 019B     		ldr	r3, [sp, #4]
 1935 000e 1B6D     		ldr	r3, [r3, #80]
 1936 0010 0593     		str	r3, [sp, #20]
 1937              		.loc 7 548 0
 1938 0012 9DF80330 		ldrb	r3, [sp, #3]	@ zero_extendqisi2
 1939 0016 059A     		ldr	r2, [sp, #20]
 1940 0018 5B01     		lsls	r3, r3, #5
 1941 001a 1344     		add	r3, r3, r2
 1942 001c 03F60813 		addw	r3, r3, #2312
 1943 0020 1B68     		ldr	r3, [r3]
 1944 0022 0493     		str	r3, [sp, #16]
 1945              		.loc 7 550 0
 1946 0024 9DF80330 		ldrb	r3, [sp, #3]	@ zero_extendqisi2
 1947 0028 059A     		ldr	r2, [sp, #20]
 1948 002a 5B01     		lsls	r3, r3, #5
 1949 002c 1344     		add	r3, r3, r2
 1950 002e 03F60813 		addw	r3, r3, #2312
ARM GAS  /tmp/cciPs3oN.s 			page 36


 1951 0032 049A     		ldr	r2, [sp, #16]
 1952 0034 1A60     		str	r2, [r3]
 1953              		.loc 7 555 0
 1954 0036 049B     		ldr	r3, [sp, #16]
 1955 0038 03F00103 		and	r3, r3, #1
 1956 003c 002B     		cmp	r3, #0
 1957 003e 4DD0     		beq	.L93
 1958              		.loc 7 555 0 is_stmt 0 discriminator 1
 1959 0040 059B     		ldr	r3, [sp, #20]
 1960 0042 D3F81038 		ldr	r3, [r3, #2064]
 1961 0046 03F00103 		and	r3, r3, #1
 1962 004a 002B     		cmp	r3, #0
 1963 004c 46D0     		beq	.L93
 1964              	.LBB17:
 1965              		.loc 7 557 0 is_stmt 1
 1966 004e 9DF80330 		ldrb	r3, [sp, #3]	@ zero_extendqisi2
 1967 0052 019A     		ldr	r2, [sp, #4]
 1968 0054 0233     		adds	r3, r3, #2
 1969 0056 9B00     		lsls	r3, r3, #2
 1970 0058 1344     		add	r3, r3, r2
 1971 005a 5B68     		ldr	r3, [r3, #4]
 1972 005c 5B69     		ldr	r3, [r3, #20]
 1973 005e 0393     		str	r3, [sp, #12]
 1974              		.loc 7 559 0
 1975 0060 039B     		ldr	r3, [sp, #12]
 1976 0062 5A68     		ldr	r2, [r3, #4]
 1977 0064 039B     		ldr	r3, [sp, #12]
 1978 0066 1B69     		ldr	r3, [r3, #16]
 1979 0068 9A42     		cmp	r2, r3
 1980 006a 1AD2     		bcs	.L94
 1981              		.loc 7 563 0
 1982 006c 039B     		ldr	r3, [sp, #12]
 1983 006e 1A69     		ldr	r2, [r3, #16]
 1984 0070 039B     		ldr	r3, [sp, #12]
 1985 0072 5B68     		ldr	r3, [r3, #4]
 1986 0074 D21A     		subs	r2, r2, r3
 1987 0076 039B     		ldr	r3, [sp, #12]
 1988 0078 5A60     		str	r2, [r3, #4]
 1989              		.loc 7 564 0
 1990 007a 039B     		ldr	r3, [sp, #12]
 1991 007c 0022     		movs	r2, #0
 1992 007e 9A60     		str	r2, [r3, #8]
 1993              		.loc 7 565 0
 1994 0080 9DF80330 		ldrb	r3, [sp, #3]	@ zero_extendqisi2
 1995 0084 0198     		ldr	r0, [sp, #4]
 1996 0086 1946     		mov	r1, r3
 1997 0088 FFF7FEFF 		bl	usb_lld_prepare_transmit
 1998              		.loc 7 566 0
 1999 008c FFF7FEFF 		bl	osalSysLockFromISR
 2000              		.loc 7 567 0
 2001 0090 9DF80330 		ldrb	r3, [sp, #3]	@ zero_extendqisi2
 2002 0094 0198     		ldr	r0, [sp, #4]
 2003 0096 1946     		mov	r1, r3
 2004 0098 FFF7FEFF 		bl	usb_lld_start_in
 2005              		.loc 7 568 0
 2006 009c FFF7FEFF 		bl	osalSysUnlockFromISR
 2007 00a0 1CE0     		b	.L93
ARM GAS  /tmp/cciPs3oN.s 			page 37


 2008              	.L94:
 2009              		.loc 7 572 0
 2010 00a2 019B     		ldr	r3, [sp, #4]
 2011 00a4 1B89     		ldrh	r3, [r3, #8]
 2012 00a6 9AB2     		uxth	r2, r3
 2013 00a8 9DF80330 		ldrb	r3, [sp, #3]	@ zero_extendqisi2
 2014 00ac 0121     		movs	r1, #1
 2015 00ae 01FA03F3 		lsl	r3, r1, r3
 2016 00b2 9BB2     		uxth	r3, r3
 2017 00b4 DB43     		mvns	r3, r3
 2018 00b6 9BB2     		uxth	r3, r3
 2019 00b8 1340     		ands	r3, r3, r2
 2020 00ba 9BB2     		uxth	r3, r3
 2021 00bc 9AB2     		uxth	r2, r3
 2022 00be 019B     		ldr	r3, [sp, #4]
 2023 00c0 1A81     		strh	r2, [r3, #8]	@ movhi
 2024 00c2 9DF80330 		ldrb	r3, [sp, #3]	@ zero_extendqisi2
 2025 00c6 019A     		ldr	r2, [sp, #4]
 2026 00c8 0233     		adds	r3, r3, #2
 2027 00ca 9B00     		lsls	r3, r3, #2
 2028 00cc 1344     		add	r3, r3, r2
 2029 00ce 5B68     		ldr	r3, [r3, #4]
 2030 00d0 9B68     		ldr	r3, [r3, #8]
 2031 00d2 9DF80320 		ldrb	r2, [sp, #3]	@ zero_extendqisi2
 2032 00d6 0198     		ldr	r0, [sp, #4]
 2033 00d8 1146     		mov	r1, r2
 2034 00da 9847     		blx	r3
 2035              	.L93:
 2036              	.LBE17:
 2037              		.loc 7 575 0
 2038 00dc 049B     		ldr	r3, [sp, #16]
 2039 00de 03F08003 		and	r3, r3, #128
 2040 00e2 002B     		cmp	r3, #0
 2041 00e4 2BD0     		beq	.L92
 2042              		.loc 7 576 0 discriminator 1
 2043 00e6 059B     		ldr	r3, [sp, #20]
 2044 00e8 D3F83428 		ldr	r2, [r3, #2100]
 2045 00ec 9DF80330 		ldrb	r3, [sp, #3]	@ zero_extendqisi2
 2046 00f0 0121     		movs	r1, #1
 2047 00f2 01FA03F3 		lsl	r3, r1, r3
 2048 00f6 1340     		ands	r3, r3, r2
 2049              		.loc 7 575 0 discriminator 1
 2050 00f8 002B     		cmp	r3, #0
 2051 00fa 20D0     		beq	.L92
 2052              		.loc 7 578 0
 2053 00fc FFF7FEFF 		bl	osalSysLockFromISR
 2054              		.loc 7 579 0
 2055 0100 019B     		ldr	r3, [sp, #4]
 2056 0102 DA6D     		ldr	r2, [r3, #92]
 2057 0104 9DF80330 		ldrb	r3, [sp, #3]	@ zero_extendqisi2
 2058 0108 0121     		movs	r1, #1
 2059 010a 01FA03F3 		lsl	r3, r1, r3
 2060 010e 1A43     		orrs	r2, r2, r3
 2061 0110 019B     		ldr	r3, [sp, #4]
 2062 0112 DA65     		str	r2, [r3, #92]
 2063              		.loc 7 580 0
 2064 0114 059B     		ldr	r3, [sp, #20]
ARM GAS  /tmp/cciPs3oN.s 			page 38


 2065 0116 D3F83428 		ldr	r2, [r3, #2100]
 2066 011a 9DF80330 		ldrb	r3, [sp, #3]	@ zero_extendqisi2
 2067 011e 0121     		movs	r1, #1
 2068 0120 01FA03F3 		lsl	r3, r1, r3
 2069 0124 DB43     		mvns	r3, r3
 2070 0126 1A40     		ands	r2, r2, r3
 2071 0128 059B     		ldr	r3, [sp, #20]
 2072 012a C3F83428 		str	r2, [r3, #2100]
 2073              		.loc 7 581 0
 2074 012e 019B     		ldr	r3, [sp, #4]
 2075 0130 6033     		adds	r3, r3, #96
 2076 0132 1846     		mov	r0, r3
 2077 0134 0021     		movs	r1, #0
 2078 0136 FFF7FEFF 		bl	osalThreadResumeI
 2079              		.loc 7 582 0
 2080 013a FFF7FEFF 		bl	osalSysUnlockFromISR
 2081              	.L92:
 2082              		.loc 7 584 0
 2083 013e 07B0     		add	sp, sp, #28
 2084              		@ sp needed
 2085 0140 5DF804FB 		ldr	pc, [sp], #4
 2086              		.cfi_endproc
 2087              	.LFE285:
 2088              		.size	otg_epin_handler, .-otg_epin_handler
 2089 0144 AFF30080 		.section	.text.otg_epout_handler,"ax",%progbits
 2089      AFF30080 
 2089      AFF30080 
 2090              		.align	2
 2091              		.p2align 4,,15
 2092              		.thumb
 2093              		.thumb_func
 2094              		.type	otg_epout_handler, %function
 2095              	otg_epout_handler:
 2096              	.LFB286:
 2097              		.loc 7 594 0
 2098              		.cfi_startproc
 2099              		@ args = 0, pretend = 0, frame = 24
 2100              		@ frame_needed = 0, uses_anonymous_args = 0
 2101 0000 00B5     		push	{lr}
 2102              		.cfi_def_cfa_offset 4
 2103              		.cfi_offset 14, -4
 2104 0002 87B0     		sub	sp, sp, #28
 2105              		.cfi_def_cfa_offset 32
 2106 0004 0190     		str	r0, [sp, #4]
 2107 0006 0B46     		mov	r3, r1
 2108 0008 8DF80330 		strb	r3, [sp, #3]
 2109              		.loc 7 595 0
 2110 000c 019B     		ldr	r3, [sp, #4]
 2111 000e 1B6D     		ldr	r3, [r3, #80]
 2112 0010 0593     		str	r3, [sp, #20]
 2113              		.loc 7 596 0
 2114 0012 9DF80330 		ldrb	r3, [sp, #3]	@ zero_extendqisi2
 2115 0016 059A     		ldr	r2, [sp, #20]
 2116 0018 5B01     		lsls	r3, r3, #5
 2117 001a 1344     		add	r3, r3, r2
 2118 001c 03F60833 		addw	r3, r3, #2824
 2119 0020 1B68     		ldr	r3, [r3]
ARM GAS  /tmp/cciPs3oN.s 			page 39


 2120 0022 0493     		str	r3, [sp, #16]
 2121              		.loc 7 599 0
 2122 0024 9DF80330 		ldrb	r3, [sp, #3]	@ zero_extendqisi2
 2123 0028 059A     		ldr	r2, [sp, #20]
 2124 002a 5B01     		lsls	r3, r3, #5
 2125 002c 1344     		add	r3, r3, r2
 2126 002e 03F60833 		addw	r3, r3, #2824
 2127 0032 049A     		ldr	r2, [sp, #16]
 2128 0034 1A60     		str	r2, [r3]
 2129              		.loc 7 601 0
 2130 0036 049B     		ldr	r3, [sp, #16]
 2131 0038 03F00803 		and	r3, r3, #8
 2132 003c 002B     		cmp	r3, #0
 2133 003e 13D0     		beq	.L97
 2134              		.loc 7 601 0 is_stmt 0 discriminator 1
 2135 0040 059B     		ldr	r3, [sp, #20]
 2136 0042 D3F81438 		ldr	r3, [r3, #2068]
 2137 0046 03F00803 		and	r3, r3, #8
 2138 004a 002B     		cmp	r3, #0
 2139 004c 0CD0     		beq	.L97
 2140              		.loc 7 604 0 is_stmt 1
 2141 004e 9DF80330 		ldrb	r3, [sp, #3]	@ zero_extendqisi2
 2142 0052 019A     		ldr	r2, [sp, #4]
 2143 0054 0233     		adds	r3, r3, #2
 2144 0056 9B00     		lsls	r3, r3, #2
 2145 0058 1344     		add	r3, r3, r2
 2146 005a 5B68     		ldr	r3, [r3, #4]
 2147 005c 5B68     		ldr	r3, [r3, #4]
 2148 005e 9DF80320 		ldrb	r2, [sp, #3]	@ zero_extendqisi2
 2149 0062 0198     		ldr	r0, [sp, #4]
 2150 0064 1146     		mov	r1, r2
 2151 0066 9847     		blx	r3
 2152              	.L97:
 2153              		.loc 7 607 0
 2154 0068 049B     		ldr	r3, [sp, #16]
 2155 006a 03F00103 		and	r3, r3, #1
 2156 006e 002B     		cmp	r3, #0
 2157 0070 4DD0     		beq	.L96
 2158              		.loc 7 607 0 is_stmt 0 discriminator 1
 2159 0072 059B     		ldr	r3, [sp, #20]
 2160 0074 D3F81438 		ldr	r3, [r3, #2068]
 2161 0078 03F00103 		and	r3, r3, #1
 2162 007c 002B     		cmp	r3, #0
 2163 007e 46D0     		beq	.L96
 2164              	.LBB18:
 2165              		.loc 7 609 0 is_stmt 1
 2166 0080 9DF80330 		ldrb	r3, [sp, #3]	@ zero_extendqisi2
 2167 0084 019A     		ldr	r2, [sp, #4]
 2168 0086 0233     		adds	r3, r3, #2
 2169 0088 9B00     		lsls	r3, r3, #2
 2170 008a 1344     		add	r3, r3, r2
 2171 008c 5B68     		ldr	r3, [r3, #4]
 2172 008e 9B69     		ldr	r3, [r3, #24]
 2173 0090 0393     		str	r3, [sp, #12]
 2174              		.loc 7 611 0
 2175 0092 039B     		ldr	r3, [sp, #12]
 2176 0094 5A68     		ldr	r2, [r3, #4]
ARM GAS  /tmp/cciPs3oN.s 			page 40


 2177 0096 039B     		ldr	r3, [sp, #12]
 2178 0098 1B69     		ldr	r3, [r3, #16]
 2179 009a 9A42     		cmp	r2, r3
 2180 009c 1AD2     		bcs	.L99
 2181              		.loc 7 615 0
 2182 009e 039B     		ldr	r3, [sp, #12]
 2183 00a0 1A69     		ldr	r2, [r3, #16]
 2184 00a2 039B     		ldr	r3, [sp, #12]
 2185 00a4 5B68     		ldr	r3, [r3, #4]
 2186 00a6 D21A     		subs	r2, r2, r3
 2187 00a8 039B     		ldr	r3, [sp, #12]
 2188 00aa 5A60     		str	r2, [r3, #4]
 2189              		.loc 7 616 0
 2190 00ac 039B     		ldr	r3, [sp, #12]
 2191 00ae 0022     		movs	r2, #0
 2192 00b0 9A60     		str	r2, [r3, #8]
 2193              		.loc 7 617 0
 2194 00b2 9DF80330 		ldrb	r3, [sp, #3]	@ zero_extendqisi2
 2195 00b6 0198     		ldr	r0, [sp, #4]
 2196 00b8 1946     		mov	r1, r3
 2197 00ba FFF7FEFF 		bl	usb_lld_prepare_receive
 2198              		.loc 7 618 0
 2199 00be FFF7FEFF 		bl	chSysLockFromISR
 2200              		.loc 7 619 0
 2201 00c2 9DF80330 		ldrb	r3, [sp, #3]	@ zero_extendqisi2
 2202 00c6 0198     		ldr	r0, [sp, #4]
 2203 00c8 1946     		mov	r1, r3
 2204 00ca FFF7FEFF 		bl	usb_lld_start_out
 2205              		.loc 7 620 0
 2206 00ce FFF7FEFF 		bl	chSysUnlockFromISR
 2207 00d2 1CE0     		b	.L96
 2208              	.L99:
 2209              		.loc 7 624 0
 2210 00d4 019B     		ldr	r3, [sp, #4]
 2211 00d6 5B89     		ldrh	r3, [r3, #10]
 2212 00d8 9AB2     		uxth	r2, r3
 2213 00da 9DF80330 		ldrb	r3, [sp, #3]	@ zero_extendqisi2
 2214 00de 0121     		movs	r1, #1
 2215 00e0 01FA03F3 		lsl	r3, r1, r3
 2216 00e4 9BB2     		uxth	r3, r3
 2217 00e6 DB43     		mvns	r3, r3
 2218 00e8 9BB2     		uxth	r3, r3
 2219 00ea 1340     		ands	r3, r3, r2
 2220 00ec 9BB2     		uxth	r3, r3
 2221 00ee 9AB2     		uxth	r2, r3
 2222 00f0 019B     		ldr	r3, [sp, #4]
 2223 00f2 5A81     		strh	r2, [r3, #10]	@ movhi
 2224 00f4 9DF80330 		ldrb	r3, [sp, #3]	@ zero_extendqisi2
 2225 00f8 019A     		ldr	r2, [sp, #4]
 2226 00fa 0233     		adds	r3, r3, #2
 2227 00fc 9B00     		lsls	r3, r3, #2
 2228 00fe 1344     		add	r3, r3, r2
 2229 0100 5B68     		ldr	r3, [r3, #4]
 2230 0102 DB68     		ldr	r3, [r3, #12]
 2231 0104 9DF80320 		ldrb	r2, [sp, #3]	@ zero_extendqisi2
 2232 0108 0198     		ldr	r0, [sp, #4]
 2233 010a 1146     		mov	r1, r2
ARM GAS  /tmp/cciPs3oN.s 			page 41


 2234 010c 9847     		blx	r3
 2235              	.L96:
 2236              	.LBE18:
 2237              		.loc 7 627 0
 2238 010e 07B0     		add	sp, sp, #28
 2239              		@ sp needed
 2240 0110 5DF804FB 		ldr	pc, [sp], #4
 2241              		.cfi_endproc
 2242              	.LFE286:
 2243              		.size	otg_epout_handler, .-otg_epout_handler
 2244 0114 AFF30080 		.section	.text.usb_lld_serve_interrupt,"ax",%progbits
 2244      AFF30080 
 2244      AFF30080 
 2245              		.align	2
 2246              		.p2align 4,,15
 2247              		.thumb
 2248              		.thumb_func
 2249              		.type	usb_lld_serve_interrupt, %function
 2250              	usb_lld_serve_interrupt:
 2251              	.LFB287:
 2252              		.loc 7 636 0
 2253              		.cfi_startproc
 2254              		@ args = 0, pretend = 0, frame = 24
 2255              		@ frame_needed = 0, uses_anonymous_args = 0
 2256 0000 00B5     		push	{lr}
 2257              		.cfi_def_cfa_offset 4
 2258              		.cfi_offset 14, -4
 2259 0002 87B0     		sub	sp, sp, #28
 2260              		.cfi_def_cfa_offset 32
 2261 0004 0190     		str	r0, [sp, #4]
 2262              		.loc 7 637 0
 2263 0006 019B     		ldr	r3, [sp, #4]
 2264 0008 1B6D     		ldr	r3, [r3, #80]
 2265 000a 0593     		str	r3, [sp, #20]
 2266              		.loc 7 640 0
 2267 000c 059B     		ldr	r3, [sp, #20]
 2268 000e 5B69     		ldr	r3, [r3, #20]
 2269 0010 0493     		str	r3, [sp, #16]
 2270              		.loc 7 641 0
 2271 0012 059B     		ldr	r3, [sp, #20]
 2272 0014 9B69     		ldr	r3, [r3, #24]
 2273 0016 049A     		ldr	r2, [sp, #16]
 2274 0018 1340     		ands	r3, r3, r2
 2275 001a 0493     		str	r3, [sp, #16]
 2276              		.loc 7 642 0
 2277 001c 059B     		ldr	r3, [sp, #20]
 2278 001e 049A     		ldr	r2, [sp, #16]
 2279 0020 5A61     		str	r2, [r3, #20]
 2280              		.loc 7 645 0
 2281 0022 049B     		ldr	r3, [sp, #16]
 2282 0024 002B     		cmp	r3, #0
 2283 0026 16DA     		bge	.L101
 2284              		.loc 7 648 0
 2285 0028 059B     		ldr	r3, [sp, #20]
 2286 002a D3F8003E 		ldr	r3, [r3, #3584]
 2287 002e 03F00303 		and	r3, r3, #3
 2288 0032 002B     		cmp	r3, #0
ARM GAS  /tmp/cciPs3oN.s 			page 42


 2289 0034 07D0     		beq	.L102
 2290              		.loc 7 650 0
 2291 0036 059B     		ldr	r3, [sp, #20]
 2292 0038 D3F8003E 		ldr	r3, [r3, #3584]
 2293 003c 23F00302 		bic	r2, r3, #3
 2294 0040 059B     		ldr	r3, [sp, #20]
 2295 0042 C3F8002E 		str	r2, [r3, #3584]
 2296              	.L102:
 2297              		.loc 7 654 0
 2298 0046 059B     		ldr	r3, [sp, #20]
 2299 0048 D3F80438 		ldr	r3, [r3, #2052]
 2300 004c 43F00102 		orr	r2, r3, #1
 2301 0050 059B     		ldr	r3, [sp, #20]
 2302 0052 C3F80428 		str	r2, [r3, #2052]
 2303              	.L101:
 2304              		.loc 7 663 0
 2305 0056 049B     		ldr	r3, [sp, #16]
 2306 0058 03F48053 		and	r3, r3, #4096
 2307 005c 002B     		cmp	r3, #0
 2308 005e 0DD0     		beq	.L103
 2309              		.loc 7 664 0
 2310 0060 0198     		ldr	r0, [sp, #4]
 2311 0062 FFF7FEFF 		bl	_usb_reset
 2312              		.loc 7 665 0
 2313 0066 019B     		ldr	r3, [sp, #4]
 2314 0068 5B68     		ldr	r3, [r3, #4]
 2315 006a 1B68     		ldr	r3, [r3]
 2316 006c 002B     		cmp	r3, #0
 2317 006e 05D0     		beq	.L103
 2318              		.loc 7 665 0 is_stmt 0 discriminator 1
 2319 0070 019B     		ldr	r3, [sp, #4]
 2320 0072 5B68     		ldr	r3, [r3, #4]
 2321 0074 1B68     		ldr	r3, [r3]
 2322 0076 0198     		ldr	r0, [sp, #4]
 2323 0078 0021     		movs	r1, #0
 2324 007a 9847     		blx	r3
 2325              	.L103:
 2326              		.loc 7 669 0 is_stmt 1
 2327 007c 049B     		ldr	r3, [sp, #16]
 2328 007e 03F40053 		and	r3, r3, #8192
 2329 0082 002B     		cmp	r3, #0
 2330 0084 17D0     		beq	.L104
 2331              		.loc 7 671 0
 2332 0086 059B     		ldr	r3, [sp, #20]
 2333 0088 D3F80838 		ldr	r3, [r3, #2056]
 2334 008c 03F00603 		and	r3, r3, #6
 2335 0090 002B     		cmp	r3, #0
 2336 0092 08D1     		bne	.L105
 2337              		.loc 7 672 0
 2338 0094 059B     		ldr	r3, [sp, #20]
 2339 0096 DB68     		ldr	r3, [r3, #12]
 2340 0098 23F47053 		bic	r3, r3, #15360
 2341 009c 43F41052 		orr	r2, r3, #9216
 2342 00a0 059B     		ldr	r3, [sp, #20]
 2343 00a2 DA60     		str	r2, [r3, #12]
 2344 00a4 07E0     		b	.L104
 2345              	.L105:
ARM GAS  /tmp/cciPs3oN.s 			page 43


 2346              		.loc 7 676 0
 2347 00a6 059B     		ldr	r3, [sp, #20]
 2348 00a8 DB68     		ldr	r3, [r3, #12]
 2349 00aa 23F47053 		bic	r3, r3, #15360
 2350 00ae 43F4A052 		orr	r2, r3, #5120
 2351 00b2 059B     		ldr	r3, [sp, #20]
 2352 00b4 DA60     		str	r2, [r3, #12]
 2353              	.L104:
 2354              		.loc 7 682 0
 2355 00b6 049B     		ldr	r3, [sp, #16]
 2356 00b8 03F00803 		and	r3, r3, #8
 2357 00bc 002B     		cmp	r3, #0
 2358 00be 09D0     		beq	.L106
 2359              		.loc 7 683 0
 2360 00c0 019B     		ldr	r3, [sp, #4]
 2361 00c2 5B68     		ldr	r3, [r3, #4]
 2362 00c4 DB68     		ldr	r3, [r3, #12]
 2363 00c6 002B     		cmp	r3, #0
 2364 00c8 04D0     		beq	.L106
 2365              		.loc 7 683 0 is_stmt 0 discriminator 1
 2366 00ca 019B     		ldr	r3, [sp, #4]
 2367 00cc 5B68     		ldr	r3, [r3, #4]
 2368 00ce DB68     		ldr	r3, [r3, #12]
 2369 00d0 0198     		ldr	r0, [sp, #4]
 2370 00d2 9847     		blx	r3
 2371              	.L106:
 2372              		.loc 7 687 0 is_stmt 1
 2373 00d4 049B     		ldr	r3, [sp, #16]
 2374 00d6 03F01003 		and	r3, r3, #16
 2375 00da 002B     		cmp	r3, #0
 2376 00dc 0FD0     		beq	.L107
 2377              		.loc 7 690 0
 2378 00de FFF7FEFF 		bl	osalSysLockFromISR
 2379              		.loc 7 691 0
 2380 00e2 059B     		ldr	r3, [sp, #20]
 2381 00e4 9B69     		ldr	r3, [r3, #24]
 2382 00e6 23F01002 		bic	r2, r3, #16
 2383 00ea 059B     		ldr	r3, [sp, #20]
 2384 00ec 9A61     		str	r2, [r3, #24]
 2385              		.loc 7 692 0
 2386 00ee 019B     		ldr	r3, [sp, #4]
 2387 00f0 6033     		adds	r3, r3, #96
 2388 00f2 1846     		mov	r0, r3
 2389 00f4 0021     		movs	r1, #0
 2390 00f6 FFF7FEFF 		bl	osalThreadResumeI
 2391              		.loc 7 693 0
 2392 00fa FFF7FEFF 		bl	osalSysUnlockFromISR
 2393              	.L107:
 2394              		.loc 7 697 0
 2395 00fe 059B     		ldr	r3, [sp, #20]
 2396 0100 D3F81838 		ldr	r3, [r3, #2072]
 2397 0104 0393     		str	r3, [sp, #12]
 2398              		.loc 7 698 0
 2399 0106 049B     		ldr	r3, [sp, #16]
 2400 0108 03F48023 		and	r3, r3, #262144
 2401 010c 002B     		cmp	r3, #0
 2402 010e 23D0     		beq	.L108
ARM GAS  /tmp/cciPs3oN.s 			page 44


 2403              		.loc 7 699 0
 2404 0110 039B     		ldr	r3, [sp, #12]
 2405 0112 03F00103 		and	r3, r3, #1
 2406 0116 002B     		cmp	r3, #0
 2407 0118 03D0     		beq	.L109
 2408              		.loc 7 700 0
 2409 011a 0198     		ldr	r0, [sp, #4]
 2410 011c 0021     		movs	r1, #0
 2411 011e FFF7FEFF 		bl	otg_epin_handler
 2412              	.L109:
 2413              		.loc 7 701 0
 2414 0122 039B     		ldr	r3, [sp, #12]
 2415 0124 03F00203 		and	r3, r3, #2
 2416 0128 002B     		cmp	r3, #0
 2417 012a 03D0     		beq	.L110
 2418              		.loc 7 702 0
 2419 012c 0198     		ldr	r0, [sp, #4]
 2420 012e 0121     		movs	r1, #1
 2421 0130 FFF7FEFF 		bl	otg_epin_handler
 2422              	.L110:
 2423              		.loc 7 703 0
 2424 0134 039B     		ldr	r3, [sp, #12]
 2425 0136 03F00403 		and	r3, r3, #4
 2426 013a 002B     		cmp	r3, #0
 2427 013c 03D0     		beq	.L111
 2428              		.loc 7 704 0
 2429 013e 0198     		ldr	r0, [sp, #4]
 2430 0140 0221     		movs	r1, #2
 2431 0142 FFF7FEFF 		bl	otg_epin_handler
 2432              	.L111:
 2433              		.loc 7 705 0
 2434 0146 039B     		ldr	r3, [sp, #12]
 2435 0148 03F00803 		and	r3, r3, #8
 2436 014c 002B     		cmp	r3, #0
 2437 014e 03D0     		beq	.L108
 2438              		.loc 7 706 0
 2439 0150 0198     		ldr	r0, [sp, #4]
 2440 0152 0321     		movs	r1, #3
 2441 0154 FFF7FEFF 		bl	otg_epin_handler
 2442              	.L108:
 2443              		.loc 7 714 0
 2444 0158 049B     		ldr	r3, [sp, #16]
 2445 015a 03F40023 		and	r3, r3, #524288
 2446 015e 002B     		cmp	r3, #0
 2447 0160 23D0     		beq	.L100
 2448              		.loc 7 715 0
 2449 0162 039B     		ldr	r3, [sp, #12]
 2450 0164 03F48033 		and	r3, r3, #65536
 2451 0168 002B     		cmp	r3, #0
 2452 016a 03D0     		beq	.L113
 2453              		.loc 7 716 0
 2454 016c 0198     		ldr	r0, [sp, #4]
 2455 016e 0021     		movs	r1, #0
 2456 0170 FFF7FEFF 		bl	otg_epout_handler
 2457              	.L113:
 2458              		.loc 7 717 0
 2459 0174 039B     		ldr	r3, [sp, #12]
ARM GAS  /tmp/cciPs3oN.s 			page 45


 2460 0176 03F40033 		and	r3, r3, #131072
 2461 017a 002B     		cmp	r3, #0
 2462 017c 03D0     		beq	.L114
 2463              		.loc 7 718 0
 2464 017e 0198     		ldr	r0, [sp, #4]
 2465 0180 0121     		movs	r1, #1
 2466 0182 FFF7FEFF 		bl	otg_epout_handler
 2467              	.L114:
 2468              		.loc 7 719 0
 2469 0186 039B     		ldr	r3, [sp, #12]
 2470 0188 03F48023 		and	r3, r3, #262144
 2471 018c 002B     		cmp	r3, #0
 2472 018e 03D0     		beq	.L115
 2473              		.loc 7 720 0
 2474 0190 0198     		ldr	r0, [sp, #4]
 2475 0192 0221     		movs	r1, #2
 2476 0194 FFF7FEFF 		bl	otg_epout_handler
 2477              	.L115:
 2478              		.loc 7 721 0
 2479 0198 039B     		ldr	r3, [sp, #12]
 2480 019a 03F40023 		and	r3, r3, #524288
 2481 019e 002B     		cmp	r3, #0
 2482 01a0 03D0     		beq	.L100
 2483              		.loc 7 722 0
 2484 01a2 0198     		ldr	r0, [sp, #4]
 2485 01a4 0321     		movs	r1, #3
 2486 01a6 FFF7FEFF 		bl	otg_epout_handler
 2487              	.L100:
 2488              		.loc 7 730 0
 2489 01aa 07B0     		add	sp, sp, #28
 2490              		@ sp needed
 2491 01ac 5DF804FB 		ldr	pc, [sp], #4
 2492              		.cfi_endproc
 2493              	.LFE287:
 2494              		.size	usb_lld_serve_interrupt, .-usb_lld_serve_interrupt
 2495              		.section	.text.Vector14C,"ax",%progbits
 2496              		.align	2
 2497              		.p2align 4,,15
 2498              		.global	Vector14C
 2499              		.thumb
 2500              		.thumb_func
 2501              		.type	Vector14C, %function
 2502              	Vector14C:
 2503              	.LFB288:
 2504              		.loc 7 745 0
 2505              		.cfi_startproc
 2506              		@ args = 0, pretend = 0, frame = 0
 2507              		@ frame_needed = 0, uses_anonymous_args = 0
 2508 0000 08B5     		push	{r3, lr}
 2509              		.cfi_def_cfa_offset 8
 2510              		.cfi_offset 3, -8
 2511              		.cfi_offset 14, -4
 2512              		.loc 7 749 0
 2513 0002 0348     		ldr	r0, .L117
 2514 0004 FFF7FEFF 		bl	usb_lld_serve_interrupt
 2515              		.loc 7 751 0
 2516 0008 FFF7FEFF 		bl	_port_irq_epilogue
ARM GAS  /tmp/cciPs3oN.s 			page 46


 2517              		.loc 7 752 0
 2518 000c 08BD     		pop	{r3, pc}
 2519              	.L118:
 2520 000e 00BF     		.align	2
 2521              	.L117:
 2522 0010 00000000 		.word	USBD1
 2523              		.cfi_endproc
 2524              	.LFE288:
 2525              		.size	Vector14C, .-Vector14C
 2526 0014 AFF30080 		.section	.text.usb_lld_init,"ax",%progbits
 2526      AFF30080 
 2526      AFF30080 
 2527              		.align	2
 2528              		.p2align 4,,15
 2529              		.global	usb_lld_init
 2530              		.thumb
 2531              		.thumb_func
 2532              		.type	usb_lld_init, %function
 2533              	usb_lld_init:
 2534              	.LFB289:
 2535              		.loc 7 783 0
 2536              		.cfi_startproc
 2537              		@ args = 0, pretend = 0, frame = 0
 2538              		@ frame_needed = 0, uses_anonymous_args = 0
 2539 0000 08B5     		push	{r3, lr}
 2540              		.cfi_def_cfa_offset 8
 2541              		.cfi_offset 3, -8
 2542              		.cfi_offset 14, -4
 2543              		.loc 7 787 0
 2544 0002 0848     		ldr	r0, .L120
 2545 0004 FFF7FEFF 		bl	usbObjectInit
 2546              		.loc 7 788 0
 2547 0008 064B     		ldr	r3, .L120
 2548 000a 0022     		movs	r2, #0
 2549 000c 1A66     		str	r2, [r3, #96]
 2550              		.loc 7 789 0
 2551 000e 054B     		ldr	r3, .L120
 2552 0010 4FF0A042 		mov	r2, #1342177280
 2553 0014 1A65     		str	r2, [r3, #80]
 2554              		.loc 7 790 0
 2555 0016 034B     		ldr	r3, .L120
 2556 0018 034A     		ldr	r2, .L120+4
 2557 001a 5A65     		str	r2, [r3, #84]
 2558              		.loc 7 793 0
 2559 001c 014B     		ldr	r3, .L120
 2560 001e 0022     		movs	r2, #0
 2561 0020 5A66     		str	r2, [r3, #100]
 2562              		.loc 7 833 0
 2563 0022 08BD     		pop	{r3, pc}
 2564              	.L121:
 2565              		.align	2
 2566              	.L120:
 2567 0024 00000000 		.word	USBD1
 2568 0028 00000000 		.word	fsparams
 2569              		.cfi_endproc
 2570              	.LFE289:
 2571              		.size	usb_lld_init, .-usb_lld_init
ARM GAS  /tmp/cciPs3oN.s 			page 47


 2572 002c AFF30080 		.section	.text.usb_lld_start,"ax",%progbits
 2573              		.align	2
 2574              		.p2align 4,,15
 2575              		.global	usb_lld_start
 2576              		.thumb
 2577              		.thumb_func
 2578              		.type	usb_lld_start, %function
 2579              	usb_lld_start:
 2580              	.LFB290:
 2581              		.loc 7 845 0
 2582              		.cfi_startproc
 2583              		@ args = 0, pretend = 0, frame = 16
 2584              		@ frame_needed = 0, uses_anonymous_args = 0
 2585 0000 00B5     		push	{lr}
 2586              		.cfi_def_cfa_offset 4
 2587              		.cfi_offset 14, -4
 2588 0002 87B0     		sub	sp, sp, #28
 2589              		.cfi_def_cfa_offset 32
 2590 0004 0390     		str	r0, [sp, #12]
 2591              		.loc 7 846 0
 2592 0006 039B     		ldr	r3, [sp, #12]
 2593 0008 1B6D     		ldr	r3, [r3, #80]
 2594 000a 0593     		str	r3, [sp, #20]
 2595              		.loc 7 848 0
 2596 000c 039B     		ldr	r3, [sp, #12]
 2597 000e 1B78     		ldrb	r3, [r3]	@ zero_extendqisi2
 2598 0010 012B     		cmp	r3, #1
 2599 0012 6FD1     		bne	.L122
 2600              		.loc 7 852 0
 2601 0014 039A     		ldr	r2, [sp, #12]
 2602 0016 394B     		ldr	r3, .L128
 2603 0018 9A42     		cmp	r2, r3
 2604 001a 19D1     		bne	.L124
 2605              		.loc 7 854 0
 2606 001c 384B     		ldr	r3, .L128+4
 2607 001e 384A     		ldr	r2, .L128+4
 2608 0020 526B     		ldr	r2, [r2, #52]
 2609 0022 42F08002 		orr	r2, r2, #128
 2610 0026 5A63     		str	r2, [r3, #52]
 2611              		.loc 7 855 0
 2612 0028 354B     		ldr	r3, .L128+4
 2613 002a 354A     		ldr	r2, .L128+4
 2614 002c 5269     		ldr	r2, [r2, #20]
 2615 002e 42F08002 		orr	r2, r2, #128
 2616 0032 5A61     		str	r2, [r3, #20]
 2617 0034 324B     		ldr	r3, .L128+4
 2618 0036 0022     		movs	r2, #0
 2619 0038 5A61     		str	r2, [r3, #20]
 2620              		.loc 7 858 0
 2621 003a 4320     		movs	r0, #67
 2622 003c 0E21     		movs	r1, #14
 2623 003e FFF7FEFF 		bl	nvicEnableVector
 2624              		.loc 7 863 0
 2625 0042 059B     		ldr	r3, [sp, #20]
 2626 0044 2F4A     		ldr	r2, .L128+8
 2627 0046 DA60     		str	r2, [r3, #12]
 2628              		.loc 7 867 0
ARM GAS  /tmp/cciPs3oN.s 			page 48


 2629 0048 059B     		ldr	r3, [sp, #20]
 2630 004a 2F4A     		ldr	r2, .L128+12
 2631 004c C3F80028 		str	r2, [r3, #2048]
 2632              	.L124:
 2633              		.loc 7 917 0
 2634 0050 039B     		ldr	r3, [sp, #12]
 2635 0052 0022     		movs	r2, #0
 2636 0054 DA65     		str	r2, [r3, #92]
 2637              		.loc 7 920 0
 2638 0056 059B     		ldr	r3, [sp, #20]
 2639 0058 0022     		movs	r2, #0
 2640 005a C3F8002E 		str	r2, [r3, #3584]
 2641              		.loc 7 923 0
 2642 005e 059B     		ldr	r3, [sp, #20]
 2643 0060 C022     		movs	r2, #192
 2644 0062 1A60     		str	r2, [r3]
 2645              		.loc 7 938 0
 2646 0064 059B     		ldr	r3, [sp, #20]
 2647 0066 4FF45022 		mov	r2, #851968
 2648 006a 9A63     		str	r2, [r3, #56]
 2649              		.loc 7 942 0
 2650 006c 0398     		ldr	r0, [sp, #12]
 2651 006e FFF7FEFF 		bl	otg_core_reset
 2652              		.loc 7 945 0
 2653 0072 059B     		ldr	r3, [sp, #20]
 2654 0074 0022     		movs	r2, #0
 2655 0076 9A60     		str	r2, [r3, #8]
 2656              		.loc 7 948 0
 2657 0078 0398     		ldr	r0, [sp, #12]
 2658 007a FFF7FEFF 		bl	otg_disable_ep
 2659              		.loc 7 952 0
 2660 007e 059B     		ldr	r3, [sp, #20]
 2661 0080 0022     		movs	r2, #0
 2662 0082 C3F81028 		str	r2, [r3, #2064]
 2663              		.loc 7 953 0
 2664 0086 059B     		ldr	r3, [sp, #20]
 2665 0088 0022     		movs	r2, #0
 2666 008a C3F81428 		str	r2, [r3, #2068]
 2667              		.loc 7 954 0
 2668 008e 059B     		ldr	r3, [sp, #20]
 2669 0090 0022     		movs	r2, #0
 2670 0092 C3F81C28 		str	r2, [r3, #2076]
 2671              		.loc 7 955 0
 2672 0096 039B     		ldr	r3, [sp, #12]
 2673 0098 5B68     		ldr	r3, [r3, #4]
 2674 009a DB68     		ldr	r3, [r3, #12]
 2675 009c 002B     		cmp	r3, #0
 2676 009e 03D1     		bne	.L125
 2677              		.loc 7 956 0
 2678 00a0 059B     		ldr	r3, [sp, #20]
 2679 00a2 1A4A     		ldr	r2, .L128+16
 2680 00a4 9A61     		str	r2, [r3, #24]
 2681 00a6 02E0     		b	.L126
 2682              	.L125:
 2683              		.loc 7 959 0
 2684 00a8 059B     		ldr	r3, [sp, #20]
 2685 00aa 194A     		ldr	r2, .L128+20
ARM GAS  /tmp/cciPs3oN.s 			page 49


 2686 00ac 9A61     		str	r2, [r3, #24]
 2687              	.L126:
 2688              		.loc 7 964 0
 2689 00ae 059B     		ldr	r3, [sp, #20]
 2690 00b0 4FF0FF32 		mov	r2, #-1
 2691 00b4 5A61     		str	r2, [r3, #20]
 2692              		.loc 7 968 0
 2693 00b6 039B     		ldr	r3, [sp, #12]
 2694 00b8 5B6E     		ldr	r3, [r3, #100]
 2695 00ba 002B     		cmp	r3, #0
 2696 00bc 14D1     		bne	.L127
 2697              		.loc 7 969 0
 2698 00be 039B     		ldr	r3, [sp, #12]
 2699 00c0 6833     		adds	r3, r3, #104
 2700 00c2 039A     		ldr	r2, [sp, #12]
 2701 00c4 0092     		str	r2, [sp]
 2702 00c6 1846     		mov	r0, r3
 2703 00c8 4FF4A471 		mov	r1, #328
 2704 00cc 0222     		movs	r2, #2
 2705 00ce 114B     		ldr	r3, .L128+24
 2706 00d0 FFF7FEFF 		bl	chThdCreateI
 2707 00d4 0246     		mov	r2, r0
 2708 00d6 039B     		ldr	r3, [sp, #12]
 2709 00d8 5A66     		str	r2, [r3, #100]
 2710              		.loc 7 972 0
 2711 00da 039B     		ldr	r3, [sp, #12]
 2712 00dc 5B6E     		ldr	r3, [r3, #100]
 2713 00de 1846     		mov	r0, r3
 2714 00e0 FFF7FEFF 		bl	chThdStartI
 2715              		.loc 7 973 0
 2716 00e4 FFF7FEFF 		bl	chSchRescheduleS
 2717              	.L127:
 2718              		.loc 7 978 0
 2719 00e8 059B     		ldr	r3, [sp, #20]
 2720 00ea 9B68     		ldr	r3, [r3, #8]
 2721 00ec 43F00102 		orr	r2, r3, #1
 2722 00f0 059B     		ldr	r3, [sp, #20]
 2723 00f2 9A60     		str	r2, [r3, #8]
 2724              	.L122:
 2725              		.loc 7 980 0
 2726 00f4 07B0     		add	sp, sp, #28
 2727              		@ sp needed
 2728 00f6 5DF804FB 		ldr	pc, [sp], #4
 2729              	.L129:
 2730 00fa 00BF     		.align	2
 2731              	.L128:
 2732 00fc 00000000 		.word	USBD1
 2733 0100 00380240 		.word	1073887232
 2734 0104 40140040 		.word	1073747008
 2735 0108 03002002 		.word	35651587
 2736 010c 003C00C0 		.word	-1073726464
 2737 0110 083C00C0 		.word	-1073726456
 2738 0114 00000000 		.word	usb_lld_pump
 2739              		.cfi_endproc
 2740              	.LFE290:
 2741              		.size	usb_lld_start, .-usb_lld_start
 2742 0118 AFF30080 		.section	.text.usb_lld_stop,"ax",%progbits
ARM GAS  /tmp/cciPs3oN.s 			page 50


 2742      AFF30080 
 2743              		.align	2
 2744              		.p2align 4,,15
 2745              		.global	usb_lld_stop
 2746              		.thumb
 2747              		.thumb_func
 2748              		.type	usb_lld_stop, %function
 2749              	usb_lld_stop:
 2750              	.LFB291:
 2751              		.loc 7 989 0
 2752              		.cfi_startproc
 2753              		@ args = 0, pretend = 0, frame = 16
 2754              		@ frame_needed = 0, uses_anonymous_args = 0
 2755 0000 00B5     		push	{lr}
 2756              		.cfi_def_cfa_offset 4
 2757              		.cfi_offset 14, -4
 2758 0002 85B0     		sub	sp, sp, #20
 2759              		.cfi_def_cfa_offset 24
 2760 0004 0190     		str	r0, [sp, #4]
 2761              		.loc 7 990 0
 2762 0006 019B     		ldr	r3, [sp, #4]
 2763 0008 1B6D     		ldr	r3, [r3, #80]
 2764 000a 0393     		str	r3, [sp, #12]
 2765              		.loc 7 993 0
 2766 000c 019B     		ldr	r3, [sp, #4]
 2767 000e 1B78     		ldrb	r3, [r3]	@ zero_extendqisi2
 2768 0010 012B     		cmp	r3, #1
 2769 0012 1CD0     		beq	.L130
 2770              		.loc 7 997 0
 2771 0014 0198     		ldr	r0, [sp, #4]
 2772 0016 FFF7FEFF 		bl	otg_disable_ep
 2773              		.loc 7 999 0
 2774 001a 019B     		ldr	r3, [sp, #4]
 2775 001c 0022     		movs	r2, #0
 2776 001e DA65     		str	r2, [r3, #92]
 2777              		.loc 7 1001 0
 2778 0020 039B     		ldr	r3, [sp, #12]
 2779 0022 0022     		movs	r2, #0
 2780 0024 C3F81C28 		str	r2, [r3, #2076]
 2781              		.loc 7 1002 0
 2782 0028 039B     		ldr	r3, [sp, #12]
 2783 002a 0022     		movs	r2, #0
 2784 002c 9A60     		str	r2, [r3, #8]
 2785              		.loc 7 1003 0
 2786 002e 039B     		ldr	r3, [sp, #12]
 2787 0030 0022     		movs	r2, #0
 2788 0032 9A63     		str	r2, [r3, #56]
 2789              		.loc 7 1006 0
 2790 0034 019A     		ldr	r2, [sp, #4]
 2791 0036 074B     		ldr	r3, .L132
 2792 0038 9A42     		cmp	r2, r3
 2793 003a 08D1     		bne	.L130
 2794              		.loc 7 1007 0
 2795 003c 4320     		movs	r0, #67
 2796 003e FFF7FEFF 		bl	nvicDisableVector
 2797              		.loc 7 1008 0
 2798 0042 054B     		ldr	r3, .L132+4
ARM GAS  /tmp/cciPs3oN.s 			page 51


 2799 0044 044A     		ldr	r2, .L132+4
 2800 0046 526B     		ldr	r2, [r2, #52]
 2801 0048 22F08002 		bic	r2, r2, #128
 2802 004c 5A63     		str	r2, [r3, #52]
 2803              	.L130:
 2804              		.loc 7 1022 0
 2805 004e 05B0     		add	sp, sp, #20
 2806              		@ sp needed
 2807 0050 5DF804FB 		ldr	pc, [sp], #4
 2808              	.L133:
 2809              		.align	2
 2810              	.L132:
 2811 0054 00000000 		.word	USBD1
 2812 0058 00380240 		.word	1073887232
 2813              		.cfi_endproc
 2814              	.LFE291:
 2815              		.size	usb_lld_stop, .-usb_lld_stop
 2816 005c AFF30080 		.section	.text.usb_lld_reset,"ax",%progbits
 2817              		.align	2
 2818              		.p2align 4,,15
 2819              		.global	usb_lld_reset
 2820              		.thumb
 2821              		.thumb_func
 2822              		.type	usb_lld_reset, %function
 2823              	usb_lld_reset:
 2824              	.LFB292:
 2825              		.loc 7 1031 0
 2826              		.cfi_startproc
 2827              		@ args = 0, pretend = 0, frame = 16
 2828              		@ frame_needed = 0, uses_anonymous_args = 0
 2829 0000 10B5     		push	{r4, lr}
 2830              		.cfi_def_cfa_offset 8
 2831              		.cfi_offset 4, -8
 2832              		.cfi_offset 14, -4
 2833 0002 84B0     		sub	sp, sp, #16
 2834              		.cfi_def_cfa_offset 24
 2835 0004 0190     		str	r0, [sp, #4]
 2836              		.loc 7 1033 0
 2837 0006 019B     		ldr	r3, [sp, #4]
 2838 0008 1B6D     		ldr	r3, [r3, #80]
 2839 000a 0293     		str	r3, [sp, #8]
 2840              		.loc 7 1036 0
 2841 000c 0198     		ldr	r0, [sp, #4]
 2842 000e 0021     		movs	r1, #0
 2843 0010 FFF7FEFF 		bl	otg_txfifo_flush
 2844              		.loc 7 1039 0
 2845 0014 0023     		movs	r3, #0
 2846 0016 0393     		str	r3, [sp, #12]
 2847 0018 22E0     		b	.L135
 2848              	.L136:
 2849              		.loc 7 1040 0 discriminator 2
 2850 001a 029A     		ldr	r2, [sp, #8]
 2851 001c 039B     		ldr	r3, [sp, #12]
 2852 001e 4833     		adds	r3, r3, #72
 2853 0020 5B01     		lsls	r3, r3, #5
 2854 0022 1344     		add	r3, r3, r2
 2855 0024 4FF00062 		mov	r2, #134217728
ARM GAS  /tmp/cciPs3oN.s 			page 52


 2856 0028 1A60     		str	r2, [r3]
 2857              		.loc 7 1041 0 discriminator 2
 2858 002a 029A     		ldr	r2, [sp, #8]
 2859 002c 039B     		ldr	r3, [sp, #12]
 2860 002e 5833     		adds	r3, r3, #88
 2861 0030 5B01     		lsls	r3, r3, #5
 2862 0032 1344     		add	r3, r3, r2
 2863 0034 4FF00062 		mov	r2, #134217728
 2864 0038 1A60     		str	r2, [r3]
 2865              		.loc 7 1042 0 discriminator 2
 2866 003a 029A     		ldr	r2, [sp, #8]
 2867 003c 039B     		ldr	r3, [sp, #12]
 2868 003e 5B01     		lsls	r3, r3, #5
 2869 0040 1344     		add	r3, r3, r2
 2870 0042 03F60813 		addw	r3, r3, #2312
 2871 0046 FF22     		movs	r2, #255
 2872 0048 1A60     		str	r2, [r3]
 2873              		.loc 7 1043 0 discriminator 2
 2874 004a 029A     		ldr	r2, [sp, #8]
 2875 004c 039B     		ldr	r3, [sp, #12]
 2876 004e 5B01     		lsls	r3, r3, #5
 2877 0050 1344     		add	r3, r3, r2
 2878 0052 03F60833 		addw	r3, r3, #2824
 2879 0056 FF22     		movs	r2, #255
 2880 0058 1A60     		str	r2, [r3]
 2881              		.loc 7 1039 0 discriminator 2
 2882 005a 039B     		ldr	r3, [sp, #12]
 2883 005c 0133     		adds	r3, r3, #1
 2884 005e 0393     		str	r3, [sp, #12]
 2885              	.L135:
 2886              		.loc 7 1039 0 is_stmt 0 discriminator 1
 2887 0060 019B     		ldr	r3, [sp, #4]
 2888 0062 5B6D     		ldr	r3, [r3, #84]
 2889 0064 9A68     		ldr	r2, [r3, #8]
 2890 0066 039B     		ldr	r3, [sp, #12]
 2891 0068 9A42     		cmp	r2, r3
 2892 006a D6D2     		bcs	.L136
 2893              		.loc 7 1047 0 is_stmt 1
 2894 006c 029B     		ldr	r3, [sp, #8]
 2895 006e 4FF0FF32 		mov	r2, #-1
 2896 0072 C3F81828 		str	r2, [r3, #2072]
 2897              		.loc 7 1048 0
 2898 0076 029B     		ldr	r3, [sp, #8]
 2899 0078 4FF00112 		mov	r2, #65537
 2900 007c C3F81C28 		str	r2, [r3, #2076]
 2901              		.loc 7 1051 0
 2902 0080 0198     		ldr	r0, [sp, #4]
 2903 0082 FFF7FEFF 		bl	otg_ram_reset
 2904              		.loc 7 1054 0
 2905 0086 019B     		ldr	r3, [sp, #4]
 2906 0088 5B6D     		ldr	r3, [r3, #84]
 2907 008a 1A68     		ldr	r2, [r3]
 2908 008c 029B     		ldr	r3, [sp, #8]
 2909 008e 5A62     		str	r2, [r3, #36]
 2910              		.loc 7 1055 0
 2911 0090 0198     		ldr	r0, [sp, #4]
 2912 0092 FFF7FEFF 		bl	otg_rxfifo_flush
ARM GAS  /tmp/cciPs3oN.s 			page 53


 2913              		.loc 7 1058 0
 2914 0096 029B     		ldr	r3, [sp, #8]
 2915 0098 D3F80038 		ldr	r3, [r3, #2048]
 2916 009c 23F4FE62 		bic	r2, r3, #2032
 2917 00a0 029B     		ldr	r3, [sp, #8]
 2918 00a2 C3F80028 		str	r2, [r3, #2048]
 2919              		.loc 7 1061 0
 2920 00a6 029B     		ldr	r3, [sp, #8]
 2921 00a8 9B69     		ldr	r3, [r3, #24]
 2922 00aa 43F44023 		orr	r3, r3, #786432
 2923 00ae 43F01003 		orr	r3, r3, #16
 2924 00b2 029A     		ldr	r2, [sp, #8]
 2925 00b4 9361     		str	r3, [r2, #24]
 2926              		.loc 7 1062 0
 2927 00b6 029B     		ldr	r3, [sp, #8]
 2928 00b8 0922     		movs	r2, #9
 2929 00ba C3F81028 		str	r2, [r3, #2064]
 2930              		.loc 7 1063 0
 2931 00be 029B     		ldr	r3, [sp, #8]
 2932 00c0 0922     		movs	r2, #9
 2933 00c2 C3F81428 		str	r2, [r3, #2068]
 2934              		.loc 7 1066 0
 2935 00c6 019B     		ldr	r3, [sp, #4]
 2936 00c8 164A     		ldr	r2, .L137
 2937 00ca DA60     		str	r2, [r3, #12]
 2938              		.loc 7 1067 0
 2939 00cc 029B     		ldr	r3, [sp, #8]
 2940 00ce 0022     		movs	r2, #0
 2941 00d0 C3F8102B 		str	r2, [r3, #2832]
 2942              		.loc 7 1069 0
 2943 00d4 4023     		movs	r3, #64
 2944              		.loc 7 1068 0
 2945 00d6 43F08053 		orr	r3, r3, #268435456
 2946 00da 43F40043 		orr	r3, r3, #32768
 2947 00de 029A     		ldr	r2, [sp, #8]
 2948 00e0 C2F8003B 		str	r3, [r2, #2816]
 2949              		.loc 7 1070 0
 2950 00e4 029B     		ldr	r3, [sp, #8]
 2951 00e6 0022     		movs	r2, #0
 2952 00e8 C3F81029 		str	r2, [r3, #2320]
 2953              		.loc 7 1072 0
 2954 00ec 4023     		movs	r3, #64
 2955 00ee 43F08053 		orr	r3, r3, #268435456
 2956 00f2 43F40043 		orr	r3, r3, #32768
 2957              		.loc 7 1071 0
 2958 00f6 029A     		ldr	r2, [sp, #8]
 2959 00f8 C2F80039 		str	r3, [r2, #2304]
 2960              		.loc 7 1073 0
 2961 00fc 4023     		movs	r3, #64
 2962 00fe 9B08     		lsrs	r3, r3, #2
 2963 0100 9BB2     		uxth	r3, r3
 2964 0102 1B04     		lsls	r3, r3, #16
 2965 0104 1C46     		mov	r4, r3
 2966              		.loc 7 1074 0
 2967 0106 4023     		movs	r3, #64
 2968 0108 9B08     		lsrs	r3, r3, #2
 2969 010a 9BB2     		uxth	r3, r3
ARM GAS  /tmp/cciPs3oN.s 			page 54


 2970 010c 0198     		ldr	r0, [sp, #4]
 2971 010e 1946     		mov	r1, r3
 2972 0110 FFF7FEFF 		bl	otg_ram_alloc
 2973 0114 0346     		mov	r3, r0
 2974              		.loc 7 1073 0
 2975 0116 44EA0302 		orr	r2, r4, r3
 2976 011a 029B     		ldr	r3, [sp, #8]
 2977 011c 9A62     		str	r2, [r3, #40]
 2978              		.loc 7 1076 0
 2979 011e 04B0     		add	sp, sp, #16
 2980              		@ sp needed
 2981 0120 10BD     		pop	{r4, pc}
 2982              	.L138:
 2983 0122 00BF     		.align	2
 2984              	.L137:
 2985 0124 00000000 		.word	ep0config
 2986              		.cfi_endproc
 2987              	.LFE292:
 2988              		.size	usb_lld_reset, .-usb_lld_reset
 2989 0128 AFF30080 		.section	.text.usb_lld_set_address,"ax",%progbits
 2989      AFF30080 
 2990              		.align	2
 2991              		.p2align 4,,15
 2992              		.global	usb_lld_set_address
 2993              		.thumb
 2994              		.thumb_func
 2995              		.type	usb_lld_set_address, %function
 2996              	usb_lld_set_address:
 2997              	.LFB293:
 2998              		.loc 7 1085 0
 2999              		.cfi_startproc
 3000              		@ args = 0, pretend = 0, frame = 16
 3001              		@ frame_needed = 0, uses_anonymous_args = 0
 3002              		@ link register save eliminated.
 3003 0000 84B0     		sub	sp, sp, #16
 3004              		.cfi_def_cfa_offset 16
 3005 0002 0190     		str	r0, [sp, #4]
 3006              		.loc 7 1086 0
 3007 0004 019B     		ldr	r3, [sp, #4]
 3008 0006 1B6D     		ldr	r3, [r3, #80]
 3009 0008 0393     		str	r3, [sp, #12]
 3010              		.loc 7 1088 0
 3011 000a 039B     		ldr	r3, [sp, #12]
 3012 000c D3F80038 		ldr	r3, [r3, #2048]
 3013 0010 23F4FE62 		bic	r2, r3, #2032
 3014 0014 019B     		ldr	r3, [sp, #4]
 3015 0016 93F84E30 		ldrb	r3, [r3, #78]	@ zero_extendqisi2
 3016 001a 1B01     		lsls	r3, r3, #4
 3017 001c 1A43     		orrs	r2, r2, r3
 3018 001e 039B     		ldr	r3, [sp, #12]
 3019 0020 C3F80028 		str	r2, [r3, #2048]
 3020              		.loc 7 1089 0
 3021 0024 04B0     		add	sp, sp, #16
 3022              		@ sp needed
 3023 0026 7047     		bx	lr
 3024              		.cfi_endproc
 3025              	.LFE293:
ARM GAS  /tmp/cciPs3oN.s 			page 55


 3026              		.size	usb_lld_set_address, .-usb_lld_set_address
 3027 0028 AFF30080 		.section	.text.usb_lld_init_endpoint,"ax",%progbits
 3027      AFF30080 
 3028              		.align	2
 3029              		.p2align 4,,15
 3030              		.global	usb_lld_init_endpoint
 3031              		.thumb
 3032              		.thumb_func
 3033              		.type	usb_lld_init_endpoint, %function
 3034              	usb_lld_init_endpoint:
 3035              	.LFB294:
 3036              		.loc 7 1099 0
 3037              		.cfi_startproc
 3038              		@ args = 0, pretend = 0, frame = 24
 3039              		@ frame_needed = 0, uses_anonymous_args = 0
 3040 0000 30B5     		push	{r4, r5, lr}
 3041              		.cfi_def_cfa_offset 12
 3042              		.cfi_offset 4, -12
 3043              		.cfi_offset 5, -8
 3044              		.cfi_offset 14, -4
 3045 0002 87B0     		sub	sp, sp, #28
 3046              		.cfi_def_cfa_offset 40
 3047 0004 0190     		str	r0, [sp, #4]
 3048 0006 0B46     		mov	r3, r1
 3049 0008 8DF80330 		strb	r3, [sp, #3]
 3050              		.loc 7 1101 0
 3051 000c 019B     		ldr	r3, [sp, #4]
 3052 000e 1B6D     		ldr	r3, [r3, #80]
 3053 0010 0393     		str	r3, [sp, #12]
 3054              		.loc 7 1104 0
 3055 0012 9DF80330 		ldrb	r3, [sp, #3]	@ zero_extendqisi2
 3056 0016 019A     		ldr	r2, [sp, #4]
 3057 0018 0233     		adds	r3, r3, #2
 3058 001a 9B00     		lsls	r3, r3, #2
 3059 001c 1344     		add	r3, r3, r2
 3060 001e 5B68     		ldr	r3, [r3, #4]
 3061 0020 1B68     		ldr	r3, [r3]
 3062 0022 03F00303 		and	r3, r3, #3
 3063 0026 032B     		cmp	r3, #3
 3064 0028 00F20881 		bhi	.L153
 3065 002c 01A2     		adr	r2, .L143
 3066 002e 52F823F0 		ldr	pc, [r2, r3, lsl #2]
 3067 0032 00BF     		.p2align 2
 3068              	.L143:
 3069 0034 45000000 		.word	.L142+1
 3070 0038 4B000000 		.word	.L144+1
 3071 003c 51000000 		.word	.L145+1
 3072 0040 57000000 		.word	.L146+1
 3073              		.p2align 1
 3074              	.L142:
 3075              		.loc 7 1106 0
 3076 0044 7F4B     		ldr	r3, .L154
 3077 0046 0593     		str	r3, [sp, #20]
 3078              		.loc 7 1107 0
 3079 0048 08E0     		b	.L147
 3080              	.L144:
 3081              		.loc 7 1109 0
ARM GAS  /tmp/cciPs3oN.s 			page 56


 3082 004a 7F4B     		ldr	r3, .L154+4
 3083 004c 0593     		str	r3, [sp, #20]
 3084              		.loc 7 1110 0
 3085 004e 05E0     		b	.L147
 3086              	.L145:
 3087              		.loc 7 1112 0
 3088 0050 7E4B     		ldr	r3, .L154+8
 3089 0052 0593     		str	r3, [sp, #20]
 3090              		.loc 7 1113 0
 3091 0054 02E0     		b	.L147
 3092              	.L146:
 3093              		.loc 7 1115 0
 3094 0056 7E4B     		ldr	r3, .L154+12
 3095 0058 0593     		str	r3, [sp, #20]
 3096              		.loc 7 1116 0
 3097 005a 00BF     		nop
 3098              	.L147:
 3099              		.loc 7 1122 0
 3100 005c 9DF80330 		ldrb	r3, [sp, #3]	@ zero_extendqisi2
 3101 0060 039A     		ldr	r2, [sp, #12]
 3102 0062 5B01     		lsls	r3, r3, #5
 3103 0064 1344     		add	r3, r3, r2
 3104 0066 03F53163 		add	r3, r3, #2832
 3105 006a 0022     		movs	r2, #0
 3106 006c 1A60     		str	r2, [r3]
 3107              		.loc 7 1123 0
 3108 006e 9DF80330 		ldrb	r3, [sp, #3]	@ zero_extendqisi2
 3109 0072 019A     		ldr	r2, [sp, #4]
 3110 0074 0233     		adds	r3, r3, #2
 3111 0076 9B00     		lsls	r3, r3, #2
 3112 0078 1344     		add	r3, r3, r2
 3113 007a 5B68     		ldr	r3, [r3, #4]
 3114 007c DB68     		ldr	r3, [r3, #12]
 3115 007e 002B     		cmp	r3, #0
 3116 0080 20D0     		beq	.L149
 3117              		.loc 7 1124 0
 3118 0082 9DF80300 		ldrb	r0, [sp, #3]	@ zero_extendqisi2
 3119 0086 9DF80330 		ldrb	r3, [sp, #3]	@ zero_extendqisi2
 3120 008a 019A     		ldr	r2, [sp, #4]
 3121 008c 0233     		adds	r3, r3, #2
 3122 008e 9B00     		lsls	r3, r3, #2
 3123 0090 1344     		add	r3, r3, r2
 3124 0092 5B68     		ldr	r3, [r3, #4]
 3125 0094 5B8A     		ldrh	r3, [r3, #18]
 3126 0096 1A46     		mov	r2, r3
 3127 0098 059B     		ldr	r3, [sp, #20]
 3128 009a 1A43     		orrs	r2, r2, r3
 3129 009c 0399     		ldr	r1, [sp, #12]
 3130 009e 00F15803 		add	r3, r0, #88
 3131 00a2 5B01     		lsls	r3, r3, #5
 3132 00a4 0B44     		add	r3, r3, r1
 3133 00a6 1A60     		str	r2, [r3]
 3134              		.loc 7 1125 0
 3135 00a8 039B     		ldr	r3, [sp, #12]
 3136 00aa D3F81C28 		ldr	r2, [r3, #2076]
 3137 00ae 9DF80330 		ldrb	r3, [sp, #3]	@ zero_extendqisi2
 3138 00b2 1033     		adds	r3, r3, #16
ARM GAS  /tmp/cciPs3oN.s 			page 57


 3139 00b4 0121     		movs	r1, #1
 3140 00b6 01FA03F3 		lsl	r3, r1, r3
 3141 00ba 1A43     		orrs	r2, r2, r3
 3142 00bc 039B     		ldr	r3, [sp, #12]
 3143 00be C3F81C28 		str	r2, [r3, #2076]
 3144 00c2 1DE0     		b	.L150
 3145              	.L149:
 3146              		.loc 7 1128 0
 3147 00c4 9DF80330 		ldrb	r3, [sp, #3]	@ zero_extendqisi2
 3148 00c8 9DF80320 		ldrb	r2, [sp, #3]	@ zero_extendqisi2
 3149 00cc 0399     		ldr	r1, [sp, #12]
 3150 00ce 5832     		adds	r2, r2, #88
 3151 00d0 5201     		lsls	r2, r2, #5
 3152 00d2 0A44     		add	r2, r2, r1
 3153 00d4 1268     		ldr	r2, [r2]
 3154 00d6 22F40042 		bic	r2, r2, #32768
 3155 00da 0399     		ldr	r1, [sp, #12]
 3156 00dc 5833     		adds	r3, r3, #88
 3157 00de 5B01     		lsls	r3, r3, #5
 3158 00e0 0B44     		add	r3, r3, r1
 3159 00e2 1A60     		str	r2, [r3]
 3160              		.loc 7 1129 0
 3161 00e4 039B     		ldr	r3, [sp, #12]
 3162 00e6 D3F81C28 		ldr	r2, [r3, #2076]
 3163 00ea 9DF80330 		ldrb	r3, [sp, #3]	@ zero_extendqisi2
 3164 00ee 1033     		adds	r3, r3, #16
 3165 00f0 0121     		movs	r1, #1
 3166 00f2 01FA03F3 		lsl	r3, r1, r3
 3167 00f6 DB43     		mvns	r3, r3
 3168 00f8 1A40     		ands	r2, r2, r3
 3169 00fa 039B     		ldr	r3, [sp, #12]
 3170 00fc C3F81C28 		str	r2, [r3, #2076]
 3171              	.L150:
 3172              		.loc 7 1133 0
 3173 0100 9DF80330 		ldrb	r3, [sp, #3]	@ zero_extendqisi2
 3174 0104 039A     		ldr	r2, [sp, #12]
 3175 0106 5B01     		lsls	r3, r3, #5
 3176 0108 1344     		add	r3, r3, r2
 3177 010a 03F51163 		add	r3, r3, #2320
 3178 010e 0022     		movs	r2, #0
 3179 0110 1A60     		str	r2, [r3]
 3180              		.loc 7 1134 0
 3181 0112 9DF80330 		ldrb	r3, [sp, #3]	@ zero_extendqisi2
 3182 0116 019A     		ldr	r2, [sp, #4]
 3183 0118 0233     		adds	r3, r3, #2
 3184 011a 9B00     		lsls	r3, r3, #2
 3185 011c 1344     		add	r3, r3, r2
 3186 011e 5B68     		ldr	r3, [r3, #4]
 3187 0120 9B68     		ldr	r3, [r3, #8]
 3188 0122 002B     		cmp	r3, #0
 3189 0124 5DD0     		beq	.L151
 3190              		.loc 7 1136 0
 3191 0126 9DF80330 		ldrb	r3, [sp, #3]	@ zero_extendqisi2
 3192 012a 019A     		ldr	r2, [sp, #4]
 3193 012c 0233     		adds	r3, r3, #2
 3194 012e 9B00     		lsls	r3, r3, #2
 3195 0130 1344     		add	r3, r3, r2
ARM GAS  /tmp/cciPs3oN.s 			page 58


 3196 0132 5B68     		ldr	r3, [r3, #4]
 3197 0134 1B8A     		ldrh	r3, [r3, #16]
 3198 0136 9B08     		lsrs	r3, r3, #2
 3199 0138 9BB2     		uxth	r3, r3
 3200 013a 0493     		str	r3, [sp, #16]
 3201              		.loc 7 1137 0
 3202 013c 9DF80330 		ldrb	r3, [sp, #3]	@ zero_extendqisi2
 3203 0140 019A     		ldr	r2, [sp, #4]
 3204 0142 0233     		adds	r3, r3, #2
 3205 0144 9B00     		lsls	r3, r3, #2
 3206 0146 1344     		add	r3, r3, r2
 3207 0148 5B68     		ldr	r3, [r3, #4]
 3208 014a 9B8B     		ldrh	r3, [r3, #28]
 3209 014c 012B     		cmp	r3, #1
 3210 014e 0CD9     		bls	.L152
 3211              		.loc 7 1138 0
 3212 0150 9DF80330 		ldrb	r3, [sp, #3]	@ zero_extendqisi2
 3213 0154 019A     		ldr	r2, [sp, #4]
 3214 0156 0233     		adds	r3, r3, #2
 3215 0158 9B00     		lsls	r3, r3, #2
 3216 015a 1344     		add	r3, r3, r2
 3217 015c 5B68     		ldr	r3, [r3, #4]
 3218 015e 9B8B     		ldrh	r3, [r3, #28]
 3219 0160 1A46     		mov	r2, r3
 3220 0162 049B     		ldr	r3, [sp, #16]
 3221 0164 02FB03F3 		mul	r3, r2, r3
 3222 0168 0493     		str	r3, [sp, #16]
 3223              	.L152:
 3224              		.loc 7 1139 0
 3225 016a 9DF80330 		ldrb	r3, [sp, #3]	@ zero_extendqisi2
 3226 016e 5C1E     		subs	r4, r3, #1
 3227 0170 049B     		ldr	r3, [sp, #16]
 3228 0172 1D04     		lsls	r5, r3, #16
 3229              		.loc 7 1140 0
 3230 0174 0198     		ldr	r0, [sp, #4]
 3231 0176 0499     		ldr	r1, [sp, #16]
 3232 0178 FFF7FEFF 		bl	otg_ram_alloc
 3233 017c 0346     		mov	r3, r0
 3234              		.loc 7 1139 0
 3235 017e 45EA0302 		orr	r2, r5, r3
 3236 0182 0399     		ldr	r1, [sp, #12]
 3237 0184 04F14003 		add	r3, r4, #64
 3238 0188 9B00     		lsls	r3, r3, #2
 3239 018a 0B44     		add	r3, r3, r1
 3240 018c 5A60     		str	r2, [r3, #4]
 3241              		.loc 7 1141 0
 3242 018e 9DF80330 		ldrb	r3, [sp, #3]	@ zero_extendqisi2
 3243 0192 0198     		ldr	r0, [sp, #4]
 3244 0194 1946     		mov	r1, r3
 3245 0196 FFF7FEFF 		bl	otg_txfifo_flush
 3246              		.loc 7 1143 0
 3247 019a 9DF80300 		ldrb	r0, [sp, #3]	@ zero_extendqisi2
 3248              		.loc 7 1144 0
 3249 019e 9DF80330 		ldrb	r3, [sp, #3]	@ zero_extendqisi2
 3250 01a2 9B05     		lsls	r3, r3, #22
 3251              		.loc 7 1143 0
 3252 01a4 1A46     		mov	r2, r3
ARM GAS  /tmp/cciPs3oN.s 			page 59


 3253 01a6 059B     		ldr	r3, [sp, #20]
 3254 01a8 1A43     		orrs	r2, r2, r3
 3255              		.loc 7 1145 0
 3256 01aa 9DF80330 		ldrb	r3, [sp, #3]	@ zero_extendqisi2
 3257 01ae 0199     		ldr	r1, [sp, #4]
 3258 01b0 0233     		adds	r3, r3, #2
 3259 01b2 9B00     		lsls	r3, r3, #2
 3260 01b4 0B44     		add	r3, r3, r1
 3261 01b6 5B68     		ldr	r3, [r3, #4]
 3262 01b8 1B8A     		ldrh	r3, [r3, #16]
 3263              		.loc 7 1144 0
 3264 01ba 1A43     		orrs	r2, r2, r3
 3265              		.loc 7 1143 0
 3266 01bc 0399     		ldr	r1, [sp, #12]
 3267 01be 00F14803 		add	r3, r0, #72
 3268 01c2 5B01     		lsls	r3, r3, #5
 3269 01c4 0B44     		add	r3, r3, r1
 3270 01c6 1A60     		str	r2, [r3]
 3271              		.loc 7 1146 0
 3272 01c8 039B     		ldr	r3, [sp, #12]
 3273 01ca D3F81C28 		ldr	r2, [r3, #2076]
 3274 01ce 9DF80330 		ldrb	r3, [sp, #3]	@ zero_extendqisi2
 3275 01d2 0121     		movs	r1, #1
 3276 01d4 01FA03F3 		lsl	r3, r1, r3
 3277 01d8 1A43     		orrs	r2, r2, r3
 3278 01da 039B     		ldr	r3, [sp, #12]
 3279 01dc C3F81C28 		str	r2, [r3, #2076]
 3280 01e0 2DE0     		b	.L140
 3281              	.L151:
 3282              		.loc 7 1149 0
 3283 01e2 9DF80330 		ldrb	r3, [sp, #3]	@ zero_extendqisi2
 3284 01e6 013B     		subs	r3, r3, #1
 3285 01e8 039A     		ldr	r2, [sp, #12]
 3286 01ea 4033     		adds	r3, r3, #64
 3287 01ec 9B00     		lsls	r3, r3, #2
 3288 01ee 1344     		add	r3, r3, r2
 3289 01f0 184A     		ldr	r2, .L154+16
 3290 01f2 5A60     		str	r2, [r3, #4]
 3291              		.loc 7 1150 0
 3292 01f4 9DF80330 		ldrb	r3, [sp, #3]	@ zero_extendqisi2
 3293 01f8 0198     		ldr	r0, [sp, #4]
 3294 01fa 1946     		mov	r1, r3
 3295 01fc FFF7FEFF 		bl	otg_txfifo_flush
 3296              		.loc 7 1151 0
 3297 0200 9DF80330 		ldrb	r3, [sp, #3]	@ zero_extendqisi2
 3298 0204 9DF80320 		ldrb	r2, [sp, #3]	@ zero_extendqisi2
 3299 0208 0399     		ldr	r1, [sp, #12]
 3300 020a 4832     		adds	r2, r2, #72
 3301 020c 5201     		lsls	r2, r2, #5
 3302 020e 0A44     		add	r2, r2, r1
 3303 0210 1268     		ldr	r2, [r2]
 3304 0212 22F40042 		bic	r2, r2, #32768
 3305 0216 0399     		ldr	r1, [sp, #12]
 3306 0218 4833     		adds	r3, r3, #72
 3307 021a 5B01     		lsls	r3, r3, #5
 3308 021c 0B44     		add	r3, r3, r1
 3309 021e 1A60     		str	r2, [r3]
ARM GAS  /tmp/cciPs3oN.s 			page 60


 3310              		.loc 7 1152 0
 3311 0220 039B     		ldr	r3, [sp, #12]
 3312 0222 D3F81C28 		ldr	r2, [r3, #2076]
 3313 0226 9DF80330 		ldrb	r3, [sp, #3]	@ zero_extendqisi2
 3314 022a 0121     		movs	r1, #1
 3315 022c 01FA03F3 		lsl	r3, r1, r3
 3316 0230 DB43     		mvns	r3, r3
 3317 0232 1A40     		ands	r2, r2, r3
 3318 0234 039B     		ldr	r3, [sp, #12]
 3319 0236 C3F81C28 		str	r2, [r3, #2076]
 3320 023a 00E0     		b	.L140
 3321              	.L153:
 3322              		.loc 7 1118 0
 3323 023c 00BF     		nop
 3324              	.L140:
 3325              		.loc 7 1154 0
 3326 023e 07B0     		add	sp, sp, #28
 3327              		@ sp needed
 3328 0240 30BD     		pop	{r4, r5, pc}
 3329              	.L155:
 3330 0242 00BF     		.align	2
 3331              	.L154:
 3332 0244 00800010 		.word	268468224
 3333 0248 00800410 		.word	268730368
 3334 024c 00800810 		.word	268992512
 3335 0250 00800C10 		.word	269254656
 3336 0254 00040002 		.word	33555456
 3337              		.cfi_endproc
 3338              	.LFE294:
 3339              		.size	usb_lld_init_endpoint, .-usb_lld_init_endpoint
 3340 0258 AFF30080 		.section	.text.usb_lld_disable_endpoints,"ax",%progbits
 3340      AFF30080 
 3341              		.align	2
 3342              		.p2align 4,,15
 3343              		.global	usb_lld_disable_endpoints
 3344              		.thumb
 3345              		.thumb_func
 3346              		.type	usb_lld_disable_endpoints, %function
 3347              	usb_lld_disable_endpoints:
 3348              	.LFB295:
 3349              		.loc 7 1163 0
 3350              		.cfi_startproc
 3351              		@ args = 0, pretend = 0, frame = 8
 3352              		@ frame_needed = 0, uses_anonymous_args = 0
 3353 0000 00B5     		push	{lr}
 3354              		.cfi_def_cfa_offset 4
 3355              		.cfi_offset 14, -4
 3356 0002 83B0     		sub	sp, sp, #12
 3357              		.cfi_def_cfa_offset 16
 3358 0004 0190     		str	r0, [sp, #4]
 3359              		.loc 7 1166 0
 3360 0006 0198     		ldr	r0, [sp, #4]
 3361 0008 FFF7FEFF 		bl	otg_ram_reset
 3362              		.loc 7 1169 0
 3363 000c 0198     		ldr	r0, [sp, #4]
 3364 000e FFF7FEFF 		bl	otg_disable_ep
 3365              		.loc 7 1170 0
ARM GAS  /tmp/cciPs3oN.s 			page 61


 3366 0012 03B0     		add	sp, sp, #12
 3367              		@ sp needed
 3368 0014 5DF804FB 		ldr	pc, [sp], #4
 3369              		.cfi_endproc
 3370              	.LFE295:
 3371              		.size	usb_lld_disable_endpoints, .-usb_lld_disable_endpoints
 3372 0018 AFF30080 		.section	.text.usb_lld_get_status_out,"ax",%progbits
 3372      AFF30080 
 3373              		.align	2
 3374              		.p2align 4,,15
 3375              		.global	usb_lld_get_status_out
 3376              		.thumb
 3377              		.thumb_func
 3378              		.type	usb_lld_get_status_out, %function
 3379              	usb_lld_get_status_out:
 3380              	.LFB296:
 3381              		.loc 7 1184 0
 3382              		.cfi_startproc
 3383              		@ args = 0, pretend = 0, frame = 16
 3384              		@ frame_needed = 0, uses_anonymous_args = 0
 3385              		@ link register save eliminated.
 3386 0000 84B0     		sub	sp, sp, #16
 3387              		.cfi_def_cfa_offset 16
 3388 0002 0190     		str	r0, [sp, #4]
 3389 0004 0B46     		mov	r3, r1
 3390 0006 8DF80330 		strb	r3, [sp, #3]
 3391              		.loc 7 1189 0
 3392 000a 019B     		ldr	r3, [sp, #4]
 3393 000c 1A6D     		ldr	r2, [r3, #80]
 3394 000e 9DF80330 		ldrb	r3, [sp, #3]	@ zero_extendqisi2
 3395 0012 5833     		adds	r3, r3, #88
 3396 0014 5B01     		lsls	r3, r3, #5
 3397 0016 1344     		add	r3, r3, r2
 3398 0018 1B68     		ldr	r3, [r3]
 3399 001a 0393     		str	r3, [sp, #12]
 3400              		.loc 7 1190 0
 3401 001c 039B     		ldr	r3, [sp, #12]
 3402 001e 03F40043 		and	r3, r3, #32768
 3403 0022 002B     		cmp	r3, #0
 3404 0024 01D1     		bne	.L158
 3405              		.loc 7 1191 0
 3406 0026 0023     		movs	r3, #0
 3407 0028 07E0     		b	.L159
 3408              	.L158:
 3409              		.loc 7 1192 0
 3410 002a 039B     		ldr	r3, [sp, #12]
 3411 002c 03F40013 		and	r3, r3, #2097152
 3412 0030 002B     		cmp	r3, #0
 3413 0032 01D0     		beq	.L160
 3414              		.loc 7 1193 0
 3415 0034 0123     		movs	r3, #1
 3416 0036 00E0     		b	.L159
 3417              	.L160:
 3418              		.loc 7 1194 0
 3419 0038 0223     		movs	r3, #2
 3420              	.L159:
 3421              		.loc 7 1195 0
ARM GAS  /tmp/cciPs3oN.s 			page 62


 3422 003a 1846     		mov	r0, r3
 3423 003c 04B0     		add	sp, sp, #16
 3424              		@ sp needed
 3425 003e 7047     		bx	lr
 3426              		.cfi_endproc
 3427              	.LFE296:
 3428              		.size	usb_lld_get_status_out, .-usb_lld_get_status_out
 3429              		.section	.text.usb_lld_get_status_in,"ax",%progbits
 3430              		.align	2
 3431              		.p2align 4,,15
 3432              		.global	usb_lld_get_status_in
 3433              		.thumb
 3434              		.thumb_func
 3435              		.type	usb_lld_get_status_in, %function
 3436              	usb_lld_get_status_in:
 3437              	.LFB297:
 3438              		.loc 7 1209 0
 3439              		.cfi_startproc
 3440              		@ args = 0, pretend = 0, frame = 16
 3441              		@ frame_needed = 0, uses_anonymous_args = 0
 3442              		@ link register save eliminated.
 3443 0000 84B0     		sub	sp, sp, #16
 3444              		.cfi_def_cfa_offset 16
 3445 0002 0190     		str	r0, [sp, #4]
 3446 0004 0B46     		mov	r3, r1
 3447 0006 8DF80330 		strb	r3, [sp, #3]
 3448              		.loc 7 1214 0
 3449 000a 019B     		ldr	r3, [sp, #4]
 3450 000c 1A6D     		ldr	r2, [r3, #80]
 3451 000e 9DF80330 		ldrb	r3, [sp, #3]	@ zero_extendqisi2
 3452 0012 4833     		adds	r3, r3, #72
 3453 0014 5B01     		lsls	r3, r3, #5
 3454 0016 1344     		add	r3, r3, r2
 3455 0018 1B68     		ldr	r3, [r3]
 3456 001a 0393     		str	r3, [sp, #12]
 3457              		.loc 7 1215 0
 3458 001c 039B     		ldr	r3, [sp, #12]
 3459 001e 03F40043 		and	r3, r3, #32768
 3460 0022 002B     		cmp	r3, #0
 3461 0024 01D1     		bne	.L162
 3462              		.loc 7 1216 0
 3463 0026 0023     		movs	r3, #0
 3464 0028 07E0     		b	.L163
 3465              	.L162:
 3466              		.loc 7 1217 0
 3467 002a 039B     		ldr	r3, [sp, #12]
 3468 002c 03F40013 		and	r3, r3, #2097152
 3469 0030 002B     		cmp	r3, #0
 3470 0032 01D0     		beq	.L164
 3471              		.loc 7 1218 0
 3472 0034 0123     		movs	r3, #1
 3473 0036 00E0     		b	.L163
 3474              	.L164:
 3475              		.loc 7 1219 0
 3476 0038 0223     		movs	r3, #2
 3477              	.L163:
 3478              		.loc 7 1220 0
ARM GAS  /tmp/cciPs3oN.s 			page 63


 3479 003a 1846     		mov	r0, r3
 3480 003c 04B0     		add	sp, sp, #16
 3481              		@ sp needed
 3482 003e 7047     		bx	lr
 3483              		.cfi_endproc
 3484              	.LFE297:
 3485              		.size	usb_lld_get_status_in, .-usb_lld_get_status_in
 3486              		.section	.text.usb_lld_read_setup,"ax",%progbits
 3487              		.align	2
 3488              		.p2align 4,,15
 3489              		.global	usb_lld_read_setup
 3490              		.thumb
 3491              		.thumb_func
 3492              		.type	usb_lld_read_setup, %function
 3493              	usb_lld_read_setup:
 3494              	.LFB298:
 3495              		.loc 7 1236 0
 3496              		.cfi_startproc
 3497              		@ args = 0, pretend = 0, frame = 16
 3498              		@ frame_needed = 0, uses_anonymous_args = 0
 3499 0000 00B5     		push	{lr}
 3500              		.cfi_def_cfa_offset 4
 3501              		.cfi_offset 14, -4
 3502 0002 85B0     		sub	sp, sp, #20
 3503              		.cfi_def_cfa_offset 24
 3504 0004 0390     		str	r0, [sp, #12]
 3505 0006 0B46     		mov	r3, r1
 3506 0008 0192     		str	r2, [sp, #4]
 3507 000a 8DF80B30 		strb	r3, [sp, #11]
 3508              		.loc 7 1238 0
 3509 000e 9DF80B30 		ldrb	r3, [sp, #11]	@ zero_extendqisi2
 3510 0012 039A     		ldr	r2, [sp, #12]
 3511 0014 0233     		adds	r3, r3, #2
 3512 0016 9B00     		lsls	r3, r3, #2
 3513 0018 1344     		add	r3, r3, r2
 3514 001a 5B68     		ldr	r3, [r3, #4]
 3515 001c 1B6A     		ldr	r3, [r3, #32]
 3516 001e 0198     		ldr	r0, [sp, #4]
 3517 0020 1946     		mov	r1, r3
 3518 0022 0822     		movs	r2, #8
 3519 0024 FFF7FEFF 		bl	memcpy
 3520              		.loc 7 1239 0
 3521 0028 05B0     		add	sp, sp, #20
 3522              		@ sp needed
 3523 002a 5DF804FB 		ldr	pc, [sp], #4
 3524              		.cfi_endproc
 3525              	.LFE298:
 3526              		.size	usb_lld_read_setup, .-usb_lld_read_setup
 3527 002e 00BF     		.section	.text.usb_lld_prepare_receive,"ax",%progbits
 3528              		.align	2
 3529              		.p2align 4,,15
 3530              		.global	usb_lld_prepare_receive
 3531              		.thumb
 3532              		.thumb_func
 3533              		.type	usb_lld_prepare_receive, %function
 3534              	usb_lld_prepare_receive:
 3535              	.LFB299:
ARM GAS  /tmp/cciPs3oN.s 			page 64


 3536              		.loc 7 1249 0
 3537              		.cfi_startproc
 3538              		@ args = 0, pretend = 0, frame = 16
 3539              		@ frame_needed = 0, uses_anonymous_args = 0
 3540              		@ link register save eliminated.
 3541 0000 84B0     		sub	sp, sp, #16
 3542              		.cfi_def_cfa_offset 16
 3543 0002 0190     		str	r0, [sp, #4]
 3544 0004 0B46     		mov	r3, r1
 3545 0006 8DF80330 		strb	r3, [sp, #3]
 3546              		.loc 7 1251 0
 3547 000a 9DF80330 		ldrb	r3, [sp, #3]	@ zero_extendqisi2
 3548 000e 019A     		ldr	r2, [sp, #4]
 3549 0010 0233     		adds	r3, r3, #2
 3550 0012 9B00     		lsls	r3, r3, #2
 3551 0014 1344     		add	r3, r3, r2
 3552 0016 5B68     		ldr	r3, [r3, #4]
 3553 0018 9B69     		ldr	r3, [r3, #24]
 3554 001a 0393     		str	r3, [sp, #12]
 3555              		.loc 7 1254 0
 3556 001c 039B     		ldr	r3, [sp, #12]
 3557 001e 5A68     		ldr	r2, [r3, #4]
 3558 0020 039B     		ldr	r3, [sp, #12]
 3559 0022 1A61     		str	r2, [r3, #16]
 3560              		.loc 7 1255 0
 3561 0024 9DF80330 		ldrb	r3, [sp, #3]	@ zero_extendqisi2
 3562 0028 002B     		cmp	r3, #0
 3563 002a 06D1     		bne	.L167
 3564              		.loc 7 1255 0 is_stmt 0 discriminator 1
 3565 002c 039B     		ldr	r3, [sp, #12]
 3566 002e 5B68     		ldr	r3, [r3, #4]
 3567 0030 402B     		cmp	r3, #64
 3568 0032 02D9     		bls	.L167
 3569              		.loc 7 1256 0 is_stmt 1
 3570 0034 039B     		ldr	r3, [sp, #12]
 3571 0036 4022     		movs	r2, #64
 3572 0038 5A60     		str	r2, [r3, #4]
 3573              	.L167:
 3574              		.loc 7 1258 0
 3575 003a 039B     		ldr	r3, [sp, #12]
 3576 003c 5A68     		ldr	r2, [r3, #4]
 3577 003e 9DF80330 		ldrb	r3, [sp, #3]	@ zero_extendqisi2
 3578 0042 0199     		ldr	r1, [sp, #4]
 3579 0044 0233     		adds	r3, r3, #2
 3580 0046 9B00     		lsls	r3, r3, #2
 3581 0048 0B44     		add	r3, r3, r1
 3582 004a 5B68     		ldr	r3, [r3, #4]
 3583 004c 5B8A     		ldrh	r3, [r3, #18]
 3584 004e 1344     		add	r3, r3, r2
 3585 0050 5A1E     		subs	r2, r3, #1
 3586              		.loc 7 1259 0
 3587 0052 9DF80330 		ldrb	r3, [sp, #3]	@ zero_extendqisi2
 3588 0056 0199     		ldr	r1, [sp, #4]
 3589 0058 0233     		adds	r3, r3, #2
 3590 005a 9B00     		lsls	r3, r3, #2
 3591 005c 0B44     		add	r3, r3, r1
 3592 005e 5B68     		ldr	r3, [r3, #4]
ARM GAS  /tmp/cciPs3oN.s 			page 65


 3593 0060 5B8A     		ldrh	r3, [r3, #18]
 3594              		.loc 7 1258 0
 3595 0062 B2FBF3F3 		udiv	r3, r2, r3
 3596 0066 0293     		str	r3, [sp, #8]
 3597              		.loc 7 1260 0
 3598 0068 019B     		ldr	r3, [sp, #4]
 3599 006a 196D     		ldr	r1, [r3, #80]
 3600 006c 9DF80330 		ldrb	r3, [sp, #3]	@ zero_extendqisi2
 3601 0070 029A     		ldr	r2, [sp, #8]
 3602 0072 D004     		lsls	r0, r2, #19
 3603              		.loc 7 1261 0
 3604 0074 039A     		ldr	r2, [sp, #12]
 3605 0076 5268     		ldr	r2, [r2, #4]
 3606              		.loc 7 1260 0
 3607 0078 0243     		orrs	r2, r2, r0
 3608 007a 42F0C042 		orr	r2, r2, #1610612736
 3609 007e 5B01     		lsls	r3, r3, #5
 3610 0080 0B44     		add	r3, r3, r1
 3611 0082 03F53163 		add	r3, r3, #2832
 3612 0086 1A60     		str	r2, [r3]
 3613              		.loc 7 1263 0
 3614 0088 04B0     		add	sp, sp, #16
 3615              		@ sp needed
 3616 008a 7047     		bx	lr
 3617              		.cfi_endproc
 3618              	.LFE299:
 3619              		.size	usb_lld_prepare_receive, .-usb_lld_prepare_receive
 3620 008c AFF30080 		.section	.text.usb_lld_prepare_transmit,"ax",%progbits
 3621              		.align	2
 3622              		.p2align 4,,15
 3623              		.global	usb_lld_prepare_transmit
 3624              		.thumb
 3625              		.thumb_func
 3626              		.type	usb_lld_prepare_transmit, %function
 3627              	usb_lld_prepare_transmit:
 3628              	.LFB300:
 3629              		.loc 7 1273 0
 3630              		.cfi_startproc
 3631              		@ args = 0, pretend = 0, frame = 16
 3632              		@ frame_needed = 0, uses_anonymous_args = 0
 3633              		@ link register save eliminated.
 3634 0000 84B0     		sub	sp, sp, #16
 3635              		.cfi_def_cfa_offset 16
 3636 0002 0190     		str	r0, [sp, #4]
 3637 0004 0B46     		mov	r3, r1
 3638 0006 8DF80330 		strb	r3, [sp, #3]
 3639              		.loc 7 1274 0
 3640 000a 9DF80330 		ldrb	r3, [sp, #3]	@ zero_extendqisi2
 3641 000e 019A     		ldr	r2, [sp, #4]
 3642 0010 0233     		adds	r3, r3, #2
 3643 0012 9B00     		lsls	r3, r3, #2
 3644 0014 1344     		add	r3, r3, r2
 3645 0016 5B68     		ldr	r3, [r3, #4]
 3646 0018 5B69     		ldr	r3, [r3, #20]
 3647 001a 0393     		str	r3, [sp, #12]
 3648              		.loc 7 1277 0
 3649 001c 039B     		ldr	r3, [sp, #12]
ARM GAS  /tmp/cciPs3oN.s 			page 66


 3650 001e 5A68     		ldr	r2, [r3, #4]
 3651 0020 039B     		ldr	r3, [sp, #12]
 3652 0022 1A61     		str	r2, [r3, #16]
 3653              		.loc 7 1278 0
 3654 0024 039B     		ldr	r3, [sp, #12]
 3655 0026 5B68     		ldr	r3, [r3, #4]
 3656 0028 002B     		cmp	r3, #0
 3657 002a 0BD1     		bne	.L169
 3658              		.loc 7 1280 0
 3659 002c 019B     		ldr	r3, [sp, #4]
 3660 002e 1A6D     		ldr	r2, [r3, #80]
 3661 0030 9DF80330 		ldrb	r3, [sp, #3]	@ zero_extendqisi2
 3662 0034 5B01     		lsls	r3, r3, #5
 3663 0036 1344     		add	r3, r3, r2
 3664 0038 03F51163 		add	r3, r3, #2320
 3665 003c 4FF40022 		mov	r2, #524288
 3666 0040 1A60     		str	r2, [r3]
 3667 0042 2FE0     		b	.L168
 3668              	.L169:
 3669              	.LBB19:
 3670              		.loc 7 1283 0
 3671 0044 9DF80330 		ldrb	r3, [sp, #3]	@ zero_extendqisi2
 3672 0048 002B     		cmp	r3, #0
 3673 004a 06D1     		bne	.L171
 3674              		.loc 7 1283 0 is_stmt 0 discriminator 1
 3675 004c 039B     		ldr	r3, [sp, #12]
 3676 004e 5B68     		ldr	r3, [r3, #4]
 3677 0050 402B     		cmp	r3, #64
 3678 0052 02D9     		bls	.L171
 3679              		.loc 7 1284 0 is_stmt 1
 3680 0054 039B     		ldr	r3, [sp, #12]
 3681 0056 4022     		movs	r2, #64
 3682 0058 5A60     		str	r2, [r3, #4]
 3683              	.L171:
 3684              		.loc 7 1287 0
 3685 005a 039B     		ldr	r3, [sp, #12]
 3686 005c 5A68     		ldr	r2, [r3, #4]
 3687 005e 9DF80330 		ldrb	r3, [sp, #3]	@ zero_extendqisi2
 3688 0062 0199     		ldr	r1, [sp, #4]
 3689 0064 0233     		adds	r3, r3, #2
 3690 0066 9B00     		lsls	r3, r3, #2
 3691 0068 0B44     		add	r3, r3, r1
 3692 006a 5B68     		ldr	r3, [r3, #4]
 3693 006c 1B8A     		ldrh	r3, [r3, #16]
 3694 006e 1344     		add	r3, r3, r2
 3695 0070 5A1E     		subs	r2, r3, #1
 3696              		.loc 7 1288 0
 3697 0072 9DF80330 		ldrb	r3, [sp, #3]	@ zero_extendqisi2
 3698 0076 0199     		ldr	r1, [sp, #4]
 3699 0078 0233     		adds	r3, r3, #2
 3700 007a 9B00     		lsls	r3, r3, #2
 3701 007c 0B44     		add	r3, r3, r1
 3702 007e 5B68     		ldr	r3, [r3, #4]
 3703 0080 1B8A     		ldrh	r3, [r3, #16]
 3704              		.loc 7 1287 0
 3705 0082 B2FBF3F3 		udiv	r3, r2, r3
 3706 0086 0293     		str	r3, [sp, #8]
ARM GAS  /tmp/cciPs3oN.s 			page 67


 3707              		.loc 7 1289 0
 3708 0088 019B     		ldr	r3, [sp, #4]
 3709 008a 196D     		ldr	r1, [r3, #80]
 3710 008c 9DF80330 		ldrb	r3, [sp, #3]	@ zero_extendqisi2
 3711 0090 029A     		ldr	r2, [sp, #8]
 3712 0092 D004     		lsls	r0, r2, #19
 3713              		.loc 7 1290 0
 3714 0094 039A     		ldr	r2, [sp, #12]
 3715 0096 5268     		ldr	r2, [r2, #4]
 3716              		.loc 7 1289 0
 3717 0098 0243     		orrs	r2, r2, r0
 3718 009a 5B01     		lsls	r3, r3, #5
 3719 009c 0B44     		add	r3, r3, r1
 3720 009e 03F51163 		add	r3, r3, #2320
 3721 00a2 1A60     		str	r2, [r3]
 3722              	.L168:
 3723              	.LBE19:
 3724              		.loc 7 1292 0
 3725 00a4 04B0     		add	sp, sp, #16
 3726              		@ sp needed
 3727 00a6 7047     		bx	lr
 3728              		.cfi_endproc
 3729              	.LFE300:
 3730              		.size	usb_lld_prepare_transmit, .-usb_lld_prepare_transmit
 3731 00a8 AFF30080 		.section	.text.usb_lld_start_out,"ax",%progbits
 3731      AFF30080 
 3732              		.align	2
 3733              		.p2align 4,,15
 3734              		.global	usb_lld_start_out
 3735              		.thumb
 3736              		.thumb_func
 3737              		.type	usb_lld_start_out, %function
 3738              	usb_lld_start_out:
 3739              	.LFB301:
 3740              		.loc 7 1302 0
 3741              		.cfi_startproc
 3742              		@ args = 0, pretend = 0, frame = 8
 3743              		@ frame_needed = 0, uses_anonymous_args = 0
 3744              		@ link register save eliminated.
 3745 0000 82B0     		sub	sp, sp, #8
 3746              		.cfi_def_cfa_offset 8
 3747 0002 0190     		str	r0, [sp, #4]
 3748 0004 0B46     		mov	r3, r1
 3749 0006 8DF80330 		strb	r3, [sp, #3]
 3750              		.loc 7 1304 0
 3751 000a 019B     		ldr	r3, [sp, #4]
 3752 000c 196D     		ldr	r1, [r3, #80]
 3753 000e 9DF80330 		ldrb	r3, [sp, #3]	@ zero_extendqisi2
 3754 0012 019A     		ldr	r2, [sp, #4]
 3755 0014 106D     		ldr	r0, [r2, #80]
 3756 0016 9DF80320 		ldrb	r2, [sp, #3]	@ zero_extendqisi2
 3757 001a 5832     		adds	r2, r2, #88
 3758 001c 5201     		lsls	r2, r2, #5
 3759 001e 0244     		add	r2, r2, r0
 3760 0020 1268     		ldr	r2, [r2]
 3761 0022 42F08062 		orr	r2, r2, #67108864
 3762 0026 5833     		adds	r3, r3, #88
ARM GAS  /tmp/cciPs3oN.s 			page 68


 3763 0028 5B01     		lsls	r3, r3, #5
 3764 002a 0B44     		add	r3, r3, r1
 3765 002c 1A60     		str	r2, [r3]
 3766              		.loc 7 1305 0
 3767 002e 02B0     		add	sp, sp, #8
 3768              		@ sp needed
 3769 0030 7047     		bx	lr
 3770              		.cfi_endproc
 3771              	.LFE301:
 3772              		.size	usb_lld_start_out, .-usb_lld_start_out
 3773 0032 00BFAFF3 		.section	.text.usb_lld_start_in,"ax",%progbits
 3773      0080AFF3 
 3773      0080AFF3 
 3773      0080
 3774              		.align	2
 3775              		.p2align 4,,15
 3776              		.global	usb_lld_start_in
 3777              		.thumb
 3778              		.thumb_func
 3779              		.type	usb_lld_start_in, %function
 3780              	usb_lld_start_in:
 3781              	.LFB302:
 3782              		.loc 7 1315 0
 3783              		.cfi_startproc
 3784              		@ args = 0, pretend = 0, frame = 8
 3785              		@ frame_needed = 0, uses_anonymous_args = 0
 3786              		@ link register save eliminated.
 3787 0000 82B0     		sub	sp, sp, #8
 3788              		.cfi_def_cfa_offset 8
 3789 0002 0190     		str	r0, [sp, #4]
 3790 0004 0B46     		mov	r3, r1
 3791 0006 8DF80330 		strb	r3, [sp, #3]
 3792              		.loc 7 1317 0
 3793 000a 019B     		ldr	r3, [sp, #4]
 3794 000c 196D     		ldr	r1, [r3, #80]
 3795 000e 9DF80330 		ldrb	r3, [sp, #3]	@ zero_extendqisi2
 3796 0012 019A     		ldr	r2, [sp, #4]
 3797 0014 106D     		ldr	r0, [r2, #80]
 3798 0016 9DF80320 		ldrb	r2, [sp, #3]	@ zero_extendqisi2
 3799 001a 4832     		adds	r2, r2, #72
 3800 001c 5201     		lsls	r2, r2, #5
 3801 001e 0244     		add	r2, r2, r0
 3802 0020 1268     		ldr	r2, [r2]
 3803 0022 42F00442 		orr	r2, r2, #-2080374784
 3804 0026 4833     		adds	r3, r3, #72
 3805 0028 5B01     		lsls	r3, r3, #5
 3806 002a 0B44     		add	r3, r3, r1
 3807 002c 1A60     		str	r2, [r3]
 3808              		.loc 7 1318 0
 3809 002e 019B     		ldr	r3, [sp, #4]
 3810 0030 1B6D     		ldr	r3, [r3, #80]
 3811 0032 019A     		ldr	r2, [sp, #4]
 3812 0034 126D     		ldr	r2, [r2, #80]
 3813 0036 D2F83418 		ldr	r1, [r2, #2100]
 3814 003a 9DF80320 		ldrb	r2, [sp, #3]	@ zero_extendqisi2
 3815 003e 0120     		movs	r0, #1
 3816 0040 00FA02F2 		lsl	r2, r0, r2
ARM GAS  /tmp/cciPs3oN.s 			page 69


 3817 0044 0A43     		orrs	r2, r2, r1
 3818 0046 C3F83428 		str	r2, [r3, #2100]
 3819              		.loc 7 1319 0
 3820 004a 02B0     		add	sp, sp, #8
 3821              		@ sp needed
 3822 004c 7047     		bx	lr
 3823              		.cfi_endproc
 3824              	.LFE302:
 3825              		.size	usb_lld_start_in, .-usb_lld_start_in
 3826 004e 00BF     		.section	.text.usb_lld_stall_out,"ax",%progbits
 3827              		.align	2
 3828              		.p2align 4,,15
 3829              		.global	usb_lld_stall_out
 3830              		.thumb
 3831              		.thumb_func
 3832              		.type	usb_lld_stall_out, %function
 3833              	usb_lld_stall_out:
 3834              	.LFB303:
 3835              		.loc 7 1329 0
 3836              		.cfi_startproc
 3837              		@ args = 0, pretend = 0, frame = 8
 3838              		@ frame_needed = 0, uses_anonymous_args = 0
 3839              		@ link register save eliminated.
 3840 0000 82B0     		sub	sp, sp, #8
 3841              		.cfi_def_cfa_offset 8
 3842 0002 0190     		str	r0, [sp, #4]
 3843 0004 0B46     		mov	r3, r1
 3844 0006 8DF80330 		strb	r3, [sp, #3]
 3845              		.loc 7 1331 0
 3846 000a 019B     		ldr	r3, [sp, #4]
 3847 000c 196D     		ldr	r1, [r3, #80]
 3848 000e 9DF80330 		ldrb	r3, [sp, #3]	@ zero_extendqisi2
 3849 0012 019A     		ldr	r2, [sp, #4]
 3850 0014 106D     		ldr	r0, [r2, #80]
 3851 0016 9DF80320 		ldrb	r2, [sp, #3]	@ zero_extendqisi2
 3852 001a 5832     		adds	r2, r2, #88
 3853 001c 5201     		lsls	r2, r2, #5
 3854 001e 0244     		add	r2, r2, r0
 3855 0020 1268     		ldr	r2, [r2]
 3856 0022 42F40012 		orr	r2, r2, #2097152
 3857 0026 5833     		adds	r3, r3, #88
 3858 0028 5B01     		lsls	r3, r3, #5
 3859 002a 0B44     		add	r3, r3, r1
 3860 002c 1A60     		str	r2, [r3]
 3861              		.loc 7 1332 0
 3862 002e 02B0     		add	sp, sp, #8
 3863              		@ sp needed
 3864 0030 7047     		bx	lr
 3865              		.cfi_endproc
 3866              	.LFE303:
 3867              		.size	usb_lld_stall_out, .-usb_lld_stall_out
 3868 0032 00BFAFF3 		.section	.text.usb_lld_stall_in,"ax",%progbits
 3868      0080AFF3 
 3868      0080AFF3 
 3868      0080
 3869              		.align	2
 3870              		.p2align 4,,15
ARM GAS  /tmp/cciPs3oN.s 			page 70


 3871              		.global	usb_lld_stall_in
 3872              		.thumb
 3873              		.thumb_func
 3874              		.type	usb_lld_stall_in, %function
 3875              	usb_lld_stall_in:
 3876              	.LFB304:
 3877              		.loc 7 1342 0
 3878              		.cfi_startproc
 3879              		@ args = 0, pretend = 0, frame = 8
 3880              		@ frame_needed = 0, uses_anonymous_args = 0
 3881              		@ link register save eliminated.
 3882 0000 82B0     		sub	sp, sp, #8
 3883              		.cfi_def_cfa_offset 8
 3884 0002 0190     		str	r0, [sp, #4]
 3885 0004 0B46     		mov	r3, r1
 3886 0006 8DF80330 		strb	r3, [sp, #3]
 3887              		.loc 7 1344 0
 3888 000a 019B     		ldr	r3, [sp, #4]
 3889 000c 196D     		ldr	r1, [r3, #80]
 3890 000e 9DF80330 		ldrb	r3, [sp, #3]	@ zero_extendqisi2
 3891 0012 019A     		ldr	r2, [sp, #4]
 3892 0014 106D     		ldr	r0, [r2, #80]
 3893 0016 9DF80320 		ldrb	r2, [sp, #3]	@ zero_extendqisi2
 3894 001a 4832     		adds	r2, r2, #72
 3895 001c 5201     		lsls	r2, r2, #5
 3896 001e 0244     		add	r2, r2, r0
 3897 0020 1268     		ldr	r2, [r2]
 3898 0022 42F40012 		orr	r2, r2, #2097152
 3899 0026 4833     		adds	r3, r3, #72
 3900 0028 5B01     		lsls	r3, r3, #5
 3901 002a 0B44     		add	r3, r3, r1
 3902 002c 1A60     		str	r2, [r3]
 3903              		.loc 7 1345 0
 3904 002e 02B0     		add	sp, sp, #8
 3905              		@ sp needed
 3906 0030 7047     		bx	lr
 3907              		.cfi_endproc
 3908              	.LFE304:
 3909              		.size	usb_lld_stall_in, .-usb_lld_stall_in
 3910 0032 00BFAFF3 		.section	.text.usb_lld_clear_out,"ax",%progbits
 3910      0080AFF3 
 3910      0080AFF3 
 3910      0080
 3911              		.align	2
 3912              		.p2align 4,,15
 3913              		.global	usb_lld_clear_out
 3914              		.thumb
 3915              		.thumb_func
 3916              		.type	usb_lld_clear_out, %function
 3917              	usb_lld_clear_out:
 3918              	.LFB305:
 3919              		.loc 7 1355 0
 3920              		.cfi_startproc
 3921              		@ args = 0, pretend = 0, frame = 8
 3922              		@ frame_needed = 0, uses_anonymous_args = 0
 3923              		@ link register save eliminated.
 3924 0000 82B0     		sub	sp, sp, #8
ARM GAS  /tmp/cciPs3oN.s 			page 71


 3925              		.cfi_def_cfa_offset 8
 3926 0002 0190     		str	r0, [sp, #4]
 3927 0004 0B46     		mov	r3, r1
 3928 0006 8DF80330 		strb	r3, [sp, #3]
 3929              		.loc 7 1357 0
 3930 000a 019B     		ldr	r3, [sp, #4]
 3931 000c 196D     		ldr	r1, [r3, #80]
 3932 000e 9DF80330 		ldrb	r3, [sp, #3]	@ zero_extendqisi2
 3933 0012 019A     		ldr	r2, [sp, #4]
 3934 0014 106D     		ldr	r0, [r2, #80]
 3935 0016 9DF80320 		ldrb	r2, [sp, #3]	@ zero_extendqisi2
 3936 001a 5832     		adds	r2, r2, #88
 3937 001c 5201     		lsls	r2, r2, #5
 3938 001e 0244     		add	r2, r2, r0
 3939 0020 1268     		ldr	r2, [r2]
 3940 0022 22F40012 		bic	r2, r2, #2097152
 3941 0026 5833     		adds	r3, r3, #88
 3942 0028 5B01     		lsls	r3, r3, #5
 3943 002a 0B44     		add	r3, r3, r1
 3944 002c 1A60     		str	r2, [r3]
 3945              		.loc 7 1358 0
 3946 002e 02B0     		add	sp, sp, #8
 3947              		@ sp needed
 3948 0030 7047     		bx	lr
 3949              		.cfi_endproc
 3950              	.LFE305:
 3951              		.size	usb_lld_clear_out, .-usb_lld_clear_out
 3952 0032 00BFAFF3 		.section	.text.usb_lld_clear_in,"ax",%progbits
 3952      0080AFF3 
 3952      0080AFF3 
 3952      0080
 3953              		.align	2
 3954              		.p2align 4,,15
 3955              		.global	usb_lld_clear_in
 3956              		.thumb
 3957              		.thumb_func
 3958              		.type	usb_lld_clear_in, %function
 3959              	usb_lld_clear_in:
 3960              	.LFB306:
 3961              		.loc 7 1368 0
 3962              		.cfi_startproc
 3963              		@ args = 0, pretend = 0, frame = 8
 3964              		@ frame_needed = 0, uses_anonymous_args = 0
 3965              		@ link register save eliminated.
 3966 0000 82B0     		sub	sp, sp, #8
 3967              		.cfi_def_cfa_offset 8
 3968 0002 0190     		str	r0, [sp, #4]
 3969 0004 0B46     		mov	r3, r1
 3970 0006 8DF80330 		strb	r3, [sp, #3]
 3971              		.loc 7 1370 0
 3972 000a 019B     		ldr	r3, [sp, #4]
 3973 000c 196D     		ldr	r1, [r3, #80]
 3974 000e 9DF80330 		ldrb	r3, [sp, #3]	@ zero_extendqisi2
 3975 0012 019A     		ldr	r2, [sp, #4]
 3976 0014 106D     		ldr	r0, [r2, #80]
 3977 0016 9DF80320 		ldrb	r2, [sp, #3]	@ zero_extendqisi2
 3978 001a 4832     		adds	r2, r2, #72
ARM GAS  /tmp/cciPs3oN.s 			page 72


 3979 001c 5201     		lsls	r2, r2, #5
 3980 001e 0244     		add	r2, r2, r0
 3981 0020 1268     		ldr	r2, [r2]
 3982 0022 22F40012 		bic	r2, r2, #2097152
 3983 0026 4833     		adds	r3, r3, #72
 3984 0028 5B01     		lsls	r3, r3, #5
 3985 002a 0B44     		add	r3, r3, r1
 3986 002c 1A60     		str	r2, [r3]
 3987              		.loc 7 1371 0
 3988 002e 02B0     		add	sp, sp, #8
 3989              		@ sp needed
 3990 0030 7047     		bx	lr
 3991              		.cfi_endproc
 3992              	.LFE306:
 3993              		.size	usb_lld_clear_in, .-usb_lld_clear_in
 3994 0032 00BFAFF3 		.section	.rodata
 3994      0080AFF3 
 3994      0080AFF3 
 3994      0080
 3995              		.align	2
 3996              	.LC0:
 3997 0000 7573625F 		.ascii	"usb_lld_pump\000"
 3997      6C6C645F 
 3997      70756D70 
 3997      00
 3998 000d 000000   		.section	.text.usb_lld_pump,"ax",%progbits
 3999              		.align	2
 4000              		.p2align 4,,15
 4001              		.global	usb_lld_pump
 4002              		.thumb
 4003              		.thumb_func
 4004              		.type	usb_lld_pump, %function
 4005              	usb_lld_pump:
 4006              	.LFB307:
 4007              		.loc 7 1384 0
 4008              		.cfi_startproc
 4009              		@ args = 0, pretend = 0, frame = 32
 4010              		@ frame_needed = 0, uses_anonymous_args = 0
 4011 0000 00B5     		push	{lr}
 4012              		.cfi_def_cfa_offset 4
 4013              		.cfi_offset 14, -4
 4014 0002 89B0     		sub	sp, sp, #36
 4015              		.cfi_def_cfa_offset 40
 4016 0004 0190     		str	r0, [sp, #4]
 4017              		.loc 7 1385 0
 4018 0006 019B     		ldr	r3, [sp, #4]
 4019 0008 0693     		str	r3, [sp, #24]
 4020              		.loc 7 1386 0
 4021 000a 069B     		ldr	r3, [sp, #24]
 4022 000c 1B6D     		ldr	r3, [r3, #80]
 4023 000e 0593     		str	r3, [sp, #20]
 4024              		.loc 7 1389 0
 4025 0010 3D48     		ldr	r0, .L188
 4026 0012 FFF7FEFF 		bl	chRegSetThreadName
 4027              		.loc 7 1391 0
 4028 0016 FFF7FEFF 		bl	osalSysLock
 4029              	.L187:
ARM GAS  /tmp/cciPs3oN.s 			page 73


 4030              	.LBB20:
 4031              		.loc 7 1397 0
 4032 001a 069B     		ldr	r3, [sp, #24]
 4033 001c 1B78     		ldrb	r3, [r3]	@ zero_extendqisi2
 4034 001e 012B     		cmp	r3, #1
 4035 0020 09D0     		beq	.L179
 4036              		.loc 7 1398 0 discriminator 1
 4037 0022 069B     		ldr	r3, [sp, #24]
 4038 0024 DB6D     		ldr	r3, [r3, #92]
 4039              		.loc 7 1397 0 discriminator 1
 4040 0026 002B     		cmp	r3, #0
 4041 0028 10D1     		bne	.L180
 4042              		.loc 7 1398 0
 4043 002a 059B     		ldr	r3, [sp, #20]
 4044 002c 5B69     		ldr	r3, [r3, #20]
 4045 002e 03F01003 		and	r3, r3, #16
 4046 0032 002B     		cmp	r3, #0
 4047 0034 0AD1     		bne	.L180
 4048              	.L179:
 4049              		.loc 7 1399 0
 4050 0036 059B     		ldr	r3, [sp, #20]
 4051 0038 9B69     		ldr	r3, [r3, #24]
 4052 003a 43F01002 		orr	r2, r3, #16
 4053 003e 059B     		ldr	r3, [sp, #20]
 4054 0040 9A61     		str	r2, [r3, #24]
 4055              		.loc 7 1400 0
 4056 0042 069B     		ldr	r3, [sp, #24]
 4057 0044 6033     		adds	r3, r3, #96
 4058 0046 1846     		mov	r0, r3
 4059 0048 FFF7FEFF 		bl	osalThreadSuspendS
 4060              	.L180:
 4061              		.loc 7 1402 0
 4062 004c FFF7FEFF 		bl	osalSysUnlock
 4063              		.loc 7 1405 0
 4064 0050 0023     		movs	r3, #0
 4065 0052 8DF81F30 		strb	r3, [sp, #31]
 4066 0056 4DE0     		b	.L181
 4067              	.L186:
 4068              		.loc 7 1408 0
 4069 0058 02E0     		b	.L182
 4070              	.L183:
 4071              		.loc 7 1409 0
 4072 005a 0698     		ldr	r0, [sp, #24]
 4073 005c FFF7FEFF 		bl	otg_rxfifo_handler
 4074              	.L182:
 4075              		.loc 7 1408 0 discriminator 1
 4076 0060 059B     		ldr	r3, [sp, #20]
 4077 0062 5B69     		ldr	r3, [r3, #20]
 4078 0064 03F01003 		and	r3, r3, #16
 4079 0068 002B     		cmp	r3, #0
 4080 006a F6D1     		bne	.L183
 4081              		.loc 7 1412 0
 4082 006c 9DF81F30 		ldrb	r3, [sp, #31]	@ zero_extendqisi2
 4083 0070 0122     		movs	r2, #1
 4084 0072 02FA03F3 		lsl	r3, r2, r3
 4085 0076 0493     		str	r3, [sp, #16]
 4086              		.loc 7 1413 0
ARM GAS  /tmp/cciPs3oN.s 			page 74


 4087 0078 069B     		ldr	r3, [sp, #24]
 4088 007a DA6D     		ldr	r2, [r3, #92]
 4089 007c 049B     		ldr	r3, [sp, #16]
 4090 007e 1340     		ands	r3, r3, r2
 4091 0080 002B     		cmp	r3, #0
 4092 0082 32D0     		beq	.L184
 4093              	.LBB21:
 4094              		.loc 7 1416 0
 4095 0084 FFF7FEFF 		bl	osalSysLock
 4096              		.loc 7 1424 0
 4097 0088 059B     		ldr	r3, [sp, #20]
 4098 008a 9B68     		ldr	r3, [r3, #8]
 4099 008c 23F00102 		bic	r2, r3, #1
 4100 0090 059B     		ldr	r3, [sp, #20]
 4101 0092 9A60     		str	r2, [r3, #8]
 4102              		.loc 7 1425 0
 4103 0094 069B     		ldr	r3, [sp, #24]
 4104 0096 DA6D     		ldr	r2, [r3, #92]
 4105 0098 049B     		ldr	r3, [sp, #16]
 4106 009a DB43     		mvns	r3, r3
 4107 009c 1A40     		ands	r2, r2, r3
 4108 009e 069B     		ldr	r3, [sp, #24]
 4109 00a0 DA65     		str	r2, [r3, #92]
 4110              		.loc 7 1426 0
 4111 00a2 FFF7FEFF 		bl	osalSysUnlock
 4112              		.loc 7 1428 0
 4113 00a6 9DF81F30 		ldrb	r3, [sp, #31]	@ zero_extendqisi2
 4114 00aa 0698     		ldr	r0, [sp, #24]
 4115 00ac 1946     		mov	r1, r3
 4116 00ae FFF7FEFF 		bl	otg_txfifo_handler
 4117 00b2 0346     		mov	r3, r0
 4118 00b4 8DF80F30 		strb	r3, [sp, #15]
 4119              		.loc 7 1430 0
 4120 00b8 FFF7FEFF 		bl	osalSysLock
 4121              		.loc 7 1431 0
 4122 00bc 059B     		ldr	r3, [sp, #20]
 4123 00be 9B68     		ldr	r3, [r3, #8]
 4124 00c0 43F00102 		orr	r2, r3, #1
 4125 00c4 059B     		ldr	r3, [sp, #20]
 4126 00c6 9A60     		str	r2, [r3, #8]
 4127              		.loc 7 1432 0
 4128 00c8 9DF80F30 		ldrb	r3, [sp, #15]
 4129 00cc 83F00103 		eor	r3, r3, #1
 4130 00d0 DBB2     		uxtb	r3, r3
 4131 00d2 002B     		cmp	r3, #0
 4132 00d4 07D0     		beq	.L185
 4133              		.loc 7 1433 0
 4134 00d6 059B     		ldr	r3, [sp, #20]
 4135 00d8 D3F83428 		ldr	r2, [r3, #2100]
 4136 00dc 049B     		ldr	r3, [sp, #16]
 4137 00de 1A43     		orrs	r2, r2, r3
 4138 00e0 059B     		ldr	r3, [sp, #20]
 4139 00e2 C3F83428 		str	r2, [r3, #2100]
 4140              	.L185:
 4141              		.loc 7 1434 0
 4142 00e6 FFF7FEFF 		bl	osalSysUnlock
 4143              	.L184:
ARM GAS  /tmp/cciPs3oN.s 			page 75


 4144              	.LBE21:
 4145              		.loc 7 1405 0
 4146 00ea 9DF81F30 		ldrb	r3, [sp, #31]	@ zero_extendqisi2
 4147 00ee 0133     		adds	r3, r3, #1
 4148 00f0 8DF81F30 		strb	r3, [sp, #31]
 4149              	.L181:
 4150              		.loc 7 1405 0 is_stmt 0 discriminator 1
 4151 00f4 9DF81F20 		ldrb	r2, [sp, #31]	@ zero_extendqisi2
 4152 00f8 069B     		ldr	r3, [sp, #24]
 4153 00fa 5B6D     		ldr	r3, [r3, #84]
 4154 00fc 9B68     		ldr	r3, [r3, #8]
 4155 00fe 9A42     		cmp	r2, r3
 4156 0100 AAD9     		bls	.L186
 4157              		.loc 7 1437 0 is_stmt 1
 4158 0102 FFF7FEFF 		bl	osalSysLock
 4159              	.LBE20:
 4160              		.loc 7 1438 0
 4161 0106 88E7     		b	.L187
 4162              	.L189:
 4163              		.align	2
 4164              	.L188:
 4165 0108 00000000 		.word	.LC0
 4166              		.cfi_endproc
 4167              	.LFE307:
 4168              		.size	usb_lld_pump, .-usb_lld_pump
 4169 010c AFF30080 		.text
 4170              	.Letext0:
 4171              		.file 8 "/usr/lib/gcc/arm-none-eabi/4.8/include/stddef.h"
 4172              		.file 9 "/usr/include/newlib/machine/_default_types.h"
 4173              		.file 10 "/usr/include/newlib/stdint.h"
 4174              		.file 11 "/home/efe/ChibiOS/os/rt/ports/ARMCMx/compilers/GCC/chtypes.h"
 4175              		.file 12 "/home/efe/ChibiOS/os/rt/include/chsystypes.h"
 4176              		.file 13 "/home/efe/ChibiOS/os/rt/include/chschd.h"
 4177              		.file 14 "/home/efe/ChibiOS/os/ext/CMSIS/ST/stm32f407xx.h"
 4178              		.file 15 "/home/efe/ChibiOS/os/rt/ports/ARMCMx/chcore.h"
 4179              		.file 16 "/home/efe/ChibiOS/os/rt/include/chtm.h"
 4180              		.file 17 "/home/efe/ChibiOS/os/rt/include/chsem.h"
 4181              		.file 18 "/home/efe/ChibiOS/os/rt/include/chmtx.h"
 4182              		.file 19 "/home/efe/ChibiOS/os/rt/include/chqueues.h"
 4183              		.file 20 "/home/efe/ChibiOS/os/hal/include/usb.h"
 4184              		.file 21 "/home/efe/ChibiOS/os/hal/ports/STM32/LLD/OTGv1/usb_lld.h"
 4185              		.file 22 "/home/efe/ChibiOS/os/hal/ports/STM32/LLD/OTGv1/stm32_otg.h"
 4186              		.file 23 "/home/efe/ChibiOS/os/ext/CMSIS/include/core_cm4.h"
 4187              		.section	.debug_info,"",%progbits
 4188              	.Ldebug_info0:
 4189 0000 7E210000 		.4byte	0x217e
 4190 0004 0400     		.2byte	0x4
 4191 0006 00000000 		.4byte	.Ldebug_abbrev0
 4192 000a 04       		.byte	0x4
 4193 000b 01       		.uleb128 0x1
 4194 000c F5000000 		.4byte	.LASF390
 4195 0010 01       		.byte	0x1
 4196 0011 2B060000 		.4byte	.LASF391
 4197 0015 00000000 		.4byte	.Ldebug_ranges0+0
 4198 0019 00000000 		.4byte	0
 4199 001d 00000000 		.4byte	.Ldebug_line0
 4200 0021 02       		.uleb128 0x2
ARM GAS  /tmp/cciPs3oN.s 			page 76


 4201 0022 04       		.byte	0x4
 4202 0023 05       		.byte	0x5
 4203 0024 696E7400 		.ascii	"int\000"
 4204 0028 03       		.uleb128 0x3
 4205 0029 00000000 		.4byte	.LASF2
 4206 002d 08       		.byte	0x8
 4207 002e D4       		.byte	0xd4
 4208 002f 33000000 		.4byte	0x33
 4209 0033 04       		.uleb128 0x4
 4210 0034 04       		.byte	0x4
 4211 0035 07       		.byte	0x7
 4212 0036 4D0A0000 		.4byte	.LASF0
 4213 003a 04       		.uleb128 0x4
 4214 003b 01       		.byte	0x1
 4215 003c 06       		.byte	0x6
 4216 003d D8030000 		.4byte	.LASF1
 4217 0041 03       		.uleb128 0x3
 4218 0042 79020000 		.4byte	.LASF3
 4219 0046 09       		.byte	0x9
 4220 0047 1D       		.byte	0x1d
 4221 0048 4C000000 		.4byte	0x4c
 4222 004c 04       		.uleb128 0x4
 4223 004d 01       		.byte	0x1
 4224 004e 08       		.byte	0x8
 4225 004f 70040000 		.4byte	.LASF4
 4226 0053 04       		.uleb128 0x4
 4227 0054 02       		.byte	0x2
 4228 0055 05       		.byte	0x5
 4229 0056 5F0E0000 		.4byte	.LASF5
 4230 005a 03       		.uleb128 0x3
 4231 005b 81050000 		.4byte	.LASF6
 4232 005f 09       		.byte	0x9
 4233 0060 2B       		.byte	0x2b
 4234 0061 65000000 		.4byte	0x65
 4235 0065 04       		.uleb128 0x4
 4236 0066 02       		.byte	0x2
 4237 0067 07       		.byte	0x7
 4238 0068 56100000 		.4byte	.LASF7
 4239 006c 03       		.uleb128 0x3
 4240 006d E1100000 		.4byte	.LASF8
 4241 0071 09       		.byte	0x9
 4242 0072 3F       		.byte	0x3f
 4243 0073 77000000 		.4byte	0x77
 4244 0077 04       		.uleb128 0x4
 4245 0078 04       		.byte	0x4
 4246 0079 05       		.byte	0x5
 4247 007a DB020000 		.4byte	.LASF9
 4248 007e 03       		.uleb128 0x3
 4249 007f 46090000 		.4byte	.LASF10
 4250 0083 09       		.byte	0x9
 4251 0084 41       		.byte	0x41
 4252 0085 89000000 		.4byte	0x89
 4253 0089 04       		.uleb128 0x4
 4254 008a 04       		.byte	0x4
 4255 008b 07       		.byte	0x7
 4256 008c CA070000 		.4byte	.LASF11
 4257 0090 04       		.uleb128 0x4
ARM GAS  /tmp/cciPs3oN.s 			page 77


 4258 0091 08       		.byte	0x8
 4259 0092 05       		.byte	0x5
 4260 0093 62090000 		.4byte	.LASF12
 4261 0097 03       		.uleb128 0x3
 4262 0098 AB070000 		.4byte	.LASF13
 4263 009c 09       		.byte	0x9
 4264 009d 5B       		.byte	0x5b
 4265 009e A2000000 		.4byte	0xa2
 4266 00a2 04       		.uleb128 0x4
 4267 00a3 08       		.byte	0x8
 4268 00a4 07       		.byte	0x7
 4269 00a5 310C0000 		.4byte	.LASF14
 4270 00a9 04       		.uleb128 0x4
 4271 00aa 04       		.byte	0x4
 4272 00ab 07       		.byte	0x7
 4273 00ac 19000000 		.4byte	.LASF15
 4274 00b0 05       		.uleb128 0x5
 4275 00b1 04       		.byte	0x4
 4276 00b2 04       		.uleb128 0x4
 4277 00b3 01       		.byte	0x1
 4278 00b4 08       		.byte	0x8
 4279 00b5 58050000 		.4byte	.LASF16
 4280 00b9 06       		.uleb128 0x6
 4281 00ba 04       		.byte	0x4
 4282 00bb BF000000 		.4byte	0xbf
 4283 00bf 07       		.uleb128 0x7
 4284 00c0 B2000000 		.4byte	0xb2
 4285 00c4 03       		.uleb128 0x3
 4286 00c5 EB030000 		.4byte	.LASF17
 4287 00c9 0A       		.byte	0xa
 4288 00ca 2A       		.byte	0x2a
 4289 00cb 41000000 		.4byte	0x41
 4290 00cf 03       		.uleb128 0x3
 4291 00d0 7F0C0000 		.4byte	.LASF18
 4292 00d4 0A       		.byte	0xa
 4293 00d5 36       		.byte	0x36
 4294 00d6 5A000000 		.4byte	0x5a
 4295 00da 03       		.uleb128 0x3
 4296 00db 5D000000 		.4byte	.LASF19
 4297 00df 0A       		.byte	0xa
 4298 00e0 41       		.byte	0x41
 4299 00e1 6C000000 		.4byte	0x6c
 4300 00e5 03       		.uleb128 0x3
 4301 00e6 0D100000 		.4byte	.LASF20
 4302 00ea 0A       		.byte	0xa
 4303 00eb 42       		.byte	0x42
 4304 00ec 7E000000 		.4byte	0x7e
 4305 00f0 03       		.uleb128 0x3
 4306 00f1 7E0E0000 		.4byte	.LASF21
 4307 00f5 0A       		.byte	0xa
 4308 00f6 4E       		.byte	0x4e
 4309 00f7 97000000 		.4byte	0x97
 4310 00fb 08       		.uleb128 0x8
 4311 00fc DA000000 		.4byte	0xda
 4312 0100 08       		.uleb128 0x8
 4313 0101 E5000000 		.4byte	0xe5
 4314 0105 03       		.uleb128 0x3
ARM GAS  /tmp/cciPs3oN.s 			page 78


 4315 0106 7B0A0000 		.4byte	.LASF22
 4316 010a 0B       		.byte	0xb
 4317 010b 45       		.byte	0x45
 4318 010c E5000000 		.4byte	0xe5
 4319 0110 03       		.uleb128 0x3
 4320 0111 9D0D0000 		.4byte	.LASF23
 4321 0115 0B       		.byte	0xb
 4322 0116 48       		.byte	0x48
 4323 0117 C4000000 		.4byte	0xc4
 4324 011b 03       		.uleb128 0x3
 4325 011c 17030000 		.4byte	.LASF24
 4326 0120 0B       		.byte	0xb
 4327 0121 49       		.byte	0x49
 4328 0122 C4000000 		.4byte	0xc4
 4329 0126 03       		.uleb128 0x3
 4330 0127 BE0F0000 		.4byte	.LASF25
 4331 012b 0B       		.byte	0xb
 4332 012c 4A       		.byte	0x4a
 4333 012d C4000000 		.4byte	0xc4
 4334 0131 03       		.uleb128 0x3
 4335 0132 44000000 		.4byte	.LASF26
 4336 0136 0B       		.byte	0xb
 4337 0137 4C       		.byte	0x4c
 4338 0138 E5000000 		.4byte	0xe5
 4339 013c 03       		.uleb128 0x3
 4340 013d 950C0000 		.4byte	.LASF27
 4341 0141 0B       		.byte	0xb
 4342 0142 4D       		.byte	0x4d
 4343 0143 DA000000 		.4byte	0xda
 4344 0147 03       		.uleb128 0x3
 4345 0148 1E040000 		.4byte	.LASF28
 4346 014c 0B       		.byte	0xb
 4347 014d 4F       		.byte	0x4f
 4348 014e E5000000 		.4byte	0xe5
 4349 0152 03       		.uleb128 0x3
 4350 0153 AD060000 		.4byte	.LASF29
 4351 0157 0B       		.byte	0xb
 4352 0158 51       		.byte	0x51
 4353 0159 DA000000 		.4byte	0xda
 4354 015d 03       		.uleb128 0x3
 4355 015e 29000000 		.4byte	.LASF30
 4356 0162 0C       		.byte	0xc
 4357 0163 33       		.byte	0x33
 4358 0164 E5000000 		.4byte	0xe5
 4359 0168 03       		.uleb128 0x3
 4360 0169 670B0000 		.4byte	.LASF31
 4361 016d 0C       		.byte	0xc
 4362 016e 3F       		.byte	0x3f
 4363 016f 73010000 		.4byte	0x173
 4364 0173 09       		.uleb128 0x9
 4365 0174 0B080000 		.4byte	.LASF51
 4366 0178 44       		.byte	0x44
 4367 0179 0D       		.byte	0xd
 4368 017a C2       		.byte	0xc2
 4369 017b 60020000 		.4byte	0x260
 4370 017f 0A       		.uleb128 0xa
 4371 0180 E4020000 		.4byte	.LASF32
ARM GAS  /tmp/cciPs3oN.s 			page 79


 4372 0184 0D       		.byte	0xd
 4373 0185 C3       		.byte	0xc3
 4374 0186 6B020000 		.4byte	0x26b
 4375 018a 00       		.byte	0
 4376 018b 0A       		.uleb128 0xa
 4377 018c FF020000 		.4byte	.LASF33
 4378 0190 0D       		.byte	0xd
 4379 0191 C5       		.byte	0xc5
 4380 0192 6B020000 		.4byte	0x26b
 4381 0196 04       		.byte	0x4
 4382 0197 0A       		.uleb128 0xa
 4383 0198 70050000 		.4byte	.LASF34
 4384 019c 0D       		.byte	0xd
 4385 019d C7       		.byte	0xc7
 4386 019e 31010000 		.4byte	0x131
 4387 01a2 08       		.byte	0x8
 4388 01a3 0A       		.uleb128 0xa
 4389 01a4 3E000000 		.4byte	.LASF35
 4390 01a8 0D       		.byte	0xd
 4391 01a9 C8       		.byte	0xc8
 4392 01aa 5D060000 		.4byte	0x65d
 4393 01ae 0C       		.byte	0xc
 4394 01af 0A       		.uleb128 0xa
 4395 01b0 CE020000 		.4byte	.LASF36
 4396 01b4 0D       		.byte	0xd
 4397 01b5 CA       		.byte	0xca
 4398 01b6 6B020000 		.4byte	0x26b
 4399 01ba 10       		.byte	0x10
 4400 01bb 0A       		.uleb128 0xa
 4401 01bc 6B0C0000 		.4byte	.LASF37
 4402 01c0 0D       		.byte	0xd
 4403 01c1 CB       		.byte	0xcb
 4404 01c2 6B020000 		.4byte	0x26b
 4405 01c6 14       		.byte	0x14
 4406 01c7 0A       		.uleb128 0xa
 4407 01c8 3B110000 		.4byte	.LASF38
 4408 01cc 0D       		.byte	0xd
 4409 01cd D2       		.byte	0xd2
 4410 01ce B9000000 		.4byte	0xb9
 4411 01d2 18       		.byte	0x18
 4412 01d3 0A       		.uleb128 0xa
 4413 01d4 AC110000 		.4byte	.LASF39
 4414 01d8 0D       		.byte	0xd
 4415 01d9 DD       		.byte	0xdd
 4416 01da 1B010000 		.4byte	0x11b
 4417 01de 1C       		.byte	0x1c
 4418 01df 0A       		.uleb128 0xa
 4419 01e0 270A0000 		.4byte	.LASF40
 4420 01e4 0D       		.byte	0xd
 4421 01e5 E1       		.byte	0xe1
 4422 01e6 10010000 		.4byte	0x110
 4423 01ea 1D       		.byte	0x1d
 4424 01eb 0A       		.uleb128 0xa
 4425 01ec B20A0000 		.4byte	.LASF41
 4426 01f0 0D       		.byte	0xd
 4427 01f1 E6       		.byte	0xe6
 4428 01f2 26010000 		.4byte	0x126
ARM GAS  /tmp/cciPs3oN.s 			page 80


 4429 01f6 1E       		.byte	0x1e
 4430 01f7 0B       		.uleb128 0xb
 4431 01f8 705F7500 		.ascii	"p_u\000"
 4432 01fc 0D       		.byte	0xd
 4433 01fd 3101     		.2byte	0x131
 4434 01ff 17070000 		.4byte	0x717
 4435 0203 20       		.byte	0x20
 4436 0204 0C       		.uleb128 0xc
 4437 0205 160A0000 		.4byte	.LASF42
 4438 0209 0D       		.byte	0xd
 4439 020a 3601     		.2byte	0x136
 4440 020c 71020000 		.4byte	0x271
 4441 0210 24       		.byte	0x24
 4442 0211 0C       		.uleb128 0xc
 4443 0212 4C000000 		.4byte	.LASF43
 4444 0216 0D       		.byte	0xd
 4445 0217 3C01     		.2byte	0x13c
 4446 0219 95020000 		.4byte	0x295
 4447 021d 28       		.byte	0x28
 4448 021e 0C       		.uleb128 0xc
 4449 021f 97110000 		.4byte	.LASF44
 4450 0223 0D       		.byte	0xd
 4451 0224 4001     		.2byte	0x140
 4452 0226 3C010000 		.4byte	0x13c
 4453 022a 30       		.byte	0x30
 4454 022b 0C       		.uleb128 0xc
 4455 022c F8060000 		.4byte	.LASF45
 4456 0230 0D       		.byte	0xd
 4457 0231 4601     		.2byte	0x146
 4458 0233 47010000 		.4byte	0x147
 4459 0237 34       		.byte	0x34
 4460 0238 0C       		.uleb128 0xc
 4461 0239 30030000 		.4byte	.LASF46
 4462 023d 0D       		.byte	0xd
 4463 023e 4D01     		.2byte	0x14d
 4464 0240 D6070000 		.4byte	0x7d6
 4465 0244 38       		.byte	0x38
 4466 0245 0C       		.uleb128 0xc
 4467 0246 830B0000 		.4byte	.LASF47
 4468 024a 0D       		.byte	0xd
 4469 024b 5101     		.2byte	0x151
 4470 024d 31010000 		.4byte	0x131
 4471 0251 3C       		.byte	0x3c
 4472 0252 0C       		.uleb128 0xc
 4473 0253 8D0A0000 		.4byte	.LASF48
 4474 0257 0D       		.byte	0xd
 4475 0258 5801     		.2byte	0x158
 4476 025a B0000000 		.4byte	0xb0
 4477 025e 40       		.byte	0x40
 4478 025f 00       		.byte	0
 4479 0260 03       		.uleb128 0x3
 4480 0261 700B0000 		.4byte	.LASF49
 4481 0265 0C       		.byte	0xc
 4482 0266 44       		.byte	0x44
 4483 0267 6B020000 		.4byte	0x26b
 4484 026b 06       		.uleb128 0x6
 4485 026c 04       		.byte	0x4
ARM GAS  /tmp/cciPs3oN.s 			page 81


 4486 026d 68010000 		.4byte	0x168
 4487 0271 03       		.uleb128 0x3
 4488 0272 C60F0000 		.4byte	.LASF50
 4489 0276 0C       		.byte	0xc
 4490 0277 49       		.byte	0x49
 4491 0278 7C020000 		.4byte	0x27c
 4492 027c 09       		.uleb128 0x9
 4493 027d AA080000 		.4byte	.LASF52
 4494 0281 04       		.byte	0x4
 4495 0282 0D       		.byte	0xd
 4496 0283 B0       		.byte	0xb0
 4497 0284 95020000 		.4byte	0x295
 4498 0288 0A       		.uleb128 0xa
 4499 0289 E4020000 		.4byte	.LASF32
 4500 028d 0D       		.byte	0xd
 4501 028e B1       		.byte	0xb1
 4502 028f 6B020000 		.4byte	0x26b
 4503 0293 00       		.byte	0
 4504 0294 00       		.byte	0
 4505 0295 03       		.uleb128 0x3
 4506 0296 20030000 		.4byte	.LASF53
 4507 029a 0C       		.byte	0xc
 4508 029b 50       		.byte	0x50
 4509 029c A0020000 		.4byte	0x2a0
 4510 02a0 09       		.uleb128 0x9
 4511 02a1 A00C0000 		.4byte	.LASF54
 4512 02a5 08       		.byte	0x8
 4513 02a6 0D       		.byte	0xd
 4514 02a7 B7       		.byte	0xb7
 4515 02a8 C5020000 		.4byte	0x2c5
 4516 02ac 0A       		.uleb128 0xa
 4517 02ad E4020000 		.4byte	.LASF32
 4518 02b1 0D       		.byte	0xd
 4519 02b2 B8       		.byte	0xb8
 4520 02b3 6B020000 		.4byte	0x26b
 4521 02b7 00       		.byte	0
 4522 02b8 0A       		.uleb128 0xa
 4523 02b9 FF020000 		.4byte	.LASF33
 4524 02bd 0D       		.byte	0xd
 4525 02be B9       		.byte	0xb9
 4526 02bf 6B020000 		.4byte	0x26b
 4527 02c3 04       		.byte	0x4
 4528 02c4 00       		.byte	0
 4529 02c5 03       		.uleb128 0x3
 4530 02c6 7D080000 		.4byte	.LASF55
 4531 02ca 0C       		.byte	0xc
 4532 02cb 57       		.byte	0x57
 4533 02cc D0020000 		.4byte	0x2d0
 4534 02d0 0D       		.uleb128 0xd
 4535 02d1 15070000 		.4byte	.LASF56
 4536 02d5 1C       		.byte	0x1c
 4537 02d6 0D       		.byte	0xd
 4538 02d7 9001     		.2byte	0x190
 4539 02d9 2C030000 		.4byte	0x32c
 4540 02dd 0C       		.uleb128 0xc
 4541 02de 6B0D0000 		.4byte	.LASF57
 4542 02e2 0D       		.byte	0xd
ARM GAS  /tmp/cciPs3oN.s 			page 82


 4543 02e3 9101     		.2byte	0x191
 4544 02e5 95020000 		.4byte	0x295
 4545 02e9 00       		.byte	0
 4546 02ea 0C       		.uleb128 0xc
 4547 02eb E00E0000 		.4byte	.LASF58
 4548 02ef 0D       		.byte	0xd
 4549 02f0 9201     		.2byte	0x192
 4550 02f2 31010000 		.4byte	0x131
 4551 02f6 08       		.byte	0x8
 4552 02f7 0C       		.uleb128 0xc
 4553 02f8 57000000 		.4byte	.LASF59
 4554 02fc 0D       		.byte	0xd
 4555 02fd 9401     		.2byte	0x194
 4556 02ff 5D060000 		.4byte	0x65d
 4557 0303 0C       		.byte	0xc
 4558 0304 0C       		.uleb128 0xc
 4559 0305 BE040000 		.4byte	.LASF60
 4560 0309 0D       		.byte	0xd
 4561 030a 9701     		.2byte	0x197
 4562 030c 6B020000 		.4byte	0x26b
 4563 0310 10       		.byte	0x10
 4564 0311 0C       		.uleb128 0xc
 4565 0312 090E0000 		.4byte	.LASF61
 4566 0316 0D       		.byte	0xd
 4567 0317 9801     		.2byte	0x198
 4568 0319 6B020000 		.4byte	0x26b
 4569 031d 14       		.byte	0x14
 4570 031e 0C       		.uleb128 0xc
 4571 031f F30C0000 		.4byte	.LASF62
 4572 0323 0D       		.byte	0xd
 4573 0324 9B01     		.2byte	0x19b
 4574 0326 6B020000 		.4byte	0x26b
 4575 032a 18       		.byte	0x18
 4576 032b 00       		.byte	0
 4577 032c 03       		.uleb128 0x3
 4578 032d 8B000000 		.4byte	.LASF63
 4579 0331 0C       		.byte	0xc
 4580 0332 5C       		.byte	0x5c
 4581 0333 37030000 		.4byte	0x337
 4582 0337 06       		.uleb128 0x6
 4583 0338 04       		.byte	0x4
 4584 0339 3D030000 		.4byte	0x33d
 4585 033d 0E       		.uleb128 0xe
 4586 033e 48030000 		.4byte	0x348
 4587 0342 0F       		.uleb128 0xf
 4588 0343 B0000000 		.4byte	0xb0
 4589 0347 00       		.byte	0
 4590 0348 03       		.uleb128 0x3
 4591 0349 6D080000 		.4byte	.LASF64
 4592 034d 0C       		.byte	0xc
 4593 034e 61       		.byte	0x61
 4594 034f 53030000 		.4byte	0x353
 4595 0353 0D       		.uleb128 0xd
 4596 0354 DF0B0000 		.4byte	.LASF65
 4597 0358 14       		.byte	0x14
 4598 0359 0D       		.byte	0xd
 4599 035a 6B01     		.2byte	0x16b
ARM GAS  /tmp/cciPs3oN.s 			page 83


 4600 035c A2030000 		.4byte	0x3a2
 4601 0360 0C       		.uleb128 0xc
 4602 0361 9B090000 		.4byte	.LASF66
 4603 0365 0D       		.byte	0xd
 4604 0366 6C01     		.2byte	0x16c
 4605 0368 DC070000 		.4byte	0x7dc
 4606 036c 00       		.byte	0
 4607 036d 0C       		.uleb128 0xc
 4608 036e AB090000 		.4byte	.LASF67
 4609 0372 0D       		.byte	0xd
 4610 0373 6D01     		.2byte	0x16d
 4611 0375 DC070000 		.4byte	0x7dc
 4612 0379 04       		.byte	0x4
 4613 037a 0C       		.uleb128 0xc
 4614 037b CD0B0000 		.4byte	.LASF68
 4615 037f 0D       		.byte	0xd
 4616 0380 6E01     		.2byte	0x16e
 4617 0382 5D010000 		.4byte	0x15d
 4618 0386 08       		.byte	0x8
 4619 0387 0C       		.uleb128 0xc
 4620 0388 B3060000 		.4byte	.LASF69
 4621 038c 0D       		.byte	0xd
 4622 038d 6F01     		.2byte	0x16f
 4623 038f 2C030000 		.4byte	0x32c
 4624 0393 0C       		.byte	0xc
 4625 0394 0C       		.uleb128 0xc
 4626 0395 5B020000 		.4byte	.LASF70
 4627 0399 0D       		.byte	0xd
 4628 039a 7101     		.2byte	0x171
 4629 039c B0000000 		.4byte	0xb0
 4630 03a0 10       		.byte	0x10
 4631 03a1 00       		.byte	0
 4632 03a2 03       		.uleb128 0x3
 4633 03a3 36080000 		.4byte	.LASF71
 4634 03a7 0C       		.byte	0xc
 4635 03a8 66       		.byte	0x66
 4636 03a9 AD030000 		.4byte	0x3ad
 4637 03ad 0D       		.uleb128 0xd
 4638 03ae 9B000000 		.4byte	.LASF72
 4639 03b2 10       		.byte	0x10
 4640 03b3 0D       		.byte	0xd
 4641 03b4 7B01     		.2byte	0x17b
 4642 03b6 EF030000 		.4byte	0x3ef
 4643 03ba 0C       		.uleb128 0xc
 4644 03bb 9B090000 		.4byte	.LASF66
 4645 03bf 0D       		.byte	0xd
 4646 03c0 7C01     		.2byte	0x17c
 4647 03c2 DC070000 		.4byte	0x7dc
 4648 03c6 00       		.byte	0
 4649 03c7 0C       		.uleb128 0xc
 4650 03c8 AB090000 		.4byte	.LASF67
 4651 03cc 0D       		.byte	0xd
 4652 03cd 7E01     		.2byte	0x17e
 4653 03cf DC070000 		.4byte	0x7dc
 4654 03d3 04       		.byte	0x4
 4655 03d4 0C       		.uleb128 0xc
 4656 03d5 CD0B0000 		.4byte	.LASF68
ARM GAS  /tmp/cciPs3oN.s 			page 84


 4657 03d9 0D       		.byte	0xd
 4658 03da 8001     		.2byte	0x180
 4659 03dc 5D010000 		.4byte	0x15d
 4660 03e0 08       		.byte	0x8
 4661 03e1 0C       		.uleb128 0xc
 4662 03e2 4A100000 		.4byte	.LASF73
 4663 03e6 0D       		.byte	0xd
 4664 03e7 8801     		.2byte	0x188
 4665 03e9 5D010000 		.4byte	0x15d
 4666 03ed 0C       		.byte	0xc
 4667 03ee 00       		.byte	0
 4668 03ef 03       		.uleb128 0x3
 4669 03f0 D5040000 		.4byte	.LASF74
 4670 03f4 0C       		.byte	0xc
 4671 03f5 6B       		.byte	0x6b
 4672 03f6 FA030000 		.4byte	0x3fa
 4673 03fa 0D       		.uleb128 0xd
 4674 03fb E70E0000 		.4byte	.LASF75
 4675 03ff 04       		.byte	0x4
 4676 0400 0D       		.byte	0xd
 4677 0401 A201     		.2byte	0x1a2
 4678 0403 15040000 		.4byte	0x415
 4679 0407 0C       		.uleb128 0xc
 4680 0408 A6040000 		.4byte	.LASF76
 4681 040c 0D       		.byte	0xd
 4682 040d AA01     		.2byte	0x1aa
 4683 040f E2070000 		.4byte	0x7e2
 4684 0413 00       		.byte	0
 4685 0414 00       		.byte	0
 4686 0415 03       		.uleb128 0x3
 4687 0416 80100000 		.4byte	.LASF77
 4688 041a 0C       		.byte	0xc
 4689 041b 70       		.byte	0x70
 4690 041c 20040000 		.4byte	0x420
 4691 0420 10       		.uleb128 0x10
 4692 0421 ED0F0000 		.4byte	.LASF78
 4693 0425 5001     		.2byte	0x150
 4694 0427 0D       		.byte	0xd
 4695 0428 C201     		.2byte	0x1c2
 4696 042a 7C040000 		.4byte	0x47c
 4697 042e 0C       		.uleb128 0xc
 4698 042f 970D0000 		.4byte	.LASF79
 4699 0433 0D       		.byte	0xd
 4700 0434 C601     		.2byte	0x1c6
 4701 0436 C5020000 		.4byte	0x2c5
 4702 043a 00       		.byte	0
 4703 043b 0C       		.uleb128 0xc
 4704 043c 870F0000 		.4byte	.LASF80
 4705 0440 0D       		.byte	0xd
 4706 0441 CA01     		.2byte	0x1ca
 4707 0443 A2030000 		.4byte	0x3a2
 4708 0447 1C       		.byte	0x1c
 4709 0448 0B       		.uleb128 0xb
 4710 0449 64626700 		.ascii	"dbg\000"
 4711 044d 0D       		.byte	0xd
 4712 044e CE01     		.2byte	0x1ce
 4713 0450 EF030000 		.4byte	0x3ef
ARM GAS  /tmp/cciPs3oN.s 			page 85


 4714 0454 2C       		.byte	0x2c
 4715 0455 0C       		.uleb128 0xc
 4716 0456 0B0D0000 		.4byte	.LASF81
 4717 045a 0D       		.byte	0xd
 4718 045b D201     		.2byte	0x1d2
 4719 045d 68010000 		.4byte	0x168
 4720 0461 30       		.byte	0x30
 4721 0462 0B       		.uleb128 0xb
 4722 0463 746D00   		.ascii	"tm\000"
 4723 0466 0D       		.byte	0xd
 4724 0467 D701     		.2byte	0x1d7
 4725 0469 0C070000 		.4byte	0x70c
 4726 046d 74       		.byte	0x74
 4727 046e 0C       		.uleb128 0xc
 4728 046f 380A0000 		.4byte	.LASF82
 4729 0473 0D       		.byte	0xd
 4730 0474 E301     		.2byte	0x1e3
 4731 0476 E7070000 		.4byte	0x7e7
 4732 047a 78       		.byte	0x78
 4733 047b 00       		.byte	0
 4734 047c 11       		.uleb128 0x11
 4735 047d E5000000 		.4byte	0xe5
 4736 0481 8C040000 		.4byte	0x48c
 4737 0485 12       		.uleb128 0x12
 4738 0486 A9000000 		.4byte	0xa9
 4739 048a 01       		.byte	0x1
 4740 048b 00       		.byte	0
 4741 048c 11       		.uleb128 0x11
 4742 048d E5000000 		.4byte	0xe5
 4743 0491 9C040000 		.4byte	0x49c
 4744 0495 12       		.uleb128 0x12
 4745 0496 A9000000 		.4byte	0xa9
 4746 049a 0E       		.byte	0xe
 4747 049b 00       		.byte	0
 4748 049c 13       		.uleb128 0x13
 4749 049d 88       		.byte	0x88
 4750 049e 0E       		.byte	0xe
 4751 049f 6702     		.2byte	0x267
 4752 04a1 2B060000 		.4byte	0x62b
 4753 04a5 0B       		.uleb128 0xb
 4754 04a6 435200   		.ascii	"CR\000"
 4755 04a9 0E       		.byte	0xe
 4756 04aa 6902     		.2byte	0x269
 4757 04ac 00010000 		.4byte	0x100
 4758 04b0 00       		.byte	0
 4759 04b1 0C       		.uleb128 0xc
 4760 04b2 E7080000 		.4byte	.LASF83
 4761 04b6 0E       		.byte	0xe
 4762 04b7 6A02     		.2byte	0x26a
 4763 04b9 00010000 		.4byte	0x100
 4764 04bd 04       		.byte	0x4
 4765 04be 0C       		.uleb128 0xc
 4766 04bf 2B070000 		.4byte	.LASF84
 4767 04c3 0E       		.byte	0xe
 4768 04c4 6B02     		.2byte	0x26b
 4769 04c6 00010000 		.4byte	0x100
 4770 04ca 08       		.byte	0x8
ARM GAS  /tmp/cciPs3oN.s 			page 86


 4771 04cb 0B       		.uleb128 0xb
 4772 04cc 43495200 		.ascii	"CIR\000"
 4773 04d0 0E       		.byte	0xe
 4774 04d1 6C02     		.2byte	0x26c
 4775 04d3 00010000 		.4byte	0x100
 4776 04d7 0C       		.byte	0xc
 4777 04d8 0C       		.uleb128 0xc
 4778 04d9 62050000 		.4byte	.LASF85
 4779 04dd 0E       		.byte	0xe
 4780 04de 6D02     		.2byte	0x26d
 4781 04e0 00010000 		.4byte	0x100
 4782 04e4 10       		.byte	0x10
 4783 04e5 0C       		.uleb128 0xc
 4784 04e6 220E0000 		.4byte	.LASF86
 4785 04ea 0E       		.byte	0xe
 4786 04eb 6E02     		.2byte	0x26e
 4787 04ed 00010000 		.4byte	0x100
 4788 04f1 14       		.byte	0x14
 4789 04f2 0C       		.uleb128 0xc
 4790 04f3 5E0B0000 		.4byte	.LASF87
 4791 04f7 0E       		.byte	0xe
 4792 04f8 6F02     		.2byte	0x26f
 4793 04fa 00010000 		.4byte	0x100
 4794 04fe 18       		.byte	0x18
 4795 04ff 0C       		.uleb128 0xc
 4796 0500 5C040000 		.4byte	.LASF88
 4797 0504 0E       		.byte	0xe
 4798 0505 7002     		.2byte	0x270
 4799 0507 E5000000 		.4byte	0xe5
 4800 050b 1C       		.byte	0x1c
 4801 050c 0C       		.uleb128 0xc
 4802 050d D60B0000 		.4byte	.LASF89
 4803 0511 0E       		.byte	0xe
 4804 0512 7102     		.2byte	0x271
 4805 0514 00010000 		.4byte	0x100
 4806 0518 20       		.byte	0x20
 4807 0519 0C       		.uleb128 0xc
 4808 051a BC090000 		.4byte	.LASF90
 4809 051e 0E       		.byte	0xe
 4810 051f 7202     		.2byte	0x272
 4811 0521 00010000 		.4byte	0x100
 4812 0525 24       		.byte	0x24
 4813 0526 0C       		.uleb128 0xc
 4814 0527 66040000 		.4byte	.LASF91
 4815 052b 0E       		.byte	0xe
 4816 052c 7302     		.2byte	0x273
 4817 052e 7C040000 		.4byte	0x47c
 4818 0532 28       		.byte	0x28
 4819 0533 0C       		.uleb128 0xc
 4820 0534 B90D0000 		.4byte	.LASF92
 4821 0538 0E       		.byte	0xe
 4822 0539 7402     		.2byte	0x274
 4823 053b 00010000 		.4byte	0x100
 4824 053f 30       		.byte	0x30
 4825 0540 0C       		.uleb128 0xc
 4826 0541 8C050000 		.4byte	.LASF93
 4827 0545 0E       		.byte	0xe
ARM GAS  /tmp/cciPs3oN.s 			page 87


 4828 0546 7502     		.2byte	0x275
 4829 0548 00010000 		.4byte	0x100
 4830 054c 34       		.byte	0x34
 4831 054d 0C       		.uleb128 0xc
 4832 054e EF0D0000 		.4byte	.LASF94
 4833 0552 0E       		.byte	0xe
 4834 0553 7602     		.2byte	0x276
 4835 0555 00010000 		.4byte	0x100
 4836 0559 38       		.byte	0x38
 4837 055a 0C       		.uleb128 0xc
 4838 055b 1C050000 		.4byte	.LASF95
 4839 055f 0E       		.byte	0xe
 4840 0560 7702     		.2byte	0x277
 4841 0562 E5000000 		.4byte	0xe5
 4842 0566 3C       		.byte	0x3c
 4843 0567 0C       		.uleb128 0xc
 4844 0568 F00B0000 		.4byte	.LASF96
 4845 056c 0E       		.byte	0xe
 4846 056d 7802     		.2byte	0x278
 4847 056f 00010000 		.4byte	0x100
 4848 0573 40       		.byte	0x40
 4849 0574 0C       		.uleb128 0xc
 4850 0575 A2030000 		.4byte	.LASF97
 4851 0579 0E       		.byte	0xe
 4852 057a 7902     		.2byte	0x279
 4853 057c 00010000 		.4byte	0x100
 4854 0580 44       		.byte	0x44
 4855 0581 0C       		.uleb128 0xc
 4856 0582 7E040000 		.4byte	.LASF98
 4857 0586 0E       		.byte	0xe
 4858 0587 7A02     		.2byte	0x27a
 4859 0589 7C040000 		.4byte	0x47c
 4860 058d 48       		.byte	0x48
 4861 058e 0C       		.uleb128 0xc
 4862 058f B3030000 		.4byte	.LASF99
 4863 0593 0E       		.byte	0xe
 4864 0594 7B02     		.2byte	0x27b
 4865 0596 00010000 		.4byte	0x100
 4866 059a 50       		.byte	0x50
 4867 059b 0C       		.uleb128 0xc
 4868 059c 89020000 		.4byte	.LASF100
 4869 05a0 0E       		.byte	0xe
 4870 05a1 7C02     		.2byte	0x27c
 4871 05a3 00010000 		.4byte	0x100
 4872 05a7 54       		.byte	0x54
 4873 05a8 0C       		.uleb128 0xc
 4874 05a9 1F0D0000 		.4byte	.LASF101
 4875 05ad 0E       		.byte	0xe
 4876 05ae 7D02     		.2byte	0x27d
 4877 05b0 00010000 		.4byte	0x100
 4878 05b4 58       		.byte	0x58
 4879 05b5 0C       		.uleb128 0xc
 4880 05b6 88040000 		.4byte	.LASF102
 4881 05ba 0E       		.byte	0xe
 4882 05bb 7E02     		.2byte	0x27e
 4883 05bd E5000000 		.4byte	0xe5
 4884 05c1 5C       		.byte	0x5c
ARM GAS  /tmp/cciPs3oN.s 			page 88


 4885 05c2 0C       		.uleb128 0xc
 4886 05c3 F60A0000 		.4byte	.LASF103
 4887 05c7 0E       		.byte	0xe
 4888 05c8 7F02     		.2byte	0x27f
 4889 05ca 00010000 		.4byte	0x100
 4890 05ce 60       		.byte	0x60
 4891 05cf 0C       		.uleb128 0xc
 4892 05d0 FD090000 		.4byte	.LASF104
 4893 05d4 0E       		.byte	0xe
 4894 05d5 8002     		.2byte	0x280
 4895 05d7 00010000 		.4byte	0x100
 4896 05db 64       		.byte	0x64
 4897 05dc 0C       		.uleb128 0xc
 4898 05dd 92040000 		.4byte	.LASF105
 4899 05e1 0E       		.byte	0xe
 4900 05e2 8102     		.2byte	0x281
 4901 05e4 7C040000 		.4byte	0x47c
 4902 05e8 68       		.byte	0x68
 4903 05e9 0C       		.uleb128 0xc
 4904 05ea 92060000 		.4byte	.LASF106
 4905 05ee 0E       		.byte	0xe
 4906 05ef 8202     		.2byte	0x282
 4907 05f1 00010000 		.4byte	0x100
 4908 05f5 70       		.byte	0x70
 4909 05f6 0B       		.uleb128 0xb
 4910 05f7 43535200 		.ascii	"CSR\000"
 4911 05fb 0E       		.byte	0xe
 4912 05fc 8302     		.2byte	0x283
 4913 05fe 00010000 		.4byte	0x100
 4914 0602 74       		.byte	0x74
 4915 0603 0C       		.uleb128 0xc
 4916 0604 9C040000 		.4byte	.LASF107
 4917 0608 0E       		.byte	0xe
 4918 0609 8402     		.2byte	0x284
 4919 060b 7C040000 		.4byte	0x47c
 4920 060f 78       		.byte	0x78
 4921 0610 0C       		.uleb128 0xc
 4922 0611 95090000 		.4byte	.LASF108
 4923 0615 0E       		.byte	0xe
 4924 0616 8502     		.2byte	0x285
 4925 0618 00010000 		.4byte	0x100
 4926 061c 80       		.byte	0x80
 4927 061d 0C       		.uleb128 0xc
 4928 061e 33000000 		.4byte	.LASF109
 4929 0622 0E       		.byte	0xe
 4930 0623 8602     		.2byte	0x286
 4931 0625 00010000 		.4byte	0x100
 4932 0629 84       		.byte	0x84
 4933 062a 00       		.byte	0
 4934 062b 14       		.uleb128 0x14
 4935 062c 530E0000 		.4byte	.LASF110
 4936 0630 0E       		.byte	0xe
 4937 0631 8802     		.2byte	0x288
 4938 0633 9C040000 		.4byte	0x49c
 4939 0637 11       		.uleb128 0x11
 4940 0638 E5000000 		.4byte	0xe5
 4941 063c 47060000 		.4byte	0x647
ARM GAS  /tmp/cciPs3oN.s 			page 89


 4942 0640 12       		.uleb128 0x12
 4943 0641 A9000000 		.4byte	0xa9
 4944 0645 2F       		.byte	0x2f
 4945 0646 00       		.byte	0
 4946 0647 03       		.uleb128 0x3
 4947 0648 5B030000 		.4byte	.LASF111
 4948 064c 0F       		.byte	0xf
 4949 064d 65       		.byte	0x65
 4950 064e B0000000 		.4byte	0xb0
 4951 0652 03       		.uleb128 0x3
 4952 0653 D7050000 		.4byte	.LASF112
 4953 0657 0F       		.byte	0xf
 4954 0658 6D       		.byte	0x6d
 4955 0659 F0000000 		.4byte	0xf0
 4956 065d 09       		.uleb128 0x9
 4957 065e 2A040000 		.4byte	.LASF113
 4958 0662 04       		.byte	0x4
 4959 0663 0F       		.byte	0xf
 4960 0664 89       		.byte	0x89
 4961 0665 76060000 		.4byte	0x676
 4962 0669 15       		.uleb128 0x15
 4963 066a 72313300 		.ascii	"r13\000"
 4964 066e 0F       		.byte	0xf
 4965 066f 8A       		.byte	0x8a
 4966 0670 F1060000 		.4byte	0x6f1
 4967 0674 00       		.byte	0
 4968 0675 00       		.byte	0
 4969 0676 09       		.uleb128 0x9
 4970 0677 A20B0000 		.4byte	.LASF114
 4971 067b 24       		.byte	0x24
 4972 067c 01       		.byte	0x1
 4973 067d FD       		.byte	0xfd
 4974 067e F1060000 		.4byte	0x6f1
 4975 0682 0B       		.uleb128 0xb
 4976 0683 723400   		.ascii	"r4\000"
 4977 0686 01       		.byte	0x1
 4978 0687 1001     		.2byte	0x110
 4979 0689 47060000 		.4byte	0x647
 4980 068d 00       		.byte	0
 4981 068e 0B       		.uleb128 0xb
 4982 068f 723500   		.ascii	"r5\000"
 4983 0692 01       		.byte	0x1
 4984 0693 1101     		.2byte	0x111
 4985 0695 47060000 		.4byte	0x647
 4986 0699 04       		.byte	0x4
 4987 069a 0B       		.uleb128 0xb
 4988 069b 723600   		.ascii	"r6\000"
 4989 069e 01       		.byte	0x1
 4990 069f 1201     		.2byte	0x112
 4991 06a1 47060000 		.4byte	0x647
 4992 06a5 08       		.byte	0x8
 4993 06a6 0B       		.uleb128 0xb
 4994 06a7 723700   		.ascii	"r7\000"
 4995 06aa 01       		.byte	0x1
 4996 06ab 1301     		.2byte	0x113
 4997 06ad 47060000 		.4byte	0x647
 4998 06b1 0C       		.byte	0xc
ARM GAS  /tmp/cciPs3oN.s 			page 90


 4999 06b2 0B       		.uleb128 0xb
 5000 06b3 723800   		.ascii	"r8\000"
 5001 06b6 01       		.byte	0x1
 5002 06b7 1401     		.2byte	0x114
 5003 06b9 47060000 		.4byte	0x647
 5004 06bd 10       		.byte	0x10
 5005 06be 0B       		.uleb128 0xb
 5006 06bf 723900   		.ascii	"r9\000"
 5007 06c2 01       		.byte	0x1
 5008 06c3 1501     		.2byte	0x115
 5009 06c5 47060000 		.4byte	0x647
 5010 06c9 14       		.byte	0x14
 5011 06ca 0B       		.uleb128 0xb
 5012 06cb 72313000 		.ascii	"r10\000"
 5013 06cf 01       		.byte	0x1
 5014 06d0 1601     		.2byte	0x116
 5015 06d2 47060000 		.4byte	0x647
 5016 06d6 18       		.byte	0x18
 5017 06d7 0B       		.uleb128 0xb
 5018 06d8 72313100 		.ascii	"r11\000"
 5019 06dc 01       		.byte	0x1
 5020 06dd 1701     		.2byte	0x117
 5021 06df 47060000 		.4byte	0x647
 5022 06e3 1C       		.byte	0x1c
 5023 06e4 0B       		.uleb128 0xb
 5024 06e5 6C7200   		.ascii	"lr\000"
 5025 06e8 01       		.byte	0x1
 5026 06e9 1801     		.2byte	0x118
 5027 06eb 47060000 		.4byte	0x647
 5028 06ef 20       		.byte	0x20
 5029 06f0 00       		.byte	0
 5030 06f1 06       		.uleb128 0x6
 5031 06f2 04       		.byte	0x4
 5032 06f3 76060000 		.4byte	0x676
 5033 06f7 16       		.uleb128 0x16
 5034 06f8 04       		.byte	0x4
 5035 06f9 10       		.byte	0x10
 5036 06fa 38       		.byte	0x38
 5037 06fb 0C070000 		.4byte	0x70c
 5038 06ff 0A       		.uleb128 0xa
 5039 0700 EF0A0000 		.4byte	.LASF115
 5040 0704 10       		.byte	0x10
 5041 0705 3C       		.byte	0x3c
 5042 0706 05010000 		.4byte	0x105
 5043 070a 00       		.byte	0
 5044 070b 00       		.byte	0
 5045 070c 03       		.uleb128 0x3
 5046 070d 110E0000 		.4byte	.LASF116
 5047 0711 10       		.byte	0x10
 5048 0712 3D       		.byte	0x3d
 5049 0713 F7060000 		.4byte	0x6f7
 5050 0717 17       		.uleb128 0x17
 5051 0718 04       		.byte	0x4
 5052 0719 0D       		.byte	0xd
 5053 071a FA       		.byte	0xfa
 5054 071b 74070000 		.4byte	0x774
 5055 071f 18       		.uleb128 0x18
ARM GAS  /tmp/cciPs3oN.s 			page 91


 5056 0720 43100000 		.4byte	.LASF117
 5057 0724 0D       		.byte	0xd
 5058 0725 0101     		.2byte	0x101
 5059 0727 3C010000 		.4byte	0x13c
 5060 072b 18       		.uleb128 0x18
 5061 072c 62020000 		.4byte	.LASF118
 5062 0730 0D       		.byte	0xd
 5063 0731 0801     		.2byte	0x108
 5064 0733 3C010000 		.4byte	0x13c
 5065 0737 18       		.uleb128 0x18
 5066 0738 A5050000 		.4byte	.LASF119
 5067 073c 0D       		.byte	0xd
 5068 073d 0F01     		.2byte	0x10f
 5069 073f B0000000 		.4byte	0xb0
 5070 0743 18       		.uleb128 0x18
 5071 0744 43040000 		.4byte	.LASF120
 5072 0748 0D       		.byte	0xd
 5073 0749 1601     		.2byte	0x116
 5074 074b 74070000 		.4byte	0x774
 5075 074f 18       		.uleb128 0x18
 5076 0750 22000000 		.4byte	.LASF121
 5077 0754 0D       		.byte	0xd
 5078 0755 1E01     		.2byte	0x11e
 5079 0757 9F070000 		.4byte	0x79f
 5080 075b 18       		.uleb128 0x18
 5081 075c 03070000 		.4byte	.LASF122
 5082 0760 0D       		.byte	0xd
 5083 0761 2701     		.2byte	0x127
 5084 0763 D6070000 		.4byte	0x7d6
 5085 0767 18       		.uleb128 0x18
 5086 0768 E4030000 		.4byte	.LASF123
 5087 076c 0D       		.byte	0xd
 5088 076d 2F01     		.2byte	0x12f
 5089 076f 47010000 		.4byte	0x147
 5090 0773 00       		.byte	0
 5091 0774 06       		.uleb128 0x6
 5092 0775 04       		.byte	0x4
 5093 0776 60020000 		.4byte	0x260
 5094 077a 09       		.uleb128 0x9
 5095 077b F5070000 		.4byte	.LASF124
 5096 077f 0C       		.byte	0xc
 5097 0780 11       		.byte	0x11
 5098 0781 34       		.byte	0x34
 5099 0782 9F070000 		.4byte	0x79f
 5100 0786 0A       		.uleb128 0xa
 5101 0787 4B0E0000 		.4byte	.LASF125
 5102 078b 11       		.byte	0x11
 5103 078c 35       		.byte	0x35
 5104 078d 95020000 		.4byte	0x295
 5105 0791 00       		.byte	0
 5106 0792 0A       		.uleb128 0xa
 5107 0793 F80B0000 		.4byte	.LASF126
 5108 0797 11       		.byte	0x11
 5109 0798 37       		.byte	0x37
 5110 0799 52010000 		.4byte	0x152
 5111 079d 08       		.byte	0x8
 5112 079e 00       		.byte	0
ARM GAS  /tmp/cciPs3oN.s 			page 92


 5113 079f 06       		.uleb128 0x6
 5114 07a0 04       		.byte	0x4
 5115 07a1 7A070000 		.4byte	0x77a
 5116 07a5 09       		.uleb128 0x9
 5117 07a6 8C0E0000 		.4byte	.LASF127
 5118 07aa 10       		.byte	0x10
 5119 07ab 12       		.byte	0x12
 5120 07ac 39       		.byte	0x39
 5121 07ad D6070000 		.4byte	0x7d6
 5122 07b1 0A       		.uleb128 0xa
 5123 07b2 7A090000 		.4byte	.LASF128
 5124 07b6 12       		.byte	0x12
 5125 07b7 3A       		.byte	0x3a
 5126 07b8 95020000 		.4byte	0x295
 5127 07bc 00       		.byte	0
 5128 07bd 0A       		.uleb128 0xa
 5129 07be 53020000 		.4byte	.LASF129
 5130 07c2 12       		.byte	0x12
 5131 07c3 3C       		.byte	0x3c
 5132 07c4 6B020000 		.4byte	0x26b
 5133 07c8 08       		.byte	0x8
 5134 07c9 0A       		.uleb128 0xa
 5135 07ca 47110000 		.4byte	.LASF130
 5136 07ce 12       		.byte	0x12
 5137 07cf 3E       		.byte	0x3e
 5138 07d0 02080000 		.4byte	0x802
 5139 07d4 0C       		.byte	0xc
 5140 07d5 00       		.byte	0
 5141 07d6 06       		.uleb128 0x6
 5142 07d7 04       		.byte	0x4
 5143 07d8 A5070000 		.4byte	0x7a5
 5144 07dc 06       		.uleb128 0x6
 5145 07dd 04       		.byte	0x4
 5146 07de 48030000 		.4byte	0x348
 5147 07e2 08       		.uleb128 0x8
 5148 07e3 B9000000 		.4byte	0xb9
 5149 07e7 11       		.uleb128 0x11
 5150 07e8 52060000 		.4byte	0x652
 5151 07ec F7070000 		.4byte	0x7f7
 5152 07f0 12       		.uleb128 0x12
 5153 07f1 A9000000 		.4byte	0xa9
 5154 07f5 1A       		.byte	0x1a
 5155 07f6 00       		.byte	0
 5156 07f7 03       		.uleb128 0x3
 5157 07f8 B60F0000 		.4byte	.LASF131
 5158 07fc 12       		.byte	0x12
 5159 07fd 34       		.byte	0x34
 5160 07fe A5070000 		.4byte	0x7a5
 5161 0802 06       		.uleb128 0x6
 5162 0803 04       		.byte	0x4
 5163 0804 F7070000 		.4byte	0x7f7
 5164 0808 03       		.uleb128 0x3
 5165 0809 2F0F0000 		.4byte	.LASF132
 5166 080d 13       		.byte	0x13
 5167 080e 3F       		.byte	0x3f
 5168 080f 13080000 		.4byte	0x813
 5169 0813 09       		.uleb128 0x9
ARM GAS  /tmp/cciPs3oN.s 			page 93


 5170 0814 AA030000 		.4byte	.LASF133
 5171 0818 24       		.byte	0x24
 5172 0819 13       		.byte	0x13
 5173 081a 4D       		.byte	0x4d
 5174 081b 80080000 		.4byte	0x880
 5175 081f 0A       		.uleb128 0xa
 5176 0820 8D0D0000 		.4byte	.LASF134
 5177 0824 13       		.byte	0x13
 5178 0825 4E       		.byte	0x4e
 5179 0826 95020000 		.4byte	0x295
 5180 082a 00       		.byte	0
 5181 082b 0A       		.uleb128 0xa
 5182 082c 80070000 		.4byte	.LASF135
 5183 0830 13       		.byte	0x13
 5184 0831 4F       		.byte	0x4f
 5185 0832 A2080000 		.4byte	0x8a2
 5186 0836 08       		.byte	0x8
 5187 0837 0A       		.uleb128 0xa
 5188 0838 A1020000 		.4byte	.LASF136
 5189 083c 13       		.byte	0x13
 5190 083d 50       		.byte	0x50
 5191 083e A7080000 		.4byte	0x8a7
 5192 0842 0C       		.byte	0xc
 5193 0843 0A       		.uleb128 0xa
 5194 0844 83020000 		.4byte	.LASF137
 5195 0848 13       		.byte	0x13
 5196 0849 51       		.byte	0x51
 5197 084a A7080000 		.4byte	0x8a7
 5198 084e 10       		.byte	0x10
 5199 084f 0A       		.uleb128 0xa
 5200 0850 8A080000 		.4byte	.LASF138
 5201 0854 13       		.byte	0x13
 5202 0855 53       		.byte	0x53
 5203 0856 A7080000 		.4byte	0x8a7
 5204 085a 14       		.byte	0x14
 5205 085b 0A       		.uleb128 0xa
 5206 085c F7020000 		.4byte	.LASF139
 5207 0860 13       		.byte	0x13
 5208 0861 54       		.byte	0x54
 5209 0862 A7080000 		.4byte	0x8a7
 5210 0866 18       		.byte	0x18
 5211 0867 0A       		.uleb128 0xa
 5212 0868 C5020000 		.4byte	.LASF140
 5213 086c 13       		.byte	0x13
 5214 086d 55       		.byte	0x55
 5215 086e 80080000 		.4byte	0x880
 5216 0872 1C       		.byte	0x1c
 5217 0873 0A       		.uleb128 0xa
 5218 0874 D1030000 		.4byte	.LASF141
 5219 0878 13       		.byte	0x13
 5220 0879 56       		.byte	0x56
 5221 087a B0000000 		.4byte	0xb0
 5222 087e 20       		.byte	0x20
 5223 087f 00       		.byte	0
 5224 0880 03       		.uleb128 0x3
 5225 0881 0C0A0000 		.4byte	.LASF142
 5226 0885 13       		.byte	0x13
ARM GAS  /tmp/cciPs3oN.s 			page 94


 5227 0886 42       		.byte	0x42
 5228 0887 8B080000 		.4byte	0x88b
 5229 088b 06       		.uleb128 0x6
 5230 088c 04       		.byte	0x4
 5231 088d 91080000 		.4byte	0x891
 5232 0891 0E       		.uleb128 0xe
 5233 0892 9C080000 		.4byte	0x89c
 5234 0896 0F       		.uleb128 0xf
 5235 0897 9C080000 		.4byte	0x89c
 5236 089b 00       		.byte	0
 5237 089c 06       		.uleb128 0x6
 5238 089d 04       		.byte	0x4
 5239 089e 08080000 		.4byte	0x808
 5240 08a2 08       		.uleb128 0x8
 5241 08a3 28000000 		.4byte	0x28
 5242 08a7 06       		.uleb128 0x6
 5243 08a8 04       		.byte	0x4
 5244 08a9 C4000000 		.4byte	0xc4
 5245 08ad 03       		.uleb128 0x3
 5246 08ae 1E100000 		.4byte	.LASF143
 5247 08b2 13       		.byte	0x13
 5248 08b3 64       		.byte	0x64
 5249 08b4 08080000 		.4byte	0x808
 5250 08b8 03       		.uleb128 0x3
 5251 08b9 B4100000 		.4byte	.LASF144
 5252 08bd 13       		.byte	0x13
 5253 08be 71       		.byte	0x71
 5254 08bf 08080000 		.4byte	0x808
 5255 08c3 06       		.uleb128 0x6
 5256 08c4 04       		.byte	0x4
 5257 08c5 C9080000 		.4byte	0x8c9
 5258 08c9 07       		.uleb128 0x7
 5259 08ca C4000000 		.4byte	0xc4
 5260 08ce 06       		.uleb128 0x6
 5261 08cf 04       		.byte	0x4
 5262 08d0 00010000 		.4byte	0x100
 5263 08d4 04       		.uleb128 0x4
 5264 08d5 01       		.byte	0x1
 5265 08d6 02       		.byte	0x2
 5266 08d7 03050000 		.4byte	.LASF145
 5267 08db 03       		.uleb128 0x3
 5268 08dc 94050000 		.4byte	.LASF146
 5269 08e0 14       		.byte	0x14
 5270 08e1 FA       		.byte	0xfa
 5271 08e2 E6080000 		.4byte	0x8e6
 5272 08e6 10       		.uleb128 0x10
 5273 08e7 94050000 		.4byte	.LASF146
 5274 08eb B001     		.2byte	0x1b0
 5275 08ed 15       		.byte	0x15
 5276 08ee 8001     		.2byte	0x180
 5277 08f0 120A0000 		.4byte	0xa12
 5278 08f4 0C       		.uleb128 0xc
 5279 08f5 E4010000 		.4byte	.LASF147
 5280 08f9 15       		.byte	0x15
 5281 08fa 8401     		.2byte	0x184
 5282 08fc 450A0000 		.4byte	0xa45
 5283 0900 00       		.byte	0
ARM GAS  /tmp/cciPs3oN.s 			page 95


 5284 0901 0C       		.uleb128 0xc
 5285 0902 DD010000 		.4byte	.LASF148
 5286 0906 15       		.byte	0x15
 5287 0907 8801     		.2byte	0x188
 5288 0909 7E130000 		.4byte	0x137e
 5289 090d 04       		.byte	0x4
 5290 090e 0C       		.uleb128 0xc
 5291 090f 17060000 		.4byte	.LASF149
 5292 0913 15       		.byte	0x15
 5293 0914 8C01     		.2byte	0x18c
 5294 0916 CF000000 		.4byte	0xcf
 5295 091a 08       		.byte	0x8
 5296 091b 0C       		.uleb128 0xc
 5297 091c 77050000 		.4byte	.LASF150
 5298 0920 15       		.byte	0x15
 5299 0921 9001     		.2byte	0x190
 5300 0923 CF000000 		.4byte	0xcf
 5301 0927 0A       		.byte	0xa
 5302 0928 0B       		.uleb128 0xb
 5303 0929 65706300 		.ascii	"epc\000"
 5304 092d 15       		.byte	0x15
 5305 092e 9401     		.2byte	0x194
 5306 0930 89130000 		.4byte	0x1389
 5307 0934 0C       		.byte	0xc
 5308 0935 0C       		.uleb128 0xc
 5309 0936 E50D0000 		.4byte	.LASF151
 5310 093a 15       		.byte	0x15
 5311 093b 9B01     		.2byte	0x19b
 5312 093d A4130000 		.4byte	0x13a4
 5313 0941 1C       		.byte	0x1c
 5314 0942 0C       		.uleb128 0xc
 5315 0943 C3100000 		.4byte	.LASF152
 5316 0947 15       		.byte	0x15
 5317 0948 A201     		.2byte	0x1a2
 5318 094a A4130000 		.4byte	0x13a4
 5319 094e 28       		.byte	0x28
 5320 094f 0C       		.uleb128 0xc
 5321 0950 CC040000 		.4byte	.LASF153
 5322 0954 15       		.byte	0x15
 5323 0955 A601     		.2byte	0x1a6
 5324 0957 AD0A0000 		.4byte	0xaad
 5325 095b 34       		.byte	0x34
 5326 095c 0C       		.uleb128 0xc
 5327 095d A3090000 		.4byte	.LASF154
 5328 0961 15       		.byte	0x15
 5329 0962 AA01     		.2byte	0x1aa
 5330 0964 A7080000 		.4byte	0x8a7
 5331 0968 38       		.byte	0x38
 5332 0969 0C       		.uleb128 0xc
 5333 096a 5D050000 		.4byte	.LASF155
 5334 096e 15       		.byte	0x15
 5335 096f AE01     		.2byte	0x1ae
 5336 0971 28000000 		.4byte	0x28
 5337 0975 3C       		.byte	0x3c
 5338 0976 0C       		.uleb128 0xc
 5339 0977 02080000 		.4byte	.LASF156
 5340 097b 15       		.byte	0x15
ARM GAS  /tmp/cciPs3oN.s 			page 96


 5341 097c B201     		.2byte	0x1b2
 5342 097e 230B0000 		.4byte	0xb23
 5343 0982 40       		.byte	0x40
 5344 0983 0C       		.uleb128 0xc
 5345 0984 DC060000 		.4byte	.LASF157
 5346 0988 15       		.byte	0x15
 5347 0989 B601     		.2byte	0x1b6
 5348 098b B4130000 		.4byte	0x13b4
 5349 098f 44       		.byte	0x44
 5350 0990 0C       		.uleb128 0xc
 5351 0991 E6070000 		.4byte	.LASF158
 5352 0995 15       		.byte	0x15
 5353 0996 BA01     		.2byte	0x1ba
 5354 0998 CF000000 		.4byte	0xcf
 5355 099c 4C       		.byte	0x4c
 5356 099d 0C       		.uleb128 0xc
 5357 099e ED070000 		.4byte	.LASF159
 5358 09a2 15       		.byte	0x15
 5359 09a3 BE01     		.2byte	0x1be
 5360 09a5 C4000000 		.4byte	0xc4
 5361 09a9 4E       		.byte	0x4e
 5362 09aa 0C       		.uleb128 0xc
 5363 09ab 3D070000 		.4byte	.LASF160
 5364 09af 15       		.byte	0x15
 5365 09b0 C201     		.2byte	0x1c2
 5366 09b2 C4000000 		.4byte	0xc4
 5367 09b6 4F       		.byte	0x4f
 5368 09b7 0B       		.uleb128 0xb
 5369 09b8 6F746700 		.ascii	"otg\000"
 5370 09bc 15       		.byte	0x15
 5371 09bd CA01     		.2byte	0x1ca
 5372 09bf C4130000 		.4byte	0x13c4
 5373 09c3 50       		.byte	0x50
 5374 09c4 0C       		.uleb128 0xc
 5375 09c5 AE0B0000 		.4byte	.LASF161
 5376 09c9 15       		.byte	0x15
 5377 09ca CE01     		.2byte	0x1ce
 5378 09cc CA130000 		.4byte	0x13ca
 5379 09d0 54       		.byte	0x54
 5380 09d1 0C       		.uleb128 0xc
 5381 09d2 4E110000 		.4byte	.LASF162
 5382 09d6 15       		.byte	0x15
 5383 09d7 D201     		.2byte	0x1d2
 5384 09d9 E5000000 		.4byte	0xe5
 5385 09dd 58       		.byte	0x58
 5386 09de 0C       		.uleb128 0xc
 5387 09df 830A0000 		.4byte	.LASF163
 5388 09e3 15       		.byte	0x15
 5389 09e4 D601     		.2byte	0x1d6
 5390 09e6 E5000000 		.4byte	0xe5
 5391 09ea 5C       		.byte	0x5c
 5392 09eb 0C       		.uleb128 0xc
 5393 09ec 070A0000 		.4byte	.LASF164
 5394 09f0 15       		.byte	0x15
 5395 09f1 DA01     		.2byte	0x1da
 5396 09f3 60020000 		.4byte	0x260
 5397 09f7 60       		.byte	0x60
ARM GAS  /tmp/cciPs3oN.s 			page 97


 5398 09f8 0B       		.uleb128 0xb
 5399 09f9 747200   		.ascii	"tr\000"
 5400 09fc 15       		.byte	0x15
 5401 09fd DF01     		.2byte	0x1df
 5402 09ff 60020000 		.4byte	0x260
 5403 0a03 64       		.byte	0x64
 5404 0a04 0C       		.uleb128 0xc
 5405 0a05 DD0D0000 		.4byte	.LASF165
 5406 0a09 15       		.byte	0x15
 5407 0a0a E301     		.2byte	0x1e3
 5408 0a0c D5130000 		.4byte	0x13d5
 5409 0a10 68       		.byte	0x68
 5410 0a11 00       		.byte	0
 5411 0a12 03       		.uleb128 0x3
 5412 0a13 16100000 		.4byte	.LASF166
 5413 0a17 14       		.byte	0x14
 5414 0a18 FF       		.byte	0xff
 5415 0a19 C4000000 		.4byte	0xc4
 5416 0a1d 19       		.uleb128 0x19
 5417 0a1e 01       		.byte	0x1
 5418 0a1f 14       		.byte	0x14
 5419 0a20 0401     		.2byte	0x104
 5420 0a22 450A0000 		.4byte	0xa45
 5421 0a26 1A       		.uleb128 0x1a
 5422 0a27 A2060000 		.4byte	.LASF167
 5423 0a2b 00       		.sleb128 0
 5424 0a2c 1A       		.uleb128 0x1a
 5425 0a2d 090B0000 		.4byte	.LASF168
 5426 0a31 01       		.sleb128 1
 5427 0a32 1A       		.uleb128 0x1a
 5428 0a33 70090000 		.4byte	.LASF169
 5429 0a37 02       		.sleb128 2
 5430 0a38 1A       		.uleb128 0x1a
 5431 0a39 30070000 		.4byte	.LASF170
 5432 0a3d 03       		.sleb128 3
 5433 0a3e 1A       		.uleb128 0x1a
 5434 0a3f F2010000 		.4byte	.LASF171
 5435 0a43 04       		.sleb128 4
 5436 0a44 00       		.byte	0
 5437 0a45 14       		.uleb128 0x14
 5438 0a46 9F080000 		.4byte	.LASF172
 5439 0a4a 14       		.byte	0x14
 5440 0a4b 0A01     		.2byte	0x10a
 5441 0a4d 1D0A0000 		.4byte	0xa1d
 5442 0a51 19       		.uleb128 0x19
 5443 0a52 01       		.byte	0x1
 5444 0a53 14       		.byte	0x14
 5445 0a54 0F01     		.2byte	0x10f
 5446 0a56 6D0A0000 		.4byte	0xa6d
 5447 0a5a 1A       		.uleb128 0x1a
 5448 0a5b CE100000 		.4byte	.LASF173
 5449 0a5f 00       		.sleb128 0
 5450 0a60 1A       		.uleb128 0x1a
 5451 0a61 53070000 		.4byte	.LASF174
 5452 0a65 01       		.sleb128 1
 5453 0a66 1A       		.uleb128 0x1a
 5454 0a67 05040000 		.4byte	.LASF175
ARM GAS  /tmp/cciPs3oN.s 			page 98


 5455 0a6b 02       		.sleb128 2
 5456 0a6c 00       		.byte	0
 5457 0a6d 14       		.uleb128 0x14
 5458 0a6e 93020000 		.4byte	.LASF176
 5459 0a72 14       		.byte	0x14
 5460 0a73 1301     		.2byte	0x113
 5461 0a75 510A0000 		.4byte	0xa51
 5462 0a79 19       		.uleb128 0x19
 5463 0a7a 01       		.byte	0x1
 5464 0a7b 14       		.byte	0x14
 5465 0a7c 1801     		.2byte	0x118
 5466 0a7e AD0A0000 		.4byte	0xaad
 5467 0a82 1A       		.uleb128 0x1a
 5468 0a83 84030000 		.4byte	.LASF177
 5469 0a87 00       		.sleb128 0
 5470 0a88 1A       		.uleb128 0x1a
 5471 0a89 EA000000 		.4byte	.LASF178
 5472 0a8d 01       		.sleb128 1
 5473 0a8e 1A       		.uleb128 0x1a
 5474 0a8f 8E0B0000 		.4byte	.LASF179
 5475 0a93 02       		.sleb128 2
 5476 0a94 1A       		.uleb128 0x1a
 5477 0a95 27110000 		.4byte	.LASF180
 5478 0a99 03       		.sleb128 3
 5479 0a9a 1A       		.uleb128 0x1a
 5480 0a9b 74110000 		.4byte	.LASF181
 5481 0a9f 04       		.sleb128 4
 5482 0aa0 1A       		.uleb128 0x1a
 5483 0aa1 FB100000 		.4byte	.LASF182
 5484 0aa5 05       		.sleb128 5
 5485 0aa6 1A       		.uleb128 0x1a
 5486 0aa7 C8080000 		.4byte	.LASF183
 5487 0aab 06       		.sleb128 6
 5488 0aac 00       		.byte	0
 5489 0aad 14       		.uleb128 0x14
 5490 0aae 6B020000 		.4byte	.LASF184
 5491 0ab2 14       		.byte	0x14
 5492 0ab3 2001     		.2byte	0x120
 5493 0ab5 790A0000 		.4byte	0xa79
 5494 0ab9 19       		.uleb128 0x19
 5495 0aba 01       		.byte	0x1
 5496 0abb 14       		.byte	0x14
 5497 0abc 2501     		.2byte	0x125
 5498 0abe E70A0000 		.4byte	0xae7
 5499 0ac2 1A       		.uleb128 0x1a
 5500 0ac3 950E0000 		.4byte	.LASF185
 5501 0ac7 00       		.sleb128 0
 5502 0ac8 1A       		.uleb128 0x1a
 5503 0ac9 AA020000 		.4byte	.LASF186
 5504 0acd 01       		.sleb128 1
 5505 0ace 1A       		.uleb128 0x1a
 5506 0acf 730D0000 		.4byte	.LASF187
 5507 0ad3 02       		.sleb128 2
 5508 0ad4 1A       		.uleb128 0x1a
 5509 0ad5 9D100000 		.4byte	.LASF188
 5510 0ad9 03       		.sleb128 3
 5511 0ada 1A       		.uleb128 0x1a
ARM GAS  /tmp/cciPs3oN.s 			page 99


 5512 0adb 21090000 		.4byte	.LASF189
 5513 0adf 04       		.sleb128 4
 5514 0ae0 1A       		.uleb128 0x1a
 5515 0ae1 F3030000 		.4byte	.LASF190
 5516 0ae5 05       		.sleb128 5
 5517 0ae6 00       		.byte	0
 5518 0ae7 14       		.uleb128 0x14
 5519 0ae8 0A070000 		.4byte	.LASF191
 5520 0aec 14       		.byte	0x14
 5521 0aed 2C01     		.2byte	0x12c
 5522 0aef B90A0000 		.4byte	0xab9
 5523 0af3 13       		.uleb128 0x13
 5524 0af4 08       		.byte	0x8
 5525 0af5 14       		.byte	0x14
 5526 0af6 3101     		.2byte	0x131
 5527 0af8 170B0000 		.4byte	0xb17
 5528 0afc 0C       		.uleb128 0xc
 5529 0afd 23070000 		.4byte	.LASF192
 5530 0b01 14       		.byte	0x14
 5531 0b02 3501     		.2byte	0x135
 5532 0b04 28000000 		.4byte	0x28
 5533 0b08 00       		.byte	0
 5534 0b09 0C       		.uleb128 0xc
 5535 0b0a B5050000 		.4byte	.LASF193
 5536 0b0e 14       		.byte	0x14
 5537 0b0f 3901     		.2byte	0x139
 5538 0b11 C3080000 		.4byte	0x8c3
 5539 0b15 04       		.byte	0x4
 5540 0b16 00       		.byte	0
 5541 0b17 14       		.uleb128 0x14
 5542 0b18 BB060000 		.4byte	.LASF194
 5543 0b1c 14       		.byte	0x14
 5544 0b1d 3A01     		.2byte	0x13a
 5545 0b1f F30A0000 		.4byte	0xaf3
 5546 0b23 14       		.uleb128 0x14
 5547 0b24 520F0000 		.4byte	.LASF195
 5548 0b28 14       		.byte	0x14
 5549 0b29 4201     		.2byte	0x142
 5550 0b2b 2F0B0000 		.4byte	0xb2f
 5551 0b2f 06       		.uleb128 0x6
 5552 0b30 04       		.byte	0x4
 5553 0b31 350B0000 		.4byte	0xb35
 5554 0b35 0E       		.uleb128 0xe
 5555 0b36 400B0000 		.4byte	0xb40
 5556 0b3a 0F       		.uleb128 0xf
 5557 0b3b 400B0000 		.4byte	0xb40
 5558 0b3f 00       		.byte	0
 5559 0b40 06       		.uleb128 0x6
 5560 0b41 04       		.byte	0x4
 5561 0b42 DB080000 		.4byte	0x8db
 5562 0b46 14       		.uleb128 0x14
 5563 0b47 CE090000 		.4byte	.LASF196
 5564 0b4b 14       		.byte	0x14
 5565 0b4c 4B01     		.2byte	0x14b
 5566 0b4e 520B0000 		.4byte	0xb52
 5567 0b52 06       		.uleb128 0x6
 5568 0b53 04       		.byte	0x4
ARM GAS  /tmp/cciPs3oN.s 			page 100


 5569 0b54 580B0000 		.4byte	0xb58
 5570 0b58 0E       		.uleb128 0xe
 5571 0b59 680B0000 		.4byte	0xb68
 5572 0b5d 0F       		.uleb128 0xf
 5573 0b5e 400B0000 		.4byte	0xb40
 5574 0b62 0F       		.uleb128 0xf
 5575 0b63 120A0000 		.4byte	0xa12
 5576 0b67 00       		.byte	0
 5577 0b68 14       		.uleb128 0x14
 5578 0b69 E8050000 		.4byte	.LASF197
 5579 0b6d 14       		.byte	0x14
 5580 0b6e 5401     		.2byte	0x154
 5581 0b70 740B0000 		.4byte	0xb74
 5582 0b74 06       		.uleb128 0x6
 5583 0b75 04       		.byte	0x4
 5584 0b76 7A0B0000 		.4byte	0xb7a
 5585 0b7a 0E       		.uleb128 0xe
 5586 0b7b 8A0B0000 		.4byte	0xb8a
 5587 0b7f 0F       		.uleb128 0xf
 5588 0b80 400B0000 		.4byte	0xb40
 5589 0b84 0F       		.uleb128 0xf
 5590 0b85 E70A0000 		.4byte	0xae7
 5591 0b89 00       		.byte	0
 5592 0b8a 14       		.uleb128 0x14
 5593 0b8b 3A0F0000 		.4byte	.LASF198
 5594 0b8f 14       		.byte	0x14
 5595 0b90 6001     		.2byte	0x160
 5596 0b92 960B0000 		.4byte	0xb96
 5597 0b96 06       		.uleb128 0x6
 5598 0b97 04       		.byte	0x4
 5599 0b98 9C0B0000 		.4byte	0xb9c
 5600 0b9c 1B       		.uleb128 0x1b
 5601 0b9d D4080000 		.4byte	0x8d4
 5602 0ba1 AB0B0000 		.4byte	0xbab
 5603 0ba5 0F       		.uleb128 0xf
 5604 0ba6 400B0000 		.4byte	0xb40
 5605 0baa 00       		.byte	0
 5606 0bab 14       		.uleb128 0x14
 5607 0bac CA0D0000 		.4byte	.LASF199
 5608 0bb0 14       		.byte	0x14
 5609 0bb1 6501     		.2byte	0x165
 5610 0bb3 B70B0000 		.4byte	0xbb7
 5611 0bb7 06       		.uleb128 0x6
 5612 0bb8 04       		.byte	0x4
 5613 0bb9 BD0B0000 		.4byte	0xbbd
 5614 0bbd 1B       		.uleb128 0x1b
 5615 0bbe DB0B0000 		.4byte	0xbdb
 5616 0bc2 DB0B0000 		.4byte	0xbdb
 5617 0bc6 0F       		.uleb128 0xf
 5618 0bc7 400B0000 		.4byte	0xb40
 5619 0bcb 0F       		.uleb128 0xf
 5620 0bcc C4000000 		.4byte	0xc4
 5621 0bd0 0F       		.uleb128 0xf
 5622 0bd1 C4000000 		.4byte	0xc4
 5623 0bd5 0F       		.uleb128 0xf
 5624 0bd6 CF000000 		.4byte	0xcf
 5625 0bda 00       		.byte	0
ARM GAS  /tmp/cciPs3oN.s 			page 101


 5626 0bdb 06       		.uleb128 0x6
 5627 0bdc 04       		.byte	0x4
 5628 0bdd E10B0000 		.4byte	0xbe1
 5629 0be1 07       		.uleb128 0x7
 5630 0be2 170B0000 		.4byte	0xb17
 5631 0be6 16       		.uleb128 0x16
 5632 0be7 20       		.byte	0x20
 5633 0be8 16       		.byte	0x16
 5634 0be9 35       		.byte	0x35
 5635 0bea 4F0C0000 		.4byte	0xc4f
 5636 0bee 0A       		.uleb128 0xa
 5637 0bef 2B050000 		.4byte	.LASF200
 5638 0bf3 16       		.byte	0x16
 5639 0bf4 36       		.byte	0x36
 5640 0bf5 00010000 		.4byte	0x100
 5641 0bf9 00       		.byte	0
 5642 0bfa 0A       		.uleb128 0xa
 5643 0bfb 6C000000 		.4byte	.LASF201
 5644 0bff 16       		.byte	0x16
 5645 0c00 38       		.byte	0x38
 5646 0c01 00010000 		.4byte	0x100
 5647 0c05 04       		.byte	0x4
 5648 0c06 0A       		.uleb128 0xa
 5649 0c07 880C0000 		.4byte	.LASF202
 5650 0c0b 16       		.byte	0x16
 5651 0c0c 39       		.byte	0x39
 5652 0c0d 00010000 		.4byte	0x100
 5653 0c11 08       		.byte	0x8
 5654 0c12 0A       		.uleb128 0xa
 5655 0c13 C30C0000 		.4byte	.LASF203
 5656 0c17 16       		.byte	0x16
 5657 0c18 3A       		.byte	0x3a
 5658 0c19 00010000 		.4byte	0x100
 5659 0c1d 0C       		.byte	0xc
 5660 0c1e 0A       		.uleb128 0xa
 5661 0c1f 24060000 		.4byte	.LASF204
 5662 0c23 16       		.byte	0x16
 5663 0c24 3C       		.byte	0x3c
 5664 0c25 00010000 		.4byte	0x100
 5665 0c29 10       		.byte	0x10
 5666 0c2a 0A       		.uleb128 0xa
 5667 0c2b A50E0000 		.4byte	.LASF205
 5668 0c2f 16       		.byte	0x16
 5669 0c30 3E       		.byte	0x3e
 5670 0c31 00010000 		.4byte	0x100
 5671 0c35 14       		.byte	0x14
 5672 0c36 0A       		.uleb128 0xa
 5673 0c37 AD0E0000 		.4byte	.LASF206
 5674 0c3b 16       		.byte	0x16
 5675 0c3c 3F       		.byte	0x3f
 5676 0c3d 00010000 		.4byte	0x100
 5677 0c41 18       		.byte	0x18
 5678 0c42 0A       		.uleb128 0xa
 5679 0c43 270F0000 		.4byte	.LASF207
 5680 0c47 16       		.byte	0x16
 5681 0c48 40       		.byte	0x40
 5682 0c49 00010000 		.4byte	0x100
ARM GAS  /tmp/cciPs3oN.s 			page 102


 5683 0c4d 1C       		.byte	0x1c
 5684 0c4e 00       		.byte	0
 5685 0c4f 03       		.uleb128 0x3
 5686 0c50 02060000 		.4byte	.LASF208
 5687 0c54 16       		.byte	0x16
 5688 0c55 41       		.byte	0x41
 5689 0c56 E60B0000 		.4byte	0xbe6
 5690 0c5a 16       		.uleb128 0x16
 5691 0c5b 20       		.byte	0x20
 5692 0c5c 16       		.byte	0x16
 5693 0c5d 46       		.byte	0x46
 5694 0c5e C30C0000 		.4byte	0xcc3
 5695 0c62 0A       		.uleb128 0xa
 5696 0c63 4A0F0000 		.4byte	.LASF209
 5697 0c67 16       		.byte	0x16
 5698 0c68 47       		.byte	0x47
 5699 0c69 00010000 		.4byte	0x100
 5700 0c6d 00       		.byte	0
 5701 0c6e 0A       		.uleb128 0xa
 5702 0c6f 65000000 		.4byte	.LASF210
 5703 0c73 16       		.byte	0x16
 5704 0c74 49       		.byte	0x49
 5705 0c75 00010000 		.4byte	0x100
 5706 0c79 04       		.byte	0x4
 5707 0c7a 0A       		.uleb128 0xa
 5708 0c7b 9F0F0000 		.4byte	.LASF211
 5709 0c7f 16       		.byte	0x16
 5710 0c80 4A       		.byte	0x4a
 5711 0c81 00010000 		.4byte	0x100
 5712 0c85 08       		.byte	0x8
 5713 0c86 0A       		.uleb128 0xa
 5714 0c87 94000000 		.4byte	.LASF212
 5715 0c8b 16       		.byte	0x16
 5716 0c8c 4C       		.byte	0x4c
 5717 0c8d 00010000 		.4byte	0x100
 5718 0c91 0C       		.byte	0xc
 5719 0c92 0A       		.uleb128 0xa
 5720 0c93 E4040000 		.4byte	.LASF213
 5721 0c97 16       		.byte	0x16
 5722 0c98 4D       		.byte	0x4d
 5723 0c99 00010000 		.4byte	0x100
 5724 0c9d 10       		.byte	0x10
 5725 0c9e 0A       		.uleb128 0xa
 5726 0c9f A50E0000 		.4byte	.LASF205
 5727 0ca3 16       		.byte	0x16
 5728 0ca4 4F       		.byte	0x4f
 5729 0ca5 00010000 		.4byte	0x100
 5730 0ca9 14       		.byte	0x14
 5731 0caa 0A       		.uleb128 0xa
 5732 0cab B50E0000 		.4byte	.LASF214
 5733 0caf 16       		.byte	0x16
 5734 0cb0 50       		.byte	0x50
 5735 0cb1 00010000 		.4byte	0x100
 5736 0cb5 18       		.byte	0x18
 5737 0cb6 0A       		.uleb128 0xa
 5738 0cb7 D00E0000 		.4byte	.LASF215
 5739 0cbb 16       		.byte	0x16
ARM GAS  /tmp/cciPs3oN.s 			page 103


 5740 0cbc 52       		.byte	0x52
 5741 0cbd 00010000 		.4byte	0x100
 5742 0cc1 1C       		.byte	0x1c
 5743 0cc2 00       		.byte	0
 5744 0cc3 03       		.uleb128 0x3
 5745 0cc4 320D0000 		.4byte	.LASF216
 5746 0cc8 16       		.byte	0x16
 5747 0cc9 53       		.byte	0x53
 5748 0cca 5A0C0000 		.4byte	0xc5a
 5749 0cce 16       		.uleb128 0x16
 5750 0ccf 20       		.byte	0x20
 5751 0cd0 16       		.byte	0x16
 5752 0cd1 58       		.byte	0x58
 5753 0cd2 370D0000 		.4byte	0xd37
 5754 0cd6 0A       		.uleb128 0xa
 5755 0cd7 BD030000 		.4byte	.LASF217
 5756 0cdb 16       		.byte	0x16
 5757 0cdc 59       		.byte	0x59
 5758 0cdd 00010000 		.4byte	0x100
 5759 0ce1 00       		.byte	0
 5760 0ce2 0A       		.uleb128 0xa
 5761 0ce3 65000000 		.4byte	.LASF210
 5762 0ce7 16       		.byte	0x16
 5763 0ce8 5B       		.byte	0x5b
 5764 0ce9 00010000 		.4byte	0x100
 5765 0ced 04       		.byte	0x4
 5766 0cee 0A       		.uleb128 0xa
 5767 0cef 16040000 		.4byte	.LASF218
 5768 0cf3 16       		.byte	0x16
 5769 0cf4 5C       		.byte	0x5c
 5770 0cf5 00010000 		.4byte	0x100
 5771 0cf9 08       		.byte	0x8
 5772 0cfa 0A       		.uleb128 0xa
 5773 0cfb 94000000 		.4byte	.LASF212
 5774 0cff 16       		.byte	0x16
 5775 0d00 5E       		.byte	0x5e
 5776 0d01 00010000 		.4byte	0x100
 5777 0d05 0C       		.byte	0xc
 5778 0d06 0A       		.uleb128 0xa
 5779 0d07 2F0A0000 		.4byte	.LASF219
 5780 0d0b 16       		.byte	0x16
 5781 0d0c 5F       		.byte	0x5f
 5782 0d0d 00010000 		.4byte	0x100
 5783 0d11 10       		.byte	0x10
 5784 0d12 0A       		.uleb128 0xa
 5785 0d13 A50E0000 		.4byte	.LASF205
 5786 0d17 16       		.byte	0x16
 5787 0d18 61       		.byte	0x61
 5788 0d19 00010000 		.4byte	0x100
 5789 0d1d 14       		.byte	0x14
 5790 0d1e 0A       		.uleb128 0xa
 5791 0d1f AD0E0000 		.4byte	.LASF206
 5792 0d23 16       		.byte	0x16
 5793 0d24 62       		.byte	0x62
 5794 0d25 00010000 		.4byte	0x100
 5795 0d29 18       		.byte	0x18
 5796 0d2a 0A       		.uleb128 0xa
ARM GAS  /tmp/cciPs3oN.s 			page 104


 5797 0d2b D00E0000 		.4byte	.LASF215
 5798 0d2f 16       		.byte	0x16
 5799 0d30 63       		.byte	0x63
 5800 0d31 00010000 		.4byte	0x100
 5801 0d35 1C       		.byte	0x1c
 5802 0d36 00       		.byte	0
 5803 0d37 03       		.uleb128 0x3
 5804 0d38 45050000 		.4byte	.LASF220
 5805 0d3c 16       		.byte	0x16
 5806 0d3d 64       		.byte	0x64
 5807 0d3e CE0C0000 		.4byte	0xcce
 5808 0d42 1C       		.uleb128 0x1c
 5809 0d43 00100100 		.4byte	0x11000
 5810 0d47 16       		.byte	0x16
 5811 0d48 69       		.byte	0x69
 5812 0d49 1F100000 		.4byte	0x101f
 5813 0d4d 0A       		.uleb128 0xa
 5814 0d4e DF080000 		.4byte	.LASF221
 5815 0d52 16       		.byte	0x16
 5816 0d53 6A       		.byte	0x6a
 5817 0d54 00010000 		.4byte	0x100
 5818 0d58 00       		.byte	0
 5819 0d59 0A       		.uleb128 0xa
 5820 0d5a 5A090000 		.4byte	.LASF222
 5821 0d5e 16       		.byte	0x16
 5822 0d5f 6B       		.byte	0x6b
 5823 0d60 00010000 		.4byte	0x100
 5824 0d64 04       		.byte	0x4
 5825 0d65 0A       		.uleb128 0xa
 5826 0d66 2E080000 		.4byte	.LASF223
 5827 0d6a 16       		.byte	0x16
 5828 0d6b 6C       		.byte	0x6c
 5829 0d6c 00010000 		.4byte	0x100
 5830 0d70 08       		.byte	0x8
 5831 0d71 0A       		.uleb128 0xa
 5832 0d72 6C110000 		.4byte	.LASF224
 5833 0d76 16       		.byte	0x16
 5834 0d77 6D       		.byte	0x6d
 5835 0d78 00010000 		.4byte	0x100
 5836 0d7c 0C       		.byte	0xc
 5837 0d7d 0A       		.uleb128 0xa
 5838 0d7e 600F0000 		.4byte	.LASF225
 5839 0d82 16       		.byte	0x16
 5840 0d83 6E       		.byte	0x6e
 5841 0d84 00010000 		.4byte	0x100
 5842 0d88 10       		.byte	0x10
 5843 0d89 0A       		.uleb128 0xa
 5844 0d8a 680F0000 		.4byte	.LASF226
 5845 0d8e 16       		.byte	0x16
 5846 0d8f 6F       		.byte	0x6f
 5847 0d90 00010000 		.4byte	0x100
 5848 0d94 14       		.byte	0x14
 5849 0d95 0A       		.uleb128 0xa
 5850 0d96 1D0B0000 		.4byte	.LASF227
 5851 0d9a 16       		.byte	0x16
 5852 0d9b 70       		.byte	0x70
 5853 0d9c 00010000 		.4byte	0x100
ARM GAS  /tmp/cciPs3oN.s 			page 105


 5854 0da0 18       		.byte	0x18
 5855 0da1 0A       		.uleb128 0xa
 5856 0da2 19090000 		.4byte	.LASF228
 5857 0da6 16       		.byte	0x16
 5858 0da7 71       		.byte	0x71
 5859 0da8 00010000 		.4byte	0x100
 5860 0dac 1C       		.byte	0x1c
 5861 0dad 0A       		.uleb128 0xa
 5862 0dae 08090000 		.4byte	.LASF229
 5863 0db2 16       		.byte	0x16
 5864 0db3 73       		.byte	0x73
 5865 0db4 00010000 		.4byte	0x100
 5866 0db8 20       		.byte	0x20
 5867 0db9 0A       		.uleb128 0xa
 5868 0dba 4B070000 		.4byte	.LASF230
 5869 0dbe 16       		.byte	0x16
 5870 0dbf 75       		.byte	0x75
 5871 0dc0 00010000 		.4byte	0x100
 5872 0dc4 24       		.byte	0x24
 5873 0dc5 0A       		.uleb128 0xa
 5874 0dc6 BC020000 		.4byte	.LASF231
 5875 0dca 16       		.byte	0x16
 5876 0dcb 76       		.byte	0x76
 5877 0dcc 00010000 		.4byte	0x100
 5878 0dd0 28       		.byte	0x28
 5879 0dd1 0A       		.uleb128 0xa
 5880 0dd2 A70F0000 		.4byte	.LASF232
 5881 0dd6 16       		.byte	0x16
 5882 0dd7 78       		.byte	0x78
 5883 0dd8 00010000 		.4byte	0x100
 5884 0ddc 2C       		.byte	0x2c
 5885 0ddd 0A       		.uleb128 0xa
 5886 0dde E50F0000 		.4byte	.LASF233
 5887 0de2 16       		.byte	0x16
 5888 0de3 7A       		.byte	0x7a
 5889 0de4 00010000 		.4byte	0x100
 5890 0de8 30       		.byte	0x30
 5891 0de9 0A       		.uleb128 0xa
 5892 0dea F70F0000 		.4byte	.LASF234
 5893 0dee 16       		.byte	0x16
 5894 0def 7B       		.byte	0x7b
 5895 0df0 00010000 		.4byte	0x100
 5896 0df4 34       		.byte	0x34
 5897 0df5 0A       		.uleb128 0xa
 5898 0df6 C6040000 		.4byte	.LASF235
 5899 0dfa 16       		.byte	0x16
 5900 0dfb 7C       		.byte	0x7c
 5901 0dfc 00010000 		.4byte	0x100
 5902 0e00 38       		.byte	0x38
 5903 0e01 15       		.uleb128 0x15
 5904 0e02 43494400 		.ascii	"CID\000"
 5905 0e06 16       		.byte	0x16
 5906 0e07 7D       		.byte	0x7d
 5907 0e08 00010000 		.4byte	0x100
 5908 0e0c 3C       		.byte	0x3c
 5909 0e0d 0A       		.uleb128 0xa
 5910 0e0e F3100000 		.4byte	.LASF236
ARM GAS  /tmp/cciPs3oN.s 			page 106


 5911 0e12 16       		.byte	0x16
 5912 0e13 7E       		.byte	0x7e
 5913 0e14 1F100000 		.4byte	0x101f
 5914 0e18 40       		.byte	0x40
 5915 0e19 1D       		.uleb128 0x1d
 5916 0e1a 480C0000 		.4byte	.LASF237
 5917 0e1e 16       		.byte	0x16
 5918 0e1f 7F       		.byte	0x7f
 5919 0e20 00010000 		.4byte	0x100
 5920 0e24 0001     		.2byte	0x100
 5921 0e26 1D       		.uleb128 0x1d
 5922 0e27 B6070000 		.4byte	.LASF238
 5923 0e2b 16       		.byte	0x16
 5924 0e2c 81       		.byte	0x81
 5925 0e2d 24100000 		.4byte	0x1024
 5926 0e31 0401     		.2byte	0x104
 5927 0e33 1D       		.uleb128 0x1d
 5928 0e34 7F110000 		.4byte	.LASF239
 5929 0e38 16       		.byte	0x16
 5930 0e39 83       		.byte	0x83
 5931 0e3a 39100000 		.4byte	0x1039
 5932 0e3e 4001     		.2byte	0x140
 5933 0e40 1D       		.uleb128 0x1d
 5934 0e41 26050000 		.4byte	.LASF240
 5935 0e45 16       		.byte	0x16
 5936 0e46 84       		.byte	0x84
 5937 0e47 00010000 		.4byte	0x100
 5938 0e4b 0004     		.2byte	0x400
 5939 0e4d 1D       		.uleb128 0x1d
 5940 0e4e 22110000 		.4byte	.LASF241
 5941 0e52 16       		.byte	0x16
 5942 0e53 85       		.byte	0x85
 5943 0e54 00010000 		.4byte	0x100
 5944 0e58 0404     		.2byte	0x404
 5945 0e5a 1D       		.uleb128 0x1d
 5946 0e5b E2050000 		.4byte	.LASF242
 5947 0e5f 16       		.byte	0x16
 5948 0e60 86       		.byte	0x86
 5949 0e61 00010000 		.4byte	0x100
 5950 0e65 0804     		.2byte	0x408
 5951 0e67 1D       		.uleb128 0x1d
 5952 0e68 D6080000 		.4byte	.LASF243
 5953 0e6c 16       		.byte	0x16
 5954 0e6d 88       		.byte	0x88
 5955 0e6e 00010000 		.4byte	0x100
 5956 0e72 0C04     		.2byte	0x40c
 5957 0e74 1D       		.uleb128 0x1d
 5958 0e75 EB100000 		.4byte	.LASF244
 5959 0e79 16       		.byte	0x16
 5960 0e7a 89       		.byte	0x89
 5961 0e7b 00010000 		.4byte	0x100
 5962 0e7f 1004     		.2byte	0x410
 5963 0e81 1D       		.uleb128 0x1d
 5964 0e82 470A0000 		.4byte	.LASF245
 5965 0e86 16       		.byte	0x16
 5966 0e87 8B       		.byte	0x8b
 5967 0e88 00010000 		.4byte	0x100
ARM GAS  /tmp/cciPs3oN.s 			page 107


 5968 0e8c 1404     		.2byte	0x414
 5969 0e8e 1D       		.uleb128 0x1d
 5970 0e8f 000B0000 		.4byte	.LASF246
 5971 0e93 16       		.byte	0x16
 5972 0e94 8D       		.byte	0x8d
 5973 0e95 00010000 		.4byte	0x100
 5974 0e99 1804     		.2byte	0x418
 5975 0e9b 1D       		.uleb128 0x1d
 5976 0e9c C10D0000 		.4byte	.LASF247
 5977 0ea0 16       		.byte	0x16
 5978 0ea1 8F       		.byte	0x8f
 5979 0ea2 4E100000 		.4byte	0x104e
 5980 0ea6 1C04     		.2byte	0x41c
 5981 0ea8 1D       		.uleb128 0x1d
 5982 0ea9 6B050000 		.4byte	.LASF248
 5983 0ead 16       		.byte	0x16
 5984 0eae 90       		.byte	0x90
 5985 0eaf 00010000 		.4byte	0x100
 5986 0eb3 4004     		.2byte	0x440
 5987 0eb5 1D       		.uleb128 0x1d
 5988 0eb6 D50A0000 		.4byte	.LASF249
 5989 0eba 16       		.byte	0x16
 5990 0ebb 92       		.byte	0x92
 5991 0ebc 63100000 		.4byte	0x1063
 5992 0ec0 4404     		.2byte	0x444
 5993 0ec2 1E       		.uleb128 0x1e
 5994 0ec3 686300   		.ascii	"hc\000"
 5995 0ec6 16       		.byte	0x16
 5996 0ec7 93       		.byte	0x93
 5997 0ec8 68100000 		.4byte	0x1068
 5998 0ecc 0005     		.2byte	0x500
 5999 0ece 1D       		.uleb128 0x1d
 6000 0ecf CE010000 		.4byte	.LASF250
 6001 0ed3 16       		.byte	0x16
 6002 0ed4 94       		.byte	0x94
 6003 0ed5 88100000 		.4byte	0x1088
 6004 0ed9 0007     		.2byte	0x700
 6005 0edb 1D       		.uleb128 0x1d
 6006 0edc B0040000 		.4byte	.LASF251
 6007 0ee0 16       		.byte	0x16
 6008 0ee1 95       		.byte	0x95
 6009 0ee2 00010000 		.4byte	0x100
 6010 0ee6 0008     		.2byte	0x800
 6011 0ee8 1D       		.uleb128 0x1d
 6012 0ee9 9B0C0000 		.4byte	.LASF252
 6013 0eed 16       		.byte	0x16
 6014 0eee 96       		.byte	0x96
 6015 0eef 00010000 		.4byte	0x100
 6016 0ef3 0408     		.2byte	0x804
 6017 0ef5 1D       		.uleb128 0x1d
 6018 0ef6 69100000 		.4byte	.LASF253
 6019 0efa 16       		.byte	0x16
 6020 0efb 97       		.byte	0x97
 6021 0efc 00010000 		.4byte	0x100
 6022 0f00 0808     		.2byte	0x808
 6023 0f02 1D       		.uleb128 0x1d
 6024 0f03 89060000 		.4byte	.LASF254
ARM GAS  /tmp/cciPs3oN.s 			page 108


 6025 0f07 16       		.byte	0x16
 6026 0f08 98       		.byte	0x98
 6027 0f09 00010000 		.4byte	0x100
 6028 0f0d 0C08     		.2byte	0x80c
 6029 0f0f 1D       		.uleb128 0x1d
 6030 0f10 D80E0000 		.4byte	.LASF255
 6031 0f14 16       		.byte	0x16
 6032 0f15 99       		.byte	0x99
 6033 0f16 00010000 		.4byte	0x100
 6034 0f1a 1008     		.2byte	0x810
 6035 0f1c 1D       		.uleb128 0x1d
 6036 0f1d 9A030000 		.4byte	.LASF256
 6037 0f21 16       		.byte	0x16
 6038 0f22 9B       		.byte	0x9b
 6039 0f23 00010000 		.4byte	0x100
 6040 0f27 1408     		.2byte	0x814
 6041 0f29 1D       		.uleb128 0x1d
 6042 0f2a 7E030000 		.4byte	.LASF257
 6043 0f2e 16       		.byte	0x16
 6044 0f2f 9D       		.byte	0x9d
 6045 0f30 00010000 		.4byte	0x100
 6046 0f34 1808     		.2byte	0x818
 6047 0f36 1D       		.uleb128 0x1d
 6048 0f37 160D0000 		.4byte	.LASF258
 6049 0f3b 16       		.byte	0x16
 6050 0f3c 9F       		.byte	0x9f
 6051 0f3d 00010000 		.4byte	0x100
 6052 0f41 1C08     		.2byte	0x81c
 6053 0f43 1D       		.uleb128 0x1d
 6054 0f44 77060000 		.4byte	.LASF259
 6055 0f48 16       		.byte	0x16
 6056 0f49 A1       		.byte	0xa1
 6057 0f4a 00010000 		.4byte	0x100
 6058 0f4e 2008     		.2byte	0x820
 6059 0f50 1D       		.uleb128 0x1d
 6060 0f51 80060000 		.4byte	.LASF260
 6061 0f55 16       		.byte	0x16
 6062 0f56 A2       		.byte	0xa2
 6063 0f57 00010000 		.4byte	0x100
 6064 0f5b 2408     		.2byte	0x824
 6065 0f5d 1D       		.uleb128 0x1d
 6066 0f5e 290D0000 		.4byte	.LASF261
 6067 0f62 16       		.byte	0x16
 6068 0f63 A3       		.byte	0xa3
 6069 0f64 00010000 		.4byte	0x100
 6070 0f68 2808     		.2byte	0x828
 6071 0f6a 1D       		.uleb128 0x1d
 6072 0f6b 97060000 		.4byte	.LASF262
 6073 0f6f 16       		.byte	0x16
 6074 0f70 A5       		.byte	0xa5
 6075 0f71 00010000 		.4byte	0x100
 6076 0f75 2C08     		.2byte	0x82c
 6077 0f77 1D       		.uleb128 0x1d
 6078 0f78 B3090000 		.4byte	.LASF263
 6079 0f7c 16       		.byte	0x16
 6080 0f7d A7       		.byte	0xa7
 6081 0f7e 00010000 		.4byte	0x100
ARM GAS  /tmp/cciPs3oN.s 			page 109


 6082 0f82 3008     		.2byte	0x830
 6083 0f84 1D       		.uleb128 0x1d
 6084 0f85 1C0F0000 		.4byte	.LASF264
 6085 0f89 16       		.byte	0x16
 6086 0f8a A8       		.byte	0xa8
 6087 0f8b 00010000 		.4byte	0x100
 6088 0f8f 3408     		.2byte	0x834
 6089 0f91 1D       		.uleb128 0x1d
 6090 0f92 C5090000 		.4byte	.LASF265
 6091 0f96 16       		.byte	0x16
 6092 0f97 AA       		.byte	0xaa
 6093 0f98 00010000 		.4byte	0x100
 6094 0f9c 3808     		.2byte	0x838
 6095 0f9e 1D       		.uleb128 0x1d
 6096 0f9f F4090000 		.4byte	.LASF266
 6097 0fa3 16       		.byte	0x16
 6098 0fa4 AB       		.byte	0xab
 6099 0fa5 00010000 		.4byte	0x100
 6100 0fa9 3C08     		.2byte	0x83c
 6101 0fab 1D       		.uleb128 0x1d
 6102 0fac A2070000 		.4byte	.LASF267
 6103 0fb0 16       		.byte	0x16
 6104 0fb1 AC       		.byte	0xac
 6105 0fb2 9D100000 		.4byte	0x109d
 6106 0fb6 4008     		.2byte	0x840
 6107 0fb8 1D       		.uleb128 0x1d
 6108 0fb9 DE090000 		.4byte	.LASF268
 6109 0fbd 16       		.byte	0x16
 6110 0fbe AD       		.byte	0xad
 6111 0fbf A2100000 		.4byte	0x10a2
 6112 0fc3 8008     		.2byte	0x880
 6113 0fc5 1D       		.uleb128 0x1d
 6114 0fc6 B5040000 		.4byte	.LASF269
 6115 0fca 16       		.byte	0x16
 6116 0fcb AE       		.byte	0xae
 6117 0fcc A7100000 		.4byte	0x10a7
 6118 0fd0 C008     		.2byte	0x8c0
 6119 0fd2 1E       		.uleb128 0x1e
 6120 0fd3 696500   		.ascii	"ie\000"
 6121 0fd6 16       		.byte	0x16
 6122 0fd7 AF       		.byte	0xaf
 6123 0fd8 AC100000 		.4byte	0x10ac
 6124 0fdc 0009     		.2byte	0x900
 6125 0fde 1E       		.uleb128 0x1e
 6126 0fdf 6F6500   		.ascii	"oe\000"
 6127 0fe2 16       		.byte	0x16
 6128 0fe3 B0       		.byte	0xb0
 6129 0fe4 BC100000 		.4byte	0x10bc
 6130 0fe8 000B     		.2byte	0xb00
 6131 0fea 1D       		.uleb128 0x1d
 6132 0feb 280C0000 		.4byte	.LASF270
 6133 0fef 16       		.byte	0x16
 6134 0ff0 B1       		.byte	0xb1
 6135 0ff1 CC100000 		.4byte	0x10cc
 6136 0ff5 000D     		.2byte	0xd00
 6137 0ff7 1D       		.uleb128 0x1d
 6138 0ff8 32090000 		.4byte	.LASF271
ARM GAS  /tmp/cciPs3oN.s 			page 110


 6139 0ffc 16       		.byte	0x16
 6140 0ffd B2       		.byte	0xb2
 6141 0ffe 00010000 		.4byte	0x100
 6142 1002 000E     		.2byte	0xe00
 6143 1004 1D       		.uleb128 0x1d
 6144 1005 DC0F0000 		.4byte	.LASF272
 6145 1009 16       		.byte	0x16
 6146 100a B4       		.byte	0xb4
 6147 100b E1100000 		.4byte	0x10e1
 6148 100f 040E     		.2byte	0xe04
 6149 1011 1D       		.uleb128 0x1d
 6150 1012 880D0000 		.4byte	.LASF273
 6151 1016 16       		.byte	0x16
 6152 1017 B5       		.byte	0xb5
 6153 1018 FD100000 		.4byte	0x10fd
 6154 101c 0010     		.2byte	0x1000
 6155 101e 00       		.byte	0
 6156 101f 08       		.uleb128 0x8
 6157 1020 37060000 		.4byte	0x637
 6158 1024 08       		.uleb128 0x8
 6159 1025 8C040000 		.4byte	0x48c
 6160 1029 11       		.uleb128 0x11
 6161 102a E5000000 		.4byte	0xe5
 6162 102e 39100000 		.4byte	0x1039
 6163 1032 12       		.uleb128 0x12
 6164 1033 A9000000 		.4byte	0xa9
 6165 1037 AF       		.byte	0xaf
 6166 1038 00       		.byte	0
 6167 1039 08       		.uleb128 0x8
 6168 103a 29100000 		.4byte	0x1029
 6169 103e 11       		.uleb128 0x11
 6170 103f E5000000 		.4byte	0xe5
 6171 1043 4E100000 		.4byte	0x104e
 6172 1047 12       		.uleb128 0x12
 6173 1048 A9000000 		.4byte	0xa9
 6174 104c 08       		.byte	0x8
 6175 104d 00       		.byte	0
 6176 104e 08       		.uleb128 0x8
 6177 104f 3E100000 		.4byte	0x103e
 6178 1053 11       		.uleb128 0x11
 6179 1054 E5000000 		.4byte	0xe5
 6180 1058 63100000 		.4byte	0x1063
 6181 105c 12       		.uleb128 0x12
 6182 105d A9000000 		.4byte	0xa9
 6183 1061 2E       		.byte	0x2e
 6184 1062 00       		.byte	0
 6185 1063 08       		.uleb128 0x8
 6186 1064 53100000 		.4byte	0x1053
 6187 1068 11       		.uleb128 0x11
 6188 1069 4F0C0000 		.4byte	0xc4f
 6189 106d 78100000 		.4byte	0x1078
 6190 1071 12       		.uleb128 0x12
 6191 1072 A9000000 		.4byte	0xa9
 6192 1076 0F       		.byte	0xf
 6193 1077 00       		.byte	0
 6194 1078 11       		.uleb128 0x11
 6195 1079 E5000000 		.4byte	0xe5
ARM GAS  /tmp/cciPs3oN.s 			page 111


 6196 107d 88100000 		.4byte	0x1088
 6197 1081 12       		.uleb128 0x12
 6198 1082 A9000000 		.4byte	0xa9
 6199 1086 3F       		.byte	0x3f
 6200 1087 00       		.byte	0
 6201 1088 08       		.uleb128 0x8
 6202 1089 78100000 		.4byte	0x1078
 6203 108d 11       		.uleb128 0x11
 6204 108e E5000000 		.4byte	0xe5
 6205 1092 9D100000 		.4byte	0x109d
 6206 1096 12       		.uleb128 0x12
 6207 1097 A9000000 		.4byte	0xa9
 6208 109b 0F       		.byte	0xf
 6209 109c 00       		.byte	0
 6210 109d 08       		.uleb128 0x8
 6211 109e 8D100000 		.4byte	0x108d
 6212 10a2 08       		.uleb128 0x8
 6213 10a3 8D100000 		.4byte	0x108d
 6214 10a7 08       		.uleb128 0x8
 6215 10a8 8D100000 		.4byte	0x108d
 6216 10ac 11       		.uleb128 0x11
 6217 10ad C30C0000 		.4byte	0xcc3
 6218 10b1 BC100000 		.4byte	0x10bc
 6219 10b5 12       		.uleb128 0x12
 6220 10b6 A9000000 		.4byte	0xa9
 6221 10ba 0F       		.byte	0xf
 6222 10bb 00       		.byte	0
 6223 10bc 11       		.uleb128 0x11
 6224 10bd 370D0000 		.4byte	0xd37
 6225 10c1 CC100000 		.4byte	0x10cc
 6226 10c5 12       		.uleb128 0x12
 6227 10c6 A9000000 		.4byte	0xa9
 6228 10ca 0F       		.byte	0xf
 6229 10cb 00       		.byte	0
 6230 10cc 08       		.uleb128 0x8
 6231 10cd 78100000 		.4byte	0x1078
 6232 10d1 11       		.uleb128 0x11
 6233 10d2 E5000000 		.4byte	0xe5
 6234 10d6 E1100000 		.4byte	0x10e1
 6235 10da 12       		.uleb128 0x12
 6236 10db A9000000 		.4byte	0xa9
 6237 10df 7E       		.byte	0x7e
 6238 10e0 00       		.byte	0
 6239 10e1 08       		.uleb128 0x8
 6240 10e2 D1100000 		.4byte	0x10d1
 6241 10e6 11       		.uleb128 0x11
 6242 10e7 E5000000 		.4byte	0xe5
 6243 10eb FD100000 		.4byte	0x10fd
 6244 10ef 12       		.uleb128 0x12
 6245 10f0 A9000000 		.4byte	0xa9
 6246 10f4 0F       		.byte	0xf
 6247 10f5 1F       		.uleb128 0x1f
 6248 10f6 A9000000 		.4byte	0xa9
 6249 10fa FF03     		.2byte	0x3ff
 6250 10fc 00       		.byte	0
 6251 10fd 08       		.uleb128 0x8
 6252 10fe E6100000 		.4byte	0x10e6
ARM GAS  /tmp/cciPs3oN.s 			page 112


 6253 1102 03       		.uleb128 0x3
 6254 1103 A60A0000 		.4byte	.LASF274
 6255 1107 16       		.byte	0x16
 6256 1108 B6       		.byte	0xb6
 6257 1109 420D0000 		.4byte	0xd42
 6258 110d 16       		.uleb128 0x16
 6259 110e 0C       		.byte	0xc
 6260 110f 15       		.byte	0x15
 6261 1110 CF       		.byte	0xcf
 6262 1111 3A110000 		.4byte	0x113a
 6263 1115 0A       		.uleb128 0xa
 6264 1116 710E0000 		.4byte	.LASF275
 6265 111a 15       		.byte	0x15
 6266 111b D0       		.byte	0xd0
 6267 111c E5000000 		.4byte	0xe5
 6268 1120 00       		.byte	0
 6269 1121 0A       		.uleb128 0xa
 6270 1122 520D0000 		.4byte	.LASF276
 6271 1126 15       		.byte	0x15
 6272 1127 D1       		.byte	0xd1
 6273 1128 E5000000 		.4byte	0xe5
 6274 112c 04       		.byte	0x4
 6275 112d 0A       		.uleb128 0xa
 6276 112e 5F080000 		.4byte	.LASF277
 6277 1132 15       		.byte	0x15
 6278 1133 D2       		.byte	0xd2
 6279 1134 E5000000 		.4byte	0xe5
 6280 1138 08       		.byte	0x8
 6281 1139 00       		.byte	0
 6282 113a 03       		.uleb128 0x3
 6283 113b C9060000 		.4byte	.LASF278
 6284 113f 15       		.byte	0x15
 6285 1140 D3       		.byte	0xd3
 6286 1141 0D110000 		.4byte	0x110d
 6287 1145 16       		.uleb128 0x16
 6288 1146 04       		.byte	0x4
 6289 1147 15       		.byte	0x15
 6290 1148 E6       		.byte	0xe6
 6291 1149 5A110000 		.4byte	0x115a
 6292 114d 0A       		.uleb128 0xa
 6293 114e 3A030000 		.4byte	.LASF279
 6294 1152 15       		.byte	0x15
 6295 1153 EA       		.byte	0xea
 6296 1154 C3080000 		.4byte	0x8c3
 6297 1158 00       		.byte	0
 6298 1159 00       		.byte	0
 6299 115a 16       		.uleb128 0x16
 6300 115b 04       		.byte	0x4
 6301 115c 15       		.byte	0x15
 6302 115d EC       		.byte	0xec
 6303 115e 6F110000 		.4byte	0x116f
 6304 1162 0A       		.uleb128 0xa
 6305 1163 BD0E0000 		.4byte	.LASF280
 6306 1167 15       		.byte	0x15
 6307 1168 F0       		.byte	0xf0
 6308 1169 6F110000 		.4byte	0x116f
 6309 116d 00       		.byte	0
ARM GAS  /tmp/cciPs3oN.s 			page 113


 6310 116e 00       		.byte	0
 6311 116f 06       		.uleb128 0x6
 6312 1170 04       		.byte	0x4
 6313 1171 B8080000 		.4byte	0x8b8
 6314 1175 17       		.uleb128 0x17
 6315 1176 04       		.byte	0x4
 6316 1177 15       		.byte	0x15
 6317 1178 E5       		.byte	0xe5
 6318 1179 94110000 		.4byte	0x1194
 6319 117d 20       		.uleb128 0x20
 6320 117e 8E0C0000 		.4byte	.LASF281
 6321 1182 15       		.byte	0x15
 6322 1183 EB       		.byte	0xeb
 6323 1184 45110000 		.4byte	0x1145
 6324 1188 20       		.uleb128 0x20
 6325 1189 FD0C0000 		.4byte	.LASF282
 6326 118d 15       		.byte	0x15
 6327 118e F1       		.byte	0xf1
 6328 118f 5A110000 		.4byte	0x115a
 6329 1193 00       		.byte	0
 6330 1194 16       		.uleb128 0x16
 6331 1195 14       		.byte	0x14
 6332 1196 15       		.byte	0x15
 6333 1197 D8       		.byte	0xd8
 6334 1198 D9110000 		.4byte	0x11d9
 6335 119c 0A       		.uleb128 0xa
 6336 119d 63110000 		.4byte	.LASF283
 6337 11a1 15       		.byte	0x15
 6338 11a2 DC       		.byte	0xdc
 6339 11a3 D4080000 		.4byte	0x8d4
 6340 11a7 00       		.byte	0
 6341 11a8 0A       		.uleb128 0xa
 6342 11a9 92080000 		.4byte	.LASF284
 6343 11ad 15       		.byte	0x15
 6344 11ae E0       		.byte	0xe0
 6345 11af 28000000 		.4byte	0x28
 6346 11b3 04       		.byte	0x4
 6347 11b4 0A       		.uleb128 0xa
 6348 11b5 7A070000 		.4byte	.LASF285
 6349 11b9 15       		.byte	0x15
 6350 11ba E4       		.byte	0xe4
 6351 11bb 28000000 		.4byte	0x28
 6352 11bf 08       		.byte	0x8
 6353 11c0 0A       		.uleb128 0xa
 6354 11c1 870E0000 		.4byte	.LASF286
 6355 11c5 15       		.byte	0x15
 6356 11c6 F2       		.byte	0xf2
 6357 11c7 75110000 		.4byte	0x1175
 6358 11cb 0C       		.byte	0xc
 6359 11cc 0A       		.uleb128 0xa
 6360 11cd 690E0000 		.4byte	.LASF287
 6361 11d1 15       		.byte	0x15
 6362 11d2 F6       		.byte	0xf6
 6363 11d3 28000000 		.4byte	0x28
 6364 11d7 10       		.byte	0x10
 6365 11d8 00       		.byte	0
 6366 11d9 03       		.uleb128 0x3
ARM GAS  /tmp/cciPs3oN.s 			page 114


 6367 11da 64060000 		.4byte	.LASF288
 6368 11de 15       		.byte	0x15
 6369 11df F7       		.byte	0xf7
 6370 11e0 94110000 		.4byte	0x1194
 6371 11e4 13       		.uleb128 0x13
 6372 11e5 04       		.byte	0x4
 6373 11e6 15       		.byte	0x15
 6374 11e7 0A01     		.2byte	0x10a
 6375 11e9 FB110000 		.4byte	0x11fb
 6376 11ed 0C       		.uleb128 0xc
 6377 11ee 02090000 		.4byte	.LASF289
 6378 11f2 15       		.byte	0x15
 6379 11f3 0E01     		.2byte	0x10e
 6380 11f5 A7080000 		.4byte	0x8a7
 6381 11f9 00       		.byte	0
 6382 11fa 00       		.byte	0
 6383 11fb 13       		.uleb128 0x13
 6384 11fc 04       		.byte	0x4
 6385 11fd 15       		.byte	0x15
 6386 11fe 1001     		.2byte	0x110
 6387 1200 12120000 		.4byte	0x1212
 6388 1204 0C       		.uleb128 0xc
 6389 1205 030D0000 		.4byte	.LASF290
 6390 1209 15       		.byte	0x15
 6391 120a 1401     		.2byte	0x114
 6392 120c 12120000 		.4byte	0x1212
 6393 1210 00       		.byte	0
 6394 1211 00       		.byte	0
 6395 1212 06       		.uleb128 0x6
 6396 1213 04       		.byte	0x4
 6397 1214 AD080000 		.4byte	0x8ad
 6398 1218 21       		.uleb128 0x21
 6399 1219 04       		.byte	0x4
 6400 121a 15       		.byte	0x15
 6401 121b 0901     		.2byte	0x109
 6402 121d 3A120000 		.4byte	0x123a
 6403 1221 18       		.uleb128 0x18
 6404 1222 8E0C0000 		.4byte	.LASF281
 6405 1226 15       		.byte	0x15
 6406 1227 0F01     		.2byte	0x10f
 6407 1229 E4110000 		.4byte	0x11e4
 6408 122d 18       		.uleb128 0x18
 6409 122e FD0C0000 		.4byte	.LASF282
 6410 1232 15       		.byte	0x15
 6411 1233 1501     		.2byte	0x115
 6412 1235 FB110000 		.4byte	0x11fb
 6413 1239 00       		.byte	0
 6414 123a 16       		.uleb128 0x16
 6415 123b 14       		.byte	0x14
 6416 123c 15       		.byte	0x15
 6417 123d FC       		.byte	0xfc
 6418 123e 84120000 		.4byte	0x1284
 6419 1242 0C       		.uleb128 0xc
 6420 1243 D20C0000 		.4byte	.LASF291
 6421 1247 15       		.byte	0x15
 6422 1248 0001     		.2byte	0x100
 6423 124a D4080000 		.4byte	0x8d4
ARM GAS  /tmp/cciPs3oN.s 			page 115


 6424 124e 00       		.byte	0
 6425 124f 0C       		.uleb128 0xc
 6426 1250 32040000 		.4byte	.LASF292
 6427 1254 15       		.byte	0x15
 6428 1255 0401     		.2byte	0x104
 6429 1257 28000000 		.4byte	0x28
 6430 125b 04       		.byte	0x4
 6431 125c 0C       		.uleb128 0xc
 6432 125d 99080000 		.4byte	.LASF293
 6433 1261 15       		.byte	0x15
 6434 1262 0801     		.2byte	0x108
 6435 1264 28000000 		.4byte	0x28
 6436 1268 08       		.byte	0x8
 6437 1269 0C       		.uleb128 0xc
 6438 126a 870E0000 		.4byte	.LASF286
 6439 126e 15       		.byte	0x15
 6440 126f 1601     		.2byte	0x116
 6441 1271 18120000 		.4byte	0x1218
 6442 1275 0C       		.byte	0xc
 6443 1276 0C       		.uleb128 0xc
 6444 1277 690E0000 		.4byte	.LASF287
 6445 127b 15       		.byte	0x15
 6446 127c 1A01     		.2byte	0x11a
 6447 127e 28000000 		.4byte	0x28
 6448 1282 10       		.byte	0x10
 6449 1283 00       		.byte	0
 6450 1284 14       		.uleb128 0x14
 6451 1285 FE0B0000 		.4byte	.LASF294
 6452 1289 15       		.byte	0x15
 6453 128a 1B01     		.2byte	0x11b
 6454 128c 3A120000 		.4byte	0x123a
 6455 1290 13       		.uleb128 0x13
 6456 1291 24       		.byte	0x24
 6457 1292 15       		.byte	0x15
 6458 1293 2101     		.2byte	0x121
 6459 1295 1C130000 		.4byte	0x131c
 6460 1299 0C       		.uleb128 0xc
 6461 129a EA010000 		.4byte	.LASF295
 6462 129e 15       		.byte	0x15
 6463 129f 2501     		.2byte	0x125
 6464 12a1 E5000000 		.4byte	0xe5
 6465 12a5 00       		.byte	0
 6466 12a6 0C       		.uleb128 0xc
 6467 12a7 AC050000 		.4byte	.LASF296
 6468 12ab 15       		.byte	0x15
 6469 12ac 3001     		.2byte	0x130
 6470 12ae 460B0000 		.4byte	0xb46
 6471 12b2 04       		.byte	0x4
 6472 12b3 0C       		.uleb128 0xc
 6473 12b4 D1050000 		.4byte	.LASF297
 6474 12b8 15       		.byte	0x15
 6475 12b9 3601     		.2byte	0x136
 6476 12bb 460B0000 		.4byte	0xb46
 6477 12bf 08       		.byte	0x8
 6478 12c0 0C       		.uleb128 0xc
 6479 12c1 E80A0000 		.4byte	.LASF298
 6480 12c5 15       		.byte	0x15
ARM GAS  /tmp/cciPs3oN.s 			page 116


 6481 12c6 3C01     		.2byte	0x13c
 6482 12c8 460B0000 		.4byte	0xb46
 6483 12cc 0C       		.byte	0xc
 6484 12cd 0C       		.uleb128 0xc
 6485 12ce 120B0000 		.4byte	.LASF299
 6486 12d2 15       		.byte	0x15
 6487 12d3 4201     		.2byte	0x142
 6488 12d5 CF000000 		.4byte	0xcf
 6489 12d9 10       		.byte	0x10
 6490 12da 0C       		.uleb128 0xc
 6491 12db 5F0D0000 		.4byte	.LASF300
 6492 12df 15       		.byte	0x15
 6493 12e0 4801     		.2byte	0x148
 6494 12e2 CF000000 		.4byte	0xcf
 6495 12e6 12       		.byte	0x12
 6496 12e7 0C       		.uleb128 0xc
 6497 12e8 10090000 		.4byte	.LASF301
 6498 12ec 15       		.byte	0x15
 6499 12ed 4D01     		.2byte	0x14d
 6500 12ef 1C130000 		.4byte	0x131c
 6501 12f3 14       		.byte	0x14
 6502 12f4 0C       		.uleb128 0xc
 6503 12f5 250B0000 		.4byte	.LASF302
 6504 12f9 15       		.byte	0x15
 6505 12fa 5201     		.2byte	0x152
 6506 12fc 22130000 		.4byte	0x1322
 6507 1300 18       		.byte	0x18
 6508 1301 0C       		.uleb128 0xc
 6509 1302 4C080000 		.4byte	.LASF303
 6510 1306 15       		.byte	0x15
 6511 1307 5901     		.2byte	0x159
 6512 1309 CF000000 		.4byte	0xcf
 6513 130d 1C       		.byte	0x1c
 6514 130e 0C       		.uleb128 0xc
 6515 130f CB0A0000 		.4byte	.LASF304
 6516 1313 15       		.byte	0x15
 6517 1314 5F01     		.2byte	0x15f
 6518 1316 A7080000 		.4byte	0x8a7
 6519 131a 20       		.byte	0x20
 6520 131b 00       		.byte	0
 6521 131c 06       		.uleb128 0x6
 6522 131d 04       		.byte	0x4
 6523 131e D9110000 		.4byte	0x11d9
 6524 1322 06       		.uleb128 0x6
 6525 1323 04       		.byte	0x4
 6526 1324 84120000 		.4byte	0x1284
 6527 1328 14       		.uleb128 0x14
 6528 1329 B10C0000 		.4byte	.LASF305
 6529 132d 15       		.byte	0x15
 6530 132e 6001     		.2byte	0x160
 6531 1330 90120000 		.4byte	0x1290
 6532 1334 13       		.uleb128 0x13
 6533 1335 10       		.byte	0x10
 6534 1336 15       		.byte	0x15
 6535 1337 6501     		.2byte	0x165
 6536 1339 72130000 		.4byte	0x1372
 6537 133d 0C       		.uleb128 0xc
ARM GAS  /tmp/cciPs3oN.s 			page 117


 6538 133e 51090000 		.4byte	.LASF306
 6539 1342 15       		.byte	0x15
 6540 1343 6A01     		.2byte	0x16a
 6541 1345 680B0000 		.4byte	0xb68
 6542 1349 00       		.byte	0
 6543 134a 0C       		.uleb128 0xc
 6544 134b 6E100000 		.4byte	.LASF307
 6545 134f 15       		.byte	0x15
 6546 1350 6F01     		.2byte	0x16f
 6547 1352 AB0B0000 		.4byte	0xbab
 6548 1356 04       		.byte	0x4
 6549 1357 0C       		.uleb128 0xc
 6550 1358 ED040000 		.4byte	.LASF308
 6551 135c 15       		.byte	0x15
 6552 135d 7501     		.2byte	0x175
 6553 135f 8A0B0000 		.4byte	0xb8a
 6554 1363 08       		.byte	0x8
 6555 1364 0C       		.uleb128 0xc
 6556 1365 D50F0000 		.4byte	.LASF309
 6557 1369 15       		.byte	0x15
 6558 136a 7901     		.2byte	0x179
 6559 136c 230B0000 		.4byte	0xb23
 6560 1370 0C       		.byte	0xc
 6561 1371 00       		.byte	0
 6562 1372 14       		.uleb128 0x14
 6563 1373 670A0000 		.4byte	.LASF310
 6564 1377 15       		.byte	0x15
 6565 1378 7B01     		.2byte	0x17b
 6566 137a 34130000 		.4byte	0x1334
 6567 137e 06       		.uleb128 0x6
 6568 137f 04       		.byte	0x4
 6569 1380 84130000 		.4byte	0x1384
 6570 1384 07       		.uleb128 0x7
 6571 1385 72130000 		.4byte	0x1372
 6572 1389 11       		.uleb128 0x11
 6573 138a 99130000 		.4byte	0x1399
 6574 138e 99130000 		.4byte	0x1399
 6575 1392 12       		.uleb128 0x12
 6576 1393 A9000000 		.4byte	0xa9
 6577 1397 03       		.byte	0x3
 6578 1398 00       		.byte	0
 6579 1399 06       		.uleb128 0x6
 6580 139a 04       		.byte	0x4
 6581 139b 9F130000 		.4byte	0x139f
 6582 139f 07       		.uleb128 0x7
 6583 13a0 28130000 		.4byte	0x1328
 6584 13a4 11       		.uleb128 0x11
 6585 13a5 B0000000 		.4byte	0xb0
 6586 13a9 B4130000 		.4byte	0x13b4
 6587 13ad 12       		.uleb128 0x12
 6588 13ae A9000000 		.4byte	0xa9
 6589 13b2 02       		.byte	0x2
 6590 13b3 00       		.byte	0
 6591 13b4 11       		.uleb128 0x11
 6592 13b5 C4000000 		.4byte	0xc4
 6593 13b9 C4130000 		.4byte	0x13c4
 6594 13bd 12       		.uleb128 0x12
ARM GAS  /tmp/cciPs3oN.s 			page 118


 6595 13be A9000000 		.4byte	0xa9
 6596 13c2 07       		.byte	0x7
 6597 13c3 00       		.byte	0
 6598 13c4 06       		.uleb128 0x6
 6599 13c5 04       		.byte	0x4
 6600 13c6 02110000 		.4byte	0x1102
 6601 13ca 06       		.uleb128 0x6
 6602 13cb 04       		.byte	0x4
 6603 13cc D0130000 		.4byte	0x13d0
 6604 13d0 07       		.uleb128 0x7
 6605 13d1 3A110000 		.4byte	0x113a
 6606 13d5 11       		.uleb128 0x11
 6607 13d6 52060000 		.4byte	0x652
 6608 13da E5130000 		.4byte	0x13e5
 6609 13de 12       		.uleb128 0x12
 6610 13df A9000000 		.4byte	0xa9
 6611 13e3 28       		.byte	0x28
 6612 13e4 00       		.byte	0
 6613 13e5 17       		.uleb128 0x17
 6614 13e6 14       		.byte	0x14
 6615 13e7 07       		.byte	0x7
 6616 13e8 4C       		.byte	0x4c
 6617 13e9 03140000 		.4byte	0x1403
 6618 13ed 22       		.uleb128 0x22
 6619 13ee 696E00   		.ascii	"in\000"
 6620 13f1 07       		.byte	0x7
 6621 13f2 50       		.byte	0x50
 6622 13f3 D9110000 		.4byte	0x11d9
 6623 13f7 22       		.uleb128 0x22
 6624 13f8 6F757400 		.ascii	"out\000"
 6625 13fc 07       		.byte	0x7
 6626 13fd 54       		.byte	0x54
 6627 13fe 84120000 		.4byte	0x1284
 6628 1402 00       		.byte	0
 6629 1403 23       		.uleb128 0x23
 6630 1404 440D0000 		.4byte	.LASF392
 6631 1408 02       		.byte	0x2
 6632 1409 2202     		.2byte	0x222
 6633 140b 03       		.byte	0x3
 6634 140c 1D140000 		.4byte	0x141d
 6635 1410 24       		.uleb128 0x24
 6636 1411 CC0C0000 		.4byte	.LASF393
 6637 1415 02       		.byte	0x2
 6638 1416 2202     		.2byte	0x222
 6639 1418 E5000000 		.4byte	0xe5
 6640 141c 00       		.byte	0
 6641 141d 25       		.uleb128 0x25
 6642 141e 410E0000 		.4byte	.LASF311
 6643 1422 01       		.byte	0x1
 6644 1423 C801     		.2byte	0x1c8
 6645 1425 00000000 		.4byte	.LFB127
 6646 1429 10000000 		.4byte	.LFE127-.LFB127
 6647 142d 01       		.uleb128 0x1
 6648 142e 9C       		.byte	0x9c
 6649 142f 4D140000 		.4byte	0x144d
 6650 1433 26       		.uleb128 0x26
 6651 1434 03140000 		.4byte	0x1403
ARM GAS  /tmp/cciPs3oN.s 			page 119


 6652 1438 06000000 		.4byte	.LBB6
 6653 143c 06000000 		.4byte	.LBE6-.LBB6
 6654 1440 01       		.byte	0x1
 6655 1441 CB01     		.2byte	0x1cb
 6656 1443 27       		.uleb128 0x27
 6657 1444 10140000 		.4byte	0x1410
 6658 1448 02       		.uleb128 0x2
 6659 1449 91       		.byte	0x91
 6660 144a 7C       		.sleb128 -4
 6661 144b 00       		.byte	0
 6662 144c 00       		.byte	0
 6663 144d 25       		.uleb128 0x25
 6664 144e EB020000 		.4byte	.LASF312
 6665 1452 01       		.byte	0x1
 6666 1453 D601     		.2byte	0x1d6
 6667 1455 00000000 		.4byte	.LFB128
 6668 1459 10000000 		.4byte	.LFE128-.LFB128
 6669 145d 01       		.uleb128 0x1
 6670 145e 9C       		.byte	0x9c
 6671 145f 7D140000 		.4byte	0x147d
 6672 1463 26       		.uleb128 0x26
 6673 1464 03140000 		.4byte	0x1403
 6674 1468 06000000 		.4byte	.LBB8
 6675 146c 06000000 		.4byte	.LBE8-.LBB8
 6676 1470 01       		.byte	0x1
 6677 1471 D901     		.2byte	0x1d9
 6678 1473 27       		.uleb128 0x27
 6679 1474 10140000 		.4byte	0x1410
 6680 1478 02       		.uleb128 0x2
 6681 1479 91       		.byte	0x91
 6682 147a 7C       		.sleb128 -4
 6683 147b 00       		.byte	0
 6684 147c 00       		.byte	0
 6685 147d 28       		.uleb128 0x28
 6686 147e 82090000 		.4byte	.LASF313
 6687 1482 01       		.byte	0x1
 6688 1483 E501     		.2byte	0x1e5
 6689 1485 00000000 		.4byte	.LFB129
 6690 1489 08000000 		.4byte	.LFE129-.LFB129
 6691 148d 01       		.uleb128 0x1
 6692 148e 9C       		.byte	0x9c
 6693 148f 28       		.uleb128 0x28
 6694 1490 B80B0000 		.4byte	.LASF314
 6695 1494 01       		.byte	0x1
 6696 1495 F001     		.2byte	0x1f0
 6697 1497 00000000 		.4byte	.LFB130
 6698 149b 08000000 		.4byte	.LFE130-.LFB130
 6699 149f 01       		.uleb128 0x1
 6700 14a0 9C       		.byte	0x9c
 6701 14a1 28       		.uleb128 0x28
 6702 14a2 DC070000 		.4byte	.LASF315
 6703 14a6 03       		.byte	0x3
 6704 14a7 5A01     		.2byte	0x15a
 6705 14a9 00000000 		.4byte	.LFB167
 6706 14ad 08000000 		.4byte	.LFE167-.LFB167
 6707 14b1 01       		.uleb128 0x1
 6708 14b2 9C       		.byte	0x9c
ARM GAS  /tmp/cciPs3oN.s 			page 120


 6709 14b3 29       		.uleb128 0x29
 6710 14b4 BE070000 		.4byte	.LASF316
 6711 14b8 03       		.byte	0x3
 6712 14b9 6601     		.2byte	0x166
 6713 14bb 00000000 		.4byte	.LFB168
 6714 14bf 08000000 		.4byte	.LFE168-.LFB168
 6715 14c3 01       		.uleb128 0x1
 6716 14c4 9C       		.byte	0x9c
 6717 14c5 D3140000 		.4byte	0x14d3
 6718 14c9 2A       		.uleb128 0x2a
 6719 14ca E1000000 		.4byte	.LASF319
 6720 14ce E3140000 		.4byte	0x14e3
 6721 14d2 00       		.byte	0
 6722 14d3 11       		.uleb128 0x11
 6723 14d4 B2000000 		.4byte	0xb2
 6724 14d8 E3140000 		.4byte	0x14e3
 6725 14dc 12       		.uleb128 0x12
 6726 14dd A9000000 		.4byte	0xa9
 6727 14e1 0B       		.byte	0xb
 6728 14e2 00       		.byte	0
 6729 14e3 07       		.uleb128 0x7
 6730 14e4 D3140000 		.4byte	0x14d3
 6731 14e8 28       		.uleb128 0x28
 6732 14e9 06030000 		.4byte	.LASF317
 6733 14ed 03       		.byte	0x3
 6734 14ee 8201     		.2byte	0x182
 6735 14f0 00000000 		.4byte	.LFB169
 6736 14f4 08000000 		.4byte	.LFE169-.LFB169
 6737 14f8 01       		.uleb128 0x1
 6738 14f9 9C       		.byte	0x9c
 6739 14fa 28       		.uleb128 0x28
 6740 14fb 49040000 		.4byte	.LASF318
 6741 14ff 03       		.byte	0x3
 6742 1500 9601     		.2byte	0x196
 6743 1502 00000000 		.4byte	.LFB170
 6744 1506 08000000 		.4byte	.LFE170-.LFB170
 6745 150a 01       		.uleb128 0x1
 6746 150b 9C       		.byte	0x9c
 6747 150c 2B       		.uleb128 0x2b
 6748 150d 730C0000 		.4byte	.LASF329
 6749 1511 04       		.byte	0x4
 6750 1512 F5       		.byte	0xf5
 6751 1513 6B020000 		.4byte	0x26b
 6752 1517 00000000 		.4byte	.LFB192
 6753 151b 16000000 		.4byte	.LFE192-.LFB192
 6754 151f 01       		.uleb128 0x1
 6755 1520 9C       		.byte	0x9c
 6756 1521 3C150000 		.4byte	0x153c
 6757 1525 2C       		.uleb128 0x2c
 6758 1526 747000   		.ascii	"tp\000"
 6759 1529 04       		.byte	0x4
 6760 152a F5       		.byte	0xf5
 6761 152b 6B020000 		.4byte	0x26b
 6762 152f 02       		.uleb128 0x2
 6763 1530 91       		.byte	0x91
 6764 1531 74       		.sleb128 -12
 6765 1532 2A       		.uleb128 0x2a
ARM GAS  /tmp/cciPs3oN.s 			page 121


 6766 1533 E1000000 		.4byte	.LASF319
 6767 1537 3C150000 		.4byte	0x153c
 6768 153b 00       		.byte	0
 6769 153c 07       		.uleb128 0x7
 6770 153d D3140000 		.4byte	0x14d3
 6771 1541 2D       		.uleb128 0x2d
 6772 1542 0F110000 		.4byte	.LASF320
 6773 1546 05       		.byte	0x5
 6774 1547 84       		.byte	0x84
 6775 1548 00000000 		.4byte	.LFB197
 6776 154c 14000000 		.4byte	.LFE197-.LFB197
 6777 1550 01       		.uleb128 0x1
 6778 1551 9C       		.byte	0x9c
 6779 1552 65150000 		.4byte	0x1565
 6780 1556 2E       		.uleb128 0x2e
 6781 1557 2B0E0000 		.4byte	.LASF321
 6782 155b 05       		.byte	0x5
 6783 155c 84       		.byte	0x84
 6784 155d B9000000 		.4byte	0xb9
 6785 1561 02       		.uleb128 0x2
 6786 1562 91       		.byte	0x91
 6787 1563 7C       		.sleb128 -4
 6788 1564 00       		.byte	0
 6789 1565 28       		.uleb128 0x28
 6790 1566 C5030000 		.4byte	.LASF322
 6791 156a 06       		.byte	0x6
 6792 156b EB01     		.2byte	0x1eb
 6793 156d 00000000 		.4byte	.LFB244
 6794 1571 08000000 		.4byte	.LFE244-.LFB244
 6795 1575 01       		.uleb128 0x1
 6796 1576 9C       		.byte	0x9c
 6797 1577 28       		.uleb128 0x28
 6798 1578 26020000 		.4byte	.LASF323
 6799 157c 06       		.byte	0x6
 6800 157d F601     		.2byte	0x1f6
 6801 157f 00000000 		.4byte	.LFB245
 6802 1583 08000000 		.4byte	.LFE245-.LFB245
 6803 1587 01       		.uleb128 0x1
 6804 1588 9C       		.byte	0x9c
 6805 1589 28       		.uleb128 0x28
 6806 158a 13020000 		.4byte	.LASF324
 6807 158e 06       		.byte	0x6
 6808 158f 0102     		.2byte	0x201
 6809 1591 00000000 		.4byte	.LFB246
 6810 1595 08000000 		.4byte	.LFE246-.LFB246
 6811 1599 01       		.uleb128 0x1
 6812 159a 9C       		.byte	0x9c
 6813 159b 28       		.uleb128 0x28
 6814 159c 65070000 		.4byte	.LASF325
 6815 15a0 06       		.byte	0x6
 6816 15a1 0C02     		.2byte	0x20c
 6817 15a3 00000000 		.4byte	.LFB247
 6818 15a7 08000000 		.4byte	.LFE247-.LFB247
 6819 15ab 01       		.uleb128 0x1
 6820 15ac 9C       		.byte	0x9c
 6821 15ad 29       		.uleb128 0x29
 6822 15ae A50D0000 		.4byte	.LASF326
ARM GAS  /tmp/cciPs3oN.s 			page 122


 6823 15b2 06       		.byte	0x6
 6824 15b3 3B02     		.2byte	0x23b
 6825 15b5 00000000 		.4byte	.LFB250
 6826 15b9 12000000 		.4byte	.LFE250-.LFB250
 6827 15bd 01       		.uleb128 0x1
 6828 15be 9C       		.byte	0x9c
 6829 15bf D3150000 		.4byte	0x15d3
 6830 15c3 2F       		.uleb128 0x2f
 6831 15c4 B2000000 		.4byte	.LASF327
 6832 15c8 06       		.byte	0x6
 6833 15c9 3B02     		.2byte	0x23b
 6834 15cb 05010000 		.4byte	0x105
 6835 15cf 02       		.uleb128 0x2
 6836 15d0 91       		.byte	0x91
 6837 15d1 74       		.sleb128 -12
 6838 15d2 00       		.byte	0
 6839 15d3 28       		.uleb128 0x28
 6840 15d4 F70D0000 		.4byte	.LASF328
 6841 15d8 06       		.byte	0x6
 6842 15d9 5602     		.2byte	0x256
 6843 15db 00000000 		.4byte	.LFB252
 6844 15df 08000000 		.4byte	.LFE252-.LFB252
 6845 15e3 01       		.uleb128 0x1
 6846 15e4 9C       		.byte	0x9c
 6847 15e5 30       		.uleb128 0x30
 6848 15e6 A5010000 		.4byte	.LASF330
 6849 15ea 06       		.byte	0x6
 6850 15eb AE02     		.2byte	0x2ae
 6851 15ed 3C010000 		.4byte	0x13c
 6852 15f1 00000000 		.4byte	.LFB257
 6853 15f5 16000000 		.4byte	.LFE257-.LFB257
 6854 15f9 01       		.uleb128 0x1
 6855 15fa 9C       		.byte	0x9c
 6856 15fb 0F160000 		.4byte	0x160f
 6857 15ff 31       		.uleb128 0x31
 6858 1600 74727000 		.ascii	"trp\000"
 6859 1604 06       		.byte	0x6
 6860 1605 AE02     		.2byte	0x2ae
 6861 1607 74070000 		.4byte	0x774
 6862 160b 02       		.uleb128 0x2
 6863 160c 91       		.byte	0x91
 6864 160d 74       		.sleb128 -12
 6865 160e 00       		.byte	0
 6866 160f 29       		.uleb128 0x29
 6867 1610 41020000 		.4byte	.LASF331
 6868 1614 06       		.byte	0x6
 6869 1615 D602     		.2byte	0x2d6
 6870 1617 00000000 		.4byte	.LFB259
 6871 161b 16000000 		.4byte	.LFE259-.LFB259
 6872 161f 01       		.uleb128 0x1
 6873 1620 9C       		.byte	0x9c
 6874 1621 44160000 		.4byte	0x1644
 6875 1625 31       		.uleb128 0x31
 6876 1626 74727000 		.ascii	"trp\000"
 6877 162a 06       		.byte	0x6
 6878 162b D602     		.2byte	0x2d6
 6879 162d 74070000 		.4byte	0x774
ARM GAS  /tmp/cciPs3oN.s 			page 123


 6880 1631 02       		.uleb128 0x2
 6881 1632 91       		.byte	0x91
 6882 1633 74       		.sleb128 -12
 6883 1634 31       		.uleb128 0x31
 6884 1635 6D736700 		.ascii	"msg\000"
 6885 1639 06       		.byte	0x6
 6886 163a D602     		.2byte	0x2d6
 6887 163c 3C010000 		.4byte	0x13c
 6888 1640 02       		.uleb128 0x2
 6889 1641 91       		.byte	0x91
 6890 1642 70       		.sleb128 -16
 6891 1643 00       		.byte	0
 6892 1644 29       		.uleb128 0x29
 6893 1645 E2060000 		.4byte	.LASF332
 6894 1649 06       		.byte	0x6
 6895 164a 2803     		.2byte	0x328
 6896 164c 00000000 		.4byte	.LFB264
 6897 1650 16000000 		.4byte	.LFE264-.LFB264
 6898 1654 01       		.uleb128 0x1
 6899 1655 9C       		.byte	0x9c
 6900 1656 79160000 		.4byte	0x1679
 6901 165a 31       		.uleb128 0x31
 6902 165b 74717000 		.ascii	"tqp\000"
 6903 165f 06       		.byte	0x6
 6904 1660 2803     		.2byte	0x328
 6905 1662 79160000 		.4byte	0x1679
 6906 1666 02       		.uleb128 0x2
 6907 1667 91       		.byte	0x91
 6908 1668 74       		.sleb128 -12
 6909 1669 31       		.uleb128 0x31
 6910 166a 6D736700 		.ascii	"msg\000"
 6911 166e 06       		.byte	0x6
 6912 166f 2803     		.2byte	0x328
 6913 1671 3C010000 		.4byte	0x13c
 6914 1675 02       		.uleb128 0x2
 6915 1676 91       		.byte	0x91
 6916 1677 70       		.sleb128 -16
 6917 1678 00       		.byte	0
 6918 1679 06       		.uleb128 0x6
 6919 167a 04       		.byte	0x4
 6920 167b 95020000 		.4byte	0x295
 6921 167f 32       		.uleb128 0x32
 6922 1680 9D110000 		.4byte	.LASF333
 6923 1684 07       		.byte	0x7
 6924 1685 80       		.byte	0x80
 6925 1686 00000000 		.4byte	.LFB271
 6926 168a 3C000000 		.4byte	.LFE271-.LFB271
 6927 168e 01       		.uleb128 0x1
 6928 168f 9C       		.byte	0x9c
 6929 1690 B1160000 		.4byte	0x16b1
 6930 1694 2E       		.uleb128 0x2e
 6931 1695 5A080000 		.4byte	.LASF334
 6932 1699 07       		.byte	0x7
 6933 169a 80       		.byte	0x80
 6934 169b 400B0000 		.4byte	0xb40
 6935 169f 02       		.uleb128 0x2
 6936 16a0 91       		.byte	0x91
ARM GAS  /tmp/cciPs3oN.s 			page 124


 6937 16a1 6C       		.sleb128 -20
 6938 16a2 33       		.uleb128 0x33
 6939 16a3 AF100000 		.4byte	.LASF336
 6940 16a7 07       		.byte	0x7
 6941 16a8 81       		.byte	0x81
 6942 16a9 C4130000 		.4byte	0x13c4
 6943 16ad 02       		.uleb128 0x2
 6944 16ae 91       		.byte	0x91
 6945 16af 74       		.sleb128 -12
 6946 16b0 00       		.byte	0
 6947 16b1 2D       		.uleb128 0x2d
 6948 16b2 88110000 		.4byte	.LASF335
 6949 16b6 07       		.byte	0x7
 6950 16b7 91       		.byte	0x91
 6951 16b8 00000000 		.4byte	.LFB272
 6952 16bc 04010000 		.4byte	.LFE272-.LFB272
 6953 16c0 01       		.uleb128 0x1
 6954 16c1 9C       		.byte	0x9c
 6955 16c2 EF160000 		.4byte	0x16ef
 6956 16c6 2E       		.uleb128 0x2e
 6957 16c7 5A080000 		.4byte	.LASF334
 6958 16cb 07       		.byte	0x7
 6959 16cc 91       		.byte	0x91
 6960 16cd 400B0000 		.4byte	0xb40
 6961 16d1 02       		.uleb128 0x2
 6962 16d2 91       		.byte	0x91
 6963 16d3 74       		.sleb128 -12
 6964 16d4 33       		.uleb128 0x33
 6965 16d5 AF100000 		.4byte	.LASF336
 6966 16d9 07       		.byte	0x7
 6967 16da 92       		.byte	0x92
 6968 16db C4130000 		.4byte	0x13c4
 6969 16df 02       		.uleb128 0x2
 6970 16e0 91       		.byte	0x91
 6971 16e1 78       		.sleb128 -8
 6972 16e2 34       		.uleb128 0x34
 6973 16e3 6900     		.ascii	"i\000"
 6974 16e5 07       		.byte	0x7
 6975 16e6 93       		.byte	0x93
 6976 16e7 33000000 		.4byte	0x33
 6977 16eb 02       		.uleb128 0x2
 6978 16ec 91       		.byte	0x91
 6979 16ed 7C       		.sleb128 -4
 6980 16ee 00       		.byte	0
 6981 16ef 32       		.uleb128 0x32
 6982 16f0 8C100000 		.4byte	.LASF337
 6983 16f4 07       		.byte	0x7
 6984 16f5 B6       		.byte	0xb6
 6985 16f6 00000000 		.4byte	.LFB273
 6986 16fa 2C000000 		.4byte	.LFE273-.LFB273
 6987 16fe 01       		.uleb128 0x1
 6988 16ff 9C       		.byte	0x9c
 6989 1700 21170000 		.4byte	0x1721
 6990 1704 2E       		.uleb128 0x2e
 6991 1705 5A080000 		.4byte	.LASF334
 6992 1709 07       		.byte	0x7
 6993 170a B6       		.byte	0xb6
ARM GAS  /tmp/cciPs3oN.s 			page 125


 6994 170b 400B0000 		.4byte	0xb40
 6995 170f 02       		.uleb128 0x2
 6996 1710 91       		.byte	0x91
 6997 1711 6C       		.sleb128 -20
 6998 1712 33       		.uleb128 0x33
 6999 1713 AF100000 		.4byte	.LASF336
 7000 1717 07       		.byte	0x7
 7001 1718 B7       		.byte	0xb7
 7002 1719 C4130000 		.4byte	0x13c4
 7003 171d 02       		.uleb128 0x2
 7004 171e 91       		.byte	0x91
 7005 171f 74       		.sleb128 -12
 7006 1720 00       		.byte	0
 7007 1721 32       		.uleb128 0x32
 7008 1722 300E0000 		.4byte	.LASF338
 7009 1726 07       		.byte	0x7
 7010 1727 C0       		.byte	0xc0
 7011 1728 00000000 		.4byte	.LFB274
 7012 172c 34000000 		.4byte	.LFE274-.LFB274
 7013 1730 01       		.uleb128 0x1
 7014 1731 9C       		.byte	0x9c
 7015 1732 61170000 		.4byte	0x1761
 7016 1736 2E       		.uleb128 0x2e
 7017 1737 5A080000 		.4byte	.LASF334
 7018 173b 07       		.byte	0x7
 7019 173c C0       		.byte	0xc0
 7020 173d 400B0000 		.4byte	0xb40
 7021 1741 02       		.uleb128 0x2
 7022 1742 91       		.byte	0x91
 7023 1743 6C       		.sleb128 -20
 7024 1744 2E       		.uleb128 0x2e
 7025 1745 D6020000 		.4byte	.LASF339
 7026 1749 07       		.byte	0x7
 7027 174a C0       		.byte	0xc0
 7028 174b E5000000 		.4byte	0xe5
 7029 174f 02       		.uleb128 0x2
 7030 1750 91       		.byte	0x91
 7031 1751 68       		.sleb128 -24
 7032 1752 33       		.uleb128 0x33
 7033 1753 AF100000 		.4byte	.LASF336
 7034 1757 07       		.byte	0x7
 7035 1758 C1       		.byte	0xc1
 7036 1759 C4130000 		.4byte	0x13c4
 7037 175d 02       		.uleb128 0x2
 7038 175e 91       		.byte	0x91
 7039 175f 74       		.sleb128 -12
 7040 1760 00       		.byte	0
 7041 1761 2D       		.uleb128 0x2d
 7042 1762 FF0F0000 		.4byte	.LASF340
 7043 1766 07       		.byte	0x7
 7044 1767 D1       		.byte	0xd1
 7045 1768 00000000 		.4byte	.LFB275
 7046 176c 12000000 		.4byte	.LFE275-.LFB275
 7047 1770 01       		.uleb128 0x1
 7048 1771 9C       		.byte	0x9c
 7049 1772 85170000 		.4byte	0x1785
 7050 1776 2E       		.uleb128 0x2e
ARM GAS  /tmp/cciPs3oN.s 			page 126


 7051 1777 5A080000 		.4byte	.LASF334
 7052 177b 07       		.byte	0x7
 7053 177c D1       		.byte	0xd1
 7054 177d 400B0000 		.4byte	0xb40
 7055 1781 02       		.uleb128 0x2
 7056 1782 91       		.byte	0x91
 7057 1783 7C       		.sleb128 -4
 7058 1784 00       		.byte	0
 7059 1785 35       		.uleb128 0x35
 7060 1786 55110000 		.4byte	.LASF341
 7061 178a 07       		.byte	0x7
 7062 178b DE       		.byte	0xde
 7063 178c E5000000 		.4byte	0xe5
 7064 1790 00000000 		.4byte	.LFB276
 7065 1794 20000000 		.4byte	.LFE276-.LFB276
 7066 1798 01       		.uleb128 0x1
 7067 1799 9C       		.byte	0x9c
 7068 179a D2170000 		.4byte	0x17d2
 7069 179e 2E       		.uleb128 0x2e
 7070 179f 5A080000 		.4byte	.LASF334
 7071 17a3 07       		.byte	0x7
 7072 17a4 DE       		.byte	0xde
 7073 17a5 400B0000 		.4byte	0xb40
 7074 17a9 02       		.uleb128 0x2
 7075 17aa 91       		.byte	0x91
 7076 17ab 74       		.sleb128 -12
 7077 17ac 2E       		.uleb128 0x2e
 7078 17ad 230C0000 		.4byte	.LASF342
 7079 17b1 07       		.byte	0x7
 7080 17b2 DE       		.byte	0xde
 7081 17b3 28000000 		.4byte	0x28
 7082 17b7 02       		.uleb128 0x2
 7083 17b8 91       		.byte	0x91
 7084 17b9 70       		.sleb128 -16
 7085 17ba 33       		.uleb128 0x33
 7086 17bb 42110000 		.4byte	.LASF343
 7087 17bf 07       		.byte	0x7
 7088 17c0 DF       		.byte	0xdf
 7089 17c1 E5000000 		.4byte	0xe5
 7090 17c5 02       		.uleb128 0x2
 7091 17c6 91       		.byte	0x91
 7092 17c7 7C       		.sleb128 -4
 7093 17c8 2A       		.uleb128 0x2a
 7094 17c9 E1000000 		.4byte	.LASF319
 7095 17cd E2170000 		.4byte	0x17e2
 7096 17d1 00       		.byte	0
 7097 17d2 11       		.uleb128 0x11
 7098 17d3 B2000000 		.4byte	0xb2
 7099 17d7 E2170000 		.4byte	0x17e2
 7100 17db 12       		.uleb128 0x12
 7101 17dc A9000000 		.4byte	0xa9
 7102 17e0 0D       		.byte	0xd
 7103 17e1 00       		.byte	0
 7104 17e2 07       		.uleb128 0x7
 7105 17e3 D2170000 		.4byte	0x17d2
 7106 17e7 35       		.uleb128 0x35
 7107 17e8 3A090000 		.4byte	.LASF344
ARM GAS  /tmp/cciPs3oN.s 			page 127


 7108 17ec 07       		.byte	0x7
 7109 17ed F4       		.byte	0xf4
 7110 17ee A7080000 		.4byte	0x8a7
 7111 17f2 00000000 		.4byte	.LFB277
 7112 17f6 2C000000 		.4byte	.LFE277-.LFB277
 7113 17fa 01       		.uleb128 0x1
 7114 17fb 9C       		.byte	0x9c
 7115 17fc 29180000 		.4byte	0x1829
 7116 1800 2E       		.uleb128 0x2e
 7117 1801 B8010000 		.4byte	.LASF345
 7118 1805 07       		.byte	0x7
 7119 1806 F4       		.byte	0xf4
 7120 1807 CE080000 		.4byte	0x8ce
 7121 180b 02       		.uleb128 0x2
 7122 180c 91       		.byte	0x91
 7123 180d 7C       		.sleb128 -4
 7124 180e 2C       		.uleb128 0x2c
 7125 180f 62756600 		.ascii	"buf\000"
 7126 1813 07       		.byte	0x7
 7127 1814 F4       		.byte	0xf4
 7128 1815 A7080000 		.4byte	0x8a7
 7129 1819 02       		.uleb128 0x2
 7130 181a 91       		.byte	0x91
 7131 181b 78       		.sleb128 -8
 7132 181c 2C       		.uleb128 0x2c
 7133 181d 6E00     		.ascii	"n\000"
 7134 181f 07       		.byte	0x7
 7135 1820 F4       		.byte	0xf4
 7136 1821 28000000 		.4byte	0x28
 7137 1825 02       		.uleb128 0x2
 7138 1826 91       		.byte	0x91
 7139 1827 74       		.sleb128 -12
 7140 1828 00       		.byte	0
 7141 1829 29       		.uleb128 0x29
 7142 182a 40030000 		.4byte	.LASF346
 7143 182e 07       		.byte	0x7
 7144 182f 0901     		.2byte	0x109
 7145 1831 00000000 		.4byte	.LFB278
 7146 1835 20000000 		.4byte	.LFE278-.LFB278
 7147 1839 01       		.uleb128 0x1
 7148 183a 9C       		.byte	0x9c
 7149 183b 6B180000 		.4byte	0x186b
 7150 183f 2F       		.uleb128 0x2f
 7151 1840 B8010000 		.4byte	.LASF345
 7152 1844 07       		.byte	0x7
 7153 1845 0901     		.2byte	0x109
 7154 1847 CE080000 		.4byte	0x8ce
 7155 184b 02       		.uleb128 0x2
 7156 184c 91       		.byte	0x91
 7157 184d 74       		.sleb128 -12
 7158 184e 31       		.uleb128 0x31
 7159 184f 62756600 		.ascii	"buf\000"
 7160 1853 07       		.byte	0x7
 7161 1854 0A01     		.2byte	0x10a
 7162 1856 C3080000 		.4byte	0x8c3
 7163 185a 02       		.uleb128 0x2
 7164 185b 91       		.byte	0x91
ARM GAS  /tmp/cciPs3oN.s 			page 128


 7165 185c 70       		.sleb128 -16
 7166 185d 31       		.uleb128 0x31
 7167 185e 6E00     		.ascii	"n\000"
 7168 1860 07       		.byte	0x7
 7169 1861 0B01     		.2byte	0x10b
 7170 1863 28000000 		.4byte	0x28
 7171 1867 02       		.uleb128 0x2
 7172 1868 91       		.byte	0x91
 7173 1869 6C       		.sleb128 -20
 7174 186a 00       		.byte	0
 7175 186b 29       		.uleb128 0x29
 7176 186c 64030000 		.4byte	.LASF347
 7177 1870 07       		.byte	0x7
 7178 1871 1901     		.2byte	0x119
 7179 1873 00000000 		.4byte	.LFB279
 7180 1877 00010000 		.4byte	.LFE279-.LFB279
 7181 187b 01       		.uleb128 0x1
 7182 187c 9C       		.byte	0x9c
 7183 187d 16190000 		.4byte	0x1916
 7184 1881 2F       		.uleb128 0x2f
 7185 1882 B8010000 		.4byte	.LASF345
 7186 1886 07       		.byte	0x7
 7187 1887 1901     		.2byte	0x119
 7188 1889 CE080000 		.4byte	0x8ce
 7189 188d 02       		.uleb128 0x2
 7190 188e 91       		.byte	0x91
 7191 188f 5C       		.sleb128 -36
 7192 1890 31       		.uleb128 0x31
 7193 1891 6F717000 		.ascii	"oqp\000"
 7194 1895 07       		.byte	0x7
 7195 1896 1A01     		.2byte	0x11a
 7196 1898 6F110000 		.4byte	0x116f
 7197 189c 02       		.uleb128 0x2
 7198 189d 91       		.byte	0x91
 7199 189e 58       		.sleb128 -40
 7200 189f 31       		.uleb128 0x31
 7201 18a0 6E00     		.ascii	"n\000"
 7202 18a2 07       		.byte	0x7
 7203 18a3 1B01     		.2byte	0x11b
 7204 18a5 28000000 		.4byte	0x28
 7205 18a9 02       		.uleb128 0x2
 7206 18aa 91       		.byte	0x91
 7207 18ab 54       		.sleb128 -44
 7208 18ac 36       		.uleb128 0x36
 7209 18ad 3D100000 		.4byte	.LASF348
 7210 18b1 07       		.byte	0x7
 7211 18b2 1C01     		.2byte	0x11c
 7212 18b4 28000000 		.4byte	0x28
 7213 18b8 02       		.uleb128 0x2
 7214 18b9 91       		.byte	0x91
 7215 18ba 74       		.sleb128 -12
 7216 18bb 37       		.uleb128 0x37
 7217 18bc 10000000 		.4byte	.LBB10
 7218 18c0 C2000000 		.4byte	.LBE10-.LBB10
 7219 18c4 38       		.uleb128 0x38
 7220 18c5 7700     		.ascii	"w\000"
 7221 18c7 07       		.byte	0x7
ARM GAS  /tmp/cciPs3oN.s 			page 129


 7222 18c8 2001     		.2byte	0x120
 7223 18ca E5000000 		.4byte	0xe5
 7224 18ce 02       		.uleb128 0x2
 7225 18cf 91       		.byte	0x91
 7226 18d0 70       		.sleb128 -16
 7227 18d1 38       		.uleb128 0x38
 7228 18d2 6900     		.ascii	"i\000"
 7229 18d4 07       		.byte	0x7
 7230 18d5 2001     		.2byte	0x120
 7231 18d7 E5000000 		.4byte	0xe5
 7232 18db 02       		.uleb128 0x2
 7233 18dc 91       		.byte	0x91
 7234 18dd 6C       		.sleb128 -20
 7235 18de 38       		.uleb128 0x38
 7236 18df 6E7700   		.ascii	"nw\000"
 7237 18e2 07       		.byte	0x7
 7238 18e3 2101     		.2byte	0x121
 7239 18e5 28000000 		.4byte	0x28
 7240 18e9 02       		.uleb128 0x2
 7241 18ea 91       		.byte	0x91
 7242 18eb 68       		.sleb128 -24
 7243 18ec 37       		.uleb128 0x37
 7244 18ed 1C000000 		.4byte	.LBB11
 7245 18f1 56000000 		.4byte	.LBE11-.LBB11
 7246 18f5 36       		.uleb128 0x36
 7247 18f6 FB050000 		.4byte	.LASF349
 7248 18fa 07       		.byte	0x7
 7249 18fb 2401     		.2byte	0x124
 7250 18fd 28000000 		.4byte	0x28
 7251 1901 02       		.uleb128 0x2
 7252 1902 91       		.byte	0x91
 7253 1903 60       		.sleb128 -32
 7254 1904 36       		.uleb128 0x36
 7255 1905 200A0000 		.4byte	.LASF350
 7256 1909 07       		.byte	0x7
 7257 190a 2501     		.2byte	0x125
 7258 190c E5000000 		.4byte	0xe5
 7259 1910 02       		.uleb128 0x2
 7260 1911 91       		.byte	0x91
 7261 1912 64       		.sleb128 -28
 7262 1913 00       		.byte	0
 7263 1914 00       		.byte	0
 7264 1915 00       		.byte	0
 7265 1916 39       		.uleb128 0x39
 7266 1917 C50E0000 		.4byte	.LASF351
 7267 191b 07       		.byte	0x7
 7268 191c 5501     		.2byte	0x155
 7269 191e A7080000 		.4byte	0x8a7
 7270 1922 00000000 		.4byte	.LFB280
 7271 1926 30000000 		.4byte	.LFE280-.LFB280
 7272 192a 01       		.uleb128 0x1
 7273 192b 9C       		.byte	0x9c
 7274 192c 73190000 		.4byte	0x1973
 7275 1930 2F       		.uleb128 0x2f
 7276 1931 B8010000 		.4byte	.LASF345
 7277 1935 07       		.byte	0x7
 7278 1936 5501     		.2byte	0x155
ARM GAS  /tmp/cciPs3oN.s 			page 130


 7279 1938 CE080000 		.4byte	0x8ce
 7280 193c 02       		.uleb128 0x2
 7281 193d 91       		.byte	0x91
 7282 193e 74       		.sleb128 -12
 7283 193f 31       		.uleb128 0x31
 7284 1940 62756600 		.ascii	"buf\000"
 7285 1944 07       		.byte	0x7
 7286 1945 5501     		.2byte	0x155
 7287 1947 A7080000 		.4byte	0x8a7
 7288 194b 02       		.uleb128 0x2
 7289 194c 91       		.byte	0x91
 7290 194d 70       		.sleb128 -16
 7291 194e 31       		.uleb128 0x31
 7292 194f 6E00     		.ascii	"n\000"
 7293 1951 07       		.byte	0x7
 7294 1952 5501     		.2byte	0x155
 7295 1954 28000000 		.4byte	0x28
 7296 1958 02       		.uleb128 0x2
 7297 1959 91       		.byte	0x91
 7298 195a 6C       		.sleb128 -20
 7299 195b 37       		.uleb128 0x37
 7300 195c 0A000000 		.4byte	.LBB12
 7301 1960 18000000 		.4byte	.LBE12-.LBB12
 7302 1964 38       		.uleb128 0x38
 7303 1965 7700     		.ascii	"w\000"
 7304 1967 07       		.byte	0x7
 7305 1968 5801     		.2byte	0x158
 7306 196a E5000000 		.4byte	0xe5
 7307 196e 02       		.uleb128 0x2
 7308 196f 91       		.byte	0x91
 7309 1970 7C       		.sleb128 -4
 7310 1971 00       		.byte	0
 7311 1972 00       		.byte	0
 7312 1973 25       		.uleb128 0x25
 7313 1974 73000000 		.4byte	.LASF352
 7314 1978 07       		.byte	0x7
 7315 1979 6C01     		.2byte	0x16c
 7316 197b 00000000 		.4byte	.LFB281
 7317 197f 4A000000 		.4byte	.LFE281-.LFB281
 7318 1983 01       		.uleb128 0x1
 7319 1984 9C       		.byte	0x9c
 7320 1985 DB190000 		.4byte	0x19db
 7321 1989 2F       		.uleb128 0x2f
 7322 198a B8010000 		.4byte	.LASF345
 7323 198e 07       		.byte	0x7
 7324 198f 6C01     		.2byte	0x16c
 7325 1991 CE080000 		.4byte	0x8ce
 7326 1995 02       		.uleb128 0x2
 7327 1996 91       		.byte	0x91
 7328 1997 74       		.sleb128 -12
 7329 1998 31       		.uleb128 0x31
 7330 1999 62756600 		.ascii	"buf\000"
 7331 199d 07       		.byte	0x7
 7332 199e 6D01     		.2byte	0x16d
 7333 19a0 A7080000 		.4byte	0x8a7
 7334 19a4 02       		.uleb128 0x2
 7335 19a5 91       		.byte	0x91
ARM GAS  /tmp/cciPs3oN.s 			page 131


 7336 19a6 70       		.sleb128 -16
 7337 19a7 31       		.uleb128 0x31
 7338 19a8 6E00     		.ascii	"n\000"
 7339 19aa 07       		.byte	0x7
 7340 19ab 6E01     		.2byte	0x16e
 7341 19ad 28000000 		.4byte	0x28
 7342 19b1 02       		.uleb128 0x2
 7343 19b2 91       		.byte	0x91
 7344 19b3 6C       		.sleb128 -20
 7345 19b4 31       		.uleb128 0x31
 7346 19b5 6D617800 		.ascii	"max\000"
 7347 19b9 07       		.byte	0x7
 7348 19ba 6F01     		.2byte	0x16f
 7349 19bc 28000000 		.4byte	0x28
 7350 19c0 02       		.uleb128 0x2
 7351 19c1 91       		.byte	0x91
 7352 19c2 68       		.sleb128 -24
 7353 19c3 37       		.uleb128 0x37
 7354 19c4 1C000000 		.4byte	.LBB13
 7355 19c8 24000000 		.4byte	.LBE13-.LBB13
 7356 19cc 38       		.uleb128 0x38
 7357 19cd 7700     		.ascii	"w\000"
 7358 19cf 07       		.byte	0x7
 7359 19d0 7401     		.2byte	0x174
 7360 19d2 E5000000 		.4byte	0xe5
 7361 19d6 02       		.uleb128 0x2
 7362 19d7 91       		.byte	0x91
 7363 19d8 7C       		.sleb128 -4
 7364 19d9 00       		.byte	0
 7365 19da 00       		.byte	0
 7366 19db 29       		.uleb128 0x29
 7367 19dc 700F0000 		.4byte	.LASF353
 7368 19e0 07       		.byte	0x7
 7369 19e1 8901     		.2byte	0x189
 7370 19e3 00000000 		.4byte	.LFB282
 7371 19e7 E6000000 		.4byte	.LFE282-.LFB282
 7372 19eb 01       		.uleb128 0x1
 7373 19ec 9C       		.byte	0x9c
 7374 19ed 861A0000 		.4byte	0x1a86
 7375 19f1 2F       		.uleb128 0x2f
 7376 19f2 B8010000 		.4byte	.LASF345
 7377 19f6 07       		.byte	0x7
 7378 19f7 8901     		.2byte	0x189
 7379 19f9 CE080000 		.4byte	0x8ce
 7380 19fd 02       		.uleb128 0x2
 7381 19fe 91       		.byte	0x91
 7382 19ff 5C       		.sleb128 -36
 7383 1a00 31       		.uleb128 0x31
 7384 1a01 69717000 		.ascii	"iqp\000"
 7385 1a05 07       		.byte	0x7
 7386 1a06 8A01     		.2byte	0x18a
 7387 1a08 12120000 		.4byte	0x1212
 7388 1a0c 02       		.uleb128 0x2
 7389 1a0d 91       		.byte	0x91
 7390 1a0e 58       		.sleb128 -40
 7391 1a0f 31       		.uleb128 0x31
 7392 1a10 6E00     		.ascii	"n\000"
ARM GAS  /tmp/cciPs3oN.s 			page 132


 7393 1a12 07       		.byte	0x7
 7394 1a13 8B01     		.2byte	0x18b
 7395 1a15 28000000 		.4byte	0x28
 7396 1a19 02       		.uleb128 0x2
 7397 1a1a 91       		.byte	0x91
 7398 1a1b 54       		.sleb128 -44
 7399 1a1c 36       		.uleb128 0x36
 7400 1a1d 3D100000 		.4byte	.LASF348
 7401 1a21 07       		.byte	0x7
 7402 1a22 8C01     		.2byte	0x18c
 7403 1a24 28000000 		.4byte	0x28
 7404 1a28 02       		.uleb128 0x2
 7405 1a29 91       		.byte	0x91
 7406 1a2a 74       		.sleb128 -12
 7407 1a2b 37       		.uleb128 0x37
 7408 1a2c 10000000 		.4byte	.LBB14
 7409 1a30 A8000000 		.4byte	.LBE14-.LBB14
 7410 1a34 38       		.uleb128 0x38
 7411 1a35 7700     		.ascii	"w\000"
 7412 1a37 07       		.byte	0x7
 7413 1a38 9001     		.2byte	0x190
 7414 1a3a E5000000 		.4byte	0xe5
 7415 1a3e 02       		.uleb128 0x2
 7416 1a3f 91       		.byte	0x91
 7417 1a40 60       		.sleb128 -32
 7418 1a41 38       		.uleb128 0x38
 7419 1a42 6900     		.ascii	"i\000"
 7420 1a44 07       		.byte	0x7
 7421 1a45 9001     		.2byte	0x190
 7422 1a47 E5000000 		.4byte	0xe5
 7423 1a4b 02       		.uleb128 0x2
 7424 1a4c 91       		.byte	0x91
 7425 1a4d 70       		.sleb128 -16
 7426 1a4e 38       		.uleb128 0x38
 7427 1a4f 6E7700   		.ascii	"nw\000"
 7428 1a52 07       		.byte	0x7
 7429 1a53 9101     		.2byte	0x191
 7430 1a55 28000000 		.4byte	0x28
 7431 1a59 02       		.uleb128 0x2
 7432 1a5a 91       		.byte	0x91
 7433 1a5b 6C       		.sleb128 -20
 7434 1a5c 37       		.uleb128 0x37
 7435 1a5d 1C000000 		.4byte	.LBB15
 7436 1a61 44000000 		.4byte	.LBE15-.LBB15
 7437 1a65 36       		.uleb128 0x36
 7438 1a66 FB050000 		.4byte	.LASF349
 7439 1a6a 07       		.byte	0x7
 7440 1a6b 9401     		.2byte	0x194
 7441 1a6d 28000000 		.4byte	0x28
 7442 1a71 02       		.uleb128 0x2
 7443 1a72 91       		.byte	0x91
 7444 1a73 64       		.sleb128 -28
 7445 1a74 36       		.uleb128 0x36
 7446 1a75 200A0000 		.4byte	.LASF350
 7447 1a79 07       		.byte	0x7
 7448 1a7a 9501     		.2byte	0x195
 7449 1a7c E5000000 		.4byte	0xe5
ARM GAS  /tmp/cciPs3oN.s 			page 133


 7450 1a80 02       		.uleb128 0x2
 7451 1a81 91       		.byte	0x91
 7452 1a82 68       		.sleb128 -24
 7453 1a83 00       		.byte	0
 7454 1a84 00       		.byte	0
 7455 1a85 00       		.byte	0
 7456 1a86 29       		.uleb128 0x29
 7457 1a87 09050000 		.4byte	.LASF354
 7458 1a8b 07       		.byte	0x7
 7459 1a8c BF01     		.2byte	0x1bf
 7460 1a8e 00000000 		.4byte	.LFB283
 7461 1a92 44010000 		.4byte	.LFE283-.LFB283
 7462 1a96 01       		.uleb128 0x1
 7463 1a97 9C       		.byte	0x9c
 7464 1a98 D81A0000 		.4byte	0x1ad8
 7465 1a9c 2F       		.uleb128 0x2f
 7466 1a9d 5A080000 		.4byte	.LASF334
 7467 1aa1 07       		.byte	0x7
 7468 1aa2 BF01     		.2byte	0x1bf
 7469 1aa4 400B0000 		.4byte	0xb40
 7470 1aa8 02       		.uleb128 0x2
 7471 1aa9 91       		.byte	0x91
 7472 1aaa 64       		.sleb128 -28
 7473 1aab 38       		.uleb128 0x38
 7474 1aac 73747300 		.ascii	"sts\000"
 7475 1ab0 07       		.byte	0x7
 7476 1ab1 C001     		.2byte	0x1c0
 7477 1ab3 E5000000 		.4byte	0xe5
 7478 1ab7 02       		.uleb128 0x2
 7479 1ab8 91       		.byte	0x91
 7480 1ab9 74       		.sleb128 -12
 7481 1aba 38       		.uleb128 0x38
 7482 1abb 636E7400 		.ascii	"cnt\000"
 7483 1abf 07       		.byte	0x7
 7484 1ac0 C001     		.2byte	0x1c0
 7485 1ac2 E5000000 		.4byte	0xe5
 7486 1ac6 02       		.uleb128 0x2
 7487 1ac7 91       		.byte	0x91
 7488 1ac8 70       		.sleb128 -16
 7489 1ac9 38       		.uleb128 0x38
 7490 1aca 657000   		.ascii	"ep\000"
 7491 1acd 07       		.byte	0x7
 7492 1ace C001     		.2byte	0x1c0
 7493 1ad0 E5000000 		.4byte	0xe5
 7494 1ad4 02       		.uleb128 0x2
 7495 1ad5 91       		.byte	0x91
 7496 1ad6 6C       		.sleb128 -20
 7497 1ad7 00       		.byte	0
 7498 1ad8 30       		.uleb128 0x30
 7499 1ad9 EF080000 		.4byte	.LASF355
 7500 1add 07       		.byte	0x7
 7501 1ade EE01     		.2byte	0x1ee
 7502 1ae0 D4080000 		.4byte	0x8d4
 7503 1ae4 00000000 		.4byte	.LFB284
 7504 1ae8 70010000 		.4byte	.LFE284-.LFB284
 7505 1aec 01       		.uleb128 0x1
 7506 1aed 9C       		.byte	0x9c
ARM GAS  /tmp/cciPs3oN.s 			page 134


 7507 1aee 271B0000 		.4byte	0x1b27
 7508 1af2 2F       		.uleb128 0x2f
 7509 1af3 5A080000 		.4byte	.LASF334
 7510 1af7 07       		.byte	0x7
 7511 1af8 EE01     		.2byte	0x1ee
 7512 1afa 400B0000 		.4byte	0xb40
 7513 1afe 02       		.uleb128 0x2
 7514 1aff 91       		.byte	0x91
 7515 1b00 6C       		.sleb128 -20
 7516 1b01 31       		.uleb128 0x31
 7517 1b02 657000   		.ascii	"ep\000"
 7518 1b05 07       		.byte	0x7
 7519 1b06 EE01     		.2byte	0x1ee
 7520 1b08 120A0000 		.4byte	0xa12
 7521 1b0c 02       		.uleb128 0x2
 7522 1b0d 91       		.byte	0x91
 7523 1b0e 6B       		.sleb128 -21
 7524 1b0f 37       		.uleb128 0x37
 7525 1b10 0C000000 		.4byte	.LBB16
 7526 1b14 5A010000 		.4byte	.LBE16-.LBB16
 7527 1b18 38       		.uleb128 0x38
 7528 1b19 6E00     		.ascii	"n\000"
 7529 1b1b 07       		.byte	0x7
 7530 1b1c F201     		.2byte	0x1f2
 7531 1b1e E5000000 		.4byte	0xe5
 7532 1b22 02       		.uleb128 0x2
 7533 1b23 91       		.byte	0x91
 7534 1b24 74       		.sleb128 -12
 7535 1b25 00       		.byte	0
 7536 1b26 00       		.byte	0
 7537 1b27 29       		.uleb128 0x29
 7538 1b28 2C100000 		.4byte	.LASF356
 7539 1b2c 07       		.byte	0x7
 7540 1b2d 2202     		.2byte	0x222
 7541 1b2f 00000000 		.4byte	.LFB285
 7542 1b33 44010000 		.4byte	.LFE285-.LFB285
 7543 1b37 01       		.uleb128 0x1
 7544 1b38 9C       		.byte	0x9c
 7545 1b39 921B0000 		.4byte	0x1b92
 7546 1b3d 2F       		.uleb128 0x2f
 7547 1b3e 5A080000 		.4byte	.LASF334
 7548 1b42 07       		.byte	0x7
 7549 1b43 2202     		.2byte	0x222
 7550 1b45 400B0000 		.4byte	0xb40
 7551 1b49 02       		.uleb128 0x2
 7552 1b4a 91       		.byte	0x91
 7553 1b4b 64       		.sleb128 -28
 7554 1b4c 31       		.uleb128 0x31
 7555 1b4d 657000   		.ascii	"ep\000"
 7556 1b50 07       		.byte	0x7
 7557 1b51 2202     		.2byte	0x222
 7558 1b53 120A0000 		.4byte	0xa12
 7559 1b57 02       		.uleb128 0x2
 7560 1b58 91       		.byte	0x91
 7561 1b59 63       		.sleb128 -29
 7562 1b5a 36       		.uleb128 0x36
 7563 1b5b AF100000 		.4byte	.LASF336
ARM GAS  /tmp/cciPs3oN.s 			page 135


 7564 1b5f 07       		.byte	0x7
 7565 1b60 2302     		.2byte	0x223
 7566 1b62 C4130000 		.4byte	0x13c4
 7567 1b66 02       		.uleb128 0x2
 7568 1b67 91       		.byte	0x91
 7569 1b68 74       		.sleb128 -12
 7570 1b69 36       		.uleb128 0x36
 7571 1b6a F5050000 		.4byte	.LASF357
 7572 1b6e 07       		.byte	0x7
 7573 1b6f 2402     		.2byte	0x224
 7574 1b71 E5000000 		.4byte	0xe5
 7575 1b75 02       		.uleb128 0x2
 7576 1b76 91       		.byte	0x91
 7577 1b77 70       		.sleb128 -16
 7578 1b78 37       		.uleb128 0x37
 7579 1b79 4E000000 		.4byte	.LBB17
 7580 1b7d 8E000000 		.4byte	.LBE17-.LBB17
 7581 1b81 38       		.uleb128 0x38
 7582 1b82 69737000 		.ascii	"isp\000"
 7583 1b86 07       		.byte	0x7
 7584 1b87 2D02     		.2byte	0x22d
 7585 1b89 1C130000 		.4byte	0x131c
 7586 1b8d 02       		.uleb128 0x2
 7587 1b8e 91       		.byte	0x91
 7588 1b8f 6C       		.sleb128 -20
 7589 1b90 00       		.byte	0
 7590 1b91 00       		.byte	0
 7591 1b92 29       		.uleb128 0x29
 7592 1b93 BF050000 		.4byte	.LASF358
 7593 1b97 07       		.byte	0x7
 7594 1b98 5202     		.2byte	0x252
 7595 1b9a 00000000 		.4byte	.LFB286
 7596 1b9e 14010000 		.4byte	.LFE286-.LFB286
 7597 1ba2 01       		.uleb128 0x1
 7598 1ba3 9C       		.byte	0x9c
 7599 1ba4 FD1B0000 		.4byte	0x1bfd
 7600 1ba8 2F       		.uleb128 0x2f
 7601 1ba9 5A080000 		.4byte	.LASF334
 7602 1bad 07       		.byte	0x7
 7603 1bae 5202     		.2byte	0x252
 7604 1bb0 400B0000 		.4byte	0xb40
 7605 1bb4 02       		.uleb128 0x2
 7606 1bb5 91       		.byte	0x91
 7607 1bb6 64       		.sleb128 -28
 7608 1bb7 31       		.uleb128 0x31
 7609 1bb8 657000   		.ascii	"ep\000"
 7610 1bbb 07       		.byte	0x7
 7611 1bbc 5202     		.2byte	0x252
 7612 1bbe 120A0000 		.4byte	0xa12
 7613 1bc2 02       		.uleb128 0x2
 7614 1bc3 91       		.byte	0x91
 7615 1bc4 63       		.sleb128 -29
 7616 1bc5 36       		.uleb128 0x36
 7617 1bc6 AF100000 		.4byte	.LASF336
 7618 1bca 07       		.byte	0x7
 7619 1bcb 5302     		.2byte	0x253
 7620 1bcd C4130000 		.4byte	0x13c4
ARM GAS  /tmp/cciPs3oN.s 			page 136


 7621 1bd1 02       		.uleb128 0x2
 7622 1bd2 91       		.byte	0x91
 7623 1bd3 74       		.sleb128 -12
 7624 1bd4 36       		.uleb128 0x36
 7625 1bd5 F5050000 		.4byte	.LASF357
 7626 1bd9 07       		.byte	0x7
 7627 1bda 5402     		.2byte	0x254
 7628 1bdc E5000000 		.4byte	0xe5
 7629 1be0 02       		.uleb128 0x2
 7630 1be1 91       		.byte	0x91
 7631 1be2 70       		.sleb128 -16
 7632 1be3 37       		.uleb128 0x37
 7633 1be4 80000000 		.4byte	.LBB18
 7634 1be8 8E000000 		.4byte	.LBE18-.LBB18
 7635 1bec 38       		.uleb128 0x38
 7636 1bed 6F737000 		.ascii	"osp\000"
 7637 1bf1 07       		.byte	0x7
 7638 1bf2 6102     		.2byte	0x261
 7639 1bf4 22130000 		.4byte	0x1322
 7640 1bf8 02       		.uleb128 0x2
 7641 1bf9 91       		.byte	0x91
 7642 1bfa 6C       		.sleb128 -20
 7643 1bfb 00       		.byte	0
 7644 1bfc 00       		.byte	0
 7645 1bfd 29       		.uleb128 0x29
 7646 1bfe 8A070000 		.4byte	.LASF359
 7647 1c02 07       		.byte	0x7
 7648 1c03 7C02     		.2byte	0x27c
 7649 1c05 00000000 		.4byte	.LFB287
 7650 1c09 B0010000 		.4byte	.LFE287-.LFB287
 7651 1c0d 01       		.uleb128 0x1
 7652 1c0e 9C       		.byte	0x9c
 7653 1c0f 501C0000 		.4byte	0x1c50
 7654 1c13 2F       		.uleb128 0x2f
 7655 1c14 5A080000 		.4byte	.LASF334
 7656 1c18 07       		.byte	0x7
 7657 1c19 7C02     		.2byte	0x27c
 7658 1c1b 400B0000 		.4byte	0xb40
 7659 1c1f 02       		.uleb128 0x2
 7660 1c20 91       		.byte	0x91
 7661 1c21 64       		.sleb128 -28
 7662 1c22 36       		.uleb128 0x36
 7663 1c23 AF100000 		.4byte	.LASF336
 7664 1c27 07       		.byte	0x7
 7665 1c28 7D02     		.2byte	0x27d
 7666 1c2a C4130000 		.4byte	0x13c4
 7667 1c2e 02       		.uleb128 0x2
 7668 1c2f 91       		.byte	0x91
 7669 1c30 74       		.sleb128 -12
 7670 1c31 38       		.uleb128 0x38
 7671 1c32 73747300 		.ascii	"sts\000"
 7672 1c36 07       		.byte	0x7
 7673 1c37 7E02     		.2byte	0x27e
 7674 1c39 E5000000 		.4byte	0xe5
 7675 1c3d 02       		.uleb128 0x2
 7676 1c3e 91       		.byte	0x91
 7677 1c3f 70       		.sleb128 -16
ARM GAS  /tmp/cciPs3oN.s 			page 137


 7678 1c40 38       		.uleb128 0x38
 7679 1c41 73726300 		.ascii	"src\000"
 7680 1c45 07       		.byte	0x7
 7681 1c46 7E02     		.2byte	0x27e
 7682 1c48 E5000000 		.4byte	0xe5
 7683 1c4c 02       		.uleb128 0x2
 7684 1c4d 91       		.byte	0x91
 7685 1c4e 6C       		.sleb128 -20
 7686 1c4f 00       		.byte	0
 7687 1c50 3A       		.uleb128 0x3a
 7688 1c51 710A0000 		.4byte	.LASF360
 7689 1c55 07       		.byte	0x7
 7690 1c56 E902     		.2byte	0x2e9
 7691 1c58 00000000 		.4byte	.LFB288
 7692 1c5c 14000000 		.4byte	.LFE288-.LFB288
 7693 1c60 01       		.uleb128 0x1
 7694 1c61 9C       		.byte	0x9c
 7695 1c62 3A       		.uleb128 0x3a
 7696 1c63 5A0A0000 		.4byte	.LASF361
 7697 1c67 07       		.byte	0x7
 7698 1c68 0F03     		.2byte	0x30f
 7699 1c6a 00000000 		.4byte	.LFB289
 7700 1c6e 2C000000 		.4byte	.LFE289-.LFB289
 7701 1c72 01       		.uleb128 0x1
 7702 1c73 9C       		.byte	0x9c
 7703 1c74 3B       		.uleb128 0x3b
 7704 1c75 0E0F0000 		.4byte	.LASF362
 7705 1c79 07       		.byte	0x7
 7706 1c7a 4D03     		.2byte	0x34d
 7707 1c7c 00000000 		.4byte	.LFB290
 7708 1c80 18010000 		.4byte	.LFE290-.LFB290
 7709 1c84 01       		.uleb128 0x1
 7710 1c85 9C       		.byte	0x9c
 7711 1c86 A91C0000 		.4byte	0x1ca9
 7712 1c8a 2F       		.uleb128 0x2f
 7713 1c8b 5A080000 		.4byte	.LASF334
 7714 1c8f 07       		.byte	0x7
 7715 1c90 4D03     		.2byte	0x34d
 7716 1c92 400B0000 		.4byte	0xb40
 7717 1c96 02       		.uleb128 0x2
 7718 1c97 91       		.byte	0x91
 7719 1c98 6C       		.sleb128 -20
 7720 1c99 36       		.uleb128 0x36
 7721 1c9a AF100000 		.4byte	.LASF336
 7722 1c9e 07       		.byte	0x7
 7723 1c9f 4E03     		.2byte	0x34e
 7724 1ca1 C4130000 		.4byte	0x13c4
 7725 1ca5 02       		.uleb128 0x2
 7726 1ca6 91       		.byte	0x91
 7727 1ca7 74       		.sleb128 -12
 7728 1ca8 00       		.byte	0
 7729 1ca9 3B       		.uleb128 0x3b
 7730 1caa 34020000 		.4byte	.LASF363
 7731 1cae 07       		.byte	0x7
 7732 1caf DD03     		.2byte	0x3dd
 7733 1cb1 00000000 		.4byte	.LFB291
 7734 1cb5 5C000000 		.4byte	.LFE291-.LFB291
ARM GAS  /tmp/cciPs3oN.s 			page 138


 7735 1cb9 01       		.uleb128 0x1
 7736 1cba 9C       		.byte	0x9c
 7737 1cbb DE1C0000 		.4byte	0x1cde
 7738 1cbf 2F       		.uleb128 0x2f
 7739 1cc0 5A080000 		.4byte	.LASF334
 7740 1cc4 07       		.byte	0x7
 7741 1cc5 DD03     		.2byte	0x3dd
 7742 1cc7 400B0000 		.4byte	0xb40
 7743 1ccb 02       		.uleb128 0x2
 7744 1ccc 91       		.byte	0x91
 7745 1ccd 6C       		.sleb128 -20
 7746 1cce 36       		.uleb128 0x36
 7747 1ccf AF100000 		.4byte	.LASF336
 7748 1cd3 07       		.byte	0x7
 7749 1cd4 DE03     		.2byte	0x3de
 7750 1cd6 C4130000 		.4byte	0x13c4
 7751 1cda 02       		.uleb128 0x2
 7752 1cdb 91       		.byte	0x91
 7753 1cdc 74       		.sleb128 -12
 7754 1cdd 00       		.byte	0
 7755 1cde 3B       		.uleb128 0x3b
 7756 1cdf 2F0B0000 		.4byte	.LASF364
 7757 1ce3 07       		.byte	0x7
 7758 1ce4 0704     		.2byte	0x407
 7759 1ce6 00000000 		.4byte	.LFB292
 7760 1cea 28010000 		.4byte	.LFE292-.LFB292
 7761 1cee 01       		.uleb128 0x1
 7762 1cef 9C       		.byte	0x9c
 7763 1cf0 201D0000 		.4byte	0x1d20
 7764 1cf4 2F       		.uleb128 0x2f
 7765 1cf5 5A080000 		.4byte	.LASF334
 7766 1cf9 07       		.byte	0x7
 7767 1cfa 0704     		.2byte	0x407
 7768 1cfc 400B0000 		.4byte	0xb40
 7769 1d00 02       		.uleb128 0x2
 7770 1d01 91       		.byte	0x91
 7771 1d02 6C       		.sleb128 -20
 7772 1d03 38       		.uleb128 0x38
 7773 1d04 6900     		.ascii	"i\000"
 7774 1d06 07       		.byte	0x7
 7775 1d07 0804     		.2byte	0x408
 7776 1d09 33000000 		.4byte	0x33
 7777 1d0d 02       		.uleb128 0x2
 7778 1d0e 91       		.byte	0x91
 7779 1d0f 74       		.sleb128 -12
 7780 1d10 36       		.uleb128 0x36
 7781 1d11 AF100000 		.4byte	.LASF336
 7782 1d15 07       		.byte	0x7
 7783 1d16 0904     		.2byte	0x409
 7784 1d18 C4130000 		.4byte	0x13c4
 7785 1d1c 02       		.uleb128 0x2
 7786 1d1d 91       		.byte	0x91
 7787 1d1e 70       		.sleb128 -16
 7788 1d1f 00       		.byte	0
 7789 1d20 3C       		.uleb128 0x3c
 7790 1d21 3D0B0000 		.4byte	.LASF365
 7791 1d25 07       		.byte	0x7
ARM GAS  /tmp/cciPs3oN.s 			page 139


 7792 1d26 3D04     		.2byte	0x43d
 7793 1d28 00000000 		.4byte	.LFB293
 7794 1d2c 28000000 		.4byte	.LFE293-.LFB293
 7795 1d30 01       		.uleb128 0x1
 7796 1d31 9C       		.byte	0x9c
 7797 1d32 551D0000 		.4byte	0x1d55
 7798 1d36 2F       		.uleb128 0x2f
 7799 1d37 5A080000 		.4byte	.LASF334
 7800 1d3b 07       		.byte	0x7
 7801 1d3c 3D04     		.2byte	0x43d
 7802 1d3e 400B0000 		.4byte	0xb40
 7803 1d42 02       		.uleb128 0x2
 7804 1d43 91       		.byte	0x91
 7805 1d44 74       		.sleb128 -12
 7806 1d45 36       		.uleb128 0x36
 7807 1d46 AF100000 		.4byte	.LASF336
 7808 1d4a 07       		.byte	0x7
 7809 1d4b 3E04     		.2byte	0x43e
 7810 1d4d C4130000 		.4byte	0x13c4
 7811 1d51 02       		.uleb128 0x2
 7812 1d52 91       		.byte	0x91
 7813 1d53 7C       		.sleb128 -4
 7814 1d54 00       		.byte	0
 7815 1d55 3B       		.uleb128 0x3b
 7816 1d56 FD010000 		.4byte	.LASF366
 7817 1d5a 07       		.byte	0x7
 7818 1d5b 4B04     		.2byte	0x44b
 7819 1d5d 00000000 		.4byte	.LFB294
 7820 1d61 58020000 		.4byte	.LFE294-.LFB294
 7821 1d65 01       		.uleb128 0x1
 7822 1d66 9C       		.byte	0x9c
 7823 1d67 B61D0000 		.4byte	0x1db6
 7824 1d6b 2F       		.uleb128 0x2f
 7825 1d6c 5A080000 		.4byte	.LASF334
 7826 1d70 07       		.byte	0x7
 7827 1d71 4B04     		.2byte	0x44b
 7828 1d73 400B0000 		.4byte	0xb40
 7829 1d77 02       		.uleb128 0x2
 7830 1d78 91       		.byte	0x91
 7831 1d79 5C       		.sleb128 -36
 7832 1d7a 31       		.uleb128 0x31
 7833 1d7b 657000   		.ascii	"ep\000"
 7834 1d7e 07       		.byte	0x7
 7835 1d7f 4B04     		.2byte	0x44b
 7836 1d81 120A0000 		.4byte	0xa12
 7837 1d85 02       		.uleb128 0x2
 7838 1d86 91       		.byte	0x91
 7839 1d87 5B       		.sleb128 -37
 7840 1d88 38       		.uleb128 0x38
 7841 1d89 63746C00 		.ascii	"ctl\000"
 7842 1d8d 07       		.byte	0x7
 7843 1d8e 4C04     		.2byte	0x44c
 7844 1d90 E5000000 		.4byte	0xe5
 7845 1d94 02       		.uleb128 0x2
 7846 1d95 91       		.byte	0x91
 7847 1d96 6C       		.sleb128 -20
 7848 1d97 36       		.uleb128 0x36
ARM GAS  /tmp/cciPs3oN.s 			page 140


 7849 1d98 D7010000 		.4byte	.LASF367
 7850 1d9c 07       		.byte	0x7
 7851 1d9d 4C04     		.2byte	0x44c
 7852 1d9f E5000000 		.4byte	0xe5
 7853 1da3 02       		.uleb128 0x2
 7854 1da4 91       		.byte	0x91
 7855 1da5 68       		.sleb128 -24
 7856 1da6 36       		.uleb128 0x36
 7857 1da7 AF100000 		.4byte	.LASF336
 7858 1dab 07       		.byte	0x7
 7859 1dac 4D04     		.2byte	0x44d
 7860 1dae C4130000 		.4byte	0x13c4
 7861 1db2 02       		.uleb128 0x2
 7862 1db3 91       		.byte	0x91
 7863 1db4 64       		.sleb128 -28
 7864 1db5 00       		.byte	0
 7865 1db6 3B       		.uleb128 0x3b
 7866 1db7 510C0000 		.4byte	.LASF368
 7867 1dbb 07       		.byte	0x7
 7868 1dbc 8B04     		.2byte	0x48b
 7869 1dbe 00000000 		.4byte	.LFB295
 7870 1dc2 18000000 		.4byte	.LFE295-.LFB295
 7871 1dc6 01       		.uleb128 0x1
 7872 1dc7 9C       		.byte	0x9c
 7873 1dc8 DC1D0000 		.4byte	0x1ddc
 7874 1dcc 2F       		.uleb128 0x2f
 7875 1dcd 5A080000 		.4byte	.LASF334
 7876 1dd1 07       		.byte	0x7
 7877 1dd2 8B04     		.2byte	0x48b
 7878 1dd4 400B0000 		.4byte	0xb40
 7879 1dd8 02       		.uleb128 0x2
 7880 1dd9 91       		.byte	0x91
 7881 1dda 74       		.sleb128 -12
 7882 1ddb 00       		.byte	0
 7883 1ddc 3D       		.uleb128 0x3d
 7884 1ddd F70E0000 		.4byte	.LASF369
 7885 1de1 07       		.byte	0x7
 7886 1de2 A004     		.2byte	0x4a0
 7887 1de4 6D0A0000 		.4byte	0xa6d
 7888 1de8 00000000 		.4byte	.LFB296
 7889 1dec 40000000 		.4byte	.LFE296-.LFB296
 7890 1df0 01       		.uleb128 0x1
 7891 1df1 9C       		.byte	0x9c
 7892 1df2 231E0000 		.4byte	0x1e23
 7893 1df6 2F       		.uleb128 0x2f
 7894 1df7 5A080000 		.4byte	.LASF334
 7895 1dfb 07       		.byte	0x7
 7896 1dfc A004     		.2byte	0x4a0
 7897 1dfe 400B0000 		.4byte	0xb40
 7898 1e02 02       		.uleb128 0x2
 7899 1e03 91       		.byte	0x91
 7900 1e04 74       		.sleb128 -12
 7901 1e05 31       		.uleb128 0x31
 7902 1e06 657000   		.ascii	"ep\000"
 7903 1e09 07       		.byte	0x7
 7904 1e0a A004     		.2byte	0x4a0
 7905 1e0c 120A0000 		.4byte	0xa12
ARM GAS  /tmp/cciPs3oN.s 			page 141


 7906 1e10 02       		.uleb128 0x2
 7907 1e11 91       		.byte	0x91
 7908 1e12 73       		.sleb128 -13
 7909 1e13 38       		.uleb128 0x38
 7910 1e14 63746C00 		.ascii	"ctl\000"
 7911 1e18 07       		.byte	0x7
 7912 1e19 A104     		.2byte	0x4a1
 7913 1e1b E5000000 		.4byte	0xe5
 7914 1e1f 02       		.uleb128 0x2
 7915 1e20 91       		.byte	0x91
 7916 1e21 7C       		.sleb128 -4
 7917 1e22 00       		.byte	0
 7918 1e23 3D       		.uleb128 0x3d
 7919 1e24 CB000000 		.4byte	.LASF370
 7920 1e28 07       		.byte	0x7
 7921 1e29 B904     		.2byte	0x4b9
 7922 1e2b 6D0A0000 		.4byte	0xa6d
 7923 1e2f 00000000 		.4byte	.LFB297
 7924 1e33 40000000 		.4byte	.LFE297-.LFB297
 7925 1e37 01       		.uleb128 0x1
 7926 1e38 9C       		.byte	0x9c
 7927 1e39 6A1E0000 		.4byte	0x1e6a
 7928 1e3d 2F       		.uleb128 0x2f
 7929 1e3e 5A080000 		.4byte	.LASF334
 7930 1e42 07       		.byte	0x7
 7931 1e43 B904     		.2byte	0x4b9
 7932 1e45 400B0000 		.4byte	0xb40
 7933 1e49 02       		.uleb128 0x2
 7934 1e4a 91       		.byte	0x91
 7935 1e4b 74       		.sleb128 -12
 7936 1e4c 31       		.uleb128 0x31
 7937 1e4d 657000   		.ascii	"ep\000"
 7938 1e50 07       		.byte	0x7
 7939 1e51 B904     		.2byte	0x4b9
 7940 1e53 120A0000 		.4byte	0xa12
 7941 1e57 02       		.uleb128 0x2
 7942 1e58 91       		.byte	0x91
 7943 1e59 73       		.sleb128 -13
 7944 1e5a 38       		.uleb128 0x38
 7945 1e5b 63746C00 		.ascii	"ctl\000"
 7946 1e5f 07       		.byte	0x7
 7947 1e60 BA04     		.2byte	0x4ba
 7948 1e62 E5000000 		.4byte	0xe5
 7949 1e66 02       		.uleb128 0x2
 7950 1e67 91       		.byte	0x91
 7951 1e68 7C       		.sleb128 -4
 7952 1e69 00       		.byte	0
 7953 1e6a 3B       		.uleb128 0x3b
 7954 1e6b 32050000 		.4byte	.LASF371
 7955 1e6f 07       		.byte	0x7
 7956 1e70 D404     		.2byte	0x4d4
 7957 1e72 00000000 		.4byte	.LFB298
 7958 1e76 2E000000 		.4byte	.LFE298-.LFB298
 7959 1e7a 01       		.uleb128 0x1
 7960 1e7b 9C       		.byte	0x9c
 7961 1e7c AD1E0000 		.4byte	0x1ead
 7962 1e80 2F       		.uleb128 0x2f
ARM GAS  /tmp/cciPs3oN.s 			page 142


 7963 1e81 5A080000 		.4byte	.LASF334
 7964 1e85 07       		.byte	0x7
 7965 1e86 D404     		.2byte	0x4d4
 7966 1e88 400B0000 		.4byte	0xb40
 7967 1e8c 02       		.uleb128 0x2
 7968 1e8d 91       		.byte	0x91
 7969 1e8e 74       		.sleb128 -12
 7970 1e8f 31       		.uleb128 0x31
 7971 1e90 657000   		.ascii	"ep\000"
 7972 1e93 07       		.byte	0x7
 7973 1e94 D404     		.2byte	0x4d4
 7974 1e96 120A0000 		.4byte	0xa12
 7975 1e9a 02       		.uleb128 0x2
 7976 1e9b 91       		.byte	0x91
 7977 1e9c 73       		.sleb128 -13
 7978 1e9d 31       		.uleb128 0x31
 7979 1e9e 62756600 		.ascii	"buf\000"
 7980 1ea2 07       		.byte	0x7
 7981 1ea3 D404     		.2byte	0x4d4
 7982 1ea5 A7080000 		.4byte	0x8a7
 7983 1ea9 02       		.uleb128 0x2
 7984 1eaa 91       		.byte	0x91
 7985 1eab 6C       		.sleb128 -20
 7986 1eac 00       		.byte	0
 7987 1ead 3C       		.uleb128 0x3c
 7988 1eae DB0C0000 		.4byte	.LASF372
 7989 1eb2 07       		.byte	0x7
 7990 1eb3 E104     		.2byte	0x4e1
 7991 1eb5 00000000 		.4byte	.LFB299
 7992 1eb9 8C000000 		.4byte	.LFE299-.LFB299
 7993 1ebd 01       		.uleb128 0x1
 7994 1ebe 9C       		.byte	0x9c
 7995 1ebf FF1E0000 		.4byte	0x1eff
 7996 1ec3 2F       		.uleb128 0x2f
 7997 1ec4 5A080000 		.4byte	.LASF334
 7998 1ec8 07       		.byte	0x7
 7999 1ec9 E104     		.2byte	0x4e1
 8000 1ecb 400B0000 		.4byte	0xb40
 8001 1ecf 02       		.uleb128 0x2
 8002 1ed0 91       		.byte	0x91
 8003 1ed1 74       		.sleb128 -12
 8004 1ed2 31       		.uleb128 0x31
 8005 1ed3 657000   		.ascii	"ep\000"
 8006 1ed6 07       		.byte	0x7
 8007 1ed7 E104     		.2byte	0x4e1
 8008 1ed9 120A0000 		.4byte	0xa12
 8009 1edd 02       		.uleb128 0x2
 8010 1ede 91       		.byte	0x91
 8011 1edf 73       		.sleb128 -13
 8012 1ee0 36       		.uleb128 0x36
 8013 1ee1 FE040000 		.4byte	.LASF373
 8014 1ee5 07       		.byte	0x7
 8015 1ee6 E204     		.2byte	0x4e2
 8016 1ee8 E5000000 		.4byte	0xe5
 8017 1eec 02       		.uleb128 0x2
 8018 1eed 91       		.byte	0x91
 8019 1eee 78       		.sleb128 -8
ARM GAS  /tmp/cciPs3oN.s 			page 143


 8020 1eef 38       		.uleb128 0x38
 8021 1ef0 6F737000 		.ascii	"osp\000"
 8022 1ef4 07       		.byte	0x7
 8023 1ef5 E304     		.2byte	0x4e3
 8024 1ef7 22130000 		.4byte	0x1322
 8025 1efb 02       		.uleb128 0x2
 8026 1efc 91       		.byte	0x91
 8027 1efd 7C       		.sleb128 -4
 8028 1efe 00       		.byte	0
 8029 1eff 3C       		.uleb128 0x3c
 8030 1f00 15080000 		.4byte	.LASF374
 8031 1f04 07       		.byte	0x7
 8032 1f05 F904     		.2byte	0x4f9
 8033 1f07 00000000 		.4byte	.LFB300
 8034 1f0b A8000000 		.4byte	.LFE300-.LFB300
 8035 1f0f 01       		.uleb128 0x1
 8036 1f10 9C       		.byte	0x9c
 8037 1f11 5B1F0000 		.4byte	0x1f5b
 8038 1f15 2F       		.uleb128 0x2f
 8039 1f16 5A080000 		.4byte	.LASF334
 8040 1f1a 07       		.byte	0x7
 8041 1f1b F904     		.2byte	0x4f9
 8042 1f1d 400B0000 		.4byte	0xb40
 8043 1f21 02       		.uleb128 0x2
 8044 1f22 91       		.byte	0x91
 8045 1f23 74       		.sleb128 -12
 8046 1f24 31       		.uleb128 0x31
 8047 1f25 657000   		.ascii	"ep\000"
 8048 1f28 07       		.byte	0x7
 8049 1f29 F904     		.2byte	0x4f9
 8050 1f2b 120A0000 		.4byte	0xa12
 8051 1f2f 02       		.uleb128 0x2
 8052 1f30 91       		.byte	0x91
 8053 1f31 73       		.sleb128 -13
 8054 1f32 38       		.uleb128 0x38
 8055 1f33 69737000 		.ascii	"isp\000"
 8056 1f37 07       		.byte	0x7
 8057 1f38 FA04     		.2byte	0x4fa
 8058 1f3a 1C130000 		.4byte	0x131c
 8059 1f3e 02       		.uleb128 0x2
 8060 1f3f 91       		.byte	0x91
 8061 1f40 7C       		.sleb128 -4
 8062 1f41 37       		.uleb128 0x37
 8063 1f42 44000000 		.4byte	.LBB19
 8064 1f46 60000000 		.4byte	.LBE19-.LBB19
 8065 1f4a 36       		.uleb128 0x36
 8066 1f4b FE040000 		.4byte	.LASF373
 8067 1f4f 07       		.byte	0x7
 8068 1f50 0705     		.2byte	0x507
 8069 1f52 E5000000 		.4byte	0xe5
 8070 1f56 02       		.uleb128 0x2
 8071 1f57 91       		.byte	0x91
 8072 1f58 78       		.sleb128 -8
 8073 1f59 00       		.byte	0
 8074 1f5a 00       		.byte	0
 8075 1f5b 3C       		.uleb128 0x3c
 8076 1f5c B90A0000 		.4byte	.LASF375
ARM GAS  /tmp/cciPs3oN.s 			page 144


 8077 1f60 07       		.byte	0x7
 8078 1f61 1605     		.2byte	0x516
 8079 1f63 00000000 		.4byte	.LFB301
 8080 1f67 32000000 		.4byte	.LFE301-.LFB301
 8081 1f6b 01       		.uleb128 0x1
 8082 1f6c 9C       		.byte	0x9c
 8083 1f6d 8F1F0000 		.4byte	0x1f8f
 8084 1f71 2F       		.uleb128 0x2f
 8085 1f72 5A080000 		.4byte	.LASF334
 8086 1f76 07       		.byte	0x7
 8087 1f77 1605     		.2byte	0x516
 8088 1f79 400B0000 		.4byte	0xb40
 8089 1f7d 02       		.uleb128 0x2
 8090 1f7e 91       		.byte	0x91
 8091 1f7f 7C       		.sleb128 -4
 8092 1f80 31       		.uleb128 0x31
 8093 1f81 657000   		.ascii	"ep\000"
 8094 1f84 07       		.byte	0x7
 8095 1f85 1605     		.2byte	0x516
 8096 1f87 120A0000 		.4byte	0xa12
 8097 1f8b 02       		.uleb128 0x2
 8098 1f8c 91       		.byte	0x91
 8099 1f8d 7B       		.sleb128 -5
 8100 1f8e 00       		.byte	0
 8101 1f8f 3C       		.uleb128 0x3c
 8102 1f90 120C0000 		.4byte	.LASF376
 8103 1f94 07       		.byte	0x7
 8104 1f95 2305     		.2byte	0x523
 8105 1f97 00000000 		.4byte	.LFB302
 8106 1f9b 4E000000 		.4byte	.LFE302-.LFB302
 8107 1f9f 01       		.uleb128 0x1
 8108 1fa0 9C       		.byte	0x9c
 8109 1fa1 C31F0000 		.4byte	0x1fc3
 8110 1fa5 2F       		.uleb128 0x2f
 8111 1fa6 5A080000 		.4byte	.LASF334
 8112 1faa 07       		.byte	0x7
 8113 1fab 2305     		.2byte	0x523
 8114 1fad 400B0000 		.4byte	0xb40
 8115 1fb1 02       		.uleb128 0x2
 8116 1fb2 91       		.byte	0x91
 8117 1fb3 7C       		.sleb128 -4
 8118 1fb4 31       		.uleb128 0x31
 8119 1fb5 657000   		.ascii	"ep\000"
 8120 1fb8 07       		.byte	0x7
 8121 1fb9 2305     		.2byte	0x523
 8122 1fbb 120A0000 		.4byte	0xa12
 8123 1fbf 02       		.uleb128 0x2
 8124 1fc0 91       		.byte	0x91
 8125 1fc1 7B       		.sleb128 -5
 8126 1fc2 00       		.byte	0
 8127 1fc3 3C       		.uleb128 0x3c
 8128 1fc4 07000000 		.4byte	.LASF377
 8129 1fc8 07       		.byte	0x7
 8130 1fc9 3105     		.2byte	0x531
 8131 1fcb 00000000 		.4byte	.LFB303
 8132 1fcf 32000000 		.4byte	.LFE303-.LFB303
 8133 1fd3 01       		.uleb128 0x1
ARM GAS  /tmp/cciPs3oN.s 			page 145


 8134 1fd4 9C       		.byte	0x9c
 8135 1fd5 F71F0000 		.4byte	0x1ff7
 8136 1fd9 2F       		.uleb128 0x2f
 8137 1fda 5A080000 		.4byte	.LASF334
 8138 1fde 07       		.byte	0x7
 8139 1fdf 3105     		.2byte	0x531
 8140 1fe1 400B0000 		.4byte	0xb40
 8141 1fe5 02       		.uleb128 0x2
 8142 1fe6 91       		.byte	0x91
 8143 1fe7 7C       		.sleb128 -4
 8144 1fe8 31       		.uleb128 0x31
 8145 1fe9 657000   		.ascii	"ep\000"
 8146 1fec 07       		.byte	0x7
 8147 1fed 3105     		.2byte	0x531
 8148 1fef 120A0000 		.4byte	0xa12
 8149 1ff3 02       		.uleb128 0x2
 8150 1ff4 91       		.byte	0x91
 8151 1ff5 7B       		.sleb128 -5
 8152 1ff6 00       		.byte	0
 8153 1ff7 3C       		.uleb128 0x3c
 8154 1ff8 950A0000 		.4byte	.LASF378
 8155 1ffc 07       		.byte	0x7
 8156 1ffd 3E05     		.2byte	0x53e
 8157 1fff 00000000 		.4byte	.LFB304
 8158 2003 32000000 		.4byte	.LFE304-.LFB304
 8159 2007 01       		.uleb128 0x1
 8160 2008 9C       		.byte	0x9c
 8161 2009 2B200000 		.4byte	0x202b
 8162 200d 2F       		.uleb128 0x2f
 8163 200e 5A080000 		.4byte	.LASF334
 8164 2012 07       		.byte	0x7
 8165 2013 3E05     		.2byte	0x53e
 8166 2015 400B0000 		.4byte	0xb40
 8167 2019 02       		.uleb128 0x2
 8168 201a 91       		.byte	0x91
 8169 201b 7C       		.sleb128 -4
 8170 201c 31       		.uleb128 0x31
 8171 201d 657000   		.ascii	"ep\000"
 8172 2020 07       		.byte	0x7
 8173 2021 3E05     		.2byte	0x53e
 8174 2023 120A0000 		.4byte	0xa12
 8175 2027 02       		.uleb128 0x2
 8176 2028 91       		.byte	0x91
 8177 2029 7B       		.sleb128 -5
 8178 202a 00       		.byte	0
 8179 202b 3C       		.uleb128 0x3c
 8180 202c B9000000 		.4byte	.LASF379
 8181 2030 07       		.byte	0x7
 8182 2031 4B05     		.2byte	0x54b
 8183 2033 00000000 		.4byte	.LFB305
 8184 2037 32000000 		.4byte	.LFE305-.LFB305
 8185 203b 01       		.uleb128 0x1
 8186 203c 9C       		.byte	0x9c
 8187 203d 5F200000 		.4byte	0x205f
 8188 2041 2F       		.uleb128 0x2f
 8189 2042 5A080000 		.4byte	.LASF334
 8190 2046 07       		.byte	0x7
ARM GAS  /tmp/cciPs3oN.s 			page 146


 8191 2047 4B05     		.2byte	0x54b
 8192 2049 400B0000 		.4byte	0xb40
 8193 204d 02       		.uleb128 0x2
 8194 204e 91       		.byte	0x91
 8195 204f 7C       		.sleb128 -4
 8196 2050 31       		.uleb128 0x31
 8197 2051 657000   		.ascii	"ep\000"
 8198 2054 07       		.byte	0x7
 8199 2055 4B05     		.2byte	0x54b
 8200 2057 120A0000 		.4byte	0xa12
 8201 205b 02       		.uleb128 0x2
 8202 205c 91       		.byte	0x91
 8203 205d 7B       		.sleb128 -5
 8204 205e 00       		.byte	0
 8205 205f 3C       		.uleb128 0x3c
 8206 2060 8E0F0000 		.4byte	.LASF380
 8207 2064 07       		.byte	0x7
 8208 2065 5805     		.2byte	0x558
 8209 2067 00000000 		.4byte	.LFB306
 8210 206b 32000000 		.4byte	.LFE306-.LFB306
 8211 206f 01       		.uleb128 0x1
 8212 2070 9C       		.byte	0x9c
 8213 2071 93200000 		.4byte	0x2093
 8214 2075 2F       		.uleb128 0x2f
 8215 2076 5A080000 		.4byte	.LASF334
 8216 207a 07       		.byte	0x7
 8217 207b 5805     		.2byte	0x558
 8218 207d 400B0000 		.4byte	0xb40
 8219 2081 02       		.uleb128 0x2
 8220 2082 91       		.byte	0x91
 8221 2083 7C       		.sleb128 -4
 8222 2084 31       		.uleb128 0x31
 8223 2085 657000   		.ascii	"ep\000"
 8224 2088 07       		.byte	0x7
 8225 2089 5805     		.2byte	0x558
 8226 208b 120A0000 		.4byte	0xa12
 8227 208f 02       		.uleb128 0x2
 8228 2090 91       		.byte	0x91
 8229 2091 7B       		.sleb128 -5
 8230 2092 00       		.byte	0
 8231 2093 3B       		.uleb128 0x3b
 8232 2094 510B0000 		.4byte	.LASF381
 8233 2098 07       		.byte	0x7
 8234 2099 6805     		.2byte	0x568
 8235 209b 00000000 		.4byte	.LFB307
 8236 209f 0C010000 		.4byte	.LFE307-.LFB307
 8237 20a3 01       		.uleb128 0x1
 8238 20a4 9C       		.byte	0x9c
 8239 20a5 15210000 		.4byte	0x2115
 8240 20a9 31       		.uleb128 0x31
 8241 20aa 7000     		.ascii	"p\000"
 8242 20ac 07       		.byte	0x7
 8243 20ad 6805     		.2byte	0x568
 8244 20af B0000000 		.4byte	0xb0
 8245 20b3 02       		.uleb128 0x2
 8246 20b4 91       		.byte	0x91
 8247 20b5 5C       		.sleb128 -36
ARM GAS  /tmp/cciPs3oN.s 			page 147


 8248 20b6 36       		.uleb128 0x36
 8249 20b7 5A080000 		.4byte	.LASF334
 8250 20bb 07       		.byte	0x7
 8251 20bc 6905     		.2byte	0x569
 8252 20be 400B0000 		.4byte	0xb40
 8253 20c2 02       		.uleb128 0x2
 8254 20c3 91       		.byte	0x91
 8255 20c4 70       		.sleb128 -16
 8256 20c5 36       		.uleb128 0x36
 8257 20c6 AF100000 		.4byte	.LASF336
 8258 20ca 07       		.byte	0x7
 8259 20cb 6A05     		.2byte	0x56a
 8260 20cd C4130000 		.4byte	0x13c4
 8261 20d1 02       		.uleb128 0x2
 8262 20d2 91       		.byte	0x91
 8263 20d3 6C       		.sleb128 -20
 8264 20d4 37       		.uleb128 0x37
 8265 20d5 1A000000 		.4byte	.LBB20
 8266 20d9 EC000000 		.4byte	.LBE20-.LBB20
 8267 20dd 38       		.uleb128 0x38
 8268 20de 657000   		.ascii	"ep\000"
 8269 20e1 07       		.byte	0x7
 8270 20e2 7105     		.2byte	0x571
 8271 20e4 120A0000 		.4byte	0xa12
 8272 20e8 02       		.uleb128 0x2
 8273 20e9 91       		.byte	0x91
 8274 20ea 77       		.sleb128 -9
 8275 20eb 36       		.uleb128 0x36
 8276 20ec 9E050000 		.4byte	.LASF382
 8277 20f0 07       		.byte	0x7
 8278 20f1 7205     		.2byte	0x572
 8279 20f3 E5000000 		.4byte	0xe5
 8280 20f7 02       		.uleb128 0x2
 8281 20f8 91       		.byte	0x91
 8282 20f9 68       		.sleb128 -24
 8283 20fa 37       		.uleb128 0x37
 8284 20fb 84000000 		.4byte	.LBB21
 8285 20ff 66000000 		.4byte	.LBE21-.LBB21
 8286 2103 36       		.uleb128 0x36
 8287 2104 C3080000 		.4byte	.LASF383
 8288 2108 07       		.byte	0x7
 8289 2109 8605     		.2byte	0x586
 8290 210b D4080000 		.4byte	0x8d4
 8291 210f 02       		.uleb128 0x2
 8292 2110 91       		.byte	0x91
 8293 2111 67       		.sleb128 -25
 8294 2112 00       		.byte	0
 8295 2113 00       		.byte	0
 8296 2114 00       		.byte	0
 8297 2115 33       		.uleb128 0x33
 8298 2116 39040000 		.4byte	.LASF384
 8299 211a 07       		.byte	0x7
 8300 211b 55       		.byte	0x55
 8301 211c E5130000 		.4byte	0x13e5
 8302 2120 05       		.uleb128 0x5
 8303 2121 03       		.byte	0x3
 8304 2122 00000000 		.4byte	ep0_state
ARM GAS  /tmp/cciPs3oN.s 			page 148


 8305 2126 33       		.uleb128 0x33
 8306 2127 BE010000 		.4byte	.LASF385
 8307 212b 07       		.byte	0x7
 8308 212c 5A       		.byte	0x5a
 8309 212d B4130000 		.4byte	0x13b4
 8310 2131 05       		.uleb128 0x5
 8311 2132 03       		.byte	0x3
 8312 2133 00000000 		.4byte	ep0setup_buffer
 8313 2137 33       		.uleb128 0x33
 8314 2138 DE0A0000 		.4byte	.LASF386
 8315 213c 07       		.byte	0x7
 8316 213d 5F       		.byte	0x5f
 8317 213e 9F130000 		.4byte	0x139f
 8318 2142 05       		.uleb128 0x5
 8319 2143 03       		.byte	0x3
 8320 2144 00000000 		.4byte	ep0config
 8321 2148 33       		.uleb128 0x33
 8322 2149 BA080000 		.4byte	.LASF387
 8323 214d 07       		.byte	0x7
 8324 214e 6D       		.byte	0x6d
 8325 214f D0130000 		.4byte	0x13d0
 8326 2153 05       		.uleb128 0x5
 8327 2154 03       		.byte	0x3
 8328 2155 00000000 		.4byte	fsparams
 8329 2159 3E       		.uleb128 0x3e
 8330 215a E7090000 		.4byte	.LASF388
 8331 215e 17       		.byte	0x17
 8332 215f FA06     		.2byte	0x6fa
 8333 2161 FB000000 		.4byte	0xfb
 8334 2165 3F       		.uleb128 0x3f
 8335 2166 636800   		.ascii	"ch\000"
 8336 2169 0D       		.byte	0xd
 8337 216a 0902     		.2byte	0x209
 8338 216c 15040000 		.4byte	0x415
 8339 2170 40       		.uleb128 0x40
 8340 2171 B00F0000 		.4byte	.LASF389
 8341 2175 07       		.byte	0x7
 8342 2176 3B       		.byte	0x3b
 8343 2177 DB080000 		.4byte	0x8db
 8344 217b 05       		.uleb128 0x5
 8345 217c 03       		.byte	0x3
 8346 217d 00000000 		.4byte	USBD1
 8347 2181 00       		.byte	0
 8348              		.section	.debug_abbrev,"",%progbits
 8349              	.Ldebug_abbrev0:
 8350 0000 01       		.uleb128 0x1
 8351 0001 11       		.uleb128 0x11
 8352 0002 01       		.byte	0x1
 8353 0003 25       		.uleb128 0x25
 8354 0004 0E       		.uleb128 0xe
 8355 0005 13       		.uleb128 0x13
 8356 0006 0B       		.uleb128 0xb
 8357 0007 03       		.uleb128 0x3
 8358 0008 0E       		.uleb128 0xe
 8359 0009 55       		.uleb128 0x55
 8360 000a 17       		.uleb128 0x17
 8361 000b 11       		.uleb128 0x11
ARM GAS  /tmp/cciPs3oN.s 			page 149


 8362 000c 01       		.uleb128 0x1
 8363 000d 10       		.uleb128 0x10
 8364 000e 17       		.uleb128 0x17
 8365 000f 00       		.byte	0
 8366 0010 00       		.byte	0
 8367 0011 02       		.uleb128 0x2
 8368 0012 24       		.uleb128 0x24
 8369 0013 00       		.byte	0
 8370 0014 0B       		.uleb128 0xb
 8371 0015 0B       		.uleb128 0xb
 8372 0016 3E       		.uleb128 0x3e
 8373 0017 0B       		.uleb128 0xb
 8374 0018 03       		.uleb128 0x3
 8375 0019 08       		.uleb128 0x8
 8376 001a 00       		.byte	0
 8377 001b 00       		.byte	0
 8378 001c 03       		.uleb128 0x3
 8379 001d 16       		.uleb128 0x16
 8380 001e 00       		.byte	0
 8381 001f 03       		.uleb128 0x3
 8382 0020 0E       		.uleb128 0xe
 8383 0021 3A       		.uleb128 0x3a
 8384 0022 0B       		.uleb128 0xb
 8385 0023 3B       		.uleb128 0x3b
 8386 0024 0B       		.uleb128 0xb
 8387 0025 49       		.uleb128 0x49
 8388 0026 13       		.uleb128 0x13
 8389 0027 00       		.byte	0
 8390 0028 00       		.byte	0
 8391 0029 04       		.uleb128 0x4
 8392 002a 24       		.uleb128 0x24
 8393 002b 00       		.byte	0
 8394 002c 0B       		.uleb128 0xb
 8395 002d 0B       		.uleb128 0xb
 8396 002e 3E       		.uleb128 0x3e
 8397 002f 0B       		.uleb128 0xb
 8398 0030 03       		.uleb128 0x3
 8399 0031 0E       		.uleb128 0xe
 8400 0032 00       		.byte	0
 8401 0033 00       		.byte	0
 8402 0034 05       		.uleb128 0x5
 8403 0035 0F       		.uleb128 0xf
 8404 0036 00       		.byte	0
 8405 0037 0B       		.uleb128 0xb
 8406 0038 0B       		.uleb128 0xb
 8407 0039 00       		.byte	0
 8408 003a 00       		.byte	0
 8409 003b 06       		.uleb128 0x6
 8410 003c 0F       		.uleb128 0xf
 8411 003d 00       		.byte	0
 8412 003e 0B       		.uleb128 0xb
 8413 003f 0B       		.uleb128 0xb
 8414 0040 49       		.uleb128 0x49
 8415 0041 13       		.uleb128 0x13
 8416 0042 00       		.byte	0
 8417 0043 00       		.byte	0
 8418 0044 07       		.uleb128 0x7
ARM GAS  /tmp/cciPs3oN.s 			page 150


 8419 0045 26       		.uleb128 0x26
 8420 0046 00       		.byte	0
 8421 0047 49       		.uleb128 0x49
 8422 0048 13       		.uleb128 0x13
 8423 0049 00       		.byte	0
 8424 004a 00       		.byte	0
 8425 004b 08       		.uleb128 0x8
 8426 004c 35       		.uleb128 0x35
 8427 004d 00       		.byte	0
 8428 004e 49       		.uleb128 0x49
 8429 004f 13       		.uleb128 0x13
 8430 0050 00       		.byte	0
 8431 0051 00       		.byte	0
 8432 0052 09       		.uleb128 0x9
 8433 0053 13       		.uleb128 0x13
 8434 0054 01       		.byte	0x1
 8435 0055 03       		.uleb128 0x3
 8436 0056 0E       		.uleb128 0xe
 8437 0057 0B       		.uleb128 0xb
 8438 0058 0B       		.uleb128 0xb
 8439 0059 3A       		.uleb128 0x3a
 8440 005a 0B       		.uleb128 0xb
 8441 005b 3B       		.uleb128 0x3b
 8442 005c 0B       		.uleb128 0xb
 8443 005d 01       		.uleb128 0x1
 8444 005e 13       		.uleb128 0x13
 8445 005f 00       		.byte	0
 8446 0060 00       		.byte	0
 8447 0061 0A       		.uleb128 0xa
 8448 0062 0D       		.uleb128 0xd
 8449 0063 00       		.byte	0
 8450 0064 03       		.uleb128 0x3
 8451 0065 0E       		.uleb128 0xe
 8452 0066 3A       		.uleb128 0x3a
 8453 0067 0B       		.uleb128 0xb
 8454 0068 3B       		.uleb128 0x3b
 8455 0069 0B       		.uleb128 0xb
 8456 006a 49       		.uleb128 0x49
 8457 006b 13       		.uleb128 0x13
 8458 006c 38       		.uleb128 0x38
 8459 006d 0B       		.uleb128 0xb
 8460 006e 00       		.byte	0
 8461 006f 00       		.byte	0
 8462 0070 0B       		.uleb128 0xb
 8463 0071 0D       		.uleb128 0xd
 8464 0072 00       		.byte	0
 8465 0073 03       		.uleb128 0x3
 8466 0074 08       		.uleb128 0x8
 8467 0075 3A       		.uleb128 0x3a
 8468 0076 0B       		.uleb128 0xb
 8469 0077 3B       		.uleb128 0x3b
 8470 0078 05       		.uleb128 0x5
 8471 0079 49       		.uleb128 0x49
 8472 007a 13       		.uleb128 0x13
 8473 007b 38       		.uleb128 0x38
 8474 007c 0B       		.uleb128 0xb
 8475 007d 00       		.byte	0
ARM GAS  /tmp/cciPs3oN.s 			page 151


 8476 007e 00       		.byte	0
 8477 007f 0C       		.uleb128 0xc
 8478 0080 0D       		.uleb128 0xd
 8479 0081 00       		.byte	0
 8480 0082 03       		.uleb128 0x3
 8481 0083 0E       		.uleb128 0xe
 8482 0084 3A       		.uleb128 0x3a
 8483 0085 0B       		.uleb128 0xb
 8484 0086 3B       		.uleb128 0x3b
 8485 0087 05       		.uleb128 0x5
 8486 0088 49       		.uleb128 0x49
 8487 0089 13       		.uleb128 0x13
 8488 008a 38       		.uleb128 0x38
 8489 008b 0B       		.uleb128 0xb
 8490 008c 00       		.byte	0
 8491 008d 00       		.byte	0
 8492 008e 0D       		.uleb128 0xd
 8493 008f 13       		.uleb128 0x13
 8494 0090 01       		.byte	0x1
 8495 0091 03       		.uleb128 0x3
 8496 0092 0E       		.uleb128 0xe
 8497 0093 0B       		.uleb128 0xb
 8498 0094 0B       		.uleb128 0xb
 8499 0095 3A       		.uleb128 0x3a
 8500 0096 0B       		.uleb128 0xb
 8501 0097 3B       		.uleb128 0x3b
 8502 0098 05       		.uleb128 0x5
 8503 0099 01       		.uleb128 0x1
 8504 009a 13       		.uleb128 0x13
 8505 009b 00       		.byte	0
 8506 009c 00       		.byte	0
 8507 009d 0E       		.uleb128 0xe
 8508 009e 15       		.uleb128 0x15
 8509 009f 01       		.byte	0x1
 8510 00a0 27       		.uleb128 0x27
 8511 00a1 19       		.uleb128 0x19
 8512 00a2 01       		.uleb128 0x1
 8513 00a3 13       		.uleb128 0x13
 8514 00a4 00       		.byte	0
 8515 00a5 00       		.byte	0
 8516 00a6 0F       		.uleb128 0xf
 8517 00a7 05       		.uleb128 0x5
 8518 00a8 00       		.byte	0
 8519 00a9 49       		.uleb128 0x49
 8520 00aa 13       		.uleb128 0x13
 8521 00ab 00       		.byte	0
 8522 00ac 00       		.byte	0
 8523 00ad 10       		.uleb128 0x10
 8524 00ae 13       		.uleb128 0x13
 8525 00af 01       		.byte	0x1
 8526 00b0 03       		.uleb128 0x3
 8527 00b1 0E       		.uleb128 0xe
 8528 00b2 0B       		.uleb128 0xb
 8529 00b3 05       		.uleb128 0x5
 8530 00b4 3A       		.uleb128 0x3a
 8531 00b5 0B       		.uleb128 0xb
 8532 00b6 3B       		.uleb128 0x3b
ARM GAS  /tmp/cciPs3oN.s 			page 152


 8533 00b7 05       		.uleb128 0x5
 8534 00b8 01       		.uleb128 0x1
 8535 00b9 13       		.uleb128 0x13
 8536 00ba 00       		.byte	0
 8537 00bb 00       		.byte	0
 8538 00bc 11       		.uleb128 0x11
 8539 00bd 01       		.uleb128 0x1
 8540 00be 01       		.byte	0x1
 8541 00bf 49       		.uleb128 0x49
 8542 00c0 13       		.uleb128 0x13
 8543 00c1 01       		.uleb128 0x1
 8544 00c2 13       		.uleb128 0x13
 8545 00c3 00       		.byte	0
 8546 00c4 00       		.byte	0
 8547 00c5 12       		.uleb128 0x12
 8548 00c6 21       		.uleb128 0x21
 8549 00c7 00       		.byte	0
 8550 00c8 49       		.uleb128 0x49
 8551 00c9 13       		.uleb128 0x13
 8552 00ca 2F       		.uleb128 0x2f
 8553 00cb 0B       		.uleb128 0xb
 8554 00cc 00       		.byte	0
 8555 00cd 00       		.byte	0
 8556 00ce 13       		.uleb128 0x13
 8557 00cf 13       		.uleb128 0x13
 8558 00d0 01       		.byte	0x1
 8559 00d1 0B       		.uleb128 0xb
 8560 00d2 0B       		.uleb128 0xb
 8561 00d3 3A       		.uleb128 0x3a
 8562 00d4 0B       		.uleb128 0xb
 8563 00d5 3B       		.uleb128 0x3b
 8564 00d6 05       		.uleb128 0x5
 8565 00d7 01       		.uleb128 0x1
 8566 00d8 13       		.uleb128 0x13
 8567 00d9 00       		.byte	0
 8568 00da 00       		.byte	0
 8569 00db 14       		.uleb128 0x14
 8570 00dc 16       		.uleb128 0x16
 8571 00dd 00       		.byte	0
 8572 00de 03       		.uleb128 0x3
 8573 00df 0E       		.uleb128 0xe
 8574 00e0 3A       		.uleb128 0x3a
 8575 00e1 0B       		.uleb128 0xb
 8576 00e2 3B       		.uleb128 0x3b
 8577 00e3 05       		.uleb128 0x5
 8578 00e4 49       		.uleb128 0x49
 8579 00e5 13       		.uleb128 0x13
 8580 00e6 00       		.byte	0
 8581 00e7 00       		.byte	0
 8582 00e8 15       		.uleb128 0x15
 8583 00e9 0D       		.uleb128 0xd
 8584 00ea 00       		.byte	0
 8585 00eb 03       		.uleb128 0x3
 8586 00ec 08       		.uleb128 0x8
 8587 00ed 3A       		.uleb128 0x3a
 8588 00ee 0B       		.uleb128 0xb
 8589 00ef 3B       		.uleb128 0x3b
ARM GAS  /tmp/cciPs3oN.s 			page 153


 8590 00f0 0B       		.uleb128 0xb
 8591 00f1 49       		.uleb128 0x49
 8592 00f2 13       		.uleb128 0x13
 8593 00f3 38       		.uleb128 0x38
 8594 00f4 0B       		.uleb128 0xb
 8595 00f5 00       		.byte	0
 8596 00f6 00       		.byte	0
 8597 00f7 16       		.uleb128 0x16
 8598 00f8 13       		.uleb128 0x13
 8599 00f9 01       		.byte	0x1
 8600 00fa 0B       		.uleb128 0xb
 8601 00fb 0B       		.uleb128 0xb
 8602 00fc 3A       		.uleb128 0x3a
 8603 00fd 0B       		.uleb128 0xb
 8604 00fe 3B       		.uleb128 0x3b
 8605 00ff 0B       		.uleb128 0xb
 8606 0100 01       		.uleb128 0x1
 8607 0101 13       		.uleb128 0x13
 8608 0102 00       		.byte	0
 8609 0103 00       		.byte	0
 8610 0104 17       		.uleb128 0x17
 8611 0105 17       		.uleb128 0x17
 8612 0106 01       		.byte	0x1
 8613 0107 0B       		.uleb128 0xb
 8614 0108 0B       		.uleb128 0xb
 8615 0109 3A       		.uleb128 0x3a
 8616 010a 0B       		.uleb128 0xb
 8617 010b 3B       		.uleb128 0x3b
 8618 010c 0B       		.uleb128 0xb
 8619 010d 01       		.uleb128 0x1
 8620 010e 13       		.uleb128 0x13
 8621 010f 00       		.byte	0
 8622 0110 00       		.byte	0
 8623 0111 18       		.uleb128 0x18
 8624 0112 0D       		.uleb128 0xd
 8625 0113 00       		.byte	0
 8626 0114 03       		.uleb128 0x3
 8627 0115 0E       		.uleb128 0xe
 8628 0116 3A       		.uleb128 0x3a
 8629 0117 0B       		.uleb128 0xb
 8630 0118 3B       		.uleb128 0x3b
 8631 0119 05       		.uleb128 0x5
 8632 011a 49       		.uleb128 0x49
 8633 011b 13       		.uleb128 0x13
 8634 011c 00       		.byte	0
 8635 011d 00       		.byte	0
 8636 011e 19       		.uleb128 0x19
 8637 011f 04       		.uleb128 0x4
 8638 0120 01       		.byte	0x1
 8639 0121 0B       		.uleb128 0xb
 8640 0122 0B       		.uleb128 0xb
 8641 0123 3A       		.uleb128 0x3a
 8642 0124 0B       		.uleb128 0xb
 8643 0125 3B       		.uleb128 0x3b
 8644 0126 05       		.uleb128 0x5
 8645 0127 01       		.uleb128 0x1
 8646 0128 13       		.uleb128 0x13
ARM GAS  /tmp/cciPs3oN.s 			page 154


 8647 0129 00       		.byte	0
 8648 012a 00       		.byte	0
 8649 012b 1A       		.uleb128 0x1a
 8650 012c 28       		.uleb128 0x28
 8651 012d 00       		.byte	0
 8652 012e 03       		.uleb128 0x3
 8653 012f 0E       		.uleb128 0xe
 8654 0130 1C       		.uleb128 0x1c
 8655 0131 0D       		.uleb128 0xd
 8656 0132 00       		.byte	0
 8657 0133 00       		.byte	0
 8658 0134 1B       		.uleb128 0x1b
 8659 0135 15       		.uleb128 0x15
 8660 0136 01       		.byte	0x1
 8661 0137 27       		.uleb128 0x27
 8662 0138 19       		.uleb128 0x19
 8663 0139 49       		.uleb128 0x49
 8664 013a 13       		.uleb128 0x13
 8665 013b 01       		.uleb128 0x1
 8666 013c 13       		.uleb128 0x13
 8667 013d 00       		.byte	0
 8668 013e 00       		.byte	0
 8669 013f 1C       		.uleb128 0x1c
 8670 0140 13       		.uleb128 0x13
 8671 0141 01       		.byte	0x1
 8672 0142 0B       		.uleb128 0xb
 8673 0143 06       		.uleb128 0x6
 8674 0144 3A       		.uleb128 0x3a
 8675 0145 0B       		.uleb128 0xb
 8676 0146 3B       		.uleb128 0x3b
 8677 0147 0B       		.uleb128 0xb
 8678 0148 01       		.uleb128 0x1
 8679 0149 13       		.uleb128 0x13
 8680 014a 00       		.byte	0
 8681 014b 00       		.byte	0
 8682 014c 1D       		.uleb128 0x1d
 8683 014d 0D       		.uleb128 0xd
 8684 014e 00       		.byte	0
 8685 014f 03       		.uleb128 0x3
 8686 0150 0E       		.uleb128 0xe
 8687 0151 3A       		.uleb128 0x3a
 8688 0152 0B       		.uleb128 0xb
 8689 0153 3B       		.uleb128 0x3b
 8690 0154 0B       		.uleb128 0xb
 8691 0155 49       		.uleb128 0x49
 8692 0156 13       		.uleb128 0x13
 8693 0157 38       		.uleb128 0x38
 8694 0158 05       		.uleb128 0x5
 8695 0159 00       		.byte	0
 8696 015a 00       		.byte	0
 8697 015b 1E       		.uleb128 0x1e
 8698 015c 0D       		.uleb128 0xd
 8699 015d 00       		.byte	0
 8700 015e 03       		.uleb128 0x3
 8701 015f 08       		.uleb128 0x8
 8702 0160 3A       		.uleb128 0x3a
 8703 0161 0B       		.uleb128 0xb
ARM GAS  /tmp/cciPs3oN.s 			page 155


 8704 0162 3B       		.uleb128 0x3b
 8705 0163 0B       		.uleb128 0xb
 8706 0164 49       		.uleb128 0x49
 8707 0165 13       		.uleb128 0x13
 8708 0166 38       		.uleb128 0x38
 8709 0167 05       		.uleb128 0x5
 8710 0168 00       		.byte	0
 8711 0169 00       		.byte	0
 8712 016a 1F       		.uleb128 0x1f
 8713 016b 21       		.uleb128 0x21
 8714 016c 00       		.byte	0
 8715 016d 49       		.uleb128 0x49
 8716 016e 13       		.uleb128 0x13
 8717 016f 2F       		.uleb128 0x2f
 8718 0170 05       		.uleb128 0x5
 8719 0171 00       		.byte	0
 8720 0172 00       		.byte	0
 8721 0173 20       		.uleb128 0x20
 8722 0174 0D       		.uleb128 0xd
 8723 0175 00       		.byte	0
 8724 0176 03       		.uleb128 0x3
 8725 0177 0E       		.uleb128 0xe
 8726 0178 3A       		.uleb128 0x3a
 8727 0179 0B       		.uleb128 0xb
 8728 017a 3B       		.uleb128 0x3b
 8729 017b 0B       		.uleb128 0xb
 8730 017c 49       		.uleb128 0x49
 8731 017d 13       		.uleb128 0x13
 8732 017e 00       		.byte	0
 8733 017f 00       		.byte	0
 8734 0180 21       		.uleb128 0x21
 8735 0181 17       		.uleb128 0x17
 8736 0182 01       		.byte	0x1
 8737 0183 0B       		.uleb128 0xb
 8738 0184 0B       		.uleb128 0xb
 8739 0185 3A       		.uleb128 0x3a
 8740 0186 0B       		.uleb128 0xb
 8741 0187 3B       		.uleb128 0x3b
 8742 0188 05       		.uleb128 0x5
 8743 0189 01       		.uleb128 0x1
 8744 018a 13       		.uleb128 0x13
 8745 018b 00       		.byte	0
 8746 018c 00       		.byte	0
 8747 018d 22       		.uleb128 0x22
 8748 018e 0D       		.uleb128 0xd
 8749 018f 00       		.byte	0
 8750 0190 03       		.uleb128 0x3
 8751 0191 08       		.uleb128 0x8
 8752 0192 3A       		.uleb128 0x3a
 8753 0193 0B       		.uleb128 0xb
 8754 0194 3B       		.uleb128 0x3b
 8755 0195 0B       		.uleb128 0xb
 8756 0196 49       		.uleb128 0x49
 8757 0197 13       		.uleb128 0x13
 8758 0198 00       		.byte	0
 8759 0199 00       		.byte	0
 8760 019a 23       		.uleb128 0x23
ARM GAS  /tmp/cciPs3oN.s 			page 156


 8761 019b 2E       		.uleb128 0x2e
 8762 019c 01       		.byte	0x1
 8763 019d 03       		.uleb128 0x3
 8764 019e 0E       		.uleb128 0xe
 8765 019f 3A       		.uleb128 0x3a
 8766 01a0 0B       		.uleb128 0xb
 8767 01a1 3B       		.uleb128 0x3b
 8768 01a2 05       		.uleb128 0x5
 8769 01a3 27       		.uleb128 0x27
 8770 01a4 19       		.uleb128 0x19
 8771 01a5 20       		.uleb128 0x20
 8772 01a6 0B       		.uleb128 0xb
 8773 01a7 01       		.uleb128 0x1
 8774 01a8 13       		.uleb128 0x13
 8775 01a9 00       		.byte	0
 8776 01aa 00       		.byte	0
 8777 01ab 24       		.uleb128 0x24
 8778 01ac 05       		.uleb128 0x5
 8779 01ad 00       		.byte	0
 8780 01ae 03       		.uleb128 0x3
 8781 01af 0E       		.uleb128 0xe
 8782 01b0 3A       		.uleb128 0x3a
 8783 01b1 0B       		.uleb128 0xb
 8784 01b2 3B       		.uleb128 0x3b
 8785 01b3 05       		.uleb128 0x5
 8786 01b4 49       		.uleb128 0x49
 8787 01b5 13       		.uleb128 0x13
 8788 01b6 00       		.byte	0
 8789 01b7 00       		.byte	0
 8790 01b8 25       		.uleb128 0x25
 8791 01b9 2E       		.uleb128 0x2e
 8792 01ba 01       		.byte	0x1
 8793 01bb 03       		.uleb128 0x3
 8794 01bc 0E       		.uleb128 0xe
 8795 01bd 3A       		.uleb128 0x3a
 8796 01be 0B       		.uleb128 0xb
 8797 01bf 3B       		.uleb128 0x3b
 8798 01c0 05       		.uleb128 0x5
 8799 01c1 27       		.uleb128 0x27
 8800 01c2 19       		.uleb128 0x19
 8801 01c3 11       		.uleb128 0x11
 8802 01c4 01       		.uleb128 0x1
 8803 01c5 12       		.uleb128 0x12
 8804 01c6 06       		.uleb128 0x6
 8805 01c7 40       		.uleb128 0x40
 8806 01c8 18       		.uleb128 0x18
 8807 01c9 9742     		.uleb128 0x2117
 8808 01cb 19       		.uleb128 0x19
 8809 01cc 01       		.uleb128 0x1
 8810 01cd 13       		.uleb128 0x13
 8811 01ce 00       		.byte	0
 8812 01cf 00       		.byte	0
 8813 01d0 26       		.uleb128 0x26
 8814 01d1 1D       		.uleb128 0x1d
 8815 01d2 01       		.byte	0x1
 8816 01d3 31       		.uleb128 0x31
 8817 01d4 13       		.uleb128 0x13
ARM GAS  /tmp/cciPs3oN.s 			page 157


 8818 01d5 11       		.uleb128 0x11
 8819 01d6 01       		.uleb128 0x1
 8820 01d7 12       		.uleb128 0x12
 8821 01d8 06       		.uleb128 0x6
 8822 01d9 58       		.uleb128 0x58
 8823 01da 0B       		.uleb128 0xb
 8824 01db 59       		.uleb128 0x59
 8825 01dc 05       		.uleb128 0x5
 8826 01dd 00       		.byte	0
 8827 01de 00       		.byte	0
 8828 01df 27       		.uleb128 0x27
 8829 01e0 05       		.uleb128 0x5
 8830 01e1 00       		.byte	0
 8831 01e2 31       		.uleb128 0x31
 8832 01e3 13       		.uleb128 0x13
 8833 01e4 02       		.uleb128 0x2
 8834 01e5 18       		.uleb128 0x18
 8835 01e6 00       		.byte	0
 8836 01e7 00       		.byte	0
 8837 01e8 28       		.uleb128 0x28
 8838 01e9 2E       		.uleb128 0x2e
 8839 01ea 00       		.byte	0
 8840 01eb 03       		.uleb128 0x3
 8841 01ec 0E       		.uleb128 0xe
 8842 01ed 3A       		.uleb128 0x3a
 8843 01ee 0B       		.uleb128 0xb
 8844 01ef 3B       		.uleb128 0x3b
 8845 01f0 05       		.uleb128 0x5
 8846 01f1 27       		.uleb128 0x27
 8847 01f2 19       		.uleb128 0x19
 8848 01f3 11       		.uleb128 0x11
 8849 01f4 01       		.uleb128 0x1
 8850 01f5 12       		.uleb128 0x12
 8851 01f6 06       		.uleb128 0x6
 8852 01f7 40       		.uleb128 0x40
 8853 01f8 18       		.uleb128 0x18
 8854 01f9 9642     		.uleb128 0x2116
 8855 01fb 19       		.uleb128 0x19
 8856 01fc 00       		.byte	0
 8857 01fd 00       		.byte	0
 8858 01fe 29       		.uleb128 0x29
 8859 01ff 2E       		.uleb128 0x2e
 8860 0200 01       		.byte	0x1
 8861 0201 03       		.uleb128 0x3
 8862 0202 0E       		.uleb128 0xe
 8863 0203 3A       		.uleb128 0x3a
 8864 0204 0B       		.uleb128 0xb
 8865 0205 3B       		.uleb128 0x3b
 8866 0206 05       		.uleb128 0x5
 8867 0207 27       		.uleb128 0x27
 8868 0208 19       		.uleb128 0x19
 8869 0209 11       		.uleb128 0x11
 8870 020a 01       		.uleb128 0x1
 8871 020b 12       		.uleb128 0x12
 8872 020c 06       		.uleb128 0x6
 8873 020d 40       		.uleb128 0x40
 8874 020e 18       		.uleb128 0x18
ARM GAS  /tmp/cciPs3oN.s 			page 158


 8875 020f 9642     		.uleb128 0x2116
 8876 0211 19       		.uleb128 0x19
 8877 0212 01       		.uleb128 0x1
 8878 0213 13       		.uleb128 0x13
 8879 0214 00       		.byte	0
 8880 0215 00       		.byte	0
 8881 0216 2A       		.uleb128 0x2a
 8882 0217 34       		.uleb128 0x34
 8883 0218 00       		.byte	0
 8884 0219 03       		.uleb128 0x3
 8885 021a 0E       		.uleb128 0xe
 8886 021b 49       		.uleb128 0x49
 8887 021c 13       		.uleb128 0x13
 8888 021d 34       		.uleb128 0x34
 8889 021e 19       		.uleb128 0x19
 8890 021f 00       		.byte	0
 8891 0220 00       		.byte	0
 8892 0221 2B       		.uleb128 0x2b
 8893 0222 2E       		.uleb128 0x2e
 8894 0223 01       		.byte	0x1
 8895 0224 03       		.uleb128 0x3
 8896 0225 0E       		.uleb128 0xe
 8897 0226 3A       		.uleb128 0x3a
 8898 0227 0B       		.uleb128 0xb
 8899 0228 3B       		.uleb128 0x3b
 8900 0229 0B       		.uleb128 0xb
 8901 022a 27       		.uleb128 0x27
 8902 022b 19       		.uleb128 0x19
 8903 022c 49       		.uleb128 0x49
 8904 022d 13       		.uleb128 0x13
 8905 022e 11       		.uleb128 0x11
 8906 022f 01       		.uleb128 0x1
 8907 0230 12       		.uleb128 0x12
 8908 0231 06       		.uleb128 0x6
 8909 0232 40       		.uleb128 0x40
 8910 0233 18       		.uleb128 0x18
 8911 0234 9642     		.uleb128 0x2116
 8912 0236 19       		.uleb128 0x19
 8913 0237 01       		.uleb128 0x1
 8914 0238 13       		.uleb128 0x13
 8915 0239 00       		.byte	0
 8916 023a 00       		.byte	0
 8917 023b 2C       		.uleb128 0x2c
 8918 023c 05       		.uleb128 0x5
 8919 023d 00       		.byte	0
 8920 023e 03       		.uleb128 0x3
 8921 023f 08       		.uleb128 0x8
 8922 0240 3A       		.uleb128 0x3a
 8923 0241 0B       		.uleb128 0xb
 8924 0242 3B       		.uleb128 0x3b
 8925 0243 0B       		.uleb128 0xb
 8926 0244 49       		.uleb128 0x49
 8927 0245 13       		.uleb128 0x13
 8928 0246 02       		.uleb128 0x2
 8929 0247 18       		.uleb128 0x18
 8930 0248 00       		.byte	0
 8931 0249 00       		.byte	0
ARM GAS  /tmp/cciPs3oN.s 			page 159


 8932 024a 2D       		.uleb128 0x2d
 8933 024b 2E       		.uleb128 0x2e
 8934 024c 01       		.byte	0x1
 8935 024d 03       		.uleb128 0x3
 8936 024e 0E       		.uleb128 0xe
 8937 024f 3A       		.uleb128 0x3a
 8938 0250 0B       		.uleb128 0xb
 8939 0251 3B       		.uleb128 0x3b
 8940 0252 0B       		.uleb128 0xb
 8941 0253 27       		.uleb128 0x27
 8942 0254 19       		.uleb128 0x19
 8943 0255 11       		.uleb128 0x11
 8944 0256 01       		.uleb128 0x1
 8945 0257 12       		.uleb128 0x12
 8946 0258 06       		.uleb128 0x6
 8947 0259 40       		.uleb128 0x40
 8948 025a 18       		.uleb128 0x18
 8949 025b 9742     		.uleb128 0x2117
 8950 025d 19       		.uleb128 0x19
 8951 025e 01       		.uleb128 0x1
 8952 025f 13       		.uleb128 0x13
 8953 0260 00       		.byte	0
 8954 0261 00       		.byte	0
 8955 0262 2E       		.uleb128 0x2e
 8956 0263 05       		.uleb128 0x5
 8957 0264 00       		.byte	0
 8958 0265 03       		.uleb128 0x3
 8959 0266 0E       		.uleb128 0xe
 8960 0267 3A       		.uleb128 0x3a
 8961 0268 0B       		.uleb128 0xb
 8962 0269 3B       		.uleb128 0x3b
 8963 026a 0B       		.uleb128 0xb
 8964 026b 49       		.uleb128 0x49
 8965 026c 13       		.uleb128 0x13
 8966 026d 02       		.uleb128 0x2
 8967 026e 18       		.uleb128 0x18
 8968 026f 00       		.byte	0
 8969 0270 00       		.byte	0
 8970 0271 2F       		.uleb128 0x2f
 8971 0272 05       		.uleb128 0x5
 8972 0273 00       		.byte	0
 8973 0274 03       		.uleb128 0x3
 8974 0275 0E       		.uleb128 0xe
 8975 0276 3A       		.uleb128 0x3a
 8976 0277 0B       		.uleb128 0xb
 8977 0278 3B       		.uleb128 0x3b
 8978 0279 05       		.uleb128 0x5
 8979 027a 49       		.uleb128 0x49
 8980 027b 13       		.uleb128 0x13
 8981 027c 02       		.uleb128 0x2
 8982 027d 18       		.uleb128 0x18
 8983 027e 00       		.byte	0
 8984 027f 00       		.byte	0
 8985 0280 30       		.uleb128 0x30
 8986 0281 2E       		.uleb128 0x2e
 8987 0282 01       		.byte	0x1
 8988 0283 03       		.uleb128 0x3
ARM GAS  /tmp/cciPs3oN.s 			page 160


 8989 0284 0E       		.uleb128 0xe
 8990 0285 3A       		.uleb128 0x3a
 8991 0286 0B       		.uleb128 0xb
 8992 0287 3B       		.uleb128 0x3b
 8993 0288 05       		.uleb128 0x5
 8994 0289 27       		.uleb128 0x27
 8995 028a 19       		.uleb128 0x19
 8996 028b 49       		.uleb128 0x49
 8997 028c 13       		.uleb128 0x13
 8998 028d 11       		.uleb128 0x11
 8999 028e 01       		.uleb128 0x1
 9000 028f 12       		.uleb128 0x12
 9001 0290 06       		.uleb128 0x6
 9002 0291 40       		.uleb128 0x40
 9003 0292 18       		.uleb128 0x18
 9004 0293 9642     		.uleb128 0x2116
 9005 0295 19       		.uleb128 0x19
 9006 0296 01       		.uleb128 0x1
 9007 0297 13       		.uleb128 0x13
 9008 0298 00       		.byte	0
 9009 0299 00       		.byte	0
 9010 029a 31       		.uleb128 0x31
 9011 029b 05       		.uleb128 0x5
 9012 029c 00       		.byte	0
 9013 029d 03       		.uleb128 0x3
 9014 029e 08       		.uleb128 0x8
 9015 029f 3A       		.uleb128 0x3a
 9016 02a0 0B       		.uleb128 0xb
 9017 02a1 3B       		.uleb128 0x3b
 9018 02a2 05       		.uleb128 0x5
 9019 02a3 49       		.uleb128 0x49
 9020 02a4 13       		.uleb128 0x13
 9021 02a5 02       		.uleb128 0x2
 9022 02a6 18       		.uleb128 0x18
 9023 02a7 00       		.byte	0
 9024 02a8 00       		.byte	0
 9025 02a9 32       		.uleb128 0x32
 9026 02aa 2E       		.uleb128 0x2e
 9027 02ab 01       		.byte	0x1
 9028 02ac 03       		.uleb128 0x3
 9029 02ad 0E       		.uleb128 0xe
 9030 02ae 3A       		.uleb128 0x3a
 9031 02af 0B       		.uleb128 0xb
 9032 02b0 3B       		.uleb128 0x3b
 9033 02b1 0B       		.uleb128 0xb
 9034 02b2 27       		.uleb128 0x27
 9035 02b3 19       		.uleb128 0x19
 9036 02b4 11       		.uleb128 0x11
 9037 02b5 01       		.uleb128 0x1
 9038 02b6 12       		.uleb128 0x12
 9039 02b7 06       		.uleb128 0x6
 9040 02b8 40       		.uleb128 0x40
 9041 02b9 18       		.uleb128 0x18
 9042 02ba 9642     		.uleb128 0x2116
 9043 02bc 19       		.uleb128 0x19
 9044 02bd 01       		.uleb128 0x1
 9045 02be 13       		.uleb128 0x13
ARM GAS  /tmp/cciPs3oN.s 			page 161


 9046 02bf 00       		.byte	0
 9047 02c0 00       		.byte	0
 9048 02c1 33       		.uleb128 0x33
 9049 02c2 34       		.uleb128 0x34
 9050 02c3 00       		.byte	0
 9051 02c4 03       		.uleb128 0x3
 9052 02c5 0E       		.uleb128 0xe
 9053 02c6 3A       		.uleb128 0x3a
 9054 02c7 0B       		.uleb128 0xb
 9055 02c8 3B       		.uleb128 0x3b
 9056 02c9 0B       		.uleb128 0xb
 9057 02ca 49       		.uleb128 0x49
 9058 02cb 13       		.uleb128 0x13
 9059 02cc 02       		.uleb128 0x2
 9060 02cd 18       		.uleb128 0x18
 9061 02ce 00       		.byte	0
 9062 02cf 00       		.byte	0
 9063 02d0 34       		.uleb128 0x34
 9064 02d1 34       		.uleb128 0x34
 9065 02d2 00       		.byte	0
 9066 02d3 03       		.uleb128 0x3
 9067 02d4 08       		.uleb128 0x8
 9068 02d5 3A       		.uleb128 0x3a
 9069 02d6 0B       		.uleb128 0xb
 9070 02d7 3B       		.uleb128 0x3b
 9071 02d8 0B       		.uleb128 0xb
 9072 02d9 49       		.uleb128 0x49
 9073 02da 13       		.uleb128 0x13
 9074 02db 02       		.uleb128 0x2
 9075 02dc 18       		.uleb128 0x18
 9076 02dd 00       		.byte	0
 9077 02de 00       		.byte	0
 9078 02df 35       		.uleb128 0x35
 9079 02e0 2E       		.uleb128 0x2e
 9080 02e1 01       		.byte	0x1
 9081 02e2 03       		.uleb128 0x3
 9082 02e3 0E       		.uleb128 0xe
 9083 02e4 3A       		.uleb128 0x3a
 9084 02e5 0B       		.uleb128 0xb
 9085 02e6 3B       		.uleb128 0x3b
 9086 02e7 0B       		.uleb128 0xb
 9087 02e8 27       		.uleb128 0x27
 9088 02e9 19       		.uleb128 0x19
 9089 02ea 49       		.uleb128 0x49
 9090 02eb 13       		.uleb128 0x13
 9091 02ec 11       		.uleb128 0x11
 9092 02ed 01       		.uleb128 0x1
 9093 02ee 12       		.uleb128 0x12
 9094 02ef 06       		.uleb128 0x6
 9095 02f0 40       		.uleb128 0x40
 9096 02f1 18       		.uleb128 0x18
 9097 02f2 9742     		.uleb128 0x2117
 9098 02f4 19       		.uleb128 0x19
 9099 02f5 01       		.uleb128 0x1
 9100 02f6 13       		.uleb128 0x13
 9101 02f7 00       		.byte	0
 9102 02f8 00       		.byte	0
ARM GAS  /tmp/cciPs3oN.s 			page 162


 9103 02f9 36       		.uleb128 0x36
 9104 02fa 34       		.uleb128 0x34
 9105 02fb 00       		.byte	0
 9106 02fc 03       		.uleb128 0x3
 9107 02fd 0E       		.uleb128 0xe
 9108 02fe 3A       		.uleb128 0x3a
 9109 02ff 0B       		.uleb128 0xb
 9110 0300 3B       		.uleb128 0x3b
 9111 0301 05       		.uleb128 0x5
 9112 0302 49       		.uleb128 0x49
 9113 0303 13       		.uleb128 0x13
 9114 0304 02       		.uleb128 0x2
 9115 0305 18       		.uleb128 0x18
 9116 0306 00       		.byte	0
 9117 0307 00       		.byte	0
 9118 0308 37       		.uleb128 0x37
 9119 0309 0B       		.uleb128 0xb
 9120 030a 01       		.byte	0x1
 9121 030b 11       		.uleb128 0x11
 9122 030c 01       		.uleb128 0x1
 9123 030d 12       		.uleb128 0x12
 9124 030e 06       		.uleb128 0x6
 9125 030f 00       		.byte	0
 9126 0310 00       		.byte	0
 9127 0311 38       		.uleb128 0x38
 9128 0312 34       		.uleb128 0x34
 9129 0313 00       		.byte	0
 9130 0314 03       		.uleb128 0x3
 9131 0315 08       		.uleb128 0x8
 9132 0316 3A       		.uleb128 0x3a
 9133 0317 0B       		.uleb128 0xb
 9134 0318 3B       		.uleb128 0x3b
 9135 0319 05       		.uleb128 0x5
 9136 031a 49       		.uleb128 0x49
 9137 031b 13       		.uleb128 0x13
 9138 031c 02       		.uleb128 0x2
 9139 031d 18       		.uleb128 0x18
 9140 031e 00       		.byte	0
 9141 031f 00       		.byte	0
 9142 0320 39       		.uleb128 0x39
 9143 0321 2E       		.uleb128 0x2e
 9144 0322 01       		.byte	0x1
 9145 0323 03       		.uleb128 0x3
 9146 0324 0E       		.uleb128 0xe
 9147 0325 3A       		.uleb128 0x3a
 9148 0326 0B       		.uleb128 0xb
 9149 0327 3B       		.uleb128 0x3b
 9150 0328 05       		.uleb128 0x5
 9151 0329 27       		.uleb128 0x27
 9152 032a 19       		.uleb128 0x19
 9153 032b 49       		.uleb128 0x49
 9154 032c 13       		.uleb128 0x13
 9155 032d 11       		.uleb128 0x11
 9156 032e 01       		.uleb128 0x1
 9157 032f 12       		.uleb128 0x12
 9158 0330 06       		.uleb128 0x6
 9159 0331 40       		.uleb128 0x40
ARM GAS  /tmp/cciPs3oN.s 			page 163


 9160 0332 18       		.uleb128 0x18
 9161 0333 9742     		.uleb128 0x2117
 9162 0335 19       		.uleb128 0x19
 9163 0336 01       		.uleb128 0x1
 9164 0337 13       		.uleb128 0x13
 9165 0338 00       		.byte	0
 9166 0339 00       		.byte	0
 9167 033a 3A       		.uleb128 0x3a
 9168 033b 2E       		.uleb128 0x2e
 9169 033c 00       		.byte	0
 9170 033d 3F       		.uleb128 0x3f
 9171 033e 19       		.uleb128 0x19
 9172 033f 03       		.uleb128 0x3
 9173 0340 0E       		.uleb128 0xe
 9174 0341 3A       		.uleb128 0x3a
 9175 0342 0B       		.uleb128 0xb
 9176 0343 3B       		.uleb128 0x3b
 9177 0344 05       		.uleb128 0x5
 9178 0345 27       		.uleb128 0x27
 9179 0346 19       		.uleb128 0x19
 9180 0347 11       		.uleb128 0x11
 9181 0348 01       		.uleb128 0x1
 9182 0349 12       		.uleb128 0x12
 9183 034a 06       		.uleb128 0x6
 9184 034b 40       		.uleb128 0x40
 9185 034c 18       		.uleb128 0x18
 9186 034d 9642     		.uleb128 0x2116
 9187 034f 19       		.uleb128 0x19
 9188 0350 00       		.byte	0
 9189 0351 00       		.byte	0
 9190 0352 3B       		.uleb128 0x3b
 9191 0353 2E       		.uleb128 0x2e
 9192 0354 01       		.byte	0x1
 9193 0355 3F       		.uleb128 0x3f
 9194 0356 19       		.uleb128 0x19
 9195 0357 03       		.uleb128 0x3
 9196 0358 0E       		.uleb128 0xe
 9197 0359 3A       		.uleb128 0x3a
 9198 035a 0B       		.uleb128 0xb
 9199 035b 3B       		.uleb128 0x3b
 9200 035c 05       		.uleb128 0x5
 9201 035d 27       		.uleb128 0x27
 9202 035e 19       		.uleb128 0x19
 9203 035f 11       		.uleb128 0x11
 9204 0360 01       		.uleb128 0x1
 9205 0361 12       		.uleb128 0x12
 9206 0362 06       		.uleb128 0x6
 9207 0363 40       		.uleb128 0x40
 9208 0364 18       		.uleb128 0x18
 9209 0365 9642     		.uleb128 0x2116
 9210 0367 19       		.uleb128 0x19
 9211 0368 01       		.uleb128 0x1
 9212 0369 13       		.uleb128 0x13
 9213 036a 00       		.byte	0
 9214 036b 00       		.byte	0
 9215 036c 3C       		.uleb128 0x3c
 9216 036d 2E       		.uleb128 0x2e
ARM GAS  /tmp/cciPs3oN.s 			page 164


 9217 036e 01       		.byte	0x1
 9218 036f 3F       		.uleb128 0x3f
 9219 0370 19       		.uleb128 0x19
 9220 0371 03       		.uleb128 0x3
 9221 0372 0E       		.uleb128 0xe
 9222 0373 3A       		.uleb128 0x3a
 9223 0374 0B       		.uleb128 0xb
 9224 0375 3B       		.uleb128 0x3b
 9225 0376 05       		.uleb128 0x5
 9226 0377 27       		.uleb128 0x27
 9227 0378 19       		.uleb128 0x19
 9228 0379 11       		.uleb128 0x11
 9229 037a 01       		.uleb128 0x1
 9230 037b 12       		.uleb128 0x12
 9231 037c 06       		.uleb128 0x6
 9232 037d 40       		.uleb128 0x40
 9233 037e 18       		.uleb128 0x18
 9234 037f 9742     		.uleb128 0x2117
 9235 0381 19       		.uleb128 0x19
 9236 0382 01       		.uleb128 0x1
 9237 0383 13       		.uleb128 0x13
 9238 0384 00       		.byte	0
 9239 0385 00       		.byte	0
 9240 0386 3D       		.uleb128 0x3d
 9241 0387 2E       		.uleb128 0x2e
 9242 0388 01       		.byte	0x1
 9243 0389 3F       		.uleb128 0x3f
 9244 038a 19       		.uleb128 0x19
 9245 038b 03       		.uleb128 0x3
 9246 038c 0E       		.uleb128 0xe
 9247 038d 3A       		.uleb128 0x3a
 9248 038e 0B       		.uleb128 0xb
 9249 038f 3B       		.uleb128 0x3b
 9250 0390 05       		.uleb128 0x5
 9251 0391 27       		.uleb128 0x27
 9252 0392 19       		.uleb128 0x19
 9253 0393 49       		.uleb128 0x49
 9254 0394 13       		.uleb128 0x13
 9255 0395 11       		.uleb128 0x11
 9256 0396 01       		.uleb128 0x1
 9257 0397 12       		.uleb128 0x12
 9258 0398 06       		.uleb128 0x6
 9259 0399 40       		.uleb128 0x40
 9260 039a 18       		.uleb128 0x18
 9261 039b 9742     		.uleb128 0x2117
 9262 039d 19       		.uleb128 0x19
 9263 039e 01       		.uleb128 0x1
 9264 039f 13       		.uleb128 0x13
 9265 03a0 00       		.byte	0
 9266 03a1 00       		.byte	0
 9267 03a2 3E       		.uleb128 0x3e
 9268 03a3 34       		.uleb128 0x34
 9269 03a4 00       		.byte	0
 9270 03a5 03       		.uleb128 0x3
 9271 03a6 0E       		.uleb128 0xe
 9272 03a7 3A       		.uleb128 0x3a
 9273 03a8 0B       		.uleb128 0xb
ARM GAS  /tmp/cciPs3oN.s 			page 165


 9274 03a9 3B       		.uleb128 0x3b
 9275 03aa 05       		.uleb128 0x5
 9276 03ab 49       		.uleb128 0x49
 9277 03ac 13       		.uleb128 0x13
 9278 03ad 3F       		.uleb128 0x3f
 9279 03ae 19       		.uleb128 0x19
 9280 03af 3C       		.uleb128 0x3c
 9281 03b0 19       		.uleb128 0x19
 9282 03b1 00       		.byte	0
 9283 03b2 00       		.byte	0
 9284 03b3 3F       		.uleb128 0x3f
 9285 03b4 34       		.uleb128 0x34
 9286 03b5 00       		.byte	0
 9287 03b6 03       		.uleb128 0x3
 9288 03b7 08       		.uleb128 0x8
 9289 03b8 3A       		.uleb128 0x3a
 9290 03b9 0B       		.uleb128 0xb
 9291 03ba 3B       		.uleb128 0x3b
 9292 03bb 05       		.uleb128 0x5
 9293 03bc 49       		.uleb128 0x49
 9294 03bd 13       		.uleb128 0x13
 9295 03be 3F       		.uleb128 0x3f
 9296 03bf 19       		.uleb128 0x19
 9297 03c0 3C       		.uleb128 0x3c
 9298 03c1 19       		.uleb128 0x19
 9299 03c2 00       		.byte	0
 9300 03c3 00       		.byte	0
 9301 03c4 40       		.uleb128 0x40
 9302 03c5 34       		.uleb128 0x34
 9303 03c6 00       		.byte	0
 9304 03c7 03       		.uleb128 0x3
 9305 03c8 0E       		.uleb128 0xe
 9306 03c9 3A       		.uleb128 0x3a
 9307 03ca 0B       		.uleb128 0xb
 9308 03cb 3B       		.uleb128 0x3b
 9309 03cc 0B       		.uleb128 0xb
 9310 03cd 49       		.uleb128 0x49
 9311 03ce 13       		.uleb128 0x13
 9312 03cf 3F       		.uleb128 0x3f
 9313 03d0 19       		.uleb128 0x19
 9314 03d1 02       		.uleb128 0x2
 9315 03d2 18       		.uleb128 0x18
 9316 03d3 00       		.byte	0
 9317 03d4 00       		.byte	0
 9318 03d5 00       		.byte	0
 9319              		.section	.debug_aranges,"",%progbits
 9320 0000 D4010000 		.4byte	0x1d4
 9321 0004 0200     		.2byte	0x2
 9322 0006 00000000 		.4byte	.Ldebug_info0
 9323 000a 04       		.byte	0x4
 9324 000b 00       		.byte	0
 9325 000c 0000     		.2byte	0
 9326 000e 0000     		.2byte	0
 9327 0010 00000000 		.4byte	.LFB127
 9328 0014 10000000 		.4byte	.LFE127-.LFB127
 9329 0018 00000000 		.4byte	.LFB128
 9330 001c 10000000 		.4byte	.LFE128-.LFB128
ARM GAS  /tmp/cciPs3oN.s 			page 166


 9331 0020 00000000 		.4byte	.LFB129
 9332 0024 08000000 		.4byte	.LFE129-.LFB129
 9333 0028 00000000 		.4byte	.LFB130
 9334 002c 08000000 		.4byte	.LFE130-.LFB130
 9335 0030 00000000 		.4byte	.LFB167
 9336 0034 08000000 		.4byte	.LFE167-.LFB167
 9337 0038 00000000 		.4byte	.LFB168
 9338 003c 08000000 		.4byte	.LFE168-.LFB168
 9339 0040 00000000 		.4byte	.LFB169
 9340 0044 08000000 		.4byte	.LFE169-.LFB169
 9341 0048 00000000 		.4byte	.LFB170
 9342 004c 08000000 		.4byte	.LFE170-.LFB170
 9343 0050 00000000 		.4byte	.LFB192
 9344 0054 16000000 		.4byte	.LFE192-.LFB192
 9345 0058 00000000 		.4byte	.LFB197
 9346 005c 14000000 		.4byte	.LFE197-.LFB197
 9347 0060 00000000 		.4byte	.LFB244
 9348 0064 08000000 		.4byte	.LFE244-.LFB244
 9349 0068 00000000 		.4byte	.LFB245
 9350 006c 08000000 		.4byte	.LFE245-.LFB245
 9351 0070 00000000 		.4byte	.LFB246
 9352 0074 08000000 		.4byte	.LFE246-.LFB246
 9353 0078 00000000 		.4byte	.LFB247
 9354 007c 08000000 		.4byte	.LFE247-.LFB247
 9355 0080 00000000 		.4byte	.LFB250
 9356 0084 12000000 		.4byte	.LFE250-.LFB250
 9357 0088 00000000 		.4byte	.LFB252
 9358 008c 08000000 		.4byte	.LFE252-.LFB252
 9359 0090 00000000 		.4byte	.LFB257
 9360 0094 16000000 		.4byte	.LFE257-.LFB257
 9361 0098 00000000 		.4byte	.LFB259
 9362 009c 16000000 		.4byte	.LFE259-.LFB259
 9363 00a0 00000000 		.4byte	.LFB264
 9364 00a4 16000000 		.4byte	.LFE264-.LFB264
 9365 00a8 00000000 		.4byte	.LFB271
 9366 00ac 3C000000 		.4byte	.LFE271-.LFB271
 9367 00b0 00000000 		.4byte	.LFB272
 9368 00b4 04010000 		.4byte	.LFE272-.LFB272
 9369 00b8 00000000 		.4byte	.LFB273
 9370 00bc 2C000000 		.4byte	.LFE273-.LFB273
 9371 00c0 00000000 		.4byte	.LFB274
 9372 00c4 34000000 		.4byte	.LFE274-.LFB274
 9373 00c8 00000000 		.4byte	.LFB275
 9374 00cc 12000000 		.4byte	.LFE275-.LFB275
 9375 00d0 00000000 		.4byte	.LFB276
 9376 00d4 20000000 		.4byte	.LFE276-.LFB276
 9377 00d8 00000000 		.4byte	.LFB277
 9378 00dc 2C000000 		.4byte	.LFE277-.LFB277
 9379 00e0 00000000 		.4byte	.LFB278
 9380 00e4 20000000 		.4byte	.LFE278-.LFB278
 9381 00e8 00000000 		.4byte	.LFB279
 9382 00ec 00010000 		.4byte	.LFE279-.LFB279
 9383 00f0 00000000 		.4byte	.LFB280
 9384 00f4 30000000 		.4byte	.LFE280-.LFB280
 9385 00f8 00000000 		.4byte	.LFB281
 9386 00fc 4A000000 		.4byte	.LFE281-.LFB281
 9387 0100 00000000 		.4byte	.LFB282
ARM GAS  /tmp/cciPs3oN.s 			page 167


 9388 0104 E6000000 		.4byte	.LFE282-.LFB282
 9389 0108 00000000 		.4byte	.LFB283
 9390 010c 44010000 		.4byte	.LFE283-.LFB283
 9391 0110 00000000 		.4byte	.LFB284
 9392 0114 70010000 		.4byte	.LFE284-.LFB284
 9393 0118 00000000 		.4byte	.LFB285
 9394 011c 44010000 		.4byte	.LFE285-.LFB285
 9395 0120 00000000 		.4byte	.LFB286
 9396 0124 14010000 		.4byte	.LFE286-.LFB286
 9397 0128 00000000 		.4byte	.LFB287
 9398 012c B0010000 		.4byte	.LFE287-.LFB287
 9399 0130 00000000 		.4byte	.LFB288
 9400 0134 14000000 		.4byte	.LFE288-.LFB288
 9401 0138 00000000 		.4byte	.LFB289
 9402 013c 2C000000 		.4byte	.LFE289-.LFB289
 9403 0140 00000000 		.4byte	.LFB290
 9404 0144 18010000 		.4byte	.LFE290-.LFB290
 9405 0148 00000000 		.4byte	.LFB291
 9406 014c 5C000000 		.4byte	.LFE291-.LFB291
 9407 0150 00000000 		.4byte	.LFB292
 9408 0154 28010000 		.4byte	.LFE292-.LFB292
 9409 0158 00000000 		.4byte	.LFB293
 9410 015c 28000000 		.4byte	.LFE293-.LFB293
 9411 0160 00000000 		.4byte	.LFB294
 9412 0164 58020000 		.4byte	.LFE294-.LFB294
 9413 0168 00000000 		.4byte	.LFB295
 9414 016c 18000000 		.4byte	.LFE295-.LFB295
 9415 0170 00000000 		.4byte	.LFB296
 9416 0174 40000000 		.4byte	.LFE296-.LFB296
 9417 0178 00000000 		.4byte	.LFB297
 9418 017c 40000000 		.4byte	.LFE297-.LFB297
 9419 0180 00000000 		.4byte	.LFB298
 9420 0184 2E000000 		.4byte	.LFE298-.LFB298
 9421 0188 00000000 		.4byte	.LFB299
 9422 018c 8C000000 		.4byte	.LFE299-.LFB299
 9423 0190 00000000 		.4byte	.LFB300
 9424 0194 A8000000 		.4byte	.LFE300-.LFB300
 9425 0198 00000000 		.4byte	.LFB301
 9426 019c 32000000 		.4byte	.LFE301-.LFB301
 9427 01a0 00000000 		.4byte	.LFB302
 9428 01a4 4E000000 		.4byte	.LFE302-.LFB302
 9429 01a8 00000000 		.4byte	.LFB303
 9430 01ac 32000000 		.4byte	.LFE303-.LFB303
 9431 01b0 00000000 		.4byte	.LFB304
 9432 01b4 32000000 		.4byte	.LFE304-.LFB304
 9433 01b8 00000000 		.4byte	.LFB305
 9434 01bc 32000000 		.4byte	.LFE305-.LFB305
 9435 01c0 00000000 		.4byte	.LFB306
 9436 01c4 32000000 		.4byte	.LFE306-.LFB306
 9437 01c8 00000000 		.4byte	.LFB307
 9438 01cc 0C010000 		.4byte	.LFE307-.LFB307
 9439 01d0 00000000 		.4byte	0
 9440 01d4 00000000 		.4byte	0
 9441              		.section	.debug_ranges,"",%progbits
 9442              	.Ldebug_ranges0:
 9443 0000 00000000 		.4byte	.LFB127
 9444 0004 10000000 		.4byte	.LFE127
ARM GAS  /tmp/cciPs3oN.s 			page 168


 9445 0008 00000000 		.4byte	.LFB128
 9446 000c 10000000 		.4byte	.LFE128
 9447 0010 00000000 		.4byte	.LFB129
 9448 0014 08000000 		.4byte	.LFE129
 9449 0018 00000000 		.4byte	.LFB130
 9450 001c 08000000 		.4byte	.LFE130
 9451 0020 00000000 		.4byte	.LFB167
 9452 0024 08000000 		.4byte	.LFE167
 9453 0028 00000000 		.4byte	.LFB168
 9454 002c 08000000 		.4byte	.LFE168
 9455 0030 00000000 		.4byte	.LFB169
 9456 0034 08000000 		.4byte	.LFE169
 9457 0038 00000000 		.4byte	.LFB170
 9458 003c 08000000 		.4byte	.LFE170
 9459 0040 00000000 		.4byte	.LFB192
 9460 0044 16000000 		.4byte	.LFE192
 9461 0048 00000000 		.4byte	.LFB197
 9462 004c 14000000 		.4byte	.LFE197
 9463 0050 00000000 		.4byte	.LFB244
 9464 0054 08000000 		.4byte	.LFE244
 9465 0058 00000000 		.4byte	.LFB245
 9466 005c 08000000 		.4byte	.LFE245
 9467 0060 00000000 		.4byte	.LFB246
 9468 0064 08000000 		.4byte	.LFE246
 9469 0068 00000000 		.4byte	.LFB247
 9470 006c 08000000 		.4byte	.LFE247
 9471 0070 00000000 		.4byte	.LFB250
 9472 0074 12000000 		.4byte	.LFE250
 9473 0078 00000000 		.4byte	.LFB252
 9474 007c 08000000 		.4byte	.LFE252
 9475 0080 00000000 		.4byte	.LFB257
 9476 0084 16000000 		.4byte	.LFE257
 9477 0088 00000000 		.4byte	.LFB259
 9478 008c 16000000 		.4byte	.LFE259
 9479 0090 00000000 		.4byte	.LFB264
 9480 0094 16000000 		.4byte	.LFE264
 9481 0098 00000000 		.4byte	.LFB271
 9482 009c 3C000000 		.4byte	.LFE271
 9483 00a0 00000000 		.4byte	.LFB272
 9484 00a4 04010000 		.4byte	.LFE272
 9485 00a8 00000000 		.4byte	.LFB273
 9486 00ac 2C000000 		.4byte	.LFE273
 9487 00b0 00000000 		.4byte	.LFB274
 9488 00b4 34000000 		.4byte	.LFE274
 9489 00b8 00000000 		.4byte	.LFB275
 9490 00bc 12000000 		.4byte	.LFE275
 9491 00c0 00000000 		.4byte	.LFB276
 9492 00c4 20000000 		.4byte	.LFE276
 9493 00c8 00000000 		.4byte	.LFB277
 9494 00cc 2C000000 		.4byte	.LFE277
 9495 00d0 00000000 		.4byte	.LFB278
 9496 00d4 20000000 		.4byte	.LFE278
 9497 00d8 00000000 		.4byte	.LFB279
 9498 00dc 00010000 		.4byte	.LFE279
 9499 00e0 00000000 		.4byte	.LFB280
 9500 00e4 30000000 		.4byte	.LFE280
 9501 00e8 00000000 		.4byte	.LFB281
ARM GAS  /tmp/cciPs3oN.s 			page 169


 9502 00ec 4A000000 		.4byte	.LFE281
 9503 00f0 00000000 		.4byte	.LFB282
 9504 00f4 E6000000 		.4byte	.LFE282
 9505 00f8 00000000 		.4byte	.LFB283
 9506 00fc 44010000 		.4byte	.LFE283
 9507 0100 00000000 		.4byte	.LFB284
 9508 0104 70010000 		.4byte	.LFE284
 9509 0108 00000000 		.4byte	.LFB285
 9510 010c 44010000 		.4byte	.LFE285
 9511 0110 00000000 		.4byte	.LFB286
 9512 0114 14010000 		.4byte	.LFE286
 9513 0118 00000000 		.4byte	.LFB287
 9514 011c B0010000 		.4byte	.LFE287
 9515 0120 00000000 		.4byte	.LFB288
 9516 0124 14000000 		.4byte	.LFE288
 9517 0128 00000000 		.4byte	.LFB289
 9518 012c 2C000000 		.4byte	.LFE289
 9519 0130 00000000 		.4byte	.LFB290
 9520 0134 18010000 		.4byte	.LFE290
 9521 0138 00000000 		.4byte	.LFB291
 9522 013c 5C000000 		.4byte	.LFE291
 9523 0140 00000000 		.4byte	.LFB292
 9524 0144 28010000 		.4byte	.LFE292
 9525 0148 00000000 		.4byte	.LFB293
 9526 014c 28000000 		.4byte	.LFE293
 9527 0150 00000000 		.4byte	.LFB294
 9528 0154 58020000 		.4byte	.LFE294
 9529 0158 00000000 		.4byte	.LFB295
 9530 015c 18000000 		.4byte	.LFE295
 9531 0160 00000000 		.4byte	.LFB296
 9532 0164 40000000 		.4byte	.LFE296
 9533 0168 00000000 		.4byte	.LFB297
 9534 016c 40000000 		.4byte	.LFE297
 9535 0170 00000000 		.4byte	.LFB298
 9536 0174 2E000000 		.4byte	.LFE298
 9537 0178 00000000 		.4byte	.LFB299
 9538 017c 8C000000 		.4byte	.LFE299
 9539 0180 00000000 		.4byte	.LFB300
 9540 0184 A8000000 		.4byte	.LFE300
 9541 0188 00000000 		.4byte	.LFB301
 9542 018c 32000000 		.4byte	.LFE301
 9543 0190 00000000 		.4byte	.LFB302
 9544 0194 4E000000 		.4byte	.LFE302
 9545 0198 00000000 		.4byte	.LFB303
 9546 019c 32000000 		.4byte	.LFE303
 9547 01a0 00000000 		.4byte	.LFB304
 9548 01a4 32000000 		.4byte	.LFE304
 9549 01a8 00000000 		.4byte	.LFB305
 9550 01ac 32000000 		.4byte	.LFE305
 9551 01b0 00000000 		.4byte	.LFB306
 9552 01b4 32000000 		.4byte	.LFE306
 9553 01b8 00000000 		.4byte	.LFB307
 9554 01bc 0C010000 		.4byte	.LFE307
 9555 01c0 00000000 		.4byte	0
 9556 01c4 00000000 		.4byte	0
 9557              		.section	.debug_line,"",%progbits
 9558              	.Ldebug_line0:
ARM GAS  /tmp/cciPs3oN.s 			page 170


 9559 0000 B7090000 		.section	.debug_str,"MS",%progbits,1
 9559      0200D102 
 9559      00000201 
 9559      FB0E0D00 
 9559      01010101 
 9560              	.LASF2:
 9561 0000 73697A65 		.ascii	"size_t\000"
 9561      5F7400
 9562              	.LASF377:
 9563 0007 7573625F 		.ascii	"usb_lld_stall_out\000"
 9563      6C6C645F 
 9563      7374616C 
 9563      6C5F6F75 
 9563      7400
 9564              	.LASF15:
 9565 0019 73697A65 		.ascii	"sizetype\000"
 9565      74797065 
 9565      00
 9566              	.LASF121:
 9567 0022 77747365 		.ascii	"wtsemp\000"
 9567      6D7000
 9568              	.LASF30:
 9569 0029 73797374 		.ascii	"systime_t\000"
 9569      696D655F 
 9569      7400
 9570              	.LASF109:
 9571 0033 504C4C49 		.ascii	"PLLI2SCFGR\000"
 9571      32534346 
 9571      475200
 9572              	.LASF35:
 9573 003e 705F6374 		.ascii	"p_ctx\000"
 9573      7800
 9574              	.LASF26:
 9575 0044 74707269 		.ascii	"tprio_t\000"
 9575      6F5F7400 
 9576              	.LASF43:
 9577 004c 705F6D73 		.ascii	"p_msgqueue\000"
 9577      67717565 
 9577      756500
 9578              	.LASF59:
 9579 0057 725F6374 		.ascii	"r_ctx\000"
 9579      7800
 9580              	.LASF19:
 9581 005d 696E7433 		.ascii	"int32_t\000"
 9581      325F7400 
 9582              	.LASF210:
 9583 0065 72657376 		.ascii	"resvd4\000"
 9583      643400
 9584              	.LASF201:
 9585 006c 72657376 		.ascii	"resvd8\000"
 9585      643800
 9586              	.LASF352:
 9587 0073 6F74675F 		.ascii	"otg_fifo_read_to_buffer\000"
 9587      6669666F 
 9587      5F726561 
 9587      645F746F 
 9587      5F627566 
ARM GAS  /tmp/cciPs3oN.s 			page 171


 9588              	.LASF63:
 9589 008b 76746675 		.ascii	"vtfunc_t\000"
 9589      6E635F74 
 9589      00
 9590              	.LASF212:
 9591 0094 72657376 		.ascii	"resvdC\000"
 9591      644300
 9592              	.LASF72:
 9593 009b 63685F76 		.ascii	"ch_virtual_timers_list\000"
 9593      69727475 
 9593      616C5F74 
 9593      696D6572 
 9593      735F6C69 
 9594              	.LASF327:
 9595 00b2 6379636C 		.ascii	"cycles\000"
 9595      657300
 9596              	.LASF379:
 9597 00b9 7573625F 		.ascii	"usb_lld_clear_out\000"
 9597      6C6C645F 
 9597      636C6561 
 9597      725F6F75 
 9597      7400
 9598              	.LASF370:
 9599 00cb 7573625F 		.ascii	"usb_lld_get_status_in\000"
 9599      6C6C645F 
 9599      6765745F 
 9599      73746174 
 9599      75735F69 
 9600              	.LASF319:
 9601 00e1 5F5F6675 		.ascii	"__func__\000"
 9601      6E635F5F 
 9601      00
 9602              	.LASF178:
 9603 00ea 5553425F 		.ascii	"USB_EP0_TX\000"
 9603      4550305F 
 9603      545800
 9604              	.LASF390:
 9605 00f5 474E5520 		.ascii	"GNU C 4.8.4 20141219 (release) -mcpu=cortex-m4 -mno"
 9605      4320342E 
 9605      382E3420 
 9605      32303134 
 9605      31323139 
 9606 0128 2D746875 		.ascii	"-thumb-interwork -mthumb -ggdb -O0 -fomit-frame-poi"
 9606      6D622D69 
 9606      6E746572 
 9606      776F726B 
 9606      202D6D74 
 9607 015b 6E746572 		.ascii	"nter -falign-functions=16 -ffunction-sections -fdat"
 9607      202D6661 
 9607      6C69676E 
 9607      2D66756E 
 9607      6374696F 
 9608 018e 612D7365 		.ascii	"a-sections -fno-common\000"
 9608      6374696F 
 9608      6E73202D 
 9608      666E6F2D 
 9608      636F6D6D 
ARM GAS  /tmp/cciPs3oN.s 			page 172


 9609              	.LASF330:
 9610 01a5 6F73616C 		.ascii	"osalThreadSuspendS\000"
 9610      54687265 
 9610      61645375 
 9610      7370656E 
 9610      645300
 9611              	.LASF345:
 9612 01b8 6669666F 		.ascii	"fifop\000"
 9612      7000
 9613              	.LASF385:
 9614 01be 65703073 		.ascii	"ep0setup_buffer\000"
 9614      65747570 
 9614      5F627566 
 9614      66657200 
 9615              	.LASF250:
 9616 01ce 72657376 		.ascii	"resvd700\000"
 9616      64373030 
 9616      00
 9617              	.LASF367:
 9618 01d7 6673697A 		.ascii	"fsize\000"
 9618      6500
 9619              	.LASF148:
 9620 01dd 636F6E66 		.ascii	"config\000"
 9620      696700
 9621              	.LASF147:
 9622 01e4 73746174 		.ascii	"state\000"
 9622      6500
 9623              	.LASF295:
 9624 01ea 65705F6D 		.ascii	"ep_mode\000"
 9624      6F646500 
 9625              	.LASF171:
 9626 01f2 5553425F 		.ascii	"USB_ACTIVE\000"
 9626      41435449 
 9626      564500
 9627              	.LASF366:
 9628 01fd 7573625F 		.ascii	"usb_lld_init_endpoint\000"
 9628      6C6C645F 
 9628      696E6974 
 9628      5F656E64 
 9628      706F696E 
 9629              	.LASF324:
 9630 0213 6F73616C 		.ascii	"osalSysLockFromISR\000"
 9630      5379734C 
 9630      6F636B46 
 9630      726F6D49 
 9630      535200
 9631              	.LASF323:
 9632 0226 6F73616C 		.ascii	"osalSysUnlock\000"
 9632      53797355 
 9632      6E6C6F63 
 9632      6B00
 9633              	.LASF363:
 9634 0234 7573625F 		.ascii	"usb_lld_stop\000"
 9634      6C6C645F 
 9634      73746F70 
 9634      00
 9635              	.LASF331:
ARM GAS  /tmp/cciPs3oN.s 			page 173


 9636 0241 6F73616C 		.ascii	"osalThreadResumeI\000"
 9636      54687265 
 9636      61645265 
 9636      73756D65 
 9636      4900
 9637              	.LASF129:
 9638 0253 6D5F6F77 		.ascii	"m_owner\000"
 9638      6E657200 
 9639              	.LASF70:
 9640 025b 76745F70 		.ascii	"vt_par\000"
 9640      617200
 9641              	.LASF118:
 9642 0262 65786974 		.ascii	"exitcode\000"
 9642      636F6465 
 9642      00
 9643              	.LASF184:
 9644 026b 75736265 		.ascii	"usbep0state_t\000"
 9644      70307374 
 9644      6174655F 
 9644      7400
 9645              	.LASF3:
 9646 0279 5F5F7569 		.ascii	"__uint8_t\000"
 9646      6E74385F 
 9646      7400
 9647              	.LASF137:
 9648 0283 715F746F 		.ascii	"q_top\000"
 9648      7000
 9649              	.LASF100:
 9650 0289 41484232 		.ascii	"AHB2LPENR\000"
 9650      4C50454E 
 9650      5200
 9651              	.LASF176:
 9652 0293 75736265 		.ascii	"usbepstatus_t\000"
 9652      70737461 
 9652      7475735F 
 9652      7400
 9653              	.LASF136:
 9654 02a1 715F6275 		.ascii	"q_buffer\000"
 9654      66666572 
 9654      00
 9655              	.LASF186:
 9656 02aa 5553425F 		.ascii	"USB_EVENT_ADDRESS\000"
 9656      4556454E 
 9656      545F4144 
 9656      44524553 
 9656      5300
 9657              	.LASF231:
 9658 02bc 44494550 		.ascii	"DIEPTXF0\000"
 9658      54584630 
 9658      00
 9659              	.LASF140:
 9660 02c5 715F6E6F 		.ascii	"q_notify\000"
 9660      74696679 
 9660      00
 9661              	.LASF36:
 9662 02ce 705F6E65 		.ascii	"p_newer\000"
 9662      77657200 
ARM GAS  /tmp/cciPs3oN.s 			page 174


 9663              	.LASF339:
 9664 02d6 6669666F 		.ascii	"fifo\000"
 9664      00
 9665              	.LASF9:
 9666 02db 6C6F6E67 		.ascii	"long int\000"
 9666      20696E74 
 9666      00
 9667              	.LASF32:
 9668 02e4 705F6E65 		.ascii	"p_next\000"
 9668      787400
 9669              	.LASF312:
 9670 02eb 706F7274 		.ascii	"port_unlock\000"
 9670      5F756E6C 
 9670      6F636B00 
 9671              	.LASF139:
 9672 02f7 715F7264 		.ascii	"q_rdptr\000"
 9672      70747200 
 9673              	.LASF33:
 9674 02ff 705F7072 		.ascii	"p_prev\000"
 9674      657600
 9675              	.LASF317:
 9676 0306 63685379 		.ascii	"chSysLockFromISR\000"
 9676      734C6F63 
 9676      6B46726F 
 9676      6D495352 
 9676      00
 9677              	.LASF24:
 9678 0317 74737461 		.ascii	"tstate_t\000"
 9678      74655F74 
 9678      00
 9679              	.LASF53:
 9680 0320 74687265 		.ascii	"threads_queue_t\000"
 9680      6164735F 
 9680      71756575 
 9680      655F7400 
 9681              	.LASF46:
 9682 0330 705F6D74 		.ascii	"p_mtxlist\000"
 9682      786C6973 
 9682      7400
 9683              	.LASF279:
 9684 033a 74786275 		.ascii	"txbuf\000"
 9684      6600
 9685              	.LASF346:
 9686 0340 6F74675F 		.ascii	"otg_fifo_write_from_buffer\000"
 9686      6669666F 
 9686      5F777269 
 9686      74655F66 
 9686      726F6D5F 
 9687              	.LASF111:
 9688 035b 72656761 		.ascii	"regarm_t\000"
 9688      726D5F74 
 9688      00
 9689              	.LASF347:
 9690 0364 6F74675F 		.ascii	"otg_fifo_write_from_queue\000"
 9690      6669666F 
 9690      5F777269 
 9690      74655F66 
ARM GAS  /tmp/cciPs3oN.s 			page 175


 9690      726F6D5F 
 9691              	.LASF257:
 9692 037e 4441494E 		.ascii	"DAINT\000"
 9692      5400
 9693              	.LASF177:
 9694 0384 5553425F 		.ascii	"USB_EP0_WAITING_SETUP\000"
 9694      4550305F 
 9694      57414954 
 9694      494E475F 
 9694      53455455 
 9695              	.LASF256:
 9696 039a 444F4550 		.ascii	"DOEPMSK\000"
 9696      4D534B00 
 9697              	.LASF97:
 9698 03a2 41504232 		.ascii	"APB2ENR\000"
 9698      454E5200 
 9699              	.LASF133:
 9700 03aa 696F5F71 		.ascii	"io_queue\000"
 9700      75657565 
 9700      00
 9701              	.LASF99:
 9702 03b3 41484231 		.ascii	"AHB1LPENR\000"
 9702      4C50454E 
 9702      5200
 9703              	.LASF217:
 9704 03bd 444F4550 		.ascii	"DOEPCTL\000"
 9704      43544C00 
 9705              	.LASF322:
 9706 03c5 6F73616C 		.ascii	"osalSysLock\000"
 9706      5379734C 
 9706      6F636B00 
 9707              	.LASF141:
 9708 03d1 715F6C69 		.ascii	"q_link\000"
 9708      6E6B00
 9709              	.LASF1:
 9710 03d8 7369676E 		.ascii	"signed char\000"
 9710      65642063 
 9710      68617200 
 9711              	.LASF123:
 9712 03e4 65776D61 		.ascii	"ewmask\000"
 9712      736B00
 9713              	.LASF17:
 9714 03eb 75696E74 		.ascii	"uint8_t\000"
 9714      385F7400 
 9715              	.LASF190:
 9716 03f3 5553425F 		.ascii	"USB_EVENT_STALLED\000"
 9716      4556454E 
 9716      545F5354 
 9716      414C4C45 
 9716      4400
 9717              	.LASF175:
 9718 0405 45505F53 		.ascii	"EP_STATUS_ACTIVE\000"
 9718      54415455 
 9718      535F4143 
 9718      54495645 
 9718      00
 9719              	.LASF218:
ARM GAS  /tmp/cciPs3oN.s 			page 176


 9720 0416 444F4550 		.ascii	"DOEPINT\000"
 9720      494E5400 
 9721              	.LASF28:
 9722 041e 6576656E 		.ascii	"eventmask_t\000"
 9722      746D6173 
 9722      6B5F7400 
 9723              	.LASF113:
 9724 042a 636F6E74 		.ascii	"context\000"
 9724      65787400 
 9725              	.LASF292:
 9726 0432 72787369 		.ascii	"rxsize\000"
 9726      7A6500
 9727              	.LASF384:
 9728 0439 6570305F 		.ascii	"ep0_state\000"
 9728      73746174 
 9728      6500
 9729              	.LASF120:
 9730 0443 77747472 		.ascii	"wttrp\000"
 9730      7000
 9731              	.LASF318:
 9732 0449 63685379 		.ascii	"chSysUnlockFromISR\000"
 9732      73556E6C 
 9732      6F636B46 
 9732      726F6D49 
 9732      535200
 9733              	.LASF88:
 9734 045c 52455345 		.ascii	"RESERVED0\000"
 9734      52564544 
 9734      3000
 9735              	.LASF91:
 9736 0466 52455345 		.ascii	"RESERVED1\000"
 9736      52564544 
 9736      3100
 9737              	.LASF4:
 9738 0470 756E7369 		.ascii	"unsigned char\000"
 9738      676E6564 
 9738      20636861 
 9738      7200
 9739              	.LASF98:
 9740 047e 52455345 		.ascii	"RESERVED3\000"
 9740      52564544 
 9740      3300
 9741              	.LASF102:
 9742 0488 52455345 		.ascii	"RESERVED4\000"
 9742      52564544 
 9742      3400
 9743              	.LASF105:
 9744 0492 52455345 		.ascii	"RESERVED5\000"
 9744      52564544 
 9744      3500
 9745              	.LASF107:
 9746 049c 52455345 		.ascii	"RESERVED6\000"
 9746      52564544 
 9746      3600
 9747              	.LASF76:
 9748 04a6 70616E69 		.ascii	"panic_msg\000"
 9748      635F6D73 
ARM GAS  /tmp/cciPs3oN.s 			page 177


 9748      6700
 9749              	.LASF251:
 9750 04b0 44434647 		.ascii	"DCFG\000"
 9750      00
 9751              	.LASF269:
 9752 04b5 72657376 		.ascii	"resvd8C0\000"
 9752      64384330 
 9752      00
 9753              	.LASF60:
 9754 04be 725F6E65 		.ascii	"r_newer\000"
 9754      77657200 
 9755              	.LASF235:
 9756 04c6 47434346 		.ascii	"GCCFG\000"
 9756      4700
 9757              	.LASF153:
 9758 04cc 65703073 		.ascii	"ep0state\000"
 9758      74617465 
 9758      00
 9759              	.LASF74:
 9760 04d5 73797374 		.ascii	"system_debug_t\000"
 9760      656D5F64 
 9760      65627567 
 9760      5F7400
 9761              	.LASF213:
 9762 04e4 44494550 		.ascii	"DIEPTSIZ\000"
 9762      5453495A 
 9762      00
 9763              	.LASF308:
 9764 04ed 72657175 		.ascii	"requests_hook_cb\000"
 9764      65737473 
 9764      5F686F6F 
 9764      6B5F6362 
 9764      00
 9765              	.LASF373:
 9766 04fe 70636E74 		.ascii	"pcnt\000"
 9766      00
 9767              	.LASF145:
 9768 0503 5F426F6F 		.ascii	"_Bool\000"
 9768      6C00
 9769              	.LASF354:
 9770 0509 6F74675F 		.ascii	"otg_rxfifo_handler\000"
 9770      72786669 
 9770      666F5F68 
 9770      616E646C 
 9770      657200
 9771              	.LASF95:
 9772 051c 52455345 		.ascii	"RESERVED2\000"
 9772      52564544 
 9772      3200
 9773              	.LASF240:
 9774 0526 48434647 		.ascii	"HCFG\000"
 9774      00
 9775              	.LASF200:
 9776 052b 48434348 		.ascii	"HCCHAR\000"
 9776      415200
 9777              	.LASF371:
 9778 0532 7573625F 		.ascii	"usb_lld_read_setup\000"
ARM GAS  /tmp/cciPs3oN.s 			page 178


 9778      6C6C645F 
 9778      72656164 
 9778      5F736574 
 9778      757000
 9779              	.LASF220:
 9780 0545 73746D33 		.ascii	"stm32_otg_out_ep_t\000"
 9780      325F6F74 
 9780      675F6F75 
 9780      745F6570 
 9780      5F7400
 9781              	.LASF16:
 9782 0558 63686172 		.ascii	"char\000"
 9782      00
 9783              	.LASF155:
 9784 055d 6570306E 		.ascii	"ep0n\000"
 9784      00
 9785              	.LASF85:
 9786 0562 41484231 		.ascii	"AHB1RSTR\000"
 9786      52535452 
 9786      00
 9787              	.LASF248:
 9788 056b 48505254 		.ascii	"HPRT\000"
 9788      00
 9789              	.LASF34:
 9790 0570 705F7072 		.ascii	"p_prio\000"
 9790      696F00
 9791              	.LASF150:
 9792 0577 72656365 		.ascii	"receiving\000"
 9792      6976696E 
 9792      6700
 9793              	.LASF6:
 9794 0581 5F5F7569 		.ascii	"__uint16_t\000"
 9794      6E743136 
 9794      5F7400
 9795              	.LASF93:
 9796 058c 41484232 		.ascii	"AHB2ENR\000"
 9796      454E5200 
 9797              	.LASF146:
 9798 0594 55534244 		.ascii	"USBDriver\000"
 9798      72697665 
 9798      7200
 9799              	.LASF382:
 9800 059e 65706D61 		.ascii	"epmask\000"
 9800      736B00
 9801              	.LASF119:
 9802 05a5 77746F62 		.ascii	"wtobjp\000"
 9802      6A7000
 9803              	.LASF296:
 9804 05ac 73657475 		.ascii	"setup_cb\000"
 9804      705F6362 
 9804      00
 9805              	.LASF193:
 9806 05b5 75645F73 		.ascii	"ud_string\000"
 9806      7472696E 
 9806      6700
 9807              	.LASF358:
 9808 05bf 6F74675F 		.ascii	"otg_epout_handler\000"
ARM GAS  /tmp/cciPs3oN.s 			page 179


 9808      65706F75 
 9808      745F6861 
 9808      6E646C65 
 9808      7200
 9809              	.LASF297:
 9810 05d1 696E5F63 		.ascii	"in_cb\000"
 9810      6200
 9811              	.LASF112:
 9812 05d7 73746B61 		.ascii	"stkalign_t\000"
 9812      6C69676E 
 9812      5F7400
 9813              	.LASF242:
 9814 05e2 48464E55 		.ascii	"HFNUM\000"
 9814      4D00
 9815              	.LASF197:
 9816 05e8 75736265 		.ascii	"usbeventcb_t\000"
 9816      76656E74 
 9816      63625F74 
 9816      00
 9817              	.LASF357:
 9818 05f5 6570696E 		.ascii	"epint\000"
 9818      7400
 9819              	.LASF349:
 9820 05fb 73747265 		.ascii	"streak\000"
 9820      616B00
 9821              	.LASF208:
 9822 0602 73746D33 		.ascii	"stm32_otg_host_chn_t\000"
 9822      325F6F74 
 9822      675F686F 
 9822      73745F63 
 9822      686E5F74 
 9823              	.LASF149:
 9824 0617 7472616E 		.ascii	"transmitting\000"
 9824      736D6974 
 9824      74696E67 
 9824      00
 9825              	.LASF204:
 9826 0624 48435453 		.ascii	"HCTSIZ\000"
 9826      495A00
 9827              	.LASF391:
 9828 062b 2F686F6D 		.ascii	"/home/efe/ChibiOS/os/hal/ports/STM32/LLD/OTGv1/usb_"
 9828      652F6566 
 9828      652F4368 
 9828      6962694F 
 9828      532F6F73 
 9829 065e 6C6C642E 		.ascii	"lld.c\000"
 9829      6300
 9830              	.LASF288:
 9831 0664 55534249 		.ascii	"USBInEndpointState\000"
 9831      6E456E64 
 9831      706F696E 
 9831      74537461 
 9831      746500
 9832              	.LASF259:
 9833 0677 72657376 		.ascii	"resvd820\000"
 9833      64383230 
 9833      00
ARM GAS  /tmp/cciPs3oN.s 			page 180


 9834              	.LASF260:
 9835 0680 72657376 		.ascii	"resvd824\000"
 9835      64383234 
 9835      00
 9836              	.LASF254:
 9837 0689 72657376 		.ascii	"resvd80C\000"
 9837      64383043 
 9837      00
 9838              	.LASF106:
 9839 0692 42444352 		.ascii	"BDCR\000"
 9839      00
 9840              	.LASF262:
 9841 0697 44564255 		.ascii	"DVBUSPULSE\000"
 9841      5350554C 
 9841      534500
 9842              	.LASF167:
 9843 06a2 5553425F 		.ascii	"USB_UNINIT\000"
 9843      554E494E 
 9843      495400
 9844              	.LASF29:
 9845 06ad 636E745F 		.ascii	"cnt_t\000"
 9845      7400
 9846              	.LASF69:
 9847 06b3 76745F66 		.ascii	"vt_func\000"
 9847      756E6300 
 9848              	.LASF194:
 9849 06bb 55534244 		.ascii	"USBDescriptor\000"
 9849      65736372 
 9849      6970746F 
 9849      7200
 9850              	.LASF278:
 9851 06c9 73746D33 		.ascii	"stm32_otg_params_t\000"
 9851      325F6F74 
 9851      675F7061 
 9851      72616D73 
 9851      5F7400
 9852              	.LASF157:
 9853 06dc 73657475 		.ascii	"setup\000"
 9853      7000
 9854              	.LASF332:
 9855 06e2 6F73616C 		.ascii	"osalThreadDequeueAllI\000"
 9855      54687265 
 9855      61644465 
 9855      71756575 
 9855      65416C6C 
 9856              	.LASF45:
 9857 06f8 705F6570 		.ascii	"p_epending\000"
 9857      656E6469 
 9857      6E6700
 9858              	.LASF122:
 9859 0703 77746D74 		.ascii	"wtmtxp\000"
 9859      787000
 9860              	.LASF191:
 9861 070a 75736265 		.ascii	"usbevent_t\000"
 9861      76656E74 
 9861      5F7400
 9862              	.LASF56:
ARM GAS  /tmp/cciPs3oN.s 			page 181


 9863 0715 63685F72 		.ascii	"ch_ready_list\000"
 9863      65616479 
 9863      5F6C6973 
 9863      7400
 9864              	.LASF192:
 9865 0723 75645F73 		.ascii	"ud_size\000"
 9865      697A6500 
 9866              	.LASF84:
 9867 072b 43464752 		.ascii	"CFGR\000"
 9867      00
 9868              	.LASF170:
 9869 0730 5553425F 		.ascii	"USB_SELECTED\000"
 9869      53454C45 
 9869      43544544 
 9869      00
 9870              	.LASF160:
 9871 073d 636F6E66 		.ascii	"configuration\000"
 9871      69677572 
 9871      6174696F 
 9871      6E00
 9872              	.LASF230:
 9873 074b 47525846 		.ascii	"GRXFSIZ\000"
 9873      53495A00 
 9874              	.LASF174:
 9875 0753 45505F53 		.ascii	"EP_STATUS_STALLED\000"
 9875      54415455 
 9875      535F5354 
 9875      414C4C45 
 9875      4400
 9876              	.LASF325:
 9877 0765 6F73616C 		.ascii	"osalSysUnlockFromISR\000"
 9877      53797355 
 9877      6E6C6F63 
 9877      6B46726F 
 9877      6D495352 
 9878              	.LASF285:
 9879 077a 7478636E 		.ascii	"txcnt\000"
 9879      7400
 9880              	.LASF135:
 9881 0780 715F636F 		.ascii	"q_counter\000"
 9881      756E7465 
 9881      7200
 9882              	.LASF359:
 9883 078a 7573625F 		.ascii	"usb_lld_serve_interrupt\000"
 9883      6C6C645F 
 9883      73657276 
 9883      655F696E 
 9883      74657272 
 9884              	.LASF267:
 9885 07a2 72657376 		.ascii	"resvd840\000"
 9885      64383430 
 9885      00
 9886              	.LASF13:
 9887 07ab 5F5F7569 		.ascii	"__uint64_t\000"
 9887      6E743634 
 9887      5F7400
 9888              	.LASF238:
ARM GAS  /tmp/cciPs3oN.s 			page 182


 9889 07b6 44494550 		.ascii	"DIEPTXF\000"
 9889      54584600 
 9890              	.LASF316:
 9891 07be 63685379 		.ascii	"chSysUnlock\000"
 9891      73556E6C 
 9891      6F636B00 
 9892              	.LASF11:
 9893 07ca 6C6F6E67 		.ascii	"long unsigned int\000"
 9893      20756E73 
 9893      69676E65 
 9893      6420696E 
 9893      7400
 9894              	.LASF315:
 9895 07dc 63685379 		.ascii	"chSysLock\000"
 9895      734C6F63 
 9895      6B00
 9896              	.LASF158:
 9897 07e6 73746174 		.ascii	"status\000"
 9897      757300
 9898              	.LASF159:
 9899 07ed 61646472 		.ascii	"address\000"
 9899      65737300 
 9900              	.LASF124:
 9901 07f5 63685F73 		.ascii	"ch_semaphore\000"
 9901      656D6170 
 9901      686F7265 
 9901      00
 9902              	.LASF156:
 9903 0802 65703065 		.ascii	"ep0endcb\000"
 9903      6E646362 
 9903      00
 9904              	.LASF51:
 9905 080b 63685F74 		.ascii	"ch_thread\000"
 9905      68726561 
 9905      6400
 9906              	.LASF374:
 9907 0815 7573625F 		.ascii	"usb_lld_prepare_transmit\000"
 9907      6C6C645F 
 9907      70726570 
 9907      6172655F 
 9907      7472616E 
 9908              	.LASF223:
 9909 082e 47414842 		.ascii	"GAHBCFG\000"
 9909      43464700 
 9910              	.LASF71:
 9911 0836 76697274 		.ascii	"virtual_timers_list_t\000"
 9911      75616C5F 
 9911      74696D65 
 9911      72735F6C 
 9911      6973745F 
 9912              	.LASF303:
 9913 084c 696E5F6D 		.ascii	"in_multiplier\000"
 9913      756C7469 
 9913      706C6965 
 9913      7200
 9914              	.LASF334:
 9915 085a 75736270 		.ascii	"usbp\000"
ARM GAS  /tmp/cciPs3oN.s 			page 183


 9915      00
 9916              	.LASF277:
 9917 085f 6E756D5F 		.ascii	"num_endpoints\000"
 9917      656E6470 
 9917      6F696E74 
 9917      7300
 9918              	.LASF64:
 9919 086d 76697274 		.ascii	"virtual_timer_t\000"
 9919      75616C5F 
 9919      74696D65 
 9919      725F7400 
 9920              	.LASF55:
 9921 087d 72656164 		.ascii	"ready_list_t\000"
 9921      795F6C69 
 9921      73745F74 
 9921      00
 9922              	.LASF138:
 9923 088a 715F7772 		.ascii	"q_wrptr\000"
 9923      70747200 
 9924              	.LASF284:
 9925 0892 74787369 		.ascii	"txsize\000"
 9925      7A6500
 9926              	.LASF293:
 9927 0899 7278636E 		.ascii	"rxcnt\000"
 9927      7400
 9928              	.LASF172:
 9929 089f 75736273 		.ascii	"usbstate_t\000"
 9929      74617465 
 9929      5F7400
 9930              	.LASF52:
 9931 08aa 63685F74 		.ascii	"ch_threads_list\000"
 9931      68726561 
 9931      64735F6C 
 9931      69737400 
 9932              	.LASF387:
 9933 08ba 66737061 		.ascii	"fsparams\000"
 9933      72616D73 
 9933      00
 9934              	.LASF383:
 9935 08c3 646F6E65 		.ascii	"done\000"
 9935      00
 9936              	.LASF183:
 9937 08c8 5553425F 		.ascii	"USB_EP0_ERROR\000"
 9937      4550305F 
 9937      4552524F 
 9937      5200
 9938              	.LASF243:
 9939 08d6 72657376 		.ascii	"resvd40C\000"
 9939      64343043 
 9939      00
 9940              	.LASF221:
 9941 08df 474F5447 		.ascii	"GOTGCTL\000"
 9941      43544C00 
 9942              	.LASF83:
 9943 08e7 504C4C43 		.ascii	"PLLCFGR\000"
 9943      46475200 
 9944              	.LASF355:
ARM GAS  /tmp/cciPs3oN.s 			page 184


 9945 08ef 6F74675F 		.ascii	"otg_txfifo_handler\000"
 9945      74786669 
 9945      666F5F68 
 9945      616E646C 
 9945      657200
 9946              	.LASF289:
 9947 0902 72786275 		.ascii	"rxbuf\000"
 9947      6600
 9948              	.LASF229:
 9949 0908 47525853 		.ascii	"GRXSTSP\000"
 9949      54535000 
 9950              	.LASF301:
 9951 0910 696E5F73 		.ascii	"in_state\000"
 9951      74617465 
 9951      00
 9952              	.LASF228:
 9953 0919 47525853 		.ascii	"GRXSTSR\000"
 9953      54535200 
 9954              	.LASF189:
 9955 0921 5553425F 		.ascii	"USB_EVENT_WAKEUP\000"
 9955      4556454E 
 9955      545F5741 
 9955      4B455550 
 9955      00
 9956              	.LASF271:
 9957 0932 50434743 		.ascii	"PCGCCTL\000"
 9957      43544C00 
 9958              	.LASF344:
 9959 093a 6F74675F 		.ascii	"otg_do_push\000"
 9959      646F5F70 
 9959      75736800 
 9960              	.LASF10:
 9961 0946 5F5F7569 		.ascii	"__uint32_t\000"
 9961      6E743332 
 9961      5F7400
 9962              	.LASF306:
 9963 0951 6576656E 		.ascii	"event_cb\000"
 9963      745F6362 
 9963      00
 9964              	.LASF222:
 9965 095a 474F5447 		.ascii	"GOTGINT\000"
 9965      494E5400 
 9966              	.LASF12:
 9967 0962 6C6F6E67 		.ascii	"long long int\000"
 9967      206C6F6E 
 9967      6720696E 
 9967      7400
 9968              	.LASF169:
 9969 0970 5553425F 		.ascii	"USB_READY\000"
 9969      52454144 
 9969      5900
 9970              	.LASF128:
 9971 097a 6D5F7175 		.ascii	"m_queue\000"
 9971      65756500 
 9972              	.LASF313:
 9973 0982 706F7274 		.ascii	"port_lock_from_isr\000"
 9973      5F6C6F63 
ARM GAS  /tmp/cciPs3oN.s 			page 185


 9973      6B5F6672 
 9973      6F6D5F69 
 9973      737200
 9974              	.LASF108:
 9975 0995 53534347 		.ascii	"SSCGR\000"
 9975      5200
 9976              	.LASF66:
 9977 099b 76745F6E 		.ascii	"vt_next\000"
 9977      65787400 
 9978              	.LASF154:
 9979 09a3 6570306E 		.ascii	"ep0next\000"
 9979      65787400 
 9980              	.LASF67:
 9981 09ab 76745F70 		.ascii	"vt_prev\000"
 9981      72657600 
 9982              	.LASF263:
 9983 09b3 72657376 		.ascii	"resvd830\000"
 9983      64383330 
 9983      00
 9984              	.LASF90:
 9985 09bc 41504232 		.ascii	"APB2RSTR\000"
 9985      52535452 
 9985      00
 9986              	.LASF265:
 9987 09c5 72657376 		.ascii	"resvd838\000"
 9987      64383338 
 9987      00
 9988              	.LASF196:
 9989 09ce 75736265 		.ascii	"usbepcallback_t\000"
 9989      7063616C 
 9989      6C626163 
 9989      6B5F7400 
 9990              	.LASF268:
 9991 09de 72657376 		.ascii	"resvd880\000"
 9991      64383830 
 9991      00
 9992              	.LASF388:
 9993 09e7 49544D5F 		.ascii	"ITM_RxBuffer\000"
 9993      52784275 
 9993      66666572 
 9993      00
 9994              	.LASF266:
 9995 09f4 72657376 		.ascii	"resvd83C\000"
 9995      64383343 
 9995      00
 9996              	.LASF104:
 9997 09fd 41504232 		.ascii	"APB2LPENR\000"
 9997      4C50454E 
 9997      5200
 9998              	.LASF164:
 9999 0a07 77616974 		.ascii	"wait\000"
 9999      00
 10000              	.LASF142:
 10001 0a0c 716E6F74 		.ascii	"qnotify_t\000"
 10001      6966795F 
 10001      7400
 10002              	.LASF42:
ARM GAS  /tmp/cciPs3oN.s 			page 186


 10003 0a16 705F7761 		.ascii	"p_waiting\000"
 10003      6974696E 
 10003      6700
 10004              	.LASF350:
 10005 0a20 6E773265 		.ascii	"nw2end\000"
 10005      6E6400
 10006              	.LASF40:
 10007 0a27 705F666C 		.ascii	"p_flags\000"
 10007      61677300 
 10008              	.LASF219:
 10009 0a2f 444F4550 		.ascii	"DOEPTSIZ\000"
 10009      5453495A 
 10009      00
 10010              	.LASF82:
 10011 0a38 69646C65 		.ascii	"idle_thread_wa\000"
 10011      5F746872 
 10011      6561645F 
 10011      776100
 10012              	.LASF245:
 10013 0a47 4841494E 		.ascii	"HAINT\000"
 10013      5400
 10014              	.LASF0:
 10015 0a4d 756E7369 		.ascii	"unsigned int\000"
 10015      676E6564 
 10015      20696E74 
 10015      00
 10016              	.LASF361:
 10017 0a5a 7573625F 		.ascii	"usb_lld_init\000"
 10017      6C6C645F 
 10017      696E6974 
 10017      00
 10018              	.LASF310:
 10019 0a67 55534243 		.ascii	"USBConfig\000"
 10019      6F6E6669 
 10019      6700
 10020              	.LASF360:
 10021 0a71 56656374 		.ascii	"Vector14C\000"
 10021      6F723134 
 10021      4300
 10022              	.LASF22:
 10023 0a7b 7274636E 		.ascii	"rtcnt_t\000"
 10023      745F7400 
 10024              	.LASF163:
 10025 0a83 74787065 		.ascii	"txpending\000"
 10025      6E64696E 
 10025      6700
 10026              	.LASF48:
 10027 0a8d 705F6D70 		.ascii	"p_mpool\000"
 10027      6F6F6C00 
 10028              	.LASF378:
 10029 0a95 7573625F 		.ascii	"usb_lld_stall_in\000"
 10029      6C6C645F 
 10029      7374616C 
 10029      6C5F696E 
 10029      00
 10030              	.LASF274:
 10031 0aa6 73746D33 		.ascii	"stm32_otg_t\000"
ARM GAS  /tmp/cciPs3oN.s 			page 187


 10031      325F6F74 
 10031      675F7400 
 10032              	.LASF41:
 10033 0ab2 705F7265 		.ascii	"p_refs\000"
 10033      667300
 10034              	.LASF375:
 10035 0ab9 7573625F 		.ascii	"usb_lld_start_out\000"
 10035      6C6C645F 
 10035      73746172 
 10035      745F6F75 
 10035      7400
 10036              	.LASF304:
 10037 0acb 73657475 		.ascii	"setup_buf\000"
 10037      705F6275 
 10037      6600
 10038              	.LASF249:
 10039 0ad5 72657376 		.ascii	"resvd444\000"
 10039      64343434 
 10039      00
 10040              	.LASF386:
 10041 0ade 65703063 		.ascii	"ep0config\000"
 10041      6F6E6669 
 10041      6700
 10042              	.LASF298:
 10043 0ae8 6F75745F 		.ascii	"out_cb\000"
 10043      636200
 10044              	.LASF115:
 10045 0aef 6F666673 		.ascii	"offset\000"
 10045      657400
 10046              	.LASF103:
 10047 0af6 41504231 		.ascii	"APB1LPENR\000"
 10047      4C50454E 
 10047      5200
 10048              	.LASF246:
 10049 0b00 4841494E 		.ascii	"HAINTMSK\000"
 10049      544D534B 
 10049      00
 10050              	.LASF168:
 10051 0b09 5553425F 		.ascii	"USB_STOP\000"
 10051      53544F50 
 10051      00
 10052              	.LASF299:
 10053 0b12 696E5F6D 		.ascii	"in_maxsize\000"
 10053      61787369 
 10053      7A6500
 10054              	.LASF227:
 10055 0b1d 47494E54 		.ascii	"GINTMSK\000"
 10055      4D534B00 
 10056              	.LASF302:
 10057 0b25 6F75745F 		.ascii	"out_state\000"
 10057      73746174 
 10057      6500
 10058              	.LASF364:
 10059 0b2f 7573625F 		.ascii	"usb_lld_reset\000"
 10059      6C6C645F 
 10059      72657365 
 10059      7400
ARM GAS  /tmp/cciPs3oN.s 			page 188


 10060              	.LASF365:
 10061 0b3d 7573625F 		.ascii	"usb_lld_set_address\000"
 10061      6C6C645F 
 10061      7365745F 
 10061      61646472 
 10061      65737300 
 10062              	.LASF381:
 10063 0b51 7573625F 		.ascii	"usb_lld_pump\000"
 10063      6C6C645F 
 10063      70756D70 
 10063      00
 10064              	.LASF87:
 10065 0b5e 41484233 		.ascii	"AHB3RSTR\000"
 10065      52535452 
 10065      00
 10066              	.LASF31:
 10067 0b67 74687265 		.ascii	"thread_t\000"
 10067      61645F74 
 10067      00
 10068              	.LASF49:
 10069 0b70 74687265 		.ascii	"thread_reference_t\000"
 10069      61645F72 
 10069      65666572 
 10069      656E6365 
 10069      5F7400
 10070              	.LASF47:
 10071 0b83 705F7265 		.ascii	"p_realprio\000"
 10071      616C7072 
 10071      696F00
 10072              	.LASF179:
 10073 0b8e 5553425F 		.ascii	"USB_EP0_WAITING_TX0\000"
 10073      4550305F 
 10073      57414954 
 10073      494E475F 
 10073      54583000 
 10074              	.LASF114:
 10075 0ba2 706F7274 		.ascii	"port_intctx\000"
 10075      5F696E74 
 10075      63747800 
 10076              	.LASF161:
 10077 0bae 6F746770 		.ascii	"otgparams\000"
 10077      6172616D 
 10077      7300
 10078              	.LASF314:
 10079 0bb8 706F7274 		.ascii	"port_unlock_from_isr\000"
 10079      5F756E6C 
 10079      6F636B5F 
 10079      66726F6D 
 10079      5F697372 
 10080              	.LASF68:
 10081 0bcd 76745F64 		.ascii	"vt_delta\000"
 10081      656C7461 
 10081      00
 10082              	.LASF89:
 10083 0bd6 41504231 		.ascii	"APB1RSTR\000"
 10083      52535452 
 10083      00
ARM GAS  /tmp/cciPs3oN.s 			page 189


 10084              	.LASF65:
 10085 0bdf 63685F76 		.ascii	"ch_virtual_timer\000"
 10085      69727475 
 10085      616C5F74 
 10085      696D6572 
 10085      00
 10086              	.LASF96:
 10087 0bf0 41504231 		.ascii	"APB1ENR\000"
 10087      454E5200 
 10088              	.LASF126:
 10089 0bf8 735F636E 		.ascii	"s_cnt\000"
 10089      7400
 10090              	.LASF294:
 10091 0bfe 5553424F 		.ascii	"USBOutEndpointState\000"
 10091      7574456E 
 10091      64706F69 
 10091      6E745374 
 10091      61746500 
 10092              	.LASF376:
 10093 0c12 7573625F 		.ascii	"usb_lld_start_in\000"
 10093      6C6C645F 
 10093      73746172 
 10093      745F696E 
 10093      00
 10094              	.LASF342:
 10095 0c23 73697A65 		.ascii	"size\000"
 10095      00
 10096              	.LASF270:
 10097 0c28 72657376 		.ascii	"resvdD00\000"
 10097      64443030 
 10097      00
 10098              	.LASF14:
 10099 0c31 6C6F6E67 		.ascii	"long long unsigned int\000"
 10099      206C6F6E 
 10099      6720756E 
 10099      7369676E 
 10099      65642069 
 10100              	.LASF237:
 10101 0c48 48505458 		.ascii	"HPTXFSIZ\000"
 10101      4653495A 
 10101      00
 10102              	.LASF368:
 10103 0c51 7573625F 		.ascii	"usb_lld_disable_endpoints\000"
 10103      6C6C645F 
 10103      64697361 
 10103      626C655F 
 10103      656E6470 
 10104              	.LASF37:
 10105 0c6b 705F6F6C 		.ascii	"p_older\000"
 10105      64657200 
 10106              	.LASF329:
 10107 0c73 63685468 		.ascii	"chThdStartI\000"
 10107      64537461 
 10107      72744900 
 10108              	.LASF18:
 10109 0c7f 75696E74 		.ascii	"uint16_t\000"
 10109      31365F74 
ARM GAS  /tmp/cciPs3oN.s 			page 190


 10109      00
 10110              	.LASF202:
 10111 0c88 4843494E 		.ascii	"HCINT\000"
 10111      5400
 10112              	.LASF281:
 10113 0c8e 6C696E65 		.ascii	"linear\000"
 10113      617200
 10114              	.LASF27:
 10115 0c95 6D73675F 		.ascii	"msg_t\000"
 10115      7400
 10116              	.LASF252:
 10117 0c9b 4443544C 		.ascii	"DCTL\000"
 10117      00
 10118              	.LASF54:
 10119 0ca0 63685F74 		.ascii	"ch_threads_queue\000"
 10119      68726561 
 10119      64735F71 
 10119      75657565 
 10119      00
 10120              	.LASF305:
 10121 0cb1 55534245 		.ascii	"USBEndpointConfig\000"
 10121      6E64706F 
 10121      696E7443 
 10121      6F6E6669 
 10121      6700
 10122              	.LASF203:
 10123 0cc3 4843494E 		.ascii	"HCINTMSK\000"
 10123      544D534B 
 10123      00
 10124              	.LASF393:
 10125 0ccc 76616C75 		.ascii	"value\000"
 10125      6500
 10126              	.LASF291:
 10127 0cd2 72787175 		.ascii	"rxqueued\000"
 10127      65756564 
 10127      00
 10128              	.LASF372:
 10129 0cdb 7573625F 		.ascii	"usb_lld_prepare_receive\000"
 10129      6C6C645F 
 10129      70726570 
 10129      6172655F 
 10129      72656365 
 10130              	.LASF62:
 10131 0cf3 725F6375 		.ascii	"r_current\000"
 10131      7272656E 
 10131      7400
 10132              	.LASF282:
 10133 0cfd 71756575 		.ascii	"queue\000"
 10133      6500
 10134              	.LASF290:
 10135 0d03 72787175 		.ascii	"rxqueue\000"
 10135      65756500 
 10136              	.LASF81:
 10137 0d0b 6D61696E 		.ascii	"mainthread\000"
 10137      74687265 
 10137      616400
 10138              	.LASF258:
ARM GAS  /tmp/cciPs3oN.s 			page 191


 10139 0d16 4441494E 		.ascii	"DAINTMSK\000"
 10139      544D534B 
 10139      00
 10140              	.LASF101:
 10141 0d1f 41484233 		.ascii	"AHB3LPENR\000"
 10141      4C50454E 
 10141      5200
 10142              	.LASF261:
 10143 0d29 44564255 		.ascii	"DVBUSDIS\000"
 10143      53444953 
 10143      00
 10144              	.LASF216:
 10145 0d32 73746D33 		.ascii	"stm32_otg_in_ep_t\000"
 10145      325F6F74 
 10145      675F696E 
 10145      5F65705F 
 10145      7400
 10146              	.LASF392:
 10147 0d44 5F5F7365 		.ascii	"__set_BASEPRI\000"
 10147      745F4241 
 10147      53455052 
 10147      4900
 10148              	.LASF276:
 10149 0d52 6F74675F 		.ascii	"otg_ram_size\000"
 10149      72616D5F 
 10149      73697A65 
 10149      00
 10150              	.LASF300:
 10151 0d5f 6F75745F 		.ascii	"out_maxsize\000"
 10151      6D617873 
 10151      697A6500 
 10152              	.LASF57:
 10153 0d6b 725F7175 		.ascii	"r_queue\000"
 10153      65756500 
 10154              	.LASF187:
 10155 0d73 5553425F 		.ascii	"USB_EVENT_CONFIGURED\000"
 10155      4556454E 
 10155      545F434F 
 10155      4E464947 
 10155      55524544 
 10156              	.LASF273:
 10157 0d88 4649464F 		.ascii	"FIFO\000"
 10157      00
 10158              	.LASF134:
 10159 0d8d 715F7761 		.ascii	"q_waiting\000"
 10159      6974696E 
 10159      6700
 10160              	.LASF79:
 10161 0d97 726C6973 		.ascii	"rlist\000"
 10161      7400
 10162              	.LASF23:
 10163 0d9d 746D6F64 		.ascii	"tmode_t\000"
 10163      655F7400 
 10164              	.LASF326:
 10165 0da5 6F73616C 		.ascii	"osalSysPolledDelayX\000"
 10165      53797350 
 10165      6F6C6C65 
ARM GAS  /tmp/cciPs3oN.s 			page 192


 10165      6444656C 
 10165      61795800 
 10166              	.LASF92:
 10167 0db9 41484231 		.ascii	"AHB1ENR\000"
 10167      454E5200 
 10168              	.LASF247:
 10169 0dc1 72657376 		.ascii	"resvd41C\000"
 10169      64343143 
 10169      00
 10170              	.LASF199:
 10171 0dca 75736267 		.ascii	"usbgetdescriptor_t\000"
 10171      65746465 
 10171      73637269 
 10171      70746F72 
 10171      5F7400
 10172              	.LASF165:
 10173 0ddd 77615F70 		.ascii	"wa_pump\000"
 10173      756D7000 
 10174              	.LASF151:
 10175 0de5 696E5F70 		.ascii	"in_params\000"
 10175      6172616D 
 10175      7300
 10176              	.LASF94:
 10177 0def 41484233 		.ascii	"AHB3ENR\000"
 10177      454E5200 
 10178              	.LASF328:
 10179 0df7 6F73616C 		.ascii	"osalOsRescheduleS\000"
 10179      4F735265 
 10179      73636865 
 10179      64756C65 
 10179      5300
 10180              	.LASF61:
 10181 0e09 725F6F6C 		.ascii	"r_older\000"
 10181      64657200 
 10182              	.LASF116:
 10183 0e11 746D5F63 		.ascii	"tm_calibration_t\000"
 10183      616C6962 
 10183      72617469 
 10183      6F6E5F74 
 10183      00
 10184              	.LASF86:
 10185 0e22 41484232 		.ascii	"AHB2RSTR\000"
 10185      52535452 
 10185      00
 10186              	.LASF321:
 10187 0e2b 6E616D65 		.ascii	"name\000"
 10187      00
 10188              	.LASF338:
 10189 0e30 6F74675F 		.ascii	"otg_txfifo_flush\000"
 10189      74786669 
 10189      666F5F66 
 10189      6C757368 
 10189      00
 10190              	.LASF311:
 10191 0e41 706F7274 		.ascii	"port_lock\000"
 10191      5F6C6F63 
 10191      6B00
ARM GAS  /tmp/cciPs3oN.s 			page 193


 10192              	.LASF125:
 10193 0e4b 735F7175 		.ascii	"s_queue\000"
 10193      65756500 
 10194              	.LASF110:
 10195 0e53 5243435F 		.ascii	"RCC_TypeDef\000"
 10195      54797065 
 10195      44656600 
 10196              	.LASF5:
 10197 0e5f 73686F72 		.ascii	"short int\000"
 10197      7420696E 
 10197      7400
 10198              	.LASF287:
 10199 0e69 746F7473 		.ascii	"totsize\000"
 10199      697A6500 
 10200              	.LASF275:
 10201 0e71 72785F66 		.ascii	"rx_fifo_size\000"
 10201      69666F5F 
 10201      73697A65 
 10201      00
 10202              	.LASF21:
 10203 0e7e 75696E74 		.ascii	"uint64_t\000"
 10203      36345F74 
 10203      00
 10204              	.LASF286:
 10205 0e87 6D6F6465 		.ascii	"mode\000"
 10205      00
 10206              	.LASF127:
 10207 0e8c 63685F6D 		.ascii	"ch_mutex\000"
 10207      75746578 
 10207      00
 10208              	.LASF185:
 10209 0e95 5553425F 		.ascii	"USB_EVENT_RESET\000"
 10209      4556454E 
 10209      545F5245 
 10209      53455400 
 10210              	.LASF205:
 10211 0ea5 72657376 		.ascii	"resvd14\000"
 10211      64313400 
 10212              	.LASF206:
 10213 0ead 72657376 		.ascii	"resvd18\000"
 10213      64313800 
 10214              	.LASF214:
 10215 0eb5 44545846 		.ascii	"DTXFSTS\000"
 10215      53545300 
 10216              	.LASF280:
 10217 0ebd 74787175 		.ascii	"txqueue\000"
 10217      65756500 
 10218              	.LASF351:
 10219 0ec5 6F74675F 		.ascii	"otg_do_pop\000"
 10219      646F5F70 
 10219      6F7000
 10220              	.LASF215:
 10221 0ed0 72657376 		.ascii	"resvd1C\000"
 10221      64314300 
 10222              	.LASF255:
 10223 0ed8 44494550 		.ascii	"DIEPMSK\000"
 10223      4D534B00 
ARM GAS  /tmp/cciPs3oN.s 			page 194


 10224              	.LASF58:
 10225 0ee0 725F7072 		.ascii	"r_prio\000"
 10225      696F00
 10226              	.LASF75:
 10227 0ee7 63685F73 		.ascii	"ch_system_debug\000"
 10227      79737465 
 10227      6D5F6465 
 10227      62756700 
 10228              	.LASF369:
 10229 0ef7 7573625F 		.ascii	"usb_lld_get_status_out\000"
 10229      6C6C645F 
 10229      6765745F 
 10229      73746174 
 10229      75735F6F 
 10230              	.LASF362:
 10231 0f0e 7573625F 		.ascii	"usb_lld_start\000"
 10231      6C6C645F 
 10231      73746172 
 10231      7400
 10232              	.LASF264:
 10233 0f1c 44494550 		.ascii	"DIEPEMPMSK\000"
 10233      454D504D 
 10233      534B00
 10234              	.LASF207:
 10235 0f27 72657376 		.ascii	"resvd1c\000"
 10235      64316300 
 10236              	.LASF132:
 10237 0f2f 696F5F71 		.ascii	"io_queue_t\000"
 10237      75657565 
 10237      5F7400
 10238              	.LASF198:
 10239 0f3a 75736272 		.ascii	"usbreqhandler_t\000"
 10239      65716861 
 10239      6E646C65 
 10239      725F7400 
 10240              	.LASF209:
 10241 0f4a 44494550 		.ascii	"DIEPCTL\000"
 10241      43544C00 
 10242              	.LASF195:
 10243 0f52 75736263 		.ascii	"usbcallback_t\000"
 10243      616C6C62 
 10243      61636B5F 
 10243      7400
 10244              	.LASF225:
 10245 0f60 47525354 		.ascii	"GRSTCTL\000"
 10245      43544C00 
 10246              	.LASF226:
 10247 0f68 47494E54 		.ascii	"GINTSTS\000"
 10247      53545300 
 10248              	.LASF353:
 10249 0f70 6F74675F 		.ascii	"otg_fifo_read_to_queue\000"
 10249      6669666F 
 10249      5F726561 
 10249      645F746F 
 10249      5F717565 
 10250              	.LASF80:
 10251 0f87 76746C69 		.ascii	"vtlist\000"
ARM GAS  /tmp/cciPs3oN.s 			page 195


 10251      737400
 10252              	.LASF380:
 10253 0f8e 7573625F 		.ascii	"usb_lld_clear_in\000"
 10253      6C6C645F 
 10253      636C6561 
 10253      725F696E 
 10253      00
 10254              	.LASF211:
 10255 0f9f 44494550 		.ascii	"DIEPINT\000"
 10255      494E5400 
 10256              	.LASF232:
 10257 0fa7 484E5054 		.ascii	"HNPTXSTS\000"
 10257      58535453 
 10257      00
 10258              	.LASF389:
 10259 0fb0 55534244 		.ascii	"USBD1\000"
 10259      3100
 10260              	.LASF131:
 10261 0fb6 6D757465 		.ascii	"mutex_t\000"
 10261      785F7400 
 10262              	.LASF25:
 10263 0fbe 74726566 		.ascii	"trefs_t\000"
 10263      735F7400 
 10264              	.LASF50:
 10265 0fc6 74687265 		.ascii	"threads_list_t\000"
 10265      6164735F 
 10265      6C697374 
 10265      5F7400
 10266              	.LASF309:
 10267 0fd5 736F665F 		.ascii	"sof_cb\000"
 10267      636200
 10268              	.LASF272:
 10269 0fdc 72657376 		.ascii	"resvdE04\000"
 10269      64453034 
 10269      00
 10270              	.LASF233:
 10271 0fe5 72657376 		.ascii	"resvd30\000"
 10271      64333000 
 10272              	.LASF78:
 10273 0fed 63685F73 		.ascii	"ch_system\000"
 10273      79737465 
 10273      6D00
 10274              	.LASF234:
 10275 0ff7 72657376 		.ascii	"resvd34\000"
 10275      64333400 
 10276              	.LASF340:
 10277 0fff 6F74675F 		.ascii	"otg_ram_reset\000"
 10277      72616D5F 
 10277      72657365 
 10277      7400
 10278              	.LASF20:
 10279 100d 75696E74 		.ascii	"uint32_t\000"
 10279      33325F74 
 10279      00
 10280              	.LASF166:
 10281 1016 75736265 		.ascii	"usbep_t\000"
 10281      705F7400 
ARM GAS  /tmp/cciPs3oN.s 			page 196


 10282              	.LASF143:
 10283 101e 696E7075 		.ascii	"input_queue_t\000"
 10283      745F7175 
 10283      6575655F 
 10283      7400
 10284              	.LASF356:
 10285 102c 6F74675F 		.ascii	"otg_epin_handler\000"
 10285      6570696E 
 10285      5F68616E 
 10285      646C6572 
 10285      00
 10286              	.LASF348:
 10287 103d 6E746F67 		.ascii	"ntogo\000"
 10287      6F00
 10288              	.LASF117:
 10289 1043 7264796D 		.ascii	"rdymsg\000"
 10289      736700
 10290              	.LASF73:
 10291 104a 76745F6C 		.ascii	"vt_lasttime\000"
 10291      61737474 
 10291      696D6500 
 10292              	.LASF7:
 10293 1056 73686F72 		.ascii	"short unsigned int\000"
 10293      7420756E 
 10293      7369676E 
 10293      65642069 
 10293      6E7400
 10294              	.LASF253:
 10295 1069 44535453 		.ascii	"DSTS\000"
 10295      00
 10296              	.LASF307:
 10297 106e 6765745F 		.ascii	"get_descriptor_cb\000"
 10297      64657363 
 10297      72697074 
 10297      6F725F63 
 10297      6200
 10298              	.LASF77:
 10299 1080 63685F73 		.ascii	"ch_system_t\000"
 10299      79737465 
 10299      6D5F7400 
 10300              	.LASF337:
 10301 108c 6F74675F 		.ascii	"otg_rxfifo_flush\000"
 10301      72786669 
 10301      666F5F66 
 10301      6C757368 
 10301      00
 10302              	.LASF188:
 10303 109d 5553425F 		.ascii	"USB_EVENT_SUSPEND\000"
 10303      4556454E 
 10303      545F5355 
 10303      5350454E 
 10303      4400
 10304              	.LASF336:
 10305 10af 6F746770 		.ascii	"otgp\000"
 10305      00
 10306              	.LASF144:
 10307 10b4 6F757470 		.ascii	"output_queue_t\000"
ARM GAS  /tmp/cciPs3oN.s 			page 197


 10307      75745F71 
 10307      75657565 
 10307      5F7400
 10308              	.LASF152:
 10309 10c3 6F75745F 		.ascii	"out_params\000"
 10309      70617261 
 10309      6D7300
 10310              	.LASF173:
 10311 10ce 45505F53 		.ascii	"EP_STATUS_DISABLED\000"
 10311      54415455 
 10311      535F4449 
 10311      5341424C 
 10311      454400
 10312              	.LASF8:
 10313 10e1 5F5F696E 		.ascii	"__int32_t\000"
 10313      7433325F 
 10313      7400
 10314              	.LASF244:
 10315 10eb 48505458 		.ascii	"HPTXSTS\000"
 10315      53545300 
 10316              	.LASF236:
 10317 10f3 72657376 		.ascii	"resvd58\000"
 10317      64353800 
 10318              	.LASF182:
 10319 10fb 5553425F 		.ascii	"USB_EP0_SENDING_STS\000"
 10319      4550305F 
 10319      53454E44 
 10319      494E475F 
 10319      53545300 
 10320              	.LASF320:
 10321 110f 63685265 		.ascii	"chRegSetThreadName\000"
 10321      67536574 
 10321      54687265 
 10321      61644E61 
 10321      6D6500
 10322              	.LASF241:
 10323 1122 48464952 		.ascii	"HFIR\000"
 10323      00
 10324              	.LASF180:
 10325 1127 5553425F 		.ascii	"USB_EP0_WAITING_STS\000"
 10325      4550305F 
 10325      57414954 
 10325      494E475F 
 10325      53545300 
 10326              	.LASF38:
 10327 113b 705F6E61 		.ascii	"p_name\000"
 10327      6D6500
 10328              	.LASF343:
 10329 1142 6E657874 		.ascii	"next\000"
 10329      00
 10330              	.LASF130:
 10331 1147 6D5F6E65 		.ascii	"m_next\000"
 10331      787400
 10332              	.LASF162:
 10333 114e 706D6E65 		.ascii	"pmnext\000"
 10333      787400
 10334              	.LASF341:
ARM GAS  /tmp/cciPs3oN.s 			page 198


 10335 1155 6F74675F 		.ascii	"otg_ram_alloc\000"
 10335      72616D5F 
 10335      616C6C6F 
 10335      6300
 10336              	.LASF283:
 10337 1163 74787175 		.ascii	"txqueued\000"
 10337      65756564 
 10337      00
 10338              	.LASF224:
 10339 116c 47555342 		.ascii	"GUSBCFG\000"
 10339      43464700 
 10340              	.LASF181:
 10341 1174 5553425F 		.ascii	"USB_EP0_RX\000"
 10341      4550305F 
 10341      525800
 10342              	.LASF239:
 10343 117f 72657376 		.ascii	"resvd140\000"
 10343      64313430 
 10343      00
 10344              	.LASF335:
 10345 1188 6F74675F 		.ascii	"otg_disable_ep\000"
 10345      64697361 
 10345      626C655F 
 10345      657000
 10346              	.LASF44:
 10347 1197 705F6D73 		.ascii	"p_msg\000"
 10347      6700
 10348              	.LASF333:
 10349 119d 6F74675F 		.ascii	"otg_core_reset\000"
 10349      636F7265 
 10349      5F726573 
 10349      657400
 10350              	.LASF39:
 10351 11ac 705F7374 		.ascii	"p_state\000"
 10351      61746500 
 10352              		.ident	"GCC: (4.8.4-1+11-1) 4.8.4 20141219 (release)"
ARM GAS  /tmp/cciPs3oN.s 			page 199


DEFINED SYMBOLS
                            *ABS*:0000000000000000 usb_lld.c
     /tmp/cciPs3oN.s:19     .text.port_lock:0000000000000000 $t
     /tmp/cciPs3oN.s:24     .text.port_lock:0000000000000000 port_lock
     /tmp/cciPs3oN.s:55     .text.port_unlock:0000000000000000 $t
     /tmp/cciPs3oN.s:60     .text.port_unlock:0000000000000000 port_unlock
     /tmp/cciPs3oN.s:89     .text.port_lock_from_isr:0000000000000000 $t
     /tmp/cciPs3oN.s:94     .text.port_lock_from_isr:0000000000000000 port_lock_from_isr
     /tmp/cciPs3oN.s:112    .text.port_unlock_from_isr:0000000000000000 $t
     /tmp/cciPs3oN.s:117    .text.port_unlock_from_isr:0000000000000000 port_unlock_from_isr
     /tmp/cciPs3oN.s:135    .text.chSysLock:0000000000000000 $t
     /tmp/cciPs3oN.s:140    .text.chSysLock:0000000000000000 chSysLock
     /tmp/cciPs3oN.s:159    .text.chSysUnlock:0000000000000000 $t
     /tmp/cciPs3oN.s:164    .text.chSysUnlock:0000000000000000 chSysUnlock
     /tmp/cciPs3oN.s:182    .text.chSysLockFromISR:0000000000000000 $t
     /tmp/cciPs3oN.s:187    .text.chSysLockFromISR:0000000000000000 chSysLockFromISR
     /tmp/cciPs3oN.s:205    .text.chSysUnlockFromISR:0000000000000000 $t
     /tmp/cciPs3oN.s:210    .text.chSysUnlockFromISR:0000000000000000 chSysUnlockFromISR
     /tmp/cciPs3oN.s:228    .text.chThdStartI:0000000000000000 $t
     /tmp/cciPs3oN.s:233    .text.chThdStartI:0000000000000000 chThdStartI
     /tmp/cciPs3oN.s:259    .text.chRegSetThreadName:0000000000000000 $t
     /tmp/cciPs3oN.s:264    .text.chRegSetThreadName:0000000000000000 chRegSetThreadName
     /tmp/cciPs3oN.s:287    .text.chRegSetThreadName:0000000000000010 $d
     /tmp/cciPs3oN.s:292    .text.osalSysLock:0000000000000000 $t
     /tmp/cciPs3oN.s:297    .text.osalSysLock:0000000000000000 osalSysLock
     /tmp/cciPs3oN.s:316    .text.osalSysUnlock:0000000000000000 $t
     /tmp/cciPs3oN.s:321    .text.osalSysUnlock:0000000000000000 osalSysUnlock
     /tmp/cciPs3oN.s:339    .text.osalSysLockFromISR:0000000000000000 $t
     /tmp/cciPs3oN.s:344    .text.osalSysLockFromISR:0000000000000000 osalSysLockFromISR
     /tmp/cciPs3oN.s:362    .text.osalSysUnlockFromISR:0000000000000000 $t
     /tmp/cciPs3oN.s:367    .text.osalSysUnlockFromISR:0000000000000000 osalSysUnlockFromISR
     /tmp/cciPs3oN.s:385    .text.osalSysPolledDelayX:0000000000000000 $t
     /tmp/cciPs3oN.s:390    .text.osalSysPolledDelayX:0000000000000000 osalSysPolledDelayX
     /tmp/cciPs3oN.s:413    .text.osalOsRescheduleS:0000000000000000 $t
     /tmp/cciPs3oN.s:418    .text.osalOsRescheduleS:0000000000000000 osalOsRescheduleS
     /tmp/cciPs3oN.s:436    .text.osalThreadSuspendS:0000000000000000 $t
     /tmp/cciPs3oN.s:441    .text.osalThreadSuspendS:0000000000000000 osalThreadSuspendS
     /tmp/cciPs3oN.s:466    .text.osalThreadResumeI:0000000000000000 $t
     /tmp/cciPs3oN.s:471    .text.osalThreadResumeI:0000000000000000 osalThreadResumeI
     /tmp/cciPs3oN.s:496    .text.osalThreadDequeueAllI:0000000000000000 $t
     /tmp/cciPs3oN.s:501    .text.osalThreadDequeueAllI:0000000000000000 osalThreadDequeueAllI
     /tmp/cciPs3oN.s:530    .bss.USBD1:0000000000000000 USBD1
     /tmp/cciPs3oN.s:527    .bss.USBD1:0000000000000000 $d
     /tmp/cciPs3oN.s:533    .bss.ep0_state:0000000000000000 $d
     /tmp/cciPs3oN.s:536    .bss.ep0_state:0000000000000000 ep0_state
     /tmp/cciPs3oN.s:539    .bss.ep0setup_buffer:0000000000000000 $d
     /tmp/cciPs3oN.s:542    .bss.ep0setup_buffer:0000000000000000 ep0setup_buffer
     /tmp/cciPs3oN.s:545    .rodata.ep0config:0000000000000000 $d
     /tmp/cciPs3oN.s:548    .rodata.ep0config:0000000000000000 ep0config
     /tmp/cciPs3oN.s:561    .rodata.fsparams:0000000000000000 $d
     /tmp/cciPs3oN.s:564    .rodata.fsparams:0000000000000000 fsparams
     /tmp/cciPs3oN.s:569    .text.otg_core_reset:0000000000000000 $t
     /tmp/cciPs3oN.s:574    .text.otg_core_reset:0000000000000000 otg_core_reset
     /tmp/cciPs3oN.s:626    .text.otg_disable_ep:0000000000000000 $t
     /tmp/cciPs3oN.s:631    .text.otg_disable_ep:0000000000000000 otg_disable_ep
     /tmp/cciPs3oN.s:788    .text.otg_rxfifo_flush:0000000000000000 $t
     /tmp/cciPs3oN.s:793    .text.otg_rxfifo_flush:0000000000000000 otg_rxfifo_flush
ARM GAS  /tmp/cciPs3oN.s 			page 200


     /tmp/cciPs3oN.s:833    .text.otg_txfifo_flush:0000000000000000 $t
     /tmp/cciPs3oN.s:838    .text.otg_txfifo_flush:0000000000000000 otg_txfifo_flush
     /tmp/cciPs3oN.s:881    .text.otg_ram_reset:0000000000000000 $t
     /tmp/cciPs3oN.s:886    .text.otg_ram_reset:0000000000000000 otg_ram_reset
     /tmp/cciPs3oN.s:910    .text.otg_ram_alloc:0000000000000000 $t
     /tmp/cciPs3oN.s:915    .text.otg_ram_alloc:0000000000000000 otg_ram_alloc
     /tmp/cciPs3oN.s:948    .text.otg_do_push:0000000000000000 $t
     /tmp/cciPs3oN.s:953    .text.otg_do_push:0000000000000000 otg_do_push
     /tmp/cciPs3oN.s:997    .text.otg_fifo_write_from_buffer:0000000000000000 $t
     /tmp/cciPs3oN.s:1002   .text.otg_fifo_write_from_buffer:0000000000000000 otg_fifo_write_from_buffer
     /tmp/cciPs3oN.s:1032   .text.otg_fifo_write_from_queue:0000000000000000 $t
     /tmp/cciPs3oN.s:1037   .text.otg_fifo_write_from_queue:0000000000000000 otg_fifo_write_from_queue
     /tmp/cciPs3oN.s:1216   .text.otg_do_pop:0000000000000000 $t
     /tmp/cciPs3oN.s:1221   .text.otg_do_pop:0000000000000000 otg_do_pop
     /tmp/cciPs3oN.s:1270   .text.otg_fifo_read_to_buffer:0000000000000000 $t
     /tmp/cciPs3oN.s:1275   .text.otg_fifo_read_to_buffer:0000000000000000 otg_fifo_read_to_buffer
     /tmp/cciPs3oN.s:1341   .text.otg_fifo_read_to_queue:0000000000000000 $t
     /tmp/cciPs3oN.s:1346   .text.otg_fifo_read_to_queue:0000000000000000 otg_fifo_read_to_queue
     /tmp/cciPs3oN.s:1509   .text.otg_rxfifo_handler:0000000000000000 $t
     /tmp/cciPs3oN.s:1514   .text.otg_rxfifo_handler:0000000000000000 otg_rxfifo_handler
     /tmp/cciPs3oN.s:1705   .text.otg_txfifo_handler:0000000000000000 $t
     /tmp/cciPs3oN.s:1710   .text.otg_txfifo_handler:0000000000000000 otg_txfifo_handler
     /tmp/cciPs3oN.s:1914   .text.otg_epin_handler:0000000000000000 $t
     /tmp/cciPs3oN.s:1919   .text.otg_epin_handler:0000000000000000 otg_epin_handler
     /tmp/cciPs3oN.s:3627   .text.usb_lld_prepare_transmit:0000000000000000 usb_lld_prepare_transmit
     /tmp/cciPs3oN.s:3780   .text.usb_lld_start_in:0000000000000000 usb_lld_start_in
     /tmp/cciPs3oN.s:2090   .text.otg_epout_handler:0000000000000000 $t
     /tmp/cciPs3oN.s:2095   .text.otg_epout_handler:0000000000000000 otg_epout_handler
     /tmp/cciPs3oN.s:3534   .text.usb_lld_prepare_receive:0000000000000000 usb_lld_prepare_receive
     /tmp/cciPs3oN.s:3738   .text.usb_lld_start_out:0000000000000000 usb_lld_start_out
     /tmp/cciPs3oN.s:2245   .text.usb_lld_serve_interrupt:0000000000000000 $t
     /tmp/cciPs3oN.s:2250   .text.usb_lld_serve_interrupt:0000000000000000 usb_lld_serve_interrupt
     /tmp/cciPs3oN.s:2496   .text.Vector14C:0000000000000000 $t
     /tmp/cciPs3oN.s:2502   .text.Vector14C:0000000000000000 Vector14C
     /tmp/cciPs3oN.s:2522   .text.Vector14C:0000000000000010 $d
     /tmp/cciPs3oN.s:2527   .text.usb_lld_init:0000000000000000 $t
     /tmp/cciPs3oN.s:2533   .text.usb_lld_init:0000000000000000 usb_lld_init
     /tmp/cciPs3oN.s:2567   .text.usb_lld_init:0000000000000024 $d
     /tmp/cciPs3oN.s:2573   .text.usb_lld_start:0000000000000000 $t
     /tmp/cciPs3oN.s:2579   .text.usb_lld_start:0000000000000000 usb_lld_start
     /tmp/cciPs3oN.s:2732   .text.usb_lld_start:00000000000000fc $d
     /tmp/cciPs3oN.s:4005   .text.usb_lld_pump:0000000000000000 usb_lld_pump
     /tmp/cciPs3oN.s:2743   .text.usb_lld_stop:0000000000000000 $t
     /tmp/cciPs3oN.s:2749   .text.usb_lld_stop:0000000000000000 usb_lld_stop
     /tmp/cciPs3oN.s:2811   .text.usb_lld_stop:0000000000000054 $d
     /tmp/cciPs3oN.s:2817   .text.usb_lld_reset:0000000000000000 $t
     /tmp/cciPs3oN.s:2823   .text.usb_lld_reset:0000000000000000 usb_lld_reset
     /tmp/cciPs3oN.s:2985   .text.usb_lld_reset:0000000000000124 $d
     /tmp/cciPs3oN.s:2990   .text.usb_lld_set_address:0000000000000000 $t
     /tmp/cciPs3oN.s:2996   .text.usb_lld_set_address:0000000000000000 usb_lld_set_address
     /tmp/cciPs3oN.s:3028   .text.usb_lld_init_endpoint:0000000000000000 $t
     /tmp/cciPs3oN.s:3034   .text.usb_lld_init_endpoint:0000000000000000 usb_lld_init_endpoint
     /tmp/cciPs3oN.s:3069   .text.usb_lld_init_endpoint:0000000000000034 $d
     /tmp/cciPs3oN.s:3073   .text.usb_lld_init_endpoint:0000000000000044 $t
     /tmp/cciPs3oN.s:3332   .text.usb_lld_init_endpoint:0000000000000244 $d
     /tmp/cciPs3oN.s:3341   .text.usb_lld_disable_endpoints:0000000000000000 $t
     /tmp/cciPs3oN.s:3347   .text.usb_lld_disable_endpoints:0000000000000000 usb_lld_disable_endpoints
ARM GAS  /tmp/cciPs3oN.s 			page 201


     /tmp/cciPs3oN.s:3373   .text.usb_lld_get_status_out:0000000000000000 $t
     /tmp/cciPs3oN.s:3379   .text.usb_lld_get_status_out:0000000000000000 usb_lld_get_status_out
     /tmp/cciPs3oN.s:3430   .text.usb_lld_get_status_in:0000000000000000 $t
     /tmp/cciPs3oN.s:3436   .text.usb_lld_get_status_in:0000000000000000 usb_lld_get_status_in
     /tmp/cciPs3oN.s:3487   .text.usb_lld_read_setup:0000000000000000 $t
     /tmp/cciPs3oN.s:3493   .text.usb_lld_read_setup:0000000000000000 usb_lld_read_setup
     /tmp/cciPs3oN.s:3528   .text.usb_lld_prepare_receive:0000000000000000 $t
     /tmp/cciPs3oN.s:3621   .text.usb_lld_prepare_transmit:0000000000000000 $t
     /tmp/cciPs3oN.s:3732   .text.usb_lld_start_out:0000000000000000 $t
     /tmp/cciPs3oN.s:3774   .text.usb_lld_start_in:0000000000000000 $t
     /tmp/cciPs3oN.s:3827   .text.usb_lld_stall_out:0000000000000000 $t
     /tmp/cciPs3oN.s:3833   .text.usb_lld_stall_out:0000000000000000 usb_lld_stall_out
     /tmp/cciPs3oN.s:3869   .text.usb_lld_stall_in:0000000000000000 $t
     /tmp/cciPs3oN.s:3875   .text.usb_lld_stall_in:0000000000000000 usb_lld_stall_in
     /tmp/cciPs3oN.s:3911   .text.usb_lld_clear_out:0000000000000000 $t
     /tmp/cciPs3oN.s:3917   .text.usb_lld_clear_out:0000000000000000 usb_lld_clear_out
     /tmp/cciPs3oN.s:3953   .text.usb_lld_clear_in:0000000000000000 $t
     /tmp/cciPs3oN.s:3959   .text.usb_lld_clear_in:0000000000000000 usb_lld_clear_in
     /tmp/cciPs3oN.s:3995   .rodata:0000000000000000 $d
     /tmp/cciPs3oN.s:3999   .text.usb_lld_pump:0000000000000000 $t
     /tmp/cciPs3oN.s:4165   .text.usb_lld_pump:0000000000000108 $d
                     .debug_frame:0000000000000010 $d
     /tmp/cciPs3oN.s:291    .text.chRegSetThreadName:0000000000000014 $t
     /tmp/cciPs3oN.s:2526   .text.Vector14C:0000000000000014 $t
     /tmp/cciPs3oN.s:2572   .text.usb_lld_init:000000000000002c $t
     /tmp/cciPs3oN.s:2742   .text.usb_lld_start:0000000000000118 $t
     /tmp/cciPs3oN.s:2816   .text.usb_lld_stop:000000000000005c $t
     /tmp/cciPs3oN.s:2989   .text.usb_lld_reset:0000000000000128 $t
     /tmp/cciPs3oN.s:3340   .text.usb_lld_init_endpoint:0000000000000258 $t
     /tmp/cciPs3oN.s:4169   .text.usb_lld_pump:000000000000010c $t

UNDEFINED SYMBOLS
chSchReadyI
ch
chSysPolledDelayX
chSchRescheduleS
chThdSuspendS
chThdResumeI
chThdDequeueAllI
_usb_ep0setup
_usb_ep0in
_usb_ep0out
_usb_reset
_port_irq_epilogue
usbObjectInit
nvicEnableVector
chThdCreateI
nvicDisableVector
memcpy
