ARM GAS  /tmp/cciPs3oN.s 			page 1


   1              		.syntax unified
   2              		.cpu cortex-m4
   3              		.fpu softvfp
   4              		.eabi_attribute 20, 1
   5              		.eabi_attribute 21, 1
   6              		.eabi_attribute 23, 3
   7              		.eabi_attribute 24, 1
   8              		.eabi_attribute 25, 1
   9              		.eabi_attribute 26, 1
  10              		.eabi_attribute 30, 6
  11              		.eabi_attribute 34, 1
  12              		.eabi_attribute 18, 4
  13              		.thumb
  14              		.file	"usb_lld.c"
  15              		.text
  16              	.Ltext0:
  17              		.cfi_sections	.debug_frame
  18              		.section	.text.port_lock,"ax",%progbits
  19              		.align	2
  20              		.p2align 4,,15
  21              		.thumb
  22              		.thumb_func
  23              		.type	port_lock, %function
  24              	port_lock:
  25              	.LFB127:
  26              		.file 1 "/home/efe/ChibiOS/os/rt/ports/ARMCMx/chcore_v7m.h"
  27              		.loc 1 456 0
  28              		.cfi_startproc
  29              		@ args = 0, pretend = 0, frame = 8
  30              		@ frame_needed = 0, uses_anonymous_args = 0
  31              		@ link register save eliminated.
  32 0000 82B0     		sub	sp, sp, #8
  33              		.cfi_def_cfa_offset 8
  34 0002 2023     		movs	r3, #32
  35 0004 0193     		str	r3, [sp, #4]
  36              	.LBB6:
  37              	.LBB7:
  38              		.file 2 "/home/efe/ChibiOS/os/ext/CMSIS/include/core_cmFunc.h"
  39              		.loc 2 548 0
  40 0006 019B     		ldr	r3, [sp, #4]
  41              	@ 548 "/home/efe/ChibiOS/os/ext/CMSIS/include/core_cmFunc.h" 1
  42 0008 83F31188 		MSR basepri, r3
  43              	@ 0 "" 2
  44              		.thumb
  45              	.LBE7:
  46              	.LBE6:
  47              		.loc 1 463 0
  48 000c 02B0     		add	sp, sp, #8
  49              		@ sp needed
  50 000e 7047     		bx	lr
  51              		.cfi_endproc
  52              	.LFE127:
  53              		.size	port_lock, .-port_lock
  54              		.section	.text.port_unlock,"ax",%progbits
  55              		.align	2
  56              		.p2align 4,,15
  57              		.thumb
ARM GAS  /tmp/cciPs3oN.s 			page 2


  58              		.thumb_func
  59              		.type	port_unlock, %function
  60              	port_unlock:
  61              	.LFB128:
  62              		.loc 1 470 0
  63              		.cfi_startproc
  64              		@ args = 0, pretend = 0, frame = 8
  65              		@ frame_needed = 0, uses_anonymous_args = 0
  66              		@ link register save eliminated.
  67 0000 82B0     		sub	sp, sp, #8
  68              		.cfi_def_cfa_offset 8
  69 0002 0023     		movs	r3, #0
  70 0004 0193     		str	r3, [sp, #4]
  71              	.LBB8:
  72              	.LBB9:
  73              		.loc 2 548 0
  74 0006 019B     		ldr	r3, [sp, #4]
  75              	@ 548 "/home/efe/ChibiOS/os/ext/CMSIS/include/core_cmFunc.h" 1
  76 0008 83F31188 		MSR basepri, r3
  77              	@ 0 "" 2
  78              		.thumb
  79              	.LBE9:
  80              	.LBE8:
  81              		.loc 1 477 0
  82 000c 02B0     		add	sp, sp, #8
  83              		@ sp needed
  84 000e 7047     		bx	lr
  85              		.cfi_endproc
  86              	.LFE128:
  87              		.size	port_unlock, .-port_unlock
  88              		.section	.text.port_lock_from_isr,"ax",%progbits
  89              		.align	2
  90              		.p2align 4,,15
  91              		.thumb
  92              		.thumb_func
  93              		.type	port_lock_from_isr, %function
  94              	port_lock_from_isr:
  95              	.LFB129:
  96              		.loc 1 485 0
  97              		.cfi_startproc
  98              		@ args = 0, pretend = 0, frame = 0
  99              		@ frame_needed = 0, uses_anonymous_args = 0
 100 0000 08B5     		push	{r3, lr}
 101              		.cfi_def_cfa_offset 8
 102              		.cfi_offset 3, -8
 103              		.cfi_offset 14, -4
 104              		.loc 1 487 0
 105 0002 FFF7FEFF 		bl	port_lock
 106              		.loc 1 488 0
 107 0006 08BD     		pop	{r3, pc}
 108              		.cfi_endproc
 109              	.LFE129:
 110              		.size	port_lock_from_isr, .-port_lock_from_isr
 111 0008 AFF30080 		.section	.text.port_unlock_from_isr,"ax",%progbits
 111      AFF30080 
 112              		.align	2
 113              		.p2align 4,,15
ARM GAS  /tmp/cciPs3oN.s 			page 3


 114              		.thumb
 115              		.thumb_func
 116              		.type	port_unlock_from_isr, %function
 117              	port_unlock_from_isr:
 118              	.LFB130:
 119              		.loc 1 496 0
 120              		.cfi_startproc
 121              		@ args = 0, pretend = 0, frame = 0
 122              		@ frame_needed = 0, uses_anonymous_args = 0
 123 0000 08B5     		push	{r3, lr}
 124              		.cfi_def_cfa_offset 8
 125              		.cfi_offset 3, -8
 126              		.cfi_offset 14, -4
 127              		.loc 1 498 0
 128 0002 FFF7FEFF 		bl	port_unlock
 129              		.loc 1 499 0
 130 0006 08BD     		pop	{r3, pc}
 131              		.cfi_endproc
 132              	.LFE130:
 133              		.size	port_unlock_from_isr, .-port_unlock_from_isr
 134 0008 AFF30080 		.section	.text.chSysLock,"ax",%progbits
 134      AFF30080 
 135              		.align	2
 136              		.p2align 4,,15
 137              		.thumb
 138              		.thumb_func
 139              		.type	chSysLock, %function
 140              	chSysLock:
 141              	.LFB167:
 142              		.file 3 "/home/efe/ChibiOS/os/rt/include/chsys.h"
 143              		.loc 3 346 0
 144              		.cfi_startproc
 145              		@ args = 0, pretend = 0, frame = 0
 146              		@ frame_needed = 0, uses_anonymous_args = 0
 147 0000 08B5     		push	{r3, lr}
 148              		.cfi_def_cfa_offset 8
 149              		.cfi_offset 3, -8
 150              		.cfi_offset 14, -4
 151              		.loc 3 348 0
 152 0002 FFF7FEFF 		bl	port_lock
 153              		.loc 3 351 0
 154 0006 08BD     		pop	{r3, pc}
 155              		.cfi_endproc
 156              	.LFE167:
 157              		.size	chSysLock, .-chSysLock
 158 0008 AFF30080 		.section	.text.chSysUnlock,"ax",%progbits
 158      AFF30080 
 159              		.align	2
 160              		.p2align 4,,15
 161              		.thumb
 162              		.thumb_func
 163              		.type	chSysUnlock, %function
 164              	chSysUnlock:
 165              	.LFB168:
 166              		.loc 3 358 0
 167              		.cfi_startproc
 168              		@ args = 0, pretend = 0, frame = 0
ARM GAS  /tmp/cciPs3oN.s 			page 4


 169              		@ frame_needed = 0, uses_anonymous_args = 0
 170 0000 08B5     		push	{r3, lr}
 171              		.cfi_def_cfa_offset 8
 172              		.cfi_offset 3, -8
 173              		.cfi_offset 14, -4
 174              		.loc 3 371 0
 175 0002 FFF7FEFF 		bl	port_unlock
 176              		.loc 3 372 0
 177 0006 08BD     		pop	{r3, pc}
 178              		.cfi_endproc
 179              	.LFE168:
 180              		.size	chSysUnlock, .-chSysUnlock
 181 0008 AFF30080 		.section	.text.chSysLockFromISR,"ax",%progbits
 181      AFF30080 
 182              		.align	2
 183              		.p2align 4,,15
 184              		.thumb
 185              		.thumb_func
 186              		.type	chSysLockFromISR, %function
 187              	chSysLockFromISR:
 188              	.LFB169:
 189              		.loc 3 386 0
 190              		.cfi_startproc
 191              		@ args = 0, pretend = 0, frame = 0
 192              		@ frame_needed = 0, uses_anonymous_args = 0
 193 0000 08B5     		push	{r3, lr}
 194              		.cfi_def_cfa_offset 8
 195              		.cfi_offset 3, -8
 196              		.cfi_offset 14, -4
 197              		.loc 3 388 0
 198 0002 FFF7FEFF 		bl	port_lock_from_isr
 199              		.loc 3 391 0
 200 0006 08BD     		pop	{r3, pc}
 201              		.cfi_endproc
 202              	.LFE169:
 203              		.size	chSysLockFromISR, .-chSysLockFromISR
 204 0008 AFF30080 		.section	.text.chSysUnlockFromISR,"ax",%progbits
 204      AFF30080 
 205              		.align	2
 206              		.p2align 4,,15
 207              		.thumb
 208              		.thumb_func
 209              		.type	chSysUnlockFromISR, %function
 210              	chSysUnlockFromISR:
 211              	.LFB170:
 212              		.loc 3 406 0
 213              		.cfi_startproc
 214              		@ args = 0, pretend = 0, frame = 0
 215              		@ frame_needed = 0, uses_anonymous_args = 0
 216 0000 08B5     		push	{r3, lr}
 217              		.cfi_def_cfa_offset 8
 218              		.cfi_offset 3, -8
 219              		.cfi_offset 14, -4
 220              		.loc 3 410 0
 221 0002 FFF7FEFF 		bl	port_unlock_from_isr
 222              		.loc 3 411 0
 223 0006 08BD     		pop	{r3, pc}
ARM GAS  /tmp/cciPs3oN.s 			page 5


 224              		.cfi_endproc
 225              	.LFE170:
 226              		.size	chSysUnlockFromISR, .-chSysUnlockFromISR
 227 0008 AFF30080 		.section	.text.chThdStartI,"ax",%progbits
 227      AFF30080 
 228              		.align	2
 229              		.p2align 4,,15
 230              		.thumb
 231              		.thumb_func
 232              		.type	chThdStartI, %function
 233              	chThdStartI:
 234              	.LFB192:
 235              		.file 4 "/home/efe/ChibiOS/os/rt/include/chthreads.h"
 236              		.loc 4 245 0
 237              		.cfi_startproc
 238              		@ args = 0, pretend = 0, frame = 8
 239              		@ frame_needed = 0, uses_anonymous_args = 0
 240 0000 00B5     		push	{lr}
 241              		.cfi_def_cfa_offset 4
 242              		.cfi_offset 14, -4
 243 0002 83B0     		sub	sp, sp, #12
 244              		.cfi_def_cfa_offset 16
 245 0004 0190     		str	r0, [sp, #4]
 246              		.loc 4 249 0
 247 0006 0198     		ldr	r0, [sp, #4]
 248 0008 FFF7FEFF 		bl	chSchReadyI
 249 000c 0346     		mov	r3, r0
 250              		.loc 4 250 0
 251 000e 1846     		mov	r0, r3
 252 0010 03B0     		add	sp, sp, #12
 253              		@ sp needed
 254 0012 5DF804FB 		ldr	pc, [sp], #4
 255              		.cfi_endproc
 256              	.LFE192:
 257              		.size	chThdStartI, .-chThdStartI
 258 0016 00BFAFF3 		.section	.text.chRegSetThreadName,"ax",%progbits
 258      0080AFF3 
 258      0080
 259              		.align	2
 260              		.p2align 4,,15
 261              		.thumb
 262              		.thumb_func
 263              		.type	chRegSetThreadName, %function
 264              	chRegSetThreadName:
 265              	.LFB197:
 266              		.file 5 "/home/efe/ChibiOS/os/rt/include/chregistry.h"
 267              		.loc 5 132 0
 268              		.cfi_startproc
 269              		@ args = 0, pretend = 0, frame = 8
 270              		@ frame_needed = 0, uses_anonymous_args = 0
 271              		@ link register save eliminated.
 272 0000 82B0     		sub	sp, sp, #8
 273              		.cfi_def_cfa_offset 8
 274 0002 0190     		str	r0, [sp, #4]
 275              		.loc 5 135 0
 276 0004 024B     		ldr	r3, .L12
 277 0006 9B69     		ldr	r3, [r3, #24]
ARM GAS  /tmp/cciPs3oN.s 			page 6


 278 0008 019A     		ldr	r2, [sp, #4]
 279 000a 9A61     		str	r2, [r3, #24]
 280              		.loc 5 139 0
 281 000c 02B0     		add	sp, sp, #8
 282              		@ sp needed
 283 000e 7047     		bx	lr
 284              	.L13:
 285              		.align	2
 286              	.L12:
 287 0010 00000000 		.word	ch
 288              		.cfi_endproc
 289              	.LFE197:
 290              		.size	chRegSetThreadName, .-chRegSetThreadName
 291 0014 AFF30080 		.section	.text.osalSysLock,"ax",%progbits
 291      AFF30080 
 291      AFF30080 
 292              		.align	2
 293              		.p2align 4,,15
 294              		.thumb
 295              		.thumb_func
 296              		.type	osalSysLock, %function
 297              	osalSysLock:
 298              	.LFB244:
 299              		.file 6 "/home/efe/ChibiOS/os/hal/osal/rt/osal.h"
 300              		.loc 6 491 0
 301              		.cfi_startproc
 302              		@ args = 0, pretend = 0, frame = 0
 303              		@ frame_needed = 0, uses_anonymous_args = 0
 304 0000 08B5     		push	{r3, lr}
 305              		.cfi_def_cfa_offset 8
 306              		.cfi_offset 3, -8
 307              		.cfi_offset 14, -4
 308              		.loc 6 493 0
 309 0002 FFF7FEFF 		bl	chSysLock
 310              		.loc 6 494 0
 311 0006 08BD     		pop	{r3, pc}
 312              		.cfi_endproc
 313              	.LFE244:
 314              		.size	osalSysLock, .-osalSysLock
 315 0008 AFF30080 		.section	.text.osalSysUnlock,"ax",%progbits
 315      AFF30080 
 316              		.align	2
 317              		.p2align 4,,15
 318              		.thumb
 319              		.thumb_func
 320              		.type	osalSysUnlock, %function
 321              	osalSysUnlock:
 322              	.LFB245:
 323              		.loc 6 502 0
 324              		.cfi_startproc
 325              		@ args = 0, pretend = 0, frame = 0
 326              		@ frame_needed = 0, uses_anonymous_args = 0
 327 0000 08B5     		push	{r3, lr}
 328              		.cfi_def_cfa_offset 8
 329              		.cfi_offset 3, -8
 330              		.cfi_offset 14, -4
 331              		.loc 6 504 0
ARM GAS  /tmp/cciPs3oN.s 			page 7


 332 0002 FFF7FEFF 		bl	chSysUnlock
 333              		.loc 6 505 0
 334 0006 08BD     		pop	{r3, pc}
 335              		.cfi_endproc
 336              	.LFE245:
 337              		.size	osalSysUnlock, .-osalSysUnlock
 338 0008 AFF30080 		.section	.text.osalSysLockFromISR,"ax",%progbits
 338      AFF30080 
 339              		.align	2
 340              		.p2align 4,,15
 341              		.thumb
 342              		.thumb_func
 343              		.type	osalSysLockFromISR, %function
 344              	osalSysLockFromISR:
 345              	.LFB246:
 346              		.loc 6 513 0
 347              		.cfi_startproc
 348              		@ args = 0, pretend = 0, frame = 0
 349              		@ frame_needed = 0, uses_anonymous_args = 0
 350 0000 08B5     		push	{r3, lr}
 351              		.cfi_def_cfa_offset 8
 352              		.cfi_offset 3, -8
 353              		.cfi_offset 14, -4
 354              		.loc 6 515 0
 355 0002 FFF7FEFF 		bl	chSysLockFromISR
 356              		.loc 6 516 0
 357 0006 08BD     		pop	{r3, pc}
 358              		.cfi_endproc
 359              	.LFE246:
 360              		.size	osalSysLockFromISR, .-osalSysLockFromISR
 361 0008 AFF30080 		.section	.text.osalSysUnlockFromISR,"ax",%progbits
 361      AFF30080 
 362              		.align	2
 363              		.p2align 4,,15
 364              		.thumb
 365              		.thumb_func
 366              		.type	osalSysUnlockFromISR, %function
 367              	osalSysUnlockFromISR:
 368              	.LFB247:
 369              		.loc 6 524 0
 370              		.cfi_startproc
 371              		@ args = 0, pretend = 0, frame = 0
 372              		@ frame_needed = 0, uses_anonymous_args = 0
 373 0000 08B5     		push	{r3, lr}
 374              		.cfi_def_cfa_offset 8
 375              		.cfi_offset 3, -8
 376              		.cfi_offset 14, -4
 377              		.loc 6 526 0
 378 0002 FFF7FEFF 		bl	chSysUnlockFromISR
 379              		.loc 6 527 0
 380 0006 08BD     		pop	{r3, pc}
 381              		.cfi_endproc
 382              	.LFE247:
 383              		.size	osalSysUnlockFromISR, .-osalSysUnlockFromISR
 384 0008 AFF30080 		.section	.text.osalSysPolledDelayX,"ax",%progbits
 384      AFF30080 
 385              		.align	2
ARM GAS  /tmp/cciPs3oN.s 			page 8


 386              		.p2align 4,,15
 387              		.thumb
 388              		.thumb_func
 389              		.type	osalSysPolledDelayX, %function
 390              	osalSysPolledDelayX:
 391              	.LFB250:
 392              		.loc 6 571 0
 393              		.cfi_startproc
 394              		@ args = 0, pretend = 0, frame = 8
 395              		@ frame_needed = 0, uses_anonymous_args = 0
 396 0000 00B5     		push	{lr}
 397              		.cfi_def_cfa_offset 4
 398              		.cfi_offset 14, -4
 399 0002 83B0     		sub	sp, sp, #12
 400              		.cfi_def_cfa_offset 16
 401 0004 0190     		str	r0, [sp, #4]
 402              		.loc 6 573 0
 403 0006 0198     		ldr	r0, [sp, #4]
 404 0008 FFF7FEFF 		bl	chSysPolledDelayX
 405              		.loc 6 574 0
 406 000c 03B0     		add	sp, sp, #12
 407              		@ sp needed
 408 000e 5DF804FB 		ldr	pc, [sp], #4
 409              		.cfi_endproc
 410              	.LFE250:
 411              		.size	osalSysPolledDelayX, .-osalSysPolledDelayX
 412 0012 00BFAFF3 		.section	.text.osalOsRescheduleS,"ax",%progbits
 412      0080AFF3 
 412      0080AFF3 
 412      0080
 413              		.align	2
 414              		.p2align 4,,15
 415              		.thumb
 416              		.thumb_func
 417              		.type	osalOsRescheduleS, %function
 418              	osalOsRescheduleS:
 419              	.LFB252:
 420              		.loc 6 598 0
 421              		.cfi_startproc
 422              		@ args = 0, pretend = 0, frame = 0
 423              		@ frame_needed = 0, uses_anonymous_args = 0
 424 0000 08B5     		push	{r3, lr}
 425              		.cfi_def_cfa_offset 8
 426              		.cfi_offset 3, -8
 427              		.cfi_offset 14, -4
 428              		.loc 6 600 0
 429 0002 FFF7FEFF 		bl	chSchRescheduleS
 430              		.loc 6 601 0
 431 0006 08BD     		pop	{r3, pc}
 432              		.cfi_endproc
 433              	.LFE252:
 434              		.size	osalOsRescheduleS, .-osalOsRescheduleS
 435 0008 AFF30080 		.section	.text.osalThreadSuspendS,"ax",%progbits
 435      AFF30080 
 436              		.align	2
 437              		.p2align 4,,15
 438              		.thumb
ARM GAS  /tmp/cciPs3oN.s 			page 9


 439              		.thumb_func
 440              		.type	osalThreadSuspendS, %function
 441              	osalThreadSuspendS:
 442              	.LFB257:
 443              		.loc 6 686 0
 444              		.cfi_startproc
 445              		@ args = 0, pretend = 0, frame = 8
 446              		@ frame_needed = 0, uses_anonymous_args = 0
 447 0000 00B5     		push	{lr}
 448              		.cfi_def_cfa_offset 4
 449              		.cfi_offset 14, -4
 450 0002 83B0     		sub	sp, sp, #12
 451              		.cfi_def_cfa_offset 16
 452 0004 0190     		str	r0, [sp, #4]
 453              		.loc 6 688 0
 454 0006 0198     		ldr	r0, [sp, #4]
 455 0008 FFF7FEFF 		bl	chThdSuspendS
 456 000c 0346     		mov	r3, r0
 457              		.loc 6 689 0
 458 000e 1846     		mov	r0, r3
 459 0010 03B0     		add	sp, sp, #12
 460              		@ sp needed
 461 0012 5DF804FB 		ldr	pc, [sp], #4
 462              		.cfi_endproc
 463              	.LFE257:
 464              		.size	osalThreadSuspendS, .-osalThreadSuspendS
 465 0016 00BFAFF3 		.section	.text.osalThreadResumeI,"ax",%progbits
 465      0080AFF3 
 465      0080
 466              		.align	2
 467              		.p2align 4,,15
 468              		.thumb
 469              		.thumb_func
 470              		.type	osalThreadResumeI, %function
 471              	osalThreadResumeI:
 472              	.LFB259:
 473              		.loc 6 726 0
 474              		.cfi_startproc
 475              		@ args = 0, pretend = 0, frame = 8
 476              		@ frame_needed = 0, uses_anonymous_args = 0
 477 0000 00B5     		push	{lr}
 478              		.cfi_def_cfa_offset 4
 479              		.cfi_offset 14, -4
 480 0002 83B0     		sub	sp, sp, #12
 481              		.cfi_def_cfa_offset 16
 482 0004 0190     		str	r0, [sp, #4]
 483 0006 0091     		str	r1, [sp]
 484              		.loc 6 728 0
 485 0008 0198     		ldr	r0, [sp, #4]
 486 000a 0099     		ldr	r1, [sp]
 487 000c FFF7FEFF 		bl	chThdResumeI
 488              		.loc 6 729 0
 489 0010 03B0     		add	sp, sp, #12
 490              		@ sp needed
 491 0012 5DF804FB 		ldr	pc, [sp], #4
 492              		.cfi_endproc
 493              	.LFE259:
ARM GAS  /tmp/cciPs3oN.s 			page 10


 494              		.size	osalThreadResumeI, .-osalThreadResumeI
 495 0016 00BFAFF3 		.section	.text.osalThreadDequeueAllI,"ax",%progbits
 495      0080AFF3 
 495      0080
 496              		.align	2
 497              		.p2align 4,,15
 498              		.thumb
 499              		.thumb_func
 500              		.type	osalThreadDequeueAllI, %function
 501              	osalThreadDequeueAllI:
 502              	.LFB264:
 503              		.loc 6 808 0
 504              		.cfi_startproc
 505              		@ args = 0, pretend = 0, frame = 8
 506              		@ frame_needed = 0, uses_anonymous_args = 0
 507 0000 00B5     		push	{lr}
 508              		.cfi_def_cfa_offset 4
 509              		.cfi_offset 14, -4
 510 0002 83B0     		sub	sp, sp, #12
 511              		.cfi_def_cfa_offset 16
 512 0004 0190     		str	r0, [sp, #4]
 513 0006 0091     		str	r1, [sp]
 514              		.loc 6 810 0
 515 0008 0198     		ldr	r0, [sp, #4]
 516 000a 0099     		ldr	r1, [sp]
 517 000c FFF7FEFF 		bl	chThdDequeueAllI
 518              		.loc 6 811 0
 519 0010 03B0     		add	sp, sp, #12
 520              		@ sp needed
 521 0012 5DF804FB 		ldr	pc, [sp], #4
 522              		.cfi_endproc
 523              	.LFE264:
 524              		.size	osalThreadDequeueAllI, .-osalThreadDequeueAllI
 525              		.global	USBD1
 526 0016 00BFAFF3 		.section	.bss.USBD1,"aw",%nobits
 526      0080AFF3 
 526      0080
 527              		.align	3
 528              		.type	USBD1, %object
 529              		.size	USBD1, 432
 530              	USBD1:
 531 0000 00000000 		.space	432
 531      00000000 
 531      00000000 
 531      00000000 
 531      00000000 
 532              		.section	.bss.ep0_state,"aw",%nobits
 533              		.align	2
 534              		.type	ep0_state, %object
 535              		.size	ep0_state, 20
 536              	ep0_state:
 537 0000 00000000 		.space	20
 537      00000000 
 537      00000000 
 537      00000000 
 537      00000000 
 538              		.section	.bss.ep0setup_buffer,"aw",%nobits
ARM GAS  /tmp/cciPs3oN.s 			page 11


 539              		.align	2
 540              		.type	ep0setup_buffer, %object
 541              		.size	ep0setup_buffer, 8
 542              	ep0setup_buffer:
 543 0000 00000000 		.space	8
 543      00000000 
 544              		.section	.rodata.ep0config,"a",%progbits
 545              		.align	2
 546              		.type	ep0config, %object
 547              		.size	ep0config, 36
 548              	ep0config:
 549 0000 00000000 		.word	0
 550 0004 00000000 		.word	_usb_ep0setup
 551 0008 00000000 		.word	_usb_ep0in
 552 000c 00000000 		.word	_usb_ep0out
 553 0010 4000     		.short	64
 554 0012 4000     		.short	64
 555 0014 00000000 		.word	ep0_state
 556 0018 00000000 		.word	ep0_state
 557 001c 0100     		.short	1
 558 001e 0000     		.space	2
 559 0020 00000000 		.word	ep0setup_buffer
 560              		.section	.rodata.fsparams,"a",%progbits
 561              		.align	2
 562              		.type	fsparams, %object
 563              		.size	fsparams, 12
 564              	fsparams:
 565 0000 80000000 		.word	128
 566 0004 40010000 		.word	320
 567 0008 03000000 		.word	3
 568              		.section	.text.otg_core_reset,"ax",%progbits
 569              		.align	2
 570              		.p2align 4,,15
 571              		.thumb
 572              		.thumb_func
 573              		.type	otg_core_reset, %function
 574              	otg_core_reset:
 575              	.LFB271:
 576              		.file 7 "/home/efe/ChibiOS/os/hal/ports/STM32/LLD/OTGv1/usb_lld.c"
 577              		.loc 7 128 0
 578              		.cfi_startproc
 579              		@ args = 0, pretend = 0, frame = 16
 580              		@ frame_needed = 0, uses_anonymous_args = 0
 581 0000 00B5     		push	{lr}
 582              		.cfi_def_cfa_offset 4
 583              		.cfi_offset 14, -4
 584 0002 85B0     		sub	sp, sp, #20
 585              		.cfi_def_cfa_offset 24
 586 0004 0190     		str	r0, [sp, #4]
 587              		.loc 7 129 0
 588 0006 019B     		ldr	r3, [sp, #4]
 589 0008 1B6D     		ldr	r3, [r3, #80]
 590 000a 0393     		str	r3, [sp, #12]
 591              		.loc 7 131 0
 592 000c 2020     		movs	r0, #32
 593 000e FFF7FEFF 		bl	osalSysPolledDelayX
 594              		.loc 7 134 0
ARM GAS  /tmp/cciPs3oN.s 			page 12


 595 0012 039B     		ldr	r3, [sp, #12]
 596 0014 0122     		movs	r2, #1
 597 0016 1A61     		str	r2, [r3, #16]
 598              		.loc 7 135 0
 599 0018 00BF     		nop
 600              	.L25:
 601              		.loc 7 135 0 is_stmt 0 discriminator 1
 602 001a 039B     		ldr	r3, [sp, #12]
 603 001c 1B69     		ldr	r3, [r3, #16]
 604 001e 03F00103 		and	r3, r3, #1
 605 0022 002B     		cmp	r3, #0
 606 0024 F9D1     		bne	.L25
 607              		.loc 7 138 0 is_stmt 1
 608 0026 0C20     		movs	r0, #12
 609 0028 FFF7FEFF 		bl	osalSysPolledDelayX
 610              		.loc 7 141 0
 611 002c 00BF     		nop
 612              	.L26:
 613              		.loc 7 141 0 is_stmt 0 discriminator 1
 614 002e 039B     		ldr	r3, [sp, #12]
 615 0030 1B69     		ldr	r3, [r3, #16]
 616 0032 002B     		cmp	r3, #0
 617 0034 FBDA     		bge	.L26
 618              		.loc 7 143 0 is_stmt 1
 619 0036 05B0     		add	sp, sp, #20
 620              		@ sp needed
 621 0038 5DF804FB 		ldr	pc, [sp], #4
 622              		.cfi_endproc
 623              	.LFE271:
 624              		.size	otg_core_reset, .-otg_core_reset
 625 003c AFF30080 		.section	.text.otg_disable_ep,"ax",%progbits
 626              		.align	2
 627              		.p2align 4,,15
 628              		.thumb
 629              		.thumb_func
 630              		.type	otg_disable_ep, %function
 631              	otg_disable_ep:
 632              	.LFB272:
 633              		.loc 7 145 0
 634              		.cfi_startproc
 635              		@ args = 0, pretend = 0, frame = 16
 636              		@ frame_needed = 0, uses_anonymous_args = 0
 637              		@ link register save eliminated.
 638 0000 84B0     		sub	sp, sp, #16
 639              		.cfi_def_cfa_offset 16
 640 0002 0190     		str	r0, [sp, #4]
 641              		.loc 7 146 0
 642 0004 019B     		ldr	r3, [sp, #4]
 643 0006 1B6D     		ldr	r3, [r3, #80]
 644 0008 0293     		str	r3, [sp, #8]
 645              		.loc 7 149 0
 646 000a 0023     		movs	r3, #0
 647 000c 0393     		str	r3, [sp, #12]
 648 000e 6CE0     		b	.L28
 649              	.L35:
 650              		.loc 7 153 0
 651 0010 029A     		ldr	r2, [sp, #8]
ARM GAS  /tmp/cciPs3oN.s 			page 13


 652 0012 039B     		ldr	r3, [sp, #12]
 653 0014 4833     		adds	r3, r3, #72
 654 0016 5B01     		lsls	r3, r3, #5
 655 0018 1344     		add	r3, r3, r2
 656 001a 1B68     		ldr	r3, [r3]
 657 001c 002B     		cmp	r3, #0
 658 001e 14DA     		bge	.L29
 659              		.loc 7 154 0
 660 0020 029A     		ldr	r2, [sp, #8]
 661 0022 039B     		ldr	r3, [sp, #12]
 662 0024 4833     		adds	r3, r3, #72
 663 0026 5B01     		lsls	r3, r3, #5
 664 0028 1344     		add	r3, r3, r2
 665 002a 4FF08042 		mov	r2, #1073741824
 666 002e 1A60     		str	r2, [r3]
 667              		.loc 7 156 0
 668 0030 00BF     		nop
 669              	.L30:
 670              		.loc 7 156 0 is_stmt 0 discriminator 1
 671 0032 029A     		ldr	r2, [sp, #8]
 672 0034 039B     		ldr	r3, [sp, #12]
 673 0036 5B01     		lsls	r3, r3, #5
 674 0038 1344     		add	r3, r3, r2
 675 003a 03F60813 		addw	r3, r3, #2312
 676 003e 1B68     		ldr	r3, [r3]
 677 0040 03F00203 		and	r3, r3, #2
 678 0044 002B     		cmp	r3, #0
 679 0046 F4D0     		beq	.L30
 680 0048 06E0     		b	.L31
 681              	.L29:
 682              		.loc 7 160 0 is_stmt 1
 683 004a 029A     		ldr	r2, [sp, #8]
 684 004c 039B     		ldr	r3, [sp, #12]
 685 004e 4833     		adds	r3, r3, #72
 686 0050 5B01     		lsls	r3, r3, #5
 687 0052 1344     		add	r3, r3, r2
 688 0054 0022     		movs	r2, #0
 689 0056 1A60     		str	r2, [r3]
 690              	.L31:
 691              		.loc 7 161 0
 692 0058 029A     		ldr	r2, [sp, #8]
 693 005a 039B     		ldr	r3, [sp, #12]
 694 005c 5B01     		lsls	r3, r3, #5
 695 005e 1344     		add	r3, r3, r2
 696 0060 03F51163 		add	r3, r3, #2320
 697 0064 0022     		movs	r2, #0
 698 0066 1A60     		str	r2, [r3]
 699              		.loc 7 162 0
 700 0068 029A     		ldr	r2, [sp, #8]
 701 006a 039B     		ldr	r3, [sp, #12]
 702 006c 5B01     		lsls	r3, r3, #5
 703 006e 1344     		add	r3, r3, r2
 704 0070 03F60813 		addw	r3, r3, #2312
 705 0074 4FF0FF32 		mov	r2, #-1
 706 0078 1A60     		str	r2, [r3]
 707              		.loc 7 168 0
 708 007a 029A     		ldr	r2, [sp, #8]
ARM GAS  /tmp/cciPs3oN.s 			page 14


 709 007c 039B     		ldr	r3, [sp, #12]
 710 007e 5833     		adds	r3, r3, #88
 711 0080 5B01     		lsls	r3, r3, #5
 712 0082 1344     		add	r3, r3, r2
 713 0084 1B68     		ldr	r3, [r3]
 714 0086 002B     		cmp	r3, #0
 715 0088 14DA     		bge	.L32
 716              		.loc 7 169 0
 717 008a 029A     		ldr	r2, [sp, #8]
 718 008c 039B     		ldr	r3, [sp, #12]
 719 008e 5833     		adds	r3, r3, #88
 720 0090 5B01     		lsls	r3, r3, #5
 721 0092 1344     		add	r3, r3, r2
 722 0094 4FF08042 		mov	r2, #1073741824
 723 0098 1A60     		str	r2, [r3]
 724              		.loc 7 171 0
 725 009a 00BF     		nop
 726              	.L33:
 727              		.loc 7 171 0 is_stmt 0 discriminator 1
 728 009c 029A     		ldr	r2, [sp, #8]
 729 009e 039B     		ldr	r3, [sp, #12]
 730 00a0 5B01     		lsls	r3, r3, #5
 731 00a2 1344     		add	r3, r3, r2
 732 00a4 03F60833 		addw	r3, r3, #2824
 733 00a8 1B68     		ldr	r3, [r3]
 734 00aa 03F01003 		and	r3, r3, #16
 735 00ae 002B     		cmp	r3, #0
 736 00b0 F4D0     		beq	.L33
 737 00b2 06E0     		b	.L34
 738              	.L32:
 739              		.loc 7 175 0 is_stmt 1
 740 00b4 029A     		ldr	r2, [sp, #8]
 741 00b6 039B     		ldr	r3, [sp, #12]
 742 00b8 5833     		adds	r3, r3, #88
 743 00ba 5B01     		lsls	r3, r3, #5
 744 00bc 1344     		add	r3, r3, r2
 745 00be 0022     		movs	r2, #0
 746 00c0 1A60     		str	r2, [r3]
 747              	.L34:
 748              		.loc 7 176 0
 749 00c2 029A     		ldr	r2, [sp, #8]
 750 00c4 039B     		ldr	r3, [sp, #12]
 751 00c6 5B01     		lsls	r3, r3, #5
 752 00c8 1344     		add	r3, r3, r2
 753 00ca 03F53163 		add	r3, r3, #2832
 754 00ce 0022     		movs	r2, #0
 755 00d0 1A60     		str	r2, [r3]
 756              		.loc 7 177 0
 757 00d2 029A     		ldr	r2, [sp, #8]
 758 00d4 039B     		ldr	r3, [sp, #12]
 759 00d6 5B01     		lsls	r3, r3, #5
 760 00d8 1344     		add	r3, r3, r2
 761 00da 03F60833 		addw	r3, r3, #2824
 762 00de 4FF0FF32 		mov	r2, #-1
 763 00e2 1A60     		str	r2, [r3]
 764              		.loc 7 149 0
 765 00e4 039B     		ldr	r3, [sp, #12]
ARM GAS  /tmp/cciPs3oN.s 			page 15


 766 00e6 0133     		adds	r3, r3, #1
 767 00e8 0393     		str	r3, [sp, #12]
 768              	.L28:
 769              		.loc 7 149 0 is_stmt 0 discriminator 1
 770 00ea 019B     		ldr	r3, [sp, #4]
 771 00ec 5B6D     		ldr	r3, [r3, #84]
 772 00ee 9A68     		ldr	r2, [r3, #8]
 773 00f0 039B     		ldr	r3, [sp, #12]
 774 00f2 9A42     		cmp	r2, r3
 775 00f4 8CD2     		bcs	.L35
 776              		.loc 7 179 0 is_stmt 1
 777 00f6 029B     		ldr	r3, [sp, #8]
 778 00f8 4FF00112 		mov	r2, #65537
 779 00fc C3F81C28 		str	r2, [r3, #2076]
 780              		.loc 7 180 0
 781 0100 04B0     		add	sp, sp, #16
 782              		@ sp needed
 783 0102 7047     		bx	lr
 784              		.cfi_endproc
 785              	.LFE272:
 786              		.size	otg_disable_ep, .-otg_disable_ep
 787 0104 AFF30080 		.section	.text.otg_rxfifo_flush,"ax",%progbits
 787      AFF30080 
 787      AFF30080 
 788              		.align	2
 789              		.p2align 4,,15
 790              		.thumb
 791              		.thumb_func
 792              		.type	otg_rxfifo_flush, %function
 793              	otg_rxfifo_flush:
 794              	.LFB273:
 795              		.loc 7 182 0
 796              		.cfi_startproc
 797              		@ args = 0, pretend = 0, frame = 16
 798              		@ frame_needed = 0, uses_anonymous_args = 0
 799 0000 00B5     		push	{lr}
 800              		.cfi_def_cfa_offset 4
 801              		.cfi_offset 14, -4
 802 0002 85B0     		sub	sp, sp, #20
 803              		.cfi_def_cfa_offset 24
 804 0004 0190     		str	r0, [sp, #4]
 805              		.loc 7 183 0
 806 0006 019B     		ldr	r3, [sp, #4]
 807 0008 1B6D     		ldr	r3, [r3, #80]
 808 000a 0393     		str	r3, [sp, #12]
 809              		.loc 7 185 0
 810 000c 039B     		ldr	r3, [sp, #12]
 811 000e 1022     		movs	r2, #16
 812 0010 1A61     		str	r2, [r3, #16]
 813              		.loc 7 186 0
 814 0012 00BF     		nop
 815              	.L37:
 816              		.loc 7 186 0 is_stmt 0 discriminator 1
 817 0014 039B     		ldr	r3, [sp, #12]
 818 0016 1B69     		ldr	r3, [r3, #16]
 819 0018 03F01003 		and	r3, r3, #16
 820 001c 002B     		cmp	r3, #0
ARM GAS  /tmp/cciPs3oN.s 			page 16


 821 001e F9D1     		bne	.L37
 822              		.loc 7 189 0 is_stmt 1
 823 0020 0C20     		movs	r0, #12
 824 0022 FFF7FEFF 		bl	osalSysPolledDelayX
 825              		.loc 7 190 0
 826 0026 05B0     		add	sp, sp, #20
 827              		@ sp needed
 828 0028 5DF804FB 		ldr	pc, [sp], #4
 829              		.cfi_endproc
 830              	.LFE273:
 831              		.size	otg_rxfifo_flush, .-otg_rxfifo_flush
 832 002c AFF30080 		.section	.text.otg_txfifo_flush,"ax",%progbits
 833              		.align	2
 834              		.p2align 4,,15
 835              		.thumb
 836              		.thumb_func
 837              		.type	otg_txfifo_flush, %function
 838              	otg_txfifo_flush:
 839              	.LFB274:
 840              		.loc 7 192 0
 841              		.cfi_startproc
 842              		@ args = 0, pretend = 0, frame = 16
 843              		@ frame_needed = 0, uses_anonymous_args = 0
 844 0000 00B5     		push	{lr}
 845              		.cfi_def_cfa_offset 4
 846              		.cfi_offset 14, -4
 847 0002 85B0     		sub	sp, sp, #20
 848              		.cfi_def_cfa_offset 24
 849 0004 0190     		str	r0, [sp, #4]
 850 0006 0091     		str	r1, [sp]
 851              		.loc 7 193 0
 852 0008 019B     		ldr	r3, [sp, #4]
 853 000a 1B6D     		ldr	r3, [r3, #80]
 854 000c 0393     		str	r3, [sp, #12]
 855              		.loc 7 195 0
 856 000e 009B     		ldr	r3, [sp]
 857 0010 9B01     		lsls	r3, r3, #6
 858 0012 43F02002 		orr	r2, r3, #32
 859 0016 039B     		ldr	r3, [sp, #12]
 860 0018 1A61     		str	r2, [r3, #16]
 861              		.loc 7 196 0
 862 001a 00BF     		nop
 863              	.L39:
 864              		.loc 7 196 0 is_stmt 0 discriminator 1
 865 001c 039B     		ldr	r3, [sp, #12]
 866 001e 1B69     		ldr	r3, [r3, #16]
 867 0020 03F02003 		and	r3, r3, #32
 868 0024 002B     		cmp	r3, #0
 869 0026 F9D1     		bne	.L39
 870              		.loc 7 199 0 is_stmt 1
 871 0028 0C20     		movs	r0, #12
 872 002a FFF7FEFF 		bl	osalSysPolledDelayX
 873              		.loc 7 200 0
 874 002e 05B0     		add	sp, sp, #20
 875              		@ sp needed
 876 0030 5DF804FB 		ldr	pc, [sp], #4
 877              		.cfi_endproc
ARM GAS  /tmp/cciPs3oN.s 			page 17


 878              	.LFE274:
 879              		.size	otg_txfifo_flush, .-otg_txfifo_flush
 880 0034 AFF30080 		.section	.text.otg_ram_reset,"ax",%progbits
 880      AFF30080 
 880      AFF30080 
 881              		.align	2
 882              		.p2align 4,,15
 883              		.thumb
 884              		.thumb_func
 885              		.type	otg_ram_reset, %function
 886              	otg_ram_reset:
 887              	.LFB275:
 888              		.loc 7 209 0
 889              		.cfi_startproc
 890              		@ args = 0, pretend = 0, frame = 8
 891              		@ frame_needed = 0, uses_anonymous_args = 0
 892              		@ link register save eliminated.
 893 0000 82B0     		sub	sp, sp, #8
 894              		.cfi_def_cfa_offset 8
 895 0002 0190     		str	r0, [sp, #4]
 896              		.loc 7 211 0
 897 0004 019B     		ldr	r3, [sp, #4]
 898 0006 5B6D     		ldr	r3, [r3, #84]
 899 0008 1A68     		ldr	r2, [r3]
 900 000a 019B     		ldr	r3, [sp, #4]
 901 000c 9A65     		str	r2, [r3, #88]
 902              		.loc 7 212 0
 903 000e 02B0     		add	sp, sp, #8
 904              		@ sp needed
 905 0010 7047     		bx	lr
 906              		.cfi_endproc
 907              	.LFE275:
 908              		.size	otg_ram_reset, .-otg_ram_reset
 909 0012 00BFAFF3 		.section	.text.otg_ram_alloc,"ax",%progbits
 909      0080AFF3 
 909      0080AFF3 
 909      0080
 910              		.align	2
 911              		.p2align 4,,15
 912              		.thumb
 913              		.thumb_func
 914              		.type	otg_ram_alloc, %function
 915              	otg_ram_alloc:
 916              	.LFB276:
 917              		.loc 7 222 0
 918              		.cfi_startproc
 919              		@ args = 0, pretend = 0, frame = 16
 920              		@ frame_needed = 0, uses_anonymous_args = 0
 921              		@ link register save eliminated.
 922 0000 84B0     		sub	sp, sp, #16
 923              		.cfi_def_cfa_offset 16
 924 0002 0190     		str	r0, [sp, #4]
 925 0004 0091     		str	r1, [sp]
 926              		.loc 7 225 0
 927 0006 019B     		ldr	r3, [sp, #4]
 928 0008 9B6D     		ldr	r3, [r3, #88]
 929 000a 0393     		str	r3, [sp, #12]
ARM GAS  /tmp/cciPs3oN.s 			page 18


 930              		.loc 7 226 0
 931 000c 019B     		ldr	r3, [sp, #4]
 932 000e 9A6D     		ldr	r2, [r3, #88]
 933 0010 009B     		ldr	r3, [sp]
 934 0012 1A44     		add	r2, r2, r3
 935 0014 019B     		ldr	r3, [sp, #4]
 936 0016 9A65     		str	r2, [r3, #88]
 937              		.loc 7 229 0
 938 0018 039B     		ldr	r3, [sp, #12]
 939              		.loc 7 230 0
 940 001a 1846     		mov	r0, r3
 941 001c 04B0     		add	sp, sp, #16
 942              		@ sp needed
 943 001e 7047     		bx	lr
 944              		.cfi_endproc
 945              	.LFE276:
 946              		.size	otg_ram_alloc, .-otg_ram_alloc
 947              		.section	.text.otg_do_push,"ax",%progbits
 948              		.align	2
 949              		.p2align 4,,15
 950              		.thumb
 951              		.thumb_func
 952              		.type	otg_do_push, %function
 953              	otg_do_push:
 954              	.LFB277:
 955              		.loc 7 244 0
 956              		.cfi_startproc
 957              		@ args = 0, pretend = 0, frame = 16
 958              		@ frame_needed = 0, uses_anonymous_args = 0
 959              		@ link register save eliminated.
 960 0000 84B0     		sub	sp, sp, #16
 961              		.cfi_def_cfa_offset 16
 962 0002 0390     		str	r0, [sp, #12]
 963 0004 0291     		str	r1, [sp, #8]
 964 0006 0192     		str	r2, [sp, #4]
 965              		.loc 7 246 0
 966 0008 09E0     		b	.L44
 967              	.L45:
 968              		.loc 7 249 0
 969 000a 029B     		ldr	r3, [sp, #8]
 970 000c 1A68     		ldr	r2, [r3]
 971 000e 039B     		ldr	r3, [sp, #12]
 972 0010 1A60     		str	r2, [r3]
 973              		.loc 7 250 0
 974 0012 029B     		ldr	r3, [sp, #8]
 975 0014 0433     		adds	r3, r3, #4
 976 0016 0293     		str	r3, [sp, #8]
 977              		.loc 7 251 0
 978 0018 019B     		ldr	r3, [sp, #4]
 979 001a 013B     		subs	r3, r3, #1
 980 001c 0193     		str	r3, [sp, #4]
 981              	.L44:
 982              		.loc 7 246 0 discriminator 1
 983 001e 019B     		ldr	r3, [sp, #4]
 984 0020 002B     		cmp	r3, #0
 985 0022 F2D1     		bne	.L45
 986              		.loc 7 253 0
ARM GAS  /tmp/cciPs3oN.s 			page 19


 987 0024 029B     		ldr	r3, [sp, #8]
 988              		.loc 7 254 0
 989 0026 1846     		mov	r0, r3
 990 0028 04B0     		add	sp, sp, #16
 991              		@ sp needed
 992 002a 7047     		bx	lr
 993              		.cfi_endproc
 994              	.LFE277:
 995              		.size	otg_do_push, .-otg_do_push
 996 002c AFF30080 		.section	.text.otg_fifo_write_from_buffer,"ax",%progbits
 997              		.align	2
 998              		.p2align 4,,15
 999              		.thumb
 1000              		.thumb_func
 1001              		.type	otg_fifo_write_from_buffer, %function
 1002              	otg_fifo_write_from_buffer:
 1003              	.LFB278:
 1004              		.loc 7 267 0
 1005              		.cfi_startproc
 1006              		@ args = 0, pretend = 0, frame = 16
 1007              		@ frame_needed = 0, uses_anonymous_args = 0
 1008 0000 00B5     		push	{lr}
 1009              		.cfi_def_cfa_offset 4
 1010              		.cfi_offset 14, -4
 1011 0002 85B0     		sub	sp, sp, #20
 1012              		.cfi_def_cfa_offset 24
 1013 0004 0390     		str	r0, [sp, #12]
 1014 0006 0291     		str	r1, [sp, #8]
 1015 0008 0192     		str	r2, [sp, #4]
 1016              		.loc 7 269 0
 1017 000a 019B     		ldr	r3, [sp, #4]
 1018 000c 0333     		adds	r3, r3, #3
 1019 000e 9B08     		lsrs	r3, r3, #2
 1020 0010 0398     		ldr	r0, [sp, #12]
 1021 0012 0299     		ldr	r1, [sp, #8]
 1022 0014 1A46     		mov	r2, r3
 1023 0016 FFF7FEFF 		bl	otg_do_push
 1024              		.loc 7 270 0
 1025 001a 05B0     		add	sp, sp, #20
 1026              		@ sp needed
 1027 001c 5DF804FB 		ldr	pc, [sp], #4
 1028              		.cfi_endproc
 1029              	.LFE278:
 1030              		.size	otg_fifo_write_from_buffer, .-otg_fifo_write_from_buffer
 1031              		.section	.text.otg_fifo_write_from_queue,"ax",%progbits
 1032              		.align	2
 1033              		.p2align 4,,15
 1034              		.thumb
 1035              		.thumb_func
 1036              		.type	otg_fifo_write_from_queue, %function
 1037              	otg_fifo_write_from_queue:
 1038              	.LFB279:
 1039              		.loc 7 283 0
 1040              		.cfi_startproc
 1041              		@ args = 0, pretend = 0, frame = 40
 1042              		@ frame_needed = 0, uses_anonymous_args = 0
 1043 0000 00B5     		push	{lr}
ARM GAS  /tmp/cciPs3oN.s 			page 20


 1044              		.cfi_def_cfa_offset 4
 1045              		.cfi_offset 14, -4
 1046 0002 8BB0     		sub	sp, sp, #44
 1047              		.cfi_def_cfa_offset 48
 1048 0004 0390     		str	r0, [sp, #12]
 1049 0006 0291     		str	r1, [sp, #8]
 1050 0008 0192     		str	r2, [sp, #4]
 1051              		.loc 7 286 0
 1052 000a 019B     		ldr	r3, [sp, #4]
 1053 000c 0993     		str	r3, [sp, #36]
 1054              		.loc 7 287 0
 1055 000e 60E0     		b	.L49
 1056              	.L58:
 1057              	.LBB10:
 1058              		.loc 7 289 0
 1059 0010 099B     		ldr	r3, [sp, #36]
 1060 0012 9B08     		lsrs	r3, r3, #2
 1061 0014 0693     		str	r3, [sp, #24]
 1062              		.loc 7 291 0
 1063 0016 069B     		ldr	r3, [sp, #24]
 1064 0018 002B     		cmp	r3, #0
 1065 001a 2AD0     		beq	.L50
 1066              	.LBB11:
 1067              		.loc 7 293 0
 1068 001c 029B     		ldr	r3, [sp, #8]
 1069 001e 1B69     		ldr	r3, [r3, #16]
 1070 0020 1A46     		mov	r2, r3
 1071 0022 029B     		ldr	r3, [sp, #8]
 1072 0024 9B69     		ldr	r3, [r3, #24]
 1073 0026 D31A     		subs	r3, r2, r3
 1074 0028 002B     		cmp	r3, #0
 1075 002a 00DA     		bge	.L51
 1076 002c 0333     		adds	r3, r3, #3
 1077              	.L51:
 1078 002e 9B10     		asrs	r3, r3, #2
 1079 0030 0593     		str	r3, [sp, #20]
 1080              		.loc 7 295 0
 1081 0032 069A     		ldr	r2, [sp, #24]
 1082 0034 059B     		ldr	r3, [sp, #20]
 1083 0036 9A42     		cmp	r2, r3
 1084 0038 38BF     		it	cc
 1085 003a 1346     		movcc	r3, r2
 1086 003c 0493     		str	r3, [sp, #16]
 1087 003e 049B     		ldr	r3, [sp, #16]
 1088 0040 9B00     		lsls	r3, r3, #2
 1089 0042 099A     		ldr	r2, [sp, #36]
 1090 0044 D31A     		subs	r3, r2, r3
 1091 0046 0993     		str	r3, [sp, #36]
 1092              		.loc 7 296 0
 1093 0048 029B     		ldr	r3, [sp, #8]
 1094 004a 9B69     		ldr	r3, [r3, #24]
 1095 004c 0398     		ldr	r0, [sp, #12]
 1096 004e 1946     		mov	r1, r3
 1097 0050 049A     		ldr	r2, [sp, #16]
 1098 0052 FFF7FEFF 		bl	otg_do_push
 1099 0056 0246     		mov	r2, r0
 1100 0058 029B     		ldr	r3, [sp, #8]
ARM GAS  /tmp/cciPs3oN.s 			page 21


 1101 005a 9A61     		str	r2, [r3, #24]
 1102              		.loc 7 297 0
 1103 005c 029B     		ldr	r3, [sp, #8]
 1104 005e 9A69     		ldr	r2, [r3, #24]
 1105 0060 029B     		ldr	r3, [sp, #8]
 1106 0062 1B69     		ldr	r3, [r3, #16]
 1107 0064 9A42     		cmp	r2, r3
 1108 0066 04D3     		bcc	.L50
 1109              		.loc 7 298 0
 1110 0068 029B     		ldr	r3, [sp, #8]
 1111 006a DA68     		ldr	r2, [r3, #12]
 1112 006c 029B     		ldr	r3, [sp, #8]
 1113 006e 9A61     		str	r2, [r3, #24]
 1114              		.loc 7 299 0
 1115 0070 2FE0     		b	.L49
 1116              	.L50:
 1117              	.LBE11:
 1118              		.loc 7 305 0
 1119 0072 099B     		ldr	r3, [sp, #36]
 1120 0074 002B     		cmp	r3, #0
 1121 0076 00D1     		bne	.L52
 1122              		.loc 7 306 0
 1123 0078 2EE0     		b	.L53
 1124              	.L52:
 1125              		.loc 7 309 0
 1126 007a 0023     		movs	r3, #0
 1127 007c 0893     		str	r3, [sp, #32]
 1128              		.loc 7 310 0
 1129 007e 0023     		movs	r3, #0
 1130 0080 0793     		str	r3, [sp, #28]
 1131              		.loc 7 311 0
 1132 0082 1DE0     		b	.L54
 1133              	.L57:
 1134              		.loc 7 312 0
 1135 0084 029B     		ldr	r3, [sp, #8]
 1136 0086 9B69     		ldr	r3, [r3, #24]
 1137 0088 591C     		adds	r1, r3, #1
 1138 008a 029A     		ldr	r2, [sp, #8]
 1139 008c 9161     		str	r1, [r2, #24]
 1140 008e 1B78     		ldrb	r3, [r3]	@ zero_extendqisi2
 1141 0090 1A46     		mov	r2, r3
 1142 0092 079B     		ldr	r3, [sp, #28]
 1143 0094 DB00     		lsls	r3, r3, #3
 1144 0096 02FA03F3 		lsl	r3, r2, r3
 1145 009a 089A     		ldr	r2, [sp, #32]
 1146 009c 1343     		orrs	r3, r3, r2
 1147 009e 0893     		str	r3, [sp, #32]
 1148              		.loc 7 313 0
 1149 00a0 029B     		ldr	r3, [sp, #8]
 1150 00a2 9A69     		ldr	r2, [r3, #24]
 1151 00a4 029B     		ldr	r3, [sp, #8]
 1152 00a6 1B69     		ldr	r3, [r3, #16]
 1153 00a8 9A42     		cmp	r2, r3
 1154 00aa 03D3     		bcc	.L55
 1155              		.loc 7 314 0
 1156 00ac 029B     		ldr	r3, [sp, #8]
 1157 00ae DA68     		ldr	r2, [r3, #12]
ARM GAS  /tmp/cciPs3oN.s 			page 22


 1158 00b0 029B     		ldr	r3, [sp, #8]
 1159 00b2 9A61     		str	r2, [r3, #24]
 1160              	.L55:
 1161              		.loc 7 315 0
 1162 00b4 099B     		ldr	r3, [sp, #36]
 1163 00b6 013B     		subs	r3, r3, #1
 1164 00b8 0993     		str	r3, [sp, #36]
 1165              		.loc 7 316 0
 1166 00ba 079B     		ldr	r3, [sp, #28]
 1167 00bc 0133     		adds	r3, r3, #1
 1168 00be 0793     		str	r3, [sp, #28]
 1169              	.L54:
 1170              		.loc 7 311 0 discriminator 1
 1171 00c0 099B     		ldr	r3, [sp, #36]
 1172 00c2 002B     		cmp	r3, #0
 1173 00c4 02D0     		beq	.L56
 1174              		.loc 7 311 0 is_stmt 0 discriminator 2
 1175 00c6 079B     		ldr	r3, [sp, #28]
 1176 00c8 032B     		cmp	r3, #3
 1177 00ca DBD9     		bls	.L57
 1178              	.L56:
 1179              		.loc 7 318 0 is_stmt 1
 1180 00cc 039B     		ldr	r3, [sp, #12]
 1181 00ce 089A     		ldr	r2, [sp, #32]
 1182 00d0 1A60     		str	r2, [r3]
 1183              	.L49:
 1184              	.LBE10:
 1185              		.loc 7 287 0 discriminator 1
 1186 00d2 099B     		ldr	r3, [sp, #36]
 1187 00d4 002B     		cmp	r3, #0
 1188 00d6 9BD1     		bne	.L58
 1189              	.L53:
 1190              		.loc 7 322 0
 1191 00d8 FFF7FEFF 		bl	osalSysLock
 1192              		.loc 7 323 0
 1193 00dc 029B     		ldr	r3, [sp, #8]
 1194 00de 9A68     		ldr	r2, [r3, #8]
 1195 00e0 019B     		ldr	r3, [sp, #4]
 1196 00e2 1A44     		add	r2, r2, r3
 1197 00e4 029B     		ldr	r3, [sp, #8]
 1198 00e6 9A60     		str	r2, [r3, #8]
 1199              		.loc 7 324 0
 1200 00e8 029B     		ldr	r3, [sp, #8]
 1201 00ea 1846     		mov	r0, r3
 1202 00ec 0021     		movs	r1, #0
 1203 00ee FFF7FEFF 		bl	osalThreadDequeueAllI
 1204              		.loc 7 325 0
 1205 00f2 FFF7FEFF 		bl	osalOsRescheduleS
 1206              		.loc 7 326 0
 1207 00f6 FFF7FEFF 		bl	osalSysUnlock
 1208              		.loc 7 327 0
 1209 00fa 0BB0     		add	sp, sp, #44
 1210              		@ sp needed
 1211 00fc 5DF804FB 		ldr	pc, [sp], #4
 1212              		.cfi_endproc
 1213              	.LFE279:
 1214              		.size	otg_fifo_write_from_queue, .-otg_fifo_write_from_queue
ARM GAS  /tmp/cciPs3oN.s 			page 23


 1215              		.section	.text.otg_do_pop,"ax",%progbits
 1216              		.align	2
 1217              		.p2align 4,,15
 1218              		.thumb
 1219              		.thumb_func
 1220              		.type	otg_do_pop, %function
 1221              	otg_do_pop:
 1222              	.LFB280:
 1223              		.loc 7 341 0
 1224              		.cfi_startproc
 1225              		@ args = 0, pretend = 0, frame = 24
 1226              		@ frame_needed = 0, uses_anonymous_args = 0
 1227              		@ link register save eliminated.
 1228 0000 86B0     		sub	sp, sp, #24
 1229              		.cfi_def_cfa_offset 24
 1230 0002 0390     		str	r0, [sp, #12]
 1231 0004 0291     		str	r1, [sp, #8]
 1232 0006 0192     		str	r2, [sp, #4]
 1233              		.loc 7 343 0
 1234 0008 0BE0     		b	.L60
 1235              	.L61:
 1236              	.LBB12:
 1237              		.loc 7 344 0
 1238 000a 039B     		ldr	r3, [sp, #12]
 1239 000c 1B68     		ldr	r3, [r3]
 1240 000e 0593     		str	r3, [sp, #20]
 1241              		.loc 7 347 0
 1242 0010 029B     		ldr	r3, [sp, #8]
 1243 0012 059A     		ldr	r2, [sp, #20]
 1244 0014 1A60     		str	r2, [r3]
 1245              		.loc 7 348 0
 1246 0016 029B     		ldr	r3, [sp, #8]
 1247 0018 0433     		adds	r3, r3, #4
 1248 001a 0293     		str	r3, [sp, #8]
 1249              		.loc 7 349 0
 1250 001c 019B     		ldr	r3, [sp, #4]
 1251 001e 013B     		subs	r3, r3, #1
 1252 0020 0193     		str	r3, [sp, #4]
 1253              	.L60:
 1254              	.LBE12:
 1255              		.loc 7 343 0 discriminator 1
 1256 0022 019B     		ldr	r3, [sp, #4]
 1257 0024 002B     		cmp	r3, #0
 1258 0026 F0D1     		bne	.L61
 1259              		.loc 7 351 0
 1260 0028 029B     		ldr	r3, [sp, #8]
 1261              		.loc 7 352 0
 1262 002a 1846     		mov	r0, r3
 1263 002c 06B0     		add	sp, sp, #24
 1264              		@ sp needed
 1265 002e 7047     		bx	lr
 1266              		.cfi_endproc
 1267              	.LFE280:
 1268              		.size	otg_do_pop, .-otg_do_pop
 1269              		.section	.text.otg_fifo_read_to_buffer,"ax",%progbits
 1270              		.align	2
 1271              		.p2align 4,,15
ARM GAS  /tmp/cciPs3oN.s 			page 24


 1272              		.thumb
 1273              		.thumb_func
 1274              		.type	otg_fifo_read_to_buffer, %function
 1275              	otg_fifo_read_to_buffer:
 1276              	.LFB281:
 1277              		.loc 7 367 0
 1278              		.cfi_startproc
 1279              		@ args = 0, pretend = 0, frame = 24
 1280              		@ frame_needed = 0, uses_anonymous_args = 0
 1281              		@ link register save eliminated.
 1282 0000 86B0     		sub	sp, sp, #24
 1283              		.cfi_def_cfa_offset 24
 1284 0002 0390     		str	r0, [sp, #12]
 1285 0004 0291     		str	r1, [sp, #8]
 1286 0006 0192     		str	r2, [sp, #4]
 1287 0008 0093     		str	r3, [sp]
 1288              		.loc 7 369 0
 1289 000a 019B     		ldr	r3, [sp, #4]
 1290 000c 0333     		adds	r3, r3, #3
 1291 000e 9B08     		lsrs	r3, r3, #2
 1292 0010 0193     		str	r3, [sp, #4]
 1293              		.loc 7 370 0
 1294 0012 009B     		ldr	r3, [sp]
 1295 0014 0333     		adds	r3, r3, #3
 1296 0016 9B08     		lsrs	r3, r3, #2
 1297 0018 0093     		str	r3, [sp]
 1298              		.loc 7 371 0
 1299 001a 11E0     		b	.L64
 1300              	.L66:
 1301              	.LBB13:
 1302              		.loc 7 372 0
 1303 001c 039B     		ldr	r3, [sp, #12]
 1304 001e 1B68     		ldr	r3, [r3]
 1305 0020 0593     		str	r3, [sp, #20]
 1306              		.loc 7 373 0
 1307 0022 009B     		ldr	r3, [sp]
 1308 0024 002B     		cmp	r3, #0
 1309 0026 08D0     		beq	.L65
 1310              		.loc 7 376 0
 1311 0028 029B     		ldr	r3, [sp, #8]
 1312 002a 059A     		ldr	r2, [sp, #20]
 1313 002c 1A60     		str	r2, [r3]
 1314              		.loc 7 377 0
 1315 002e 029B     		ldr	r3, [sp, #8]
 1316 0030 0433     		adds	r3, r3, #4
 1317 0032 0293     		str	r3, [sp, #8]
 1318              		.loc 7 378 0
 1319 0034 009B     		ldr	r3, [sp]
 1320 0036 013B     		subs	r3, r3, #1
 1321 0038 0093     		str	r3, [sp]
 1322              	.L65:
 1323              		.loc 7 380 0
 1324 003a 019B     		ldr	r3, [sp, #4]
 1325 003c 013B     		subs	r3, r3, #1
 1326 003e 0193     		str	r3, [sp, #4]
 1327              	.L64:
 1328              	.LBE13:
ARM GAS  /tmp/cciPs3oN.s 			page 25


 1329              		.loc 7 371 0 discriminator 1
 1330 0040 019B     		ldr	r3, [sp, #4]
 1331 0042 002B     		cmp	r3, #0
 1332 0044 EAD1     		bne	.L66
 1333              		.loc 7 382 0
 1334 0046 06B0     		add	sp, sp, #24
 1335              		@ sp needed
 1336 0048 7047     		bx	lr
 1337              		.cfi_endproc
 1338              	.LFE281:
 1339              		.size	otg_fifo_read_to_buffer, .-otg_fifo_read_to_buffer
 1340 004a 00BFAFF3 		.section	.text.otg_fifo_read_to_queue,"ax",%progbits
 1340      0080
 1341              		.align	2
 1342              		.p2align 4,,15
 1343              		.thumb
 1344              		.thumb_func
 1345              		.type	otg_fifo_read_to_queue, %function
 1346              	otg_fifo_read_to_queue:
 1347              	.LFB282:
 1348              		.loc 7 395 0
 1349              		.cfi_startproc
 1350              		@ args = 0, pretend = 0, frame = 40
 1351              		@ frame_needed = 0, uses_anonymous_args = 0
 1352 0000 00B5     		push	{lr}
 1353              		.cfi_def_cfa_offset 4
 1354              		.cfi_offset 14, -4
 1355 0002 8BB0     		sub	sp, sp, #44
 1356              		.cfi_def_cfa_offset 48
 1357 0004 0390     		str	r0, [sp, #12]
 1358 0006 0291     		str	r1, [sp, #8]
 1359 0008 0192     		str	r2, [sp, #4]
 1360              		.loc 7 398 0
 1361 000a 019B     		ldr	r3, [sp, #4]
 1362 000c 0993     		str	r3, [sp, #36]
 1363              		.loc 7 399 0
 1364 000e 53E0     		b	.L68
 1365              	.L75:
 1366              	.LBB14:
 1367              		.loc 7 401 0
 1368 0010 099B     		ldr	r3, [sp, #36]
 1369 0012 9B08     		lsrs	r3, r3, #2
 1370 0014 0793     		str	r3, [sp, #28]
 1371              		.loc 7 403 0
 1372 0016 079B     		ldr	r3, [sp, #28]
 1373 0018 002B     		cmp	r3, #0
 1374 001a 21D0     		beq	.L69
 1375              	.LBB15:
 1376              		.loc 7 405 0
 1377 001c 0023     		movs	r3, #0
 1378 001e 0693     		str	r3, [sp, #24]
 1379              		.loc 7 407 0
 1380 0020 079A     		ldr	r2, [sp, #28]
 1381 0022 069B     		ldr	r3, [sp, #24]
 1382 0024 9A42     		cmp	r2, r3
 1383 0026 38BF     		it	cc
 1384 0028 1346     		movcc	r3, r2
ARM GAS  /tmp/cciPs3oN.s 			page 26


 1385 002a 0593     		str	r3, [sp, #20]
 1386 002c 059B     		ldr	r3, [sp, #20]
 1387 002e 9B00     		lsls	r3, r3, #2
 1388 0030 099A     		ldr	r2, [sp, #36]
 1389 0032 D31A     		subs	r3, r2, r3
 1390 0034 0993     		str	r3, [sp, #36]
 1391              		.loc 7 408 0
 1392 0036 029B     		ldr	r3, [sp, #8]
 1393 0038 5B69     		ldr	r3, [r3, #20]
 1394 003a 0398     		ldr	r0, [sp, #12]
 1395 003c 1946     		mov	r1, r3
 1396 003e 059A     		ldr	r2, [sp, #20]
 1397 0040 FFF7FEFF 		bl	otg_do_pop
 1398 0044 0246     		mov	r2, r0
 1399 0046 029B     		ldr	r3, [sp, #8]
 1400 0048 5A61     		str	r2, [r3, #20]
 1401              		.loc 7 409 0
 1402 004a 029B     		ldr	r3, [sp, #8]
 1403 004c 5A69     		ldr	r2, [r3, #20]
 1404 004e 029B     		ldr	r3, [sp, #8]
 1405 0050 1B69     		ldr	r3, [r3, #16]
 1406 0052 9A42     		cmp	r2, r3
 1407 0054 04D3     		bcc	.L69
 1408              		.loc 7 410 0
 1409 0056 029B     		ldr	r3, [sp, #8]
 1410 0058 DA68     		ldr	r2, [r3, #12]
 1411 005a 029B     		ldr	r3, [sp, #8]
 1412 005c 5A61     		str	r2, [r3, #20]
 1413              		.loc 7 411 0
 1414 005e 2BE0     		b	.L68
 1415              	.L69:
 1416              	.LBE15:
 1417              		.loc 7 417 0
 1418 0060 099B     		ldr	r3, [sp, #36]
 1419 0062 002B     		cmp	r3, #0
 1420 0064 00D1     		bne	.L70
 1421              		.loc 7 418 0
 1422 0066 2AE0     		b	.L71
 1423              	.L70:
 1424              		.loc 7 421 0
 1425 0068 039B     		ldr	r3, [sp, #12]
 1426 006a 1B68     		ldr	r3, [r3]
 1427 006c 0493     		str	r3, [sp, #16]
 1428              		.loc 7 422 0
 1429 006e 0023     		movs	r3, #0
 1430 0070 0893     		str	r3, [sp, #32]
 1431              		.loc 7 423 0
 1432 0072 1BE0     		b	.L72
 1433              	.L74:
 1434              		.loc 7 424 0
 1435 0074 029B     		ldr	r3, [sp, #8]
 1436 0076 5B69     		ldr	r3, [r3, #20]
 1437 0078 591C     		adds	r1, r3, #1
 1438 007a 029A     		ldr	r2, [sp, #8]
 1439 007c 5161     		str	r1, [r2, #20]
 1440 007e 089A     		ldr	r2, [sp, #32]
 1441 0080 D200     		lsls	r2, r2, #3
ARM GAS  /tmp/cciPs3oN.s 			page 27


 1442 0082 0499     		ldr	r1, [sp, #16]
 1443 0084 21FA02F2 		lsr	r2, r1, r2
 1444 0088 D2B2     		uxtb	r2, r2
 1445 008a 1A70     		strb	r2, [r3]
 1446              		.loc 7 425 0
 1447 008c 029B     		ldr	r3, [sp, #8]
 1448 008e 5A69     		ldr	r2, [r3, #20]
 1449 0090 029B     		ldr	r3, [sp, #8]
 1450 0092 1B69     		ldr	r3, [r3, #16]
 1451 0094 9A42     		cmp	r2, r3
 1452 0096 03D3     		bcc	.L73
 1453              		.loc 7 426 0
 1454 0098 029B     		ldr	r3, [sp, #8]
 1455 009a DA68     		ldr	r2, [r3, #12]
 1456 009c 029B     		ldr	r3, [sp, #8]
 1457 009e 5A61     		str	r2, [r3, #20]
 1458              	.L73:
 1459              		.loc 7 427 0
 1460 00a0 099B     		ldr	r3, [sp, #36]
 1461 00a2 013B     		subs	r3, r3, #1
 1462 00a4 0993     		str	r3, [sp, #36]
 1463              		.loc 7 428 0
 1464 00a6 089B     		ldr	r3, [sp, #32]
 1465 00a8 0133     		adds	r3, r3, #1
 1466 00aa 0893     		str	r3, [sp, #32]
 1467              	.L72:
 1468              		.loc 7 423 0 discriminator 1
 1469 00ac 099B     		ldr	r3, [sp, #36]
 1470 00ae 002B     		cmp	r3, #0
 1471 00b0 02D0     		beq	.L68
 1472              		.loc 7 423 0 is_stmt 0 discriminator 2
 1473 00b2 089B     		ldr	r3, [sp, #32]
 1474 00b4 032B     		cmp	r3, #3
 1475 00b6 DDD9     		bls	.L74
 1476              	.L68:
 1477              	.LBE14:
 1478              		.loc 7 399 0 is_stmt 1 discriminator 1
 1479 00b8 099B     		ldr	r3, [sp, #36]
 1480 00ba 002B     		cmp	r3, #0
 1481 00bc A8D1     		bne	.L75
 1482              	.L71:
 1483              		.loc 7 433 0
 1484 00be FFF7FEFF 		bl	osalSysLock
 1485              		.loc 7 434 0
 1486 00c2 029B     		ldr	r3, [sp, #8]
 1487 00c4 9A68     		ldr	r2, [r3, #8]
 1488 00c6 019B     		ldr	r3, [sp, #4]
 1489 00c8 1A44     		add	r2, r2, r3
 1490 00ca 029B     		ldr	r3, [sp, #8]
 1491 00cc 9A60     		str	r2, [r3, #8]
 1492              		.loc 7 435 0
 1493 00ce 029B     		ldr	r3, [sp, #8]
 1494 00d0 1846     		mov	r0, r3
 1495 00d2 0021     		movs	r1, #0
 1496 00d4 FFF7FEFF 		bl	osalThreadDequeueAllI
 1497              		.loc 7 436 0
 1498 00d8 FFF7FEFF 		bl	osalOsRescheduleS
ARM GAS  /tmp/cciPs3oN.s 			page 28


 1499              		.loc 7 437 0
 1500 00dc FFF7FEFF 		bl	osalSysUnlock
 1501              		.loc 7 438 0
 1502 00e0 0BB0     		add	sp, sp, #44
 1503              		@ sp needed
 1504 00e2 5DF804FB 		ldr	pc, [sp], #4
 1505              		.cfi_endproc
 1506              	.LFE282:
 1507              		.size	otg_fifo_read_to_queue, .-otg_fifo_read_to_queue
 1508 00e6 00BFAFF3 		.section	.text.otg_rxfifo_handler,"ax",%progbits
 1508      0080AFF3 
 1508      0080
 1509              		.align	2
 1510              		.p2align 4,,15
 1511              		.thumb
 1512              		.thumb_func
 1513              		.type	otg_rxfifo_handler, %function
 1514              	otg_rxfifo_handler:
 1515              	.LFB283:
 1516              		.loc 7 447 0
 1517              		.cfi_startproc
 1518              		@ args = 0, pretend = 0, frame = 24
 1519              		@ frame_needed = 0, uses_anonymous_args = 0
 1520 0000 10B5     		push	{r4, lr}
 1521              		.cfi_def_cfa_offset 8
 1522              		.cfi_offset 4, -8
 1523              		.cfi_offset 14, -4
 1524 0002 86B0     		sub	sp, sp, #24
 1525              		.cfi_def_cfa_offset 32
 1526 0004 0190     		str	r0, [sp, #4]
 1527              		.loc 7 450 0
 1528 0006 019B     		ldr	r3, [sp, #4]
 1529 0008 1B6D     		ldr	r3, [r3, #80]
 1530 000a 1B6A     		ldr	r3, [r3, #32]
 1531 000c 0593     		str	r3, [sp, #20]
 1532              		.loc 7 451 0
 1533 000e 059B     		ldr	r3, [sp, #20]
 1534 0010 03F4F013 		and	r3, r3, #1966080
 1535 0014 B3F5002F 		cmp	r3, #524288
 1536 0018 00F09180 		beq	.L83
 1537 001c B3F5402F 		cmp	r3, #786432
 1538 0020 03D0     		beq	.L79
 1539 0022 B3F5802F 		cmp	r3, #262144
 1540 0026 1CD0     		beq	.L80
 1541 0028 8AE0     		b	.L76
 1542              	.L79:
 1543              		.loc 7 455 0
 1544 002a 059A     		ldr	r2, [sp, #20]
 1545 002c 47F6F073 		movw	r3, #32752
 1546 0030 1340     		ands	r3, r3, r2
 1547 0032 1B09     		lsrs	r3, r3, #4
 1548 0034 0493     		str	r3, [sp, #16]
 1549              		.loc 7 456 0
 1550 0036 059B     		ldr	r3, [sp, #20]
 1551 0038 03F00F03 		and	r3, r3, #15
 1552 003c 0393     		str	r3, [sp, #12]
 1553              		.loc 7 457 0
ARM GAS  /tmp/cciPs3oN.s 			page 29


 1554 003e 019B     		ldr	r3, [sp, #4]
 1555 0040 1B6D     		ldr	r3, [r3, #80]
 1556 0042 03F58052 		add	r2, r3, #4096
 1557 0046 0199     		ldr	r1, [sp, #4]
 1558 0048 039B     		ldr	r3, [sp, #12]
 1559 004a 0233     		adds	r3, r3, #2
 1560 004c 9B00     		lsls	r3, r3, #2
 1561 004e 0B44     		add	r3, r3, r1
 1562 0050 5B68     		ldr	r3, [r3, #4]
 1563 0052 1B6A     		ldr	r3, [r3, #32]
 1564 0054 1046     		mov	r0, r2
 1565 0056 1946     		mov	r1, r3
 1566 0058 049A     		ldr	r2, [sp, #16]
 1567 005a 0823     		movs	r3, #8
 1568 005c FFF7FEFF 		bl	otg_fifo_read_to_buffer
 1569              		.loc 7 459 0
 1570 0060 6EE0     		b	.L76
 1571              	.L80:
 1572              		.loc 7 461 0
 1573 0062 059A     		ldr	r2, [sp, #20]
 1574 0064 47F6F073 		movw	r3, #32752
 1575 0068 1340     		ands	r3, r3, r2
 1576 006a 1B09     		lsrs	r3, r3, #4
 1577 006c 0493     		str	r3, [sp, #16]
 1578              		.loc 7 462 0
 1579 006e 059B     		ldr	r3, [sp, #20]
 1580 0070 03F00F03 		and	r3, r3, #15
 1581 0074 0393     		str	r3, [sp, #12]
 1582              		.loc 7 463 0
 1583 0076 019A     		ldr	r2, [sp, #4]
 1584 0078 039B     		ldr	r3, [sp, #12]
 1585 007a 0233     		adds	r3, r3, #2
 1586 007c 9B00     		lsls	r3, r3, #2
 1587 007e 1344     		add	r3, r3, r2
 1588 0080 5B68     		ldr	r3, [r3, #4]
 1589 0082 9B69     		ldr	r3, [r3, #24]
 1590 0084 1B78     		ldrb	r3, [r3]	@ zero_extendqisi2
 1591 0086 002B     		cmp	r3, #0
 1592 0088 11D0     		beq	.L81
 1593              		.loc 7 465 0
 1594 008a 019B     		ldr	r3, [sp, #4]
 1595 008c 1B6D     		ldr	r3, [r3, #80]
 1596 008e 03F58052 		add	r2, r3, #4096
 1597              		.loc 7 466 0
 1598 0092 0199     		ldr	r1, [sp, #4]
 1599 0094 039B     		ldr	r3, [sp, #12]
 1600 0096 0233     		adds	r3, r3, #2
 1601 0098 9B00     		lsls	r3, r3, #2
 1602 009a 0B44     		add	r3, r3, r1
 1603 009c 5B68     		ldr	r3, [r3, #4]
 1604 009e 9B69     		ldr	r3, [r3, #24]
 1605              		.loc 7 465 0
 1606 00a0 DB68     		ldr	r3, [r3, #12]
 1607 00a2 1046     		mov	r0, r2
 1608 00a4 1946     		mov	r1, r3
 1609 00a6 049A     		ldr	r2, [sp, #16]
 1610 00a8 FFF7FEFF 		bl	otg_fifo_read_to_queue
ARM GAS  /tmp/cciPs3oN.s 			page 30


 1611 00ac 33E0     		b	.L82
 1612              	.L81:
 1613              		.loc 7 470 0
 1614 00ae 019B     		ldr	r3, [sp, #4]
 1615 00b0 1B6D     		ldr	r3, [r3, #80]
 1616 00b2 03F58051 		add	r1, r3, #4096
 1617              		.loc 7 471 0
 1618 00b6 019A     		ldr	r2, [sp, #4]
 1619 00b8 039B     		ldr	r3, [sp, #12]
 1620 00ba 0233     		adds	r3, r3, #2
 1621 00bc 9B00     		lsls	r3, r3, #2
 1622 00be 1344     		add	r3, r3, r2
 1623 00c0 5B68     		ldr	r3, [r3, #4]
 1624 00c2 9B69     		ldr	r3, [r3, #24]
 1625              		.loc 7 470 0
 1626 00c4 DA68     		ldr	r2, [r3, #12]
 1627              		.loc 7 473 0
 1628 00c6 0198     		ldr	r0, [sp, #4]
 1629 00c8 039B     		ldr	r3, [sp, #12]
 1630 00ca 0233     		adds	r3, r3, #2
 1631 00cc 9B00     		lsls	r3, r3, #2
 1632 00ce 0344     		add	r3, r3, r0
 1633 00d0 5B68     		ldr	r3, [r3, #4]
 1634 00d2 9B69     		ldr	r3, [r3, #24]
 1635 00d4 5868     		ldr	r0, [r3, #4]
 1636              		.loc 7 474 0
 1637 00d6 019C     		ldr	r4, [sp, #4]
 1638 00d8 039B     		ldr	r3, [sp, #12]
 1639 00da 0233     		adds	r3, r3, #2
 1640 00dc 9B00     		lsls	r3, r3, #2
 1641 00de 2344     		add	r3, r3, r4
 1642 00e0 5B68     		ldr	r3, [r3, #4]
 1643 00e2 9B69     		ldr	r3, [r3, #24]
 1644 00e4 9B68     		ldr	r3, [r3, #8]
 1645              		.loc 7 470 0
 1646 00e6 C31A     		subs	r3, r0, r3
 1647 00e8 0846     		mov	r0, r1
 1648 00ea 1146     		mov	r1, r2
 1649 00ec 049A     		ldr	r2, [sp, #16]
 1650 00ee FFF7FEFF 		bl	otg_fifo_read_to_buffer
 1651              		.loc 7 475 0
 1652 00f2 019A     		ldr	r2, [sp, #4]
 1653 00f4 039B     		ldr	r3, [sp, #12]
 1654 00f6 0233     		adds	r3, r3, #2
 1655 00f8 9B00     		lsls	r3, r3, #2
 1656 00fa 1344     		add	r3, r3, r2
 1657 00fc 5B68     		ldr	r3, [r3, #4]
 1658 00fe 9A69     		ldr	r2, [r3, #24]
 1659 0100 0199     		ldr	r1, [sp, #4]
 1660 0102 039B     		ldr	r3, [sp, #12]
 1661 0104 0233     		adds	r3, r3, #2
 1662 0106 9B00     		lsls	r3, r3, #2
 1663 0108 0B44     		add	r3, r3, r1
 1664 010a 5B68     		ldr	r3, [r3, #4]
 1665 010c 9B69     		ldr	r3, [r3, #24]
 1666 010e D968     		ldr	r1, [r3, #12]
 1667 0110 049B     		ldr	r3, [sp, #16]
ARM GAS  /tmp/cciPs3oN.s 			page 31


 1668 0112 0B44     		add	r3, r3, r1
 1669 0114 D360     		str	r3, [r2, #12]
 1670              	.L82:
 1671              		.loc 7 477 0
 1672 0116 019A     		ldr	r2, [sp, #4]
 1673 0118 039B     		ldr	r3, [sp, #12]
 1674 011a 0233     		adds	r3, r3, #2
 1675 011c 9B00     		lsls	r3, r3, #2
 1676 011e 1344     		add	r3, r3, r2
 1677 0120 5B68     		ldr	r3, [r3, #4]
 1678 0122 9A69     		ldr	r2, [r3, #24]
 1679 0124 0199     		ldr	r1, [sp, #4]
 1680 0126 039B     		ldr	r3, [sp, #12]
 1681 0128 0233     		adds	r3, r3, #2
 1682 012a 9B00     		lsls	r3, r3, #2
 1683 012c 0B44     		add	r3, r3, r1
 1684 012e 5B68     		ldr	r3, [r3, #4]
 1685 0130 9B69     		ldr	r3, [r3, #24]
 1686 0132 9968     		ldr	r1, [r3, #8]
 1687 0134 049B     		ldr	r3, [sp, #16]
 1688 0136 0B44     		add	r3, r3, r1
 1689 0138 9360     		str	r3, [r2, #8]
 1690              		.loc 7 478 0
 1691 013a 00BF     		nop
 1692 013c 00E0     		b	.L76
 1693              	.L83:
 1694              		.loc 7 453 0
 1695 013e 00BF     		nop
 1696              	.L76:
 1697              		.loc 7 484 0
 1698 0140 06B0     		add	sp, sp, #24
 1699              		@ sp needed
 1700 0142 10BD     		pop	{r4, pc}
 1701              		.cfi_endproc
 1702              	.LFE283:
 1703              		.size	otg_rxfifo_handler, .-otg_rxfifo_handler
 1704 0144 AFF30080 		.section	.text.otg_txfifo_handler,"ax",%progbits
 1704      AFF30080 
 1704      AFF30080 
 1705              		.align	2
 1706              		.p2align 4,,15
 1707              		.thumb
 1708              		.thumb_func
 1709              		.type	otg_txfifo_handler, %function
 1710              	otg_txfifo_handler:
 1711              	.LFB284:
 1712              		.loc 7 494 0
 1713              		.cfi_startproc
 1714              		@ args = 0, pretend = 0, frame = 16
 1715              		@ frame_needed = 0, uses_anonymous_args = 0
 1716 0000 00B5     		push	{lr}
 1717              		.cfi_def_cfa_offset 4
 1718              		.cfi_offset 14, -4
 1719 0002 85B0     		sub	sp, sp, #20
 1720              		.cfi_def_cfa_offset 24
 1721 0004 0190     		str	r0, [sp, #4]
 1722 0006 0B46     		mov	r3, r1
ARM GAS  /tmp/cciPs3oN.s 			page 32


 1723 0008 8DF80330 		strb	r3, [sp, #3]
 1724              	.L91:
 1725              	.LBB16:
 1726              		.loc 7 501 0
 1727 000c 9DF80330 		ldrb	r3, [sp, #3]	@ zero_extendqisi2
 1728 0010 019A     		ldr	r2, [sp, #4]
 1729 0012 0233     		adds	r3, r3, #2
 1730 0014 9B00     		lsls	r3, r3, #2
 1731 0016 1344     		add	r3, r3, r2
 1732 0018 5B68     		ldr	r3, [r3, #4]
 1733 001a 5B69     		ldr	r3, [r3, #20]
 1734 001c 9A68     		ldr	r2, [r3, #8]
 1735 001e 9DF80330 		ldrb	r3, [sp, #3]	@ zero_extendqisi2
 1736 0022 0199     		ldr	r1, [sp, #4]
 1737 0024 0233     		adds	r3, r3, #2
 1738 0026 9B00     		lsls	r3, r3, #2
 1739 0028 0B44     		add	r3, r3, r1
 1740 002a 5B68     		ldr	r3, [r3, #4]
 1741 002c 5B69     		ldr	r3, [r3, #20]
 1742 002e 5B68     		ldr	r3, [r3, #4]
 1743 0030 9A42     		cmp	r2, r3
 1744 0032 01D3     		bcc	.L85
 1745              		.loc 7 502 0
 1746 0034 0123     		movs	r3, #1
 1747 0036 97E0     		b	.L86
 1748              	.L85:
 1749              		.loc 7 505 0
 1750 0038 9DF80330 		ldrb	r3, [sp, #3]	@ zero_extendqisi2
 1751 003c 019A     		ldr	r2, [sp, #4]
 1752 003e 0233     		adds	r3, r3, #2
 1753 0040 9B00     		lsls	r3, r3, #2
 1754 0042 1344     		add	r3, r3, r2
 1755 0044 5B68     		ldr	r3, [r3, #4]
 1756 0046 5B69     		ldr	r3, [r3, #20]
 1757 0048 5A68     		ldr	r2, [r3, #4]
 1758 004a 9DF80330 		ldrb	r3, [sp, #3]	@ zero_extendqisi2
 1759 004e 0199     		ldr	r1, [sp, #4]
 1760 0050 0233     		adds	r3, r3, #2
 1761 0052 9B00     		lsls	r3, r3, #2
 1762 0054 0B44     		add	r3, r3, r1
 1763 0056 5B68     		ldr	r3, [r3, #4]
 1764 0058 5B69     		ldr	r3, [r3, #20]
 1765 005a 9B68     		ldr	r3, [r3, #8]
 1766 005c D31A     		subs	r3, r2, r3
 1767 005e 0393     		str	r3, [sp, #12]
 1768              		.loc 7 506 0
 1769 0060 9DF80330 		ldrb	r3, [sp, #3]	@ zero_extendqisi2
 1770 0064 019A     		ldr	r2, [sp, #4]
 1771 0066 0233     		adds	r3, r3, #2
 1772 0068 9B00     		lsls	r3, r3, #2
 1773 006a 1344     		add	r3, r3, r2
 1774 006c 5B68     		ldr	r3, [r3, #4]
 1775 006e 1B8A     		ldrh	r3, [r3, #16]
 1776 0070 1A46     		mov	r2, r3
 1777 0072 039B     		ldr	r3, [sp, #12]
 1778 0074 9A42     		cmp	r2, r3
 1779 0076 08D2     		bcs	.L87
ARM GAS  /tmp/cciPs3oN.s 			page 33


 1780              		.loc 7 507 0
 1781 0078 9DF80330 		ldrb	r3, [sp, #3]	@ zero_extendqisi2
 1782 007c 019A     		ldr	r2, [sp, #4]
 1783 007e 0233     		adds	r3, r3, #2
 1784 0080 9B00     		lsls	r3, r3, #2
 1785 0082 1344     		add	r3, r3, r2
 1786 0084 5B68     		ldr	r3, [r3, #4]
 1787 0086 1B8A     		ldrh	r3, [r3, #16]
 1788 0088 0393     		str	r3, [sp, #12]
 1789              	.L87:
 1790              		.loc 7 511 0
 1791 008a 019B     		ldr	r3, [sp, #4]
 1792 008c 1A6D     		ldr	r2, [r3, #80]
 1793 008e 9DF80330 		ldrb	r3, [sp, #3]	@ zero_extendqisi2
 1794 0092 5B01     		lsls	r3, r3, #5
 1795 0094 1344     		add	r3, r3, r2
 1796 0096 03F61813 		addw	r3, r3, #2328
 1797 009a 1B68     		ldr	r3, [r3]
 1798 009c 9BB2     		uxth	r3, r3
 1799 009e 9A00     		lsls	r2, r3, #2
 1800 00a0 039B     		ldr	r3, [sp, #12]
 1801 00a2 9A42     		cmp	r2, r3
 1802 00a4 01D2     		bcs	.L88
 1803              		.loc 7 512 0
 1804 00a6 0023     		movs	r3, #0
 1805 00a8 5EE0     		b	.L86
 1806              	.L88:
 1807              		.loc 7 518 0
 1808 00aa 9DF80330 		ldrb	r3, [sp, #3]	@ zero_extendqisi2
 1809 00ae 019A     		ldr	r2, [sp, #4]
 1810 00b0 0233     		adds	r3, r3, #2
 1811 00b2 9B00     		lsls	r3, r3, #2
 1812 00b4 1344     		add	r3, r3, r2
 1813 00b6 5B68     		ldr	r3, [r3, #4]
 1814 00b8 5B69     		ldr	r3, [r3, #20]
 1815 00ba 1B78     		ldrb	r3, [r3]	@ zero_extendqisi2
 1816 00bc 002B     		cmp	r3, #0
 1817 00be 15D0     		beq	.L89
 1818              		.loc 7 520 0
 1819 00c0 019B     		ldr	r3, [sp, #4]
 1820 00c2 1A6D     		ldr	r2, [r3, #80]
 1821 00c4 9DF80330 		ldrb	r3, [sp, #3]	@ zero_extendqisi2
 1822 00c8 0133     		adds	r3, r3, #1
 1823 00ca 1B03     		lsls	r3, r3, #12
 1824 00cc 1A44     		add	r2, r2, r3
 1825              		.loc 7 521 0
 1826 00ce 9DF80330 		ldrb	r3, [sp, #3]	@ zero_extendqisi2
 1827 00d2 0199     		ldr	r1, [sp, #4]
 1828 00d4 0233     		adds	r3, r3, #2
 1829 00d6 9B00     		lsls	r3, r3, #2
 1830 00d8 0B44     		add	r3, r3, r1
 1831 00da 5B68     		ldr	r3, [r3, #4]
 1832 00dc 5B69     		ldr	r3, [r3, #20]
 1833              		.loc 7 520 0
 1834 00de DB68     		ldr	r3, [r3, #12]
 1835 00e0 1046     		mov	r0, r2
 1836 00e2 1946     		mov	r1, r3
ARM GAS  /tmp/cciPs3oN.s 			page 34


 1837 00e4 039A     		ldr	r2, [sp, #12]
 1838 00e6 FFF7FEFF 		bl	otg_fifo_write_from_queue
 1839 00ea 28E0     		b	.L90
 1840              	.L89:
 1841              		.loc 7 526 0
 1842 00ec 019B     		ldr	r3, [sp, #4]
 1843 00ee 1A6D     		ldr	r2, [r3, #80]
 1844 00f0 9DF80330 		ldrb	r3, [sp, #3]	@ zero_extendqisi2
 1845 00f4 0133     		adds	r3, r3, #1
 1846 00f6 1B03     		lsls	r3, r3, #12
 1847 00f8 1A44     		add	r2, r2, r3
 1848              		.loc 7 527 0
 1849 00fa 9DF80330 		ldrb	r3, [sp, #3]	@ zero_extendqisi2
 1850 00fe 0199     		ldr	r1, [sp, #4]
 1851 0100 0233     		adds	r3, r3, #2
 1852 0102 9B00     		lsls	r3, r3, #2
 1853 0104 0B44     		add	r3, r3, r1
 1854 0106 5B68     		ldr	r3, [r3, #4]
 1855 0108 5B69     		ldr	r3, [r3, #20]
 1856              		.loc 7 526 0
 1857 010a DB68     		ldr	r3, [r3, #12]
 1858 010c 1046     		mov	r0, r2
 1859 010e 1946     		mov	r1, r3
 1860 0110 039A     		ldr	r2, [sp, #12]
 1861 0112 FFF7FEFF 		bl	otg_fifo_write_from_buffer
 1862              		.loc 7 529 0
 1863 0116 9DF80330 		ldrb	r3, [sp, #3]	@ zero_extendqisi2
 1864 011a 019A     		ldr	r2, [sp, #4]
 1865 011c 0233     		adds	r3, r3, #2
 1866 011e 9B00     		lsls	r3, r3, #2
 1867 0120 1344     		add	r3, r3, r2
 1868 0122 5B68     		ldr	r3, [r3, #4]
 1869 0124 5A69     		ldr	r2, [r3, #20]
 1870 0126 9DF80330 		ldrb	r3, [sp, #3]	@ zero_extendqisi2
 1871 012a 0199     		ldr	r1, [sp, #4]
 1872 012c 0233     		adds	r3, r3, #2
 1873 012e 9B00     		lsls	r3, r3, #2
 1874 0130 0B44     		add	r3, r3, r1
 1875 0132 5B68     		ldr	r3, [r3, #4]
 1876 0134 5B69     		ldr	r3, [r3, #20]
 1877 0136 D968     		ldr	r1, [r3, #12]
 1878 0138 039B     		ldr	r3, [sp, #12]
 1879 013a 0B44     		add	r3, r3, r1
 1880 013c D360     		str	r3, [r2, #12]
 1881              	.L90:
 1882              		.loc 7 534 0
 1883 013e 9DF80330 		ldrb	r3, [sp, #3]	@ zero_extendqisi2
 1884 0142 019A     		ldr	r2, [sp, #4]
 1885 0144 0233     		adds	r3, r3, #2
 1886 0146 9B00     		lsls	r3, r3, #2
 1887 0148 1344     		add	r3, r3, r2
 1888 014a 5B68     		ldr	r3, [r3, #4]
 1889 014c 5A69     		ldr	r2, [r3, #20]
 1890 014e 9DF80330 		ldrb	r3, [sp, #3]	@ zero_extendqisi2
 1891 0152 0199     		ldr	r1, [sp, #4]
 1892 0154 0233     		adds	r3, r3, #2
 1893 0156 9B00     		lsls	r3, r3, #2
ARM GAS  /tmp/cciPs3oN.s 			page 35


 1894 0158 0B44     		add	r3, r3, r1
 1895 015a 5B68     		ldr	r3, [r3, #4]
 1896 015c 5B69     		ldr	r3, [r3, #20]
 1897 015e 9968     		ldr	r1, [r3, #8]
 1898 0160 039B     		ldr	r3, [sp, #12]
 1899 0162 0B44     		add	r3, r3, r1
 1900 0164 9360     		str	r3, [r2, #8]
 1901              	.LBE16:
 1902              		.loc 7 535 0
 1903 0166 51E7     		b	.L91
 1904              	.L86:
 1905              		.loc 7 536 0
 1906 0168 1846     		mov	r0, r3
 1907 016a 05B0     		add	sp, sp, #20
 1908              		@ sp needed
 1909 016c 5DF804FB 		ldr	pc, [sp], #4
 1910              		.cfi_endproc
 1911              	.LFE284:
 1912              		.size	otg_txfifo_handler, .-otg_txfifo_handler
 1913              		.section	.text.otg_epin_handler,"ax",%progbits
 1914              		.align	2
 1915              		.p2align 4,,15
 1916              		.thumb
 1917              		.thumb_func
 1918              		.type	otg_epin_handler, %function
 1919              	otg_epin_handler:
 1920              	.LFB285:
 1921              		.loc 7 546 0
 1922              		.cfi_startproc
 1923              		@ args = 0, pretend = 0, frame = 24
 1924              		@ frame_needed = 0, uses_anonymous_args = 0
 1925 0000 00B5     		push	{lr}
 1926              		.cfi_def_cfa_offset 4
 1927              		.cfi_offset 14, -4
 1928 0002 87B0     		sub	sp, sp, #28
 1929              		.cfi_def_cfa_offset 32
 1930 0004 0190     		str	r0, [sp, #4]
 1931 0006 0B46     		mov	r3, r1
 1932 0008 8DF80330 		strb	r3, [sp, #3]
 1933              		.loc 7 547 0
 1934 000c 019B     		ldr	r3, [sp, #4]
 1935 000e 1B6D     		ldr	r3, [r3, #80]
 1936 0010 0593     		str	r3, [sp, #20]
 1937              		.loc 7 548 0
 1938 0012 9DF80330 		ldrb	r3, [sp, #3]	@ zero_extendqisi2
 1939 0016 059A     		ldr	r2, [sp, #20]
 1940 0018 5B01     		lsls	r3, r3, #5
 1941 001a 1344     		add	r3, r3, r2
 1942 001c 03F60813 		addw	r3, r3, #2312
 1943 0020 1B68     		ldr	r3, [r3]
 1944 0022 0493     		str	r3, [sp, #16]
 1945              		.loc 7 550 0
 1946 0024 9DF80330 		ldrb	r3, [sp, #3]	@ zero_extendqisi2
 1947 0028 059A     		ldr	r2, [sp, #20]
 1948 002a 5B01     		lsls	r3, r3, #5
 1949 002c 1344     		add	r3, r3, r2
 1950 002e 03F60813 		addw	r3, r3, #2312
ARM GAS  /tmp/cciPs3oN.s 			page 36


 1951 0032 049A     		ldr	r2, [sp, #16]
 1952 0034 1A60     		str	r2, [r3]
 1953              		.loc 7 555 0
 1954 0036 049B     		ldr	r3, [sp, #16]
 1955 0038 03F00103 		and	r3, r3, #1
 1956 003c 002B     		cmp	r3, #0
 1957 003e 4DD0     		beq	.L93
 1958              		.loc 7 555 0 is_stmt 0 discriminator 1
 1959 0040 059B     		ldr	r3, [sp, #20]
 1960 0042 D3F81038 		ldr	r3, [r3, #2064]
 1961 0046 03F00103 		and	r3, r3, #1
 1962 004a 002B     		cmp	r3, #0
 1963 004c 46D0     		beq	.L93
 1964              	.LBB17:
 1965              		.loc 7 557 0 is_stmt 1
 1966 004e 9DF80330 		ldrb	r3, [sp, #3]	@ zero_extendqisi2
 1967 0052 019A     		ldr	r2, [sp, #4]
 1968 0054 0233     		adds	r3, r3, #2
 1969 0056 9B00     		lsls	r3, r3, #2
 1970 0058 1344     		add	r3, r3, r2
 1971 005a 5B68     		ldr	r3, [r3, #4]
 1972 005c 5B69     		ldr	r3, [r3, #20]
 1973 005e 0393     		str	r3, [sp, #12]
 1974              		.loc 7 559 0
 1975 0060 039B     		ldr	r3, [sp, #12]
 1976 0062 5A68     		ldr	r2, [r3, #4]
 1977 0064 039B     		ldr	r3, [sp, #12]
 1978 0066 1B69     		ldr	r3, [r3, #16]
 1979 0068 9A42     		cmp	r2, r3
 1980 006a 1AD2     		bcs	.L94
 1981              		.loc 7 563 0
 1982 006c 039B     		ldr	r3, [sp, #12]
 1983 006e 1A69     		ldr	r2, [r3, #16]
 1984 0070 039B     		ldr	r3, [sp, #12]
 1985 0072 5B68     		ldr	r3, [r3, #4]
 1986 0074 D21A     		subs	r2, r2, r3
 1987 0076 039B     		ldr	r3, [sp, #12]
 1988 0078 5A60     		str	r2, [r3, #4]
 1989              		.loc 7 564 0
 1990 007a 039B     		ldr	r3, [sp, #12]
 1991 007c 0022     		movs	r2, #0
 1992 007e 9A60     		str	r2, [r3, #8]
 1993              		.loc 7 565 0
 1994 0080 9DF80330 		ldrb	r3, [sp, #3]	@ zero_extendqisi2
 1995 0084 0198     		ldr	r0, [sp, #4]
 1996 0086 1946     		mov	r1, r3
 1997 0088 FFF7FEFF 		bl	usb_lld_prepare_transmit
 1998              		.loc 7 566 0
 1999 008c FFF7FEFF 		bl	osalSysLockFromISR
 2000              		.loc 7 567 0
 2001 0090 9DF80330 		ldrb	r3, [sp, #3]	@ zero_extendqisi2
 2002 0094 0198     		ldr	r0, [sp, #4]
 2003 0096 1946     		mov	r1, r3
 2004 0098 FFF7FEFF 		bl	usb_lld_start_in
 2005              		.loc 7 568 0
 2006 009c FFF7FEFF 		bl	osalSysUnlockFromISR
 2007 00a0 1CE0     		b	.L93
ARM GAS  /tmp/cciPs3oN.s 			page 37


 2008              	.L94:
 2009              		.loc 7 572 0
 2010 00a2 019B     		ldr	r3, [sp, #4]
 2011 00a4 1B89     		ldrh	r3, [r3, #8]
 2012 00a6 9AB2     		uxth	r2, r3
 2013 00a8 9DF80330 		ldrb	r3, [sp, #3]	@ zero_extendqisi2
 2014 00ac 0121     		movs	r1, #1
 2015 00ae 01FA03F3 		lsl	r3, r1, r3
 2016 00b2 9BB2     		uxth	r3, r3
 2017 00b4 DB43     		mvns	r3, r3
 2018 00b6 9BB2     		uxth	r3, r3
 2019 00b8 1340     		ands	r3, r3, r2
 2020 00ba 9BB2     		uxth	r3, r3
 2021 00bc 9AB2     		uxth	r2, r3
 2022 00be 019B     		ldr	r3, [sp, #4]
 2023 00c0 1A81     		strh	r2, [r3, #8]	@ movhi
 2024 00c2 9DF80330 		ldrb	r3, [sp, #3]	@ zero_extendqisi2
 2025 00c6 019A     		ldr	r2, [sp, #4]
 2026 00c8 0233     		adds	r3, r3, #2
 2027 00ca 9B00     		lsls	r3, r3, #2
 2028 00cc 1344     		add	r3, r3, r2
 2029 00ce 5B68     		ldr	r3, [r3, #4]
 2030 00d0 9B68     		ldr	r3, [r3, #8]
 2031 00d2 9DF80320 		ldrb	r2, [sp, #3]	@ zero_extendqisi2
 2032 00d6 0198     		ldr	r0, [sp, #4]
 2033 00d8 1146     		mov	r1, r2
 2034 00da 9847     		blx	r3
 2035              	.L93:
 2036              	.LBE17:
 2037              		.loc 7 575 0
 2038 00dc 049B     		ldr	r3, [sp, #16]
 2039 00de 03F08003 		and	r3, r3, #128
 2040 00e2 002B     		cmp	r3, #0
 2041 00e4 2BD0     		beq	.L92
 2042              		.loc 7 576 0 discriminator 1
 2043 00e6 059B     		ldr	r3, [sp, #20]
 2044 00e8 D3F83428 		ldr	r2, [r3, #2100]
 2045 00ec 9DF80330 		ldrb	r3, [sp, #3]	@ zero_extendqisi2
 2046 00f0 0121     		movs	r1, #1
 2047 00f2 01FA03F3 		lsl	r3, r1, r3
 2048 00f6 1340     		ands	r3, r3, r2
 2049              		.loc 7 575 0 discriminator 1
 2050 00f8 002B     		cmp	r3, #0
 2051 00fa 20D0     		beq	.L92
 2052              		.loc 7 578 0
 2053 00fc FFF7FEFF 		bl	osalSysLockFromISR
 2054              		.loc 7 579 0
 2055 0100 019B     		ldr	r3, [sp, #4]
 2056 0102 DA6D     		ldr	r2, [r3, #92]
 2057 0104 9DF80330 		ldrb	r3, [sp, #3]	@ zero_extendqisi2
 2058 0108 0121     		movs	r1, #1
 2059 010a 01FA03F3 		lsl	r3, r1, r3
 2060 010e 1A43     		orrs	r2, r2, r3
 2061 0110 019B     		ldr	r3, [sp, #4]
 2062 0112 DA65     		str	r2, [r3, #92]
 2063              		.loc 7 580 0
 2064 0114 059B     		ldr	r3, [sp, #20]
ARM GAS  /tmp/cciPs3oN.s 			page 38


 2065 0116 D3F83428 		ldr	r2, [r3, #2100]
 2066 011a 9DF80330 		ldrb	r3, [sp, #3]	@ zero_extendqisi2
 2067 011e 0121     		movs	r1, #1
 2068 0120 01FA03F3 		lsl	r3, r1, r3
 2069 0124 DB43     		mvns	r3, r3
 2070 0126 1A40     		ands	r2, r2, r3
 2071 0128 059B     		ldr	r3, [sp, #20]
 2072 012a C3F83428 		str	r2, [r3, #2100]
 2073              		.loc 7 581 0
 2074 012e 019B     		ldr	r3, [sp, #4]
 2075 0130 6033     		adds	r3, r3, #96
 2076 0132 1846     		mov	r0, r3
 2077 0134 0021     		movs	r1, #0
 2078 0136 FFF7FEFF 		bl	osalThreadResumeI
 2079              		.loc 7 582 0
 2080 013a FFF7FEFF 		bl	osalSysUnlockFromISR
 2081              	.L92:
 2082              		.loc 7 584 0
 2083 013e 07B0     		add	sp, sp, #28
 2084              		@ sp needed
 2085 0140 5DF804FB 		ldr	pc, [sp], #4
 2086              		.cfi_endproc
 2087              	.LFE285:
 2088              		.size	otg_epin_handler, .-otg_epin_handler
 2089 0144 AFF30080 		.section	.text.otg_epout_handler,"ax",%progbits
 2089      AFF30080 
 2089      AFF30080 
 2090              		.align	2
 2091              		.p2align 4,,15
 2092              		.thumb
 2093              		.thumb_func
 2094              		.type	otg_epout_handler, %function
 2095              	otg_epout_handler:
 2096              	.LFB286:
 2097              		.loc 7 594 0
 2098              		.cfi_startproc
 2099              		@ args = 0, pretend = 0, frame = 24
 2100              		@ frame_needed = 0, uses_anonymous_args = 0
 2101 0000 00B5     		push	{lr}
 2102              		.cfi_def_cfa_offset 4
 2103              		.cfi_offset 14, -4
 2104 0002 87B0     		sub	sp, sp, #28
 2105              		.cfi_def_cfa_offset 32
 2106 0004 0190     		str	r0, [sp, #4]
 2107 0006 0B46     		mov	r3, r1
 2108 0008 8DF80330 		strb	r3, [sp, #3]
 2109              		.loc 7 595 0
 2110 000c 019B     		ldr	r3, [sp, #4]
 2111 000e 1B6D     		ldr	r3, [r3, #80]
 2112 0010 0593     		str	r3, [sp, #20]
 2113              		.loc 7 596 0
 2114 0012 9DF80330 		ldrb	r3, [sp, #3]	@ zero_extendqisi2
 2115 0016 059A     		ldr	r2, [sp, #20]
 2116 0018 5B01     		lsls	r3, r3, #5
 2117 001a 1344     		add	r3, r3, r2
 2118 001c 03F60833 		addw	r3, r3, #2824
 2119 0020 1B68     		ldr	r3, [r3]
ARM GAS  /tmp/cciPs3oN.s 			page 39


 2120 0022 0493     		str	r3, [sp, #16]
 2121              		.loc 7 599 0
 2122 0024 9DF80330 		ldrb	r3, [sp, #3]	@ zero_extendqisi2
 2123 0028 059A     		ldr	r2, [sp, #20]
 2124 002a 5B01     		lsls	r3, r3, #5
 2125 002c 1344     		add	r3, r3, r2
 2126 002e 03F60833 		addw	r3, r3, #2824
 2127 0032 049A     		ldr	r2, [sp, #16]
 2128 0034 1A60     		str	r2, [r3]
 2129              		.loc 7 601 0
 2130 0036 049B     		ldr	r3, [sp, #16]
 2131 0038 03F00803 		and	r3, r3, #8
 2132 003c 002B     		cmp	r3, #0
 2133 003e 13D0     		beq	.L97
 2134              		.loc 7 601 0 is_stmt 0 discriminator 1
 2135 0040 059B     		ldr	r3, [sp, #20]
 2136 0042 D3F81438 		ldr	r3, [r3, #2068]
 2137 0046 03F00803 		and	r3, r3, #8
 2138 004a 002B     		cmp	r3, #0
 2139 004c 0CD0     		beq	.L97
 2140              		.loc 7 604 0 is_stmt 1
 2141 004e 9DF80330 		ldrb	r3, [sp, #3]	@ zero_extendqisi2
 2142 0052 019A     		ldr	r2, [sp, #4]
 2143 0054 0233     		adds	r3, r3, #2
 2144 0056 9B00     		lsls	r3, r3, #2
 2145 0058 1344     		add	r3, r3, r2
 2146 005a 5B68     		ldr	r3, [r3, #4]
 2147 005c 5B68     		ldr	r3, [r3, #4]
 2148 005e 9DF80320 		ldrb	r2, [sp, #3]	@ zero_extendqisi2
 2149 0062 0198     		ldr	r0, [sp, #4]
 2150 0064 1146     		mov	r1, r2
 2151 0066 9847     		blx	r3
 2152              	.L97:
 2153              		.loc 7 607 0
 2154 0068 049B     		ldr	r3, [sp, #16]
 2155 006a 03F00103 		and	r3, r3, #1
 2156 006e 002B     		cmp	r3, #0
 2157 0070 4DD0     		beq	.L96
 2158              		.loc 7 607 0 is_stmt 0 discriminator 1
 2159 0072 059B     		ldr	r3, [sp, #20]
 2160 0074 D3F81438 		ldr	r3, [r3, #2068]
 2161 0078 03F00103 		and	r3, r3, #1
 2162 007c 002B     		cmp	r3, #0
 2163 007e 46D0     		beq	.L96
 2164              	.LBB18:
 2165              		.loc 7 609 0 is_stmt 1
 2166 0080 9DF80330 		ldrb	r3, [sp, #3]	@ zero_extendqisi2
 2167 0084 019A     		ldr	r2, [sp, #4]
 2168 0086 0233     		adds	r3, r3, #2
 2169 0088 9B00     		lsls	r3, r3, #2
 2170 008a 1344     		add	r3, r3, r2
 2171 008c 5B68     		ldr	r3, [r3, #4]
 2172 008e 9B69     		ldr	r3, [r3, #24]
 2173 0090 0393     		str	r3, [sp, #12]
 2174              		.loc 7 611 0
 2175 0092 039B     		ldr	r3, [sp, #12]
 2176 0094 5A68     		ldr	r2, [r3, #4]
ARM GAS  /tmp/cciPs3oN.s 			page 40


 2177 0096 039B     		ldr	r3, [sp, #12]
 2178 0098 1B69     		ldr	r3, [r3, #16]
 2179 009a 9A42     		cmp	r2, r3
 2180 009c 1AD2     		bcs	.L99
 2181              		.loc 7 615 0
 2182 009e 039B     		ldr	r3, [sp, #12]
 2183 00a0 1A69     		ldr	r2, [r3, #16]
 2184 00a2 039B     		ldr	r3, [sp, #12]
 2185 00a4 5B68     		ldr	r3, [r3, #4]
 2186 00a6 D21A     		subs	r2, r2, r3
 2187 00a8 039B     		ldr	r3, [sp, #12]
 2188 00aa 5A60     		str	r2, [r3, #4]
 2189              		.loc 7 616 0
 2190 00ac 039B     		ldr	r3, [sp, #12]
 2191 00ae 0022     		movs	r2, #0
 2192 00b0 9A60     		str	r2, [r3, #8]
 2193              		.loc 7 617 0
 2194 00b2 9DF80330 		ldrb	r3, [sp, #3]	@ zero_extendqisi2
 2195 00b6 0198     		ldr	r0, [sp, #4]
 2196 00b8 1946     		mov	r1, r3
 2197 00ba FFF7FEFF 		bl	usb_lld_prepare_receive
 2198              		.loc 7 618 0
 2199 00be FFF7FEFF 		bl	chSysLockFromISR
 2200              		.loc 7 619 0
 2201 00c2 9DF80330 		ldrb	r3, [sp, #3]	@ zero_extendqisi2
 2202 00c6 0198     		ldr	r0, [sp, #4]
 2203 00c8 1946     		mov	r1, r3
 2204 00ca FFF7FEFF 		bl	usb_lld_start_out
 2205              		.loc 7 620 0
 2206 00ce FFF7FEFF 		bl	chSysUnlockFromISR
 2207 00d2 1CE0     		b	.L96
 2208              	.L99:
 2209              		.loc 7 624 0
 2210 00d4 019B     		ldr	r3, [sp, #4]
 2211 00d6 5B89     		ldrh	r3, [r3, #10]
 2212 00d8 9AB2     		uxth	r2, r3
 2213 00da 9DF80330 		ldrb	r3, [sp, #3]	@ zero_extendqisi2
 2214 00de 0121     		movs	r1, #1
 2215 00e0 01FA03F3 		lsl	r3, r1, r3
 2216 00e4 9BB2     		uxth	r3, r3
 2217 00e6 DB43     		mvns	r3, r3
 2218 00e8 9BB2     		uxth	r3, r3
 2219 00ea 1340     		ands	r3, r3, r2
 2220 00ec 9BB2     		uxth	r3, r3
 2221 00ee 9AB2     		uxth	r2, r3
 2222 00f0 019B     		ldr	r3, [sp, #4]
 2223 00f2 5A81     		strh	r2, [r3, #10]	@ movhi
 2224 00f4 9DF80330 		ldrb	r3, [sp, #3]	@ zero_extendqisi2
 2225 00f8 019A     		ldr	r2, [sp, #4]
 2226 00fa 0233     		adds	r3, r3, #2
 2227 00fc 9B00     		lsls	r3, r3, #2
 2228 00fe 1344     		add	r3, r3, r2
 2229 0100 5B68     		ldr	r3, [r3, #4]
 2230 0102 DB68     		ldr	r3, [r3, #12]
 2231 0104 9DF80320 		ldrb	r2, [sp, #3]	@ zero_extendqisi2
 2232 0108 0198     		ldr	r0, [sp, #4]
 2233 010a 1146     		mov	r1, r2
ARM GAS  /tmp/cciPs3oN.s 			page 41


 2234 010c 9847     		blx	r3
 2235              	.L96:
 2236              	.LBE18:
 2237              		.loc 7 627 0
 2238 010e 07B0     		add	sp, sp, #28
 2239              		@ sp needed
 2240 0110 5DF804FB 		ldr	pc, [sp], #4
 2241              		.cfi_endproc
 2242              	.LFE286:
 2243              		.size	otg_epout_handler, .-otg_epout_handler
 2244 0114 AFF30080 		.section	.text.usb_lld_serve_interrupt,"ax",%progbits
 2244      AFF30080 
 2244      AFF30080 
 2245              		.align	2
 2246              		.p2align 4,,15
 2247              		.thumb
 2248              		.thumb_func
 2249              		.type	usb_lld_serve_interrupt, %function
 2250              	usb_lld_serve_interrupt:
 2251              	.LFB287:
 2252              		.loc 7 636 0
 2253              		.cfi_startproc
 2254              		@ args = 0, pretend = 0, frame = 24
 2255              		@ frame_needed = 0, uses_anonymous_args = 0
 2256 0000 00B5     		push	{lr}
 2257              		.cfi_def_cfa_offset 4
 2258              		.cfi_offset 14, -4
 2259 0002 87B0     		sub	sp, sp, #28
 2260              		.cfi_def_cfa_offset 32
 2261 0004 0190     		str	r0, [sp, #4]
 2262              		.loc 7 637 0
 2263 0006 019B     		ldr	r3, [sp, #4]
 2264 0008 1B6D     		ldr	r3, [r3, #80]
 2265 000a 0593     		str	r3, [sp, #20]
 2266              		.loc 7 640 0
 2267 000c 059B     		ldr	r3, [sp, #20]
 2268 000e 5B69     		ldr	r3, [r3, #20]
 2269 0010 0493     		str	r3, [sp, #16]
 2270              		.loc 7 641 0
 2271 0012 059B     		ldr	r3, [sp, #20]
 2272 0014 9B69     		ldr	r3, [r3, #24]
 2273 0016 049A     		ldr	r2, [sp, #16]
 2274 0018 1340     		ands	r3, r3, r2
 2275 001a 0493     		str	r3, [sp, #16]
 2276              		.loc 7 642 0
 2277 001c 059B     		ldr	r3, [sp, #20]
 2278 001e 049A     		ldr	r2, [sp, #16]
 2279 0020 5A61     		str	r2, [r3, #20]
 2280              		.loc 7 645 0
 2281 0022 049B     		ldr	r3, [sp, #16]
 2282 0024 002B     		cmp	r3, #0
 2283 0026 16DA     		bge	.L101
 2284              		.loc 7 648 0
 2285 0028 059B     		ldr	r3, [sp, #20]
 2286 002a D3F8003E 		ldr	r3, [r3, #3584]
 2287 002e 03F00303 		and	r3, r3, #3
 2288 0032 002B     		cmp	r3, #0
ARM GAS  /tmp/cciPs3oN.s 			page 42


 2289 0034 07D0     		beq	.L102
 2290              		.loc 7 650 0
 2291 0036 059B     		ldr	r3, [sp, #20]
 2292 0038 D3F8003E 		ldr	r3, [r3, #3584]
 2293 003c 23F00302 		bic	r2, r3, #3
 2294 0040 059B     		ldr	r3, [sp, #20]
 2295 0042 C3F8002E 		str	r2, [r3, #3584]
 2296              	.L102:
 2297              		.loc 7 654 0
 2298 0046 059B     		ldr	r3, [sp, #20]
 2299 0048 D3F80438 		ldr	r3, [r3, #2052]
 2300 004c 43F00102 		orr	r2, r3, #1
 2301 0050 059B     		ldr	r3, [sp, #20]
 2302 0052 C3F80428 		str	r2, [r3, #2052]
 2303              	.L101:
 2304              		.loc 7 663 0
 2305 0056 049B     		ldr	r3, [sp, #16]
 2306 0058 03F48053 		and	r3, r3, #4096
 2307 005c 002B     		cmp	r3, #0
 2308 005e 0DD0     		beq	.L103
 2309              		.loc 7 664 0
 2310 0060 0198     		ldr	r0, [sp, #4]
 2311 0062 FFF7FEFF 		bl	_usb_reset
 2312              		.loc 7 665 0
 2313 0066 019B     		ldr	r3, [sp, #4]
 2314 0068 5B68     		ldr	r3, [r3, #4]
 2315 006a 1B68     		ldr	r3, [r3]
 2316 006c 002B     		cmp	r3, #0
 2317 006e 05D0     		beq	.L103
 2318              		.loc 7 665 0 is_stmt 0 discriminator 1
 2319 0070 019B     		ldr	r3, [sp, #4]
 2320 0072 5B68     		ldr	r3, [r3, #4]
 2321 0074 1B68     		ldr	r3, [r3]
 2322 0076 0198     		ldr	r0, [sp, #4]
 2323 0078 0021     		movs	r1, #0
 2324 007a 9847     		blx	r3
 2325              	.L103:
 2326              		.loc 7 669 0 is_stmt 1
 2327 007c 049B     		ldr	r3, [sp, #16]
 2328 007e 03F40053 		and	r3, r3, #8192
 2329 0082 002B     		cmp	r3, #0
 2330 0084 17D0     		beq	.L104
 2331              		.loc 7 671 0
 2332 0086 059B     		ldr	r3, [sp, #20]
 2333 0088 D3F80838 		ldr	r3, [r3, #2056]
 2334 008c 03F00603 		and	r3, r3, #6
 2335 0090 002B     		cmp	r3, #0
 2336 0092 08D1     		bne	.L105
 2337              		.loc 7 672 0
 2338 0094 059B     		ldr	r3, [sp, #20]
 2339 0096 DB68     		ldr	r3, [r3, #12]
 2340 0098 23F47053 		bic	r3, r3, #15360
 2341 009c 43F41052 		orr	r2, r3, #9216
 2342 00a0 059B     		ldr	r3, [sp, #20]
 2343 00a2 DA60     		str	r2, [r3, #12]
 2344 00a4 07E0     		b	.L104
 2345              	.L105:
ARM GAS  /tmp/cciPs3oN.s 			page 43


 2346              		.loc 7 676 0
 2347 00a6 059B     		ldr	r3, [sp, #20]
 2348 00a8 DB68     		ldr	r3, [r3, #12]
 2349 00aa 23F47053 		bic	r3, r3, #15360
 2350 00ae 43F4A052 		orr	r2, r3, #5120
 2351 00b2 059B     		ldr	r3, [sp, #20]
 2352 00b4 DA60     		str	r2, [r3, #12]
 2353              	.L104:
 2354              		.loc 7 682 0
 2355 00b6 049B     		ldr	r3, [sp, #16]
 2356 00b8 03F00803 		and	r3, r3, #8
 2357 00bc 002B     		cmp	r3, #0
 2358 00be 09D0     		beq	.L106
 2359              		.loc 7 683 0
 2360 00c0 019B     		ldr	r3, [sp, #4]
 2361 00c2 5B68     		ldr	r3, [r3, #4]
 2362 00c4 DB68     		ldr	r3, [r3, #12]
 2363 00c6 002B     		cmp	r3, #0
 2364 00c8 04D0     		beq	.L106
 2365              		.loc 7 683 0 is_stmt 0 discriminator 1
 2366 00ca 019B     		ldr	r3, [sp, #4]
 2367 00cc 5B68     		ldr	r3, [r3, #4]
 2368 00ce DB68     		ldr	r3, [r3, #12]
 2369 00d0 0198     		ldr	r0, [sp, #4]
 2370 00d2 9847     		blx	r3
 2371              	.L106:
 2372              		.loc 7 687 0 is_stmt 1
 2373 00d4 049B     		ldr	r3, [sp, #16]
 2374 00d6 03F01003 		and	r3, r3, #16
 2375 00da 002B     		cmp	r3, #0
 2376 00dc 0FD0     		beq	.L107
 2377              		.loc 7 690 0
 2378 00de FFF7FEFF 		bl	osalSysLockFromISR
 2379              		.loc 7 691 0
 2380 00e2 059B     		ldr	r3, [sp, #20]
 2381 00e4 9B69     		ldr	r3, [r3, #24]
 2382 00e6 23F01002 		bic	r2, r3, #16
 2383 00ea 059B     		ldr	r3, [sp, #20]
 2384 00ec 9A61     		str	r2, [r3, #24]
 2385              		.loc 7 692 0
 2386 00ee 019B     		ldr	r3, [sp, #4]
 2387 00f0 6033     		adds	r3, r3, #96
 2388 00f2 1846     		mov	r0, r3
 2389 00f4 0021     		movs	r1, #0
 2390 00f6 FFF7FEFF 		bl	osalThreadResumeI
 2391              		.loc 7 693 0
 2392 00fa FFF7FEFF 		bl	osalSysUnlockFromISR
 2393              	.L107:
 2394              		.loc 7 697 0
 2395 00fe 059B     		ldr	r3, [sp, #20]
 2396 0100 D3F81838 		ldr	r3, [r3, #2072]
 2397 0104 0393     		str	r3, [sp, #12]
 2398              		.loc 7 698 0
 2399 0106 049B     		ldr	r3, [sp, #16]
 2400 0108 03F48023 		and	r3, r3, #262144
 2401 010c 002B     		cmp	r3, #0
 2402 010e 23D0     		beq	.L108
ARM GAS  /tmp/cciPs3oN.s 			page 44


 2403              		.loc 7 699 0
 2404 0110 039B     		ldr	r3, [sp, #12]
 2405 0112 03F00103 		and	r3, r3, #1
 2406 0116 002B     		cmp	r3, #0
 2407 0118 03D0     		beq	.L109
 2408              		.loc 7 700 0
 2409 011a 0198     		ldr	r0, [sp, #4]
 2410 011c 0021     		movs	r1, #0
 2411 011e FFF7FEFF 		bl	otg_epin_handler
 2412              	.L109:
 2413              		.loc 7 701 0
 2414 0122 039B     		ldr	r3, [sp, #12]
 2415 0124 03F00203 		and	r3, r3, #2
 2416 0128 002B     		cmp	r3, #0
 2417 012a 03D0     		beq	.L110
 2418              		.loc 7 702 0
 2419 012c 0198     		ldr	r0, [sp, #4]
 2420 012e 0121     		movs	r1, #1
 2421 0130 FFF7FEFF 		bl	otg_epin_handler
 2422              	.L110:
 2423              		.loc 7 703 0
 2424 0134 039B     		ldr	r3, [sp, #12]
 2425 0136 03F00403 		and	r3, r3, #4
 2426 013a 002B     		cmp	r3, #0
 2427 013c 03D0     		beq	.L111
 2428              		.loc 7 704 0
 2429 013e 0198     		ldr	r0, [sp, #4]
 2430 0140 0221     		movs	r1, #2
 2431 0142 FFF7FEFF 		bl	otg_epin_handler
 2432              	.L111:
 2433              		.loc 7 705 0
 2434 0146 039B     		ldr	r3, [sp, #12]
 2435 0148 03F00803 		and	r3, r3, #8
 2436 014c 002B     		cmp	r3, #0
 2437 014e 03D0     		beq	.L108
 2438              		.loc 7 706 0
 2439 0150 0198     		ldr	r0, [sp, #4]
 2440 0152 0321     		movs	r1, #3
 2441 0154 FFF7FEFF 		bl	otg_epin_handler
 2442              	.L108:
 2443              		.loc 7 714 0
 2444 0158 049B     		ldr	r3, [sp, #16]
 2445 015a 03F40023 		and	r3, r3, #524288
 2446 015e 002B     		cmp	r3, #0
 2447 0160 23D0     		beq	.L100
 2448              		.loc 7 715 0
 2449 0162 039B     		ldr	r3, [sp, #12]
 2450 0164 03F48033 		and	r3, r3, #65536
 2451 0168 002B     		cmp	r3, #0
 2452 016a 03D0     		beq	.L113
 2453              		.loc 7 716 0
 2454 016c 0198     		ldr	r0, [sp, #4]
 2455 016e 0021     		movs	r1, #0
 2456 0170 FFF7FEFF 		bl	otg_epout_handler
 2457              	.L113:
 2458              		.loc 7 717 0
 2459 0174 039B     		ldr	r3, [sp, #12]
ARM GAS  /tmp/cciPs3oN.s 			page 45


 2460 0176 03F40033 		and	r3, r3, #131072
 2461 017a 002B     		cmp	r3, #0
 2462 017c 03D0     		beq	.L114
 2463              		.loc 7 718 0
 2464 017e 0198     		ldr	r0, [sp, #4]
 2465 0180 0121     		movs	r1, #1
 2466 0182 FFF7FEFF 		bl	otg_epout_handler
 2467              	.L114:
 2468              		.loc 7 719 0
 2469 0186 039B     		ldr	r3, [sp, #12]
 2470 0188 03F48023 		and	r3, r3, #262144
 2471 018c 002B     		cmp	r3, #0
 2472 018e 03D0     		beq	.L115
 2473              		.loc 7 720 0
 2474 0190 0198     		ldr	r0, [sp, #4]
 2475 0192 0221     		movs	r1, #2
 2476 0194 FFF7FEFF 		bl	otg_epout_handler
 2477              	.L115:
 2478              		.loc 7 721 0
 2479 0198 039B     		ldr	r3, [sp, #12]
 2480 019a 03F40023 		and	r3, r3, #524288
 2481 019e 002B     		cmp	r3, #0
 2482 01a0 03D0     		beq	.L100
 2483              		.loc 7 722 0
 2484 01a2 0198     		ldr	r0, [sp, #4]
 2485 01a4 0321     		movs	r1, #3
 2486 01a6 FFF7FEFF 		bl	otg_epout_handler
 2487              	.L100:
 2488              		.loc 7 730 0
 2489 01aa 07B0     		add	sp, sp, #28
 2490              		@ sp needed
 2491 01ac 5DF804FB 		ldr	pc, [sp], #4
 2492              		.cfi_endproc
 2493              	.LFE287:
 2494              		.size	usb_lld_serve_interrupt, .-usb_lld_serve_interrupt
 2495              		.section	.text.Vector14C,"ax",%progbits
 2496              		.align	2
 2497              		.p2align 4,,15
 2498              		.global	Vector14C
 2499              		.thumb
 2500              		.thumb_func
 2501              		.type	Vector14C, %function
 2502              	Vector14C:
 2503              	.LFB288:
 2504              		.loc 7 745 0
 2505              		.cfi_startproc
 2506              		@ args = 0, pretend = 0, frame = 0
 2507              		@ frame_needed = 0, uses_anonymous_args = 0
 2508 0000 08B5     		push	{r3, lr}
 2509              		.cfi_def_cfa_offset 8
 2510              		.cfi_offset 3, -8
 2511              		.cfi_offset 14, -4
 2512              		.loc 7 749 0
 2513 0002 0348     		ldr	r0, .L117
 2514 0004 FFF7FEFF 		bl	usb_lld_serve_interrupt
 2515              		.loc 7 751 0
 2516 0008 FFF7FEFF 		bl	_port_irq_epilogue
ARM GAS  /tmp/cciPs3oN.s 			page 46


 2517              		.loc 7 752 0
 2518 000c 08BD     		pop	{r3, pc}
 2519              	.L118:
 2520 000e 00BF     		.align	2
 2521              	.L117:
 2522 0010 00000000 		.word	USBD1
 2523              		.cfi_endproc
 2524              	.LFE288:
 2525              		.size	Vector14C, .-Vector14C
 2526 0014 AFF30080 		.section	.text.usb_lld_init,"ax",%progbits
 2526      AFF30080 
 2526      AFF30080 
 2527              		.align	2
 2528              		.p2align 4,,15
 2529              		.global	usb_lld_init
 2530              		.thumb
 2531              		.thumb_func
 2532              		.type	usb_lld_init, %function
 2533              	usb_lld_init:
 2534              	.LFB289:
 2535              		.loc 7 783 0
 2536              		.cfi_startproc
 2537              		@ args = 0, pretend = 0, frame = 0
 2538              		@ frame_needed = 0, uses_anonymous_args = 0
 2539 0000 08B5     		push	{r3, lr}
 2540              		.cfi_def_cfa_offset 8
 2541              		.cfi_offset 3, -8
 2542              		.cfi_offset 14, -4
 2543              		.loc 7 787 0
 2544 0002 0848     		ldr	r0, .L120
 2545 0004 FFF7FEFF 		bl	usbObjectInit
 2546              		.loc 7 788 0
 2547 0008 064B     		ldr	r3, .L120
 2548 000a 0022     		movs	r2, #0
 2549 000c 1A66     		str	r2, [r3, #96]
 2550              		.loc 7 789 0
 2551 000e 054B     		ldr	r3, .L120
 2552 0010 4FF0A042 		mov	r2, #1342177280
 2553 0014 1A65     		str	r2, [r3, #80]
 2554              		.loc 7 790 0
 2555 0016 034B     		ldr	r3, .L120
 2556 0018 034A     		ldr	r2, .L120+4
 2557 001a 5A65     		str	r2, [r3, #84]
 2558              		.loc 7 793 0
 2559 001c 014B     		ldr	r3, .L120
 2560 001e 0022     		movs	r2, #0
 2561 0020 5A66     		str	r2, [r3, #100]
 2562              		.loc 7 833 0
 2563 0022 08BD     		pop	{r3, pc}
 2564              	.L121:
 2565              		.align	2
 2566              	.L120:
 2567 0024 00000000 		.word	USBD1
 2568 0028 00000000 		.word	fsparams
 2569              		.cfi_endproc
 2570              	.LFE289:
 2571              		.size	usb_lld_init, .-usb_lld_init
ARM GAS  /tmp/cciPs3oN.s 			page 47


 2572 002c AFF30080 		.section	.text.usb_lld_start,"ax",%progbits
 2573              		.align	2
 2574              		.p2align 4,,15
 2575              		.global	usb_lld_start
 2576              		.thumb
 2577              		.thumb_func
 2578              		.type	usb_lld_start, %function
 2579              	usb_lld_start:
 2580              	.LFB290:
 2581              		.loc 7 845 0
 2582              		.cfi_startproc
 2583              		@ args = 0, pretend = 0, frame = 16
 2584              		@ frame_needed = 0, uses_anonymous_args = 0
 2585 0000 00B5     		push	{lr}
 2586              		.cfi_def_cfa_offset 4
 2587              		.cfi_offset 14, -4
 2588 0002 87B0     		sub	sp, sp, #28
 2589              		.cfi_def_cfa_offset 32
 2590 0004 0390     		str	r0, [sp, #12]
 2591              		.loc 7 846 0
 2592 0006 039B     		ldr	r3, [sp, #12]
 2593 0008 1B6D     		ldr	r3, [r3, #80]
 2594 000a 0593     		str	r3, [sp, #20]
 2595              		.loc 7 848 0
 2596 000c 039B     		ldr	r3, [sp, #12]
 2597 000e 1B78     		ldrb	r3, [r3]	@ zero_extendqisi2
 2598 0010 012B     		cmp	r3, #1
 2599 0012 6FD1     		bne	.L122
 2600              		.loc 7 852 0
 2601 0014 039A     		ldr	r2, [sp, #12]
 2602 0016 394B     		ldr	r3, .L128
 2603 0018 9A42     		cmp	r2, r3
 2604 001a 19D1     		bne	.L124
 2605              		.loc 7 854 0
 2606 001c 384B     		ldr	r3, .L128+4
 2607 001e 384A     		ldr	r2, .L128+4
 2608 0020 526B     		ldr	r2, [r2, #52]
 2609 0022 42F08002 		orr	r2, r2, #128
 2610 0026 5A63     		str	r2, [r3, #52]
 2611              		.loc 7 855 0
 2612 0028 354B     		ldr	r3, .L128+4
 2613 002a 354A     		ldr	r2, .L128+4
 2614 002c 5269     		ldr	r2, [r2, #20]
 2615 002e 42F08002 		orr	r2, r2, #128
 2616 0032 5A61     		str	r2, [r3, #20]
 2617 0034 324B     		ldr	r3, .L128+4
 2618 0036 0022     		movs	r2, #0
 2619 0038 5A61     		str	r2, [r3, #20]
 2620              		.loc 7 858 0
 2621 003a 4320     		movs	r0, #67
 2622 003c 0E21     		movs	r1, #14
 2623 003e FFF7FEFF 		bl	nvicEnableVector
 2624              		.loc 7 863 0
 2625 0042 059B     		ldr	r3, [sp, #20]
 2626 0044 2F4A     		ldr	r2, .L128+8
 2627 0046 DA60     		str	r2, [r3, #12]
 2628              		.loc 7 867 0
ARM GAS  /tmp/cciPs3oN.s 			page 48


 2629 0048 059B     		ldr	r3, [sp, #20]
 2630 004a 2F4A     		ldr	r2, .L128+12
 2631 004c C3F80028 		str	r2, [r3, #2048]
 2632              	.L124:
 2633              		.loc 7 917 0
 2634 0050 039B     		ldr	r3, [sp, #12]
 2635 0052 0022     		movs	r2, #0
 2636 0054 DA65     		str	r2, [r3, #92]
 2637              		.loc 7 920 0
 2638 0056 059B     		ldr	r3, [sp, #20]
 2639 0058 0022     		movs	r2, #0
 2640 005a C3F8002E 		str	r2, [r3, #3584]
 2641              		.loc 7 923 0
 2642 005e 059B     		ldr	r3, [sp, #20]
 2643 0060 C022     		movs	r2, #192
 2644 0062 1A60     		str	r2, [r3]
 2645              		.loc 7 938 0
 2646 0064 059B     		ldr	r3, [sp, #20]
 2647 0066 4FF45022 		mov	r2, #851968
 2648 006a 9A63     		str	r2, [r3, #56]
 2649              		.loc 7 942 0
 2650 006c 0398     		ldr	r0, [sp, #12]
 2651 006e FFF7FEFF 		bl	otg_core_reset
 2652              		.loc 7 945 0
 2653 0072 059B     		ldr	r3, [sp, #20]
 2654 0074 0022     		movs	r2, #0
 2655 0076 9A60     		str	r2, [r3, #8]
 2656              		.loc 7 948 0
 2657 0078 0398     		ldr	r0, [sp, #12]
 2658 007a FFF7FEFF 		bl	otg_disable_ep
 2659              		.loc 7 952 0
 2660 007e 059B     		ldr	r3, [sp, #20]
 2661 0080 0022     		movs	r2, #0
 2662 0082 C3F81028 		str	r2, [r3, #2064]
 2663              		.loc 7 953 0
 2664 0086 059B     		ldr	r3, [sp, #20]
 2665 0088 0022     		movs	r2, #0
 2666 008a C3F81428 		str	r2, [r3, #2068]
 2667              		.loc 7 954 0
 2668 008e 059B     		ldr	r3, [sp, #20]
 2669 0090 0022     		movs	r2, #0
 2670 0092 C3F81C28 		str	r2, [r3, #2076]
 2671              		.loc 7 955 0
 2672 0096 039B     		ldr	r3, [sp, #12]
 2673 0098 5B68     		ldr	r3, [r3, #4]
 2674 009a DB68     		ldr	r3, [r3, #12]
 2675 009c 002B     		cmp	r3, #0
 2676 009e 03D1     		bne	.L125
 2677              		.loc 7 956 0
 2678 00a0 059B     		ldr	r3, [sp, #20]
 2679 00a2 1A4A     		ldr	r2, .L128+16
 2680 00a4 9A61     		str	r2, [r3, #24]
 2681 00a6 02E0     		b	.L126
 2682              	.L125:
 2683              		.loc 7 959 0
 2684 00a8 059B     		ldr	r3, [sp, #20]
 2685 00aa 194A     		ldr	r2, .L128+20
ARM GAS  /tmp/cciPs3oN.s 			page 49


 2686 00ac 9A61     		str	r2, [r3, #24]
 2687              	.L126:
 2688              		.loc 7 964 0
 2689 00ae 059B     		ldr	r3, [sp, #20]
 2690 00b0 4FF0FF32 		mov	r2, #-1
 2691 00b4 5A61     		str	r2, [r3, #20]
 2692              		.loc 7 968 0
 2693 00b6 039B     		ldr	r3, [sp, #12]
 2694 00b8 5B6E     		ldr	r3, [r3, #100]
 2695 00ba 002B     		cmp	r3, #0
 2696 00bc 14D1     		bne	.L127
 2697              		.loc 7 969 0
 2698 00be 039B     		ldr	r3, [sp, #12]
 2699 00c0 6833     		adds	r3, r3, #104
 2700 00c2 039A     		ldr	r2, [sp, #12]
 2701 00c4 0092     		str	r2, [sp]
 2702 00c6 1846     		mov	r0, r3
 2703 00c8 4FF4A471 		mov	r1, #328
 2704 00cc 0222     		movs	r2, #2
 2705 00ce 114B     		ldr	r3, .L128+24
 2706 00d0 FFF7FEFF 		bl	chThdCreateI
 2707 00d4 0246     		mov	r2, r0
 2708 00d6 039B     		ldr	r3, [sp, #12]
 2709 00d8 5A66     		str	r2, [r3, #100]
 2710              		.loc 7 972 0
 2711 00da 039B     		ldr	r3, [sp, #12]
 2712 00dc 5B6E     		ldr	r3, [r3, #100]
 2713 00de 1846     		mov	r0, r3
 2714 00e0 FFF7FEFF 		bl	chThdStartI
 2715              		.loc 7 973 0
 2716 00e4 FFF7FEFF 		bl	chSchRescheduleS
 2717              	.L127:
 2718              		.loc 7 978 0
 2719 00e8 059B     		ldr	r3, [sp, #20]
 2720 00ea 9B68     		ldr	r3, [r3, #8]
 2721 00ec 43F00102 		orr	r2, r3, #1
 2722 00f0 059B     		ldr	r3, [sp, #20]
 2723 00f2 9A60     		str	r2, [r3, #8]
 2724              	.L122:
 2725              		.loc 7 980 0
 2726 00f4 07B0     		add	sp, sp, #28
 2727              		@ sp needed
 2728 00f6 5DF804FB 		ldr	pc, [sp], #4
 2729              	.L129:
 2730 00fa 00BF     		.align	2
 2731              	.L128:
 2732 00fc 00000000 		.word	USBD1
 2733 0100 00380240 		.word	1073887232
 2734 0104 40140040 		.word	1073747008
 2735 0108 03002002 		.word	35651587
 2736 010c 003C00C0 		.word	-1073726464
 2737 0110 083C00C0 		.word	-1073726456
 2738 0114 00000000 		.word	usb_lld_pump
 2739              		.cfi_endproc
 2740              	.LFE290:
 2741              		.size	usb_lld_start, .-usb_lld_start
 2742 0118 AFF30080 		.section	.text.usb_lld_stop,"ax",%progbits
ARM GAS  /tmp/cciPs3oN.s 			page 50


 2742      AFF30080 
 2743              		.align	2
 2744              		.p2align 4,,15
 2745              		.global	usb_lld_stop
 2746              		.thumb
 2747              		.thumb_func
 2748              		.type	usb_lld_stop, %function
 2749              	usb_lld_stop:
 2750              	.LFB291:
 2751              		.loc 7 989 0
 2752              		.cfi_startproc
 2753              		@ args = 0, pretend = 0, frame = 16
 2754              		@ frame_needed = 0, uses_anonymous_args = 0
 2755 0000 00B5     		push	{lr}
 2756              		.cfi_def_cfa_offset 4
 2757              		.cfi_offset 14, -4
 2758 0002 85B0     		sub	sp, sp, #20
 2759              		.cfi_def_cfa_offset 24
 2760 0004 0190     		str	r0, [sp, #4]
 2761              		.loc 7 990 0
 2762 0006 019B     		ldr	r3, [sp, #4]
 2763 0008 1B6D     		ldr	r3, [r3, #80]
 2764 000a 0393     		str	r3, [sp, #12]
 2765              		.loc 7 993 0
 2766 000c 019B     		ldr	r3, [sp, #4]
 2767 000e 1B78     		ldrb	r3, [r3]	@ zero_extendqisi2
 2768 0010 012B     		cmp	r3, #1
 2769 0012 1CD0     		beq	.L130
 2770              		.loc 7 997 0
 2771 0014 0198     		ldr	r0, [sp, #4]
 2772 0016 FFF7FEFF 		bl	otg_disable_ep
 2773              		.loc 7 999 0
 2774 001a 019B     		ldr	r3, [sp, #4]
 2775 001c 0022     		movs	r2, #0
 2776 001e DA65     		str	r2, [r3, #92]
 2777              		.loc 7 1001 0
 2778 0020 039B     		ldr	r3, [sp, #12]
 2779 0022 0022     		movs	r2, #0
 2780 0024 C3F81C28 		str	r2, [r3, #2076]
 2781              		.loc 7 1002 0
 2782 0028 039B     		ldr	r3, [sp, #12]
 2783 002a 0022     		movs	r2, #0
 2784 002c 9A60     		str	r2, [r3, #8]
 2785              		.loc 7 1003 0
 2786 002e 039B     		ldr	r3, [sp, #12]
 2787 0030 0022     		movs	r2, #0
 2788 0032 9A63     		str	r2, [r3, #56]
 2789              		.loc 7 1006 0
 2790 0034 019A     		ldr	r2, [sp, #4]
 2791 0036 074B     		ldr	r3, .L132
 2792 0038 9A42     		cmp	r2, r3
 2793 003a 08D1     		bne	.L130
 2794              		.loc 7 1007 0
 2795 003c 4320     		movs	r0, #67
 2796 003e FFF7FEFF 		bl	nvicDisableVector
 2797              		.loc 7 1008 0
 2798 0042 054B     		ldr	r3, .L132+4
ARM GAS  /tmp/cciPs3oN.s 			page 51


 2799 0044 044A     		ldr	r2, .L132+4
 2800 0046 526B     		ldr	r2, [r2, #52]
 2801 0048 22F08002 		bic	r2, r2, #128
 2802 004c 5A63     		str	r2, [r3, #52]
 2803              	.L130:
 2804              		.loc 7 1022 0
 2805 004e 05B0     		add	sp, sp, #20
 2806              		@ sp needed
 2807 0050 5DF804FB 		ldr	pc, [sp], #4
 2808              	.L133:
 2809              		.align	2
 2810              	.L132:
 2811 0054 00000000 		.word	USBD1
 2812 0058 00380240 		.word	1073887232
 2813              		.cfi_endproc
 2814              	.LFE291:
 2815              		.size	usb_lld_stop, .-usb_lld_stop
 2816 005c AFF30080 		.section	.text.usb_lld_reset,"ax",%progbits
 2817              		.align	2
 2818              		.p2align 4,,15
 2819              		.global	usb_lld_reset
 2820              		.thumb
 2821              		.thumb_func
 2822              		.type	usb_lld_reset, %function
 2823              	usb_lld_reset:
 2824              	.LFB292:
 2825              		.loc 7 1031 0
 2826              		.cfi_startproc
 2827              		@ args = 0, pretend = 0, frame = 16
 2828              		@ frame_needed = 0, uses_anonymous_args = 0
 2829 0000 10B5     		push	{r4, lr}
 2830              		.cfi_def_cfa_offset 8
 2831              		.cfi_offset 4, -8
 2832              		.cfi_offset 14, -4
 2833 0002 84B0     		sub	sp, sp, #16
 2834              		.cfi_def_cfa_offset 24
 2835 0004 0190     		str	r0, [sp, #4]
 2836              		.loc 7 1033 0
 2837 0006 019B     		ldr	r3, [sp, #4]
 2838 0008 1B6D     		ldr	r3, [r3, #80]
 2839 000a 0293     		str	r3, [sp, #8]
 2840              		.loc 7 1036 0
 2841 000c 0198     		ldr	r0, [sp, #4]
 2842 000e 0021     		movs	r1, #0
 2843 0010 FFF7FEFF 		bl	otg_txfifo_flush
 2844              		.loc 7 1039 0
 2845 0014 0023     		movs	r3, #0
 2846 0016 0393     		str	r3, [sp, #12]
 2847 0018 22E0     		b	.L135
 2848              	.L136:
 2849              		.loc 7 1040 0 discriminator 2
 2850 001a 029A     		ldr	r2, [sp, #8]
 2851 001c 039B     		ldr	r3, [sp, #12]
 2852 001e 4833     		adds	r3, r3, #72
 2853 0020 5B01     		lsls	r3, r3, #5
 2854 0022 1344     		add	r3, r3, r2
 2855 0024 4FF00062 		mov	r2, #134217728
ARM GAS  /tmp/cciPs3oN.s 			page 52


 2856 0028 1A60     		str	r2, [r3]
 2857              		.loc 7 1041 0 discriminator 2
 2858 002a 029A     		ldr	r2, [sp, #8]
 2859 002c 039B     		ldr	r3, [sp, #12]
 2860 002e 5833     		adds	r3, r3, #88
 2861 0030 5B01     		lsls	r3, r3, #5
 2862 0032 1344     		add	r3, r3, r2
 2863 0034 4FF00062 		mov	r2, #134217728
 2864 0038 1A60     		str	r2, [r3]
 2865              		.loc 7 1042 0 discriminator 2
 2866 003a 029A     		ldr	r2, [sp, #8]
 2867 003c 039B     		ldr	r3, [sp, #12]
 2868 003e 5B01     		lsls	r3, r3, #5
 2869 0040 1344     		add	r3, r3, r2
 2870 0042 03F60813 		addw	r3, r3, #2312
 2871 0046 FF22     		movs	r2, #255
 2872 0048 1A60     		str	r2, [r3]
 2873              		.loc 7 1043 0 discriminator 2
 2874 004a 029A     		ldr	r2, [sp, #8]
 2875 004c 039B     		ldr	r3, [sp, #12]
 2876 004e 5B01     		lsls	r3, r3, #5
 2877 0050 1344     		add	r3, r3, r2
 2878 0052 03F60833 		addw	r3, r3, #2824
 2879 0056 FF22     		movs	r2, #255
 2880 0058 1A60     		str	r2, [r3]
 2881              		.loc 7 1039 0 discriminator 2
 2882 005a 039B     		ldr	r3, [sp, #12]
 2883 005c 0133     		adds	r3, r3, #1
 2884 005e 0393     		str	r3, [sp, #12]
 2885              	.L135:
 2886              		.loc 7 1039 0 is_stmt 0 discriminator 1
 2887 0060 019B     		ldr	r3, [sp, #4]
 2888 0062 5B6D     		ldr	r3, [r3, #84]
 2889 0064 9A68     		ldr	r2, [r3, #8]
 2890 0066 039B     		ldr	r3, [sp, #12]
 2891 0068 9A42     		cmp	r2, r3
 2892 006a D6D2     		bcs	.L136
 2893              		.loc 7 1047 0 is_stmt 1
 2894 006c 029B     		ldr	r3, [sp, #8]
 2895 006e 4FF0FF32 		mov	r2, #-1
 2896 0072 C3F81828 		str	r2, [r3, #2072]
 2897              		.loc 7 1048 0
 2898 0076 029B     		ldr	r3, [sp, #8]
 2899 0078 4FF00112 		mov	r2, #65537
 2900 007c C3F81C28 		str	r2, [r3, #2076]
 2901              		.loc 7 1051 0
 2902 0080 0198     		ldr	r0, [sp, #4]
 2903 0082 FFF7FEFF 		bl	otg_ram_reset
 2904              		.loc 7 1054 0
 2905 0086 019B     		ldr	r3, [sp, #4]
 2906 0088 5B6D     		ldr	r3, [r3, #84]
 2907 008a 1A68     		ldr	r2, [r3]
 2908 008c 029B     		ldr	r3, [sp, #8]
 2909 008e 5A62     		str	r2, [r3, #36]
 2910              		.loc 7 1055 0
 2911 0090 0198     		ldr	r0, [sp, #4]
 2912 0092 FFF7FEFF 		bl	otg_rxfifo_flush
ARM GAS  /tmp/cciPs3oN.s 			page 53


 2913              		.loc 7 1058 0
 2914 0096 029B     		ldr	r3, [sp, #8]
 2915 0098 D3F80038 		ldr	r3, [r3, #2048]
 2916 009c 23F4FE62 		bic	r2, r3, #2032
 2917 00a0 029B     		ldr	r3, [sp, #8]
 2918 00a2 C3F80028 		str	r2, [r3, #2048]
 2919              		.loc 7 1061 0
 2920 00a6 029B     		ldr	r3, [sp, #8]
 2921 00a8 9B69     		ldr	r3, [r3, #24]
 2922 00aa 43F44023 		orr	r3, r3, #786432
 2923 00ae 43F01003 		orr	r3, r3, #16
 2924 00b2 029A     		ldr	r2, [sp, #8]
 2925 00b4 9361     		str	r3, [r2, #24]
 2926              		.loc 7 1062 0
 2927 00b6 029B     		ldr	r3, [sp, #8]
 2928 00b8 0922     		movs	r2, #9
 2929 00ba C3F81028 		str	r2, [r3, #2064]
 2930              		.loc 7 1063 0
 2931 00be 029B     		ldr	r3, [sp, #8]
 2932 00c0 0922     		movs	r2, #9
 2933 00c2 C3F81428 		str	r2, [r3, #2068]
 2934              		.loc 7 1066 0
 2935 00c6 019B     		ldr	r3, [sp, #4]
 2936 00c8 164A     		ldr	r2, .L137
 2937 00ca DA60     		str	r2, [r3, #12]
 2938              		.loc 7 1067 0
 2939 00cc 029B     		ldr	r3, [sp, #8]
 2940 00ce 0022     		movs	r2, #0
 2941 00d0 C3F8102B 		str	r2, [r3, #2832]
 2942              		.loc 7 1069 0
 2943 00d4 4023     		movs	r3, #64
 2944              		.loc 7 1068 0
 2945 00d6 43F08053 		orr	r3, r3, #268435456
 2946 00da 43F40043 		orr	r3, r3, #32768
 2947 00de 029A     		ldr	r2, [sp, #8]
 2948 00e0 C2F8003B 		str	r3, [r2, #2816]
 2949              		.loc 7 1070 0
 2950 00e4 029B     		ldr	r3, [sp, #8]
 2951 00e6 0022     		movs	r2, #0
 2952 00e8 C3F81029 		str	r2, [r3, #2320]
 2953              		.loc 7 1072 0
 2954 00ec 4023     		movs	r3, #64
 2955 00ee 43F08053 		orr	r3, r3, #268435456
 2956 00f2 43F40043 		orr	r3, r3, #32768
 2957              		.loc 7 1071 0
 2958 00f6 029A     		ldr	r2, [sp, #8]
 2959 00f8 C2F80039 		str	r3, [r2, #2304]
 2960              		.loc 7 1073 0
 2961 00fc 4023     		movs	r3, #64
 2962 00fe 9B08     		lsrs	r3, r3, #2
 2963 0100 9BB2     		uxth	r3, r3
 2964 0102 1B04     		lsls	r3, r3, #16
 2965 0104 1C46     		mov	r4, r3
 2966              		.loc 7 1074 0
 2967 0106 4023     		movs	r3, #64
 2968 0108 9B08     		lsrs	r3, r3, #2
 2969 010a 9BB2     		uxth	r3, r3
ARM GAS  /tmp/cciPs3oN.s 			page 54


 2970 010c 0198     		ldr	r0, [sp, #4]
 2971 010e 1946     		mov	r1, r3
 2972 0110 FFF7FEFF 		bl	otg_ram_alloc
 2973 0114 0346     		mov	r3, r0
 2974              		.loc 7 1073 0
 2975 0116 44EA0302 		orr	r2, r4, r3
 2976 011a 029B     		ldr	r3, [sp, #8]
 2977 011c 9A62     		str	r2, [r3, #40]
 2978              		.loc 7 1076 0
 2979 011e 04B0     		add	sp, sp, #16
 2980              		@ sp needed
 2981 0120 10BD     		pop	{r4, pc}
 2982              	.L138:
 2983 0122 00BF     		.align	2
 2984              	.L137:
 2985 0124 00000000 		.word	ep0config
 2986              		.cfi_endproc
 2987              	.LFE292:
 2988              		.size	usb_lld_reset, .-usb_lld_reset
 2989 0128 AFF30080 		.section	.text.usb_lld_set_address,"ax",%progbits
 2989      AFF30080 
 2990              		.align	2
 2991              		.p2align 4,,15
 2992              		.global	usb_lld_set_address
 2993              		.thumb
 2994              		.thumb_func
 2995              		.type	usb_lld_set_address, %function
 2996              	usb_lld_set_address:
 2997              	.LFB293:
 2998              		.loc 7 1085 0
 2999              		.cfi_startproc
 3000              		@ args = 0, pretend = 0, frame = 16
 3001              		@ frame_needed = 0, uses_anonymous_args = 0
 3002              		@ link register save eliminated.
 3003 0000 84B0     		sub	sp, sp, #16
 3004              		.cfi_def_cfa_offset 16
 3005 0002 0190     		str	r0, [sp, #4]
 3006              		.loc 7 1086 0
 3007 0004 019B     		ldr	r3, [sp, #4]
 3008 0006 1B6D     		ldr	r3, [r3, #80]
 3009 0008 0393     		str	r3, [sp, #12]
 3010              		.loc 7 1088 0
 3011 000a 039B     		ldr	r3, [sp, #12]
 3012 000c D3F80038 		ldr	r3, [r3, #2048]
 3013 0010 23F4FE62 		bic	r2, r3, #2032
 3014 0014 019B     		ldr	r3, [sp, #4]
 3015 0016 93F84E30 		ldrb	r3, [r3, #78]	@ zero_extendqisi2
 3016 001a 1B01     		lsls	r3, r3, #4
 3017 001c 1A43     		orrs	r2, r2, r3
 3018 001e 039B     		ldr	r3, [sp, #12]
 3019 0020 C3F80028 		str	r2, [r3, #2048]
 3020              		.loc 7 1089 0
 3021 0024 04B0     		add	sp, sp, #16
 3022              		@ sp needed
 3023 0026 7047     		bx	lr
 3024              		.cfi_endproc
 3025              	.LFE293:
ARM GAS  /tmp/cciPs3oN.s 			page 55


 3026              		.size	usb_lld_set_address, .-usb_lld_set_address
 3027 0028 AFF30080 		.section	.text.usb_lld_init_endpoint,"ax",%progbits
 3027      AFF30080 
 3028              		.align	2
 3029              		.p2align 4,,15
 3030              		.global	usb_lld_init_endpoint
 3031              		.thumb
 3032              		.thumb_func
 3033              		.type	usb_lld_init_endpoint, %function
 3034              	usb_lld_init_endpoint:
 3035              	.LFB294:
 3036              		.loc 7 1099 0
 3037              		.cfi_startproc
 3038              		@ args = 0, pretend = 0, frame = 24
 3039              		@ frame_needed = 0, uses_anonymous_args = 0
 3040 0000 30B5     		push	{r4, r5, lr}
 3041              		.cfi_def_cfa_offset 12
 3042              		.cfi_offset 4, -12
 3043              		.cfi_offset 5, -8
 3044              		.cfi_offset 14, -4
 3045 0002 87B0     		sub	sp, sp, #28
 3046              		.cfi_def_cfa_offset 40
 3047 0004 0190     		str	r0, [sp, #4]
 3048 0006 0B46     		mov	r3, r1
 3049 0008 8DF80330 		strb	r3, [sp, #3]
 3050              		.loc 7 1101 0
 3051 000c 019B     		ldr	r3, [sp, #4]
 3052 000e 1B6D     		ldr	r3, [r3, #80]
 3053 0010 0393     		str	r3, [sp, #12]
 3054              		.loc 7 1104 0
 3055 0012 9DF80330 		ldrb	r3, [sp, #3]	@ zero_extendqisi2
 3056 0016 019A     		ldr	r2, [sp, #4]
 3057 0018 0233     		adds	r3, r3, #2
 3058 001a 9B00     		lsls	r3, r3, #2
 3059 001c 1344     		add	r3, r3, r2
 3060 001e 5B68     		ldr	r3, [r3, #4]
 3061 0020 1B68     		ldr	r3, [r3]
 3062 0022 03F00303 		and	r3, r3, #3
 3063 0026 032B     		cmp	r3, #3
 3064 0028 00F20881 		bhi	.L153
 3065 002c 01A2     		adr	r2, .L143
 3066 002e 52F823F0 		ldr	pc, [r2, r3, lsl #2]
 3067 0032 00BF     		.p2align 2
 3068              	.L143:
 3069 0034 45000000 		.word	.L142+1
 3070 0038 4B000000 		.word	.L144+1
 3071 003c 51000000 		.word	.L145+1
 3072 0040 57000000 		.word	.L146+1
 3073              		.p2align 1
 3074              	.L142:
 3075              		.loc 7 1106 0
 3076 0044 7F4B     		ldr	r3, .L154
 3077 0046 0593     		str	r3, [sp, #20]
 3078              		.loc 7 1107 0
 3079 0048 08E0     		b	.L147
 3080              	.L144:
 3081              		.loc 7 1109 0
ARM GAS  /tmp/cciPs3oN.s 			page 56


 3082 004a 7F4B     		ldr	r3, .L154+4
 3083 004c 0593     		str	r3, [sp, #20]
 3084              		.loc 7 1110 0
 3085 004e 05E0     		b	.L147
 3086              	.L145:
 3087              		.loc 7 1112 0
 3088 0050 7E4B     		ldr	r3, .L154+8
 3089 0052 0593     		str	r3, [sp, #20]
 3090              		.loc 7 1113 0
 3091 0054 02E0     		b	.L147
 3092              	.L146:
 3093              		.loc 7 1115 0
 3094 0056 7E4B     		ldr	r3, .L154+12
 3095 0058 0593     		str	r3, [sp, #20]
 3096              		.loc 7 1116 0
 3097 005a 00BF     		nop
 3098              	.L147:
 3099              		.loc 7 1122 0
 3100 005c 9DF80330 		ldrb	r3, [sp, #3]	@ zero_extendqisi2
 3101 0060 039A     		ldr	r2, [sp, #12]
 3102 0062 5B01     		lsls	r3, r3, #5
 3103 0064 1344     		add	r3, r3, r2
 3104 0066 03F53163 		add	r3, r3, #2832
 3105 006a 0022     		movs	r2, #0
 3106 006c 1A60     		str	r2, [r3]
 3107              		.loc 7 1123 0
 3108 006e 9DF80330 		ldrb	r3, [sp, #3]	@ zero_extendqisi2
 3109 0072 019A     		ldr	r2, [sp, #4]
 3110 0074 0233     		adds	r3, r3, #2
 3111 0076 9B00     		lsls	r3, r3, #2
 3112 0078 1344     		add	r3, r3, r2
 3113 007a 5B68     		ldr	r3, [r3, #4]
 3114 007c DB68     		ldr	r3, [r3, #12]
 3115 007e 002B     		cmp	r3, #0
 3116 0080 20D0     		beq	.L149
 3117              		.loc 7 1124 0
 3118 0082 9DF80300 		ldrb	r0, [sp, #3]	@ zero_extendqisi2
 3119 0086 9DF80330 		ldrb	r3, [sp, #3]	@ zero_extendqisi2
 3120 008a 019A     		ldr	r2, [sp, #4]
 3121 008c 0233     		adds	r3, r3, #2
 3122 008e 9B00     		lsls	r3, r3, #2
 3123 0090 1344     		add	r3, r3, r2
 3124 0092 5B68     		ldr	r3, [r3, #4]
 3125 0094 5B8A     		ldrh	r3, [r3, #18]
 3126 0096 1A46     		mov	r2, r3
 3127 0098 059B     		ldr	r3, [sp, #20]
 3128 009a 1A43     		orrs	r2, r2, r3
 3129 009c 0399     		ldr	r1, [sp, #12]
 3130 009e 00F15803 		add	r3, r0, #88
 3131 00a2 5B01     		lsls	r3, r3, #5
 3132 00a4 0B44     		add	r3, r3, r1
 3133 00a6 1A60     		str	r2, [r3]
 3134              		.loc 7 1125 0
 3135 00a8 039B     		ldr	r3, [sp, #12]
 3136 00aa D3F81C28 		ldr	r2, [r3, #2076]
 3137 00ae 9DF80330 		ldrb	r3, [sp, #3]	@ zero_extendqisi2
 3138 00b2 1033     		adds	r3, r3, #16
ARM GAS  /tmp/cciPs3oN.s 			page 57


 3139 00b4 0121     		movs	r1, #1
 3140 00b6 01FA03F3 		lsl	r3, r1, r3
 3141 00ba 1A43     		orrs	r2, r2, r3
 3142 00bc 039B     		ldr	r3, [sp, #12]
 3143 00be C3F81C28 		str	r2, [r3, #2076]
 3144 00c2 1DE0     		b	.L150
 3145              	.L149:
 3146              		.loc 7 1128 0
 3147 00c4 9DF80330 		ldrb	r3, [sp, #3]	@ zero_extendqisi2
 3148 00c8 9DF80320 		ldrb	r2, [sp, #3]	@ zero_extendqisi2
 3149 00cc 0399     		ldr	r1, [sp, #12]
 3150 00ce 5832     		adds	r2, r2, #88
 3151 00d0 5201     		lsls	r2, r2, #5
 3152 00d2 0A44     		add	r2, r2, r1
 3153 00d4 1268     		ldr	r2, [r2]
 3154 00d6 22F40042 		bic	r2, r2, #32768
 3155 00da 0399     		ldr	r1, [sp, #12]
 3156 00dc 5833     		adds	r3, r3, #88
 3157 00de 5B01     		lsls	r3, r3, #5
 3158 00e0 0B44     		add	r3, r3, r1
 3159 00e2 1A60     		str	r2, [r3]
 3160              		.loc 7 1129 0
 3161 00e4 039B     		ldr	r3, [sp, #12]
 3162 00e6 D3F81C28 		ldr	r2, [r3, #2076]
 3163 00ea 9DF80330 		ldrb	r3, [sp, #3]	@ zero_extendqisi2
 3164 00ee 1033     		adds	r3, r3, #16
 3165 00f0 0121     		movs	r1, #1
 3166 00f2 01FA03F3 		lsl	r3, r1, r3
 3167 00f6 DB43     		mvns	r3, r3
 3168 00f8 1A40     		ands	r2, r2, r3
 3169 00fa 039B     		ldr	r3, [sp, #12]
 3170 00fc C3F81C28 		str	r2, [r3, #2076]
 3171              	.L150:
 3172              		.loc 7 1133 0
 3173 0100 9DF80330 		ldrb	r3, [sp, #3]	@ zero_extendqisi2
 3174 0104 039A     		ldr	r2, [sp, #12]
 3175 0106 5B01     		lsls	r3, r3, #5
 3176 0108 1344     		add	r3, r3, r2
 3177 010a 03F51163 		add	r3, r3, #2320
 3178 010e 0022     		movs	r2, #0
 3179 0110 1A60     		str	r2, [r3]
 3180              		.loc 7 1134 0
 3181 0112 9DF80330 		ldrb	r3, [sp, #3]	@ zero_extendqisi2
 3182 0116 019A     		ldr	r2, [sp, #4]
 3183 0118 0233     		adds	r3, r3, #2
 3184 011a 9B00     		lsls	r3, r3, #2
 3185 011c 1344     		add	r3, r3, r2
 3186 011e 5B68     		ldr	r3, [r3, #4]
 3187 0120 9B68     		ldr	r3, [r3, #8]
 3188 0122 002B     		cmp	r3, #0
 3189 0124 5DD0     		beq	.L151
 3190              		.loc 7 1136 0
 3191 0126 9DF80330 		ldrb	r3, [sp, #3]	@ zero_extendqisi2
 3192 012a 019A     		ldr	r2, [sp, #4]
 3193 012c 0233     		adds	r3, r3, #2
 3194 012e 9B00     		lsls	r3, r3, #2
 3195 0130 1344     		add	r3, r3, r2
ARM GAS  /tmp/cciPs3oN.s 			page 58


 3196 0132 5B68     		ldr	r3, [r3, #4]
 3197 0134 1B8A     		ldrh	r3, [r3, #16]
 3198 0136 9B08     		lsrs	r3, r3, #2
 3199 0138 9BB2     		uxth	r3, r3
 3200 013a 0493     		str	r3, [sp, #16]
 3201              		.loc 7 1137 0
 3202 013c 9DF80330 		ldrb	r3, [sp, #3]	@ zero_extendqisi2
 3203 0140 019A     		ldr	r2, [sp, #4]
 3204 0142 0233     		adds	r3, r3, #2
 3205 0144 9B00     		lsls	r3, r3, #2
 3206 0146 1344     		add	r3, r3, r2
 3207 0148 5B68     		ldr	r3, [r3, #4]
 3208 014a 9B8B     		ldrh	r3, [r3, #28]
 3209 014c 012B     		cmp	r3, #1
 3210 014e 0CD9     		bls	.L152
 3211              		.loc 7 1138 0
 3212 0150 9DF80330 		ldrb	r3, [sp, #3]	@ zero_extendqisi2
 3213 0154 019A     		ldr	r2, [sp, #4]
 3214 0156 0233     		adds	r3, r3, #2
 3215 0158 9B00     		lsls	r3, r3, #2
 3216 015a 1344     		add	r3, r3, r2
 3217 015c 5B68     		ldr	r3, [r3, #4]
 3218 015e 9B8B     		ldrh	r3, [r3, #28]
 3219 0160 1A46     		mov	r2, r3
 3220 0162 049B     		ldr	r3, [sp, #16]
 3221 0164 02FB03F3 		mul	r3, r2, r3
 3222 0168 0493     		str	r3, [sp, #16]
 3223              	.L152:
 3224              		.loc 7 1139 0
 3225 016a 9DF80330 		ldrb	r3, [sp, #3]	@ zero_extendqisi2
 3226 016e 5C1E     		subs	r4, r3, #1
 3227 0170 049B     		ldr	r3, [sp, #16]
 3228 0172 1D04     		lsls	r5, r3, #16
 3229              		.loc 7 1140 0
 3230 0174 0198     		ldr	r0, [sp, #4]
 3231 0176 0499     		ldr	r1, [sp, #16]
 3232 0178 FFF7FEFF 		bl	otg_ram_alloc
 3233 017c 0346     		mov	r3, r0
 3234              		.loc 7 1139 0
 3235 017e 45EA0302 		orr	r2, r5, r3
 3236 0182 0399     		ldr	r1, [sp, #12]
 3237 0184 04F14003 		add	r3, r4, #64
 3238 0188 9B00     		lsls	r3, r3, #2
 3239 018a 0B44     		add	r3, r3, r1
 3240 018c 5A60     		str	r2, [r3, #4]
 3241              		.loc 7 1141 0
 3242 018e 9DF80330 		ldrb	r3, [sp, #3]	@ zero_extendqisi2
 3243 0192 0198     		ldr	r0, [sp, #4]
 3244 0194 1946     		mov	r1, r3
 3245 0196 FFF7FEFF 		bl	otg_txfifo_flush
 3246              		.loc 7 1143 0
 3247 019a 9DF80300 		ldrb	r0, [sp, #3]	@ zero_extendqisi2
 3248              		.loc 7 1144 0
 3249 019e 9DF80330 		ldrb	r3, [sp, #3]	@ zero_extendqisi2
 3250 01a2 9B05     		lsls	r3, r3, #22
 3251              		.loc 7 1143 0
 3252 01a4 1A46     		mov	r2, r3
ARM GAS  /tmp/cciPs3oN.s 			page 59


 3253 01a6 059B     		ldr	r3, [sp, #20]
 3254 01a8 1A43     		orrs	r2, r2, r3
 3255              		.loc 7 1145 0
 3256 01aa 9DF80330 		ldrb	r3, [sp, #3]	@ zero_extendqisi2
 3257 01ae 0199     		ldr	r1, [sp, #4]
 3258 01b0 0233     		adds	r3, r3, #2
 3259 01b2 9B00     		lsls	r3, r3, #2
 3260 01b4 0B44     		add	r3, r3, r1
 3261 01b6 5B68     		ldr	r3, [r3, #4]
 3262 01b8 1B8A     		ldrh	r3, [r3, #16]
 3263              		.loc 7 1144 0
 3264 01ba 1A43     		orrs	r2, r2, r3
 3265              		.loc 7 1143 0
 3266 01bc 0399     		ldr	r1, [sp, #12]
 3267 01be 00F14803 		add	r3, r0, #72
 3268 01c2 5B01     		lsls	r3, r3, #5
 3269 01c4 0B44     		add	r3, r3, r1
 3270 01c6 1A60     		str	r2, [r3]
 3271              		.loc 7 1146 0
 3272 01c8 039B     		ldr	r3, [sp, #12]
 3273 01ca D3F81C28 		ldr	r2, [r3, #2076]
 3274 01ce 9DF80330 		ldrb	r3, [sp, #3]	@ zero_extendqisi2
 3275 01d2 0121     		movs	r1, #1
 3276 01d4 01FA03F3 		lsl	r3, r1, r3
 3277 01d8 1A43     		orrs	r2, r2, r3
 3278 01da 039B     		ldr	r3, [sp, #12]
 3279 01dc C3F81C28 		str	r2, [r3, #2076]
 3280 01e0 2DE0     		b	.L140
 3281              	.L151:
 3282              		.loc 7 1149 0
 3283 01e2 9DF80330 		ldrb	r3, [sp, #3]	@ zero_extendqisi2
 3284 01e6 013B     		subs	r3, r3, #1
 3285 01e8 039A     		ldr	r2, [sp, #12]
 3286 01ea 4033     		adds	r3, r3, #64
 3287 01ec 9B00     		lsls	r3, r3, #2
 3288 01ee 1344     		add	r3, r3, r2
 3289 01f0 184A     		ldr	r2, .L154+16
 3290 01f2 5A60     		str	r2, [r3, #4]
 3291              		.loc 7 1150 0
 3292 01f4 9DF80330 		ldrb	r3, [sp, #3]	@ zero_extendqisi2
 3293 01f8 0198     		ldr	r0, [sp, #4]
 3294 01fa 1946     		mov	r1, r3
 3295 01fc FFF7FEFF 		bl	otg_txfifo_flush
 3296              		.loc 7 1151 0
 3297 0200 9DF80330 		ldrb	r3, [sp, #3]	@ zero_extendqisi2
 3298 0204 9DF80320 		ldrb	r2, [sp, #3]	@ zero_extendqisi2
 3299 0208 0399     		ldr	r1, [sp, #12]
 3300 020a 4832     		adds	r2, r2, #72
 3301 020c 5201     		lsls	r2, r2, #5
 3302 020e 0A44     		add	r2, r2, r1
 3303 0210 1268     		ldr	r2, [r2]
 3304 0212 22F40042 		bic	r2, r2, #32768
 3305 0216 0399     		ldr	r1, [sp, #12]
 3306 0218 4833     		adds	r3, r3, #72
 3307 021a 5B01     		lsls	r3, r3, #5
 3308 021c 0B44     		add	r3, r3, r1
 3309 021e 1A60     		str	r2, [r3]
ARM GAS  /tmp/cciPs3oN.s 			page 60


 3310              		.loc 7 1152 0
 3311 0220 039B     		ldr	r3, [sp, #12]
 3312 0222 D3F81C28 		ldr	r2, [r3, #2076]
 3313 0226 9DF80330 		ldrb	r3, [sp, #3]	@ zero_extendqisi2
 3314 022a 0121     		movs	r1, #1
 3315 022c 01FA03F3 		lsl	r3, r1, r3
 3316 0230 DB43     		mvns	r3, r3
 3317 0232 1A40     		ands	r2, r2, r3
 3318 0234 039B     		ldr	r3, [sp, #12]
 3319 0236 C3F81C28 		str	r2, [r3, #2076]
 3320 023a 00E0     		b	.L140
 3321              	.L153:
 3322              		.loc 7 1118 0
 3323 023c 00BF     		nop
 3324              	.L140:
 3325              		.loc 7 1154 0
 3326 023e 07B0     		add	sp, sp, #28
 3327              		@ sp needed
 3328 0240 30BD     		pop	{r4, r5, pc}
 3329              	.L155:
 3330 0242 00BF     		.align	2
 3331              	.L154:
 3332 0244 00800010 		.word	268468224
 3333 0248 00800410 		.word	268730368
 3334 024c 00800810 		.word	268992512
 3335 0250 00800C10 		.word	269254656
 3336 0254 00040002 		.word	33555456
 3337              		.cfi_endproc
 3338              	.LFE294:
 3339              		.size	usb_lld_init_endpoint, .-usb_lld_init_endpoint
 3340 0258 AFF30080 		.section	.text.usb_lld_disable_endpoints,"ax",%progbits
 3340      AFF30080 
 3341              		.align	2
 3342              		.p2align 4,,15
 3343              		.global	usb_lld_disable_endpoints
 3344              		.thumb
 3345              		.thumb_func
 3346              		.type	usb_lld_disable_endpoints, %function
 3347              	usb_lld_disable_endpoints:
 3348              	.LFB295:
 3349              		.loc 7 1163 0
 3350              		.cfi_startproc
 3351              		@ args = 0, pretend = 0, frame = 8
 3352              		@ frame_needed = 0, uses_anonymous_args = 0
 3353 0000 00B5     		push	{lr}
 3354              		.cfi_def_cfa_offset 4
 3355              		.cfi_offset 14, -4
 3356 0002 83B0     		sub	sp, sp, #12
 3357              		.cfi_def_cfa_offset 16
 3358 0004 0190     		str	r0, [sp, #4]
 3359              		.loc 7 1166 0
 3360 0006 0198     		ldr	r0, [sp, #4]
 3361 0008 FFF7FEFF 		bl	otg_ram_reset
 3362              		.loc 7 1169 0
 3363 000c 0198     		ldr	r0, [sp, #4]
 3364 000e FFF7FEFF 		bl	otg_disable_ep
 3365              		.loc 7 1170 0
ARM GAS  /tmp/cciPs3oN.s 			page 61


 3366 0012 03B0     		add	sp, sp, #12
 3367              		@ sp needed
 3368 0014 5DF804FB 		ldr	pc, [sp], #4
 3369              		.cfi_endproc
 3370              	.LFE295:
 3371              		.size	usb_lld_disable_endpoints, .-usb_lld_disable_endpoints
 3372 0018 AFF30080 		.section	.text.usb_lld_get_status_out,"ax",%progbits
 3372      AFF30080 
 3373              		.align	2
 3374              		.p2align 4,,15
 3375              		.global	usb_lld_get_status_out
 3376              		.thumb
 3377              		.thumb_func
 3378              		.type	usb_lld_get_status_out, %function
 3379              	usb_lld_get_status_out:
 3380              	.LFB296:
 3381              		.loc 7 1184 0
 3382              		.cfi_startproc
 3383              		@ args = 0, pretend = 0, frame = 16
 3384              		@ frame_needed = 0, uses_anonymous_args = 0
 3385              		@ link register save eliminated.
 3386 0000 84B0     		sub	sp, sp, #16
 3387              		.cfi_def_cfa_offset 16
 3388 0002 0190     		str	r0, [sp, #4]
 3389 0004 0B46     		mov	r3, r1
 3390 0006 8DF80330 		strb	r3, [sp, #3]
 3391              		.loc 7 1189 0
 3392 000a 019B     		ldr	r3, [sp, #4]
 3393 000c 1A6D     		ldr	r2, [r3, #80]
 3394 000e 9DF80330 		ldrb	r3, [sp, #3]	@ zero_extendqisi2
 3395 0012 5833     		adds	r3, r3, #88
 3396 0014 5B01     		lsls	r3, r3, #5
 3397 0016 1344     		add	r3, r3, r2
 3398 0018 1B68     		ldr	r3, [r3]
 3399 001a 0393     		str	r3, [sp, #12]
 3400              		.loc 7 1190 0
 3401 001c 039B     		ldr	r3, [sp, #12]
 3402 001e 03F40043 		and	r3, r3, #32768
 3403 0022 002B     		cmp	r3, #0
 3404 0024 01D1     		bne	.L158
 3405              		.loc 7 1191 0
 3406 0026 0023     		movs	r3, #0
 3407 0028 07E0     		b	.L159
 3408              	.L158:
 3409              		.loc 7 1192 0
 3410 002a 039B     		ldr	r3, [sp, #12]
 3411 002c 03F40013 		and	r3, r3, #2097152
 3412 0030 002B     		cmp	r3, #0
 3413 0032 01D0     		beq	.L160
 3414              		.loc 7 1193 0
 3415 0034 0123     		movs	r3, #1
 3416 0036 00E0     		b	.L159
 3417              	.L160:
 3418              		.loc 7 1194 0
 3419 0038 0223     		movs	r3, #2
 3420              	.L159:
 3421              		.loc 7 1195 0
ARM GAS  /tmp/cciPs3oN.s 			page 62


 3422 003a 1846     		mov	r0, r3
 3423 003c 04B0     		add	sp, sp, #16
 3424              		@ sp needed
 3425 003e 7047     		bx	lr
 3426              		.cfi_endproc
 3427              	.LFE296:
 3428              		.size	usb_lld_get_status_out, .-usb_lld_get_status_out
 3429              		.section	.text.usb_lld_get_status_in,"ax",%progbits
 3430              		.align	2
 3431              		.p2align 4,,15
 3432              		.global	usb_lld_get_status_in
 3433              		.thumb
 3434              		.thumb_func
 3435              		.type	usb_lld_get_status_in, %function
 3436              	usb_lld_get_status_in:
 3437              	.LFB297:
 3438              		.loc 7 1209 0
 3439              		.cfi_startproc
 3440              		@ args = 0, pretend = 0, frame = 16
 3441              		@ frame_needed = 0, uses_anonymous_args = 0
 3442              		@ link register save eliminated.
 3443 0000 84B0     		sub	sp, sp, #16
 3444              		.cfi_def_cfa_offset 16
 3445 0002 0190     		str	r0, [sp, #4]
 3446 0004 0B46     		mov	r3, r1
 3447 0006 8DF80330 		strb	r3, [sp, #3]
 3448              		.loc 7 1214 0
 3449 000a 019B     		ldr	r3, [sp, #4]
 3450 000c 1A6D     		ldr	r2, [r3, #80]
 3451 000e 9DF80330 		ldrb	r3, [sp, #3]	@ zero_extendqisi2
 3452 0012 4833     		adds	r3, r3, #72
 3453 0014 5B01     		lsls	r3, r3, #5
 3454 0016 1344     		add	r3, r3, r2
 3455 0018 1B68     		ldr	r3, [r3]
 3456 001a 0393     		str	r3, [sp, #12]
 3457              		.loc 7 1215 0
 3458 001c 039B     		ldr	r3, [sp, #12]
 3459 001e 03F40043 		and	r3, r3, #32768
 3460 0022 002B     		cmp	r3, #0
 3461 0024 01D1     		bne	.L162
 3462              		.loc 7 1216 0
 3463 0026 0023     		movs	r3, #0
 3464 0028 07E0     		b	.L163
 3465              	.L162:
 3466              		.loc 7 1217 0
 3467 002a 039B     		ldr	r3, [sp, #12]
 3468 002c 03F40013 		and	r3, r3, #2097152
 3469 0030 002B     		cmp	r3, #0
 3470 0032 01D0     		beq	.L164
 3471              		.loc 7 1218 0
 3472 0034 0123     		movs	r3, #1
 3473 0036 00E0     		b	.L163
 3474              	.L164:
 3475              		.loc 7 1219 0
 3476 0038 0223     		movs	r3, #2
 3477              	.L163:
 3478              		.loc 7 1220 0
ARM GAS  /tmp/cciPs3oN.s 			page 63


 3479 003a 1846     		mov	r0, r3
 3480 003c 04B0     		add	sp, sp, #16
 3481              		@ sp needed
 3482 003e 7047     		bx	lr
 3483              		.cfi_endproc
 3484              	.LFE297:
 3485              		.size	usb_lld_get_status_in, .-usb_lld_get_status_in
 3486              		.section	.text.usb_lld_read_setup,"ax",%progbits
 3487              		.align	2
 3488              		.p2align 4,,15
 3489              		.global	usb_lld_read_setup
 3490              		.thumb
 3491              		.thumb_func
 3492              		.type	usb_lld_read_setup, %function
 3493              	usb_lld_read_setup:
 3494              	.LFB298:
 3495              		.loc 7 1236 0
 3496              		.cfi_startproc
 3497              		@ args = 0, pretend = 0, frame = 16
 3498              		@ frame_needed = 0, uses_anonymous_args = 0
 3499 0000 00B5     		push	{lr}
 3500              		.cfi_def_cfa_offset 4
 3501              		.cfi_offset 14, -4
 3502 0002 85B0     		sub	sp, sp, #20
 3503              		.cfi_def_cfa_offset 24
 3504 0004 0390     		str	r0, [sp, #12]
 3505 0006 0B46     		mov	r3, r1
 3506 0008 0192     		str	r2, [sp, #4]
 3507 000a 8DF80B30 		strb	r3, [sp, #11]
 3508              		.loc 7 1238 0
 3509 000e 9DF80B30 		ldrb	r3, [sp, #11]	@ zero_extendqisi2
 3510 0012 039A     		ldr	r2, [sp, #12]
 3511 0014 0233     		adds	r3, r3, #2
 3512 0016 9B00     		lsls	r3, r3, #2
 3513 0018 1344     		add	r3, r3, r2
 3514 001a 5B68     		ldr	r3, [r3, #4]
 3515 001c 1B6A     		ldr	r3, [r3, #32]
 3516 001e 0198     		ldr	r0, [sp, #4]
 3517 0020 1946     		mov	r1, r3
 3518 0022 0822     		movs	r2, #8
 3519 0024 FFF7FEFF 		bl	memcpy
 3520              		.loc 7 1239 0
 3521 0028 05B0     		add	sp, sp, #20
 3522              		@ sp needed
 3523 002a 5DF804FB 		ldr	pc, [sp], #4
 3524              		.cfi_endproc
 3525              	.LFE298:
 3526              		.size	usb_lld_read_setup, .-usb_lld_read_setup
 3527 002e 00BF     		.section	.text.usb_lld_prepare_receive,"ax",%progbits
 3528              		.align	2
 3529              		.p2align 4,,15
 3530              		.global	usb_lld_prepare_receive
 3531              		.thumb
 3532              		.thumb_func
 3533              		.type	usb_lld_prepare_receive, %function
 3534              	usb_lld_prepare_receive:
 3535              	.LFB299:
ARM GAS  /tmp/cciPs3oN.s 			page 64


 3536              		.loc 7 1249 0
 3537              		.cfi_startproc
 3538              		@ args = 0, pretend = 0, frame = 16
 3539              		@ frame_needed = 0, uses_anonymous_args = 0
 3540              		@ link register save eliminated.
 3541 0000 84B0     		sub	sp, sp, #16
 3542              		.cfi_def_cfa_offset 16
 3543 0002 0190     		str	r0, [sp, #4]
 3544 0004 0B46     		mov	r3, r1
 3545 0006 8DF80330 		strb	r3, [sp, #3]
 3546              		.loc 7 1251 0
 3547 000a 9DF80330 		ldrb	r3, [sp, #3]	@ zero_extendqisi2
 3548 000e 019A     		ldr	r2, [sp, #4]
 3549 0010 0233     		adds	r3, r3, #2
 3550 0012 9B00     		lsls	r3, r3, #2
 3551 0014 1344     		add	r3, r3, r2
 3552 0016 5B68     		ldr	r3, [r3, #4]
 3553 0018 9B69     		ldr	r3, [r3, #24]
 3554 001a 0393     		str	r3, [sp, #12]
 3555              		.loc 7 1254 0
 3556 001c 039B     		ldr	r3, [sp, #12]
 3557 001e 5A68     		ldr	r2, [r3, #4]
 3558 0020 039B     		ldr	r3, [sp, #12]
 3559 0022 1A61     		str	r2, [r3, #16]
 3560              		.loc 7 1255 0
 3561 0024 9DF80330 		ldrb	r3, [sp, #3]	@ zero_extendqisi2
 3562 0028 002B     		cmp	r3, #0
 3563 002a 06D1     		bne	.L167
 3564              		.loc 7 1255 0 is_stmt 0 discriminator 1
 3565 002c 039B     		ldr	r3, [sp, #12]
 3566 002e 5B68     		ldr	r3, [r3, #4]
 3567 0030 402B     		cmp	r3, #64
 3568 0032 02D9     		bls	.L167
 3569              		.loc 7 1256 0 is_stmt 1
 3570 0034 039B     		ldr	r3, [sp, #12]
 3571 0036 4022     		movs	r2, #64
 3572 0038 5A60     		str	r2, [r3, #4]
 3573              	.L167:
 3574              		.loc 7 1258 0
 3575 003a 039B     		ldr	r3, [sp, #12]
 3576 003c 5A68     		ldr	r2, [r3, #4]
 3577 003e 9DF80330 		ldrb	r3, [sp, #3]	@ zero_extendqisi2
 3578 0042 0199     		ldr	r1, [sp, #4]
 3579 0044 0233     		adds	r3, r3, #2
 3580 0046 9B00     		lsls	r3, r3, #2
 3581 0048 0B44     		add	r3, r3, r1
 3582 004a 5B68     		ldr	r3, [r3, #4]
 3583 004c 5B8A     		ldrh	r3, [r3, #18]
 3584 004e 1344     		add	r3, r3, r2
 3585 0050 5A1E     		subs	r2, r3, #1
 3586              		.loc 7 1259 0
 3587 0052 9DF80330 		ldrb	r3, [sp, #3]	@ zero_extendqisi2
 3588 0056 0199     		ldr	r1, [sp, #4]
 3589 0058 0233     		adds	r3, r3, #2
 3590 005a 9B00     		lsls	r3, r3, #2
 3591 005c 0B44     		add	r3, r3, r1
 3592 005e 5B68     		ldr	r3, [r3, #4]
ARM GAS  /tmp/cciPs3oN.s 			page 65


 3593 0060 5B8A     		ldrh	r3, [r3, #18]
 3594              		.loc 7 1258 0
 3595 0062 B2FBF3F3 		udiv	r3, r2, r3
 3596 0066 0293     		str	r3, [sp, #8]
 3597              		.loc 7 1260 0
 3598 0068 019B     		ldr	r3, [sp, #4]
 3599 006a 196D     		ldr	r1, [r3, #80]
 3600 006c 9DF80330 		ldrb	r3, [sp, #3]	@ zero_extendqisi2
 3601 0070 029A     		ldr	r2, [sp, #8]
 3602 0072 D004     		lsls	r0, r2, #19
 3603              		.loc 7 1261 0
 3604 0074 039A     		ldr	r2, [sp, #12]
 3605 0076 5268     		ldr	r2, [r2, #4]
 3606              		.loc 7 1260 0
 3607 0078 0243     		orrs	r2, r2, r0
 3608 007a 42F0C042 		orr	r2, r2, #1610612736
 3609 007e 5B01     		lsls	r3, r3, #5
 3610 0080 0B44     		add	r3, r3, r1
 3611 0082 03F53163 		add	r3, r3, #2832
 3612 0086 1A60     		str	r2, [r3]
 3613              		.loc 7 1263 0
 3614 0088 04B0     		add	sp, sp, #16
 3615              		@ sp needed
 3616 008a 7047     		bx	lr
 3617              		.cfi_endproc
 3618              	.LFE299:
 3619              		.size	usb_lld_prepare_receive, .-usb_lld_prepare_receive
 3620 008c AFF30080 		.section	.text.usb_lld_prepare_transmit,"ax",%progbits
 3621              		.align	2
 3622              		.p2align 4,,15
 3623              		.global	usb_lld_prepare_transmit
 3624              		.thumb
 3625              		.thumb_func
 3626              		.type	usb_lld_prepare_transmit, %function
 3627              	usb_lld_prepare_transmit:
 3628              	.LFB300:
 3629              		.loc 7 1273 0
 3630              		.cfi_startproc
 3631              		@ args = 0, pretend = 0, frame = 16
 3632              		@ frame_needed = 0, uses_anonymous_args = 0
 3633              		@ link register save eliminated.
 3634 0000 84B0     		sub	sp, sp, #16
 3635              		.cfi_def_cfa_offset 16
 3636 0002 0190     		str	r0, [sp, #4]
 3637 0004 0B46     		mov	r3, r1
 3638 0006 8DF80330 		strb	r3, [sp, #3]
 3639              		.loc 7 1274 0
 3640 000a 9DF80330 		ldrb	r3, [sp, #3]	@ zero_extendqisi2
 3641 000e 019A     		ldr	r2, [sp, #4]
 3642 0010 0233     		adds	r3, r3, #2
 3643 0012 9B00     		lsls	r3, r3, #2
 3644 0014 1344     		add	r3, r3, r2
 3645 0016 5B68     		ldr	r3, [r3, #4]
 3646 0018 5B69     		ldr	r3, [r3, #20]
 3647 001a 0393     		str	r3, [sp, #12]
 3648              		.loc 7 1277 0
 3649 001c 039B     		ldr	r3, [sp, #12]
ARM GAS  /tmp/cciPs3oN.s 			page 66


 3650 001e 5A68     		ldr	r2, [r3, #4]
 3651 0020 039B     		ldr	r3, [sp, #12]
 3652 0022 1A61     		str	r2, [r3, #16]
 3653              		.loc 7 1278 0
 3654 0024 039B     		ldr	r3, [sp, #12]
 3655 0026 5B68     		ldr	r3, [r3, #4]
 3656 0028 002B     		cmp	r3, #0
 3657 002a 0BD1     		bne	.L169
 3658              		.loc 7 1280 0
 3659 002c 019B     		ldr	r3, [sp, #4]
 3660 002e 1A6D     		ldr	r2, [r3, #80]
 3661 0030 9DF80330 		ldrb	r3, [sp, #3]	@ zero_extendqisi2
 3662 0034 5B01     		lsls	r3, r3, #5
 3663 0036 1344     		add	r3, r3, r2
 3664 0038 03F51163 		add	r3, r3, #2320
 3665 003c 4FF40022 		mov	r2, #524288
 3666 0040 1A60     		str	r2, [r3]
 3667 0042 2FE0     		b	.L168
 3668              	.L169:
 3669              	.LBB19:
 3670              		.loc 7 1283 0
 3671 0044 9DF80330 		ldrb	r3, [sp, #3]	@ zero_extendqisi2
 3672 0048 002B     		cmp	r3, #0
 3673 004a 06D1     		bne	.L171
 3674              		.loc 7 1283 0 is_stmt 0 discriminator 1
 3675 004c 039B     		ldr	r3, [sp, #12]
 3676 004e 5B68     		ldr	r3, [r3, #4]
 3677 0050 402B     		cmp	r3, #64
 3678 0052 02D9     		bls	.L171
 3679              		.loc 7 1284 0 is_stmt 1
 3680 0054 039B     		ldr	r3, [sp, #12]
 3681 0056 4022     		movs	r2, #64
 3682 0058 5A60     		str	r2, [r3, #4]
 3683              	.L171:
 3684              		.loc 7 1287 0
 3685 005a 039B     		ldr	r3, [sp, #12]
 3686 005c 5A68     		ldr	r2, [r3, #4]
 3687 005e 9DF80330 		ldrb	r3, [sp, #3]	@ zero_extendqisi2
 3688 0062 0199     		ldr	r1, [sp, #4]
 3689 0064 0233     		adds	r3, r3, #2
 3690 0066 9B00     		lsls	r3, r3, #2
 3691 0068 0B44     		add	r3, r3, r1
 3692 006a 5B68     		ldr	r3, [r3, #4]
 3693 006c 1B8A     		ldrh	r3, [r3, #16]
 3694 006e 1344     		add	r3, r3, r2
 3695 0070 5A1E     		subs	r2, r3, #1
 3696              		.loc 7 1288 0
 3697 0072 9DF80330 		ldrb	r3, [sp, #3]	@ zero_extendqisi2
 3698 0076 0199     		ldr	r1, [sp, #4]
 3699 0078 0233     		adds	r3, r3, #2
 3700 007a 9B00     		lsls	r3, r3, #2
 3701 007c 0B44     		add	r3, r3, r1
 3702 007e 5B68     		ldr	r3, [r3, #4]
 3703 0080 1B8A     		ldrh	r3, [r3, #16]
 3704              		.loc 7 1287 0
 3705 0082 B2FBF3F3 		udiv	r3, r2, r3
 3706 0086 0293     		str	r3, [sp, #8]
ARM GAS  /tmp/cciPs3oN.s 			page 67


 3707              		.loc 7 1289 0
 3708 0088 019B     		ldr	r3, [sp, #4]
 3709 008a 196D     		ldr	r1, [r3, #80]
 3710 008c 9DF80330 		ldrb	r3, [sp, #3]	@ zero_extendqisi2
 3711 0090 029A     		ldr	r2, [sp, #8]
 3712 0092 D004     		lsls	r0, r2, #19
 3713              		.loc 7 1290 0
 3714 0094 039A     		ldr	r2, [sp, #12]
 3715 0096 5268     		ldr	r2, [r2, #4]
 3716              		.loc 7 1289 0
 3717 0098 0243     		orrs	r2, r2, r0
 3718 009a 5B01     		lsls	r3, r3, #5
 3719 009c 0B44     		add	r3, r3, r1
 3720 009e 03F51163 		add	r3, r3, #2320
 3721 00a2 1A60     		str	r2, [r3]
 3722              	.L168:
 3723              	.LBE19:
 3724              		.loc 7 1292 0
 3725 00a4 04B0     		add	sp, sp, #16
 3726              		@ sp needed
 3727 00a6 7047     		bx	lr
 3728              		.cfi_endproc
 3729              	.LFE300:
 3730              		.size	usb_lld_prepare_transmit, .-usb_lld_prepare_transmit
 3731 00a8 AFF30080 		.section	.text.usb_lld_start_out,"ax",%progbits
 3731      AFF30080 
 3732              		.align	2
 3733              		.p2align 4,,15
 3734              		.global	usb_lld_start_out
 3735              		.thumb
 3736              		.thumb_func
 3737              		.type	usb_lld_start_out, %function
 3738              	usb_lld_start_out:
 3739              	.LFB301:
 3740              		.loc 7 1302 0
 3741              		.cfi_startproc
 3742              		@ args = 0, pretend = 0, frame = 8
 3743              		@ frame_needed = 0, uses_anonymous_args = 0
 3744              		@ link register save eliminated.
 3745 0000 82B0     		sub	sp, sp, #8
 3746              		.cfi_def_cfa_offset 8
 3747 0002 0190     		str	r0, [sp, #4]
 3748 0004 0B46     		mov	r3, r1
 3749 0006 8DF80330 		strb	r3, [sp, #3]
 3750              		.loc 7 1304 0
 3751 000a 019B     		ldr	r3, [sp, #4]
 3752 000c 196D     		ldr	r1, [r3, #80]
 3753 000e 9DF80330 		ldrb	r3, [sp, #3]	@ zero_extendqisi2
 3754 0012 019A     		ldr	r2, [sp, #4]
 3755 0014 106D     		ldr	r0, [r2, #80]
 3756 0016 9DF80320 		ldrb	r2, [sp, #3]	@ zero_extendqisi2
 3757 001a 5832     		adds	r2, r2, #88
 3758 001c 5201     		lsls	r2, r2, #5
 3759 001e 0244     		add	r2, r2, r0
 3760 0020 1268     		ldr	r2, [r2]
 3761 0022 42F08062 		orr	r2, r2, #67108864
 3762 0026 5833     		adds	r3, r3, #88
ARM GAS  /tmp/cciPs3oN.s 			page 68


 3763 0028 5B01     		lsls	r3, r3, #5
 3764 002a 0B44     		add	r3, r3, r1
 3765 002c 1A60     		str	r2, [r3]
 3766              		.loc 7 1305 0
 3767 002e 02B0     		add	sp, sp, #8
 3768              		@ sp needed
 3769 0030 7047     		bx	lr
 3770              		.cfi_endproc
 3771              	.LFE301:
 3772              		.size	usb_lld_start_out, .-usb_lld_start_out
 3773 0032 00BFAFF3 		.section	.text.usb_lld_start_in,"ax",%progbits
 3773      0080AFF3 
 3773      0080AFF3 
 3773      0080
 3774              		.align	2
 3775              		.p2align 4,,15
 3776              		.global	usb_lld_start_in
 3777              		.thumb
 3778              		.thumb_func
 3779              		.type	usb_lld_start_in, %function
 3780              	usb_lld_start_in:
 3781              	.LFB302:
 3782              		.loc 7 1315 0
 3783              		.cfi_startproc
 3784              		@ args = 0, pretend = 0, frame = 8
 3785              		@ frame_needed = 0, uses_anonymous_args = 0
 3786              		@ link register save eliminated.
 3787 0000 82B0     		sub	sp, sp, #8
 3788              		.cfi_def_cfa_offset 8
 3789 0002 0190     		str	r0, [sp, #4]
 3790 0004 0B46     		mov	r3, r1
 3791 0006 8DF80330 		strb	r3, [sp, #3]
 3792              		.loc 7 1317 0
 3793 000a 019B     		ldr	r3, [sp, #4]
 3794 000c 196D     		ldr	r1, [r3, #80]
 3795 000e 9DF80330 		ldrb	r3, [sp, #3]	@ zero_extendqisi2
 3796 0012 019A     		ldr	r2, [sp, #4]
 3797 0014 106D     		ldr	r0, [r2, #80]
 3798 0016 9DF80320 		ldrb	r2, [sp, #3]	@ zero_extendqisi2
 3799 001a 4832     		adds	r2, r2, #72
 3800 001c 5201     		lsls	r2, r2, #5
 3801 001e 0244     		add	r2, r2, r0
 3802 0020 1268     		ldr	r2, [r2]
 3803 0022 42F00442 		orr	r2, r2, #-2080374784
 3804 0026 4833     		adds	r3, r3, #72
 3805 0028 5B01     		lsls	r3, r3, #5
 3806 002a 0B44     		add	r3, r3, r1
 3807 002c 1A60     		str	r2, [r3]
 3808              		.loc 7 1318 0
 3809 002e 019B     		ldr	r3, [sp, #4]
 3810 0030 1B6D     		ldr	r3, [r3, #80]
 3811 0032 019A     		ldr	r2, [sp, #4]
 3812 0034 126D     		ldr	r2, [r2, #80]
 3813 0036 D2F83418 		ldr	r1, [r2, #2100]
 3814 003a 9DF80320 		ldrb	r2, [sp, #3]	@ zero_extendqisi2
 3815 003e 0120     		movs	r0, #1
 3816 0040 00FA02F2 		lsl	r2, r0, r2
ARM GAS  /tmp/cciPs3oN.s 			page 69


 3817 0044 0A43     		orrs	r2, r2, r1
 3818 0046 C3F83428 		str	r2, [r3, #2100]
 3819              		.loc 7 1319 0
 3820 004a 02B0     		add	sp, sp, #8
 3821              		@ sp needed
 3822 004c 7047     		bx	lr
 3823              		.cfi_endproc
 3824              	.LFE302:
 3825              		.size	usb_lld_start_in, .-usb_lld_start_in
 3826 004e 00BF     		.section	.text.usb_lld_stall_out,"ax",%progbits
 3827              		.align	2
 3828              		.p2align 4,,15
 3829              		.global	usb_lld_stall_out
 3830              		.thumb
 3831              		.thumb_func
 3832              		.type	usb_lld_stall_out, %function
 3833              	usb_lld_stall_out:
 3834              	.LFB303:
 3835              		.loc 7 1329 0
 3836              		.cfi_startproc
 3837              		@ args = 0, pretend = 0, frame = 8
 3838              		@ frame_needed = 0, uses_anonymous_args = 0
 3839              		@ link register save eliminated.
 3840 0000 82B0     		sub	sp, sp, #8
 3841              		.cfi_def_cfa_offset 8
 3842 0002 0190     		str	r0, [sp, #4]
 3843 0004 0B46     		mov	r3, r1
 3844 0006 8DF80330 		strb	r3, [sp, #3]
 3845              		.loc 7 1331 0
 3846 000a 019B     		ldr	r3, [sp, #4]
 3847 000c 196D     		ldr	r1, [r3, #80]
 3848 000e 9DF80330 		ldrb	r3, [sp, #3]	@ zero_extendqisi2
 3849 0012 019A     		ldr	r2, [sp, #4]
 3850 0014 106D     		ldr	r0, [r2, #80]
 3851 0016 9DF80320 		ldrb	r2, [sp, #3]	@ zero_extendqisi2
 3852 001a 5832     		adds	r2, r2, #88
 3853 001c 5201     		lsls	r2, r2, #5
 3854 001e 0244     		add	r2, r2, r0
 3855 0020 1268     		ldr	r2, [r2]
 3856 0022 42F40012 		orr	r2, r2, #2097152
 3857 0026 5833     		adds	r3, r3, #88
 3858 0028 5B01     		lsls	r3, r3, #5
 3859 002a 0B44     		add	r3, r3, r1
 3860 002c 1A60     		str	r2, [r3]
 3861              		.loc 7 1332 0
 3862 002e 02B0     		add	sp, sp, #8
 3863              		@ sp needed
 3864 0030 7047     		bx	lr
 3865              		.cfi_endproc
 3866              	.LFE303:
 3867              		.size	usb_lld_stall_out, .-usb_lld_stall_out
 3868 0032 00BFAFF3 		.section	.text.usb_lld_stall_in,"ax",%progbits
 3868      0080AFF3 
 3868      0080AFF3 
 3868      0080
 3869              		.align	2
 3870              		.p2align 4,,15
ARM GAS  /tmp/cciPs3oN.s 			page 70


 3871              		.global	usb_lld_stall_in
 3872              		.thumb
 3873              		.thumb_func
 3874              		.type	usb_lld_stall_in, %function
 3875              	usb_lld_stall_in:
 3876              	.LFB304:
 3877              		.loc 7 1342 0
 3878              		.cfi_startproc
 3879              		@ args = 0, pretend = 0, frame = 8
 3880              		@ frame_needed = 0, uses_anonymous_args = 0
 3881              		@ link register save eliminated.
 3882 0000 82B0     		sub	sp, sp, #8
 3883              		.cfi_def_cfa_offset 8
 3884 0002 0190     		str	r0, [sp, #4]
 3885 0004 0B46     		mov	r3, r1
 3886 0006 8DF80330 		strb	r3, [sp, #3]
 3887              		.loc 7 1344 0
 3888 000a 019B     		ldr	r3, [sp, #4]
 3889 000c 196D     		ldr	r1, [r3, #80]
 3890 000e 9DF80330 		ldrb	r3, [sp, #3]	@ zero_extendqisi2
 3891 0012 019A     		ldr	r2, [sp, #4]
 3892 0014 106D     		ldr	r0, [r2, #80]
 3893 0016 9DF80320 		ldrb	r2, [sp, #3]	@ zero_extendqisi2
 3894 001a 4832     		adds	r2, r2, #72
 3895 001c 5201     		lsls	r2, r2, #5
 3896 001e 0244     		add	r2, r2, r0
 3897 0020 1268     		ldr	r2, [r2]
 3898 0022 42F40012 		orr	r2, r2, #2097152
 3899 0026 4833     		adds	r3, r3, #72
 3900 0028 5B01     		lsls	r3, r3, #5
 3901 002a 0B44     		add	r3, r3, r1
 3902 002c 1A60     		str	r2, [r3]
 3903              		.loc 7 1345 0
 3904 002e 02B0     		add	sp, sp, #8
 3905              		@ sp needed
 3906 0030 7047     		bx	lr
 3907              		.cfi_endproc
 3908              	.LFE304:
 3909              		.size	usb_lld_stall_in, .-usb_lld_stall_in
 3910 0032 00BFAFF3 		.section	.text.usb_lld_clear_out,"ax",%progbits
 3910      0080AFF3 
 3910      0080AFF3 
 3910      0080
 3911              		.align	2
 3912              		.p2align 4,,15
 3913              		.global	usb_lld_clear_out
 3914              		.thumb
 3915              		.thumb_func
 3916              		.type	usb_lld_clear_out, %function
 3917              	usb_lld_clear_out:
 3918              	.LFB305:
 3919              		.loc 7 1355 0
 3920              		.cfi_startproc
 3921              		@ args = 0, pretend = 0, frame = 8
 3922              		@ frame_needed = 0, uses_anonymous_args = 0
 3923              		@ link register save eliminated.
 3924 0000 82B0     		sub	sp, sp, #8
ARM GAS  /tmp/cciPs3oN.s 			page 71


 3925              		.cfi_def_cfa_offset 8
 3926 0002 0190     		str	r0, [sp, #4]
 3927 0004 0B46     		mov	r3, r1
 3928 0006 8DF80330 		strb	r3, [sp, #3]
 3929              		.loc 7 1357 0
 3930 000a 019B     		ldr	r3, [sp, #4]
 3931 000c 196D     		ldr	r1, [r3, #80]
 3932 000e 9DF80330 		ldrb	r3, [sp, #3]	@ zero_extendqisi2
 3933 0012 019A     		ldr	r2, [sp, #4]
 3934 0014 106D     		ldr	r0, [r2, #80]
 3935 0016 9DF80320 		ldrb	r2, [sp, #3]	@ zero_extendqisi2
 3936 001a 5832     		adds	r2, r2, #88
 3937 001c 5201     		lsls	r2, r2, #5
 3938 001e 0244     		add	r2, r2, r0
 3939 0020 1268     		ldr	r2, [r2]
 3940 0022 22F40012 		bic	r2, r2, #2097152
 3941 0026 5833     		adds	r3, r3, #88
 3942 0028 5B01     		lsls	r3, r3, #5
 3943 002a 0B44     		add	r3, r3, r1
 3944 002c 1A60     		str	r2, [r3]
 3945              		.loc 7 1358 0
 3946 002e 02B0     		add	sp, sp, #8
 3947              		@ sp needed
 3948 0030 7047     		bx	lr
 3949              		.cfi_endproc
 3950              	.LFE305:
 3951              		.size	usb_lld_clear_out, .-usb_lld_clear_out
 3952 0032 00BFAFF3 		.section	.text.usb_lld_clear_in,"ax",%progbits
 3952      0080AFF3 
 3952      0080AFF3 
 3952      0080
 3953              		.align	2
 3954              		.p2align 4,,15
 3955              		.global	usb_lld_clear_in
 3956              		.thumb
 3957              		.thumb_func
 3958              		.type	usb_lld_clear_in, %function
 3959              	usb_lld_clear_in:
 3960              	.LFB306:
 3961              		.loc 7 1368 0
 3962              		.cfi_startproc
 3963              		@ args = 0, pretend = 0, frame = 8
 3964              		@ frame_needed = 0, uses_anonymous_args = 0
 3965              		@ link register save eliminated.
 3966 0000 82B0     		sub	sp, sp, #8
 3967              		.cfi_def_cfa_offset 8
 3968 0002 0190     		str	r0, [sp, #4]
 3969 0004 0B46     		mov	r3, r1
 3970 0006 8DF80330 		strb	r3, [sp, #3]
 3971              		.loc 7 1370 0
 3972 000a 019B     		ldr	r3, [sp, #4]
 3973 000c 196D     		ldr	r1, [r3, #80]
 3974 000e 9DF80330 		ldrb	r3, [sp, #3]	@ zero_extendqisi2
 3975 0012 019A     		ldr	r2, [sp, #4]
 3976 0014 106D     		ldr	r0, [r2, #80]
 3977 0016 9DF80320 		ldrb	r2, [sp, #3]	@ zero_extendqisi2
 3978 001a 4832     		adds	r2, r2, #72
ARM GAS  /tmp/cciPs3oN.s 			page 72


 3979 001c 5201     		lsls	r2, r2, #5
 3980 001e 0244     		add	r2, r2, r0
 3981 0020 1268     		ldr	r2, [r2]
 3982 0022 22F40012 		bic	r2, r2, #2097152
 3983 0026 4833     		adds	r3, r3, #72
 3984 0028 5B01     		lsls	r3, r3, #5
 3985 002a 0B44     		add	r3, r3, r1
 3986 002c 1A60     		str	r2, [r3]
 3987              		.loc 7 1371 0
 3988 002e 02B0     		add	sp, sp, #8
 3989              		@ sp needed
 3990 0030 7047     		bx	lr
 3991              		.cfi_endproc
 3992              	.LFE306:
 3993              		.size	usb_lld_clear_in, .-usb_lld_clear_in
 3994 0032 00BFAFF3 		.section	.rodata
 3994      0080AFF3 
 3994      0080AFF3 
 3994      0080
 3995              		.align	2
 3996              	.LC0:
 3997 0000 7573625F 		.ascii	"usb_lld_pump\000"
 3997      6C6C645F 
 3997      70756D70 
 3997      00
 3998 000d 000000   		.section	.text.usb_lld_pump,"ax",%progbits
 3999              		.align	2
 4000              		.p2align 4,,15
 4001              		.global	usb_lld_pump
 4002              		.thumb
 4003              		.thumb_func
 4004              		.type	usb_lld_pump, %function
 4005              	usb_lld_pump:
 4006              	.LFB307:
 4007              		.loc 7 1384 0
 4008              		.cfi_startproc
 4009              		@ args = 0, pretend = 0, frame = 32
 4010              		@ frame_needed = 0, uses_anonymous_args = 0
 4011 0000 00B5     		push	{lr}
 4012              		.cfi_def_cfa_offset 4
 4013              		.cfi_offset 14, -4
 4014 0002 89B0     		sub	sp, sp, #36
 4015              		.cfi_def_cfa_offset 40
 4016 0004 0190     		str	r0, [sp, #4]
 4017              		.loc 7 1385 0
 4018 0006 019B     		ldr	r3, [sp, #4]
 4019 0008 0693     		str	r3, [sp, #24]
 4020              		.loc 7 1386 0
 4021 000a 069B     		ldr	r3, [sp, #24]
 4022 000c 1B6D     		ldr	r3, [r3, #80]
 4023 000e 0593     		str	r3, [sp, #20]
 4024              		.loc 7 1389 0
 4025 0010 3D48     		ldr	r0, .L188
 4026 0012 FFF7FEFF 		bl	chRegSetThreadName
 4027              		.loc 7 1391 0
 4028 0016 FFF7FEFF 		bl	osalSysLock
 4029              	.L187:
ARM GAS  /tmp/cciPs3oN.s 			page 73


 4030              	.LBB20:
 4031              		.loc 7 1397 0
 4032 001a 069B     		ldr	r3, [sp, #24]
 4033 001c 1B78     		ldrb	r3, [r3]	@ zero_extendqisi2
 4034 001e 012B     		cmp	r3, #1
 4035 0020 09D0     		beq	.L179
 4036              		.loc 7 1398 0 discriminator 1
 4037 0022 069B     		ldr	r3, [sp, #24]
 4038 0024 DB6D     		ldr	r3, [r3, #92]
 4039              		.loc 7 1397 0 discriminator 1
 4040 0026 002B     		cmp	r3, #0
 4041 0028 10D1     		bne	.L180
 4042              		.loc 7 1398 0
 4043 002a 059B     		ldr	r3, [sp, #20]
 4044 002c 5B69     		ldr	r3, [r3, #20]
 4045 002e 03F01003 		and	r3, r3, #16
 4046 0032 002B     		cmp	r3, #0
 4047 0034 0AD1     		bne	.L180
 4048              	.L179:
 4049              		.loc 7 1399 0
 4050 0036 059B     		ldr	r3, [sp, #20]
 4051 0038 9B69     		ldr	r3, [r3, #24]
 4052 003a 43F01002 		orr	r2, r3, #16
 4053 003e 059B     		ldr	r3, [sp, #20]
 4054 0040 9A61     		str	r2, [r3, #24]
 4055              		.loc 7 1400 0
 4056 0042 069B     		ldr	r3, [sp, #24]
 4057 0044 6033     		adds	r3, r3, #96
 4058 0046 1846     		mov	r0, r3
 4059 0048 FFF7FEFF 		bl	osalThreadSuspendS
 4060              	.L180:
 4061              		.loc 7 1402 0
 4062 004c FFF7FEFF 		bl	osalSysUnlock
 4063              		.loc 7 1405 0
 4064 0050 0023     		movs	r3, #0
 4065 0052 8DF81F30 		strb	r3, [sp, #31]
 4066 0056 4DE0     		b	.L181
 4067              	.L186:
 4068              		.loc 7 1408 0
 4069 0058 02E0     		b	.L182
 4070              	.L183:
 4071              		.loc 7 1409 0
 4072 005a 0698     		ldr	r0, [sp, #24]
 4073 005c FFF7FEFF 		bl	otg_rxfifo_handler
 4074              	.L182:
 4075              		.loc 7 1408 0 discriminator 1
 4076 0060 059B     		ldr	r3, [sp, #20]
 4077 0062 5B69     		ldr	r3, [r3, #20]
 4078 0064 03F01003 		and	r3, r3, #16
 4079 0068 002B     		cmp	r3, #0
 4080 006a F6D1     		bne	.L183
 4081              		.loc 7 1412 0
 4082 006c 9DF81F30 		ldrb	r3, [sp, #31]	@ zero_extendqisi2
 4083 0070 0122     		movs	r2, #1
 4084 0072 02FA03F3 		lsl	r3, r2, r3
 4085 0076 0493     		str	r3, [sp, #16]
 4086              		.loc 7 1413 0
ARM GAS  /tmp/cciPs3oN.s 			page 74


 4087 0078 069B     		ldr	r3, [sp, #24]
 4088 007a DA6D     		ldr	r2, [r3, #92]
 4089 007c 049B     		ldr	r3, [sp, #16]
 4090 007e 1340     		ands	r3, r3, r2
 4091 0080 002B     		cmp	r3, #0
 4092 0082 32D0     		beq	.L184
 4093              	.LBB21:
 4094              		.loc 7 1416 0
 4095 0084 FFF7FEFF 		bl	osalSysLock
 4096              		.loc 7 1424 0
 4097 0088 059B     		ldr	r3, [sp, #20]
 4098 008a 9B68     		ldr	r3, [r3, #8]
 4099 008c 23F00102 		bic	r2, r3, #1
 4100 0090 059B     		ldr	r3, [sp, #20]
 4101 0092 9A60     		str	r2, [r3, #8]
 4102              		.loc 7 1425 0
 4103 0094 069B     		ldr	r3, [sp, #24]
 4104 0096 DA6D     		ldr	r2, [r3, #92]
 4105 0098 049B     		ldr	r3, [sp, #16]
 4106 009a DB43     		mvns	r3, r3
 4107 009c 1A40     		ands	r2, r2, r3
 4108 009e 069B     		ldr	r3, [sp, #24]
 4109 00a0 DA65     		str	r2, [r3, #92]
 4110              		.loc 7 1426 0
 4111 00a2 FFF7FEFF 		bl	osalSysUnlock
 4112              		.loc 7 1428 0
 4113 00a6 9DF81F30 		ldrb	r3, [sp, #31]	@ zero_extendqisi2
 4114 00aa 0698     		ldr	r0, [sp, #24]
 4115 00ac 1946     		mov	r1, r3
 4116 00ae FFF7FEFF 		bl	otg_txfifo_handler
 4117 00b2 0346     		mov	r3, r0
 4118 00b4 8DF80F30 		strb	r3, [sp, #15]
 4119              		.loc 7 1430 0
 4120 00b8 FFF7FEFF 		bl	osalSysLock
 4121              		.loc 7 1431 0
 4122 00bc 059B     		ldr	r3, [sp, #20]
 4123 00be 9B68     		ldr	r3, [r3, #8]
 4124 00c0 43F00102 		orr	r2, r3, #1
 4125 00c4 059B     		ldr	r3, [sp, #20]
 4126 00c6 9A60     		str	r2, [r3, #8]
 4127              		.loc 7 1432 0
 4128 00c8 9DF80F30 		ldrb	r3, [sp, #15]
 4129 00cc 83F00103 		eor	r3, r3, #1
 4130 00d0 DBB2     		uxtb	r3, r3
 4131 00d2 002B     		cmp	r3, #0
 4132 00d4 07D0     		beq	.L185
 4133              		.loc 7 1433 0
 4134 00d6 059B     		ldr	r3, [sp, #20]
 4135 00d8 D3F83428 		ldr	r2, [r3, #2100]
 4136 00dc 049B     		ldr	r3, [sp, #16]
 4137 00de 1A43     		orrs	r2, r2, r3
 4138 00e0 059B     		ldr	r3, [sp, #20]
 4139 00e2 C3F83428 		str	r2, [r3, #2100]
 4140              	.L185:
 4141              		.loc 7 1434 0
 4142 00e6 FFF7FEFF 		bl	osalSysUnlock
 4143              	.L184:
ARM GAS  /tmp/cciPs3oN.s 			page 75


 4144              	.LBE21:
 4145              		.loc 7 1405 0
 4146 00ea 9DF81F30 		ldrb	r3, [sp, #31]	@ zero_extendqisi2
 4147 00ee 0133     		adds	r3, r3, #1
 4148 00f0 8DF81F30 		strb	r3, [sp, #31]
 4149              	.L181:
 4150              		.loc 7 1405 0 is_stmt 0 discriminator 1
 4151 00f4 9DF81F20 		ldrb	r2, [sp, #31]	@ zero_extendqisi2
 4152 00f8 069B     		ldr	r3, [sp, #24]
 4153 00fa 5B6D     		ldr	r3, [r3, #84]
 4154 00fc 9B68     		ldr	r3, [r3, #8]
 4155 00fe 9A42     		cmp	r2, r3
 4156 0100 AAD9     		bls	.L186
 4157              		.loc 7 1437 0 is_stmt 1
 4158 0102 FFF7FEFF 		bl	osalSysLock
 4159              	.LBE20:
 4160              		.loc 7 1438 0
 4161 0106 88E7     		b	.L187
 4162              	.L189:
 4163              		.align	2
 4164              	.L188:
 4165 0108 00000000 		.word	.LC0
 4166              		.cfi_endproc
 4167              	.LFE307:
 4168              		.size	usb_lld_pump, .-usb_lld_pump
 4169 010c AFF30080 		.text
 4170              	.Letext0:
 4171              		.file 8 "/usr/lib/gcc/arm-none-eabi/4.8/include/stddef.h"
 4172              		.file 9 "/usr/include/newlib/machine/_default_types.h"
 4173              		.file 10 "/usr/include/newlib/stdint.h"
 4174              		.file 11 "/home/efe/ChibiOS/os/rt/ports/ARMCMx/compilers/GCC/chtypes.h"
 4175              		.file 12 "/home/efe/ChibiOS/os/rt/include/chsystypes.h"
 4176              		.file 13 "/home/efe/ChibiOS/os/rt/include/chschd.h"
 4177              		.file 14 "/home/efe/ChibiOS/os/ext/CMSIS/ST/stm32f407xx.h"
 4178              		.file 15 "/home/efe/ChibiOS/os/rt/ports/ARMCMx/chcore.h"
 4179              		.file 16 "/home/efe/ChibiOS/os/rt/include/chtm.h"
 4180              		.file 17 "/home/efe/ChibiOS/os/rt/include/chsem.h"
 4181              		.file 18 "/home/efe/ChibiOS/os/rt/include/chmtx.h"
 4182              		.file 19 "/home/efe/ChibiOS/os/rt/include/chqueues.h"
 4183              		.file 20 "/home/efe/ChibiOS/os/hal/include/usb.h"
 4184              		.file 21 "/home/efe/ChibiOS/os/hal/ports/STM32/LLD/OTGv1/usb_lld.h"
 4185              		.file 22 "/home/efe/ChibiOS/os/hal/ports/STM32/LLD/OTGv1/stm32_otg.h"
 4186              		.file 23 "/home/efe/ChibiOS/os/ext/CMSIS/include/core_cm4.h"